ARM GAS  C:\Users\jesse\AppData\Local\Temp\ccLflgZg.s 			page 1


   1              		.syntax unified
   2              		.cpu cortex-m3
   3              		.fpu softvfp
   4              		.eabi_attribute 20, 1
   5              		.eabi_attribute 21, 1
   6              		.eabi_attribute 23, 3
   7              		.eabi_attribute 24, 1
   8              		.eabi_attribute 25, 1
   9              		.eabi_attribute 26, 1
  10              		.eabi_attribute 30, 4
  11              		.eabi_attribute 34, 1
  12              		.eabi_attribute 18, 4
  13              		.thumb
  14              		.syntax unified
  15              		.file	"I2C_DISPLAY_INT.c"
  16              		.text
  17              	.Ltext0:
  18              		.cfi_sections	.debug_frame
  19              		.section	.text.I2C_DISPLAY_ISR,"ax",%progbits
  20              		.align	1
  21              		.global	I2C_DISPLAY_ISR
  22              		.thumb
  23              		.thumb_func
  24              		.type	I2C_DISPLAY_ISR, %function
  25              	I2C_DISPLAY_ISR:
  26              	.LFB0:
  27              		.file 1 "Generated_Source\\PSoC5\\I2C_DISPLAY_INT.c"
   1:Generated_Source\PSoC5/I2C_DISPLAY_INT.c **** /*******************************************************************************
   2:Generated_Source\PSoC5/I2C_DISPLAY_INT.c **** * File Name: I2C_DISPLAY_INT.c
   3:Generated_Source\PSoC5/I2C_DISPLAY_INT.c **** * Version 3.50
   4:Generated_Source\PSoC5/I2C_DISPLAY_INT.c **** *
   5:Generated_Source\PSoC5/I2C_DISPLAY_INT.c **** * Description:
   6:Generated_Source\PSoC5/I2C_DISPLAY_INT.c **** *  This file provides the source code of Interrupt Service Routine (ISR)
   7:Generated_Source\PSoC5/I2C_DISPLAY_INT.c **** *  for the I2C component.
   8:Generated_Source\PSoC5/I2C_DISPLAY_INT.c **** *
   9:Generated_Source\PSoC5/I2C_DISPLAY_INT.c **** ********************************************************************************
  10:Generated_Source\PSoC5/I2C_DISPLAY_INT.c **** * Copyright 2008-2015, Cypress Semiconductor Corporation. All rights reserved.
  11:Generated_Source\PSoC5/I2C_DISPLAY_INT.c **** * You may use this file only in accordance with the license, terms, conditions,
  12:Generated_Source\PSoC5/I2C_DISPLAY_INT.c **** * disclaimers, and limitations in the end user license agreement accompanying
  13:Generated_Source\PSoC5/I2C_DISPLAY_INT.c **** * the software package with which this file was provided.
  14:Generated_Source\PSoC5/I2C_DISPLAY_INT.c **** *******************************************************************************/
  15:Generated_Source\PSoC5/I2C_DISPLAY_INT.c **** 
  16:Generated_Source\PSoC5/I2C_DISPLAY_INT.c **** #include "I2C_DISPLAY_PVT.h"
  17:Generated_Source\PSoC5/I2C_DISPLAY_INT.c **** #include "cyapicallbacks.h"
  18:Generated_Source\PSoC5/I2C_DISPLAY_INT.c **** 
  19:Generated_Source\PSoC5/I2C_DISPLAY_INT.c **** 
  20:Generated_Source\PSoC5/I2C_DISPLAY_INT.c **** /*******************************************************************************
  21:Generated_Source\PSoC5/I2C_DISPLAY_INT.c **** *  Place your includes, defines and code here.
  22:Generated_Source\PSoC5/I2C_DISPLAY_INT.c **** ********************************************************************************/
  23:Generated_Source\PSoC5/I2C_DISPLAY_INT.c **** /* `#START I2C_DISPLAY_ISR_intc` */
  24:Generated_Source\PSoC5/I2C_DISPLAY_INT.c **** 
  25:Generated_Source\PSoC5/I2C_DISPLAY_INT.c **** /* `#END` */
  26:Generated_Source\PSoC5/I2C_DISPLAY_INT.c **** 
  27:Generated_Source\PSoC5/I2C_DISPLAY_INT.c **** 
  28:Generated_Source\PSoC5/I2C_DISPLAY_INT.c **** /*******************************************************************************
  29:Generated_Source\PSoC5/I2C_DISPLAY_INT.c **** * Function Name: I2C_DISPLAY_ISR
  30:Generated_Source\PSoC5/I2C_DISPLAY_INT.c **** ********************************************************************************
ARM GAS  C:\Users\jesse\AppData\Local\Temp\ccLflgZg.s 			page 2


  31:Generated_Source\PSoC5/I2C_DISPLAY_INT.c **** *
  32:Generated_Source\PSoC5/I2C_DISPLAY_INT.c **** * Summary:
  33:Generated_Source\PSoC5/I2C_DISPLAY_INT.c **** *  The handler for the I2C interrupt. The slave and master operations are
  34:Generated_Source\PSoC5/I2C_DISPLAY_INT.c **** *  handled here.
  35:Generated_Source\PSoC5/I2C_DISPLAY_INT.c **** *
  36:Generated_Source\PSoC5/I2C_DISPLAY_INT.c **** * Parameters:
  37:Generated_Source\PSoC5/I2C_DISPLAY_INT.c **** *  None.
  38:Generated_Source\PSoC5/I2C_DISPLAY_INT.c **** *
  39:Generated_Source\PSoC5/I2C_DISPLAY_INT.c **** * Return:
  40:Generated_Source\PSoC5/I2C_DISPLAY_INT.c **** *  None.
  41:Generated_Source\PSoC5/I2C_DISPLAY_INT.c **** *
  42:Generated_Source\PSoC5/I2C_DISPLAY_INT.c **** * Reentrant:
  43:Generated_Source\PSoC5/I2C_DISPLAY_INT.c **** *  No.
  44:Generated_Source\PSoC5/I2C_DISPLAY_INT.c **** *
  45:Generated_Source\PSoC5/I2C_DISPLAY_INT.c **** *******************************************************************************/
  46:Generated_Source\PSoC5/I2C_DISPLAY_INT.c **** CY_ISR(I2C_DISPLAY_ISR)
  47:Generated_Source\PSoC5/I2C_DISPLAY_INT.c **** {
  28              		.loc 1 47 0
  29              		.cfi_startproc
  30              		@ args = 0, pretend = 0, frame = 0
  31              		@ frame_needed = 0, uses_anonymous_args = 0
  32 0000 70B5     		push	{r4, r5, r6, lr}
  33              		.cfi_def_cfa_offset 16
  34              		.cfi_offset 4, -16
  35              		.cfi_offset 5, -12
  36              		.cfi_offset 6, -8
  37              		.cfi_offset 14, -4
  48:Generated_Source\PSoC5/I2C_DISPLAY_INT.c **** #if (I2C_DISPLAY_MODE_SLAVE_ENABLED)
  49:Generated_Source\PSoC5/I2C_DISPLAY_INT.c ****    uint8  tmp8;
  50:Generated_Source\PSoC5/I2C_DISPLAY_INT.c **** #endif  /* (I2C_DISPLAY_MODE_SLAVE_ENABLED) */
  51:Generated_Source\PSoC5/I2C_DISPLAY_INT.c **** 
  52:Generated_Source\PSoC5/I2C_DISPLAY_INT.c ****     uint8  tmpCsr;
  53:Generated_Source\PSoC5/I2C_DISPLAY_INT.c ****     
  54:Generated_Source\PSoC5/I2C_DISPLAY_INT.c **** #ifdef I2C_DISPLAY_ISR_ENTRY_CALLBACK
  55:Generated_Source\PSoC5/I2C_DISPLAY_INT.c ****     I2C_DISPLAY_ISR_EntryCallback();
  56:Generated_Source\PSoC5/I2C_DISPLAY_INT.c **** #endif /* I2C_DISPLAY_ISR_ENTRY_CALLBACK */
  57:Generated_Source\PSoC5/I2C_DISPLAY_INT.c ****     
  58:Generated_Source\PSoC5/I2C_DISPLAY_INT.c **** 
  59:Generated_Source\PSoC5/I2C_DISPLAY_INT.c **** #if(I2C_DISPLAY_TIMEOUT_FF_ENABLED)
  60:Generated_Source\PSoC5/I2C_DISPLAY_INT.c ****     if(0u != I2C_DISPLAY_TimeoutGetStatus())
  61:Generated_Source\PSoC5/I2C_DISPLAY_INT.c ****     {
  62:Generated_Source\PSoC5/I2C_DISPLAY_INT.c ****         I2C_DISPLAY_TimeoutReset();
  63:Generated_Source\PSoC5/I2C_DISPLAY_INT.c ****         I2C_DISPLAY_state = I2C_DISPLAY_SM_EXIT_IDLE;
  64:Generated_Source\PSoC5/I2C_DISPLAY_INT.c ****         /* I2C_DISPLAY_CSR_REG should be cleared after reset */
  65:Generated_Source\PSoC5/I2C_DISPLAY_INT.c ****     }
  66:Generated_Source\PSoC5/I2C_DISPLAY_INT.c **** #endif /* (I2C_DISPLAY_TIMEOUT_FF_ENABLED) */
  67:Generated_Source\PSoC5/I2C_DISPLAY_INT.c **** 
  68:Generated_Source\PSoC5/I2C_DISPLAY_INT.c **** 
  69:Generated_Source\PSoC5/I2C_DISPLAY_INT.c ****     tmpCsr = I2C_DISPLAY_CSR_REG;      /* Make copy as interrupts clear */
  38              		.loc 1 69 0
  39 0002 994B     		ldr	r3, .L39
  40 0004 1C78     		ldrb	r4, [r3]	@ zero_extendqisi2
  70:Generated_Source\PSoC5/I2C_DISPLAY_INT.c **** 
  71:Generated_Source\PSoC5/I2C_DISPLAY_INT.c **** #if(I2C_DISPLAY_MODE_MULTI_MASTER_SLAVE_ENABLED)
  72:Generated_Source\PSoC5/I2C_DISPLAY_INT.c ****     if(I2C_DISPLAY_CHECK_START_GEN(I2C_DISPLAY_MCSR_REG))
  73:Generated_Source\PSoC5/I2C_DISPLAY_INT.c ****     {
  74:Generated_Source\PSoC5/I2C_DISPLAY_INT.c ****         I2C_DISPLAY_CLEAR_START_GEN;
ARM GAS  C:\Users\jesse\AppData\Local\Temp\ccLflgZg.s 			page 3


  75:Generated_Source\PSoC5/I2C_DISPLAY_INT.c **** 
  76:Generated_Source\PSoC5/I2C_DISPLAY_INT.c ****         /* Set transfer complete and error flags */
  77:Generated_Source\PSoC5/I2C_DISPLAY_INT.c ****         I2C_DISPLAY_mstrStatus |= (I2C_DISPLAY_MSTAT_ERR_XFER |
  78:Generated_Source\PSoC5/I2C_DISPLAY_INT.c ****                                         I2C_DISPLAY_GET_MSTAT_CMPLT);
  79:Generated_Source\PSoC5/I2C_DISPLAY_INT.c **** 
  80:Generated_Source\PSoC5/I2C_DISPLAY_INT.c ****         /* Slave was addressed */
  81:Generated_Source\PSoC5/I2C_DISPLAY_INT.c ****         I2C_DISPLAY_state = I2C_DISPLAY_SM_SLAVE;
  82:Generated_Source\PSoC5/I2C_DISPLAY_INT.c ****     }
  83:Generated_Source\PSoC5/I2C_DISPLAY_INT.c **** #endif /* (I2C_DISPLAY_MODE_MULTI_MASTER_SLAVE_ENABLED) */
  84:Generated_Source\PSoC5/I2C_DISPLAY_INT.c **** 
  85:Generated_Source\PSoC5/I2C_DISPLAY_INT.c **** 
  86:Generated_Source\PSoC5/I2C_DISPLAY_INT.c **** #if(I2C_DISPLAY_MODE_MULTI_MASTER_ENABLED)
  87:Generated_Source\PSoC5/I2C_DISPLAY_INT.c ****     if(I2C_DISPLAY_CHECK_LOST_ARB(tmpCsr))
  88:Generated_Source\PSoC5/I2C_DISPLAY_INT.c ****     {
  89:Generated_Source\PSoC5/I2C_DISPLAY_INT.c ****         /* Set errors */
  90:Generated_Source\PSoC5/I2C_DISPLAY_INT.c ****         I2C_DISPLAY_mstrStatus |= (I2C_DISPLAY_MSTAT_ERR_XFER     |
  91:Generated_Source\PSoC5/I2C_DISPLAY_INT.c ****                                         I2C_DISPLAY_MSTAT_ERR_ARB_LOST |
  92:Generated_Source\PSoC5/I2C_DISPLAY_INT.c ****                                         I2C_DISPLAY_GET_MSTAT_CMPLT);
  93:Generated_Source\PSoC5/I2C_DISPLAY_INT.c **** 
  94:Generated_Source\PSoC5/I2C_DISPLAY_INT.c ****         I2C_DISPLAY_DISABLE_INT_ON_STOP; /* Interrupt on Stop is enabled by write */
  95:Generated_Source\PSoC5/I2C_DISPLAY_INT.c **** 
  96:Generated_Source\PSoC5/I2C_DISPLAY_INT.c ****         #if(I2C_DISPLAY_MODE_MULTI_MASTER_SLAVE_ENABLED)
  97:Generated_Source\PSoC5/I2C_DISPLAY_INT.c ****             if(I2C_DISPLAY_CHECK_ADDRESS_STS(tmpCsr))
  98:Generated_Source\PSoC5/I2C_DISPLAY_INT.c ****             {
  99:Generated_Source\PSoC5/I2C_DISPLAY_INT.c ****                 /* Slave was addressed */
 100:Generated_Source\PSoC5/I2C_DISPLAY_INT.c ****                 I2C_DISPLAY_state = I2C_DISPLAY_SM_SLAVE;
 101:Generated_Source\PSoC5/I2C_DISPLAY_INT.c ****             }
 102:Generated_Source\PSoC5/I2C_DISPLAY_INT.c ****             else
 103:Generated_Source\PSoC5/I2C_DISPLAY_INT.c ****             {
 104:Generated_Source\PSoC5/I2C_DISPLAY_INT.c ****                 I2C_DISPLAY_BUS_RELEASE;
 105:Generated_Source\PSoC5/I2C_DISPLAY_INT.c **** 
 106:Generated_Source\PSoC5/I2C_DISPLAY_INT.c ****                 I2C_DISPLAY_state = I2C_DISPLAY_SM_EXIT_IDLE;
 107:Generated_Source\PSoC5/I2C_DISPLAY_INT.c ****             }
 108:Generated_Source\PSoC5/I2C_DISPLAY_INT.c ****         #else
 109:Generated_Source\PSoC5/I2C_DISPLAY_INT.c ****             I2C_DISPLAY_BUS_RELEASE;
 110:Generated_Source\PSoC5/I2C_DISPLAY_INT.c **** 
 111:Generated_Source\PSoC5/I2C_DISPLAY_INT.c ****             I2C_DISPLAY_state = I2C_DISPLAY_SM_EXIT_IDLE;
 112:Generated_Source\PSoC5/I2C_DISPLAY_INT.c **** 
 113:Generated_Source\PSoC5/I2C_DISPLAY_INT.c ****         #endif /* (I2C_DISPLAY_MODE_MULTI_MASTER_SLAVE_ENABLED) */
 114:Generated_Source\PSoC5/I2C_DISPLAY_INT.c ****     }
 115:Generated_Source\PSoC5/I2C_DISPLAY_INT.c **** #endif /* (I2C_DISPLAY_MODE_MULTI_MASTER_ENABLED) */
 116:Generated_Source\PSoC5/I2C_DISPLAY_INT.c **** 
 117:Generated_Source\PSoC5/I2C_DISPLAY_INT.c ****     /* Check for master operation mode */
 118:Generated_Source\PSoC5/I2C_DISPLAY_INT.c ****     if(I2C_DISPLAY_CHECK_SM_MASTER)
  41              		.loc 1 118 0
  42 0006 994B     		ldr	r3, .L39+4
  69:Generated_Source\PSoC5/I2C_DISPLAY_INT.c **** 
  43              		.loc 1 69 0
  44 0008 E4B2     		uxtb	r4, r4
  45              	.LVL0:
  46              		.loc 1 118 0
  47 000a 1A78     		ldrb	r2, [r3]	@ zero_extendqisi2
  48 000c 1D46     		mov	r5, r3
  49 000e 12F0400F 		tst	r2, #64
  50 0012 00F02281 		beq	.L2
 119:Generated_Source\PSoC5/I2C_DISPLAY_INT.c ****     {
 120:Generated_Source\PSoC5/I2C_DISPLAY_INT.c ****     #if(I2C_DISPLAY_MODE_MASTER_ENABLED)
ARM GAS  C:\Users\jesse\AppData\Local\Temp\ccLflgZg.s 			page 4


 121:Generated_Source\PSoC5/I2C_DISPLAY_INT.c ****         if(I2C_DISPLAY_CHECK_BYTE_COMPLETE(tmpCsr))
  51              		.loc 1 121 0
  52 0016 E007     		lsls	r0, r4, #31
  53 0018 40F10B81 		bpl	.L3
 122:Generated_Source\PSoC5/I2C_DISPLAY_INT.c ****         {
 123:Generated_Source\PSoC5/I2C_DISPLAY_INT.c ****             switch (I2C_DISPLAY_state)
  54              		.loc 1 123 0
  55 001c 1B78     		ldrb	r3, [r3]	@ zero_extendqisi2
  56 001e 453B     		subs	r3, r3, #69
  57 0020 052B     		cmp	r3, #5
  58 0022 00F20381 		bhi	.L4
  59 0026 DFE813F0 		tbh	[pc, r3, lsl #1]
  60              	.L6:
  61 002a 0600     		.2byte	(.L5-.L6)/2
  62 002c 7200     		.2byte	(.L7-.L6)/2
  63 002e 0101     		.2byte	(.L4-.L6)/2
  64 0030 0101     		.2byte	(.L4-.L6)/2
  65 0032 0600     		.2byte	(.L5-.L6)/2
  66 0034 C500     		.2byte	(.L8-.L6)/2
  67              		.p2align 1
  68              	.L5:
 124:Generated_Source\PSoC5/I2C_DISPLAY_INT.c ****             {
 125:Generated_Source\PSoC5/I2C_DISPLAY_INT.c ****             case I2C_DISPLAY_SM_MSTR_WR_ADDR:  /* After address is sent, write data */
 126:Generated_Source\PSoC5/I2C_DISPLAY_INT.c ****             case I2C_DISPLAY_SM_MSTR_RD_ADDR:  /* After address is sent, read data */
 127:Generated_Source\PSoC5/I2C_DISPLAY_INT.c **** 
 128:Generated_Source\PSoC5/I2C_DISPLAY_INT.c ****                 tmpCsr &= ((uint8) ~I2C_DISPLAY_CSR_STOP_STATUS); /* Clear Stop bit history on addr
  69              		.loc 1 128 0
  70 0036 04F0DF06 		and	r6, r4, #223
  71              	.LVL1:
 129:Generated_Source\PSoC5/I2C_DISPLAY_INT.c **** 
 130:Generated_Source\PSoC5/I2C_DISPLAY_INT.c ****                 if(I2C_DISPLAY_CHECK_ADDR_ACK(tmpCsr))
  72              		.loc 1 130 0
  73 003a 04F00A04 		and	r4, r4, #10
  74 003e 082C     		cmp	r4, #8
  75 0040 35D1     		bne	.L9
 131:Generated_Source\PSoC5/I2C_DISPLAY_INT.c ****                 {
 132:Generated_Source\PSoC5/I2C_DISPLAY_INT.c ****                     /* Setup for transmit or receive of data */
 133:Generated_Source\PSoC5/I2C_DISPLAY_INT.c ****                     if(I2C_DISPLAY_state == I2C_DISPLAY_SM_MSTR_WR_ADDR)   /* TRANSMIT data */
  76              		.loc 1 133 0
  77 0042 2B78     		ldrb	r3, [r5]	@ zero_extendqisi2
  78 0044 894A     		ldr	r2, .L39+4
  79 0046 452B     		cmp	r3, #69
  80 0048 25D1     		bne	.L10
 134:Generated_Source\PSoC5/I2C_DISPLAY_INT.c ****                     {
 135:Generated_Source\PSoC5/I2C_DISPLAY_INT.c ****                         /* Check if at least one byte to transfer */
 136:Generated_Source\PSoC5/I2C_DISPLAY_INT.c ****                         if(I2C_DISPLAY_mstrWrBufSize > 0u)
  81              		.loc 1 136 0
  82 004a 894B     		ldr	r3, .L39+8
  83 004c 1B78     		ldrb	r3, [r3]	@ zero_extendqisi2
  84 004e 9BB1     		cbz	r3, .L11
 137:Generated_Source\PSoC5/I2C_DISPLAY_INT.c ****                         {
 138:Generated_Source\PSoC5/I2C_DISPLAY_INT.c ****                             /* Load the 1st data byte */
 139:Generated_Source\PSoC5/I2C_DISPLAY_INT.c ****                             I2C_DISPLAY_DATA_REG = I2C_DISPLAY_mstrWrBufPtr[0u];
  85              		.loc 1 139 0
  86 0050 884B     		ldr	r3, .L39+12
  87 0052 8949     		ldr	r1, .L39+16
  88 0054 1B68     		ldr	r3, [r3]
ARM GAS  C:\Users\jesse\AppData\Local\Temp\ccLflgZg.s 			page 5


  89 0056 1B78     		ldrb	r3, [r3]	@ zero_extendqisi2
  90 0058 DBB2     		uxtb	r3, r3
  91 005a 0B70     		strb	r3, [r1]
 140:Generated_Source\PSoC5/I2C_DISPLAY_INT.c ****                             I2C_DISPLAY_TRANSMIT_DATA;
  92              		.loc 1 140 0
  93 005c 874B     		ldr	r3, .L39+20
  94 005e 0621     		movs	r1, #6
  95 0060 1970     		strb	r1, [r3]
  96 0062 FF21     		movs	r1, #255
  97 0064 83F8A010 		strb	r1, [r3, #160]
  98 0068 0021     		movs	r1, #0
  99 006a 83F8E010 		strb	r1, [r3, #224]
 141:Generated_Source\PSoC5/I2C_DISPLAY_INT.c ****                             I2C_DISPLAY_mstrWrBufIndex = 1u;   /* Set index to 2nd element */
 100              		.loc 1 141 0
 101 006e 844B     		ldr	r3, .L39+24
 102 0070 0121     		movs	r1, #1
 103 0072 1970     		strb	r1, [r3]
 142:Generated_Source\PSoC5/I2C_DISPLAY_INT.c **** 
 143:Generated_Source\PSoC5/I2C_DISPLAY_INT.c ****                             /* Set transmit state until done */
 144:Generated_Source\PSoC5/I2C_DISPLAY_INT.c ****                             I2C_DISPLAY_state = I2C_DISPLAY_SM_MSTR_WR_DATA;
 104              		.loc 1 144 0
 105 0074 4623     		movs	r3, #70
 106 0076 18E0     		b	.L37
 107              	.L11:
 145:Generated_Source\PSoC5/I2C_DISPLAY_INT.c ****                         }
 146:Generated_Source\PSoC5/I2C_DISPLAY_INT.c ****                         /* End of buffer: complete writing */
 147:Generated_Source\PSoC5/I2C_DISPLAY_INT.c ****                         else if(I2C_DISPLAY_CHECK_NO_STOP(I2C_DISPLAY_mstrControl))
 108              		.loc 1 147 0
 109 0078 824B     		ldr	r3, .L39+28
 110 007a 1B78     		ldrb	r3, [r3]	@ zero_extendqisi2
 111 007c 03F00203 		and	r3, r3, #2
 112 0080 03F0FF01 		and	r1, r3, #255
 113 0084 83B3     		cbz	r3, .L14
 148:Generated_Source\PSoC5/I2C_DISPLAY_INT.c ****                         {
 149:Generated_Source\PSoC5/I2C_DISPLAY_INT.c ****                             /* Set write complete and master halted */
 150:Generated_Source\PSoC5/I2C_DISPLAY_INT.c ****                             I2C_DISPLAY_mstrStatus |= (I2C_DISPLAY_MSTAT_XFER_HALT |
 114              		.loc 1 150 0
 115 0086 8049     		ldr	r1, .L39+32
 116 0088 0B78     		ldrb	r3, [r1]	@ zero_extendqisi2
 117 008a 43F00A03 		orr	r3, r3, #10
 118 008e 0B70     		strb	r3, [r1]
 151:Generated_Source\PSoC5/I2C_DISPLAY_INT.c ****                                                             I2C_DISPLAY_MSTAT_WR_CMPLT);
 152:Generated_Source\PSoC5/I2C_DISPLAY_INT.c **** 
 153:Generated_Source\PSoC5/I2C_DISPLAY_INT.c ****                             I2C_DISPLAY_state = I2C_DISPLAY_SM_MSTR_HALT; /* Expect ReStart */
 119              		.loc 1 153 0
 120 0090 6023     		movs	r3, #96
 121 0092 1370     		strb	r3, [r2]
 122 0094 24E0     		b	.L36
 123              	.L10:
 154:Generated_Source\PSoC5/I2C_DISPLAY_INT.c ****                             I2C_DISPLAY_DisableInt();
 155:Generated_Source\PSoC5/I2C_DISPLAY_INT.c ****                         }
 156:Generated_Source\PSoC5/I2C_DISPLAY_INT.c ****                         else
 157:Generated_Source\PSoC5/I2C_DISPLAY_INT.c ****                         {
 158:Generated_Source\PSoC5/I2C_DISPLAY_INT.c ****                             I2C_DISPLAY_ENABLE_INT_ON_STOP; /* Enable interrupt on Stop, to catch i
 159:Generated_Source\PSoC5/I2C_DISPLAY_INT.c ****                             I2C_DISPLAY_GENERATE_STOP;
 160:Generated_Source\PSoC5/I2C_DISPLAY_INT.c ****                         }
 161:Generated_Source\PSoC5/I2C_DISPLAY_INT.c ****                     }
ARM GAS  C:\Users\jesse\AppData\Local\Temp\ccLflgZg.s 			page 6


 162:Generated_Source\PSoC5/I2C_DISPLAY_INT.c ****                     else  /* Master receive data */
 163:Generated_Source\PSoC5/I2C_DISPLAY_INT.c ****                     {
 164:Generated_Source\PSoC5/I2C_DISPLAY_INT.c ****                         I2C_DISPLAY_READY_TO_READ; /* Release bus to read data */
 124              		.loc 1 164 0
 125 0096 794B     		ldr	r3, .L39+20
 126 0098 0221     		movs	r1, #2
 127 009a 1970     		strb	r1, [r3]
 128 009c FF21     		movs	r1, #255
 129 009e 83F8A010 		strb	r1, [r3, #160]
 130 00a2 0021     		movs	r1, #0
 131 00a4 83F8E010 		strb	r1, [r3, #224]
 165:Generated_Source\PSoC5/I2C_DISPLAY_INT.c **** 
 166:Generated_Source\PSoC5/I2C_DISPLAY_INT.c ****                         I2C_DISPLAY_state  = I2C_DISPLAY_SM_MSTR_RD_DATA;
 132              		.loc 1 166 0
 133 00a8 4A23     		movs	r3, #74
 134              	.L37:
 135 00aa 1370     		strb	r3, [r2]
 136 00ac 29E0     		b	.L31
 137              	.L9:
 167:Generated_Source\PSoC5/I2C_DISPLAY_INT.c ****                     }
 168:Generated_Source\PSoC5/I2C_DISPLAY_INT.c ****                 }
 169:Generated_Source\PSoC5/I2C_DISPLAY_INT.c ****                 /* Address is NACKed */
 170:Generated_Source\PSoC5/I2C_DISPLAY_INT.c ****                 else if(I2C_DISPLAY_CHECK_ADDR_NAK(tmpCsr))
 138              		.loc 1 170 0
 139 00ae 0A2C     		cmp	r4, #10
 140 00b0 29D1     		bne	.L13
 171:Generated_Source\PSoC5/I2C_DISPLAY_INT.c ****                 {
 172:Generated_Source\PSoC5/I2C_DISPLAY_INT.c ****                     /* Set Address NAK error */
 173:Generated_Source\PSoC5/I2C_DISPLAY_INT.c ****                     I2C_DISPLAY_mstrStatus |= (I2C_DISPLAY_MSTAT_ERR_XFER |
 141              		.loc 1 173 0
 142 00b2 754B     		ldr	r3, .L39+32
 143 00b4 1A78     		ldrb	r2, [r3]	@ zero_extendqisi2
 144 00b6 42F0A002 		orr	r2, r2, #160
 145 00ba 1A70     		strb	r2, [r3]
 174:Generated_Source\PSoC5/I2C_DISPLAY_INT.c ****                                                     I2C_DISPLAY_MSTAT_ERR_ADDR_NAK);
 175:Generated_Source\PSoC5/I2C_DISPLAY_INT.c **** 
 176:Generated_Source\PSoC5/I2C_DISPLAY_INT.c ****                     if(I2C_DISPLAY_CHECK_NO_STOP(I2C_DISPLAY_mstrControl))
 146              		.loc 1 176 0
 147 00bc 714A     		ldr	r2, .L39+28
 148 00be 1278     		ldrb	r2, [r2]	@ zero_extendqisi2
 149 00c0 02F00202 		and	r2, r2, #2
 150 00c4 02F0FF01 		and	r1, r2, #255
 151 00c8 72B1     		cbz	r2, .L14
 177:Generated_Source\PSoC5/I2C_DISPLAY_INT.c ****                     {
 178:Generated_Source\PSoC5/I2C_DISPLAY_INT.c ****                         I2C_DISPLAY_mstrStatus |= (I2C_DISPLAY_MSTAT_XFER_HALT |
 179:Generated_Source\PSoC5/I2C_DISPLAY_INT.c ****                                                         I2C_DISPLAY_GET_MSTAT_CMPLT);
 152              		.loc 1 179 0
 153 00ca 2A78     		ldrb	r2, [r5]	@ zero_extendqisi2
 178:Generated_Source\PSoC5/I2C_DISPLAY_INT.c ****                                                         I2C_DISPLAY_GET_MSTAT_CMPLT);
 154              		.loc 1 178 0
 155 00cc 1978     		ldrb	r1, [r3]	@ zero_extendqisi2
 156 00ce 12F0080F 		tst	r2, #8
 157 00d2 14BF     		ite	ne
 158 00d4 0922     		movne	r2, #9
 159 00d6 0A22     		moveq	r2, #10
 160 00d8 0A43     		orrs	r2, r2, r1
 161 00da 1A70     		strb	r2, [r3]
ARM GAS  C:\Users\jesse\AppData\Local\Temp\ccLflgZg.s 			page 7


 180:Generated_Source\PSoC5/I2C_DISPLAY_INT.c **** 
 181:Generated_Source\PSoC5/I2C_DISPLAY_INT.c ****                         I2C_DISPLAY_state = I2C_DISPLAY_SM_MSTR_HALT; /* Expect RESTART */
 162              		.loc 1 181 0
 163 00dc 6023     		movs	r3, #96
 164 00de 2B70     		strb	r3, [r5]
 165              	.L36:
 182:Generated_Source\PSoC5/I2C_DISPLAY_INT.c ****                         I2C_DISPLAY_DisableInt();
 166              		.loc 1 182 0
 167 00e0 6A4B     		ldr	r3, .L39+36
 168 00e2 0122     		movs	r2, #1
 169 00e4 1A60     		str	r2, [r3]
 170 00e6 0CE0     		b	.L31
 171              	.L14:
 183:Generated_Source\PSoC5/I2C_DISPLAY_INT.c ****                     }
 184:Generated_Source\PSoC5/I2C_DISPLAY_INT.c ****                     else  /* Do normal Stop */
 185:Generated_Source\PSoC5/I2C_DISPLAY_INT.c ****                     {
 186:Generated_Source\PSoC5/I2C_DISPLAY_INT.c ****                         I2C_DISPLAY_ENABLE_INT_ON_STOP; /* Enable interrupt on Stop, to catch it */
 172              		.loc 1 186 0
 173 00e8 694A     		ldr	r2, .L39+40
 174 00ea 1378     		ldrb	r3, [r2]	@ zero_extendqisi2
 175 00ec 43F02003 		orr	r3, r3, #32
 176 00f0 1370     		strb	r3, [r2]
 187:Generated_Source\PSoC5/I2C_DISPLAY_INT.c ****                         I2C_DISPLAY_GENERATE_STOP;
 177              		.loc 1 187 0
 178 00f2 624B     		ldr	r3, .L39+20
 179 00f4 5222     		movs	r2, #82
 180 00f6 1A70     		strb	r2, [r3]
 181 00f8 FF22     		movs	r2, #255
 182 00fa 83F8A020 		strb	r2, [r3, #160]
 183 00fe 83F8E010 		strb	r1, [r3, #224]
 184              	.L31:
 128:Generated_Source\PSoC5/I2C_DISPLAY_INT.c **** 
 185              		.loc 1 128 0
 186 0102 3446     		mov	r4, r6
 187 0104 95E0     		b	.L3
 188              	.L13:
 188:Generated_Source\PSoC5/I2C_DISPLAY_INT.c ****                     }
 189:Generated_Source\PSoC5/I2C_DISPLAY_INT.c ****                 }
 190:Generated_Source\PSoC5/I2C_DISPLAY_INT.c ****                 else
 191:Generated_Source\PSoC5/I2C_DISPLAY_INT.c ****                 {
 192:Generated_Source\PSoC5/I2C_DISPLAY_INT.c ****                     /* Address phase is not set for some reason: error */
 193:Generated_Source\PSoC5/I2C_DISPLAY_INT.c ****                     #if(I2C_DISPLAY_TIMEOUT_ENABLED)
 194:Generated_Source\PSoC5/I2C_DISPLAY_INT.c ****                         /* Exit interrupt to take chance for timeout timer to handle this case */
 195:Generated_Source\PSoC5/I2C_DISPLAY_INT.c ****                         I2C_DISPLAY_DisableInt();
 196:Generated_Source\PSoC5/I2C_DISPLAY_INT.c ****                         I2C_DISPLAY_ClearPendingInt();
 197:Generated_Source\PSoC5/I2C_DISPLAY_INT.c ****                     #else
 198:Generated_Source\PSoC5/I2C_DISPLAY_INT.c ****                         /* Block execution flow: unexpected condition */
 199:Generated_Source\PSoC5/I2C_DISPLAY_INT.c ****                         CYASSERT(0u != 0u);
 189              		.loc 1 199 0 discriminator 1
 190 0106 0020     		movs	r0, #0
 191 0108 FFF7FEFF 		bl	CyHalt
 192              	.LVL2:
 193 010c F9E7     		b	.L31
 194              	.LVL3:
 195              	.L7:
 200:Generated_Source\PSoC5/I2C_DISPLAY_INT.c ****                     #endif /* (I2C_DISPLAY_TIMEOUT_ENABLED) */
 201:Generated_Source\PSoC5/I2C_DISPLAY_INT.c ****                 }
ARM GAS  C:\Users\jesse\AppData\Local\Temp\ccLflgZg.s 			page 8


 202:Generated_Source\PSoC5/I2C_DISPLAY_INT.c ****                 break;
 203:Generated_Source\PSoC5/I2C_DISPLAY_INT.c **** 
 204:Generated_Source\PSoC5/I2C_DISPLAY_INT.c ****             case I2C_DISPLAY_SM_MSTR_WR_DATA:
 205:Generated_Source\PSoC5/I2C_DISPLAY_INT.c **** 
 206:Generated_Source\PSoC5/I2C_DISPLAY_INT.c ****                 if(I2C_DISPLAY_CHECK_DATA_ACK(tmpCsr))
 196              		.loc 1 206 0
 197 010e 04F00203 		and	r3, r4, #2
 198 0112 03F0FF01 		and	r1, r3, #255
 199 0116 002B     		cmp	r3, #0
 200 0118 2DD1     		bne	.L16
 207:Generated_Source\PSoC5/I2C_DISPLAY_INT.c ****                 {
 208:Generated_Source\PSoC5/I2C_DISPLAY_INT.c ****                     /* Check if end of buffer */
 209:Generated_Source\PSoC5/I2C_DISPLAY_INT.c ****                     if(I2C_DISPLAY_mstrWrBufIndex  < I2C_DISPLAY_mstrWrBufSize)
 201              		.loc 1 209 0
 202 011a 594A     		ldr	r2, .L39+24
 203 011c 544B     		ldr	r3, .L39+8
 204 011e 1078     		ldrb	r0, [r2]	@ zero_extendqisi2
 205 0120 1B78     		ldrb	r3, [r3]	@ zero_extendqisi2
 206 0122 9842     		cmp	r0, r3
 207 0124 14D2     		bcs	.L17
 210:Generated_Source\PSoC5/I2C_DISPLAY_INT.c ****                     {
 211:Generated_Source\PSoC5/I2C_DISPLAY_INT.c ****                         I2C_DISPLAY_DATA_REG =
 212:Generated_Source\PSoC5/I2C_DISPLAY_INT.c ****                                                  I2C_DISPLAY_mstrWrBufPtr[I2C_DISPLAY_mstrWrBufInde
 208              		.loc 1 212 0
 209 0126 5348     		ldr	r0, .L39+12
 210 0128 1378     		ldrb	r3, [r2]	@ zero_extendqisi2
 211 012a 0068     		ldr	r0, [r0]
 212 012c DBB2     		uxtb	r3, r3
 213 012e C35C     		ldrb	r3, [r0, r3]	@ zero_extendqisi2
 211:Generated_Source\PSoC5/I2C_DISPLAY_INT.c ****                                                  I2C_DISPLAY_mstrWrBufPtr[I2C_DISPLAY_mstrWrBufInde
 214              		.loc 1 211 0
 215 0130 5148     		ldr	r0, .L39+16
 216              		.loc 1 212 0
 217 0132 DBB2     		uxtb	r3, r3
 211:Generated_Source\PSoC5/I2C_DISPLAY_INT.c ****                                                  I2C_DISPLAY_mstrWrBufPtr[I2C_DISPLAY_mstrWrBufInde
 218              		.loc 1 211 0
 219 0134 0370     		strb	r3, [r0]
 213:Generated_Source\PSoC5/I2C_DISPLAY_INT.c ****                         I2C_DISPLAY_TRANSMIT_DATA;
 220              		.loc 1 213 0
 221 0136 514B     		ldr	r3, .L39+20
 222 0138 0620     		movs	r0, #6
 223 013a 1870     		strb	r0, [r3]
 224 013c FF20     		movs	r0, #255
 225 013e 83F8A000 		strb	r0, [r3, #160]
 226 0142 83F8E010 		strb	r1, [r3, #224]
 214:Generated_Source\PSoC5/I2C_DISPLAY_INT.c ****                         I2C_DISPLAY_mstrWrBufIndex++;
 227              		.loc 1 214 0
 228 0146 1378     		ldrb	r3, [r2]	@ zero_extendqisi2
 229 0148 0133     		adds	r3, r3, #1
 230 014a DBB2     		uxtb	r3, r3
 231 014c 1370     		strb	r3, [r2]
 232 014e 70E0     		b	.L3
 233              	.L17:
 215:Generated_Source\PSoC5/I2C_DISPLAY_INT.c ****                     }
 216:Generated_Source\PSoC5/I2C_DISPLAY_INT.c ****                     /* End of buffer: complete writing */
 217:Generated_Source\PSoC5/I2C_DISPLAY_INT.c ****                     else if(I2C_DISPLAY_CHECK_NO_STOP(I2C_DISPLAY_mstrControl))
 234              		.loc 1 217 0
ARM GAS  C:\Users\jesse\AppData\Local\Temp\ccLflgZg.s 			page 9


 235 0150 4C4B     		ldr	r3, .L39+28
 236 0152 1B78     		ldrb	r3, [r3]	@ zero_extendqisi2
 237 0154 03F00203 		and	r3, r3, #2
 238 0158 03F0FF01 		and	r1, r3, #255
 239 015c 23B1     		cbz	r3, .L18
 218:Generated_Source\PSoC5/I2C_DISPLAY_INT.c ****                     {
 219:Generated_Source\PSoC5/I2C_DISPLAY_INT.c ****                         /* Set write complete and master halted */
 220:Generated_Source\PSoC5/I2C_DISPLAY_INT.c ****                         I2C_DISPLAY_mstrStatus |= (I2C_DISPLAY_MSTAT_XFER_HALT |
 240              		.loc 1 220 0
 241 015e 4A4A     		ldr	r2, .L39+32
 242 0160 1378     		ldrb	r3, [r2]	@ zero_extendqisi2
 243 0162 43F00A03 		orr	r3, r3, #10
 244 0166 4CE0     		b	.L35
 245              	.L18:
 221:Generated_Source\PSoC5/I2C_DISPLAY_INT.c ****                                                         I2C_DISPLAY_MSTAT_WR_CMPLT);
 222:Generated_Source\PSoC5/I2C_DISPLAY_INT.c **** 
 223:Generated_Source\PSoC5/I2C_DISPLAY_INT.c ****                         I2C_DISPLAY_state = I2C_DISPLAY_SM_MSTR_HALT;    /* Expect restart */
 224:Generated_Source\PSoC5/I2C_DISPLAY_INT.c ****                         I2C_DISPLAY_DisableInt();
 225:Generated_Source\PSoC5/I2C_DISPLAY_INT.c ****                     }
 226:Generated_Source\PSoC5/I2C_DISPLAY_INT.c ****                     else  /* Do normal Stop */
 227:Generated_Source\PSoC5/I2C_DISPLAY_INT.c ****                     {
 228:Generated_Source\PSoC5/I2C_DISPLAY_INT.c ****                         I2C_DISPLAY_ENABLE_INT_ON_STOP;    /* Enable interrupt on Stop, to catch it
 246              		.loc 1 228 0
 247 0168 494A     		ldr	r2, .L39+40
 248 016a 1378     		ldrb	r3, [r2]	@ zero_extendqisi2
 249 016c 43F02003 		orr	r3, r3, #32
 250 0170 1370     		strb	r3, [r2]
 229:Generated_Source\PSoC5/I2C_DISPLAY_INT.c ****                         I2C_DISPLAY_GENERATE_STOP;
 251              		.loc 1 229 0
 252 0172 5222     		movs	r2, #82
 253 0174 52E0     		b	.L32
 254              	.L16:
 230:Generated_Source\PSoC5/I2C_DISPLAY_INT.c ****                     }
 231:Generated_Source\PSoC5/I2C_DISPLAY_INT.c ****                 }
 232:Generated_Source\PSoC5/I2C_DISPLAY_INT.c ****                 /* Last byte NAKed: end writing */
 233:Generated_Source\PSoC5/I2C_DISPLAY_INT.c ****                 else if(I2C_DISPLAY_CHECK_NO_STOP(I2C_DISPLAY_mstrControl))
 255              		.loc 1 233 0
 256 0176 434B     		ldr	r3, .L39+28
 257 0178 1A78     		ldrb	r2, [r3]	@ zero_extendqisi2
 258 017a 434B     		ldr	r3, .L39+32
 259 017c 02F00202 		and	r2, r2, #2
 260 0180 02F0FF00 		and	r0, r2, #255
 261 0184 22B1     		cbz	r2, .L19
 234:Generated_Source\PSoC5/I2C_DISPLAY_INT.c ****                 {
 235:Generated_Source\PSoC5/I2C_DISPLAY_INT.c ****                     /* Set write complete, short transfer and master halted */
 236:Generated_Source\PSoC5/I2C_DISPLAY_INT.c ****                     I2C_DISPLAY_mstrStatus |= (I2C_DISPLAY_MSTAT_ERR_XFER       |
 262              		.loc 1 236 0
 263 0186 1A78     		ldrb	r2, [r3]	@ zero_extendqisi2
 264 0188 42F09A02 		orr	r2, r2, #154
 265 018c 1A70     		strb	r2, [r3]
 266 018e 39E0     		b	.L34
 267              	.L19:
 237:Generated_Source\PSoC5/I2C_DISPLAY_INT.c ****                                                     I2C_DISPLAY_MSTAT_ERR_SHORT_XFER |
 238:Generated_Source\PSoC5/I2C_DISPLAY_INT.c ****                                                     I2C_DISPLAY_MSTAT_XFER_HALT      |
 239:Generated_Source\PSoC5/I2C_DISPLAY_INT.c ****                                                     I2C_DISPLAY_MSTAT_WR_CMPLT);
 240:Generated_Source\PSoC5/I2C_DISPLAY_INT.c **** 
 241:Generated_Source\PSoC5/I2C_DISPLAY_INT.c ****                     I2C_DISPLAY_state = I2C_DISPLAY_SM_MSTR_HALT;    /* Expect ReStart */
ARM GAS  C:\Users\jesse\AppData\Local\Temp\ccLflgZg.s 			page 10


 242:Generated_Source\PSoC5/I2C_DISPLAY_INT.c ****                     I2C_DISPLAY_DisableInt();
 243:Generated_Source\PSoC5/I2C_DISPLAY_INT.c ****                 }
 244:Generated_Source\PSoC5/I2C_DISPLAY_INT.c ****                 else  /* Do normal Stop */
 245:Generated_Source\PSoC5/I2C_DISPLAY_INT.c ****                 {
 246:Generated_Source\PSoC5/I2C_DISPLAY_INT.c ****                     I2C_DISPLAY_ENABLE_INT_ON_STOP;    /* Enable interrupt on Stop, to catch it */
 268              		.loc 1 246 0
 269 0190 3F49     		ldr	r1, .L39+40
 270 0192 0A78     		ldrb	r2, [r1]	@ zero_extendqisi2
 271 0194 42F02002 		orr	r2, r2, #32
 272 0198 0A70     		strb	r2, [r1]
 247:Generated_Source\PSoC5/I2C_DISPLAY_INT.c ****                     I2C_DISPLAY_GENERATE_STOP;
 273              		.loc 1 247 0
 274 019a 384A     		ldr	r2, .L39+20
 275 019c 5221     		movs	r1, #82
 276 019e 1170     		strb	r1, [r2]
 277 01a0 FF21     		movs	r1, #255
 278 01a2 82F8A010 		strb	r1, [r2, #160]
 279 01a6 82F8E000 		strb	r0, [r2, #224]
 248:Generated_Source\PSoC5/I2C_DISPLAY_INT.c **** 
 249:Generated_Source\PSoC5/I2C_DISPLAY_INT.c ****                     /* Set short transfer and error flag */
 250:Generated_Source\PSoC5/I2C_DISPLAY_INT.c ****                     I2C_DISPLAY_mstrStatus |= (I2C_DISPLAY_MSTAT_ERR_SHORT_XFER |
 280              		.loc 1 250 0
 281 01aa 1A78     		ldrb	r2, [r3]	@ zero_extendqisi2
 282 01ac 42F09002 		orr	r2, r2, #144
 283 01b0 1A70     		strb	r2, [r3]
 284 01b2 3EE0     		b	.L3
 285              	.L8:
 251:Generated_Source\PSoC5/I2C_DISPLAY_INT.c ****                                                     I2C_DISPLAY_MSTAT_ERR_XFER);
 252:Generated_Source\PSoC5/I2C_DISPLAY_INT.c ****                 }
 253:Generated_Source\PSoC5/I2C_DISPLAY_INT.c **** 
 254:Generated_Source\PSoC5/I2C_DISPLAY_INT.c ****                 break;
 255:Generated_Source\PSoC5/I2C_DISPLAY_INT.c **** 
 256:Generated_Source\PSoC5/I2C_DISPLAY_INT.c ****             case I2C_DISPLAY_SM_MSTR_RD_DATA:
 257:Generated_Source\PSoC5/I2C_DISPLAY_INT.c **** 
 258:Generated_Source\PSoC5/I2C_DISPLAY_INT.c ****                 I2C_DISPLAY_mstrRdBufPtr[I2C_DISPLAY_mstrRdBufIndex] = I2C_DISPLAY_DATA_REG;
 286              		.loc 1 258 0
 287 01b4 3749     		ldr	r1, .L39+44
 288 01b6 384A     		ldr	r2, .L39+48
 289 01b8 0868     		ldr	r0, [r1]
 290 01ba 2F49     		ldr	r1, .L39+16
 291 01bc 1378     		ldrb	r3, [r2]	@ zero_extendqisi2
 292 01be 0978     		ldrb	r1, [r1]	@ zero_extendqisi2
 293 01c0 DBB2     		uxtb	r3, r3
 294 01c2 C9B2     		uxtb	r1, r1
 295 01c4 C154     		strb	r1, [r0, r3]
 259:Generated_Source\PSoC5/I2C_DISPLAY_INT.c ****                 I2C_DISPLAY_mstrRdBufIndex++;
 296              		.loc 1 259 0
 297 01c6 1378     		ldrb	r3, [r2]	@ zero_extendqisi2
 298 01c8 0133     		adds	r3, r3, #1
 299 01ca DBB2     		uxtb	r3, r3
 300 01cc 1370     		strb	r3, [r2]
 260:Generated_Source\PSoC5/I2C_DISPLAY_INT.c **** 
 261:Generated_Source\PSoC5/I2C_DISPLAY_INT.c ****                 /* Check if end of buffer */
 262:Generated_Source\PSoC5/I2C_DISPLAY_INT.c ****                 if(I2C_DISPLAY_mstrRdBufIndex < I2C_DISPLAY_mstrRdBufSize)
 301              		.loc 1 262 0
 302 01ce 334B     		ldr	r3, .L39+52
 303 01d0 1278     		ldrb	r2, [r2]	@ zero_extendqisi2
ARM GAS  C:\Users\jesse\AppData\Local\Temp\ccLflgZg.s 			page 11


 304 01d2 1B78     		ldrb	r3, [r3]	@ zero_extendqisi2
 305 01d4 9A42     		cmp	r2, r3
 306 01d6 09D2     		bcs	.L20
 263:Generated_Source\PSoC5/I2C_DISPLAY_INT.c ****                 {
 264:Generated_Source\PSoC5/I2C_DISPLAY_INT.c ****                     I2C_DISPLAY_ACK_AND_RECEIVE;       /* ACK and receive byte */
 307              		.loc 1 264 0
 308 01d8 284B     		ldr	r3, .L39+20
 309 01da 0222     		movs	r2, #2
 310 01dc 1A70     		strb	r2, [r3]
 311 01de FF22     		movs	r2, #255
 312 01e0 83F8A020 		strb	r2, [r3, #160]
 313 01e4 0022     		movs	r2, #0
 314 01e6 83F8E020 		strb	r2, [r3, #224]
 315 01ea 22E0     		b	.L3
 316              	.L20:
 265:Generated_Source\PSoC5/I2C_DISPLAY_INT.c ****                 }
 266:Generated_Source\PSoC5/I2C_DISPLAY_INT.c ****                 /* End of buffer: complete reading */
 267:Generated_Source\PSoC5/I2C_DISPLAY_INT.c ****                 else if(I2C_DISPLAY_CHECK_NO_STOP(I2C_DISPLAY_mstrControl))
 317              		.loc 1 267 0
 318 01ec 254B     		ldr	r3, .L39+28
 319 01ee 1B78     		ldrb	r3, [r3]	@ zero_extendqisi2
 320 01f0 03F00203 		and	r3, r3, #2
 321 01f4 03F0FF01 		and	r1, r3, #255
 322 01f8 53B1     		cbz	r3, .L21
 268:Generated_Source\PSoC5/I2C_DISPLAY_INT.c ****                 {
 269:Generated_Source\PSoC5/I2C_DISPLAY_INT.c ****                     /* Set read complete and master halted */
 270:Generated_Source\PSoC5/I2C_DISPLAY_INT.c ****                     I2C_DISPLAY_mstrStatus |= (I2C_DISPLAY_MSTAT_XFER_HALT |
 323              		.loc 1 270 0
 324 01fa 234A     		ldr	r2, .L39+32
 325 01fc 1378     		ldrb	r3, [r2]	@ zero_extendqisi2
 326 01fe 43F00903 		orr	r3, r3, #9
 327              	.L35:
 328 0202 1370     		strb	r3, [r2]
 329              	.L34:
 271:Generated_Source\PSoC5/I2C_DISPLAY_INT.c ****                                                     I2C_DISPLAY_MSTAT_RD_CMPLT);
 272:Generated_Source\PSoC5/I2C_DISPLAY_INT.c **** 
 273:Generated_Source\PSoC5/I2C_DISPLAY_INT.c ****                     I2C_DISPLAY_state = I2C_DISPLAY_SM_MSTR_HALT;    /* Expect ReStart */
 330              		.loc 1 273 0
 331 0204 6023     		movs	r3, #96
 332 0206 2B70     		strb	r3, [r5]
 274:Generated_Source\PSoC5/I2C_DISPLAY_INT.c ****                     I2C_DISPLAY_DisableInt();
 333              		.loc 1 274 0
 334 0208 204B     		ldr	r3, .L39+36
 335 020a 0122     		movs	r2, #1
 336 020c 1A60     		str	r2, [r3]
 337 020e 10E0     		b	.L3
 338              	.L21:
 275:Generated_Source\PSoC5/I2C_DISPLAY_INT.c ****                 }
 276:Generated_Source\PSoC5/I2C_DISPLAY_INT.c ****                 else
 277:Generated_Source\PSoC5/I2C_DISPLAY_INT.c ****                 {
 278:Generated_Source\PSoC5/I2C_DISPLAY_INT.c ****                     I2C_DISPLAY_ENABLE_INT_ON_STOP;
 339              		.loc 1 278 0
 340 0210 1F4A     		ldr	r2, .L39+40
 341 0212 1378     		ldrb	r3, [r2]	@ zero_extendqisi2
 342 0214 43F02003 		orr	r3, r3, #32
 343 0218 1370     		strb	r3, [r2]
 279:Generated_Source\PSoC5/I2C_DISPLAY_INT.c ****                     I2C_DISPLAY_NAK_AND_RECEIVE;       /* NACK and TRY to generate Stop */
ARM GAS  C:\Users\jesse\AppData\Local\Temp\ccLflgZg.s 			page 12


 344              		.loc 1 279 0
 345 021a 1222     		movs	r2, #18
 346              	.L32:
 347 021c 174B     		ldr	r3, .L39+20
 348 021e 1A70     		strb	r2, [r3]
 349 0220 FF22     		movs	r2, #255
 350 0222 83F8A020 		strb	r2, [r3, #160]
 351 0226 83F8E010 		strb	r1, [r3, #224]
 352 022a 02E0     		b	.L3
 353              	.L4:
 280:Generated_Source\PSoC5/I2C_DISPLAY_INT.c ****                 }
 281:Generated_Source\PSoC5/I2C_DISPLAY_INT.c ****                 break;
 282:Generated_Source\PSoC5/I2C_DISPLAY_INT.c **** 
 283:Generated_Source\PSoC5/I2C_DISPLAY_INT.c ****             default: /* This is an invalid state and should not occur */
 284:Generated_Source\PSoC5/I2C_DISPLAY_INT.c **** 
 285:Generated_Source\PSoC5/I2C_DISPLAY_INT.c ****             #if(I2C_DISPLAY_TIMEOUT_ENABLED)
 286:Generated_Source\PSoC5/I2C_DISPLAY_INT.c ****                 /* Exit interrupt to take chance for timeout timer to handles this case */
 287:Generated_Source\PSoC5/I2C_DISPLAY_INT.c ****                 I2C_DISPLAY_DisableInt();
 288:Generated_Source\PSoC5/I2C_DISPLAY_INT.c ****                 I2C_DISPLAY_ClearPendingInt();
 289:Generated_Source\PSoC5/I2C_DISPLAY_INT.c ****             #else
 290:Generated_Source\PSoC5/I2C_DISPLAY_INT.c ****                 /* Block execution flow: unexpected condition */
 291:Generated_Source\PSoC5/I2C_DISPLAY_INT.c ****                 CYASSERT(0u != 0u);
 354              		.loc 1 291 0 discriminator 1
 355 022c 0020     		movs	r0, #0
 356 022e FFF7FEFF 		bl	CyHalt
 357              	.LVL4:
 358              	.L3:
 292:Generated_Source\PSoC5/I2C_DISPLAY_INT.c ****             #endif /* (I2C_DISPLAY_TIMEOUT_ENABLED) */
 293:Generated_Source\PSoC5/I2C_DISPLAY_INT.c **** 
 294:Generated_Source\PSoC5/I2C_DISPLAY_INT.c ****                 break;
 295:Generated_Source\PSoC5/I2C_DISPLAY_INT.c ****             }
 296:Generated_Source\PSoC5/I2C_DISPLAY_INT.c ****         }
 297:Generated_Source\PSoC5/I2C_DISPLAY_INT.c **** 
 298:Generated_Source\PSoC5/I2C_DISPLAY_INT.c ****         /* Catches Stop: end of transaction */
 299:Generated_Source\PSoC5/I2C_DISPLAY_INT.c ****         if(I2C_DISPLAY_CHECK_STOP_STS(tmpCsr))
 359              		.loc 1 299 0
 360 0232 A106     		lsls	r1, r4, #26
 361 0234 16D5     		bpl	.L1
 300:Generated_Source\PSoC5/I2C_DISPLAY_INT.c ****         {
 301:Generated_Source\PSoC5/I2C_DISPLAY_INT.c ****             I2C_DISPLAY_mstrStatus |= I2C_DISPLAY_GET_MSTAT_CMPLT;
 362              		.loc 1 301 0
 363 0236 2B78     		ldrb	r3, [r5]	@ zero_extendqisi2
 364 0238 134A     		ldr	r2, .L39+32
 365 023a 13F0080F 		tst	r3, #8
 366 023e 1178     		ldrb	r1, [r2]	@ zero_extendqisi2
 367 0240 14BF     		ite	ne
 368 0242 0123     		movne	r3, #1
 369 0244 0223     		moveq	r3, #2
 370 0246 0B43     		orrs	r3, r3, r1
 371 0248 1370     		strb	r3, [r2]
 302:Generated_Source\PSoC5/I2C_DISPLAY_INT.c **** 
 303:Generated_Source\PSoC5/I2C_DISPLAY_INT.c ****             I2C_DISPLAY_DISABLE_INT_ON_STOP;
 372              		.loc 1 303 0
 373 024a 114A     		ldr	r2, .L39+40
 374 024c 1378     		ldrb	r3, [r2]	@ zero_extendqisi2
 375 024e 03F0DF03 		and	r3, r3, #223
 376 0252 1370     		strb	r3, [r2]
ARM GAS  C:\Users\jesse\AppData\Local\Temp\ccLflgZg.s 			page 13


 304:Generated_Source\PSoC5/I2C_DISPLAY_INT.c ****             I2C_DISPLAY_state = I2C_DISPLAY_SM_IDLE;
 377              		.loc 1 304 0
 378 0254 1023     		movs	r3, #16
 379 0256 2B70     		strb	r3, [r5]
 380 0258 70BD     		pop	{r4, r5, r6, pc}
 381              	.LVL5:
 382              	.L2:
 305:Generated_Source\PSoC5/I2C_DISPLAY_INT.c ****         }
 306:Generated_Source\PSoC5/I2C_DISPLAY_INT.c ****     #endif /* (I2C_DISPLAY_MODE_MASTER_ENABLED) */
 307:Generated_Source\PSoC5/I2C_DISPLAY_INT.c ****     }
 308:Generated_Source\PSoC5/I2C_DISPLAY_INT.c ****     else if(I2C_DISPLAY_CHECK_SM_SLAVE)
 383              		.loc 1 308 0
 384 025a 1A78     		ldrb	r2, [r3]	@ zero_extendqisi2
 385 025c D206     		lsls	r2, r2, #27
 309:Generated_Source\PSoC5/I2C_DISPLAY_INT.c ****     {
 310:Generated_Source\PSoC5/I2C_DISPLAY_INT.c ****     #if(I2C_DISPLAY_MODE_SLAVE_ENABLED)
 311:Generated_Source\PSoC5/I2C_DISPLAY_INT.c **** 
 312:Generated_Source\PSoC5/I2C_DISPLAY_INT.c ****         if((I2C_DISPLAY_CHECK_STOP_STS(tmpCsr)) || /* Stop || Restart */
 313:Generated_Source\PSoC5/I2C_DISPLAY_INT.c ****            (I2C_DISPLAY_CHECK_BYTE_COMPLETE(tmpCsr) && I2C_DISPLAY_CHECK_ADDRESS_STS(tmpCsr)))
 314:Generated_Source\PSoC5/I2C_DISPLAY_INT.c ****         {
 315:Generated_Source\PSoC5/I2C_DISPLAY_INT.c ****             /* Catch end of master write transaction: use interrupt on Stop */
 316:Generated_Source\PSoC5/I2C_DISPLAY_INT.c ****             /* The Stop bit history on address phase does not have correct state */
 317:Generated_Source\PSoC5/I2C_DISPLAY_INT.c ****             if(I2C_DISPLAY_SM_SL_WR_DATA == I2C_DISPLAY_state)
 318:Generated_Source\PSoC5/I2C_DISPLAY_INT.c ****             {
 319:Generated_Source\PSoC5/I2C_DISPLAY_INT.c ****                 I2C_DISPLAY_DISABLE_INT_ON_STOP;
 320:Generated_Source\PSoC5/I2C_DISPLAY_INT.c **** 
 321:Generated_Source\PSoC5/I2C_DISPLAY_INT.c ****                 I2C_DISPLAY_slStatus &= ((uint8) ~I2C_DISPLAY_SSTAT_WR_BUSY);
 322:Generated_Source\PSoC5/I2C_DISPLAY_INT.c ****                 I2C_DISPLAY_slStatus |= ((uint8)  I2C_DISPLAY_SSTAT_WR_CMPLT);
 323:Generated_Source\PSoC5/I2C_DISPLAY_INT.c **** 
 324:Generated_Source\PSoC5/I2C_DISPLAY_INT.c ****                 I2C_DISPLAY_state = I2C_DISPLAY_SM_IDLE;
 325:Generated_Source\PSoC5/I2C_DISPLAY_INT.c ****             }
 326:Generated_Source\PSoC5/I2C_DISPLAY_INT.c ****         }
 327:Generated_Source\PSoC5/I2C_DISPLAY_INT.c **** 
 328:Generated_Source\PSoC5/I2C_DISPLAY_INT.c ****         if(I2C_DISPLAY_CHECK_BYTE_COMPLETE(tmpCsr))
 329:Generated_Source\PSoC5/I2C_DISPLAY_INT.c ****         {
 330:Generated_Source\PSoC5/I2C_DISPLAY_INT.c ****             /* The address only issued after Start or ReStart: so check the address
 331:Generated_Source\PSoC5/I2C_DISPLAY_INT.c ****                to catch these events:
 332:Generated_Source\PSoC5/I2C_DISPLAY_INT.c ****                 FF : sets an address phase with a byte_complete interrupt trigger.
 333:Generated_Source\PSoC5/I2C_DISPLAY_INT.c ****                 UDB: sets an address phase immediately after Start or ReStart. */
 334:Generated_Source\PSoC5/I2C_DISPLAY_INT.c ****             if(I2C_DISPLAY_CHECK_ADDRESS_STS(tmpCsr))
 335:Generated_Source\PSoC5/I2C_DISPLAY_INT.c ****             {
 336:Generated_Source\PSoC5/I2C_DISPLAY_INT.c ****             /* Check for software address detection */
 337:Generated_Source\PSoC5/I2C_DISPLAY_INT.c ****             #if(I2C_DISPLAY_SW_ADRR_DECODE)
 338:Generated_Source\PSoC5/I2C_DISPLAY_INT.c ****                 tmp8 = I2C_DISPLAY_GET_SLAVE_ADDR(I2C_DISPLAY_DATA_REG);
 339:Generated_Source\PSoC5/I2C_DISPLAY_INT.c **** 
 340:Generated_Source\PSoC5/I2C_DISPLAY_INT.c ****                 if(tmp8 == I2C_DISPLAY_slAddress)   /* Check for address match */
 341:Generated_Source\PSoC5/I2C_DISPLAY_INT.c ****                 {
 342:Generated_Source\PSoC5/I2C_DISPLAY_INT.c ****                     if(0u != (I2C_DISPLAY_DATA_REG & I2C_DISPLAY_READ_FLAG))
 343:Generated_Source\PSoC5/I2C_DISPLAY_INT.c ****                     {
 344:Generated_Source\PSoC5/I2C_DISPLAY_INT.c ****                         /* Place code to prepare read buffer here                  */
 345:Generated_Source\PSoC5/I2C_DISPLAY_INT.c ****                         /* `#START I2C_DISPLAY_SW_PREPARE_READ_BUF_interrupt` */
 346:Generated_Source\PSoC5/I2C_DISPLAY_INT.c **** 
 347:Generated_Source\PSoC5/I2C_DISPLAY_INT.c ****                         /* `#END` */
 348:Generated_Source\PSoC5/I2C_DISPLAY_INT.c **** 
 349:Generated_Source\PSoC5/I2C_DISPLAY_INT.c ****                     #ifdef I2C_DISPLAY_SW_PREPARE_READ_BUF_CALLBACK
 350:Generated_Source\PSoC5/I2C_DISPLAY_INT.c ****                         I2C_DISPLAY_SwPrepareReadBuf_Callback();
 351:Generated_Source\PSoC5/I2C_DISPLAY_INT.c ****                     #endif /* I2C_DISPLAY_SW_PREPARE_READ_BUF_CALLBACK */
ARM GAS  C:\Users\jesse\AppData\Local\Temp\ccLflgZg.s 			page 14


 352:Generated_Source\PSoC5/I2C_DISPLAY_INT.c ****                         
 353:Generated_Source\PSoC5/I2C_DISPLAY_INT.c ****                         /* Prepare next operation to read, get data and place in data register */
 354:Generated_Source\PSoC5/I2C_DISPLAY_INT.c ****                         if(I2C_DISPLAY_slRdBufIndex < I2C_DISPLAY_slRdBufSize)
 355:Generated_Source\PSoC5/I2C_DISPLAY_INT.c ****                         {
 356:Generated_Source\PSoC5/I2C_DISPLAY_INT.c ****                             /* Load first data byte from array */
 357:Generated_Source\PSoC5/I2C_DISPLAY_INT.c ****                             I2C_DISPLAY_DATA_REG = I2C_DISPLAY_slRdBufPtr[I2C_DISPLAY_slRdBufIndex]
 358:Generated_Source\PSoC5/I2C_DISPLAY_INT.c ****                             I2C_DISPLAY_ACK_AND_TRANSMIT;
 359:Generated_Source\PSoC5/I2C_DISPLAY_INT.c ****                             I2C_DISPLAY_slRdBufIndex++;
 360:Generated_Source\PSoC5/I2C_DISPLAY_INT.c **** 
 361:Generated_Source\PSoC5/I2C_DISPLAY_INT.c ****                             I2C_DISPLAY_slStatus |= I2C_DISPLAY_SSTAT_RD_BUSY;
 362:Generated_Source\PSoC5/I2C_DISPLAY_INT.c ****                         }
 363:Generated_Source\PSoC5/I2C_DISPLAY_INT.c ****                         else    /* Overflow: provide 0xFF on bus */
 364:Generated_Source\PSoC5/I2C_DISPLAY_INT.c ****                         {
 365:Generated_Source\PSoC5/I2C_DISPLAY_INT.c ****                             I2C_DISPLAY_DATA_REG = I2C_DISPLAY_OVERFLOW_RETURN;
 366:Generated_Source\PSoC5/I2C_DISPLAY_INT.c ****                             I2C_DISPLAY_ACK_AND_TRANSMIT;
 367:Generated_Source\PSoC5/I2C_DISPLAY_INT.c **** 
 368:Generated_Source\PSoC5/I2C_DISPLAY_INT.c ****                             I2C_DISPLAY_slStatus  |= (I2C_DISPLAY_SSTAT_RD_BUSY |
 369:Generated_Source\PSoC5/I2C_DISPLAY_INT.c ****                                                            I2C_DISPLAY_SSTAT_RD_ERR_OVFL);
 370:Generated_Source\PSoC5/I2C_DISPLAY_INT.c ****                         }
 371:Generated_Source\PSoC5/I2C_DISPLAY_INT.c **** 
 372:Generated_Source\PSoC5/I2C_DISPLAY_INT.c ****                         I2C_DISPLAY_state = I2C_DISPLAY_SM_SL_RD_DATA;
 373:Generated_Source\PSoC5/I2C_DISPLAY_INT.c ****                     }
 374:Generated_Source\PSoC5/I2C_DISPLAY_INT.c ****                     else  /* Write transaction: receive 1st byte */
 375:Generated_Source\PSoC5/I2C_DISPLAY_INT.c ****                     {
 376:Generated_Source\PSoC5/I2C_DISPLAY_INT.c ****                         I2C_DISPLAY_ACK_AND_RECEIVE;
 377:Generated_Source\PSoC5/I2C_DISPLAY_INT.c ****                         I2C_DISPLAY_state = I2C_DISPLAY_SM_SL_WR_DATA;
 378:Generated_Source\PSoC5/I2C_DISPLAY_INT.c **** 
 379:Generated_Source\PSoC5/I2C_DISPLAY_INT.c ****                         I2C_DISPLAY_slStatus |= I2C_DISPLAY_SSTAT_WR_BUSY;
 380:Generated_Source\PSoC5/I2C_DISPLAY_INT.c ****                         I2C_DISPLAY_ENABLE_INT_ON_STOP;
 381:Generated_Source\PSoC5/I2C_DISPLAY_INT.c ****                     }
 382:Generated_Source\PSoC5/I2C_DISPLAY_INT.c ****                 }
 383:Generated_Source\PSoC5/I2C_DISPLAY_INT.c ****                 else
 384:Generated_Source\PSoC5/I2C_DISPLAY_INT.c ****                 {
 385:Generated_Source\PSoC5/I2C_DISPLAY_INT.c ****                     /*     Place code to compare for additional address here    */
 386:Generated_Source\PSoC5/I2C_DISPLAY_INT.c ****                     /* `#START I2C_DISPLAY_SW_ADDR_COMPARE_interruptStart` */
 387:Generated_Source\PSoC5/I2C_DISPLAY_INT.c **** 
 388:Generated_Source\PSoC5/I2C_DISPLAY_INT.c ****                     /* `#END` */
 389:Generated_Source\PSoC5/I2C_DISPLAY_INT.c **** 
 390:Generated_Source\PSoC5/I2C_DISPLAY_INT.c ****                 #ifdef I2C_DISPLAY_SW_ADDR_COMPARE_ENTRY_CALLBACK
 391:Generated_Source\PSoC5/I2C_DISPLAY_INT.c ****                     I2C_DISPLAY_SwAddrCompare_EntryCallback();
 392:Generated_Source\PSoC5/I2C_DISPLAY_INT.c ****                 #endif /* I2C_DISPLAY_SW_ADDR_COMPARE_ENTRY_CALLBACK */
 393:Generated_Source\PSoC5/I2C_DISPLAY_INT.c ****                     
 394:Generated_Source\PSoC5/I2C_DISPLAY_INT.c ****                     I2C_DISPLAY_NAK_AND_RECEIVE;   /* NACK address */
 395:Generated_Source\PSoC5/I2C_DISPLAY_INT.c **** 
 396:Generated_Source\PSoC5/I2C_DISPLAY_INT.c ****                     /* Place code to end of condition for NACK generation here */
 397:Generated_Source\PSoC5/I2C_DISPLAY_INT.c ****                     /* `#START I2C_DISPLAY_SW_ADDR_COMPARE_interruptEnd`  */
 398:Generated_Source\PSoC5/I2C_DISPLAY_INT.c **** 
 399:Generated_Source\PSoC5/I2C_DISPLAY_INT.c ****                     /* `#END` */
 400:Generated_Source\PSoC5/I2C_DISPLAY_INT.c **** 
 401:Generated_Source\PSoC5/I2C_DISPLAY_INT.c ****                 #ifdef I2C_DISPLAY_SW_ADDR_COMPARE_EXIT_CALLBACK
 402:Generated_Source\PSoC5/I2C_DISPLAY_INT.c ****                     I2C_DISPLAY_SwAddrCompare_ExitCallback();
 403:Generated_Source\PSoC5/I2C_DISPLAY_INT.c ****                 #endif /* I2C_DISPLAY_SW_ADDR_COMPARE_EXIT_CALLBACK */
 404:Generated_Source\PSoC5/I2C_DISPLAY_INT.c ****                 }
 405:Generated_Source\PSoC5/I2C_DISPLAY_INT.c **** 
 406:Generated_Source\PSoC5/I2C_DISPLAY_INT.c ****             #else /* (I2C_DISPLAY_HW_ADRR_DECODE) */
 407:Generated_Source\PSoC5/I2C_DISPLAY_INT.c **** 
 408:Generated_Source\PSoC5/I2C_DISPLAY_INT.c ****                 if(0u != (I2C_DISPLAY_DATA_REG & I2C_DISPLAY_READ_FLAG))
ARM GAS  C:\Users\jesse\AppData\Local\Temp\ccLflgZg.s 			page 15


 409:Generated_Source\PSoC5/I2C_DISPLAY_INT.c ****                 {
 410:Generated_Source\PSoC5/I2C_DISPLAY_INT.c ****                     /* Place code to prepare read buffer here                  */
 411:Generated_Source\PSoC5/I2C_DISPLAY_INT.c ****                     /* `#START I2C_DISPLAY_HW_PREPARE_READ_BUF_interrupt` */
 412:Generated_Source\PSoC5/I2C_DISPLAY_INT.c **** 
 413:Generated_Source\PSoC5/I2C_DISPLAY_INT.c ****                     /* `#END` */
 414:Generated_Source\PSoC5/I2C_DISPLAY_INT.c ****                     
 415:Generated_Source\PSoC5/I2C_DISPLAY_INT.c ****                 #ifdef I2C_DISPLAY_HW_PREPARE_READ_BUF_CALLBACK
 416:Generated_Source\PSoC5/I2C_DISPLAY_INT.c ****                     I2C_DISPLAY_HwPrepareReadBuf_Callback();
 417:Generated_Source\PSoC5/I2C_DISPLAY_INT.c ****                 #endif /* I2C_DISPLAY_HW_PREPARE_READ_BUF_CALLBACK */
 418:Generated_Source\PSoC5/I2C_DISPLAY_INT.c **** 
 419:Generated_Source\PSoC5/I2C_DISPLAY_INT.c ****                     /* Prepare next operation to read, get data and place in data register */
 420:Generated_Source\PSoC5/I2C_DISPLAY_INT.c ****                     if(I2C_DISPLAY_slRdBufIndex < I2C_DISPLAY_slRdBufSize)
 421:Generated_Source\PSoC5/I2C_DISPLAY_INT.c ****                     {
 422:Generated_Source\PSoC5/I2C_DISPLAY_INT.c ****                         /* Load first data byte from array */
 423:Generated_Source\PSoC5/I2C_DISPLAY_INT.c ****                         I2C_DISPLAY_DATA_REG = I2C_DISPLAY_slRdBufPtr[I2C_DISPLAY_slRdBufIndex];
 424:Generated_Source\PSoC5/I2C_DISPLAY_INT.c ****                         I2C_DISPLAY_ACK_AND_TRANSMIT;
 425:Generated_Source\PSoC5/I2C_DISPLAY_INT.c ****                         I2C_DISPLAY_slRdBufIndex++;
 426:Generated_Source\PSoC5/I2C_DISPLAY_INT.c **** 
 427:Generated_Source\PSoC5/I2C_DISPLAY_INT.c ****                         I2C_DISPLAY_slStatus |= I2C_DISPLAY_SSTAT_RD_BUSY;
 428:Generated_Source\PSoC5/I2C_DISPLAY_INT.c ****                     }
 429:Generated_Source\PSoC5/I2C_DISPLAY_INT.c ****                     else    /* Overflow: provide 0xFF on bus */
 430:Generated_Source\PSoC5/I2C_DISPLAY_INT.c ****                     {
 431:Generated_Source\PSoC5/I2C_DISPLAY_INT.c ****                         I2C_DISPLAY_DATA_REG = I2C_DISPLAY_OVERFLOW_RETURN;
 432:Generated_Source\PSoC5/I2C_DISPLAY_INT.c ****                         I2C_DISPLAY_ACK_AND_TRANSMIT;
 433:Generated_Source\PSoC5/I2C_DISPLAY_INT.c **** 
 434:Generated_Source\PSoC5/I2C_DISPLAY_INT.c ****                         I2C_DISPLAY_slStatus  |= (I2C_DISPLAY_SSTAT_RD_BUSY |
 435:Generated_Source\PSoC5/I2C_DISPLAY_INT.c ****                                                        I2C_DISPLAY_SSTAT_RD_ERR_OVFL);
 436:Generated_Source\PSoC5/I2C_DISPLAY_INT.c ****                     }
 437:Generated_Source\PSoC5/I2C_DISPLAY_INT.c **** 
 438:Generated_Source\PSoC5/I2C_DISPLAY_INT.c ****                     I2C_DISPLAY_state = I2C_DISPLAY_SM_SL_RD_DATA;
 439:Generated_Source\PSoC5/I2C_DISPLAY_INT.c ****                 }
 440:Generated_Source\PSoC5/I2C_DISPLAY_INT.c ****                 else  /* Write transaction: receive 1st byte */
 441:Generated_Source\PSoC5/I2C_DISPLAY_INT.c ****                 {
 442:Generated_Source\PSoC5/I2C_DISPLAY_INT.c ****                     I2C_DISPLAY_ACK_AND_RECEIVE;
 443:Generated_Source\PSoC5/I2C_DISPLAY_INT.c ****                     I2C_DISPLAY_state = I2C_DISPLAY_SM_SL_WR_DATA;
 444:Generated_Source\PSoC5/I2C_DISPLAY_INT.c **** 
 445:Generated_Source\PSoC5/I2C_DISPLAY_INT.c ****                     I2C_DISPLAY_slStatus |= I2C_DISPLAY_SSTAT_WR_BUSY;
 446:Generated_Source\PSoC5/I2C_DISPLAY_INT.c ****                     I2C_DISPLAY_ENABLE_INT_ON_STOP;
 447:Generated_Source\PSoC5/I2C_DISPLAY_INT.c ****                 }
 448:Generated_Source\PSoC5/I2C_DISPLAY_INT.c **** 
 449:Generated_Source\PSoC5/I2C_DISPLAY_INT.c ****             #endif /* (I2C_DISPLAY_SW_ADRR_DECODE) */
 450:Generated_Source\PSoC5/I2C_DISPLAY_INT.c ****             }
 451:Generated_Source\PSoC5/I2C_DISPLAY_INT.c ****             /* Data states */
 452:Generated_Source\PSoC5/I2C_DISPLAY_INT.c ****             /* Data master writes into slave */
 453:Generated_Source\PSoC5/I2C_DISPLAY_INT.c ****             else if(I2C_DISPLAY_state == I2C_DISPLAY_SM_SL_WR_DATA)
 454:Generated_Source\PSoC5/I2C_DISPLAY_INT.c ****             {
 455:Generated_Source\PSoC5/I2C_DISPLAY_INT.c ****                 if(I2C_DISPLAY_slWrBufIndex < I2C_DISPLAY_slWrBufSize)
 456:Generated_Source\PSoC5/I2C_DISPLAY_INT.c ****                 {
 457:Generated_Source\PSoC5/I2C_DISPLAY_INT.c ****                     tmp8 = I2C_DISPLAY_DATA_REG;
 458:Generated_Source\PSoC5/I2C_DISPLAY_INT.c ****                     I2C_DISPLAY_ACK_AND_RECEIVE;
 459:Generated_Source\PSoC5/I2C_DISPLAY_INT.c ****                     I2C_DISPLAY_slWrBufPtr[I2C_DISPLAY_slWrBufIndex] = tmp8;
 460:Generated_Source\PSoC5/I2C_DISPLAY_INT.c ****                     I2C_DISPLAY_slWrBufIndex++;
 461:Generated_Source\PSoC5/I2C_DISPLAY_INT.c ****                 }
 462:Generated_Source\PSoC5/I2C_DISPLAY_INT.c ****                 else  /* of array: complete write, send NACK */
 463:Generated_Source\PSoC5/I2C_DISPLAY_INT.c ****                 {
 464:Generated_Source\PSoC5/I2C_DISPLAY_INT.c ****                     I2C_DISPLAY_NAK_AND_RECEIVE;
 465:Generated_Source\PSoC5/I2C_DISPLAY_INT.c **** 
ARM GAS  C:\Users\jesse\AppData\Local\Temp\ccLflgZg.s 			page 16


 466:Generated_Source\PSoC5/I2C_DISPLAY_INT.c ****                     I2C_DISPLAY_slStatus |= I2C_DISPLAY_SSTAT_WR_ERR_OVFL;
 467:Generated_Source\PSoC5/I2C_DISPLAY_INT.c ****                 }
 468:Generated_Source\PSoC5/I2C_DISPLAY_INT.c ****             }
 469:Generated_Source\PSoC5/I2C_DISPLAY_INT.c ****             /* Data master reads from slave */
 470:Generated_Source\PSoC5/I2C_DISPLAY_INT.c ****             else if(I2C_DISPLAY_state == I2C_DISPLAY_SM_SL_RD_DATA)
 471:Generated_Source\PSoC5/I2C_DISPLAY_INT.c ****             {
 472:Generated_Source\PSoC5/I2C_DISPLAY_INT.c ****                 if(I2C_DISPLAY_CHECK_DATA_ACK(tmpCsr))
 473:Generated_Source\PSoC5/I2C_DISPLAY_INT.c ****                 {
 474:Generated_Source\PSoC5/I2C_DISPLAY_INT.c ****                     if(I2C_DISPLAY_slRdBufIndex < I2C_DISPLAY_slRdBufSize)
 475:Generated_Source\PSoC5/I2C_DISPLAY_INT.c ****                     {
 476:Generated_Source\PSoC5/I2C_DISPLAY_INT.c ****                          /* Get data from array */
 477:Generated_Source\PSoC5/I2C_DISPLAY_INT.c ****                         I2C_DISPLAY_DATA_REG = I2C_DISPLAY_slRdBufPtr[I2C_DISPLAY_slRdBufIndex];
 478:Generated_Source\PSoC5/I2C_DISPLAY_INT.c ****                         I2C_DISPLAY_TRANSMIT_DATA;
 479:Generated_Source\PSoC5/I2C_DISPLAY_INT.c ****                         I2C_DISPLAY_slRdBufIndex++;
 480:Generated_Source\PSoC5/I2C_DISPLAY_INT.c ****                     }
 481:Generated_Source\PSoC5/I2C_DISPLAY_INT.c ****                     else   /* Overflow: provide 0xFF on bus */
 482:Generated_Source\PSoC5/I2C_DISPLAY_INT.c ****                     {
 483:Generated_Source\PSoC5/I2C_DISPLAY_INT.c ****                         I2C_DISPLAY_DATA_REG = I2C_DISPLAY_OVERFLOW_RETURN;
 484:Generated_Source\PSoC5/I2C_DISPLAY_INT.c ****                         I2C_DISPLAY_TRANSMIT_DATA;
 485:Generated_Source\PSoC5/I2C_DISPLAY_INT.c **** 
 486:Generated_Source\PSoC5/I2C_DISPLAY_INT.c ****                         I2C_DISPLAY_slStatus |= I2C_DISPLAY_SSTAT_RD_ERR_OVFL;
 487:Generated_Source\PSoC5/I2C_DISPLAY_INT.c ****                     }
 488:Generated_Source\PSoC5/I2C_DISPLAY_INT.c ****                 }
 489:Generated_Source\PSoC5/I2C_DISPLAY_INT.c ****                 else  /* Last byte was NACKed: read complete */
 490:Generated_Source\PSoC5/I2C_DISPLAY_INT.c ****                 {
 491:Generated_Source\PSoC5/I2C_DISPLAY_INT.c ****                     /* Only NACK appears on bus */
 492:Generated_Source\PSoC5/I2C_DISPLAY_INT.c ****                     I2C_DISPLAY_DATA_REG = I2C_DISPLAY_OVERFLOW_RETURN;
 493:Generated_Source\PSoC5/I2C_DISPLAY_INT.c ****                     I2C_DISPLAY_NAK_AND_TRANSMIT;
 494:Generated_Source\PSoC5/I2C_DISPLAY_INT.c **** 
 495:Generated_Source\PSoC5/I2C_DISPLAY_INT.c ****                     I2C_DISPLAY_slStatus &= ((uint8) ~I2C_DISPLAY_SSTAT_RD_BUSY);
 496:Generated_Source\PSoC5/I2C_DISPLAY_INT.c ****                     I2C_DISPLAY_slStatus |= ((uint8)  I2C_DISPLAY_SSTAT_RD_CMPLT);
 497:Generated_Source\PSoC5/I2C_DISPLAY_INT.c **** 
 498:Generated_Source\PSoC5/I2C_DISPLAY_INT.c ****                     I2C_DISPLAY_state = I2C_DISPLAY_SM_IDLE;
 499:Generated_Source\PSoC5/I2C_DISPLAY_INT.c ****                 }
 500:Generated_Source\PSoC5/I2C_DISPLAY_INT.c ****             }
 501:Generated_Source\PSoC5/I2C_DISPLAY_INT.c ****             else
 502:Generated_Source\PSoC5/I2C_DISPLAY_INT.c ****             {
 503:Generated_Source\PSoC5/I2C_DISPLAY_INT.c ****             #if(I2C_DISPLAY_TIMEOUT_ENABLED)
 504:Generated_Source\PSoC5/I2C_DISPLAY_INT.c ****                 /* Exit interrupt to take chance for timeout timer to handle this case */
 505:Generated_Source\PSoC5/I2C_DISPLAY_INT.c ****                 I2C_DISPLAY_DisableInt();
 506:Generated_Source\PSoC5/I2C_DISPLAY_INT.c ****                 I2C_DISPLAY_ClearPendingInt();
 507:Generated_Source\PSoC5/I2C_DISPLAY_INT.c ****             #else
 508:Generated_Source\PSoC5/I2C_DISPLAY_INT.c ****                 /* Block execution flow: unexpected condition */
 509:Generated_Source\PSoC5/I2C_DISPLAY_INT.c ****                 CYASSERT(0u != 0u);
 510:Generated_Source\PSoC5/I2C_DISPLAY_INT.c ****             #endif /* (I2C_DISPLAY_TIMEOUT_ENABLED) */
 511:Generated_Source\PSoC5/I2C_DISPLAY_INT.c ****             }
 512:Generated_Source\PSoC5/I2C_DISPLAY_INT.c ****         }
 513:Generated_Source\PSoC5/I2C_DISPLAY_INT.c ****     #endif /* (I2C_DISPLAY_MODE_SLAVE_ENABLED) */
 514:Generated_Source\PSoC5/I2C_DISPLAY_INT.c ****     }
 515:Generated_Source\PSoC5/I2C_DISPLAY_INT.c ****     else
 516:Generated_Source\PSoC5/I2C_DISPLAY_INT.c ****     {
 517:Generated_Source\PSoC5/I2C_DISPLAY_INT.c ****         /* The FSM skips master and slave processing: return to IDLE */
 518:Generated_Source\PSoC5/I2C_DISPLAY_INT.c ****         I2C_DISPLAY_state = I2C_DISPLAY_SM_IDLE;
 386              		.loc 1 518 0
 387 025e 5CBF     		itt	pl
 388 0260 1022     		movpl	r2, #16
 389 0262 1A70     		strbpl	r2, [r3]
ARM GAS  C:\Users\jesse\AppData\Local\Temp\ccLflgZg.s 			page 17


 390              	.L1:
 391 0264 70BD     		pop	{r4, r5, r6, pc}
 392              	.LVL6:
 393              	.L40:
 394 0266 00BF     		.align	2
 395              	.L39:
 396 0268 65640040 		.word	1073767525
 397 026c 00000000 		.word	I2C_DISPLAY_state
 398 0270 00000000 		.word	I2C_DISPLAY_mstrWrBufSize
 399 0274 00000000 		.word	I2C_DISPLAY_mstrWrBufPtr
 400 0278 04650040 		.word	1073767684
 401 027c 74640040 		.word	1073767540
 402 0280 00000000 		.word	I2C_DISPLAY_mstrWrBufIndex
 403 0284 00000000 		.word	I2C_DISPLAY_mstrControl
 404 0288 00000000 		.word	I2C_DISPLAY_mstrStatus
 405 028c 80E100E0 		.word	-536813184
 406 0290 85640040 		.word	1073767557
 407 0294 00000000 		.word	I2C_DISPLAY_mstrRdBufPtr
 408 0298 00000000 		.word	I2C_DISPLAY_mstrRdBufIndex
 409 029c 00000000 		.word	I2C_DISPLAY_mstrRdBufSize
 410              		.cfi_endproc
 411              	.LFE0:
 412              		.size	I2C_DISPLAY_ISR, .-I2C_DISPLAY_ISR
 413              		.text
 414              	.Letext0:
 415              		.file 2 "Generated_Source\\PSoC5\\cytypes.h"
 416              		.file 3 "Generated_Source\\PSoC5\\I2C_DISPLAY_PVT.h"
 417              		.file 4 "Generated_Source\\PSoC5\\CyLib.h"