ARM GAS  C:\Users\jesse\AppData\Local\Temp\cc9qRVrE.s 			page 1


   1              		.syntax unified
   2              		.cpu cortex-m3
   3              		.fpu softvfp
   4              		.eabi_attribute 20, 1
   5              		.eabi_attribute 21, 1
   6              		.eabi_attribute 23, 3
   7              		.eabi_attribute 24, 1
   8              		.eabi_attribute 25, 1
   9              		.eabi_attribute 26, 1
  10              		.eabi_attribute 30, 4
  11              		.eabi_attribute 34, 1
  12              		.eabi_attribute 18, 4
  13              		.thumb
  14              		.syntax unified
  15              		.file	"main.c"
  16              		.text
  17              	.Ltext0:
  18              		.cfi_sections	.debug_frame
  19              		.section	.text.psoc_gpio_and_delay_callback,"ax",%progbits
  20              		.align	1
  21              		.global	psoc_gpio_and_delay_callback
  22              		.thumb
  23              		.thumb_func
  24              		.type	psoc_gpio_and_delay_callback, %function
  25              	psoc_gpio_and_delay_callback:
  26              	.LFB65:
  27              		.file 1 "main.c"
   1:main.c        **** #include <project.h>
   2:main.c        **** #include <stdio.h>
   3:main.c        **** #include <u8x8.h>
   4:main.c        **** 
   5:main.c        **** uint8_t psoc_gpio_and_delay_callback(u8x8_t *u8x8, uint8_t msg, 
   6:main.c        ****                                      uint8_t arg_int, void *arg_ptr);
   7:main.c        **** uint8_t u8x8_byte_hw_i2c(u8x8_t *u8x8, uint8_t msg,
   8:main.c        ****                          uint8_t arg_int, void *arg_ptr);
   9:main.c        **** 
  10:main.c        **** 
  11:main.c        **** int main(void) {
  12:main.c        **** 
  13:main.c        ****   u8x8_t EM2Display;
  14:main.c        **** 
  15:main.c        ****   CyGlobalIntEnable;
  16:main.c        ****     
  17:main.c        ****   I2C_DISPLAY_Start();
  18:main.c        **** 
  19:main.c        ****   u8x8_Setup(&EM2Display, u8x8_d_ssd1306_128x64_noname, u8x8_cad_ssd13xx_i2c,
  20:main.c        ****     u8x8_byte_hw_i2c, psoc_gpio_and_delay_callback);
  21:main.c        **** 
  22:main.c        ****   u8x8_InitDisplay(&EM2Display);
  23:main.c        ****   u8x8_SetPowerSave(&EM2Display, 0);
  24:main.c        ****   u8x8_ClearDisplay(&EM2Display);
  25:main.c        ****   u8x8_SetFont(&EM2Display, u8x8_font_amstrad_cpc_extended_f);
  26:main.c        **** 
  27:main.c        ****   u8x8_DrawString(&EM2Display, 1, 1, "HvA HBO-ICT");
  28:main.c        ****   u8x8_DrawString(&EM2Display, 1, 3, "TI EM2");
  29:main.c        ****   u8x8_DrawString(&EM2Display, 1, 5, "Ready to run." );
  30:main.c        **** 
ARM GAS  C:\Users\jesse\AppData\Local\Temp\cc9qRVrE.s 			page 2


  31:main.c        ****     
  32:main.c        ****     
  33:main.c        **** 
  34:main.c        **** 
  35:main.c        **** }
  36:main.c        **** 
  37:main.c        **** uint8_t psoc_gpio_and_delay_callback(u8x8_t *u8x8, uint8_t msg, uint8_t arg_int, void *arg_ptr) {
  28              		.loc 1 37 0
  29              		.cfi_startproc
  30              		@ args = 0, pretend = 0, frame = 0
  31              		@ frame_needed = 0, uses_anonymous_args = 0
  32              	.LVL0:
  38:main.c        **** 
  39:main.c        ****   (void) u8x8;
  40:main.c        ****   (void) arg_ptr;
  41:main.c        **** 
  42:main.c        ****   switch(msg) {
  33              		.loc 1 42 0
  34 0000 2A29     		cmp	r1, #42
  37:main.c        **** 
  35              		.loc 1 37 0
  36 0002 08B5     		push	{r3, lr}
  37              		.cfi_def_cfa_offset 8
  38              		.cfi_offset 3, -8
  39              		.cfi_offset 14, -4
  40              		.loc 1 42 0
  41 0004 07D0     		beq	.L3
  42 0006 2B29     		cmp	r1, #43
  43 0008 09D0     		beq	.L4
  44 000a 2929     		cmp	r1, #41
  45 000c 0AD1     		bne	.L2
  43:main.c        **** 
  44:main.c        ****     case U8X8_MSG_GPIO_AND_DELAY_INIT:
  45:main.c        ****     break;
  46:main.c        **** 
  47:main.c        ****     case U8X8_MSG_DELAY_MILLI:
  48:main.c        ****     CyDelay(arg_int);
  46              		.loc 1 48 0
  47 000e 1046     		mov	r0, r2
  48              	.LVL1:
  49 0010 FFF7FEFF 		bl	CyDelay
  50              	.LVL2:
  49:main.c        ****     break;
  51              		.loc 1 49 0
  52 0014 06E0     		b	.L2
  53              	.LVL3:
  54              	.L3:
  50:main.c        **** 
  51:main.c        ****     case U8X8_MSG_DELAY_10MICRO:
  52:main.c        ****     CyDelayUs(10);
  55              		.loc 1 52 0
  56 0016 0A20     		movs	r0, #10
  57              	.LVL4:
  58 0018 FFF7FEFF 		bl	CyDelayUs
  59              	.LVL5:
  53:main.c        ****     break;
  60              		.loc 1 53 0
ARM GAS  C:\Users\jesse\AppData\Local\Temp\cc9qRVrE.s 			page 3


  61 001c 02E0     		b	.L2
  62              	.LVL6:
  63              	.L4:
  54:main.c        **** 
  55:main.c        ****     case U8X8_MSG_DELAY_100NANO:
  56:main.c        ****     CyDelayCycles(100);
  64              		.loc 1 56 0
  65 001e 6420     		movs	r0, #100
  66              	.LVL7:
  67 0020 FFF7FEFF 		bl	CyDelayCycles
  68              	.LVL8:
  69              	.L2:
  57:main.c        ****     break;
  58:main.c        **** 
  59:main.c        ****   }
  60:main.c        **** 
  61:main.c        ****   return 1;
  62:main.c        **** 
  63:main.c        **** }
  70              		.loc 1 63 0
  71 0024 0120     		movs	r0, #1
  72 0026 08BD     		pop	{r3, pc}
  73              		.cfi_endproc
  74              	.LFE65:
  75              		.size	psoc_gpio_and_delay_callback, .-psoc_gpio_and_delay_callback
  76              		.section	.text.u8x8_byte_hw_i2c,"ax",%progbits
  77              		.align	1
  78              		.global	u8x8_byte_hw_i2c
  79              		.thumb
  80              		.thumb_func
  81              		.type	u8x8_byte_hw_i2c, %function
  82              	u8x8_byte_hw_i2c:
  83              	.LFB66:
  64:main.c        **** 
  65:main.c        **** /*
  66:main.c        ****  PSoC I2C Hardware Interface for U8X8
  67:main.c        **** */
  68:main.c        **** uint8_t u8x8_byte_hw_i2c(u8x8_t *u8x8, uint8_t msg, uint8_t arg_int, void *arg_ptr) {
  84              		.loc 1 68 0
  85              		.cfi_startproc
  86              		@ args = 0, pretend = 0, frame = 0
  87              		@ frame_needed = 0, uses_anonymous_args = 0
  88              	.LVL9:
  69:main.c        **** 
  70:main.c        ****   uint8_t *data;
  71:main.c        **** 
  72:main.c        ****   switch(msg) {
  89              		.loc 1 72 0
  90 0000 1439     		subs	r1, r1, #20
  91              	.LVL10:
  68:main.c        **** 
  92              		.loc 1 68 0
  93 0002 38B5     		push	{r3, r4, r5, lr}
  94              		.cfi_def_cfa_offset 16
  95              		.cfi_offset 3, -16
  96              		.cfi_offset 4, -12
  97              		.cfi_offset 5, -8
ARM GAS  C:\Users\jesse\AppData\Local\Temp\cc9qRVrE.s 			page 4


  98              		.cfi_offset 14, -4
  68:main.c        **** 
  99              		.loc 1 68 0
 100 0004 1446     		mov	r4, r2
 101 0006 1D46     		mov	r5, r3
 102              		.loc 1 72 0
 103 0008 0C29     		cmp	r1, #12
 104 000a 1BD8     		bhi	.L16
 105 000c DFE801F0 		tbb	[pc, r1]
 106              	.LVL11:
 107              	.L10:
 108 0010 18       		.byte	(.L17-.L10)/2
 109 0011 1A       		.byte	(.L16-.L10)/2
 110 0012 1A       		.byte	(.L16-.L10)/2
 111 0013 07       		.byte	(.L14-.L10)/2
 112 0014 0F       		.byte	(.L12-.L10)/2
 113 0015 16       		.byte	(.L13-.L10)/2
 114 0016 1A       		.byte	(.L16-.L10)/2
 115 0017 1A       		.byte	(.L16-.L10)/2
 116 0018 1A       		.byte	(.L16-.L10)/2
 117 0019 1A       		.byte	(.L16-.L10)/2
 118 001a 1A       		.byte	(.L16-.L10)/2
 119 001b 1A       		.byte	(.L16-.L10)/2
 120 001c 18       		.byte	(.L17-.L10)/2
 121 001d 00       		.p2align 1
 122              	.L14:
 123              	.LBB4:
 124              	.LBB5:
  73:main.c        **** 
  74:main.c        ****     case U8X8_MSG_BYTE_SEND:
  75:main.c        ****     data = (uint8_t *)arg_ptr;
  76:main.c        **** 
  77:main.c        ****     while(arg_int > 0) {
 125              		.loc 1 77 0
 126 001e 7CB1     		cbz	r4, .L17
  78:main.c        ****       (void)I2C_DISPLAY_MasterWriteByte(*data);
 127              		.loc 1 78 0
 128 0020 15F8010B 		ldrb	r0, [r5], #1	@ zero_extendqisi2
 129              	.LVL12:
  79:main.c        ****       data++;
  80:main.c        ****       arg_int--;
 130              		.loc 1 80 0
 131 0024 013C     		subs	r4, r4, #1
 132              	.LVL13:
  78:main.c        ****       (void)I2C_DISPLAY_MasterWriteByte(*data);
 133              		.loc 1 78 0
 134 0026 FFF7FEFF 		bl	I2C_DISPLAY_MasterWriteByte
 135              	.LVL14:
 136              		.loc 1 80 0
 137 002a E4B2     		uxtb	r4, r4
 138              	.LVL15:
 139 002c F7E7     		b	.L14
 140              	.LVL16:
 141              	.L12:
 142              	.LBE5:
 143              	.LBE4:
  81:main.c        ****     }
ARM GAS  C:\Users\jesse\AppData\Local\Temp\cc9qRVrE.s 			page 5


  82:main.c        **** 
  83:main.c        ****     break;
  84:main.c        **** 
  85:main.c        ****     case U8X8_MSG_BYTE_INIT:
  86:main.c        ****     break;
  87:main.c        **** 
  88:main.c        ****     case U8X8_MSG_BYTE_SET_DC:
  89:main.c        ****     break;
  90:main.c        **** 
  91:main.c        ****     case U8X8_MSG_BYTE_START_TRANSFER:
  92:main.c        ****     (void)I2C_DISPLAY_MasterSendStart(u8x8_GetI2CAddress(u8x8) >> 1,
 144              		.loc 1 92 0
 145 002e 90F82400 		ldrb	r0, [r0, #36]	@ zero_extendqisi2
 146              	.LVL17:
 147 0032 0021     		movs	r1, #0
 148 0034 4008     		lsrs	r0, r0, #1
 149 0036 FFF7FEFF 		bl	I2C_DISPLAY_MasterSendStart
 150              	.LVL18:
 151 003a 01E0     		b	.L17
 152              	.LVL19:
 153              	.L13:
  93:main.c        ****                                       I2C_DISPLAY_WRITE_XFER_MODE);
  94:main.c        ****     break;
  95:main.c        **** 
  96:main.c        ****     case U8X8_MSG_BYTE_END_TRANSFER:
  97:main.c        ****     (void)I2C_DISPLAY_MasterSendStop();
 154              		.loc 1 97 0
 155 003c FFF7FEFF 		bl	I2C_DISPLAY_MasterSendStop
 156              	.LVL20:
 157              	.L17:
  98:main.c        ****     break;
  99:main.c        **** 
 100:main.c        ****     default:
 101:main.c        ****     return 0;
 102:main.c        **** 
 103:main.c        ****   }
 104:main.c        **** 
 105:main.c        ****   return 1;
 158              		.loc 1 105 0
 159 0040 0120     		movs	r0, #1
  98:main.c        ****     break;
 160              		.loc 1 98 0
 161 0042 38BD     		pop	{r3, r4, r5, pc}
 162              	.LVL21:
 163              	.L16:
 101:main.c        **** 
 164              		.loc 1 101 0
 165 0044 0020     		movs	r0, #0
 166              	.LVL22:
 106:main.c        **** 
 107:main.c        **** }
 167              		.loc 1 107 0
 168 0046 38BD     		pop	{r3, r4, r5, pc}
 169              		.cfi_endproc
 170              	.LFE66:
 171              		.size	u8x8_byte_hw_i2c, .-u8x8_byte_hw_i2c
 172              		.section	.text.startup.main,"ax",%progbits
ARM GAS  C:\Users\jesse\AppData\Local\Temp\cc9qRVrE.s 			page 6


 173              		.align	1
 174              		.global	main
 175              		.thumb
 176              		.thumb_func
 177              		.type	main, %function
 178              	main:
 179              	.LFB64:
  11:main.c        **** 
 180              		.loc 1 11 0
 181              		.cfi_startproc
 182              		@ args = 0, pretend = 0, frame = 48
 183              		@ frame_needed = 0, uses_anonymous_args = 0
 184 0000 00B5     		push	{lr}
 185              		.cfi_def_cfa_offset 4
 186              		.cfi_offset 14, -4
 187 0002 8FB0     		sub	sp, sp, #60
 188              		.cfi_def_cfa_offset 64
  15:main.c        ****     
 189              		.loc 1 15 0
 190              		.syntax unified
 191              	@ 15 "main.c" 1
 192 0004 62B6     		CPSIE   i
 193              	@ 0 "" 2
  17:main.c        **** 
 194              		.loc 1 17 0
 195              		.thumb
 196              		.syntax unified
 197 0006 FFF7FEFF 		bl	I2C_DISPLAY_Start
 198              	.LVL23:
  19:main.c        ****     u8x8_byte_hw_i2c, psoc_gpio_and_delay_callback);
 199              		.loc 1 19 0
 200 000a 164B     		ldr	r3, .L19
 201 000c 164A     		ldr	r2, .L19+4
 202 000e 0093     		str	r3, [sp]
 203 0010 1649     		ldr	r1, .L19+8
 204 0012 174B     		ldr	r3, .L19+12
 205 0014 03A8     		add	r0, sp, #12
 206 0016 FFF7FEFF 		bl	u8x8_Setup
 207              	.LVL24:
  22:main.c        ****   u8x8_SetPowerSave(&EM2Display, 0);
 208              		.loc 1 22 0
 209 001a 03A8     		add	r0, sp, #12
 210 001c FFF7FEFF 		bl	u8x8_InitDisplay
 211              	.LVL25:
  23:main.c        ****   u8x8_ClearDisplay(&EM2Display);
 212              		.loc 1 23 0
 213 0020 0021     		movs	r1, #0
 214 0022 03A8     		add	r0, sp, #12
 215 0024 FFF7FEFF 		bl	u8x8_SetPowerSave
 216              	.LVL26:
  24:main.c        ****   u8x8_SetFont(&EM2Display, u8x8_font_amstrad_cpc_extended_f);
 217              		.loc 1 24 0
 218 0028 03A8     		add	r0, sp, #12
 219 002a FFF7FEFF 		bl	u8x8_ClearDisplay
 220              	.LVL27:
  25:main.c        **** 
 221              		.loc 1 25 0
ARM GAS  C:\Users\jesse\AppData\Local\Temp\cc9qRVrE.s 			page 7


 222 002e 03A8     		add	r0, sp, #12
 223 0030 1049     		ldr	r1, .L19+16
 224 0032 FFF7FEFF 		bl	u8x8_SetFont
 225              	.LVL28:
  27:main.c        ****   u8x8_DrawString(&EM2Display, 1, 3, "TI EM2");
 226              		.loc 1 27 0
 227 0036 0122     		movs	r2, #1
 228 0038 1146     		mov	r1, r2
 229 003a 0F4B     		ldr	r3, .L19+20
 230 003c 03A8     		add	r0, sp, #12
 231 003e FFF7FEFF 		bl	u8x8_DrawString
 232              	.LVL29:
  28:main.c        ****   u8x8_DrawString(&EM2Display, 1, 5, "Ready to run." );
 233              		.loc 1 28 0
 234 0042 0E4B     		ldr	r3, .L19+24
 235 0044 0322     		movs	r2, #3
 236 0046 0121     		movs	r1, #1
 237 0048 03A8     		add	r0, sp, #12
 238 004a FFF7FEFF 		bl	u8x8_DrawString
 239              	.LVL30:
  29:main.c        **** 
 240              		.loc 1 29 0
 241 004e 0C4B     		ldr	r3, .L19+28
 242 0050 0522     		movs	r2, #5
 243 0052 0121     		movs	r1, #1
 244 0054 03A8     		add	r0, sp, #12
 245 0056 FFF7FEFF 		bl	u8x8_DrawString
 246              	.LVL31:
  35:main.c        **** 
 247              		.loc 1 35 0
 248 005a 0020     		movs	r0, #0
 249 005c 0FB0     		add	sp, sp, #60
 250              		.cfi_def_cfa_offset 4
 251              		@ sp needed
 252 005e 5DF804FB 		ldr	pc, [sp], #4
 253              	.L20:
 254 0062 00BF     		.align	2
 255              	.L19:
 256 0064 00000000 		.word	psoc_gpio_and_delay_callback
 257 0068 00000000 		.word	u8x8_cad_ssd13xx_i2c
 258 006c 00000000 		.word	u8x8_d_ssd1306_128x64_noname
 259 0070 00000000 		.word	u8x8_byte_hw_i2c
 260 0074 00000000 		.word	u8x8_font_amstrad_cpc_extended_f
 261 0078 00000000 		.word	.LC0
 262 007c 0C000000 		.word	.LC1
 263 0080 13000000 		.word	.LC2
 264              		.cfi_endproc
 265              	.LFE64:
 266              		.size	main, .-main
 267              		.section	.rodata.str1.1,"aMS",%progbits,1
 268              	.LC0:
 269 0000 48764120 		.ascii	"HvA HBO-ICT\000"
 269      48424F2D 
 269      49435400 
 270              	.LC1:
 271 000c 54492045 		.ascii	"TI EM2\000"
 271      4D3200
ARM GAS  C:\Users\jesse\AppData\Local\Temp\cc9qRVrE.s 			page 8


 272              	.LC2:
 273 0013 52656164 		.ascii	"Ready to run.\000"
 273      7920746F 
 273      2072756E 
 273      2E00
 274              		.text
 275              	.Letext0:
 276              		.file 2 "c:\\program files (x86)\\cypress\\psoc creator\\4.4\\psoc creator\\import\\gnu\\arm\\5.4.
 277              		.file 3 "c:\\program files (x86)\\cypress\\psoc creator\\4.4\\psoc creator\\import\\gnu\\arm\\5.4.
 278              		.file 4 "..\\..\\..\\u8g2\\u8g2\\csrc/u8x8.h"
 279              		.file 5 "Generated_Source\\PSoC5/core_cm3.h"
 280              		.file 6 "Generated_Source\\PSoC5/CyLib.h"
 281              		.file 7 "Generated_Source\\PSoC5/I2C_DISPLAY.h"