ARM GAS  C:\Users\jesse\AppData\Local\Temp\ccejHIO6.s 			page 1


   1              		.syntax unified
   2              		.cpu cortex-m3
   3              		.fpu softvfp
   4              		.eabi_attribute 20, 1
   5              		.eabi_attribute 21, 1
   6              		.eabi_attribute 23, 3
   7              		.eabi_attribute 24, 1
   8              		.eabi_attribute 25, 1
   9              		.eabi_attribute 26, 1
  10              		.eabi_attribute 30, 4
  11              		.eabi_attribute 34, 1
  12              		.eabi_attribute 18, 4
  13              		.thumb
  14              		.syntax unified
  15              		.file	"u8g2_ll_hvline.c"
  16              		.text
  17              	.Ltext0:
  18              		.cfi_sections	.debug_frame
  19              		.section	.text.u8g2_ll_hvline_vertical_top_lsb,"ax",%progbits
  20              		.align	1
  21              		.global	u8g2_ll_hvline_vertical_top_lsb
  22              		.thumb
  23              		.thumb_func
  24              		.type	u8g2_ll_hvline_vertical_top_lsb, %function
  25              	u8g2_ll_hvline_vertical_top_lsb:
  26              	.LFB0:
  27              		.file 1 "..\\..\\..\\u8g2\\u8g2\\csrc\\u8g2_ll_hvline.c"
   1:..\..\..\u8g2\u8g2\csrc/u8g2_ll_hvline.c **** /*
   2:..\..\..\u8g2\u8g2\csrc/u8g2_ll_hvline.c **** 
   3:..\..\..\u8g2\u8g2\csrc/u8g2_ll_hvline.c ****   u8g2_ll_hvline.c
   4:..\..\..\u8g2\u8g2\csrc/u8g2_ll_hvline.c ****   
   5:..\..\..\u8g2\u8g2\csrc/u8g2_ll_hvline.c ****   low level hvline
   6:..\..\..\u8g2\u8g2\csrc/u8g2_ll_hvline.c **** 
   7:..\..\..\u8g2\u8g2\csrc/u8g2_ll_hvline.c ****   Universal 8bit Graphics Library (https://github.com/olikraus/u8g2/)
   8:..\..\..\u8g2\u8g2\csrc/u8g2_ll_hvline.c **** 
   9:..\..\..\u8g2\u8g2\csrc/u8g2_ll_hvline.c ****   Copyright (c) 2016, olikraus@gmail.com
  10:..\..\..\u8g2\u8g2\csrc/u8g2_ll_hvline.c ****   All rights reserved.
  11:..\..\..\u8g2\u8g2\csrc/u8g2_ll_hvline.c **** 
  12:..\..\..\u8g2\u8g2\csrc/u8g2_ll_hvline.c ****   Redistribution and use in source and binary forms, with or without modification, 
  13:..\..\..\u8g2\u8g2\csrc/u8g2_ll_hvline.c ****   are permitted provided that the following conditions are met:
  14:..\..\..\u8g2\u8g2\csrc/u8g2_ll_hvline.c **** 
  15:..\..\..\u8g2\u8g2\csrc/u8g2_ll_hvline.c ****   * Redistributions of source code must retain the above copyright notice, this list 
  16:..\..\..\u8g2\u8g2\csrc/u8g2_ll_hvline.c ****     of conditions and the following disclaimer.
  17:..\..\..\u8g2\u8g2\csrc/u8g2_ll_hvline.c ****     
  18:..\..\..\u8g2\u8g2\csrc/u8g2_ll_hvline.c ****   * Redistributions in binary form must reproduce the above copyright notice, this 
  19:..\..\..\u8g2\u8g2\csrc/u8g2_ll_hvline.c ****     list of conditions and the following disclaimer in the documentation and/or other 
  20:..\..\..\u8g2\u8g2\csrc/u8g2_ll_hvline.c ****     materials provided with the distribution.
  21:..\..\..\u8g2\u8g2\csrc/u8g2_ll_hvline.c **** 
  22:..\..\..\u8g2\u8g2\csrc/u8g2_ll_hvline.c ****   THIS SOFTWARE IS PROVIDED BY THE COPYRIGHT HOLDERS AND 
  23:..\..\..\u8g2\u8g2\csrc/u8g2_ll_hvline.c ****   CONTRIBUTORS "AS IS" AND ANY EXPRESS OR IMPLIED WARRANTIES, 
  24:..\..\..\u8g2\u8g2\csrc/u8g2_ll_hvline.c ****   INCLUDING, BUT NOT LIMITED TO, THE IMPLIED WARRANTIES OF 
  25:..\..\..\u8g2\u8g2\csrc/u8g2_ll_hvline.c ****   MERCHANTABILITY AND FITNESS FOR A PARTICULAR PURPOSE ARE 
  26:..\..\..\u8g2\u8g2\csrc/u8g2_ll_hvline.c ****   DISCLAIMED. IN NO EVENT SHALL THE COPYRIGHT HOLDER OR 
  27:..\..\..\u8g2\u8g2\csrc/u8g2_ll_hvline.c ****   CONTRIBUTORS BE LIABLE FOR ANY DIRECT, INDIRECT, INCIDENTAL, 
  28:..\..\..\u8g2\u8g2\csrc/u8g2_ll_hvline.c ****   SPECIAL, EXEMPLARY, OR CONSEQUENTIAL DAMAGES (INCLUDING, BUT 
  29:..\..\..\u8g2\u8g2\csrc/u8g2_ll_hvline.c ****   NOT LIMITED TO, PROCUREMENT OF SUBSTITUTE GOODS OR SERVICES; 
  30:..\..\..\u8g2\u8g2\csrc/u8g2_ll_hvline.c ****   LOSS OF USE, DATA, OR PROFITS; OR BUSINESS INTERRUPTION) HOWEVER 
ARM GAS  C:\Users\jesse\AppData\Local\Temp\ccejHIO6.s 			page 2


  31:..\..\..\u8g2\u8g2\csrc/u8g2_ll_hvline.c ****   CAUSED AND ON ANY THEORY OF LIABILITY, WHETHER IN CONTRACT, 
  32:..\..\..\u8g2\u8g2\csrc/u8g2_ll_hvline.c ****   STRICT LIABILITY, OR TORT (INCLUDING NEGLIGENCE OR OTHERWISE) 
  33:..\..\..\u8g2\u8g2\csrc/u8g2_ll_hvline.c ****   ARISING IN ANY WAY OUT OF THE USE OF THIS SOFTWARE, EVEN IF 
  34:..\..\..\u8g2\u8g2\csrc/u8g2_ll_hvline.c ****   ADVISED OF THE POSSIBILITY OF SUCH DAMAGE.  
  35:..\..\..\u8g2\u8g2\csrc/u8g2_ll_hvline.c **** 
  36:..\..\..\u8g2\u8g2\csrc/u8g2_ll_hvline.c **** 
  37:..\..\..\u8g2\u8g2\csrc/u8g2_ll_hvline.c ****   *ptr |= or_mask
  38:..\..\..\u8g2\u8g2\csrc/u8g2_ll_hvline.c ****   *ptr ^= xor_mask
  39:..\..\..\u8g2\u8g2\csrc/u8g2_ll_hvline.c ****   
  40:..\..\..\u8g2\u8g2\csrc/u8g2_ll_hvline.c ****   color = 0:   or_mask = 1, xor_mask = 1
  41:..\..\..\u8g2\u8g2\csrc/u8g2_ll_hvline.c ****   color = 1:   or_mask = 1, xor_mask = 0
  42:..\..\..\u8g2\u8g2\csrc/u8g2_ll_hvline.c ****   color = 2:   or_mask = 0, xor_mask = 1
  43:..\..\..\u8g2\u8g2\csrc/u8g2_ll_hvline.c **** 
  44:..\..\..\u8g2\u8g2\csrc/u8g2_ll_hvline.c ****   if ( color <= 1 )
  45:..\..\..\u8g2\u8g2\csrc/u8g2_ll_hvline.c ****     or_mask  = mask;
  46:..\..\..\u8g2\u8g2\csrc/u8g2_ll_hvline.c ****   if ( color != 1 )
  47:..\..\..\u8g2\u8g2\csrc/u8g2_ll_hvline.c ****     xor_mask = mask;
  48:..\..\..\u8g2\u8g2\csrc/u8g2_ll_hvline.c ****     
  49:..\..\..\u8g2\u8g2\csrc/u8g2_ll_hvline.c **** */
  50:..\..\..\u8g2\u8g2\csrc/u8g2_ll_hvline.c **** 
  51:..\..\..\u8g2\u8g2\csrc/u8g2_ll_hvline.c **** #include "u8g2.h"
  52:..\..\..\u8g2\u8g2\csrc/u8g2_ll_hvline.c **** #include <assert.h>
  53:..\..\..\u8g2\u8g2\csrc/u8g2_ll_hvline.c **** 
  54:..\..\..\u8g2\u8g2\csrc/u8g2_ll_hvline.c **** /*=================================================*/
  55:..\..\..\u8g2\u8g2\csrc/u8g2_ll_hvline.c **** /*
  56:..\..\..\u8g2\u8g2\csrc/u8g2_ll_hvline.c ****   u8g2_ll_hvline_vertical_top_lsb
  57:..\..\..\u8g2\u8g2\csrc/u8g2_ll_hvline.c ****     SSD13xx
  58:..\..\..\u8g2\u8g2\csrc/u8g2_ll_hvline.c ****     UC1701    
  59:..\..\..\u8g2\u8g2\csrc/u8g2_ll_hvline.c **** */
  60:..\..\..\u8g2\u8g2\csrc/u8g2_ll_hvline.c **** 
  61:..\..\..\u8g2\u8g2\csrc/u8g2_ll_hvline.c **** 
  62:..\..\..\u8g2\u8g2\csrc/u8g2_ll_hvline.c **** #ifdef U8G2_WITH_HVLINE_SPEED_OPTIMIZATION
  63:..\..\..\u8g2\u8g2\csrc/u8g2_ll_hvline.c **** 
  64:..\..\..\u8g2\u8g2\csrc/u8g2_ll_hvline.c **** /*
  65:..\..\..\u8g2\u8g2\csrc/u8g2_ll_hvline.c ****   x,y		Upper left position of the line within the local buffer (not the display!)
  66:..\..\..\u8g2\u8g2\csrc/u8g2_ll_hvline.c ****   len		length of the line in pixel, len must not be 0
  67:..\..\..\u8g2\u8g2\csrc/u8g2_ll_hvline.c ****   dir		0: horizontal line (left to right)
  68:..\..\..\u8g2\u8g2\csrc/u8g2_ll_hvline.c **** 		1: vertical line (top to bottom)
  69:..\..\..\u8g2\u8g2\csrc/u8g2_ll_hvline.c ****   asumption: 
  70:..\..\..\u8g2\u8g2\csrc/u8g2_ll_hvline.c ****     all clipping done
  71:..\..\..\u8g2\u8g2\csrc/u8g2_ll_hvline.c **** */
  72:..\..\..\u8g2\u8g2\csrc/u8g2_ll_hvline.c **** void u8g2_ll_hvline_vertical_top_lsb(u8g2_t *u8g2, u8g2_uint_t x, u8g2_uint_t y, u8g2_uint_t len, u
  73:..\..\..\u8g2\u8g2\csrc/u8g2_ll_hvline.c **** {
  28              		.loc 1 73 0
  29              		.cfi_startproc
  30              		@ args = 4, pretend = 0, frame = 0
  31              		@ frame_needed = 0, uses_anonymous_args = 0
  32              	.LVL0:
  33 0000 F0B5     		push	{r4, r5, r6, r7, lr}
  34              		.cfi_def_cfa_offset 20
  35              		.cfi_offset 4, -20
  36              		.cfi_offset 5, -16
  37              		.cfi_offset 6, -12
  38              		.cfi_offset 7, -8
  39              		.cfi_offset 14, -4
  74:..\..\..\u8g2\u8g2\csrc/u8g2_ll_hvline.c ****   uint16_t offset;
  75:..\..\..\u8g2\u8g2\csrc/u8g2_ll_hvline.c ****   uint8_t *ptr;
ARM GAS  C:\Users\jesse\AppData\Local\Temp\ccejHIO6.s 			page 3


  76:..\..\..\u8g2\u8g2\csrc/u8g2_ll_hvline.c ****   uint8_t bit_pos, mask;
  77:..\..\..\u8g2\u8g2\csrc/u8g2_ll_hvline.c ****   uint8_t or_mask, xor_mask;
  78:..\..\..\u8g2\u8g2\csrc/u8g2_ll_hvline.c **** #ifdef __unix
  79:..\..\..\u8g2\u8g2\csrc/u8g2_ll_hvline.c ****   uint8_t *max_ptr = u8g2->tile_buf_ptr + u8g2_GetU8x8(u8g2)->display_info->tile_width*u8g2->tile_b
  80:..\..\..\u8g2\u8g2\csrc/u8g2_ll_hvline.c **** #endif
  81:..\..\..\u8g2\u8g2\csrc/u8g2_ll_hvline.c **** 
  82:..\..\..\u8g2\u8g2\csrc/u8g2_ll_hvline.c ****   //assert(x >= u8g2->buf_x0);
  83:..\..\..\u8g2\u8g2\csrc/u8g2_ll_hvline.c ****   //assert(x < u8g2_GetU8x8(u8g2)->display_info->tile_width*8);
  84:..\..\..\u8g2\u8g2\csrc/u8g2_ll_hvline.c ****   //assert(y >= u8g2->buf_y0);
  85:..\..\..\u8g2\u8g2\csrc/u8g2_ll_hvline.c ****   //assert(y < u8g2_GetU8x8(u8g2)->display_info->tile_height*8);
  86:..\..\..\u8g2\u8g2\csrc/u8g2_ll_hvline.c ****   
  87:..\..\..\u8g2\u8g2\csrc/u8g2_ll_hvline.c ****   /* bytes are vertical, lsb on top (y=0), msb at bottom (y=7) */
  88:..\..\..\u8g2\u8g2\csrc/u8g2_ll_hvline.c ****   bit_pos = y;		/* overflow truncate is ok here... */
  89:..\..\..\u8g2\u8g2\csrc/u8g2_ll_hvline.c ****   bit_pos &= 7; 	/* ... because only the lowest 3 bits are needed */
  90:..\..\..\u8g2\u8g2\csrc/u8g2_ll_hvline.c ****   mask = 1;
  91:..\..\..\u8g2\u8g2\csrc/u8g2_ll_hvline.c ****   mask <<= bit_pos;
  92:..\..\..\u8g2\u8g2\csrc/u8g2_ll_hvline.c **** 
  93:..\..\..\u8g2\u8g2\csrc/u8g2_ll_hvline.c ****   or_mask = 0;
  94:..\..\..\u8g2\u8g2\csrc/u8g2_ll_hvline.c ****   xor_mask = 0;
  95:..\..\..\u8g2\u8g2\csrc/u8g2_ll_hvline.c ****   if ( u8g2->draw_color <= 1 )
  40              		.loc 1 95 0
  41 0002 90F89250 		ldrb	r5, [r0, #146]	@ zero_extendqisi2
  89:..\..\..\u8g2\u8g2\csrc/u8g2_ll_hvline.c ****   mask = 1;
  42              		.loc 1 89 0
  43 0006 02F00706 		and	r6, r2, #7
  44              	.LVL1:
  91:..\..\..\u8g2\u8g2\csrc/u8g2_ll_hvline.c **** 
  45              		.loc 1 91 0
  46 000a 0124     		movs	r4, #1
  47 000c B440     		lsls	r4, r4, r6
  48              		.loc 1 95 0
  49 000e 012D     		cmp	r5, #1
  73:..\..\..\u8g2\u8g2\csrc/u8g2_ll_hvline.c ****   uint16_t offset;
  50              		.loc 1 73 0
  51 0010 9DF81470 		ldrb	r7, [sp, #20]	@ zero_extendqisi2
  91:..\..\..\u8g2\u8g2\csrc/u8g2_ll_hvline.c **** 
  52              		.loc 1 91 0
  53 0014 E4B2     		uxtb	r4, r4
  54              	.LVL2:
  55              		.loc 1 95 0
  56 0016 03D8     		bhi	.L9
  57              	.LVL3:
  96:..\..\..\u8g2\u8g2\csrc/u8g2_ll_hvline.c ****     or_mask  = mask;
  58              		.loc 1 96 0
  59 0018 2546     		mov	r5, r4
  97:..\..\..\u8g2\u8g2\csrc/u8g2_ll_hvline.c ****   if ( u8g2->draw_color != 1 )
  60              		.loc 1 97 0
  61 001a 02D1     		bne	.L2
  94:..\..\..\u8g2\u8g2\csrc/u8g2_ll_hvline.c ****   if ( u8g2->draw_color <= 1 )
  62              		.loc 1 94 0
  63 001c 0024     		movs	r4, #0
  64              	.LVL4:
  65 001e 00E0     		b	.L2
  66              	.LVL5:
  67              	.L9:
  93:..\..\..\u8g2\u8g2\csrc/u8g2_ll_hvline.c ****   xor_mask = 0;
  68              		.loc 1 93 0
ARM GAS  C:\Users\jesse\AppData\Local\Temp\ccejHIO6.s 			page 4


  69 0020 0025     		movs	r5, #0
  70              	.LVL6:
  71              	.L2:
  98:..\..\..\u8g2\u8g2\csrc/u8g2_ll_hvline.c ****     xor_mask = mask;
  99:..\..\..\u8g2\u8g2\csrc/u8g2_ll_hvline.c **** 
 100:..\..\..\u8g2\u8g2\csrc/u8g2_ll_hvline.c **** 
 101:..\..\..\u8g2\u8g2\csrc/u8g2_ll_hvline.c ****   offset = y;		/* y might be 8 or 16 bit, but we need 16 bit, so use a 16 bit variable */
 102:..\..\..\u8g2\u8g2\csrc/u8g2_ll_hvline.c ****   offset &= ~7;
  72              		.loc 1 102 0
  73 0022 22F0070C 		bic	ip, r2, #7
  74              	.LVL7:
 103:..\..\..\u8g2\u8g2\csrc/u8g2_ll_hvline.c ****   offset *= u8g2_GetU8x8(u8g2)->display_info->tile_width;
 104:..\..\..\u8g2\u8g2\csrc/u8g2_ll_hvline.c ****   ptr = u8g2->tile_buf_ptr;
 105:..\..\..\u8g2\u8g2\csrc/u8g2_ll_hvline.c ****   ptr += offset;
 106:..\..\..\u8g2\u8g2\csrc/u8g2_ll_hvline.c ****   ptr += x;
  75              		.loc 1 106 0
  76 0026 0268     		ldr	r2, [r0]
  77              	.LVL8:
  78 0028 92F810E0 		ldrb	lr, [r2, #16]	@ zero_extendqisi2
  79 002c 0EFB0CF2 		mul	r2, lr, ip
  80 0030 92B2     		uxth	r2, r2
  81 0032 1144     		add	r1, r1, r2
  82              	.LVL9:
  83 0034 426B     		ldr	r2, [r0, #52]
  84 0036 1144     		add	r1, r1, r2
  85              	.LVL10:
 107:..\..\..\u8g2\u8g2\csrc/u8g2_ll_hvline.c ****   
 108:..\..\..\u8g2\u8g2\csrc/u8g2_ll_hvline.c ****   if ( dir == 0 )
  86              		.loc 1 108 0
  87 0038 5FB9     		cbnz	r7, .L7
  88 003a 013B     		subs	r3, r3, #1
  89              	.LVL11:
  90 003c 9BB2     		uxth	r3, r3
  91 003e 0133     		adds	r3, r3, #1
  92 0040 0B44     		add	r3, r3, r1
  93              	.LVL12:
  94              	.L4:
 109:..\..\..\u8g2\u8g2\csrc/u8g2_ll_hvline.c ****   {
 110:..\..\..\u8g2\u8g2\csrc/u8g2_ll_hvline.c ****       do
 111:..\..\..\u8g2\u8g2\csrc/u8g2_ll_hvline.c ****       {
 112:..\..\..\u8g2\u8g2\csrc/u8g2_ll_hvline.c **** #ifdef __unix
 113:..\..\..\u8g2\u8g2\csrc/u8g2_ll_hvline.c **** 	assert(ptr < max_ptr);
 114:..\..\..\u8g2\u8g2\csrc/u8g2_ll_hvline.c **** #endif
 115:..\..\..\u8g2\u8g2\csrc/u8g2_ll_hvline.c **** 	*ptr |= or_mask;
 116:..\..\..\u8g2\u8g2\csrc/u8g2_ll_hvline.c **** 	*ptr ^= xor_mask;
  95              		.loc 1 116 0 discriminator 1
  96 0042 0A78     		ldrb	r2, [r1]	@ zero_extendqisi2
  97 0044 2A43     		orrs	r2, r2, r5
  98 0046 6240     		eors	r2, r2, r4
  99 0048 01F8012B 		strb	r2, [r1], #1
 100              	.LVL13:
 117:..\..\..\u8g2\u8g2\csrc/u8g2_ll_hvline.c **** 	ptr++;
 118:..\..\..\u8g2\u8g2\csrc/u8g2_ll_hvline.c **** 	len--;
 119:..\..\..\u8g2\u8g2\csrc/u8g2_ll_hvline.c ****       } while( len != 0 );
 101              		.loc 1 119 0 discriminator 1
 102 004c 8B42     		cmp	r3, r1
 103 004e F8D1     		bne	.L4
ARM GAS  C:\Users\jesse\AppData\Local\Temp\ccejHIO6.s 			page 5


 104 0050 F0BD     		pop	{r4, r5, r6, r7, pc}
 105              	.LVL14:
 106              	.L7:
 120:..\..\..\u8g2\u8g2\csrc/u8g2_ll_hvline.c ****   }
 121:..\..\..\u8g2\u8g2\csrc/u8g2_ll_hvline.c ****   else
 122:..\..\..\u8g2\u8g2\csrc/u8g2_ll_hvline.c ****   {    
 123:..\..\..\u8g2\u8g2\csrc/u8g2_ll_hvline.c ****     do
 124:..\..\..\u8g2\u8g2\csrc/u8g2_ll_hvline.c ****     {
 125:..\..\..\u8g2\u8g2\csrc/u8g2_ll_hvline.c **** #ifdef __unix
 126:..\..\..\u8g2\u8g2\csrc/u8g2_ll_hvline.c ****       assert(ptr < max_ptr);
 127:..\..\..\u8g2\u8g2\csrc/u8g2_ll_hvline.c **** #endif
 128:..\..\..\u8g2\u8g2\csrc/u8g2_ll_hvline.c ****       *ptr |= or_mask;
 129:..\..\..\u8g2\u8g2\csrc/u8g2_ll_hvline.c ****       *ptr ^= xor_mask;
 107              		.loc 1 129 0
 108 0052 0A78     		ldrb	r2, [r1]	@ zero_extendqisi2
 130:..\..\..\u8g2\u8g2\csrc/u8g2_ll_hvline.c ****       
 131:..\..\..\u8g2\u8g2\csrc/u8g2_ll_hvline.c ****       bit_pos++;
 109              		.loc 1 131 0
 110 0054 0136     		adds	r6, r6, #1
 111              	.LVL15:
 129:..\..\..\u8g2\u8g2\csrc/u8g2_ll_hvline.c ****       
 112              		.loc 1 129 0
 113 0056 2A43     		orrs	r2, r2, r5
 114 0058 6240     		eors	r2, r2, r4
 132:..\..\..\u8g2\u8g2\csrc/u8g2_ll_hvline.c ****       bit_pos &= 7;
 133:..\..\..\u8g2\u8g2\csrc/u8g2_ll_hvline.c **** 
 134:..\..\..\u8g2\u8g2\csrc/u8g2_ll_hvline.c ****       len--;
 115              		.loc 1 134 0
 116 005a 013B     		subs	r3, r3, #1
 117              	.LVL16:
 135:..\..\..\u8g2\u8g2\csrc/u8g2_ll_hvline.c **** 
 136:..\..\..\u8g2\u8g2\csrc/u8g2_ll_hvline.c ****       if ( bit_pos == 0 )
 118              		.loc 1 136 0
 119 005c 16F00706 		ands	r6, r6, #7
 120              	.LVL17:
 129:..\..\..\u8g2\u8g2\csrc/u8g2_ll_hvline.c ****       
 121              		.loc 1 129 0
 122 0060 0A70     		strb	r2, [r1]
 134:..\..\..\u8g2\u8g2\csrc/u8g2_ll_hvline.c **** 
 123              		.loc 1 134 0
 124 0062 9BB2     		uxth	r3, r3
 125              		.loc 1 136 0
 126 0064 09D1     		bne	.L5
 137:..\..\..\u8g2\u8g2\csrc/u8g2_ll_hvline.c ****       {
 138:..\..\..\u8g2\u8g2\csrc/u8g2_ll_hvline.c **** 	ptr+=u8g2->pixel_buf_width;	/* 6 Jan 17: Changed u8g2->width to u8g2->pixel_buf_width, issue #148 
 127              		.loc 1 138 0
 128 0066 428F     		ldrh	r2, [r0, #58]
 129 0068 1144     		add	r1, r1, r2
 130              	.LVL18:
 139:..\..\..\u8g2\u8g2\csrc/u8g2_ll_hvline.c **** 		
 140:..\..\..\u8g2\u8g2\csrc/u8g2_ll_hvline.c **** 	if ( u8g2->draw_color <= 1 )
 131              		.loc 1 140 0
 132 006a 90F89220 		ldrb	r2, [r0, #146]	@ zero_extendqisi2
 133 006e 012A     		cmp	r2, #1
 134 0070 08D8     		bhi	.L11
 135              	.LVL19:
 141:..\..\..\u8g2\u8g2\csrc/u8g2_ll_hvline.c **** 	  or_mask  = 1;
ARM GAS  C:\Users\jesse\AppData\Local\Temp\ccejHIO6.s 			page 6


 142:..\..\..\u8g2\u8g2\csrc/u8g2_ll_hvline.c **** 	if ( u8g2->draw_color != 1 )
 136              		.loc 1 142 0
 137 0072 09D0     		beq	.L12
 143:..\..\..\u8g2\u8g2\csrc/u8g2_ll_hvline.c **** 	  xor_mask = 1;
 138              		.loc 1 143 0
 139 0074 0124     		movs	r4, #1
 140              	.LVL20:
 141:..\..\..\u8g2\u8g2\csrc/u8g2_ll_hvline.c **** 	  or_mask  = 1;
 141              		.loc 1 141 0
 142 0076 2546     		mov	r5, r4
 143 0078 07E0     		b	.L6
 144              	.LVL21:
 145              	.L5:
 144:..\..\..\u8g2\u8g2\csrc/u8g2_ll_hvline.c ****       }
 145:..\..\..\u8g2\u8g2\csrc/u8g2_ll_hvline.c ****       else
 146:..\..\..\u8g2\u8g2\csrc/u8g2_ll_hvline.c ****       {
 147:..\..\..\u8g2\u8g2\csrc/u8g2_ll_hvline.c **** 	or_mask <<= 1;
 146              		.loc 1 147 0
 147 007a 6D00     		lsls	r5, r5, #1
 148              	.LVL22:
 148:..\..\..\u8g2\u8g2\csrc/u8g2_ll_hvline.c **** 	xor_mask <<= 1;
 149              		.loc 1 148 0
 150 007c 6400     		lsls	r4, r4, #1
 151              	.LVL23:
 147:..\..\..\u8g2\u8g2\csrc/u8g2_ll_hvline.c **** 	xor_mask <<= 1;
 152              		.loc 1 147 0
 153 007e EDB2     		uxtb	r5, r5
 154              	.LVL24:
 155              		.loc 1 148 0
 156 0080 E4B2     		uxtb	r4, r4
 157              	.LVL25:
 158 0082 02E0     		b	.L6
 159              	.L11:
 143:..\..\..\u8g2\u8g2\csrc/u8g2_ll_hvline.c ****       }
 160              		.loc 1 143 0
 161 0084 0124     		movs	r4, #1
 162              	.LVL26:
 163 0086 00E0     		b	.L6
 164              	.LVL27:
 165              	.L12:
 141:..\..\..\u8g2\u8g2\csrc/u8g2_ll_hvline.c **** 	if ( u8g2->draw_color != 1 )
 166              		.loc 1 141 0
 167 0088 1546     		mov	r5, r2
 168              	.LVL28:
 169              	.L6:
 149:..\..\..\u8g2\u8g2\csrc/u8g2_ll_hvline.c ****       }
 150:..\..\..\u8g2\u8g2\csrc/u8g2_ll_hvline.c ****     } while( len != 0 );
 170              		.loc 1 150 0
 171 008a 002B     		cmp	r3, #0
 172 008c E1D1     		bne	.L7
 173 008e F0BD     		pop	{r4, r5, r6, r7, pc}
 174              		.cfi_endproc
 175              	.LFE0:
 176              		.size	u8g2_ll_hvline_vertical_top_lsb, .-u8g2_ll_hvline_vertical_top_lsb
 177              		.section	.text.u8g2_ll_hvline_horizontal_right_lsb,"ax",%progbits
 178              		.align	1
 179              		.global	u8g2_ll_hvline_horizontal_right_lsb
ARM GAS  C:\Users\jesse\AppData\Local\Temp\ccejHIO6.s 			page 7


 180              		.thumb
 181              		.thumb_func
 182              		.type	u8g2_ll_hvline_horizontal_right_lsb, %function
 183              	u8g2_ll_hvline_horizontal_right_lsb:
 184              	.LFB1:
 151:..\..\..\u8g2\u8g2\csrc/u8g2_ll_hvline.c ****   }
 152:..\..\..\u8g2\u8g2\csrc/u8g2_ll_hvline.c **** }
 153:..\..\..\u8g2\u8g2\csrc/u8g2_ll_hvline.c **** 
 154:..\..\..\u8g2\u8g2\csrc/u8g2_ll_hvline.c **** 
 155:..\..\..\u8g2\u8g2\csrc/u8g2_ll_hvline.c **** 
 156:..\..\..\u8g2\u8g2\csrc/u8g2_ll_hvline.c **** #else /* U8G2_WITH_HVLINE_SPEED_OPTIMIZATION */
 157:..\..\..\u8g2\u8g2\csrc/u8g2_ll_hvline.c **** 
 158:..\..\..\u8g2\u8g2\csrc/u8g2_ll_hvline.c **** /*
 159:..\..\..\u8g2\u8g2\csrc/u8g2_ll_hvline.c ****   x,y position within the buffer
 160:..\..\..\u8g2\u8g2\csrc/u8g2_ll_hvline.c **** */
 161:..\..\..\u8g2\u8g2\csrc/u8g2_ll_hvline.c **** static void u8g2_draw_pixel_vertical_top_lsb(u8g2_t *u8g2, u8g2_uint_t x, u8g2_uint_t y)
 162:..\..\..\u8g2\u8g2\csrc/u8g2_ll_hvline.c **** {
 163:..\..\..\u8g2\u8g2\csrc/u8g2_ll_hvline.c ****   uint16_t offset;
 164:..\..\..\u8g2\u8g2\csrc/u8g2_ll_hvline.c ****   uint8_t *ptr;
 165:..\..\..\u8g2\u8g2\csrc/u8g2_ll_hvline.c ****   uint8_t bit_pos, mask;
 166:..\..\..\u8g2\u8g2\csrc/u8g2_ll_hvline.c ****   
 167:..\..\..\u8g2\u8g2\csrc/u8g2_ll_hvline.c ****   //assert(x >= u8g2->buf_x0);
 168:..\..\..\u8g2\u8g2\csrc/u8g2_ll_hvline.c ****   //assert(x < u8g2_GetU8x8(u8g2)->display_info->tile_width*8);
 169:..\..\..\u8g2\u8g2\csrc/u8g2_ll_hvline.c ****   //assert(y >= u8g2->buf_y0);
 170:..\..\..\u8g2\u8g2\csrc/u8g2_ll_hvline.c ****   //assert(y < u8g2_GetU8x8(u8g2)->display_info->tile_height*8);
 171:..\..\..\u8g2\u8g2\csrc/u8g2_ll_hvline.c ****   
 172:..\..\..\u8g2\u8g2\csrc/u8g2_ll_hvline.c ****   /* bytes are vertical, lsb on top (y=0), msb at bottom (y=7) */
 173:..\..\..\u8g2\u8g2\csrc/u8g2_ll_hvline.c ****   bit_pos = y;		/* overflow truncate is ok here... */
 174:..\..\..\u8g2\u8g2\csrc/u8g2_ll_hvline.c ****   bit_pos &= 7; 	/* ... because only the lowest 3 bits are needed */
 175:..\..\..\u8g2\u8g2\csrc/u8g2_ll_hvline.c ****   mask = 1;
 176:..\..\..\u8g2\u8g2\csrc/u8g2_ll_hvline.c ****   mask <<= bit_pos;
 177:..\..\..\u8g2\u8g2\csrc/u8g2_ll_hvline.c **** 
 178:..\..\..\u8g2\u8g2\csrc/u8g2_ll_hvline.c ****   offset = y;		/* y might be 8 or 16 bit, but we need 16 bit, so use a 16 bit variable */
 179:..\..\..\u8g2\u8g2\csrc/u8g2_ll_hvline.c ****   offset &= ~7;
 180:..\..\..\u8g2\u8g2\csrc/u8g2_ll_hvline.c ****   offset *= u8g2_GetU8x8(u8g2)->display_info->tile_width;
 181:..\..\..\u8g2\u8g2\csrc/u8g2_ll_hvline.c ****   ptr = u8g2->tile_buf_ptr;
 182:..\..\..\u8g2\u8g2\csrc/u8g2_ll_hvline.c ****   ptr += offset;
 183:..\..\..\u8g2\u8g2\csrc/u8g2_ll_hvline.c ****   ptr += x;
 184:..\..\..\u8g2\u8g2\csrc/u8g2_ll_hvline.c **** 
 185:..\..\..\u8g2\u8g2\csrc/u8g2_ll_hvline.c **** 
 186:..\..\..\u8g2\u8g2\csrc/u8g2_ll_hvline.c ****   if ( u8g2->draw_color <= 1 )
 187:..\..\..\u8g2\u8g2\csrc/u8g2_ll_hvline.c ****     *ptr |= mask;
 188:..\..\..\u8g2\u8g2\csrc/u8g2_ll_hvline.c ****   if ( u8g2->draw_color != 1 )
 189:..\..\..\u8g2\u8g2\csrc/u8g2_ll_hvline.c ****     *ptr ^= mask;
 190:..\..\..\u8g2\u8g2\csrc/u8g2_ll_hvline.c **** 
 191:..\..\..\u8g2\u8g2\csrc/u8g2_ll_hvline.c **** }
 192:..\..\..\u8g2\u8g2\csrc/u8g2_ll_hvline.c **** 
 193:..\..\..\u8g2\u8g2\csrc/u8g2_ll_hvline.c **** /*
 194:..\..\..\u8g2\u8g2\csrc/u8g2_ll_hvline.c ****   x,y		Upper left position of the line within the local buffer (not the display!)
 195:..\..\..\u8g2\u8g2\csrc/u8g2_ll_hvline.c ****   len		length of the line in pixel, len must not be 0
 196:..\..\..\u8g2\u8g2\csrc/u8g2_ll_hvline.c ****   dir		0: horizontal line (left to right)
 197:..\..\..\u8g2\u8g2\csrc/u8g2_ll_hvline.c **** 		1: vertical line (top to bottom)
 198:..\..\..\u8g2\u8g2\csrc/u8g2_ll_hvline.c ****   asumption: 
 199:..\..\..\u8g2\u8g2\csrc/u8g2_ll_hvline.c ****     all clipping done
 200:..\..\..\u8g2\u8g2\csrc/u8g2_ll_hvline.c **** */
 201:..\..\..\u8g2\u8g2\csrc/u8g2_ll_hvline.c **** void u8g2_ll_hvline_vertical_top_lsb(u8g2_t *u8g2, u8g2_uint_t x, u8g2_uint_t y, u8g2_uint_t len, u
 202:..\..\..\u8g2\u8g2\csrc/u8g2_ll_hvline.c **** {
ARM GAS  C:\Users\jesse\AppData\Local\Temp\ccejHIO6.s 			page 8


 203:..\..\..\u8g2\u8g2\csrc/u8g2_ll_hvline.c ****   if ( dir == 0 )
 204:..\..\..\u8g2\u8g2\csrc/u8g2_ll_hvline.c ****   {
 205:..\..\..\u8g2\u8g2\csrc/u8g2_ll_hvline.c ****     do
 206:..\..\..\u8g2\u8g2\csrc/u8g2_ll_hvline.c ****     {
 207:..\..\..\u8g2\u8g2\csrc/u8g2_ll_hvline.c ****       u8g2_draw_pixel_vertical_top_lsb(u8g2, x, y);
 208:..\..\..\u8g2\u8g2\csrc/u8g2_ll_hvline.c ****       x++;
 209:..\..\..\u8g2\u8g2\csrc/u8g2_ll_hvline.c ****       len--;
 210:..\..\..\u8g2\u8g2\csrc/u8g2_ll_hvline.c ****     } while( len != 0 );
 211:..\..\..\u8g2\u8g2\csrc/u8g2_ll_hvline.c ****   }
 212:..\..\..\u8g2\u8g2\csrc/u8g2_ll_hvline.c ****   else
 213:..\..\..\u8g2\u8g2\csrc/u8g2_ll_hvline.c ****   {
 214:..\..\..\u8g2\u8g2\csrc/u8g2_ll_hvline.c ****     do
 215:..\..\..\u8g2\u8g2\csrc/u8g2_ll_hvline.c ****     {
 216:..\..\..\u8g2\u8g2\csrc/u8g2_ll_hvline.c ****       u8g2_draw_pixel_vertical_top_lsb(u8g2, x, y);
 217:..\..\..\u8g2\u8g2\csrc/u8g2_ll_hvline.c ****       y++;
 218:..\..\..\u8g2\u8g2\csrc/u8g2_ll_hvline.c ****       len--;
 219:..\..\..\u8g2\u8g2\csrc/u8g2_ll_hvline.c ****     } while( len != 0 );
 220:..\..\..\u8g2\u8g2\csrc/u8g2_ll_hvline.c ****   }
 221:..\..\..\u8g2\u8g2\csrc/u8g2_ll_hvline.c **** }
 222:..\..\..\u8g2\u8g2\csrc/u8g2_ll_hvline.c **** 
 223:..\..\..\u8g2\u8g2\csrc/u8g2_ll_hvline.c **** 
 224:..\..\..\u8g2\u8g2\csrc/u8g2_ll_hvline.c **** #endif /* U8G2_WITH_HVLINE_SPEED_OPTIMIZATION */
 225:..\..\..\u8g2\u8g2\csrc/u8g2_ll_hvline.c **** 
 226:..\..\..\u8g2\u8g2\csrc/u8g2_ll_hvline.c **** /*=================================================*/
 227:..\..\..\u8g2\u8g2\csrc/u8g2_ll_hvline.c **** /*
 228:..\..\..\u8g2\u8g2\csrc/u8g2_ll_hvline.c ****   u8g2_ll_hvline_horizontal_right_lsb
 229:..\..\..\u8g2\u8g2\csrc/u8g2_ll_hvline.c ****     ST7920
 230:..\..\..\u8g2\u8g2\csrc/u8g2_ll_hvline.c **** */
 231:..\..\..\u8g2\u8g2\csrc/u8g2_ll_hvline.c **** 
 232:..\..\..\u8g2\u8g2\csrc/u8g2_ll_hvline.c **** #ifdef U8G2_WITH_HVLINE_SPEED_OPTIMIZATION
 233:..\..\..\u8g2\u8g2\csrc/u8g2_ll_hvline.c **** 
 234:..\..\..\u8g2\u8g2\csrc/u8g2_ll_hvline.c **** /*
 235:..\..\..\u8g2\u8g2\csrc/u8g2_ll_hvline.c ****   x,y		Upper left position of the line within the local buffer (not the display!)
 236:..\..\..\u8g2\u8g2\csrc/u8g2_ll_hvline.c ****   len		length of the line in pixel, len must not be 0
 237:..\..\..\u8g2\u8g2\csrc/u8g2_ll_hvline.c ****   dir		0: horizontal line (left to right)
 238:..\..\..\u8g2\u8g2\csrc/u8g2_ll_hvline.c **** 		1: vertical line (top to bottom)
 239:..\..\..\u8g2\u8g2\csrc/u8g2_ll_hvline.c ****   asumption: 
 240:..\..\..\u8g2\u8g2\csrc/u8g2_ll_hvline.c ****     all clipping done
 241:..\..\..\u8g2\u8g2\csrc/u8g2_ll_hvline.c **** */
 242:..\..\..\u8g2\u8g2\csrc/u8g2_ll_hvline.c **** 
 243:..\..\..\u8g2\u8g2\csrc/u8g2_ll_hvline.c **** /* SH1122, LD7032, ST7920, ST7986, LC7981, T6963, SED1330, RA8835, MAX7219, LS0 */ 
 244:..\..\..\u8g2\u8g2\csrc/u8g2_ll_hvline.c **** void u8g2_ll_hvline_horizontal_right_lsb(u8g2_t *u8g2, u8g2_uint_t x, u8g2_uint_t y, u8g2_uint_t le
 245:..\..\..\u8g2\u8g2\csrc/u8g2_ll_hvline.c **** {
 185              		.loc 1 245 0
 186              		.cfi_startproc
 187              		@ args = 4, pretend = 0, frame = 0
 188              		@ frame_needed = 0, uses_anonymous_args = 0
 189              	.LVL29:
 190 0000 F0B5     		push	{r4, r5, r6, r7, lr}
 191              		.cfi_def_cfa_offset 20
 192              		.cfi_offset 4, -20
 193              		.cfi_offset 5, -16
 194              		.cfi_offset 6, -12
 195              		.cfi_offset 7, -8
 196              		.cfi_offset 14, -4
 246:..\..\..\u8g2\u8g2\csrc/u8g2_ll_hvline.c ****   uint16_t offset;
 247:..\..\..\u8g2\u8g2\csrc/u8g2_ll_hvline.c ****   uint8_t *ptr;
ARM GAS  C:\Users\jesse\AppData\Local\Temp\ccejHIO6.s 			page 9


 248:..\..\..\u8g2\u8g2\csrc/u8g2_ll_hvline.c ****   uint8_t bit_pos;
 249:..\..\..\u8g2\u8g2\csrc/u8g2_ll_hvline.c ****   uint8_t mask;
 250:..\..\..\u8g2\u8g2\csrc/u8g2_ll_hvline.c ****   uint8_t tile_width = u8g2_GetU8x8(u8g2)->display_info->tile_width;
 197              		.loc 1 250 0
 198 0002 0468     		ldr	r4, [r0]
 251:..\..\..\u8g2\u8g2\csrc/u8g2_ll_hvline.c **** 
 252:..\..\..\u8g2\u8g2\csrc/u8g2_ll_hvline.c ****   bit_pos = x;		/* overflow truncate is ok here... */
 253:..\..\..\u8g2\u8g2\csrc/u8g2_ll_hvline.c ****   bit_pos &= 7; 	/* ... because only the lowest 3 bits are needed */
 254:..\..\..\u8g2\u8g2\csrc/u8g2_ll_hvline.c ****   mask = 128;
 255:..\..\..\u8g2\u8g2\csrc/u8g2_ll_hvline.c ****   mask >>= bit_pos;
 199              		.loc 1 255 0
 200 0004 01F00705 		and	r5, r1, #7
 250:..\..\..\u8g2\u8g2\csrc/u8g2_ll_hvline.c **** 
 201              		.loc 1 250 0
 202 0008 267C     		ldrb	r6, [r4, #16]	@ zero_extendqisi2
 203              	.LVL30:
 204              		.loc 1 255 0
 205 000a 8024     		movs	r4, #128
 256:..\..\..\u8g2\u8g2\csrc/u8g2_ll_hvline.c **** 
 257:..\..\..\u8g2\u8g2\csrc/u8g2_ll_hvline.c ****   offset = y;		/* y might be 8 or 16 bit, but we need 16 bit, so use a 16 bit variable */
 258:..\..\..\u8g2\u8g2\csrc/u8g2_ll_hvline.c ****   offset *= tile_width;
 206              		.loc 1 258 0
 207 000c 7243     		muls	r2, r6, r2
 208              	.LVL31:
 209 000e 92B2     		uxth	r2, r2
 255:..\..\..\u8g2\u8g2\csrc/u8g2_ll_hvline.c **** 
 210              		.loc 1 255 0
 211 0010 2C41     		asrs	r4, r4, r5
 259:..\..\..\u8g2\u8g2\csrc/u8g2_ll_hvline.c ****   offset += x>>3;
 260:..\..\..\u8g2\u8g2\csrc/u8g2_ll_hvline.c ****   ptr = u8g2->tile_buf_ptr;
 261:..\..\..\u8g2\u8g2\csrc/u8g2_ll_hvline.c ****   ptr += offset;
 212              		.loc 1 261 0
 213 0012 02EBD101 		add	r1, r2, r1, lsr #3
 214              	.LVL32:
 260:..\..\..\u8g2\u8g2\csrc/u8g2_ll_hvline.c ****   ptr += offset;
 215              		.loc 1 260 0
 216 0016 456B     		ldr	r5, [r0, #52]
 245:..\..\..\u8g2\u8g2\csrc/u8g2_ll_hvline.c ****   uint16_t offset;
 217              		.loc 1 245 0
 218 0018 9DF81470 		ldrb	r7, [sp, #20]	@ zero_extendqisi2
 219              		.loc 1 261 0
 220 001c 89B2     		uxth	r1, r1
 255:..\..\..\u8g2\u8g2\csrc/u8g2_ll_hvline.c **** 
 221              		.loc 1 255 0
 222 001e E4B2     		uxtb	r4, r4
 223              	.LVL33:
 224              		.loc 1 261 0
 225 0020 2944     		add	r1, r1, r5
 226              	.LVL34:
 262:..\..\..\u8g2\u8g2\csrc/u8g2_ll_hvline.c ****   
 263:..\..\..\u8g2\u8g2\csrc/u8g2_ll_hvline.c ****   if ( dir == 0 )
 227              		.loc 1 263 0
 228 0022 BFB9     		cbnz	r7, .L17
 229              	.L21:
 230              	.LVL35:
 264:..\..\..\u8g2\u8g2\csrc/u8g2_ll_hvline.c ****   {
 265:..\..\..\u8g2\u8g2\csrc/u8g2_ll_hvline.c ****       
ARM GAS  C:\Users\jesse\AppData\Local\Temp\ccejHIO6.s 			page 10


 266:..\..\..\u8g2\u8g2\csrc/u8g2_ll_hvline.c ****     do
 267:..\..\..\u8g2\u8g2\csrc/u8g2_ll_hvline.c ****     {
 268:..\..\..\u8g2\u8g2\csrc/u8g2_ll_hvline.c **** 
 269:..\..\..\u8g2\u8g2\csrc/u8g2_ll_hvline.c ****       if ( u8g2->draw_color <= 1 )
 231              		.loc 1 269 0
 232 0024 90F89220 		ldrb	r2, [r0, #146]	@ zero_extendqisi2
 270:..\..\..\u8g2\u8g2\csrc/u8g2_ll_hvline.c **** 	*ptr |= mask;
 271:..\..\..\u8g2\u8g2\csrc/u8g2_ll_hvline.c ****       if ( u8g2->draw_color != 1 )
 272:..\..\..\u8g2\u8g2\csrc/u8g2_ll_hvline.c **** 	*ptr ^= mask;
 273:..\..\..\u8g2\u8g2\csrc/u8g2_ll_hvline.c ****       
 274:..\..\..\u8g2\u8g2\csrc/u8g2_ll_hvline.c ****       mask >>= 1;
 275:..\..\..\u8g2\u8g2\csrc/u8g2_ll_hvline.c ****       if ( mask == 0 )
 276:..\..\..\u8g2\u8g2\csrc/u8g2_ll_hvline.c ****       {
 277:..\..\..\u8g2\u8g2\csrc/u8g2_ll_hvline.c **** 	mask = 128;
 278:..\..\..\u8g2\u8g2\csrc/u8g2_ll_hvline.c ****         ptr++;
 279:..\..\..\u8g2\u8g2\csrc/u8g2_ll_hvline.c ****       }
 280:..\..\..\u8g2\u8g2\csrc/u8g2_ll_hvline.c ****       
 281:..\..\..\u8g2\u8g2\csrc/u8g2_ll_hvline.c ****       //x++;
 282:..\..\..\u8g2\u8g2\csrc/u8g2_ll_hvline.c ****       len--;
 233              		.loc 1 282 0
 234 0028 013B     		subs	r3, r3, #1
 235              	.LVL36:
 269:..\..\..\u8g2\u8g2\csrc/u8g2_ll_hvline.c **** 	*ptr |= mask;
 236              		.loc 1 269 0
 237 002a 012A     		cmp	r2, #1
 270:..\..\..\u8g2\u8g2\csrc/u8g2_ll_hvline.c **** 	*ptr |= mask;
 238              		.loc 1 270 0
 239 002c 98BF     		it	ls
 240 002e 0A78     		ldrbls	r2, [r1]	@ zero_extendqisi2
 241              		.loc 1 282 0
 242 0030 9BB2     		uxth	r3, r3
 270:..\..\..\u8g2\u8g2\csrc/u8g2_ll_hvline.c **** 	*ptr |= mask;
 243              		.loc 1 270 0
 244 0032 9CBF     		itt	ls
 245 0034 2243     		orrls	r2, r2, r4
 246 0036 0A70     		strbls	r2, [r1]
 271:..\..\..\u8g2\u8g2\csrc/u8g2_ll_hvline.c **** 	*ptr ^= mask;
 247              		.loc 1 271 0
 248 0038 90F89220 		ldrb	r2, [r0, #146]	@ zero_extendqisi2
 249 003c 012A     		cmp	r2, #1
 272:..\..\..\u8g2\u8g2\csrc/u8g2_ll_hvline.c ****       
 250              		.loc 1 272 0
 251 003e 1EBF     		ittt	ne
 252 0040 0A78     		ldrbne	r2, [r1]	@ zero_extendqisi2
 253 0042 6240     		eorne	r2, r2, r4
 254 0044 0A70     		strbne	r2, [r1]
 275:..\..\..\u8g2\u8g2\csrc/u8g2_ll_hvline.c ****       {
 255              		.loc 1 275 0
 256 0046 6408     		lsrs	r4, r4, #1
 257              	.LVL37:
 278:..\..\..\u8g2\u8g2\csrc/u8g2_ll_hvline.c ****       }
 258              		.loc 1 278 0
 259 0048 04BF     		itt	eq
 260 004a 0131     		addeq	r1, r1, #1
 261              	.LVL38:
 277:..\..\..\u8g2\u8g2\csrc/u8g2_ll_hvline.c ****         ptr++;
 262              		.loc 1 277 0
ARM GAS  C:\Users\jesse\AppData\Local\Temp\ccejHIO6.s 			page 11


 263 004c 8024     		moveq	r4, #128
 264              	.LVL39:
 283:..\..\..\u8g2\u8g2\csrc/u8g2_ll_hvline.c ****     } while( len != 0 );
 265              		.loc 1 283 0
 266 004e 002B     		cmp	r3, #0
 267 0050 E8D1     		bne	.L21
 268 0052 F0BD     		pop	{r4, r5, r6, r7, pc}
 269              	.LVL40:
 270              	.L17:
 263:..\..\..\u8g2\u8g2\csrc/u8g2_ll_hvline.c ****   {
 271              		.loc 1 263 0
 272 0054 0022     		movs	r2, #0
 273              	.LVL41:
 274              	.L24:
 284:..\..\..\u8g2\u8g2\csrc/u8g2_ll_hvline.c ****   }
 285:..\..\..\u8g2\u8g2\csrc/u8g2_ll_hvline.c ****   else
 286:..\..\..\u8g2\u8g2\csrc/u8g2_ll_hvline.c ****   {
 287:..\..\..\u8g2\u8g2\csrc/u8g2_ll_hvline.c ****     do
 288:..\..\..\u8g2\u8g2\csrc/u8g2_ll_hvline.c ****     {
 289:..\..\..\u8g2\u8g2\csrc/u8g2_ll_hvline.c ****       if ( u8g2->draw_color <= 1 )
 275              		.loc 1 289 0
 276 0056 90F89250 		ldrb	r5, [r0, #146]	@ zero_extendqisi2
 290:..\..\..\u8g2\u8g2\csrc/u8g2_ll_hvline.c **** 	*ptr |= mask;
 291:..\..\..\u8g2\u8g2\csrc/u8g2_ll_hvline.c ****       if ( u8g2->draw_color != 1 )
 292:..\..\..\u8g2\u8g2\csrc/u8g2_ll_hvline.c **** 	*ptr ^= mask;
 293:..\..\..\u8g2\u8g2\csrc/u8g2_ll_hvline.c ****       
 294:..\..\..\u8g2\u8g2\csrc/u8g2_ll_hvline.c ****       ptr += tile_width;
 295:..\..\..\u8g2\u8g2\csrc/u8g2_ll_hvline.c ****       //y++;
 296:..\..\..\u8g2\u8g2\csrc/u8g2_ll_hvline.c ****       len--;
 277              		.loc 1 296 0
 278 005a 013B     		subs	r3, r3, #1
 279              	.LVL42:
 289:..\..\..\u8g2\u8g2\csrc/u8g2_ll_hvline.c **** 	*ptr |= mask;
 280              		.loc 1 289 0
 281 005c 012D     		cmp	r5, #1
 290:..\..\..\u8g2\u8g2\csrc/u8g2_ll_hvline.c **** 	*ptr |= mask;
 282              		.loc 1 290 0
 283 005e 98BF     		it	ls
 284 0060 8D5C     		ldrbls	r5, [r1, r2]	@ zero_extendqisi2
 285              		.loc 1 296 0
 286 0062 9BB2     		uxth	r3, r3
 290:..\..\..\u8g2\u8g2\csrc/u8g2_ll_hvline.c **** 	*ptr |= mask;
 287              		.loc 1 290 0
 288 0064 9CBF     		itt	ls
 289 0066 2543     		orrls	r5, r5, r4
 290 0068 8D54     		strbls	r5, [r1, r2]
 291:..\..\..\u8g2\u8g2\csrc/u8g2_ll_hvline.c **** 	*ptr ^= mask;
 291              		.loc 1 291 0
 292 006a 90F89250 		ldrb	r5, [r0, #146]	@ zero_extendqisi2
 293 006e 012D     		cmp	r5, #1
 292:..\..\..\u8g2\u8g2\csrc/u8g2_ll_hvline.c ****       
 294              		.loc 1 292 0
 295 0070 1EBF     		ittt	ne
 296 0072 8D5C     		ldrbne	r5, [r1, r2]	@ zero_extendqisi2
 297 0074 6540     		eorne	r5, r5, r4
 298 0076 8D54     		strbne	r5, [r1, r2]
 299              	.LVL43:
ARM GAS  C:\Users\jesse\AppData\Local\Temp\ccejHIO6.s 			page 12


 300 0078 3244     		add	r2, r2, r6
 297:..\..\..\u8g2\u8g2\csrc/u8g2_ll_hvline.c ****     } while( len != 0 );
 301              		.loc 1 297 0
 302 007a 002B     		cmp	r3, #0
 303 007c EBD1     		bne	.L24
 304 007e F0BD     		pop	{r4, r5, r6, r7, pc}
 305              		.cfi_endproc
 306              	.LFE1:
 307              		.size	u8g2_ll_hvline_horizontal_right_lsb, .-u8g2_ll_hvline_horizontal_right_lsb
 308              		.text
 309              	.Letext0:
 310              		.file 2 "c:\\program files (x86)\\cypress\\psoc creator\\4.4\\psoc creator\\import\\gnu\\arm\\5.4.
 311              		.file 3 "c:\\program files (x86)\\cypress\\psoc creator\\4.4\\psoc creator\\import\\gnu\\arm\\5.4.
 312              		.file 4 "..\\..\\..\\u8g2\\u8g2\\csrc\\u8x8.h"
 313              		.file 5 "..\\..\\..\\u8g2\\u8g2\\csrc\\u8g2.h"