ARM GAS  C:\Users\jesse\AppData\Local\Temp\ccQeqzZe.s 			page 1


   1              		.syntax unified
   2              		.cpu cortex-m3
   3              		.fpu softvfp
   4              		.eabi_attribute 20, 1
   5              		.eabi_attribute 21, 1
   6              		.eabi_attribute 23, 3
   7              		.eabi_attribute 24, 1
   8              		.eabi_attribute 25, 1
   9              		.eabi_attribute 26, 1
  10              		.eabi_attribute 30, 4
  11              		.eabi_attribute 34, 1
  12              		.eabi_attribute 18, 4
  13              		.thumb
  14              		.syntax unified
  15              		.file	"u8g2_message.c"
  16              		.text
  17              	.Ltext0:
  18              		.cfi_sections	.debug_frame
  19              		.section	.text.u8g2_draw_button_line,"ax",%progbits
  20              		.align	1
  21              		.global	u8g2_draw_button_line
  22              		.thumb
  23              		.thumb_func
  24              		.type	u8g2_draw_button_line, %function
  25              	u8g2_draw_button_line:
  26              	.LFB0:
  27              		.file 1 "..\\..\\..\\u8g2\\u8g2\\csrc\\u8g2_message.c"
   1:..\..\..\u8g2\u8g2\csrc/u8g2_message.c **** /*
   2:..\..\..\u8g2\u8g2\csrc/u8g2_message.c **** 
   3:..\..\..\u8g2\u8g2\csrc/u8g2_message.c ****   u8g2_message.c
   4:..\..\..\u8g2\u8g2\csrc/u8g2_message.c ****   
   5:..\..\..\u8g2\u8g2\csrc/u8g2_message.c ****   Universal 8bit Graphics Library (https://github.com/olikraus/u8g2/)
   6:..\..\..\u8g2\u8g2\csrc/u8g2_message.c **** 
   7:..\..\..\u8g2\u8g2\csrc/u8g2_message.c ****   Copyright (c) 2016, olikraus@gmail.com
   8:..\..\..\u8g2\u8g2\csrc/u8g2_message.c ****   All rights reserved.
   9:..\..\..\u8g2\u8g2\csrc/u8g2_message.c **** 
  10:..\..\..\u8g2\u8g2\csrc/u8g2_message.c ****   Redistribution and use in source and binary forms, with or without modification, 
  11:..\..\..\u8g2\u8g2\csrc/u8g2_message.c ****   are permitted provided that the following conditions are met:
  12:..\..\..\u8g2\u8g2\csrc/u8g2_message.c **** 
  13:..\..\..\u8g2\u8g2\csrc/u8g2_message.c ****   * Redistributions of source code must retain the above copyright notice, this list 
  14:..\..\..\u8g2\u8g2\csrc/u8g2_message.c ****     of conditions and the following disclaimer.
  15:..\..\..\u8g2\u8g2\csrc/u8g2_message.c ****     
  16:..\..\..\u8g2\u8g2\csrc/u8g2_message.c ****   * Redistributions in binary form must reproduce the above copyright notice, this 
  17:..\..\..\u8g2\u8g2\csrc/u8g2_message.c ****     list of conditions and the following disclaimer in the documentation and/or other 
  18:..\..\..\u8g2\u8g2\csrc/u8g2_message.c ****     materials provided with the distribution.
  19:..\..\..\u8g2\u8g2\csrc/u8g2_message.c **** 
  20:..\..\..\u8g2\u8g2\csrc/u8g2_message.c ****   THIS SOFTWARE IS PROVIDED BY THE COPYRIGHT HOLDERS AND 
  21:..\..\..\u8g2\u8g2\csrc/u8g2_message.c ****   CONTRIBUTORS "AS IS" AND ANY EXPRESS OR IMPLIED WARRANTIES, 
  22:..\..\..\u8g2\u8g2\csrc/u8g2_message.c ****   INCLUDING, BUT NOT LIMITED TO, THE IMPLIED WARRANTIES OF 
  23:..\..\..\u8g2\u8g2\csrc/u8g2_message.c ****   MERCHANTABILITY AND FITNESS FOR A PARTICULAR PURPOSE ARE 
  24:..\..\..\u8g2\u8g2\csrc/u8g2_message.c ****   DISCLAIMED. IN NO EVENT SHALL THE COPYRIGHT HOLDER OR 
  25:..\..\..\u8g2\u8g2\csrc/u8g2_message.c ****   CONTRIBUTORS BE LIABLE FOR ANY DIRECT, INDIRECT, INCIDENTAL, 
  26:..\..\..\u8g2\u8g2\csrc/u8g2_message.c ****   SPECIAL, EXEMPLARY, OR CONSEQUENTIAL DAMAGES (INCLUDING, BUT 
  27:..\..\..\u8g2\u8g2\csrc/u8g2_message.c ****   NOT LIMITED TO, PROCUREMENT OF SUBSTITUTE GOODS OR SERVICES; 
  28:..\..\..\u8g2\u8g2\csrc/u8g2_message.c ****   LOSS OF USE, DATA, OR PROFITS; OR BUSINESS INTERRUPTION) HOWEVER 
  29:..\..\..\u8g2\u8g2\csrc/u8g2_message.c ****   CAUSED AND ON ANY THEORY OF LIABILITY, WHETHER IN CONTRACT, 
  30:..\..\..\u8g2\u8g2\csrc/u8g2_message.c ****   STRICT LIABILITY, OR TORT (INCLUDING NEGLIGENCE OR OTHERWISE) 
ARM GAS  C:\Users\jesse\AppData\Local\Temp\ccQeqzZe.s 			page 2


  31:..\..\..\u8g2\u8g2\csrc/u8g2_message.c ****   ARISING IN ANY WAY OUT OF THE USE OF THIS SOFTWARE, EVEN IF 
  32:..\..\..\u8g2\u8g2\csrc/u8g2_message.c ****   ADVISED OF THE POSSIBILITY OF SUCH DAMAGE.  
  33:..\..\..\u8g2\u8g2\csrc/u8g2_message.c ****   
  34:..\..\..\u8g2\u8g2\csrc/u8g2_message.c **** */
  35:..\..\..\u8g2\u8g2\csrc/u8g2_message.c **** 
  36:..\..\..\u8g2\u8g2\csrc/u8g2_message.c **** #include "u8g2.h"
  37:..\..\..\u8g2\u8g2\csrc/u8g2_message.c **** 
  38:..\..\..\u8g2\u8g2\csrc/u8g2_message.c **** #define SPACE_BETWEEN_BUTTONS_IN_PIXEL 6
  39:..\..\..\u8g2\u8g2\csrc/u8g2_message.c **** #define SPACE_BETWEEN_TEXT_AND_BUTTONS_IN_PIXEL 3
  40:..\..\..\u8g2\u8g2\csrc/u8g2_message.c **** 
  41:..\..\..\u8g2\u8g2\csrc/u8g2_message.c **** uint8_t u8g2_draw_button_line(u8g2_t *u8g2, u8g2_uint_t y, u8g2_uint_t w, uint8_t cursor, const cha
  42:..\..\..\u8g2\u8g2\csrc/u8g2_message.c **** {
  28              		.loc 1 42 0
  29              		.cfi_startproc
  30              		@ args = 4, pretend = 0, frame = 0
  31              		@ frame_needed = 0, uses_anonymous_args = 0
  32              	.LVL0:
  33 0000 2DE9F04F 		push	{r4, r5, r6, r7, r8, r9, r10, fp, lr}
  34              		.cfi_def_cfa_offset 36
  35              		.cfi_offset 4, -36
  36              		.cfi_offset 5, -32
  37              		.cfi_offset 6, -28
  38              		.cfi_offset 7, -24
  39              		.cfi_offset 8, -20
  40              		.cfi_offset 9, -16
  41              		.cfi_offset 10, -12
  42              		.cfi_offset 11, -8
  43              		.cfi_offset 14, -4
  44 0004 85B0     		sub	sp, sp, #20
  45              		.cfi_def_cfa_offset 56
  46              		.loc 1 42 0
  47 0006 0746     		mov	r7, r0
  43:..\..\..\u8g2\u8g2\csrc/u8g2_message.c ****   u8g2_uint_t button_line_width;
  44:..\..\..\u8g2\u8g2\csrc/u8g2_message.c **** 	
  45:..\..\..\u8g2\u8g2\csrc/u8g2_message.c ****   uint8_t i;
  46:..\..\..\u8g2\u8g2\csrc/u8g2_message.c ****   uint8_t cnt;
  47:..\..\..\u8g2\u8g2\csrc/u8g2_message.c ****   uint8_t is_invert;
  48:..\..\..\u8g2\u8g2\csrc/u8g2_message.c **** 	
  49:..\..\..\u8g2\u8g2\csrc/u8g2_message.c ****   u8g2_uint_t d;
  50:..\..\..\u8g2\u8g2\csrc/u8g2_message.c ****   u8g2_uint_t x;
  51:..\..\..\u8g2\u8g2\csrc/u8g2_message.c **** 	
  52:..\..\..\u8g2\u8g2\csrc/u8g2_message.c ****   cnt = u8x8_GetStringLineCnt(s);
  48              		.loc 1 52 0
  49 0008 0E98     		ldr	r0, [sp, #56]
  50              	.LVL1:
  42:..\..\..\u8g2\u8g2\csrc/u8g2_message.c ****   u8g2_uint_t button_line_width;
  51              		.loc 1 42 0
  52 000a 8846     		mov	r8, r1
  53 000c 1546     		mov	r5, r2
  54 000e 9946     		mov	r9, r3
  55              		.loc 1 52 0
  56 0010 FFF7FEFF 		bl	u8x8_GetStringLineCnt
  57              	.LVL2:
  53:..\..\..\u8g2\u8g2\csrc/u8g2_message.c ****   
  54:..\..\..\u8g2\u8g2\csrc/u8g2_message.c **** 	
  55:..\..\..\u8g2\u8g2\csrc/u8g2_message.c ****   /* calculate the width of the button line */
  56:..\..\..\u8g2\u8g2\csrc/u8g2_message.c ****   button_line_width = 0;
ARM GAS  C:\Users\jesse\AppData\Local\Temp\ccQeqzZe.s 			page 3


  57:..\..\..\u8g2\u8g2\csrc/u8g2_message.c ****   for( i = 0; i < cnt; i++ )
  58              		.loc 1 57 0
  59 0014 4FF0000A 		mov	r10, #0
  52:..\..\..\u8g2\u8g2\csrc/u8g2_message.c ****   
  60              		.loc 1 52 0
  61 0018 0646     		mov	r6, r0
  62              	.LVL3:
  56:..\..\..\u8g2\u8g2\csrc/u8g2_message.c ****   for( i = 0; i < cnt; i++ )
  63              		.loc 1 56 0
  64 001a 5446     		mov	r4, r10
  65              	.LVL4:
  66              	.L2:
  67 001c 5FFA8AF0 		uxtb	r0, r10
  68              	.LVL5:
  69              		.loc 1 57 0 discriminator 1
  70 0020 B042     		cmp	r0, r6
  71 0022 0BD2     		bcs	.L9
  58:..\..\..\u8g2\u8g2\csrc/u8g2_message.c ****   {
  59:..\..\..\u8g2\u8g2\csrc/u8g2_message.c ****     button_line_width += u8g2_GetUTF8Width(u8g2, u8x8_GetStringLineStart(i, s));
  72              		.loc 1 59 0 discriminator 3
  73 0024 0E99     		ldr	r1, [sp, #56]
  74 0026 FFF7FEFF 		bl	u8x8_GetStringLineStart
  75              	.LVL6:
  76 002a 0146     		mov	r1, r0
  77 002c 3846     		mov	r0, r7
  78 002e FFF7FEFF 		bl	u8g2_GetUTF8Width
  79              	.LVL7:
  80 0032 2044     		add	r0, r0, r4
  81 0034 84B2     		uxth	r4, r0
  82              	.LVL8:
  83 0036 0AF1010A 		add	r10, r10, #1
  84              	.LVL9:
  85 003a EFE7     		b	.L2
  86              	.LVL10:
  87              	.L9:
  60:..\..\..\u8g2\u8g2\csrc/u8g2_message.c ****   }
  61:..\..\..\u8g2\u8g2\csrc/u8g2_message.c ****   button_line_width += (cnt-1)*SPACE_BETWEEN_BUTTONS_IN_PIXEL;	/* add some space between the button
  88              		.loc 1 61 0
  89 003c 701E     		subs	r0, r6, #1
  90              	.LVL11:
  91 003e 00EB4000 		add	r0, r0, r0, lsl #1
  92 0042 04EB4004 		add	r4, r4, r0, lsl #1
  93              	.LVL12:
  94 0046 A4B2     		uxth	r4, r4
  95              	.LVL13:
  62:..\..\..\u8g2\u8g2\csrc/u8g2_message.c ****   
  63:..\..\..\u8g2\u8g2\csrc/u8g2_message.c ****   /* calculate the left offset */
  64:..\..\..\u8g2\u8g2\csrc/u8g2_message.c ****   d = 0;
  65:..\..\..\u8g2\u8g2\csrc/u8g2_message.c ****   if ( button_line_width < w )
  96              		.loc 1 65 0
  97 0048 AC42     		cmp	r4, r5
  98              	.LVL14:
  66:..\..\..\u8g2\u8g2\csrc/u8g2_message.c ****   {
  67:..\..\..\u8g2\u8g2\csrc/u8g2_message.c ****     d = w;
  68:..\..\..\u8g2\u8g2\csrc/u8g2_message.c ****     d -= button_line_width;
  69:..\..\..\u8g2\u8g2\csrc/u8g2_message.c ****     d /= 2;
  99              		.loc 1 69 0
ARM GAS  C:\Users\jesse\AppData\Local\Temp\ccQeqzZe.s 			page 4


 100 004a 3ABF     		itte	cc
 101 004c 2C1B     		subcc	r4, r5, r4
 102              	.LVL15:
 103 004e C4F34E04 		ubfxcc	r4, r4, #1, #15
 104              	.LVL16:
  64:..\..\..\u8g2\u8g2\csrc/u8g2_message.c ****   if ( button_line_width < w )
 105              		.loc 1 64 0
 106 0052 0024     		movcs	r4, #0
 107              	.LVL17:
 108 0054 4FF0000A 		mov	r10, #0
 109              	.LVL18:
  70:..\..\..\u8g2\u8g2\csrc/u8g2_message.c ****   }
  71:..\..\..\u8g2\u8g2\csrc/u8g2_message.c ****   
  72:..\..\..\u8g2\u8g2\csrc/u8g2_message.c ****   /* draw the buttons */
  73:..\..\..\u8g2\u8g2\csrc/u8g2_message.c ****   x = d;
  74:..\..\..\u8g2\u8g2\csrc/u8g2_message.c ****   for( i = 0; i < cnt; i++ )
  75:..\..\..\u8g2\u8g2\csrc/u8g2_message.c ****   {
  76:..\..\..\u8g2\u8g2\csrc/u8g2_message.c ****     is_invert = 0;
  77:..\..\..\u8g2\u8g2\csrc/u8g2_message.c ****     if ( i == cursor )
  78:..\..\..\u8g2\u8g2\csrc/u8g2_message.c ****       is_invert = 1;
  79:..\..\..\u8g2\u8g2\csrc/u8g2_message.c **** 
  80:..\..\..\u8g2\u8g2\csrc/u8g2_message.c ****     u8g2_DrawUTF8Line(u8g2, x, y, 0, u8x8_GetStringLineStart(i, s), 1, is_invert);
 110              		.loc 1 80 0
 111 0058 4FF0010B 		mov	fp, #1
 112              	.L5:
 113 005c 5FFA8AF5 		uxtb	r5, r10
 114              	.LVL19:
  74:..\..\..\u8g2\u8g2\csrc/u8g2_message.c ****   {
 115              		.loc 1 74 0 discriminator 1
 116 0060 B542     		cmp	r5, r6
 117 0062 1ED2     		bcs	.L10
 118              	.LVL20:
 119              		.loc 1 80 0
 120 0064 0E99     		ldr	r1, [sp, #56]
 121 0066 2846     		mov	r0, r5
 122 0068 FFF7FEFF 		bl	u8x8_GetStringLineStart
 123              	.LVL21:
 124 006c C9EB0502 		rsb	r2, r9, r5
 125 0070 5342     		rsbs	r3, r2, #0
 126 0072 5341     		adcs	r3, r3, r2
 127 0074 2146     		mov	r1, r4
 128 0076 4246     		mov	r2, r8
 129 0078 0293     		str	r3, [sp, #8]
 130 007a 8DE80108 		stmia	sp, {r0, fp}
 131 007e 0023     		movs	r3, #0
 132 0080 3846     		mov	r0, r7
 133 0082 FFF7FEFF 		bl	u8g2_DrawUTF8Line
 134              	.LVL22:
  81:..\..\..\u8g2\u8g2\csrc/u8g2_message.c ****     x += u8g2_GetUTF8Width(u8g2, u8x8_GetStringLineStart(i, s));
 135              		.loc 1 81 0
 136 0086 0E99     		ldr	r1, [sp, #56]
 137 0088 2846     		mov	r0, r5
 138 008a FFF7FEFF 		bl	u8x8_GetStringLineStart
 139              	.LVL23:
 140 008e 0146     		mov	r1, r0
 141 0090 3846     		mov	r0, r7
 142 0092 FFF7FEFF 		bl	u8g2_GetUTF8Width
ARM GAS  C:\Users\jesse\AppData\Local\Temp\ccQeqzZe.s 			page 5


 143              	.LVL24:
  82:..\..\..\u8g2\u8g2\csrc/u8g2_message.c ****     x += SPACE_BETWEEN_BUTTONS_IN_PIXEL;
 144              		.loc 1 82 0
 145 0096 0630     		adds	r0, r0, #6
 146              	.LVL25:
 147 0098 0444     		add	r4, r4, r0
 148 009a A4B2     		uxth	r4, r4
 149              	.LVL26:
 150 009c 0AF1010A 		add	r10, r10, #1
 151              	.LVL27:
 152 00a0 DCE7     		b	.L5
 153              	.LVL28:
 154              	.L10:
  83:..\..\..\u8g2\u8g2\csrc/u8g2_message.c ****   }
  84:..\..\..\u8g2\u8g2\csrc/u8g2_message.c ****   
  85:..\..\..\u8g2\u8g2\csrc/u8g2_message.c ****   /* return the number of buttons */
  86:..\..\..\u8g2\u8g2\csrc/u8g2_message.c ****   return cnt;
  87:..\..\..\u8g2\u8g2\csrc/u8g2_message.c **** }
 155              		.loc 1 87 0
 156 00a2 3046     		mov	r0, r6
 157 00a4 05B0     		add	sp, sp, #20
 158              		.cfi_def_cfa_offset 36
 159              		@ sp needed
 160 00a6 BDE8F08F 		pop	{r4, r5, r6, r7, r8, r9, r10, fp, pc}
 161              		.cfi_endproc
 162              	.LFE0:
 163              		.size	u8g2_draw_button_line, .-u8g2_draw_button_line
 164              		.section	.text.u8g2_UserInterfaceMessage,"ax",%progbits
 165              		.align	1
 166              		.global	u8g2_UserInterfaceMessage
 167              		.thumb
 168              		.thumb_func
 169              		.type	u8g2_UserInterfaceMessage, %function
 170              	u8g2_UserInterfaceMessage:
 171              	.LFB1:
  88:..\..\..\u8g2\u8g2\csrc/u8g2_message.c **** 
  89:..\..\..\u8g2\u8g2\csrc/u8g2_message.c **** /*
  90:..\..\..\u8g2\u8g2\csrc/u8g2_message.c ****   title1:	Multiple lines,separated by '\n'
  91:..\..\..\u8g2\u8g2\csrc/u8g2_message.c ****   title2:	A single line/string which is terminated by '\0' or '\n' . "title2" accepts the return va
  92:..\..\..\u8g2\u8g2\csrc/u8g2_message.c ****   title3:	Multiple lines,separated by '\n'
  93:..\..\..\u8g2\u8g2\csrc/u8g2_message.c ****   buttons:	one more more buttons separated by '\n' and terminated with '\0'
  94:..\..\..\u8g2\u8g2\csrc/u8g2_message.c ****   side effects:
  95:..\..\..\u8g2\u8g2\csrc/u8g2_message.c ****     u8g2_SetFontDirection(u8g2, 0);
  96:..\..\..\u8g2\u8g2\csrc/u8g2_message.c ****     u8g2_SetFontPosBaseline(u8g2);
  97:..\..\..\u8g2\u8g2\csrc/u8g2_message.c **** */
  98:..\..\..\u8g2\u8g2\csrc/u8g2_message.c **** 
  99:..\..\..\u8g2\u8g2\csrc/u8g2_message.c **** uint8_t u8g2_UserInterfaceMessage(u8g2_t *u8g2, const char *title1, const char *title2, const char 
 100:..\..\..\u8g2\u8g2\csrc/u8g2_message.c **** {
 172              		.loc 1 100 0
 173              		.cfi_startproc
 174              		@ args = 4, pretend = 0, frame = 8
 175              		@ frame_needed = 0, uses_anonymous_args = 0
 176              	.LVL29:
 177 0000 2DE9F04F 		push	{r4, r5, r6, r7, r8, r9, r10, fp, lr}
 178              		.cfi_def_cfa_offset 36
 179              		.cfi_offset 4, -36
 180              		.cfi_offset 5, -32
ARM GAS  C:\Users\jesse\AppData\Local\Temp\ccQeqzZe.s 			page 6


 181              		.cfi_offset 6, -28
 182              		.cfi_offset 7, -24
 183              		.cfi_offset 8, -20
 184              		.cfi_offset 9, -16
 185              		.cfi_offset 10, -12
 186              		.cfi_offset 11, -8
 187              		.cfi_offset 14, -4
 188 0004 0546     		mov	r5, r0
 189 0006 8946     		mov	r9, r1
 190 0008 9046     		mov	r8, r2
 191 000a 87B0     		sub	sp, sp, #28
 192              		.cfi_def_cfa_offset 64
 101:..\..\..\u8g2\u8g2\csrc/u8g2_message.c ****   uint8_t height;
 102:..\..\..\u8g2\u8g2\csrc/u8g2_message.c ****   uint8_t line_height;
 103:..\..\..\u8g2\u8g2\csrc/u8g2_message.c ****   u8g2_uint_t pixel_height;
 104:..\..\..\u8g2\u8g2\csrc/u8g2_message.c ****   u8g2_uint_t y, yy;
 105:..\..\..\u8g2\u8g2\csrc/u8g2_message.c **** 	
 106:..\..\..\u8g2\u8g2\csrc/u8g2_message.c ****   uint8_t cursor = 0;
 107:..\..\..\u8g2\u8g2\csrc/u8g2_message.c ****   uint8_t button_cnt;
 108:..\..\..\u8g2\u8g2\csrc/u8g2_message.c ****   uint8_t event;
 109:..\..\..\u8g2\u8g2\csrc/u8g2_message.c **** 	
 110:..\..\..\u8g2\u8g2\csrc/u8g2_message.c ****   /* only horizontal strings are supported, so force this here */
 111:..\..\..\u8g2\u8g2\csrc/u8g2_message.c ****   u8g2_SetFontDirection(u8g2, 0);
 193              		.loc 1 111 0
 194 000c 0021     		movs	r1, #0
 195              	.LVL30:
 100:..\..\..\u8g2\u8g2\csrc/u8g2_message.c ****   uint8_t height;
 196              		.loc 1 100 0
 197 000e 9A46     		mov	r10, r3
 198              		.loc 1 111 0
 199 0010 FFF7FEFF 		bl	u8g2_SetFontDirection
 200              	.LVL31:
 112:..\..\..\u8g2\u8g2\csrc/u8g2_message.c **** 
 113:..\..\..\u8g2\u8g2\csrc/u8g2_message.c ****   /* force baseline position */
 114:..\..\..\u8g2\u8g2\csrc/u8g2_message.c ****   u8g2_SetFontPosBaseline(u8g2);
 201              		.loc 1 114 0
 202 0014 2846     		mov	r0, r5
 203 0016 FFF7FEFF 		bl	u8g2_SetFontPosBaseline
 204              	.LVL32:
 115:..\..\..\u8g2\u8g2\csrc/u8g2_message.c **** 	
 116:..\..\..\u8g2\u8g2\csrc/u8g2_message.c **** 	
 117:..\..\..\u8g2\u8g2\csrc/u8g2_message.c ****   /* calculate line height */
 118:..\..\..\u8g2\u8g2\csrc/u8g2_message.c ****   line_height = u8g2_GetAscent(u8g2);
 205              		.loc 1 118 0
 206 001a 95F88E30 		ldrb	r3, [r5, #142]	@ zero_extendqisi2
 207              	.LVL33:
 119:..\..\..\u8g2\u8g2\csrc/u8g2_message.c ****   line_height -= u8g2_GetDescent(u8g2);
 208              		.loc 1 119 0
 209 001e 95F88F70 		ldrb	r7, [r5, #143]	@ zero_extendqisi2
 120:..\..\..\u8g2\u8g2\csrc/u8g2_message.c **** 
 121:..\..\..\u8g2\u8g2\csrc/u8g2_message.c ****   /* calculate overall height of the message box in lines*/
 122:..\..\..\u8g2\u8g2\csrc/u8g2_message.c ****   height = 1;	/* button line */
 123:..\..\..\u8g2\u8g2\csrc/u8g2_message.c ****   height += u8x8_GetStringLineCnt(title1);
 210              		.loc 1 123 0
 211 0022 4846     		mov	r0, r9
 119:..\..\..\u8g2\u8g2\csrc/u8g2_message.c ****   line_height -= u8g2_GetDescent(u8g2);
 212              		.loc 1 119 0
ARM GAS  C:\Users\jesse\AppData\Local\Temp\ccQeqzZe.s 			page 7


 213 0024 DF1B     		subs	r7, r3, r7
 214 0026 FFB2     		uxtb	r7, r7
 215              	.LVL34:
 216              		.loc 1 123 0
 217 0028 FFF7FEFF 		bl	u8x8_GetStringLineCnt
 218              	.LVL35:
 124:..\..\..\u8g2\u8g2\csrc/u8g2_message.c ****   if ( title2 != NULL )
 219              		.loc 1 124 0
 220 002c B8F1000F 		cmp	r8, #0
 221 0030 01D1     		bne	.L12
 123:..\..\..\u8g2\u8g2\csrc/u8g2_message.c ****   if ( title2 != NULL )
 222              		.loc 1 123 0
 223 0032 0130     		adds	r0, r0, #1
 224              	.LVL36:
 225 0034 00E0     		b	.L37
 226              	.LVL37:
 227              	.L12:
 125:..\..\..\u8g2\u8g2\csrc/u8g2_message.c ****     height++;
 228              		.loc 1 125 0
 229 0036 0230     		adds	r0, r0, #2
 230              	.LVL38:
 231              	.L37:
 232 0038 C4B2     		uxtb	r4, r0
 233              	.LVL39:
 126:..\..\..\u8g2\u8g2\csrc/u8g2_message.c ****   height += u8x8_GetStringLineCnt(title3);
 234              		.loc 1 126 0
 235 003a 5046     		mov	r0, r10
 236 003c FFF7FEFF 		bl	u8x8_GetStringLineCnt
 237              	.LVL40:
 127:..\..\..\u8g2\u8g2\csrc/u8g2_message.c ****   
 128:..\..\..\u8g2\u8g2\csrc/u8g2_message.c ****   /* calculate the height in pixel */
 129:..\..\..\u8g2\u8g2\csrc/u8g2_message.c ****   pixel_height = height;
 238              		.loc 1 129 0
 239 0040 2044     		add	r0, r0, r4
 240              	.LVL41:
 241 0042 C3B2     		uxtb	r3, r0
 242              	.LVL42:
 130:..\..\..\u8g2\u8g2\csrc/u8g2_message.c ****   pixel_height *= line_height;
 243              		.loc 1 130 0
 244 0044 BFB2     		uxth	r7, r7
 245              	.LVL43:
 246 0046 7B43     		muls	r3, r7, r3
 247              	.LVL44:
 131:..\..\..\u8g2\u8g2\csrc/u8g2_message.c ****   
 132:..\..\..\u8g2\u8g2\csrc/u8g2_message.c ****   /* ... and add the space between the text and the buttons */
 133:..\..\..\u8g2\u8g2\csrc/u8g2_message.c ****   pixel_height +=SPACE_BETWEEN_TEXT_AND_BUTTONS_IN_PIXEL;
 134:..\..\..\u8g2\u8g2\csrc/u8g2_message.c ****   
 135:..\..\..\u8g2\u8g2\csrc/u8g2_message.c ****   /* calculate offset from top */
 136:..\..\..\u8g2\u8g2\csrc/u8g2_message.c ****   y = 0;
 137:..\..\..\u8g2\u8g2\csrc/u8g2_message.c ****   if ( pixel_height < u8g2_GetDisplayHeight(u8g2)   )
 248              		.loc 1 137 0
 249 0048 B5F84620 		ldrh	r2, [r5, #70]
 133:..\..\..\u8g2\u8g2\csrc/u8g2_message.c ****   
 250              		.loc 1 133 0
 251 004c 0333     		adds	r3, r3, #3
 252              	.LVL45:
 253 004e 9BB2     		uxth	r3, r3
ARM GAS  C:\Users\jesse\AppData\Local\Temp\ccQeqzZe.s 			page 8


 254              	.LVL46:
 255              		.loc 1 137 0
 256 0050 9342     		cmp	r3, r2
 257              	.LVL47:
 138:..\..\..\u8g2\u8g2\csrc/u8g2_message.c ****   {
 139:..\..\..\u8g2\u8g2\csrc/u8g2_message.c ****     y = u8g2_GetDisplayHeight(u8g2);
 140:..\..\..\u8g2\u8g2\csrc/u8g2_message.c ****     y -= pixel_height;
 258              		.loc 1 140 0
 259 0052 38BF     		it	cc
 260 0054 D31A     		subcc	r3, r2, r3
 261              	.LVL48:
 141:..\..\..\u8g2\u8g2\csrc/u8g2_message.c ****     y /= 2;
 142:..\..\..\u8g2\u8g2\csrc/u8g2_message.c ****   }
 143:..\..\..\u8g2\u8g2\csrc/u8g2_message.c ****   y += u8g2_GetAscent(u8g2);
 262              		.loc 1 143 0
 263 0056 95F98E20 		ldrsb	r2, [r5, #142]
 141:..\..\..\u8g2\u8g2\csrc/u8g2_message.c ****     y /= 2;
 264              		.loc 1 141 0
 265 005a 34BF     		ite	cc
 266 005c C3F34E03 		ubfxcc	r3, r3, #1, #15
 267              	.LVL49:
 136:..\..\..\u8g2\u8g2\csrc/u8g2_message.c ****   if ( pixel_height < u8g2_GetDisplayHeight(u8g2)   )
 268              		.loc 1 136 0
 269 0060 0023     		movcs	r3, #0
 270              	.LVL50:
 271              		.loc 1 143 0
 272 0062 1344     		add	r3, r3, r2
 273              	.LVL51:
 274 0064 1FFA83FB 		uxth	fp, r3
 275              	.LVL52:
 106:..\..\..\u8g2\u8g2\csrc/u8g2_message.c ****   uint8_t button_cnt;
 276              		.loc 1 106 0
 277 0068 0024     		movs	r4, #0
 278              	.LVL53:
 279              	.L15:
 144:..\..\..\u8g2\u8g2\csrc/u8g2_message.c **** 
 145:..\..\..\u8g2\u8g2\csrc/u8g2_message.c ****   
 146:..\..\..\u8g2\u8g2\csrc/u8g2_message.c ****   for(;;)
 147:..\..\..\u8g2\u8g2\csrc/u8g2_message.c ****   {
 148:..\..\..\u8g2\u8g2\csrc/u8g2_message.c ****       u8g2_FirstPage(u8g2);
 280              		.loc 1 148 0
 281 006a 2846     		mov	r0, r5
 282 006c FFF7FEFF 		bl	u8g2_FirstPage
 283              	.LVL54:
 284              	.L17:
 149:..\..\..\u8g2\u8g2\csrc/u8g2_message.c ****       do
 150:..\..\..\u8g2\u8g2\csrc/u8g2_message.c ****       {
 151:..\..\..\u8g2\u8g2\csrc/u8g2_message.c **** 	  yy = y;
 152:..\..\..\u8g2\u8g2\csrc/u8g2_message.c **** 	  /* draw message box */
 153:..\..\..\u8g2\u8g2\csrc/u8g2_message.c **** 	  
 154:..\..\..\u8g2\u8g2\csrc/u8g2_message.c **** 	  yy += u8g2_DrawUTF8Lines(u8g2, 0, yy, u8g2_GetDisplayWidth(u8g2), line_height, title1);
 285              		.loc 1 154 0
 286 0070 B5F84430 		ldrh	r3, [r5, #68]
 287 0074 8DE88002 		stmia	sp, {r7, r9}
 288 0078 5A46     		mov	r2, fp
 289 007a 0021     		movs	r1, #0
 290 007c 2846     		mov	r0, r5
ARM GAS  C:\Users\jesse\AppData\Local\Temp\ccQeqzZe.s 			page 9


 291 007e FFF7FEFF 		bl	u8g2_DrawUTF8Lines
 292              	.LVL55:
 293 0082 5844     		add	r0, r0, fp
 294 0084 86B2     		uxth	r6, r0
 295              	.LVL56:
 155:..\..\..\u8g2\u8g2\csrc/u8g2_message.c **** 	  if ( title2 != NULL )
 296              		.loc 1 155 0
 297 0086 B8F1000F 		cmp	r8, #0
 298 008a 0DD0     		beq	.L16
 156:..\..\..\u8g2\u8g2\csrc/u8g2_message.c **** 	  {
 157:..\..\..\u8g2\u8g2\csrc/u8g2_message.c **** 	    u8g2_DrawUTF8Line(u8g2, 0, yy, u8g2_GetDisplayWidth(u8g2), title2, 0, 0);
 299              		.loc 1 157 0
 300 008c 0022     		movs	r2, #0
 301 008e 0292     		str	r2, [sp, #8]
 302 0090 0192     		str	r2, [sp, #4]
 303 0092 B5F84430 		ldrh	r3, [r5, #68]
 304 0096 3246     		mov	r2, r6
 305 0098 CDF80080 		str	r8, [sp]
 306 009c 0021     		movs	r1, #0
 307 009e 2846     		mov	r0, r5
 308 00a0 FFF7FEFF 		bl	u8g2_DrawUTF8Line
 309              	.LVL57:
 158:..\..\..\u8g2\u8g2\csrc/u8g2_message.c **** 	    yy+=line_height;
 310              		.loc 1 158 0
 311 00a4 3E44     		add	r6, r6, r7
 312              	.LVL58:
 313 00a6 B6B2     		uxth	r6, r6
 314              	.LVL59:
 315              	.L16:
 159:..\..\..\u8g2\u8g2\csrc/u8g2_message.c **** 	  }
 160:..\..\..\u8g2\u8g2\csrc/u8g2_message.c **** 	  yy += u8g2_DrawUTF8Lines(u8g2, 0, yy, u8g2_GetDisplayWidth(u8g2), line_height, title3);
 316              		.loc 1 160 0
 317 00a8 3246     		mov	r2, r6
 318 00aa B5F84430 		ldrh	r3, [r5, #68]
 319 00ae 0021     		movs	r1, #0
 320 00b0 8DE88004 		stmia	sp, {r7, r10}
 321 00b4 2846     		mov	r0, r5
 322 00b6 FFF7FEFF 		bl	u8g2_DrawUTF8Lines
 323              	.LVL60:
 161:..\..\..\u8g2\u8g2\csrc/u8g2_message.c **** 	  yy += SPACE_BETWEEN_TEXT_AND_BUTTONS_IN_PIXEL;
 162:..\..\..\u8g2\u8g2\csrc/u8g2_message.c **** 
 163:..\..\..\u8g2\u8g2\csrc/u8g2_message.c **** 	  button_cnt = u8g2_draw_button_line(u8g2, yy, u8g2_GetDisplayWidth(u8g2), cursor, buttons);
 324              		.loc 1 163 0
 325 00ba 109B     		ldr	r3, [sp, #64]
 160:..\..\..\u8g2\u8g2\csrc/u8g2_message.c **** 	  yy += SPACE_BETWEEN_TEXT_AND_BUTTONS_IN_PIXEL;
 326              		.loc 1 160 0
 327 00bc 3044     		add	r0, r0, r6
 328              	.LVL61:
 329              		.loc 1 163 0
 330 00be C11C     		adds	r1, r0, #3
 331 00c0 B5F84420 		ldrh	r2, [r5, #68]
 332 00c4 0093     		str	r3, [sp]
 333 00c6 89B2     		uxth	r1, r1
 334 00c8 2346     		mov	r3, r4
 335 00ca 2846     		mov	r0, r5
 336              	.LVL62:
 337 00cc FFF7FEFF 		bl	u8g2_draw_button_line
ARM GAS  C:\Users\jesse\AppData\Local\Temp\ccQeqzZe.s 			page 10


 338              	.LVL63:
 339 00d0 0646     		mov	r6, r0
 340              	.LVL64:
 164:..\..\..\u8g2\u8g2\csrc/u8g2_message.c **** 	  
 165:..\..\..\u8g2\u8g2\csrc/u8g2_message.c ****       } while( u8g2_NextPage(u8g2) );
 341              		.loc 1 165 0
 342 00d2 2846     		mov	r0, r5
 343              	.LVL65:
 344 00d4 FFF7FEFF 		bl	u8g2_NextPage
 345              	.LVL66:
 346 00d8 0346     		mov	r3, r0
 347 00da 0028     		cmp	r0, #0
 348 00dc C8D1     		bne	.L17
 349              	.L23:
 166:..\..\..\u8g2\u8g2\csrc/u8g2_message.c **** 
 167:..\..\..\u8g2\u8g2\csrc/u8g2_message.c **** #ifdef U8G2_REF_MAN_PIC
 168:..\..\..\u8g2\u8g2\csrc/u8g2_message.c ****       return 0;
 169:..\..\..\u8g2\u8g2\csrc/u8g2_message.c **** #endif
 170:..\..\..\u8g2\u8g2\csrc/u8g2_message.c **** 	  
 171:..\..\..\u8g2\u8g2\csrc/u8g2_message.c ****       for(;;)
 172:..\..\..\u8g2\u8g2\csrc/u8g2_message.c ****       {
 173:..\..\..\u8g2\u8g2\csrc/u8g2_message.c **** 	    event = u8x8_GetMenuEvent(u8g2_GetU8x8(u8g2));
 350              		.loc 1 173 0
 351 00de 2846     		mov	r0, r5
 352 00e0 0593     		str	r3, [sp, #20]
 353 00e2 FFF7FEFF 		bl	u8x8_GetMenuEvent
 354              	.LVL67:
 174:..\..\..\u8g2\u8g2\csrc/u8g2_message.c **** 	    if ( event == U8X8_MSG_GPIO_MENU_SELECT )
 355              		.loc 1 174 0
 356 00e6 5028     		cmp	r0, #80
 357 00e8 059B     		ldr	r3, [sp, #20]
 358 00ea 02D1     		bne	.L18
 175:..\..\..\u8g2\u8g2\csrc/u8g2_message.c **** 	      return cursor+1;
 359              		.loc 1 175 0
 360 00ec 0134     		adds	r4, r4, #1
 361              	.LVL68:
 362 00ee E3B2     		uxtb	r3, r4
 363 00f0 15E0     		b	.L19
 364              	.LVL69:
 365              	.L18:
 176:..\..\..\u8g2\u8g2\csrc/u8g2_message.c **** 	    else if ( event == U8X8_MSG_GPIO_MENU_HOME )
 366              		.loc 1 176 0
 367 00f2 5328     		cmp	r0, #83
 368 00f4 13D0     		beq	.L19
 177:..\..\..\u8g2\u8g2\csrc/u8g2_message.c **** 	      return 0;
 178:..\..\..\u8g2\u8g2\csrc/u8g2_message.c **** 	    else if ( event == U8X8_MSG_GPIO_MENU_NEXT || event == U8X8_MSG_GPIO_MENU_DOWN )
 369              		.loc 1 178 0
 370 00f6 00F0FB02 		and	r2, r0, #251
 371 00fa 512A     		cmp	r2, #81
 372 00fc 05D1     		bne	.L20
 179:..\..\..\u8g2\u8g2\csrc/u8g2_message.c **** 	    {
 180:..\..\..\u8g2\u8g2\csrc/u8g2_message.c **** 	      cursor++;
 373              		.loc 1 180 0
 374 00fe 0134     		adds	r4, r4, #1
 375              	.LVL70:
 376 0100 E4B2     		uxtb	r4, r4
 377              	.LVL71:
ARM GAS  C:\Users\jesse\AppData\Local\Temp\ccQeqzZe.s 			page 11


 181:..\..\..\u8g2\u8g2\csrc/u8g2_message.c **** 	      if ( cursor >= button_cnt )
 182:..\..\..\u8g2\u8g2\csrc/u8g2_message.c **** 		cursor = 0;
 378              		.loc 1 182 0
 379 0102 A642     		cmp	r6, r4
 380 0104 98BF     		it	ls
 381 0106 0024     		movls	r4, #0
 382              	.LVL72:
 383 0108 AFE7     		b	.L15
 384              	.LVL73:
 385              	.L20:
 183:..\..\..\u8g2\u8g2\csrc/u8g2_message.c **** 	      break;
 184:..\..\..\u8g2\u8g2\csrc/u8g2_message.c **** 	    }
 185:..\..\..\u8g2\u8g2\csrc/u8g2_message.c **** 	    else if ( event == U8X8_MSG_GPIO_MENU_PREV || event == U8X8_MSG_GPIO_MENU_UP )
 386              		.loc 1 185 0
 387 010a 5228     		cmp	r0, #82
 388 010c 01D0     		beq	.L22
 389              		.loc 1 185 0 is_stmt 0 discriminator 1
 390 010e 5428     		cmp	r0, #84
 391 0110 E5D1     		bne	.L23
 392              	.L22:
 163:..\..\..\u8g2\u8g2\csrc/u8g2_message.c **** 	  
 393              		.loc 1 163 0 is_stmt 1
 394 0112 002C     		cmp	r4, #0
 395 0114 08BF     		it	eq
 396 0116 3446     		moveq	r4, r6
 397              	.LVL74:
 186:..\..\..\u8g2\u8g2\csrc/u8g2_message.c **** 	    {
 187:..\..\..\u8g2\u8g2\csrc/u8g2_message.c **** 	      if ( cursor == 0 )
 188:..\..\..\u8g2\u8g2\csrc/u8g2_message.c **** 		cursor = button_cnt;
 189:..\..\..\u8g2\u8g2\csrc/u8g2_message.c **** 	      cursor--;
 398              		.loc 1 189 0
 399 0118 013C     		subs	r4, r4, #1
 400              	.LVL75:
 401 011a E4B2     		uxtb	r4, r4
 402              	.LVL76:
 190:..\..\..\u8g2\u8g2\csrc/u8g2_message.c **** 	      break;
 403              		.loc 1 190 0
 404 011c A5E7     		b	.L15
 405              	.LVL77:
 406              	.L19:
 191:..\..\..\u8g2\u8g2\csrc/u8g2_message.c **** 	    }    
 192:..\..\..\u8g2\u8g2\csrc/u8g2_message.c ****       }
 193:..\..\..\u8g2\u8g2\csrc/u8g2_message.c ****   }
 194:..\..\..\u8g2\u8g2\csrc/u8g2_message.c ****   /* never reached */
 195:..\..\..\u8g2\u8g2\csrc/u8g2_message.c ****   //return 0;
 196:..\..\..\u8g2\u8g2\csrc/u8g2_message.c **** }
 407              		.loc 1 196 0
 408 011e 1846     		mov	r0, r3
 409              	.LVL78:
 410 0120 07B0     		add	sp, sp, #28
 411              		.cfi_def_cfa_offset 36
 412              		@ sp needed
 413 0122 BDE8F08F 		pop	{r4, r5, r6, r7, r8, r9, r10, fp, pc}
 414              		.cfi_endproc
 415              	.LFE1:
 416              		.size	u8g2_UserInterfaceMessage, .-u8g2_UserInterfaceMessage
 417              		.text
ARM GAS  C:\Users\jesse\AppData\Local\Temp\ccQeqzZe.s 			page 12


 418              	.Letext0:
 419              		.file 2 "c:\\program files (x86)\\cypress\\psoc creator\\4.4\\psoc creator\\import\\gnu\\arm\\5.4.
 420              		.file 3 "c:\\program files (x86)\\cypress\\psoc creator\\4.4\\psoc creator\\import\\gnu\\arm\\5.4.
 421              		.file 4 "..\\..\\..\\u8g2\\u8g2\\csrc\\u8x8.h"
 422              		.file 5 "..\\..\\..\\u8g2\\u8g2\\csrc\\u8g2.h"