ARM GAS  C:\Users\jesse\AppData\Local\Temp\ccJY2ghI.s 			page 1


   1              		.syntax unified
   2              		.cpu cortex-m3
   3              		.fpu softvfp
   4              		.eabi_attribute 20, 1
   5              		.eabi_attribute 21, 1
   6              		.eabi_attribute 23, 3
   7              		.eabi_attribute 24, 1
   8              		.eabi_attribute 25, 1
   9              		.eabi_attribute 26, 1
  10              		.eabi_attribute 30, 4
  11              		.eabi_attribute 34, 1
  12              		.eabi_attribute 18, 4
  13              		.thumb
  14              		.syntax unified
  15              		.file	"u8g2_bitmap.c"
  16              		.text
  17              	.Ltext0:
  18              		.cfi_sections	.debug_frame
  19              		.section	.text.u8g2_SetBitmapMode,"ax",%progbits
  20              		.align	1
  21              		.global	u8g2_SetBitmapMode
  22              		.thumb
  23              		.thumb_func
  24              		.type	u8g2_SetBitmapMode, %function
  25              	u8g2_SetBitmapMode:
  26              	.LFB0:
  27              		.file 1 "..\\..\\..\\u8g2\\u8g2\\csrc\\u8g2_bitmap.c"
   1:..\..\..\u8g2\u8g2\csrc/u8g2_bitmap.c **** /*
   2:..\..\..\u8g2\u8g2\csrc/u8g2_bitmap.c **** 
   3:..\..\..\u8g2\u8g2\csrc/u8g2_bitmap.c ****   u8g2_bitmap.c
   4:..\..\..\u8g2\u8g2\csrc/u8g2_bitmap.c **** 
   5:..\..\..\u8g2\u8g2\csrc/u8g2_bitmap.c ****   Universal 8bit Graphics Library (https://github.com/olikraus/u8g2/)
   6:..\..\..\u8g2\u8g2\csrc/u8g2_bitmap.c **** 
   7:..\..\..\u8g2\u8g2\csrc/u8g2_bitmap.c ****   Copyright (c) 2016, olikraus@gmail.com
   8:..\..\..\u8g2\u8g2\csrc/u8g2_bitmap.c ****   All rights reserved.
   9:..\..\..\u8g2\u8g2\csrc/u8g2_bitmap.c **** 
  10:..\..\..\u8g2\u8g2\csrc/u8g2_bitmap.c ****   Redistribution and use in source and binary forms, with or without modification, 
  11:..\..\..\u8g2\u8g2\csrc/u8g2_bitmap.c ****   are permitted provided that the following conditions are met:
  12:..\..\..\u8g2\u8g2\csrc/u8g2_bitmap.c **** 
  13:..\..\..\u8g2\u8g2\csrc/u8g2_bitmap.c ****   * Redistributions of source code must retain the above copyright notice, this list 
  14:..\..\..\u8g2\u8g2\csrc/u8g2_bitmap.c ****     of conditions and the following disclaimer.
  15:..\..\..\u8g2\u8g2\csrc/u8g2_bitmap.c ****     
  16:..\..\..\u8g2\u8g2\csrc/u8g2_bitmap.c ****   * Redistributions in binary form must reproduce the above copyright notice, this 
  17:..\..\..\u8g2\u8g2\csrc/u8g2_bitmap.c ****     list of conditions and the following disclaimer in the documentation and/or other 
  18:..\..\..\u8g2\u8g2\csrc/u8g2_bitmap.c ****     materials provided with the distribution.
  19:..\..\..\u8g2\u8g2\csrc/u8g2_bitmap.c **** 
  20:..\..\..\u8g2\u8g2\csrc/u8g2_bitmap.c ****   THIS SOFTWARE IS PROVIDED BY THE COPYRIGHT HOLDERS AND 
  21:..\..\..\u8g2\u8g2\csrc/u8g2_bitmap.c ****   CONTRIBUTORS "AS IS" AND ANY EXPRESS OR IMPLIED WARRANTIES, 
  22:..\..\..\u8g2\u8g2\csrc/u8g2_bitmap.c ****   INCLUDING, BUT NOT LIMITED TO, THE IMPLIED WARRANTIES OF 
  23:..\..\..\u8g2\u8g2\csrc/u8g2_bitmap.c ****   MERCHANTABILITY AND FITNESS FOR A PARTICULAR PURPOSE ARE 
  24:..\..\..\u8g2\u8g2\csrc/u8g2_bitmap.c ****   DISCLAIMED. IN NO EVENT SHALL THE COPYRIGHT HOLDER OR 
  25:..\..\..\u8g2\u8g2\csrc/u8g2_bitmap.c ****   CONTRIBUTORS BE LIABLE FOR ANY DIRECT, INDIRECT, INCIDENTAL, 
  26:..\..\..\u8g2\u8g2\csrc/u8g2_bitmap.c ****   SPECIAL, EXEMPLARY, OR CONSEQUENTIAL DAMAGES (INCLUDING, BUT 
  27:..\..\..\u8g2\u8g2\csrc/u8g2_bitmap.c ****   NOT LIMITED TO, PROCUREMENT OF SUBSTITUTE GOODS OR SERVICES; 
  28:..\..\..\u8g2\u8g2\csrc/u8g2_bitmap.c ****   LOSS OF USE, DATA, OR PROFITS; OR BUSINESS INTERRUPTION) HOWEVER 
  29:..\..\..\u8g2\u8g2\csrc/u8g2_bitmap.c ****   CAUSED AND ON ANY THEORY OF LIABILITY, WHETHER IN CONTRACT, 
  30:..\..\..\u8g2\u8g2\csrc/u8g2_bitmap.c ****   STRICT LIABILITY, OR TORT (INCLUDING NEGLIGENCE OR OTHERWISE) 
ARM GAS  C:\Users\jesse\AppData\Local\Temp\ccJY2ghI.s 			page 2


  31:..\..\..\u8g2\u8g2\csrc/u8g2_bitmap.c ****   ARISING IN ANY WAY OUT OF THE USE OF THIS SOFTWARE, EVEN IF 
  32:..\..\..\u8g2\u8g2\csrc/u8g2_bitmap.c ****   ADVISED OF THE POSSIBILITY OF SUCH DAMAGE.  
  33:..\..\..\u8g2\u8g2\csrc/u8g2_bitmap.c **** 
  34:..\..\..\u8g2\u8g2\csrc/u8g2_bitmap.c **** */
  35:..\..\..\u8g2\u8g2\csrc/u8g2_bitmap.c **** 
  36:..\..\..\u8g2\u8g2\csrc/u8g2_bitmap.c **** #include "u8g2.h"
  37:..\..\..\u8g2\u8g2\csrc/u8g2_bitmap.c **** 
  38:..\..\..\u8g2\u8g2\csrc/u8g2_bitmap.c **** 
  39:..\..\..\u8g2\u8g2\csrc/u8g2_bitmap.c **** void u8g2_SetBitmapMode(u8g2_t *u8g2, uint8_t is_transparent) {
  28              		.loc 1 39 0
  29              		.cfi_startproc
  30              		@ args = 0, pretend = 0, frame = 0
  31              		@ frame_needed = 0, uses_anonymous_args = 0
  32              		@ link register save eliminated.
  33              	.LVL0:
  40:..\..\..\u8g2\u8g2\csrc/u8g2_bitmap.c ****   u8g2->bitmap_transparency = is_transparent;
  34              		.loc 1 40 0
  35 0000 80F89110 		strb	r1, [r0, #145]
  36 0004 7047     		bx	lr
  37              		.cfi_endproc
  38              	.LFE0:
  39              		.size	u8g2_SetBitmapMode, .-u8g2_SetBitmapMode
  40              		.section	.text.u8g2_DrawHorizontalBitmap,"ax",%progbits
  41              		.align	1
  42              		.global	u8g2_DrawHorizontalBitmap
  43              		.thumb
  44              		.thumb_func
  45              		.type	u8g2_DrawHorizontalBitmap, %function
  46              	u8g2_DrawHorizontalBitmap:
  47              	.LFB1:
  41:..\..\..\u8g2\u8g2\csrc/u8g2_bitmap.c **** }
  42:..\..\..\u8g2\u8g2\csrc/u8g2_bitmap.c **** 
  43:..\..\..\u8g2\u8g2\csrc/u8g2_bitmap.c **** /*
  44:..\..\..\u8g2\u8g2\csrc/u8g2_bitmap.c ****   x,y 	Position on the display
  45:..\..\..\u8g2\u8g2\csrc/u8g2_bitmap.c ****   len		Length of bitmap line in pixel. Note: This differs from u8glib which had a bytecount here.
  46:..\..\..\u8g2\u8g2\csrc/u8g2_bitmap.c ****   b		Pointer to the bitmap line.
  47:..\..\..\u8g2\u8g2\csrc/u8g2_bitmap.c ****   Only draw pixels which are set.
  48:..\..\..\u8g2\u8g2\csrc/u8g2_bitmap.c **** */
  49:..\..\..\u8g2\u8g2\csrc/u8g2_bitmap.c **** 
  50:..\..\..\u8g2\u8g2\csrc/u8g2_bitmap.c **** void u8g2_DrawHorizontalBitmap(u8g2_t *u8g2, u8g2_uint_t x, u8g2_uint_t y, u8g2_uint_t len, const u
  51:..\..\..\u8g2\u8g2\csrc/u8g2_bitmap.c **** {
  48              		.loc 1 51 0
  49              		.cfi_startproc
  50              		@ args = 4, pretend = 0, frame = 0
  51              		@ frame_needed = 0, uses_anonymous_args = 0
  52              	.LVL1:
  53 0000 2DE9F74F 		push	{r0, r1, r2, r4, r5, r6, r7, r8, r9, r10, fp, lr}
  54              		.cfi_def_cfa_offset 48
  55              		.cfi_offset 4, -36
  56              		.cfi_offset 5, -32
  57              		.cfi_offset 6, -28
  58              		.cfi_offset 7, -24
  59              		.cfi_offset 8, -20
  60              		.cfi_offset 9, -16
  61              		.cfi_offset 10, -12
  62              		.cfi_offset 11, -8
  63              		.cfi_offset 14, -4
ARM GAS  C:\Users\jesse\AppData\Local\Temp\ccJY2ghI.s 			page 3


  52:..\..\..\u8g2\u8g2\csrc/u8g2_bitmap.c ****   uint8_t mask;
  53:..\..\..\u8g2\u8g2\csrc/u8g2_bitmap.c ****   uint8_t color = u8g2->draw_color;
  54:..\..\..\u8g2\u8g2\csrc/u8g2_bitmap.c ****   uint8_t ncolor = (color == 0 ? 1 : 0);
  55:..\..\..\u8g2\u8g2\csrc/u8g2_bitmap.c **** 
  56:..\..\..\u8g2\u8g2\csrc/u8g2_bitmap.c **** #ifdef U8G2_WITH_INTERSECTION
  57:..\..\..\u8g2\u8g2\csrc/u8g2_bitmap.c ****   if ( u8g2_IsIntersection(u8g2, x, y, x+len, y+1) == 0 ) 
  64              		.loc 1 57 0
  65 0004 0B44     		add	r3, r3, r1
  66              	.LVL2:
  67 0006 9FB2     		uxth	r7, r3
  68 0008 531C     		adds	r3, r2, #1
  69 000a 9BB2     		uxth	r3, r3
  53:..\..\..\u8g2\u8g2\csrc/u8g2_bitmap.c ****   uint8_t ncolor = (color == 0 ? 1 : 0);
  70              		.loc 1 53 0
  71 000c 90F89280 		ldrb	r8, [r0, #146]	@ zero_extendqisi2
  72              		.loc 1 57 0
  73 0010 0093     		str	r3, [sp]
  74 0012 3B46     		mov	r3, r7
  51:..\..\..\u8g2\u8g2\csrc/u8g2_bitmap.c ****   uint8_t mask;
  75              		.loc 1 51 0
  76 0014 0546     		mov	r5, r0
  77 0016 0C46     		mov	r4, r1
  78 0018 9146     		mov	r9, r2
  79              	.LVL3:
  80 001a DDF830A0 		ldr	r10, [sp, #48]
  81              		.loc 1 57 0
  82 001e FFF7FEFF 		bl	u8g2_IsIntersection
  83              	.LVL4:
  84 0022 38B3     		cbz	r0, .L2
  85 0024 8026     		movs	r6, #128
  58:..\..\..\u8g2\u8g2\csrc/u8g2_bitmap.c ****     return;
  59:..\..\..\u8g2\u8g2\csrc/u8g2_bitmap.c **** #endif /* U8G2_WITH_INTERSECTION */
  60:..\..\..\u8g2\u8g2\csrc/u8g2_bitmap.c ****   
  61:..\..\..\u8g2\u8g2\csrc/u8g2_bitmap.c ****   mask = 128;
  62:..\..\..\u8g2\u8g2\csrc/u8g2_bitmap.c ****   while(len > 0)
  63:..\..\..\u8g2\u8g2\csrc/u8g2_bitmap.c ****   {
  64:..\..\..\u8g2\u8g2\csrc/u8g2_bitmap.c ****     if ( *b & mask ) {
  65:..\..\..\u8g2\u8g2\csrc/u8g2_bitmap.c ****       u8g2->draw_color = color;
  66:..\..\..\u8g2\u8g2\csrc/u8g2_bitmap.c ****       u8g2_DrawHVLine(u8g2, x, y, 1, 0);
  86              		.loc 1 66 0
  87 0026 4FF0000B 		mov	fp, #0
  88              	.LVL5:
  89              	.L4:
  62:..\..\..\u8g2\u8g2\csrc/u8g2_bitmap.c ****   {
  90              		.loc 1 62 0
  91 002a BC42     		cmp	r4, r7
  92 002c 20D0     		beq	.L14
  64:..\..\..\u8g2\u8g2\csrc/u8g2_bitmap.c ****       u8g2->draw_color = color;
  93              		.loc 1 64 0
  94 002e 9AF80030 		ldrb	r3, [r10]	@ zero_extendqisi2
  95 0032 1E42     		tst	r6, r3
  96 0034 04D0     		beq	.L5
  65:..\..\..\u8g2\u8g2\csrc/u8g2_bitmap.c ****       u8g2_DrawHVLine(u8g2, x, y, 1, 0);
  97              		.loc 1 65 0
  98 0036 85F89280 		strb	r8, [r5, #146]
  99              		.loc 1 66 0
 100 003a CDF800B0 		str	fp, [sp]
ARM GAS  C:\Users\jesse\AppData\Local\Temp\ccJY2ghI.s 			page 4


 101 003e 08E0     		b	.L12
 102              	.L5:
  67:..\..\..\u8g2\u8g2\csrc/u8g2_bitmap.c ****     } else if ( u8g2->bitmap_transparency == 0 ) {
 103              		.loc 1 67 0
 104 0040 95F89120 		ldrb	r2, [r5, #145]	@ zero_extendqisi2
 105 0044 5AB9     		cbnz	r2, .L6
  68:..\..\..\u8g2\u8g2\csrc/u8g2_bitmap.c ****       u8g2->draw_color = ncolor;
 106              		.loc 1 68 0
 107 0046 B8FA88F3 		clz	r3, r8
 108 004a 5B09     		lsrs	r3, r3, #5
 109 004c 85F89230 		strb	r3, [r5, #146]
  69:..\..\..\u8g2\u8g2\csrc/u8g2_bitmap.c ****       u8g2_DrawHVLine(u8g2, x, y, 1, 0);
 110              		.loc 1 69 0
 111 0050 0092     		str	r2, [sp]
 112              	.L12:
 113 0052 0123     		movs	r3, #1
 114 0054 4A46     		mov	r2, r9
 115 0056 2146     		mov	r1, r4
 116 0058 2846     		mov	r0, r5
 117 005a FFF7FEFF 		bl	u8g2_DrawHVLine
 118              	.LVL6:
 119              	.L6:
  70:..\..\..\u8g2\u8g2\csrc/u8g2_bitmap.c ****     }
  71:..\..\..\u8g2\u8g2\csrc/u8g2_bitmap.c **** 
  72:..\..\..\u8g2\u8g2\csrc/u8g2_bitmap.c ****     x++;
  73:..\..\..\u8g2\u8g2\csrc/u8g2_bitmap.c ****     mask >>= 1;
  74:..\..\..\u8g2\u8g2\csrc/u8g2_bitmap.c ****     if ( mask == 0 )
 120              		.loc 1 74 0
 121 005e 7608     		lsrs	r6, r6, #1
 122              	.LVL7:
  72:..\..\..\u8g2\u8g2\csrc/u8g2_bitmap.c ****     mask >>= 1;
 123              		.loc 1 72 0
 124 0060 04F10104 		add	r4, r4, #1
 125              	.LVL8:
 126 0064 A4B2     		uxth	r4, r4
 127              	.LVL9:
  75:..\..\..\u8g2\u8g2\csrc/u8g2_bitmap.c ****     {
  76:..\..\..\u8g2\u8g2\csrc/u8g2_bitmap.c ****       mask = 128;
  77:..\..\..\u8g2\u8g2\csrc/u8g2_bitmap.c ****       b++;
 128              		.loc 1 77 0
 129 0066 04BF     		itt	eq
 130 0068 0AF1010A 		addeq	r10, r10, #1
 131              	.LVL10:
  76:..\..\..\u8g2\u8g2\csrc/u8g2_bitmap.c ****       b++;
 132              		.loc 1 76 0
 133 006c 8026     		moveq	r6, #128
 134 006e DCE7     		b	.L4
 135              	.LVL11:
 136              	.L14:
  78:..\..\..\u8g2\u8g2\csrc/u8g2_bitmap.c ****     }
  79:..\..\..\u8g2\u8g2\csrc/u8g2_bitmap.c ****     len--;
  80:..\..\..\u8g2\u8g2\csrc/u8g2_bitmap.c ****   }
  81:..\..\..\u8g2\u8g2\csrc/u8g2_bitmap.c ****   u8g2->draw_color = color;
 137              		.loc 1 81 0
 138 0070 85F89280 		strb	r8, [r5, #146]
 139              	.LVL12:
 140              	.L2:
ARM GAS  C:\Users\jesse\AppData\Local\Temp\ccJY2ghI.s 			page 5


  82:..\..\..\u8g2\u8g2\csrc/u8g2_bitmap.c **** }
 141              		.loc 1 82 0
 142 0074 03B0     		add	sp, sp, #12
 143              		.cfi_def_cfa_offset 36
 144              		@ sp needed
 145 0076 BDE8F08F 		pop	{r4, r5, r6, r7, r8, r9, r10, fp, pc}
 146              		.cfi_endproc
 147              	.LFE1:
 148              		.size	u8g2_DrawHorizontalBitmap, .-u8g2_DrawHorizontalBitmap
 149              		.section	.text.u8g2_DrawBitmap,"ax",%progbits
 150              		.align	1
 151              		.global	u8g2_DrawBitmap
 152              		.thumb
 153              		.thumb_func
 154              		.type	u8g2_DrawBitmap, %function
 155              	u8g2_DrawBitmap:
 156              	.LFB2:
  83:..\..\..\u8g2\u8g2\csrc/u8g2_bitmap.c **** 
  84:..\..\..\u8g2\u8g2\csrc/u8g2_bitmap.c **** 
  85:..\..\..\u8g2\u8g2\csrc/u8g2_bitmap.c **** /* u8glib compatible bitmap draw function */
  86:..\..\..\u8g2\u8g2\csrc/u8g2_bitmap.c **** void u8g2_DrawBitmap(u8g2_t *u8g2, u8g2_uint_t x, u8g2_uint_t y, u8g2_uint_t cnt, u8g2_uint_t h, co
  87:..\..\..\u8g2\u8g2\csrc/u8g2_bitmap.c **** {
 157              		.loc 1 87 0
 158              		.cfi_startproc
 159              		@ args = 8, pretend = 0, frame = 0
 160              		@ frame_needed = 0, uses_anonymous_args = 0
 161              	.LVL13:
 162 0000 2DE9F347 		push	{r0, r1, r4, r5, r6, r7, r8, r9, r10, lr}
 163              		.cfi_def_cfa_offset 40
 164              		.cfi_offset 4, -32
 165              		.cfi_offset 5, -28
 166              		.cfi_offset 6, -24
 167              		.cfi_offset 7, -20
 168              		.cfi_offset 8, -16
 169              		.cfi_offset 9, -12
 170              		.cfi_offset 10, -8
 171              		.cfi_offset 14, -4
  88:..\..\..\u8g2\u8g2\csrc/u8g2_bitmap.c ****   u8g2_uint_t w;
  89:..\..\..\u8g2\u8g2\csrc/u8g2_bitmap.c ****   w = cnt;
  90:..\..\..\u8g2\u8g2\csrc/u8g2_bitmap.c ****   w *= 8;
  91:..\..\..\u8g2\u8g2\csrc/u8g2_bitmap.c **** #ifdef U8G2_WITH_INTERSECTION
  92:..\..\..\u8g2\u8g2\csrc/u8g2_bitmap.c ****   if ( u8g2_IsIntersection(u8g2, x, y, x+w, y+h) == 0 ) 
 172              		.loc 1 92 0
 173 0004 BDF82850 		ldrh	r5, [sp, #40]
  90:..\..\..\u8g2\u8g2\csrc/u8g2_bitmap.c **** #ifdef U8G2_WITH_INTERSECTION
 174              		.loc 1 90 0
 175 0008 DE00     		lsls	r6, r3, #3
 176 000a B6B2     		uxth	r6, r6
 177              		.loc 1 92 0
 178 000c 1544     		add	r5, r5, r2
  87:..\..\..\u8g2\u8g2\csrc/u8g2_bitmap.c ****   u8g2_uint_t w;
 179              		.loc 1 87 0
 180 000e 9946     		mov	r9, r3
 181              	.LVL14:
 182              		.loc 1 92 0
 183 0010 ADB2     		uxth	r5, r5
 184 0012 7318     		adds	r3, r6, r1
ARM GAS  C:\Users\jesse\AppData\Local\Temp\ccJY2ghI.s 			page 6


 185              	.LVL15:
 186 0014 0095     		str	r5, [sp]
 187 0016 9BB2     		uxth	r3, r3
  87:..\..\..\u8g2\u8g2\csrc/u8g2_bitmap.c ****   u8g2_uint_t w;
 188              		.loc 1 87 0
 189 0018 8246     		mov	r10, r0
 190 001a 8846     		mov	r8, r1
 191 001c 1446     		mov	r4, r2
 192 001e 0B9F     		ldr	r7, [sp, #44]
 193              		.loc 1 92 0
 194 0020 FFF7FEFF 		bl	u8g2_IsIntersection
 195              	.LVL16:
 196 0024 60B1     		cbz	r0, .L15
 197              	.LVL17:
 198              	.L19:
  93:..\..\..\u8g2\u8g2\csrc/u8g2_bitmap.c ****     return;
  94:..\..\..\u8g2\u8g2\csrc/u8g2_bitmap.c **** #endif /* U8G2_WITH_INTERSECTION */
  95:..\..\..\u8g2\u8g2\csrc/u8g2_bitmap.c ****   
  96:..\..\..\u8g2\u8g2\csrc/u8g2_bitmap.c ****   while( h > 0 )
 199              		.loc 1 96 0
 200 0026 AC42     		cmp	r4, r5
 201 0028 0AD0     		beq	.L15
  97:..\..\..\u8g2\u8g2\csrc/u8g2_bitmap.c ****   {
  98:..\..\..\u8g2\u8g2\csrc/u8g2_bitmap.c ****     u8g2_DrawHorizontalBitmap(u8g2, x, y, w, bitmap);
 202              		.loc 1 98 0
 203 002a 0097     		str	r7, [sp]
 204 002c 2246     		mov	r2, r4
 205 002e 3346     		mov	r3, r6
 206 0030 4146     		mov	r1, r8
 207 0032 5046     		mov	r0, r10
  99:..\..\..\u8g2\u8g2\csrc/u8g2_bitmap.c ****     bitmap += cnt;
 100:..\..\..\u8g2\u8g2\csrc/u8g2_bitmap.c ****     y++;
 208              		.loc 1 100 0
 209 0034 0134     		adds	r4, r4, #1
 210              	.LVL18:
  98:..\..\..\u8g2\u8g2\csrc/u8g2_bitmap.c ****     bitmap += cnt;
 211              		.loc 1 98 0
 212 0036 FFF7FEFF 		bl	u8g2_DrawHorizontalBitmap
 213              	.LVL19:
 214 003a 4F44     		add	r7, r7, r9
 215              	.LVL20:
 216              		.loc 1 100 0
 217 003c A4B2     		uxth	r4, r4
 218              	.LVL21:
 219 003e F2E7     		b	.L19
 220              	.LVL22:
 221              	.L15:
 101:..\..\..\u8g2\u8g2\csrc/u8g2_bitmap.c ****     h--;
 102:..\..\..\u8g2\u8g2\csrc/u8g2_bitmap.c ****   }
 103:..\..\..\u8g2\u8g2\csrc/u8g2_bitmap.c **** }
 222              		.loc 1 103 0
 223 0040 02B0     		add	sp, sp, #8
 224              		.cfi_def_cfa_offset 32
 225              		@ sp needed
 226 0042 BDE8F087 		pop	{r4, r5, r6, r7, r8, r9, r10, pc}
 227              		.cfi_endproc
 228              	.LFE2:
ARM GAS  C:\Users\jesse\AppData\Local\Temp\ccJY2ghI.s 			page 7


 229              		.size	u8g2_DrawBitmap, .-u8g2_DrawBitmap
 230              		.section	.text.u8g2_DrawHXBMP,"ax",%progbits
 231              		.align	1
 232              		.global	u8g2_DrawHXBMP
 233              		.thumb
 234              		.thumb_func
 235              		.type	u8g2_DrawHXBMP, %function
 236              	u8g2_DrawHXBMP:
 237              	.LFB5:
 104:..\..\..\u8g2\u8g2\csrc/u8g2_bitmap.c **** 
 105:..\..\..\u8g2\u8g2\csrc/u8g2_bitmap.c **** 
 106:..\..\..\u8g2\u8g2\csrc/u8g2_bitmap.c **** 
 107:..\..\..\u8g2\u8g2\csrc/u8g2_bitmap.c **** void u8g2_DrawHXBM(u8g2_t *u8g2, u8g2_uint_t x, u8g2_uint_t y, u8g2_uint_t len, const uint8_t *b)
 108:..\..\..\u8g2\u8g2\csrc/u8g2_bitmap.c **** {
 109:..\..\..\u8g2\u8g2\csrc/u8g2_bitmap.c ****   uint8_t mask;
 110:..\..\..\u8g2\u8g2\csrc/u8g2_bitmap.c ****   uint8_t color = u8g2->draw_color;
 111:..\..\..\u8g2\u8g2\csrc/u8g2_bitmap.c ****   uint8_t ncolor = (color == 0 ? 1 : 0);
 112:..\..\..\u8g2\u8g2\csrc/u8g2_bitmap.c **** #ifdef U8G2_WITH_INTERSECTION
 113:..\..\..\u8g2\u8g2\csrc/u8g2_bitmap.c ****   if ( u8g2_IsIntersection(u8g2, x, y, x+len, y+1) == 0 ) 
 114:..\..\..\u8g2\u8g2\csrc/u8g2_bitmap.c ****     return;
 115:..\..\..\u8g2\u8g2\csrc/u8g2_bitmap.c **** #endif /* U8G2_WITH_INTERSECTION */
 116:..\..\..\u8g2\u8g2\csrc/u8g2_bitmap.c ****   
 117:..\..\..\u8g2\u8g2\csrc/u8g2_bitmap.c ****   mask = 1;
 118:..\..\..\u8g2\u8g2\csrc/u8g2_bitmap.c ****   while(len > 0) {
 119:..\..\..\u8g2\u8g2\csrc/u8g2_bitmap.c ****     if ( *b & mask ) {
 120:..\..\..\u8g2\u8g2\csrc/u8g2_bitmap.c ****       u8g2->draw_color = color;
 121:..\..\..\u8g2\u8g2\csrc/u8g2_bitmap.c ****       u8g2_DrawHVLine(u8g2, x, y, 1, 0);
 122:..\..\..\u8g2\u8g2\csrc/u8g2_bitmap.c ****     } else if ( u8g2->bitmap_transparency == 0 ) {
 123:..\..\..\u8g2\u8g2\csrc/u8g2_bitmap.c ****       u8g2->draw_color = ncolor;
 124:..\..\..\u8g2\u8g2\csrc/u8g2_bitmap.c ****       u8g2_DrawHVLine(u8g2, x, y, 1, 0);
 125:..\..\..\u8g2\u8g2\csrc/u8g2_bitmap.c ****     }
 126:..\..\..\u8g2\u8g2\csrc/u8g2_bitmap.c ****     x++;
 127:..\..\..\u8g2\u8g2\csrc/u8g2_bitmap.c ****     mask <<= 1;
 128:..\..\..\u8g2\u8g2\csrc/u8g2_bitmap.c ****     if ( mask == 0 )
 129:..\..\..\u8g2\u8g2\csrc/u8g2_bitmap.c ****     {
 130:..\..\..\u8g2\u8g2\csrc/u8g2_bitmap.c ****       mask = 1;
 131:..\..\..\u8g2\u8g2\csrc/u8g2_bitmap.c ****       b++;
 132:..\..\..\u8g2\u8g2\csrc/u8g2_bitmap.c ****     }
 133:..\..\..\u8g2\u8g2\csrc/u8g2_bitmap.c ****     len--;
 134:..\..\..\u8g2\u8g2\csrc/u8g2_bitmap.c ****   }
 135:..\..\..\u8g2\u8g2\csrc/u8g2_bitmap.c ****   u8g2->draw_color = color;
 136:..\..\..\u8g2\u8g2\csrc/u8g2_bitmap.c **** }
 137:..\..\..\u8g2\u8g2\csrc/u8g2_bitmap.c **** 
 138:..\..\..\u8g2\u8g2\csrc/u8g2_bitmap.c **** 
 139:..\..\..\u8g2\u8g2\csrc/u8g2_bitmap.c **** void u8g2_DrawXBM(u8g2_t *u8g2, u8g2_uint_t x, u8g2_uint_t y, u8g2_uint_t w, u8g2_uint_t h, const u
 140:..\..\..\u8g2\u8g2\csrc/u8g2_bitmap.c **** {
 141:..\..\..\u8g2\u8g2\csrc/u8g2_bitmap.c ****   u8g2_uint_t blen;
 142:..\..\..\u8g2\u8g2\csrc/u8g2_bitmap.c ****   blen = w;
 143:..\..\..\u8g2\u8g2\csrc/u8g2_bitmap.c ****   blen += 7;
 144:..\..\..\u8g2\u8g2\csrc/u8g2_bitmap.c ****   blen >>= 3;
 145:..\..\..\u8g2\u8g2\csrc/u8g2_bitmap.c **** #ifdef U8G2_WITH_INTERSECTION
 146:..\..\..\u8g2\u8g2\csrc/u8g2_bitmap.c ****   if ( u8g2_IsIntersection(u8g2, x, y, x+w, y+h) == 0 ) 
 147:..\..\..\u8g2\u8g2\csrc/u8g2_bitmap.c ****     return;
 148:..\..\..\u8g2\u8g2\csrc/u8g2_bitmap.c **** #endif /* U8G2_WITH_INTERSECTION */
 149:..\..\..\u8g2\u8g2\csrc/u8g2_bitmap.c ****   
 150:..\..\..\u8g2\u8g2\csrc/u8g2_bitmap.c ****   while( h > 0 )
 151:..\..\..\u8g2\u8g2\csrc/u8g2_bitmap.c ****   {
ARM GAS  C:\Users\jesse\AppData\Local\Temp\ccJY2ghI.s 			page 8


 152:..\..\..\u8g2\u8g2\csrc/u8g2_bitmap.c ****     u8g2_DrawHXBM(u8g2, x, y, w, bitmap);
 153:..\..\..\u8g2\u8g2\csrc/u8g2_bitmap.c ****     bitmap += blen;
 154:..\..\..\u8g2\u8g2\csrc/u8g2_bitmap.c ****     y++;
 155:..\..\..\u8g2\u8g2\csrc/u8g2_bitmap.c ****     h--;
 156:..\..\..\u8g2\u8g2\csrc/u8g2_bitmap.c ****   }
 157:..\..\..\u8g2\u8g2\csrc/u8g2_bitmap.c **** }
 158:..\..\..\u8g2\u8g2\csrc/u8g2_bitmap.c **** 
 159:..\..\..\u8g2\u8g2\csrc/u8g2_bitmap.c **** 
 160:..\..\..\u8g2\u8g2\csrc/u8g2_bitmap.c **** 
 161:..\..\..\u8g2\u8g2\csrc/u8g2_bitmap.c **** 
 162:..\..\..\u8g2\u8g2\csrc/u8g2_bitmap.c **** 
 163:..\..\..\u8g2\u8g2\csrc/u8g2_bitmap.c **** 
 164:..\..\..\u8g2\u8g2\csrc/u8g2_bitmap.c **** void u8g2_DrawHXBMP(u8g2_t *u8g2, u8g2_uint_t x, u8g2_uint_t y, u8g2_uint_t len, const uint8_t *b)
 165:..\..\..\u8g2\u8g2\csrc/u8g2_bitmap.c **** {
 238              		.loc 1 165 0
 239              		.cfi_startproc
 240              		@ args = 4, pretend = 0, frame = 0
 241              		@ frame_needed = 0, uses_anonymous_args = 0
 242              	.LVL23:
 243 0000 2DE9F74F 		push	{r0, r1, r2, r4, r5, r6, r7, r8, r9, r10, fp, lr}
 244              		.cfi_def_cfa_offset 48
 245              		.cfi_offset 4, -36
 246              		.cfi_offset 5, -32
 247              		.cfi_offset 6, -28
 248              		.cfi_offset 7, -24
 249              		.cfi_offset 8, -20
 250              		.cfi_offset 9, -16
 251              		.cfi_offset 10, -12
 252              		.cfi_offset 11, -8
 253              		.cfi_offset 14, -4
 166:..\..\..\u8g2\u8g2\csrc/u8g2_bitmap.c ****   uint8_t mask;
 167:..\..\..\u8g2\u8g2\csrc/u8g2_bitmap.c ****   uint8_t color = u8g2->draw_color;
 168:..\..\..\u8g2\u8g2\csrc/u8g2_bitmap.c ****   uint8_t ncolor = (color == 0 ? 1 : 0);
 169:..\..\..\u8g2\u8g2\csrc/u8g2_bitmap.c **** #ifdef U8G2_WITH_INTERSECTION
 170:..\..\..\u8g2\u8g2\csrc/u8g2_bitmap.c ****   if ( u8g2_IsIntersection(u8g2, x, y, x+len, y+1) == 0 ) 
 254              		.loc 1 170 0
 255 0004 0B44     		add	r3, r3, r1
 256              	.LVL24:
 257 0006 9FB2     		uxth	r7, r3
 258 0008 531C     		adds	r3, r2, #1
 259 000a 9BB2     		uxth	r3, r3
 167:..\..\..\u8g2\u8g2\csrc/u8g2_bitmap.c ****   uint8_t ncolor = (color == 0 ? 1 : 0);
 260              		.loc 1 167 0
 261 000c 90F89280 		ldrb	r8, [r0, #146]	@ zero_extendqisi2
 262              		.loc 1 170 0
 263 0010 0093     		str	r3, [sp]
 264 0012 3B46     		mov	r3, r7
 165:..\..\..\u8g2\u8g2\csrc/u8g2_bitmap.c ****   uint8_t mask;
 265              		.loc 1 165 0
 266 0014 0546     		mov	r5, r0
 267 0016 0C46     		mov	r4, r1
 268 0018 9146     		mov	r9, r2
 269              	.LVL25:
 270 001a DDF830A0 		ldr	r10, [sp, #48]
 271              		.loc 1 170 0
 272 001e FFF7FEFF 		bl	u8g2_IsIntersection
 273              	.LVL26:
ARM GAS  C:\Users\jesse\AppData\Local\Temp\ccJY2ghI.s 			page 9


 274 0022 48B3     		cbz	r0, .L20
 275 0024 0126     		movs	r6, #1
 171:..\..\..\u8g2\u8g2\csrc/u8g2_bitmap.c ****     return;
 172:..\..\..\u8g2\u8g2\csrc/u8g2_bitmap.c **** #endif /* U8G2_WITH_INTERSECTION */
 173:..\..\..\u8g2\u8g2\csrc/u8g2_bitmap.c ****   
 174:..\..\..\u8g2\u8g2\csrc/u8g2_bitmap.c ****   mask = 1;
 175:..\..\..\u8g2\u8g2\csrc/u8g2_bitmap.c ****   while(len > 0)
 176:..\..\..\u8g2\u8g2\csrc/u8g2_bitmap.c ****   {
 177:..\..\..\u8g2\u8g2\csrc/u8g2_bitmap.c ****     if( u8x8_pgm_read(b) & mask ) {
 178:..\..\..\u8g2\u8g2\csrc/u8g2_bitmap.c ****       u8g2->draw_color = color;
 179:..\..\..\u8g2\u8g2\csrc/u8g2_bitmap.c ****       u8g2_DrawHVLine(u8g2, x, y, 1, 0);
 276              		.loc 1 179 0
 277 0026 4FF0000B 		mov	fp, #0
 278              	.LVL27:
 279              	.L22:
 175:..\..\..\u8g2\u8g2\csrc/u8g2_bitmap.c ****   {
 280              		.loc 1 175 0
 281 002a BC42     		cmp	r4, r7
 282 002c 22D0     		beq	.L31
 177:..\..\..\u8g2\u8g2\csrc/u8g2_bitmap.c ****       u8g2->draw_color = color;
 283              		.loc 1 177 0
 284 002e 9AF80030 		ldrb	r3, [r10]	@ zero_extendqisi2
 285 0032 1E42     		tst	r6, r3
 286 0034 04D0     		beq	.L23
 178:..\..\..\u8g2\u8g2\csrc/u8g2_bitmap.c ****       u8g2_DrawHVLine(u8g2, x, y, 1, 0);
 287              		.loc 1 178 0
 288 0036 85F89280 		strb	r8, [r5, #146]
 289              		.loc 1 179 0
 290 003a CDF800B0 		str	fp, [sp]
 291 003e 08E0     		b	.L30
 292              	.L23:
 180:..\..\..\u8g2\u8g2\csrc/u8g2_bitmap.c ****     } else if( u8g2->bitmap_transparency == 0 ) {
 293              		.loc 1 180 0
 294 0040 95F89120 		ldrb	r2, [r5, #145]	@ zero_extendqisi2
 295 0044 5AB9     		cbnz	r2, .L24
 181:..\..\..\u8g2\u8g2\csrc/u8g2_bitmap.c ****       u8g2->draw_color = ncolor;
 296              		.loc 1 181 0
 297 0046 B8FA88F3 		clz	r3, r8
 298 004a 5B09     		lsrs	r3, r3, #5
 299 004c 85F89230 		strb	r3, [r5, #146]
 182:..\..\..\u8g2\u8g2\csrc/u8g2_bitmap.c ****       u8g2_DrawHVLine(u8g2, x, y, 1, 0);
 300              		.loc 1 182 0
 301 0050 0092     		str	r2, [sp]
 302              	.L30:
 303 0052 0123     		movs	r3, #1
 304 0054 4A46     		mov	r2, r9
 305 0056 2146     		mov	r1, r4
 306 0058 2846     		mov	r0, r5
 307 005a FFF7FEFF 		bl	u8g2_DrawHVLine
 308              	.LVL28:
 309              	.L24:
 183:..\..\..\u8g2\u8g2\csrc/u8g2_bitmap.c ****     }
 184:..\..\..\u8g2\u8g2\csrc/u8g2_bitmap.c ****    
 185:..\..\..\u8g2\u8g2\csrc/u8g2_bitmap.c ****     x++;
 186:..\..\..\u8g2\u8g2\csrc/u8g2_bitmap.c ****     mask <<= 1;
 310              		.loc 1 186 0
 311 005e 7600     		lsls	r6, r6, #1
ARM GAS  C:\Users\jesse\AppData\Local\Temp\ccJY2ghI.s 			page 10


 312              	.LVL29:
 187:..\..\..\u8g2\u8g2\csrc/u8g2_bitmap.c ****     if ( mask == 0 )
 313              		.loc 1 187 0
 314 0060 16F0FF06 		ands	r6, r6, #255
 185:..\..\..\u8g2\u8g2\csrc/u8g2_bitmap.c ****     mask <<= 1;
 315              		.loc 1 185 0
 316 0064 04F10104 		add	r4, r4, #1
 317              	.LVL30:
 318 0068 A4B2     		uxth	r4, r4
 319              	.LVL31:
 188:..\..\..\u8g2\u8g2\csrc/u8g2_bitmap.c ****     {
 189:..\..\..\u8g2\u8g2\csrc/u8g2_bitmap.c ****       mask = 1;
 190:..\..\..\u8g2\u8g2\csrc/u8g2_bitmap.c ****       b++;
 320              		.loc 1 190 0
 321 006a 04BF     		itt	eq
 322 006c 0AF1010A 		addeq	r10, r10, #1
 323              	.LVL32:
 189:..\..\..\u8g2\u8g2\csrc/u8g2_bitmap.c ****       b++;
 324              		.loc 1 189 0
 325 0070 0126     		moveq	r6, #1
 326 0072 DAE7     		b	.L22
 327              	.LVL33:
 328              	.L31:
 191:..\..\..\u8g2\u8g2\csrc/u8g2_bitmap.c ****     }
 192:..\..\..\u8g2\u8g2\csrc/u8g2_bitmap.c ****     len--;
 193:..\..\..\u8g2\u8g2\csrc/u8g2_bitmap.c ****   }
 194:..\..\..\u8g2\u8g2\csrc/u8g2_bitmap.c ****   u8g2->draw_color = color;
 329              		.loc 1 194 0
 330 0074 85F89280 		strb	r8, [r5, #146]
 331              	.LVL34:
 332              	.L20:
 195:..\..\..\u8g2\u8g2\csrc/u8g2_bitmap.c **** }
 333              		.loc 1 195 0
 334 0078 03B0     		add	sp, sp, #12
 335              		.cfi_def_cfa_offset 36
 336              		@ sp needed
 337 007a BDE8F08F 		pop	{r4, r5, r6, r7, r8, r9, r10, fp, pc}
 338              		.cfi_endproc
 339              	.LFE5:
 340              		.size	u8g2_DrawHXBMP, .-u8g2_DrawHXBMP
 341              		.section	.text.u8g2_DrawHXBM,"ax",%progbits
 342              		.align	1
 343              		.global	u8g2_DrawHXBM
 344              		.thumb
 345              		.thumb_func
 346              		.type	u8g2_DrawHXBM, %function
 347              	u8g2_DrawHXBM:
 348              	.LFB10:
 349              		.cfi_startproc
 350              		@ args = 4, pretend = 0, frame = 0
 351              		@ frame_needed = 0, uses_anonymous_args = 0
 352              		@ link register save eliminated.
 353 0000 FFF7FEBF 		b	u8g2_DrawHXBMP
 354              		.cfi_endproc
 355              	.LFE10:
 356              		.size	u8g2_DrawHXBM, .-u8g2_DrawHXBM
 357              		.section	.text.u8g2_DrawXBMP,"ax",%progbits
ARM GAS  C:\Users\jesse\AppData\Local\Temp\ccJY2ghI.s 			page 11


 358              		.align	1
 359              		.global	u8g2_DrawXBMP
 360              		.thumb
 361              		.thumb_func
 362              		.type	u8g2_DrawXBMP, %function
 363              	u8g2_DrawXBMP:
 364              	.LFB6:
 196:..\..\..\u8g2\u8g2\csrc/u8g2_bitmap.c **** 
 197:..\..\..\u8g2\u8g2\csrc/u8g2_bitmap.c **** 
 198:..\..\..\u8g2\u8g2\csrc/u8g2_bitmap.c **** void u8g2_DrawXBMP(u8g2_t *u8g2, u8g2_uint_t x, u8g2_uint_t y, u8g2_uint_t w, u8g2_uint_t h, const 
 199:..\..\..\u8g2\u8g2\csrc/u8g2_bitmap.c **** {
 365              		.loc 1 199 0
 366              		.cfi_startproc
 367              		@ args = 8, pretend = 0, frame = 0
 368              		@ frame_needed = 0, uses_anonymous_args = 0
 369              	.LVL35:
 370              		.loc 1 199 0
 371 0000 2DE9F347 		push	{r0, r1, r4, r5, r6, r7, r8, r9, r10, lr}
 372              		.cfi_def_cfa_offset 40
 373              		.cfi_offset 4, -32
 374              		.cfi_offset 5, -28
 375              		.cfi_offset 6, -24
 376              		.cfi_offset 7, -20
 377              		.cfi_offset 8, -16
 378              		.cfi_offset 9, -12
 379              		.cfi_offset 10, -8
 380              		.cfi_offset 14, -4
 200:..\..\..\u8g2\u8g2\csrc/u8g2_bitmap.c ****   u8g2_uint_t blen;
 201:..\..\..\u8g2\u8g2\csrc/u8g2_bitmap.c ****   blen = w;
 202:..\..\..\u8g2\u8g2\csrc/u8g2_bitmap.c ****   blen += 7;
 203:..\..\..\u8g2\u8g2\csrc/u8g2_bitmap.c ****   blen >>= 3;
 204:..\..\..\u8g2\u8g2\csrc/u8g2_bitmap.c **** #ifdef U8G2_WITH_INTERSECTION
 205:..\..\..\u8g2\u8g2\csrc/u8g2_bitmap.c ****   if ( u8g2_IsIntersection(u8g2, x, y, x+w, y+h) == 0 ) 
 381              		.loc 1 205 0
 382 0004 BDF82850 		ldrh	r5, [sp, #40]
 199:..\..\..\u8g2\u8g2\csrc/u8g2_bitmap.c ****   u8g2_uint_t blen;
 383              		.loc 1 199 0
 384 0008 1F46     		mov	r7, r3
 385              	.LVL36:
 386              		.loc 1 205 0
 387 000a 1544     		add	r5, r5, r2
 388 000c ADB2     		uxth	r5, r5
 389 000e 0B44     		add	r3, r3, r1
 390              	.LVL37:
 391 0010 0095     		str	r5, [sp]
 392 0012 9BB2     		uxth	r3, r3
 199:..\..\..\u8g2\u8g2\csrc/u8g2_bitmap.c ****   u8g2_uint_t blen;
 393              		.loc 1 199 0
 394 0014 8246     		mov	r10, r0
 395 0016 8946     		mov	r9, r1
 396 0018 1446     		mov	r4, r2
 397 001a DDF82C80 		ldr	r8, [sp, #44]
 398              		.loc 1 205 0
 399 001e FFF7FEFF 		bl	u8g2_IsIntersection
 400              	.LVL38:
 401 0022 80B1     		cbz	r0, .L33
 202:..\..\..\u8g2\u8g2\csrc/u8g2_bitmap.c ****   blen >>= 3;
ARM GAS  C:\Users\jesse\AppData\Local\Temp\ccJY2ghI.s 			page 12


 402              		.loc 1 202 0
 403 0024 FE1D     		adds	r6, r7, #7
 206:..\..\..\u8g2\u8g2\csrc/u8g2_bitmap.c ****     return;
 207:..\..\..\u8g2\u8g2\csrc/u8g2_bitmap.c **** #endif /* U8G2_WITH_INTERSECTION */
 208:..\..\..\u8g2\u8g2\csrc/u8g2_bitmap.c ****   
 209:..\..\..\u8g2\u8g2\csrc/u8g2_bitmap.c ****   while( h > 0 )
 210:..\..\..\u8g2\u8g2\csrc/u8g2_bitmap.c ****   {
 211:..\..\..\u8g2\u8g2\csrc/u8g2_bitmap.c ****     u8g2_DrawHXBMP(u8g2, x, y, w, bitmap);
 212:..\..\..\u8g2\u8g2\csrc/u8g2_bitmap.c ****     bitmap += blen;
 404              		.loc 1 212 0
 405 0026 C6F3CC06 		ubfx	r6, r6, #3, #13
 406              	.LVL39:
 407              	.L35:
 209:..\..\..\u8g2\u8g2\csrc/u8g2_bitmap.c ****   {
 408              		.loc 1 209 0
 409 002a AC42     		cmp	r4, r5
 410 002c 0BD0     		beq	.L33
 211:..\..\..\u8g2\u8g2\csrc/u8g2_bitmap.c ****     bitmap += blen;
 411              		.loc 1 211 0
 412 002e CDF80080 		str	r8, [sp]
 413 0032 2246     		mov	r2, r4
 414 0034 3B46     		mov	r3, r7
 415 0036 4946     		mov	r1, r9
 416 0038 5046     		mov	r0, r10
 213:..\..\..\u8g2\u8g2\csrc/u8g2_bitmap.c ****     y++;
 417              		.loc 1 213 0
 418 003a 0134     		adds	r4, r4, #1
 419              	.LVL40:
 211:..\..\..\u8g2\u8g2\csrc/u8g2_bitmap.c ****     bitmap += blen;
 420              		.loc 1 211 0
 421 003c FFF7FEFF 		bl	u8g2_DrawHXBMP
 422              	.LVL41:
 212:..\..\..\u8g2\u8g2\csrc/u8g2_bitmap.c ****     y++;
 423              		.loc 1 212 0
 424 0040 B044     		add	r8, r8, r6
 425              	.LVL42:
 426              		.loc 1 213 0
 427 0042 A4B2     		uxth	r4, r4
 428              	.LVL43:
 429 0044 F1E7     		b	.L35
 430              	.LVL44:
 431              	.L33:
 214:..\..\..\u8g2\u8g2\csrc/u8g2_bitmap.c ****     h--;
 215:..\..\..\u8g2\u8g2\csrc/u8g2_bitmap.c ****   }
 216:..\..\..\u8g2\u8g2\csrc/u8g2_bitmap.c **** }
 432              		.loc 1 216 0
 433 0046 02B0     		add	sp, sp, #8
 434              		.cfi_def_cfa_offset 32
 435              		@ sp needed
 436 0048 BDE8F087 		pop	{r4, r5, r6, r7, r8, r9, r10, pc}
 437              		.cfi_endproc
 438              	.LFE6:
 439              		.size	u8g2_DrawXBMP, .-u8g2_DrawXBMP
 440              		.section	.text.u8g2_DrawXBM,"ax",%progbits
 441              		.align	1
 442              		.global	u8g2_DrawXBM
 443              		.thumb
ARM GAS  C:\Users\jesse\AppData\Local\Temp\ccJY2ghI.s 			page 13


 444              		.thumb_func
 445              		.type	u8g2_DrawXBM, %function
 446              	u8g2_DrawXBM:
 447              	.LFB8:
 448              		.cfi_startproc
 449              		@ args = 8, pretend = 0, frame = 0
 450              		@ frame_needed = 0, uses_anonymous_args = 0
 451              		@ link register save eliminated.
 452 0000 10B4     		push	{r4}
 453              		.cfi_def_cfa_offset 4
 454              		.cfi_offset 4, -4
 455 0002 BDF80440 		ldrh	r4, [sp, #4]
 456 0006 0194     		str	r4, [sp, #4]
 457 0008 10BC     		pop	{r4}
 458              		.cfi_restore 4
 459              		.cfi_def_cfa_offset 0
 460 000a FFF7FEBF 		b	u8g2_DrawXBMP
 461              		.cfi_endproc
 462              	.LFE8:
 463              		.size	u8g2_DrawXBM, .-u8g2_DrawXBM
 464              		.text
 465              	.Letext0:
 466              		.file 2 "c:\\program files (x86)\\cypress\\psoc creator\\4.4\\psoc creator\\import\\gnu\\arm\\5.4.
 467              		.file 3 "c:\\program files (x86)\\cypress\\psoc creator\\4.4\\psoc creator\\import\\gnu\\arm\\5.4.
 468              		.file 4 "..\\..\\..\\u8g2\\u8g2\\csrc\\u8x8.h"
 469              		.file 5 "..\\..\\..\\u8g2\\u8g2\\csrc\\u8g2.h"