ARM GAS  C:\Users\jesse\AppData\Local\Temp\ccoIVQYY.s 			page 1


   1              		.syntax unified
   2              		.cpu cortex-m3
   3              		.fpu softvfp
   4              		.eabi_attribute 20, 1
   5              		.eabi_attribute 21, 1
   6              		.eabi_attribute 23, 3
   7              		.eabi_attribute 24, 1
   8              		.eabi_attribute 25, 1
   9              		.eabi_attribute 26, 1
  10              		.eabi_attribute 30, 4
  11              		.eabi_attribute 34, 1
  12              		.eabi_attribute 18, 4
  13              		.thumb
  14              		.syntax unified
  15              		.file	"u8g2_kerning.c"
  16              		.text
  17              	.Ltext0:
  18              		.cfi_sections	.debug_frame
  19              		.section	.text.u8g2_GetKerning,"ax",%progbits
  20              		.align	1
  21              		.global	u8g2_GetKerning
  22              		.thumb
  23              		.thumb_func
  24              		.type	u8g2_GetKerning, %function
  25              	u8g2_GetKerning:
  26              	.LFB0:
  27              		.file 1 "..\\..\\..\\u8g2\\u8g2\\csrc\\u8g2_kerning.c"
   1:..\..\..\u8g2\u8g2\csrc/u8g2_kerning.c **** /*
   2:..\..\..\u8g2\u8g2\csrc/u8g2_kerning.c **** 
   3:..\..\..\u8g2\u8g2\csrc/u8g2_kerning.c ****   u8g2_kerning.c
   4:..\..\..\u8g2\u8g2\csrc/u8g2_kerning.c **** 
   5:..\..\..\u8g2\u8g2\csrc/u8g2_kerning.c ****   Universal 8bit Graphics Library (https://github.com/olikraus/u8g2/)
   6:..\..\..\u8g2\u8g2\csrc/u8g2_kerning.c **** 
   7:..\..\..\u8g2\u8g2\csrc/u8g2_kerning.c ****   Copyright (c) 2016, olikraus@gmail.com
   8:..\..\..\u8g2\u8g2\csrc/u8g2_kerning.c ****   All rights reserved.
   9:..\..\..\u8g2\u8g2\csrc/u8g2_kerning.c **** 
  10:..\..\..\u8g2\u8g2\csrc/u8g2_kerning.c ****   Redistribution and use in source and binary forms, with or without modification, 
  11:..\..\..\u8g2\u8g2\csrc/u8g2_kerning.c ****   are permitted provided that the following conditions are met:
  12:..\..\..\u8g2\u8g2\csrc/u8g2_kerning.c **** 
  13:..\..\..\u8g2\u8g2\csrc/u8g2_kerning.c ****   * Redistributions of source code must retain the above copyright notice, this list 
  14:..\..\..\u8g2\u8g2\csrc/u8g2_kerning.c ****     of conditions and the following disclaimer.
  15:..\..\..\u8g2\u8g2\csrc/u8g2_kerning.c ****     
  16:..\..\..\u8g2\u8g2\csrc/u8g2_kerning.c ****   * Redistributions in binary form must reproduce the above copyright notice, this 
  17:..\..\..\u8g2\u8g2\csrc/u8g2_kerning.c ****     list of conditions and the following disclaimer in the documentation and/or other 
  18:..\..\..\u8g2\u8g2\csrc/u8g2_kerning.c ****     materials provided with the distribution.
  19:..\..\..\u8g2\u8g2\csrc/u8g2_kerning.c **** 
  20:..\..\..\u8g2\u8g2\csrc/u8g2_kerning.c ****   THIS SOFTWARE IS PROVIDED BY THE COPYRIGHT HOLDERS AND 
  21:..\..\..\u8g2\u8g2\csrc/u8g2_kerning.c ****   CONTRIBUTORS "AS IS" AND ANY EXPRESS OR IMPLIED WARRANTIES, 
  22:..\..\..\u8g2\u8g2\csrc/u8g2_kerning.c ****   INCLUDING, BUT NOT LIMITED TO, THE IMPLIED WARRANTIES OF 
  23:..\..\..\u8g2\u8g2\csrc/u8g2_kerning.c ****   MERCHANTABILITY AND FITNESS FOR A PARTICULAR PURPOSE ARE 
  24:..\..\..\u8g2\u8g2\csrc/u8g2_kerning.c ****   DISCLAIMED. IN NO EVENT SHALL THE COPYRIGHT HOLDER OR 
  25:..\..\..\u8g2\u8g2\csrc/u8g2_kerning.c ****   CONTRIBUTORS BE LIABLE FOR ANY DIRECT, INDIRECT, INCIDENTAL, 
  26:..\..\..\u8g2\u8g2\csrc/u8g2_kerning.c ****   SPECIAL, EXEMPLARY, OR CONSEQUENTIAL DAMAGES (INCLUDING, BUT 
  27:..\..\..\u8g2\u8g2\csrc/u8g2_kerning.c ****   NOT LIMITED TO, PROCUREMENT OF SUBSTITUTE GOODS OR SERVICES; 
  28:..\..\..\u8g2\u8g2\csrc/u8g2_kerning.c ****   LOSS OF USE, DATA, OR PROFITS; OR BUSINESS INTERRUPTION) HOWEVER 
  29:..\..\..\u8g2\u8g2\csrc/u8g2_kerning.c ****   CAUSED AND ON ANY THEORY OF LIABILITY, WHETHER IN CONTRACT, 
  30:..\..\..\u8g2\u8g2\csrc/u8g2_kerning.c ****   STRICT LIABILITY, OR TORT (INCLUDING NEGLIGENCE OR OTHERWISE) 
ARM GAS  C:\Users\jesse\AppData\Local\Temp\ccoIVQYY.s 			page 2


  31:..\..\..\u8g2\u8g2\csrc/u8g2_kerning.c ****   ARISING IN ANY WAY OUT OF THE USE OF THIS SOFTWARE, EVEN IF 
  32:..\..\..\u8g2\u8g2\csrc/u8g2_kerning.c ****   ADVISED OF THE POSSIBILITY OF SUCH DAMAGE.  
  33:..\..\..\u8g2\u8g2\csrc/u8g2_kerning.c **** 
  34:..\..\..\u8g2\u8g2\csrc/u8g2_kerning.c **** */
  35:..\..\..\u8g2\u8g2\csrc/u8g2_kerning.c **** 
  36:..\..\..\u8g2\u8g2\csrc/u8g2_kerning.c **** #include "u8g2.h"
  37:..\..\..\u8g2\u8g2\csrc/u8g2_kerning.c **** 
  38:..\..\..\u8g2\u8g2\csrc/u8g2_kerning.c **** /* this function is used as "u8g2_get_kerning_cb" */
  39:..\..\..\u8g2\u8g2\csrc/u8g2_kerning.c **** /*
  40:..\..\..\u8g2\u8g2\csrc/u8g2_kerning.c **** uint8_t u8g2_GetNullKerning(u8g2_t *u8g2, uint16_t e1, uint16_t e2)
  41:..\..\..\u8g2\u8g2\csrc/u8g2_kerning.c **** {
  42:..\..\..\u8g2\u8g2\csrc/u8g2_kerning.c ****   return 0;
  43:..\..\..\u8g2\u8g2\csrc/u8g2_kerning.c **** }
  44:..\..\..\u8g2\u8g2\csrc/u8g2_kerning.c **** */
  45:..\..\..\u8g2\u8g2\csrc/u8g2_kerning.c **** 
  46:..\..\..\u8g2\u8g2\csrc/u8g2_kerning.c **** /* this function is used as "u8g2_get_kerning_cb" */
  47:..\..\..\u8g2\u8g2\csrc/u8g2_kerning.c **** uint8_t u8g2_GetKerning(U8X8_UNUSED u8g2_t *u8g2, u8g2_kerning_t *kerning, uint16_t e1, uint16_t e2
  48:..\..\..\u8g2\u8g2\csrc/u8g2_kerning.c **** {
  28              		.loc 1 48 0
  29              		.cfi_startproc
  30              		@ args = 0, pretend = 0, frame = 0
  31              		@ frame_needed = 0, uses_anonymous_args = 0
  32              	.LVL0:
  33 0000 F0B5     		push	{r4, r5, r6, r7, lr}
  34              		.cfi_def_cfa_offset 20
  35              		.cfi_offset 4, -20
  36              		.cfi_offset 5, -16
  37              		.cfi_offset 6, -12
  38              		.cfi_offset 7, -8
  39              		.cfi_offset 14, -4
  49:..\..\..\u8g2\u8g2\csrc/u8g2_kerning.c ****   uint16_t i1, i2, cnt, end;
  50:..\..\..\u8g2\u8g2\csrc/u8g2_kerning.c ****   if ( kerning == NULL )
  40              		.loc 1 50 0
  41 0002 E9B1     		cbz	r1, .L10
  51:..\..\..\u8g2\u8g2\csrc/u8g2_kerning.c ****     return 0;
  52:..\..\..\u8g2\u8g2\csrc/u8g2_kerning.c ****   
  53:..\..\..\u8g2\u8g2\csrc/u8g2_kerning.c ****   /* search for the encoding in the first table */
  54:..\..\..\u8g2\u8g2\csrc/u8g2_kerning.c ****   cnt = kerning->first_table_cnt;
  42              		.loc 1 54 0
  43 0004 0888     		ldrh	r0, [r1]
  44              	.LVL1:
  55:..\..\..\u8g2\u8g2\csrc/u8g2_kerning.c ****   cnt--;	/* ignore the last element of the table, which is 0x0ffff */
  56:..\..\..\u8g2\u8g2\csrc/u8g2_kerning.c ****   for( i1 = 0; i1 < cnt; i1++ )
  45              		.loc 1 56 0
  46 0006 0024     		movs	r4, #0
  55:..\..\..\u8g2\u8g2\csrc/u8g2_kerning.c ****   cnt--;	/* ignore the last element of the table, which is 0x0ffff */
  47              		.loc 1 55 0
  48 0008 0138     		subs	r0, r0, #1
  49              	.LVL2:
  50 000a 80B2     		uxth	r0, r0
  51              	.LVL3:
  52              	.L3:
  53              		.loc 1 56 0 discriminator 1
  54 000c A5B2     		uxth	r5, r4
  55 000e A842     		cmp	r0, r5
  56 0010 16D9     		bls	.L10
  57:..\..\..\u8g2\u8g2\csrc/u8g2_kerning.c ****   {
ARM GAS  C:\Users\jesse\AppData\Local\Temp\ccoIVQYY.s 			page 3


  58:..\..\..\u8g2\u8g2\csrc/u8g2_kerning.c ****     if ( kerning->first_encoding_table[i1] == e1 )
  57              		.loc 1 58 0
  58 0012 4F68     		ldr	r7, [r1, #4]
  59 0014 6600     		lsls	r6, r4, #1
  60 0016 BF5B     		ldrh	r7, [r7, r6]
  61 0018 2546     		mov	r5, r4
  62 001a 9742     		cmp	r7, r2
  63 001c 04F10104 		add	r4, r4, #1
  64              	.LVL4:
  65 0020 F4D1     		bne	.L3
  59:..\..\..\u8g2\u8g2\csrc/u8g2_kerning.c ****       break;
  60:..\..\..\u8g2\u8g2\csrc/u8g2_kerning.c ****   }
  61:..\..\..\u8g2\u8g2\csrc/u8g2_kerning.c ****   if ( i1 >= cnt )
  62:..\..\..\u8g2\u8g2\csrc/u8g2_kerning.c ****     return 0;	/* e1 not part of the kerning table, return 0 */
  63:..\..\..\u8g2\u8g2\csrc/u8g2_kerning.c **** 
  64:..\..\..\u8g2\u8g2\csrc/u8g2_kerning.c ****   /* get the upper index for i2 */
  65:..\..\..\u8g2\u8g2\csrc/u8g2_kerning.c ****   end = kerning->index_to_second_table[i1+1];
  66              		.loc 1 65 0
  67 0022 8868     		ldr	r0, [r1, #8]
  68              	.LVL5:
  69 0024 6A1C     		adds	r2, r5, #1
  70              	.LVL6:
  71 0026 30F81240 		ldrh	r4, [r0, r2, lsl #1]
  72              	.LVL7:
  66:..\..\..\u8g2\u8g2\csrc/u8g2_kerning.c ****   for( i2 = kerning->index_to_second_table[i1]; i2 < end; i2++ )
  73              		.loc 1 66 0
  74 002a 825B     		ldrh	r2, [r0, r6]
  75              	.LVL8:
  76              	.L6:
  77              		.loc 1 66 0 is_stmt 0 discriminator 1
  78 002c A242     		cmp	r2, r4
  79 002e 07D2     		bcs	.L10
  67:..\..\..\u8g2\u8g2\csrc/u8g2_kerning.c ****   {
  68:..\..\..\u8g2\u8g2\csrc/u8g2_kerning.c ****     if ( kerning->second_encoding_table[i2] == e2 )
  80              		.loc 1 68 0 is_stmt 1
  81 0030 C868     		ldr	r0, [r1, #12]
  82 0032 30F81200 		ldrh	r0, [r0, r2, lsl #1]
  83 0036 9842     		cmp	r0, r3
  84 0038 04D0     		beq	.L7
  66:..\..\..\u8g2\u8g2\csrc/u8g2_kerning.c ****   for( i2 = kerning->index_to_second_table[i1]; i2 < end; i2++ )
  85              		.loc 1 66 0 discriminator 2
  86 003a 0132     		adds	r2, r2, #1
  87              	.LVL9:
  88 003c 92B2     		uxth	r2, r2
  89              	.LVL10:
  90 003e F5E7     		b	.L6
  91              	.LVL11:
  92              	.L10:
  51:..\..\..\u8g2\u8g2\csrc/u8g2_kerning.c ****   
  93              		.loc 1 51 0
  94 0040 0020     		movs	r0, #0
  95 0042 F0BD     		pop	{r4, r5, r6, r7, pc}
  96              	.LVL12:
  97              	.L7:
  69:..\..\..\u8g2\u8g2\csrc/u8g2_kerning.c ****       break;
  70:..\..\..\u8g2\u8g2\csrc/u8g2_kerning.c ****   }
  71:..\..\..\u8g2\u8g2\csrc/u8g2_kerning.c ****   
ARM GAS  C:\Users\jesse\AppData\Local\Temp\ccoIVQYY.s 			page 4


  72:..\..\..\u8g2\u8g2\csrc/u8g2_kerning.c ****   if ( i2 >= end )
  73:..\..\..\u8g2\u8g2\csrc/u8g2_kerning.c ****     return 0;	/* e2 not part of any pair with e1, return 0 */
  74:..\..\..\u8g2\u8g2\csrc/u8g2_kerning.c ****   
  75:..\..\..\u8g2\u8g2\csrc/u8g2_kerning.c ****   return kerning->kerning_values[i2];
  98              		.loc 1 75 0
  99 0044 0B69     		ldr	r3, [r1, #16]
 100              	.LVL13:
 101 0046 985C     		ldrb	r0, [r3, r2]	@ zero_extendqisi2
 102 0048 F0BD     		pop	{r4, r5, r6, r7, pc}
 103              		.cfi_endproc
 104              	.LFE0:
 105              		.size	u8g2_GetKerning, .-u8g2_GetKerning
 106              		.section	.text.u8g2_GetKerningByTable,"ax",%progbits
 107              		.align	1
 108              		.global	u8g2_GetKerningByTable
 109              		.thumb
 110              		.thumb_func
 111              		.type	u8g2_GetKerningByTable, %function
 112              	u8g2_GetKerningByTable:
 113              	.LFB1:
  76:..\..\..\u8g2\u8g2\csrc/u8g2_kerning.c **** }
  77:..\..\..\u8g2\u8g2\csrc/u8g2_kerning.c **** 
  78:..\..\..\u8g2\u8g2\csrc/u8g2_kerning.c **** uint8_t u8g2_GetKerningByTable(U8X8_UNUSED u8g2_t *u8g2, const uint16_t *kt, uint16_t e1, uint16_t 
  79:..\..\..\u8g2\u8g2\csrc/u8g2_kerning.c **** {
 114              		.loc 1 79 0
 115              		.cfi_startproc
 116              		@ args = 0, pretend = 0, frame = 0
 117              		@ frame_needed = 0, uses_anonymous_args = 0
 118              	.LVL14:
 119 0000 70B5     		push	{r4, r5, r6, lr}
 120              		.cfi_def_cfa_offset 16
 121              		.cfi_offset 4, -16
 122              		.cfi_offset 5, -12
 123              		.cfi_offset 6, -8
 124              		.cfi_offset 14, -4
  80:..\..\..\u8g2\u8g2\csrc/u8g2_kerning.c ****   uint16_t i;
  81:..\..\..\u8g2\u8g2\csrc/u8g2_kerning.c ****   i = 0;
  82:..\..\..\u8g2\u8g2\csrc/u8g2_kerning.c ****   if ( kt == NULL )
 125              		.loc 1 82 0
 126 0002 A1B1     		cbz	r1, .L16
  83:..\..\..\u8g2\u8g2\csrc/u8g2_kerning.c ****     return 0;
  84:..\..\..\u8g2\u8g2\csrc/u8g2_kerning.c ****   for(;;)
  85:..\..\..\u8g2\u8g2\csrc/u8g2_kerning.c ****   {
  86:..\..\..\u8g2\u8g2\csrc/u8g2_kerning.c ****     if ( kt[i] == 0x0ffff )
 127              		.loc 1 86 0
 128 0004 4FF6FF76 		movw	r6, #65535
 129 0008 0020     		movs	r0, #0
 130              	.LVL15:
 131              	.L15:
 132 000a 31F81050 		ldrh	r5, [r1, r0, lsl #1]
 133 000e 4400     		lsls	r4, r0, #1
 134 0010 B542     		cmp	r5, r6
 135 0012 0ED0     		beq	.L17
  87:..\..\..\u8g2\u8g2\csrc/u8g2_kerning.c ****       break;
  88:..\..\..\u8g2\u8g2\csrc/u8g2_kerning.c ****     if ( kt[i] == e1 && kt[i+1] == e2 )
 136              		.loc 1 88 0
 137 0014 9542     		cmp	r5, r2
ARM GAS  C:\Users\jesse\AppData\Local\Temp\ccoIVQYY.s 			page 5


 138 0016 07D1     		bne	.L14
 139              		.loc 1 88 0 is_stmt 0 discriminator 1
 140 0018 0C44     		add	r4, r4, r1
 141 001a 6488     		ldrh	r4, [r4, #2]
 142 001c 9C42     		cmp	r4, r3
 143 001e 03D1     		bne	.L14
  89:..\..\..\u8g2\u8g2\csrc/u8g2_kerning.c ****       return kt[i+2];
 144              		.loc 1 89 0 is_stmt 1
 145 0020 0230     		adds	r0, r0, #2
 146              	.LVL16:
 147 0022 11F81000 		ldrb	r0, [r1, r0, lsl #1]	@ zero_extendqisi2
 148 0026 70BD     		pop	{r4, r5, r6, pc}
 149              	.LVL17:
 150              	.L14:
  90:..\..\..\u8g2\u8g2\csrc/u8g2_kerning.c ****     i+=3;
 151              		.loc 1 90 0
 152 0028 0330     		adds	r0, r0, #3
 153              	.LVL18:
 154 002a 80B2     		uxth	r0, r0
 155              	.LVL19:
  91:..\..\..\u8g2\u8g2\csrc/u8g2_kerning.c ****   }
 156              		.loc 1 91 0
 157 002c EDE7     		b	.L15
 158              	.LVL20:
 159              	.L16:
  83:..\..\..\u8g2\u8g2\csrc/u8g2_kerning.c ****   for(;;)
 160              		.loc 1 83 0
 161 002e 0846     		mov	r0, r1
 162              	.LVL21:
 163 0030 70BD     		pop	{r4, r5, r6, pc}
 164              	.LVL22:
 165              	.L17:
 166 0032 0020     		movs	r0, #0
 167              	.LVL23:
  92:..\..\..\u8g2\u8g2\csrc/u8g2_kerning.c ****   return 0;
  93:..\..\..\u8g2\u8g2\csrc/u8g2_kerning.c **** }
 168              		.loc 1 93 0
 169 0034 70BD     		pop	{r4, r5, r6, pc}
 170              		.cfi_endproc
 171              	.LFE1:
 172              		.size	u8g2_GetKerningByTable, .-u8g2_GetKerningByTable
 173              		.text
 174              	.Letext0:
 175              		.file 2 "c:\\program files (x86)\\cypress\\psoc creator\\4.4\\psoc creator\\import\\gnu\\arm\\5.4.
 176              		.file 3 "c:\\program files (x86)\\cypress\\psoc creator\\4.4\\psoc creator\\import\\gnu\\arm\\5.4.
 177              		.file 4 "..\\..\\..\\u8g2\\u8g2\\csrc\\u8x8.h"
 178              		.file 5 "..\\..\\..\\u8g2\\u8g2\\csrc\\u8g2.h"