ARM GAS  C:\Users\jesse\AppData\Local\Temp\ccsy146K.s 			page 1


   1              		.syntax unified
   2              		.cpu cortex-m3
   3              		.fpu softvfp
   4              		.eabi_attribute 20, 1
   5              		.eabi_attribute 21, 1
   6              		.eabi_attribute 23, 3
   7              		.eabi_attribute 24, 1
   8              		.eabi_attribute 25, 1
   9              		.eabi_attribute 26, 1
  10              		.eabi_attribute 30, 4
  11              		.eabi_attribute 34, 1
  12              		.eabi_attribute 18, 4
  13              		.thumb
  14              		.syntax unified
  15              		.file	"u8g2_hvline.c"
  16              		.text
  17              	.Ltext0:
  18              		.cfi_sections	.debug_frame
  19              		.section	.text.u8g2_draw_hv_line_2dir,"ax",%progbits
  20              		.align	1
  21              		.global	u8g2_draw_hv_line_2dir
  22              		.thumb
  23              		.thumb_func
  24              		.type	u8g2_draw_hv_line_2dir, %function
  25              	u8g2_draw_hv_line_2dir:
  26              	.LFB1:
  27              		.file 1 "..\\..\\..\\u8g2\\u8g2\\csrc\\u8g2_hvline.c"
   1:..\..\..\u8g2\u8g2\csrc/u8g2_hvline.c **** /*
   2:..\..\..\u8g2\u8g2\csrc/u8g2_hvline.c **** 
   3:..\..\..\u8g2\u8g2\csrc/u8g2_hvline.c ****   u8g2_hvline.c
   4:..\..\..\u8g2\u8g2\csrc/u8g2_hvline.c **** 
   5:..\..\..\u8g2\u8g2\csrc/u8g2_hvline.c ****   Universal 8bit Graphics Library (https://github.com/olikraus/u8g2/)
   6:..\..\..\u8g2\u8g2\csrc/u8g2_hvline.c **** 
   7:..\..\..\u8g2\u8g2\csrc/u8g2_hvline.c ****   Copyright (c) 2016, olikraus@gmail.com
   8:..\..\..\u8g2\u8g2\csrc/u8g2_hvline.c ****   All rights reserved.
   9:..\..\..\u8g2\u8g2\csrc/u8g2_hvline.c **** 
  10:..\..\..\u8g2\u8g2\csrc/u8g2_hvline.c ****   Redistribution and use in source and binary forms, with or without modification, 
  11:..\..\..\u8g2\u8g2\csrc/u8g2_hvline.c ****   are permitted provided that the following conditions are met:
  12:..\..\..\u8g2\u8g2\csrc/u8g2_hvline.c **** 
  13:..\..\..\u8g2\u8g2\csrc/u8g2_hvline.c ****   * Redistributions of source code must retain the above copyright notice, this list 
  14:..\..\..\u8g2\u8g2\csrc/u8g2_hvline.c ****     of conditions and the following disclaimer.
  15:..\..\..\u8g2\u8g2\csrc/u8g2_hvline.c ****     
  16:..\..\..\u8g2\u8g2\csrc/u8g2_hvline.c ****   * Redistributions in binary form must reproduce the above copyright notice, this 
  17:..\..\..\u8g2\u8g2\csrc/u8g2_hvline.c ****     list of conditions and the following disclaimer in the documentation and/or other 
  18:..\..\..\u8g2\u8g2\csrc/u8g2_hvline.c ****     materials provided with the distribution.
  19:..\..\..\u8g2\u8g2\csrc/u8g2_hvline.c **** 
  20:..\..\..\u8g2\u8g2\csrc/u8g2_hvline.c ****   THIS SOFTWARE IS PROVIDED BY THE COPYRIGHT HOLDERS AND 
  21:..\..\..\u8g2\u8g2\csrc/u8g2_hvline.c ****   CONTRIBUTORS "AS IS" AND ANY EXPRESS OR IMPLIED WARRANTIES, 
  22:..\..\..\u8g2\u8g2\csrc/u8g2_hvline.c ****   INCLUDING, BUT NOT LIMITED TO, THE IMPLIED WARRANTIES OF 
  23:..\..\..\u8g2\u8g2\csrc/u8g2_hvline.c ****   MERCHANTABILITY AND FITNESS FOR A PARTICULAR PURPOSE ARE 
  24:..\..\..\u8g2\u8g2\csrc/u8g2_hvline.c ****   DISCLAIMED. IN NO EVENT SHALL THE COPYRIGHT HOLDER OR 
  25:..\..\..\u8g2\u8g2\csrc/u8g2_hvline.c ****   CONTRIBUTORS BE LIABLE FOR ANY DIRECT, INDIRECT, INCIDENTAL, 
  26:..\..\..\u8g2\u8g2\csrc/u8g2_hvline.c ****   SPECIAL, EXEMPLARY, OR CONSEQUENTIAL DAMAGES (INCLUDING, BUT 
  27:..\..\..\u8g2\u8g2\csrc/u8g2_hvline.c ****   NOT LIMITED TO, PROCUREMENT OF SUBSTITUTE GOODS OR SERVICES; 
  28:..\..\..\u8g2\u8g2\csrc/u8g2_hvline.c ****   LOSS OF USE, DATA, OR PROFITS; OR BUSINESS INTERRUPTION) HOWEVER 
  29:..\..\..\u8g2\u8g2\csrc/u8g2_hvline.c ****   CAUSED AND ON ANY THEORY OF LIABILITY, WHETHER IN CONTRACT, 
  30:..\..\..\u8g2\u8g2\csrc/u8g2_hvline.c ****   STRICT LIABILITY, OR TORT (INCLUDING NEGLIGENCE OR OTHERWISE) 
ARM GAS  C:\Users\jesse\AppData\Local\Temp\ccsy146K.s 			page 2


  31:..\..\..\u8g2\u8g2\csrc/u8g2_hvline.c ****   ARISING IN ANY WAY OUT OF THE USE OF THIS SOFTWARE, EVEN IF 
  32:..\..\..\u8g2\u8g2\csrc/u8g2_hvline.c ****   ADVISED OF THE POSSIBILITY OF SUCH DAMAGE.  
  33:..\..\..\u8g2\u8g2\csrc/u8g2_hvline.c **** 
  34:..\..\..\u8g2\u8g2\csrc/u8g2_hvline.c **** 
  35:..\..\..\u8g2\u8g2\csrc/u8g2_hvline.c ****   Calltree
  36:..\..\..\u8g2\u8g2\csrc/u8g2_hvline.c ****   
  37:..\..\..\u8g2\u8g2\csrc/u8g2_hvline.c ****     void u8g2_DrawHVLine(u8g2_t *u8g2, u8g2_uint_t x, u8g2_uint_t y, u8g2_uint_t len, uint8_t dir)
  38:..\..\..\u8g2\u8g2\csrc/u8g2_hvline.c ****     u8g2->cb->draw_l90
  39:..\..\..\u8g2\u8g2\csrc/u8g2_hvline.c ****     u8g2_draw_hv_line_2dir
  40:..\..\..\u8g2\u8g2\csrc/u8g2_hvline.c ****     u8g2->ll_hvline(u8g2, x, y, len, dir);
  41:..\..\..\u8g2\u8g2\csrc/u8g2_hvline.c ****     
  42:..\..\..\u8g2\u8g2\csrc/u8g2_hvline.c **** 
  43:..\..\..\u8g2\u8g2\csrc/u8g2_hvline.c **** */
  44:..\..\..\u8g2\u8g2\csrc/u8g2_hvline.c **** 
  45:..\..\..\u8g2\u8g2\csrc/u8g2_hvline.c **** #include "u8g2.h"
  46:..\..\..\u8g2\u8g2\csrc/u8g2_hvline.c **** #include <assert.h>
  47:..\..\..\u8g2\u8g2\csrc/u8g2_hvline.c **** 
  48:..\..\..\u8g2\u8g2\csrc/u8g2_hvline.c **** /*==========================================================*/
  49:..\..\..\u8g2\u8g2\csrc/u8g2_hvline.c **** /* intersection procedure */
  50:..\..\..\u8g2\u8g2\csrc/u8g2_hvline.c **** 
  51:..\..\..\u8g2\u8g2\csrc/u8g2_hvline.c **** /*
  52:..\..\..\u8g2\u8g2\csrc/u8g2_hvline.c ****   Description:
  53:..\..\..\u8g2\u8g2\csrc/u8g2_hvline.c ****     clip range from pos a (included) with line len (a+len excluded) agains c (included) to d (exclu
  54:..\..\..\u8g2\u8g2\csrc/u8g2_hvline.c ****   Assumptions:
  55:..\..\..\u8g2\u8g2\csrc/u8g2_hvline.c ****     len > 0
  56:..\..\..\u8g2\u8g2\csrc/u8g2_hvline.c ****     c <= d		(this is not checked)
  57:..\..\..\u8g2\u8g2\csrc/u8g2_hvline.c ****   will return 0 if there is no intersection and if a > b
  58:..\..\..\u8g2\u8g2\csrc/u8g2_hvline.c **** 
  59:..\..\..\u8g2\u8g2\csrc/u8g2_hvline.c **** */
  60:..\..\..\u8g2\u8g2\csrc/u8g2_hvline.c **** 
  61:..\..\..\u8g2\u8g2\csrc/u8g2_hvline.c **** static uint8_t u8g2_clip_intersection2(u8g2_uint_t *ap, u8g2_uint_t *len, u8g2_uint_t c, u8g2_uint_
  62:..\..\..\u8g2\u8g2\csrc/u8g2_hvline.c **** {
  63:..\..\..\u8g2\u8g2\csrc/u8g2_hvline.c ****   u8g2_uint_t a = *ap;
  64:..\..\..\u8g2\u8g2\csrc/u8g2_hvline.c ****   u8g2_uint_t b;
  65:..\..\..\u8g2\u8g2\csrc/u8g2_hvline.c ****   b  = a;
  66:..\..\..\u8g2\u8g2\csrc/u8g2_hvline.c ****   b += *len;
  67:..\..\..\u8g2\u8g2\csrc/u8g2_hvline.c **** 
  68:..\..\..\u8g2\u8g2\csrc/u8g2_hvline.c ****   /*
  69:..\..\..\u8g2\u8g2\csrc/u8g2_hvline.c ****     Description:
  70:..\..\..\u8g2\u8g2\csrc/u8g2_hvline.c ****       clip range from a (included) to b (excluded) agains c (included) to d (excluded)
  71:..\..\..\u8g2\u8g2\csrc/u8g2_hvline.c ****     Assumptions:
  72:..\..\..\u8g2\u8g2\csrc/u8g2_hvline.c ****       a <= b		(violation is checked and handled correctly)
  73:..\..\..\u8g2\u8g2\csrc/u8g2_hvline.c ****       c <= d		(this is not checked)
  74:..\..\..\u8g2\u8g2\csrc/u8g2_hvline.c ****     will return 0 if there is no intersection and if a > b
  75:..\..\..\u8g2\u8g2\csrc/u8g2_hvline.c **** 
  76:..\..\..\u8g2\u8g2\csrc/u8g2_hvline.c ****     optimized clipping: c is set to 0 --> 27 Oct 2018: again removed the c==0 assumption
  77:..\..\..\u8g2\u8g2\csrc/u8g2_hvline.c ****     
  78:..\..\..\u8g2\u8g2\csrc/u8g2_hvline.c ****     replaced by uint8_t u8g2_clip_intersection2
  79:..\..\..\u8g2\u8g2\csrc/u8g2_hvline.c ****   */
  80:..\..\..\u8g2\u8g2\csrc/u8g2_hvline.c **** 
  81:..\..\..\u8g2\u8g2\csrc/u8g2_hvline.c ****   /* handle the a>b case correctly. If code and time is critical, this could */
  82:..\..\..\u8g2\u8g2\csrc/u8g2_hvline.c ****   /* be removed completly (be aware about memory curruption for wrong */
  83:..\..\..\u8g2\u8g2\csrc/u8g2_hvline.c ****   /* arguments) or return 0 for a>b (will lead to skipped lines for wrong */
  84:..\..\..\u8g2\u8g2\csrc/u8g2_hvline.c ****   /* arguments) */  
  85:..\..\..\u8g2\u8g2\csrc/u8g2_hvline.c ****   
  86:..\..\..\u8g2\u8g2\csrc/u8g2_hvline.c ****   /* removing the following if clause completly may lead to memory corruption of a>b */
  87:..\..\..\u8g2\u8g2\csrc/u8g2_hvline.c ****   if ( a > b )
ARM GAS  C:\Users\jesse\AppData\Local\Temp\ccsy146K.s 			page 3


  88:..\..\..\u8g2\u8g2\csrc/u8g2_hvline.c ****   {    
  89:..\..\..\u8g2\u8g2\csrc/u8g2_hvline.c ****     /* replacing this if with a simple "return 0;" will not handle the case with negative a */    
  90:..\..\..\u8g2\u8g2\csrc/u8g2_hvline.c ****     if ( a < d )
  91:..\..\..\u8g2\u8g2\csrc/u8g2_hvline.c ****     {
  92:..\..\..\u8g2\u8g2\csrc/u8g2_hvline.c ****       b = d;
  93:..\..\..\u8g2\u8g2\csrc/u8g2_hvline.c ****       b--;
  94:..\..\..\u8g2\u8g2\csrc/u8g2_hvline.c ****     }
  95:..\..\..\u8g2\u8g2\csrc/u8g2_hvline.c ****     else
  96:..\..\..\u8g2\u8g2\csrc/u8g2_hvline.c ****     {
  97:..\..\..\u8g2\u8g2\csrc/u8g2_hvline.c ****       a = c;
  98:..\..\..\u8g2\u8g2\csrc/u8g2_hvline.c ****     }
  99:..\..\..\u8g2\u8g2\csrc/u8g2_hvline.c ****   }
 100:..\..\..\u8g2\u8g2\csrc/u8g2_hvline.c ****   
 101:..\..\..\u8g2\u8g2\csrc/u8g2_hvline.c ****   /* from now on, the asumption a <= b is ok */
 102:..\..\..\u8g2\u8g2\csrc/u8g2_hvline.c ****   
 103:..\..\..\u8g2\u8g2\csrc/u8g2_hvline.c ****   if ( a >= d )
 104:..\..\..\u8g2\u8g2\csrc/u8g2_hvline.c ****     return 0;
 105:..\..\..\u8g2\u8g2\csrc/u8g2_hvline.c ****   if ( b <= c )
 106:..\..\..\u8g2\u8g2\csrc/u8g2_hvline.c ****     return 0;
 107:..\..\..\u8g2\u8g2\csrc/u8g2_hvline.c ****   if ( a < c )		
 108:..\..\..\u8g2\u8g2\csrc/u8g2_hvline.c ****     a = c;
 109:..\..\..\u8g2\u8g2\csrc/u8g2_hvline.c ****   if ( b > d )
 110:..\..\..\u8g2\u8g2\csrc/u8g2_hvline.c ****     b = d;
 111:..\..\..\u8g2\u8g2\csrc/u8g2_hvline.c ****   
 112:..\..\..\u8g2\u8g2\csrc/u8g2_hvline.c ****   *ap = a;
 113:..\..\..\u8g2\u8g2\csrc/u8g2_hvline.c ****   b -= a;
 114:..\..\..\u8g2\u8g2\csrc/u8g2_hvline.c ****   *len = b;
 115:..\..\..\u8g2\u8g2\csrc/u8g2_hvline.c ****   return 1;
 116:..\..\..\u8g2\u8g2\csrc/u8g2_hvline.c **** }
 117:..\..\..\u8g2\u8g2\csrc/u8g2_hvline.c **** 
 118:..\..\..\u8g2\u8g2\csrc/u8g2_hvline.c **** 
 119:..\..\..\u8g2\u8g2\csrc/u8g2_hvline.c **** 
 120:..\..\..\u8g2\u8g2\csrc/u8g2_hvline.c **** /*==========================================================*/
 121:..\..\..\u8g2\u8g2\csrc/u8g2_hvline.c **** /* draw procedures */
 122:..\..\..\u8g2\u8g2\csrc/u8g2_hvline.c **** 
 123:..\..\..\u8g2\u8g2\csrc/u8g2_hvline.c **** /*
 124:..\..\..\u8g2\u8g2\csrc/u8g2_hvline.c ****   x,y		Upper left position of the line within the pixel buffer 
 125:..\..\..\u8g2\u8g2\csrc/u8g2_hvline.c ****   len		length of the line in pixel, len must not be 0
 126:..\..\..\u8g2\u8g2\csrc/u8g2_hvline.c ****   dir		0: horizontal line (left to right)
 127:..\..\..\u8g2\u8g2\csrc/u8g2_hvline.c **** 		1: vertical line (top to bottom)
 128:..\..\..\u8g2\u8g2\csrc/u8g2_hvline.c ****   This function first adjusts the y position to the local buffer. Then it
 129:..\..\..\u8g2\u8g2\csrc/u8g2_hvline.c ****   will clip the line and call u8g2_draw_low_level_hv_line()
 130:..\..\..\u8g2\u8g2\csrc/u8g2_hvline.c **** 
 131:..\..\..\u8g2\u8g2\csrc/u8g2_hvline.c **** */
 132:..\..\..\u8g2\u8g2\csrc/u8g2_hvline.c **** void u8g2_draw_hv_line_2dir(u8g2_t *u8g2, u8g2_uint_t x, u8g2_uint_t y, u8g2_uint_t len, uint8_t di
 133:..\..\..\u8g2\u8g2\csrc/u8g2_hvline.c **** {
  28              		.loc 1 133 0
  29              		.cfi_startproc
  30              		@ args = 4, pretend = 0, frame = 0
  31              		@ frame_needed = 0, uses_anonymous_args = 0
  32              		@ link register save eliminated.
  33              	.LVL0:
  34 0000 70B4     		push	{r4, r5, r6}
  35              		.cfi_def_cfa_offset 12
  36              		.cfi_offset 4, -12
  37              		.cfi_offset 5, -8
  38              		.cfi_offset 6, -4
ARM GAS  C:\Users\jesse\AppData\Local\Temp\ccsy146K.s 			page 4


 134:..\..\..\u8g2\u8g2\csrc/u8g2_hvline.c **** 
 135:..\..\..\u8g2\u8g2\csrc/u8g2_hvline.c ****   /* clipping happens before the display rotation */
 136:..\..\..\u8g2\u8g2\csrc/u8g2_hvline.c **** 
 137:..\..\..\u8g2\u8g2\csrc/u8g2_hvline.c ****   /* transform to pixel buffer coordinates */
 138:..\..\..\u8g2\u8g2\csrc/u8g2_hvline.c ****   y -= u8g2->pixel_curr_row;
 139:..\..\..\u8g2\u8g2\csrc/u8g2_hvline.c ****   
 140:..\..\..\u8g2\u8g2\csrc/u8g2_hvline.c ****   u8g2->ll_hvline(u8g2, x, y, len, dir);
  39              		.loc 1 140 0
  40 0002 C48F     		ldrh	r4, [r0, #62]
 133:..\..\..\u8g2\u8g2\csrc/u8g2_hvline.c **** 
  41              		.loc 1 133 0
  42 0004 9DF80C60 		ldrb	r6, [sp, #12]	@ zero_extendqisi2
  43              		.loc 1 140 0
  44 0008 121B     		subs	r2, r2, r4
  45              	.LVL1:
  46 000a C46A     		ldr	r4, [r0, #44]
  47 000c 0396     		str	r6, [sp, #12]
  48              	.LVL2:
  49 000e A446     		mov	ip, r4
 141:..\..\..\u8g2\u8g2\csrc/u8g2_hvline.c **** }
  50              		.loc 1 141 0
  51 0010 70BC     		pop	{r4, r5, r6}
  52              		.cfi_restore 6
  53              		.cfi_restore 5
  54              		.cfi_restore 4
  55              		.cfi_def_cfa_offset 0
 140:..\..\..\u8g2\u8g2\csrc/u8g2_hvline.c **** }
  56              		.loc 1 140 0
  57 0012 92B2     		uxth	r2, r2
  58 0014 6047     		bx	ip	@ indirect register sibling call
  59              	.LVL3:
  60              		.cfi_endproc
  61              	.LFE1:
  62              		.size	u8g2_draw_hv_line_2dir, .-u8g2_draw_hv_line_2dir
  63              		.section	.text.u8g2_DrawHVLine,"ax",%progbits
  64              		.align	1
  65              		.global	u8g2_DrawHVLine
  66              		.thumb
  67              		.thumb_func
  68              		.type	u8g2_DrawHVLine, %function
  69              	u8g2_DrawHVLine:
  70              	.LFB2:
 142:..\..\..\u8g2\u8g2\csrc/u8g2_hvline.c **** 
 143:..\..\..\u8g2\u8g2\csrc/u8g2_hvline.c **** 
 144:..\..\..\u8g2\u8g2\csrc/u8g2_hvline.c **** /*
 145:..\..\..\u8g2\u8g2\csrc/u8g2_hvline.c ****   This is the toplevel function for the hv line draw procedures.
 146:..\..\..\u8g2\u8g2\csrc/u8g2_hvline.c ****   This function should be called by the user.
 147:..\..\..\u8g2\u8g2\csrc/u8g2_hvline.c ****   
 148:..\..\..\u8g2\u8g2\csrc/u8g2_hvline.c ****   "dir" may have 4 directions: 0 (left to right), 1, 2, 3 (down up)
 149:..\..\..\u8g2\u8g2\csrc/u8g2_hvline.c **** */
 150:..\..\..\u8g2\u8g2\csrc/u8g2_hvline.c **** void u8g2_DrawHVLine(u8g2_t *u8g2, u8g2_uint_t x, u8g2_uint_t y, u8g2_uint_t len, uint8_t dir)
 151:..\..\..\u8g2\u8g2\csrc/u8g2_hvline.c **** {
  71              		.loc 1 151 0
  72              		.cfi_startproc
  73              		@ args = 4, pretend = 0, frame = 0
  74              		@ frame_needed = 0, uses_anonymous_args = 0
  75              		@ link register save eliminated.
ARM GAS  C:\Users\jesse\AppData\Local\Temp\ccsy146K.s 			page 5


  76              	.LVL4:
  77 0000 70B4     		push	{r4, r5, r6}
  78              		.cfi_def_cfa_offset 12
  79              		.cfi_offset 4, -12
  80              		.cfi_offset 5, -8
  81              		.cfi_offset 6, -4
 152:..\..\..\u8g2\u8g2\csrc/u8g2_hvline.c ****   /* Make a call to the callback function (e.g. u8g2_draw_l90_r0). */
 153:..\..\..\u8g2\u8g2\csrc/u8g2_hvline.c ****   /* The callback may rotate the hv line */
 154:..\..\..\u8g2\u8g2\csrc/u8g2_hvline.c ****   /* after rotation this will call u8g2_draw_hv_line_4dir() */
 155:..\..\..\u8g2\u8g2\csrc/u8g2_hvline.c ****   
 156:..\..\..\u8g2\u8g2\csrc/u8g2_hvline.c **** #ifdef U8G2_WITH_CLIP_WINDOW_SUPPORT
 157:..\..\..\u8g2\u8g2\csrc/u8g2_hvline.c ****   if ( u8g2->is_page_clip_window_intersection != 0 )
  82              		.loc 1 157 0
  83 0002 90F88C40 		ldrb	r4, [r0, #140]	@ zero_extendqisi2
 151:..\..\..\u8g2\u8g2\csrc/u8g2_hvline.c ****   /* Make a call to the callback function (e.g. u8g2_draw_l90_r0). */
  84              		.loc 1 151 0
  85 0006 9DF80C50 		ldrb	r5, [sp, #12]	@ zero_extendqisi2
  86              		.loc 1 157 0
  87 000a 002C     		cmp	r4, #0
  88 000c 5FD0     		beq	.L2
 158:..\..\..\u8g2\u8g2\csrc/u8g2_hvline.c **** #endif /* U8G2_WITH_CLIP_WINDOW_SUPPORT */
 159:..\..\..\u8g2\u8g2\csrc/u8g2_hvline.c ****     if ( len != 0 )
  89              		.loc 1 159 0
  90 000e 002B     		cmp	r3, #0
  91 0010 5DD0     		beq	.L2
 160:..\..\..\u8g2\u8g2\csrc/u8g2_hvline.c ****     {
 161:..\..\..\u8g2\u8g2\csrc/u8g2_hvline.c ****     
 162:..\..\..\u8g2\u8g2\csrc/u8g2_hvline.c ****       /* convert to two directions */    
 163:..\..\..\u8g2\u8g2\csrc/u8g2_hvline.c ****       if ( len > 1 )
  92              		.loc 1 163 0
  93 0012 012B     		cmp	r3, #1
  94 0014 0AD9     		bls	.L4
 164:..\..\..\u8g2\u8g2\csrc/u8g2_hvline.c ****       {
 165:..\..\..\u8g2\u8g2\csrc/u8g2_hvline.c **** 	if ( dir == 2 )
  95              		.loc 1 165 0
  96 0016 022D     		cmp	r5, #2
  97 0018 03D1     		bne	.L5
  98 001a 0131     		adds	r1, r1, #1
  99              	.LVL5:
 166:..\..\..\u8g2\u8g2\csrc/u8g2_hvline.c **** 	{
 167:..\..\..\u8g2\u8g2\csrc/u8g2_hvline.c **** 	  x -= len;
 168:..\..\..\u8g2\u8g2\csrc/u8g2_hvline.c **** 	  x++;
 100              		.loc 1 168 0
 101 001c C91A     		subs	r1, r1, r3
 102              	.LVL6:
 103 001e 89B2     		uxth	r1, r1
 104 0020 04E0     		b	.L4
 105              	.LVL7:
 106              	.L5:
 169:..\..\..\u8g2\u8g2\csrc/u8g2_hvline.c **** 	}
 170:..\..\..\u8g2\u8g2\csrc/u8g2_hvline.c **** 	else if ( dir == 3 )
 107              		.loc 1 170 0
 108 0022 032D     		cmp	r5, #3
 109 0024 02BF     		ittt	eq
 110 0026 0132     		addeq	r2, r2, #1
 111              	.LVL8:
 171:..\..\..\u8g2\u8g2\csrc/u8g2_hvline.c **** 	{
ARM GAS  C:\Users\jesse\AppData\Local\Temp\ccsy146K.s 			page 6


 172:..\..\..\u8g2\u8g2\csrc/u8g2_hvline.c **** 	  y -= len;
 173:..\..\..\u8g2\u8g2\csrc/u8g2_hvline.c **** 	  y++;
 112              		.loc 1 173 0
 113 0028 D21A     		subeq	r2, r2, r3
 114 002a 92B2     		uxtheq	r2, r2
 115              	.LVL9:
 116              	.L4:
 174:..\..\..\u8g2\u8g2\csrc/u8g2_hvline.c **** 	}
 175:..\..\..\u8g2\u8g2\csrc/u8g2_hvline.c ****       }
 176:..\..\..\u8g2\u8g2\csrc/u8g2_hvline.c ****       dir &= 1;  
 177:..\..\..\u8g2\u8g2\csrc/u8g2_hvline.c ****       
 178:..\..\..\u8g2\u8g2\csrc/u8g2_hvline.c ****       /* clip against the user window */
 179:..\..\..\u8g2\u8g2\csrc/u8g2_hvline.c ****       if ( dir == 0 )
 117              		.loc 1 179 0
 118 002c 15F00105 		ands	r5, r5, #1
 119              	.LVL10:
 120 0030 23D1     		bne	.L6
 121              	.LVL11:
 180:..\..\..\u8g2\u8g2\csrc/u8g2_hvline.c ****       {
 181:..\..\..\u8g2\u8g2\csrc/u8g2_hvline.c **** 	if ( y < u8g2->user_y0 )
 122              		.loc 1 181 0
 123 0032 B0F84C40 		ldrh	r4, [r0, #76]
 124 0036 9442     		cmp	r4, r2
 125 0038 49D8     		bhi	.L2
 182:..\..\..\u8g2\u8g2\csrc/u8g2_hvline.c **** 	  return;
 183:..\..\..\u8g2\u8g2\csrc/u8g2_hvline.c **** 	if ( y >= u8g2->user_y1 )
 126              		.loc 1 183 0
 127 003a B0F84E40 		ldrh	r4, [r0, #78]
 128 003e 9442     		cmp	r4, r2
 129 0040 45D9     		bls	.L2
 130              	.LBB6:
 131              	.LBB7:
  66:..\..\..\u8g2\u8g2\csrc/u8g2_hvline.c **** 
 132              		.loc 1 66 0
 133 0042 0B44     		add	r3, r3, r1
 134              	.LVL12:
 135 0044 9BB2     		uxth	r3, r3
  87:..\..\..\u8g2\u8g2\csrc/u8g2_hvline.c ****   {    
 136              		.loc 1 87 0
 137 0046 8B42     		cmp	r3, r1
 138              	.LBE7:
 139              	.LBE6:
 184:..\..\..\u8g2\u8g2\csrc/u8g2_hvline.c **** 	  return;
 185:..\..\..\u8g2\u8g2\csrc/u8g2_hvline.c **** 	if ( u8g2_clip_intersection2(&x, &len, u8g2->user_x0, u8g2->user_x1) == 0 )
 140              		.loc 1 185 0
 141 0048 B0F84860 		ldrh	r6, [r0, #72]
 142 004c B0F84A40 		ldrh	r4, [r0, #74]
 143              	.LVL13:
 144              	.LBB10:
 145              	.LBB8:
  87:..\..\..\u8g2\u8g2\csrc/u8g2_hvline.c ****   {    
 146              		.loc 1 87 0
 147 0050 05D2     		bcs	.L7
  90:..\..\..\u8g2\u8g2\csrc/u8g2_hvline.c ****     {
 148              		.loc 1 90 0
 149 0052 8C42     		cmp	r4, r1
 150 0054 02D9     		bls	.L12
ARM GAS  C:\Users\jesse\AppData\Local\Temp\ccsy146K.s 			page 7


 151              	.LVL14:
  93:..\..\..\u8g2\u8g2\csrc/u8g2_hvline.c ****     }
 152              		.loc 1 93 0
 153 0056 631E     		subs	r3, r4, #1
 154 0058 9BB2     		uxth	r3, r3
 155              	.LVL15:
 156 005a 02E0     		b	.L8
 157              	.L12:
 158              	.LVL16:
 159              	.LBE8:
 160              	.LBE10:
 161              		.loc 1 185 0
 162 005c 3146     		mov	r1, r6
 163              	.LVL17:
 164              	.L7:
 165              	.LBB11:
 166              	.LBB9:
 103:..\..\..\u8g2\u8g2\csrc/u8g2_hvline.c ****     return 0;
 167              		.loc 1 103 0
 168 005e 8C42     		cmp	r4, r1
 169 0060 35D9     		bls	.L2
 170              	.L8:
 105:..\..\..\u8g2\u8g2\csrc/u8g2_hvline.c ****     return 0;
 171              		.loc 1 105 0
 172 0062 9E42     		cmp	r6, r3
 173 0064 33D2     		bcs	.L2
 174              	.LVL18:
 175 0066 B142     		cmp	r1, r6
 176 0068 38BF     		it	cc
 177 006a 3146     		movcc	r1, r6
 178              	.LVL19:
 113:..\..\..\u8g2\u8g2\csrc/u8g2_hvline.c ****   *len = b;
 179              		.loc 1 113 0
 180 006c 9C42     		cmp	r4, r3
 181 006e 94BF     		ite	ls
 182 0070 C1EB0404 		rsbls	r4, r1, r4
 183 0074 C1EB0304 		rsbhi	r4, r1, r3
 184              	.LVL20:
 185 0078 22E0     		b	.L20
 186              	.LVL21:
 187              	.L6:
 188              	.LBE9:
 189              	.LBE11:
 186:..\..\..\u8g2\u8g2\csrc/u8g2_hvline.c **** 	  return;
 187:..\..\..\u8g2\u8g2\csrc/u8g2_hvline.c ****       }
 188:..\..\..\u8g2\u8g2\csrc/u8g2_hvline.c ****       else
 189:..\..\..\u8g2\u8g2\csrc/u8g2_hvline.c ****       {
 190:..\..\..\u8g2\u8g2\csrc/u8g2_hvline.c **** 	if ( x < u8g2->user_x0 )
 190              		.loc 1 190 0
 191 007a B0F84840 		ldrh	r4, [r0, #72]
 192 007e 8C42     		cmp	r4, r1
 193 0080 25D8     		bhi	.L2
 191:..\..\..\u8g2\u8g2\csrc/u8g2_hvline.c **** 	  return;
 192:..\..\..\u8g2\u8g2\csrc/u8g2_hvline.c **** 	if ( x >= u8g2->user_x1 )
 194              		.loc 1 192 0
 195 0082 B0F84A40 		ldrh	r4, [r0, #74]
 196 0086 8C42     		cmp	r4, r1
ARM GAS  C:\Users\jesse\AppData\Local\Temp\ccsy146K.s 			page 8


 197 0088 21D9     		bls	.L2
 198              	.LBB12:
 199              	.LBB13:
  66:..\..\..\u8g2\u8g2\csrc/u8g2_hvline.c **** 
 200              		.loc 1 66 0
 201 008a 1344     		add	r3, r3, r2
 202              	.LVL22:
 203 008c 9BB2     		uxth	r3, r3
  87:..\..\..\u8g2\u8g2\csrc/u8g2_hvline.c ****   {    
 204              		.loc 1 87 0
 205 008e 9342     		cmp	r3, r2
 206              	.LBE13:
 207              	.LBE12:
 193:..\..\..\u8g2\u8g2\csrc/u8g2_hvline.c **** 	  return;
 194:..\..\..\u8g2\u8g2\csrc/u8g2_hvline.c **** 	if ( u8g2_clip_intersection2(&y, &len, u8g2->user_y0, u8g2->user_y1) == 0 )
 208              		.loc 1 194 0
 209 0090 B0F84C60 		ldrh	r6, [r0, #76]
 210 0094 B0F84E40 		ldrh	r4, [r0, #78]
 211              	.LVL23:
 212              	.LBB16:
 213              	.LBB14:
  87:..\..\..\u8g2\u8g2\csrc/u8g2_hvline.c ****   {    
 214              		.loc 1 87 0
 215 0098 05D2     		bcs	.L10
  90:..\..\..\u8g2\u8g2\csrc/u8g2_hvline.c ****     {
 216              		.loc 1 90 0
 217 009a 9442     		cmp	r4, r2
 218 009c 02D9     		bls	.L13
 219              	.LVL24:
  93:..\..\..\u8g2\u8g2\csrc/u8g2_hvline.c ****     }
 220              		.loc 1 93 0
 221 009e 631E     		subs	r3, r4, #1
 222 00a0 9BB2     		uxth	r3, r3
 223              	.LVL25:
 224 00a2 02E0     		b	.L11
 225              	.L13:
 226              	.LVL26:
 227              	.LBE14:
 228              	.LBE16:
 229              		.loc 1 194 0
 230 00a4 3246     		mov	r2, r6
 231              	.LVL27:
 232              	.L10:
 233              	.LBB17:
 234              	.LBB15:
 103:..\..\..\u8g2\u8g2\csrc/u8g2_hvline.c ****     return 0;
 235              		.loc 1 103 0
 236 00a6 9442     		cmp	r4, r2
 237 00a8 11D9     		bls	.L2
 238              	.L11:
 105:..\..\..\u8g2\u8g2\csrc/u8g2_hvline.c ****     return 0;
 239              		.loc 1 105 0
 240 00aa 9E42     		cmp	r6, r3
 241 00ac 0FD2     		bcs	.L2
 242              	.LVL28:
 243 00ae B242     		cmp	r2, r6
 244 00b0 38BF     		it	cc
ARM GAS  C:\Users\jesse\AppData\Local\Temp\ccsy146K.s 			page 9


 245 00b2 3246     		movcc	r2, r6
 246              	.LVL29:
 113:..\..\..\u8g2\u8g2\csrc/u8g2_hvline.c ****   *len = b;
 247              		.loc 1 113 0
 248 00b4 9C42     		cmp	r4, r3
 249 00b6 94BF     		ite	ls
 250 00b8 C2EB0404 		rsbls	r4, r2, r4
 251 00bc C2EB0304 		rsbhi	r4, r2, r3
 252              	.LVL30:
 253              	.L20:
 254 00c0 A3B2     		uxth	r3, r4
 255              	.LVL31:
 256              	.LBE15:
 257              	.LBE17:
 195:..\..\..\u8g2\u8g2\csrc/u8g2_hvline.c **** 	  return;
 196:..\..\..\u8g2\u8g2\csrc/u8g2_hvline.c ****       }
 197:..\..\..\u8g2\u8g2\csrc/u8g2_hvline.c ****       
 198:..\..\..\u8g2\u8g2\csrc/u8g2_hvline.c ****       
 199:..\..\..\u8g2\u8g2\csrc/u8g2_hvline.c ****       u8g2->cb->draw_l90(u8g2, x, y, len, dir);
 258              		.loc 1 199 0
 259 00c2 046B     		ldr	r4, [r0, #48]
 260 00c4 0395     		str	r5, [sp, #12]
 261 00c6 A468     		ldr	r4, [r4, #8]
 262 00c8 A446     		mov	ip, r4
 200:..\..\..\u8g2\u8g2\csrc/u8g2_hvline.c ****     }
 201:..\..\..\u8g2\u8g2\csrc/u8g2_hvline.c **** }
 263              		.loc 1 201 0
 264 00ca 70BC     		pop	{r4, r5, r6}
 265              		.cfi_remember_state
 266              		.cfi_restore 6
 267              		.cfi_restore 5
 268              		.cfi_restore 4
 269              		.cfi_def_cfa_offset 0
 199:..\..\..\u8g2\u8g2\csrc/u8g2_hvline.c ****     }
 270              		.loc 1 199 0
 271 00cc 6047     		bx	ip	@ indirect register sibling call
 272              	.LVL32:
 273              	.L2:
 274              		.cfi_restore_state
 275              		.loc 1 201 0
 276 00ce 70BC     		pop	{r4, r5, r6}
 277              		.cfi_restore 6
 278              		.cfi_restore 5
 279              		.cfi_restore 4
 280              		.cfi_def_cfa_offset 0
 281 00d0 7047     		bx	lr
 282              		.cfi_endproc
 283              	.LFE2:
 284              		.size	u8g2_DrawHVLine, .-u8g2_DrawHVLine
 285              		.section	.text.u8g2_DrawHLine,"ax",%progbits
 286              		.align	1
 287              		.global	u8g2_DrawHLine
 288              		.thumb
 289              		.thumb_func
 290              		.type	u8g2_DrawHLine, %function
 291              	u8g2_DrawHLine:
 292              	.LFB3:
ARM GAS  C:\Users\jesse\AppData\Local\Temp\ccsy146K.s 			page 10


 202:..\..\..\u8g2\u8g2\csrc/u8g2_hvline.c **** 
 203:..\..\..\u8g2\u8g2\csrc/u8g2_hvline.c **** void u8g2_DrawHLine(u8g2_t *u8g2, u8g2_uint_t x, u8g2_uint_t y, u8g2_uint_t len)
 204:..\..\..\u8g2\u8g2\csrc/u8g2_hvline.c **** {
 293              		.loc 1 204 0
 294              		.cfi_startproc
 295              		@ args = 0, pretend = 0, frame = 0
 296              		@ frame_needed = 0, uses_anonymous_args = 0
 297              	.LVL33:
 298 0000 13B5     		push	{r0, r1, r4, lr}
 299              		.cfi_def_cfa_offset 16
 300              		.cfi_offset 4, -8
 301              		.cfi_offset 14, -4
 205:..\..\..\u8g2\u8g2\csrc/u8g2_hvline.c **** // #ifdef U8G2_WITH_INTERSECTION
 206:..\..\..\u8g2\u8g2\csrc/u8g2_hvline.c **** //   if ( u8g2_IsIntersection(u8g2, x, y, x+len, y+1) == 0 ) 
 207:..\..\..\u8g2\u8g2\csrc/u8g2_hvline.c **** //     return;
 208:..\..\..\u8g2\u8g2\csrc/u8g2_hvline.c **** // #endif /* U8G2_WITH_INTERSECTION */
 209:..\..\..\u8g2\u8g2\csrc/u8g2_hvline.c ****   u8g2_DrawHVLine(u8g2, x, y, len, 0);
 302              		.loc 1 209 0
 303 0002 0024     		movs	r4, #0
 304 0004 0094     		str	r4, [sp]
 305 0006 FFF7FEFF 		bl	u8g2_DrawHVLine
 306              	.LVL34:
 210:..\..\..\u8g2\u8g2\csrc/u8g2_hvline.c **** }
 307              		.loc 1 210 0
 308 000a 02B0     		add	sp, sp, #8
 309              		.cfi_def_cfa_offset 8
 310              		@ sp needed
 311 000c 10BD     		pop	{r4, pc}
 312              		.cfi_endproc
 313              	.LFE3:
 314              		.size	u8g2_DrawHLine, .-u8g2_DrawHLine
 315              		.section	.text.u8g2_DrawVLine,"ax",%progbits
 316              		.align	1
 317              		.global	u8g2_DrawVLine
 318              		.thumb
 319              		.thumb_func
 320              		.type	u8g2_DrawVLine, %function
 321              	u8g2_DrawVLine:
 322              	.LFB4:
 211:..\..\..\u8g2\u8g2\csrc/u8g2_hvline.c **** 
 212:..\..\..\u8g2\u8g2\csrc/u8g2_hvline.c **** void u8g2_DrawVLine(u8g2_t *u8g2, u8g2_uint_t x, u8g2_uint_t y, u8g2_uint_t len)
 213:..\..\..\u8g2\u8g2\csrc/u8g2_hvline.c **** {
 323              		.loc 1 213 0
 324              		.cfi_startproc
 325              		@ args = 0, pretend = 0, frame = 0
 326              		@ frame_needed = 0, uses_anonymous_args = 0
 327              	.LVL35:
 328 0000 13B5     		push	{r0, r1, r4, lr}
 329              		.cfi_def_cfa_offset 16
 330              		.cfi_offset 4, -8
 331              		.cfi_offset 14, -4
 214:..\..\..\u8g2\u8g2\csrc/u8g2_hvline.c **** // #ifdef U8G2_WITH_INTERSECTION
 215:..\..\..\u8g2\u8g2\csrc/u8g2_hvline.c **** //   if ( u8g2_IsIntersection(u8g2, x, y, x+1, y+len) == 0 ) 
 216:..\..\..\u8g2\u8g2\csrc/u8g2_hvline.c **** //     return;
 217:..\..\..\u8g2\u8g2\csrc/u8g2_hvline.c **** // #endif /* U8G2_WITH_INTERSECTION */
 218:..\..\..\u8g2\u8g2\csrc/u8g2_hvline.c ****   u8g2_DrawHVLine(u8g2, x, y, len, 1);
 332              		.loc 1 218 0
ARM GAS  C:\Users\jesse\AppData\Local\Temp\ccsy146K.s 			page 11


 333 0002 0124     		movs	r4, #1
 334 0004 0094     		str	r4, [sp]
 335 0006 FFF7FEFF 		bl	u8g2_DrawHVLine
 336              	.LVL36:
 219:..\..\..\u8g2\u8g2\csrc/u8g2_hvline.c **** }
 337              		.loc 1 219 0
 338 000a 02B0     		add	sp, sp, #8
 339              		.cfi_def_cfa_offset 8
 340              		@ sp needed
 341 000c 10BD     		pop	{r4, pc}
 342              		.cfi_endproc
 343              	.LFE4:
 344              		.size	u8g2_DrawVLine, .-u8g2_DrawVLine
 345              		.section	.text.u8g2_DrawPixel,"ax",%progbits
 346              		.align	1
 347              		.global	u8g2_DrawPixel
 348              		.thumb
 349              		.thumb_func
 350              		.type	u8g2_DrawPixel, %function
 351              	u8g2_DrawPixel:
 352              	.LFB5:
 220:..\..\..\u8g2\u8g2\csrc/u8g2_hvline.c **** 
 221:..\..\..\u8g2\u8g2\csrc/u8g2_hvline.c **** void u8g2_DrawPixel(u8g2_t *u8g2, u8g2_uint_t x, u8g2_uint_t y)
 222:..\..\..\u8g2\u8g2\csrc/u8g2_hvline.c **** {
 353              		.loc 1 222 0
 354              		.cfi_startproc
 355              		@ args = 0, pretend = 0, frame = 0
 356              		@ frame_needed = 0, uses_anonymous_args = 0
 357              	.LVL37:
 358 0000 73B5     		push	{r0, r1, r4, r5, r6, lr}
 359              		.cfi_def_cfa_offset 24
 360              		.cfi_offset 4, -16
 361              		.cfi_offset 5, -12
 362              		.cfi_offset 6, -8
 363              		.cfi_offset 14, -4
 223:..\..\..\u8g2\u8g2\csrc/u8g2_hvline.c **** #ifdef U8G2_WITH_INTERSECTION
 224:..\..\..\u8g2\u8g2\csrc/u8g2_hvline.c ****   if ( y < u8g2->user_y0 )
 364              		.loc 1 224 0
 365 0002 B0F84C60 		ldrh	r6, [r0, #76]
 366 0006 9642     		cmp	r6, r2
 367 0008 10D8     		bhi	.L24
 225:..\..\..\u8g2\u8g2\csrc/u8g2_hvline.c ****     return;
 226:..\..\..\u8g2\u8g2\csrc/u8g2_hvline.c ****   if ( y >= u8g2->user_y1 )
 368              		.loc 1 226 0
 369 000a B0F84E60 		ldrh	r6, [r0, #78]
 370 000e 9642     		cmp	r6, r2
 371 0010 0CD9     		bls	.L24
 227:..\..\..\u8g2\u8g2\csrc/u8g2_hvline.c ****     return;
 228:..\..\..\u8g2\u8g2\csrc/u8g2_hvline.c ****   if ( x < u8g2->user_x0 )
 372              		.loc 1 228 0
 373 0012 B0F84850 		ldrh	r5, [r0, #72]
 374 0016 8D42     		cmp	r5, r1
 375 0018 08D8     		bhi	.L24
 229:..\..\..\u8g2\u8g2\csrc/u8g2_hvline.c ****     return;
 230:..\..\..\u8g2\u8g2\csrc/u8g2_hvline.c ****   if ( x >= u8g2->user_x1 )
 376              		.loc 1 230 0
 377 001a B0F84A30 		ldrh	r3, [r0, #74]
ARM GAS  C:\Users\jesse\AppData\Local\Temp\ccsy146K.s 			page 12


 378 001e 8B42     		cmp	r3, r1
 379 0020 04D9     		bls	.L24
 231:..\..\..\u8g2\u8g2\csrc/u8g2_hvline.c ****     return;
 232:..\..\..\u8g2\u8g2\csrc/u8g2_hvline.c **** #endif /* U8G2_WITH_INTERSECTION */
 233:..\..\..\u8g2\u8g2\csrc/u8g2_hvline.c ****   u8g2_DrawHVLine(u8g2, x, y, 1, 0);
 380              		.loc 1 233 0
 381 0022 0023     		movs	r3, #0
 382 0024 0093     		str	r3, [sp]
 383 0026 0123     		movs	r3, #1
 384 0028 FFF7FEFF 		bl	u8g2_DrawHVLine
 385              	.LVL38:
 386              	.L24:
 234:..\..\..\u8g2\u8g2\csrc/u8g2_hvline.c **** }
 387              		.loc 1 234 0
 388 002c 02B0     		add	sp, sp, #8
 389              		.cfi_def_cfa_offset 16
 390              		@ sp needed
 391 002e 70BD     		pop	{r4, r5, r6, pc}
 392              		.cfi_endproc
 393              	.LFE5:
 394              		.size	u8g2_DrawPixel, .-u8g2_DrawPixel
 395              		.section	.text.u8g2_SetDrawColor,"ax",%progbits
 396              		.align	1
 397              		.global	u8g2_SetDrawColor
 398              		.thumb
 399              		.thumb_func
 400              		.type	u8g2_SetDrawColor, %function
 401              	u8g2_SetDrawColor:
 402              	.LFB6:
 235:..\..\..\u8g2\u8g2\csrc/u8g2_hvline.c **** 
 236:..\..\..\u8g2\u8g2\csrc/u8g2_hvline.c **** /*
 237:..\..\..\u8g2\u8g2\csrc/u8g2_hvline.c ****   Assign the draw color for all drawing functions.
 238:..\..\..\u8g2\u8g2\csrc/u8g2_hvline.c ****   color may be 0 or 1. The actual color is defined by the display.
 239:..\..\..\u8g2\u8g2\csrc/u8g2_hvline.c ****   With color = 1 the drawing function will set the display memory to 1.
 240:..\..\..\u8g2\u8g2\csrc/u8g2_hvline.c ****   For OLEDs this ususally means, that the pixel is enabled and the LED 
 241:..\..\..\u8g2\u8g2\csrc/u8g2_hvline.c ****   at the pixel is turned on.
 242:..\..\..\u8g2\u8g2\csrc/u8g2_hvline.c ****   On an LCD it usually means that the LCD segment of the pixel is enabled, 
 243:..\..\..\u8g2\u8g2\csrc/u8g2_hvline.c ****   which absorbs the light.
 244:..\..\..\u8g2\u8g2\csrc/u8g2_hvline.c ****   For eInk/ePaper it means black ink.
 245:..\..\..\u8g2\u8g2\csrc/u8g2_hvline.c **** 
 246:..\..\..\u8g2\u8g2\csrc/u8g2_hvline.c ****   7 Jan 2017: Allow color value 2 for XOR operation.
 247:..\..\..\u8g2\u8g2\csrc/u8g2_hvline.c ****   
 248:..\..\..\u8g2\u8g2\csrc/u8g2_hvline.c **** */
 249:..\..\..\u8g2\u8g2\csrc/u8g2_hvline.c **** void u8g2_SetDrawColor(u8g2_t *u8g2, uint8_t color)
 250:..\..\..\u8g2\u8g2\csrc/u8g2_hvline.c **** {
 403              		.loc 1 250 0
 404              		.cfi_startproc
 405              		@ args = 0, pretend = 0, frame = 0
 406              		@ frame_needed = 0, uses_anonymous_args = 0
 407              		@ link register save eliminated.
 408              	.LVL39:
 251:..\..\..\u8g2\u8g2\csrc/u8g2_hvline.c ****   u8g2->draw_color = color;	/* u8g2_SetDrawColor: just assign the argument */ 
 252:..\..\..\u8g2\u8g2\csrc/u8g2_hvline.c ****   if ( color >= 3 )
 409              		.loc 1 252 0
 410 0000 0229     		cmp	r1, #2
 253:..\..\..\u8g2\u8g2\csrc/u8g2_hvline.c ****     u8g2->draw_color = 1;	/* u8g2_SetDrawColor: make color as one if arg is invalid */
 411              		.loc 1 253 0
ARM GAS  C:\Users\jesse\AppData\Local\Temp\ccsy146K.s 			page 13


 412 0002 8ABF     		itet	hi
 413 0004 0123     		movhi	r3, #1
 251:..\..\..\u8g2\u8g2\csrc/u8g2_hvline.c ****   u8g2->draw_color = color;	/* u8g2_SetDrawColor: just assign the argument */ 
 414              		.loc 1 251 0
 415 0006 80F89210 		strbls	r1, [r0, #146]
 416              		.loc 1 253 0
 417 000a 80F89230 		strbhi	r3, [r0, #146]
 418 000e 7047     		bx	lr
 419              		.cfi_endproc
 420              	.LFE6:
 421              		.size	u8g2_SetDrawColor, .-u8g2_SetDrawColor
 422              		.text
 423              	.Letext0:
 424              		.file 2 "c:\\program files (x86)\\cypress\\psoc creator\\4.4\\psoc creator\\import\\gnu\\arm\\5.4.
 425              		.file 3 "c:\\program files (x86)\\cypress\\psoc creator\\4.4\\psoc creator\\import\\gnu\\arm\\5.4.
 426              		.file 4 "..\\..\\..\\u8g2\\u8g2\\csrc\\u8x8.h"
 427              		.file 5 "..\\..\\..\\u8g2\\u8g2\\csrc\\u8g2.h"