ARM GAS  C:\Users\jesse\AppData\Local\Temp\ccijCsD3.s 			page 1


   1              		.syntax unified
   2              		.cpu cortex-m3
   3              		.fpu softvfp
   4              		.eabi_attribute 20, 1
   5              		.eabi_attribute 21, 1
   6              		.eabi_attribute 23, 3
   7              		.eabi_attribute 24, 1
   8              		.eabi_attribute 25, 1
   9              		.eabi_attribute 26, 1
  10              		.eabi_attribute 30, 4
  11              		.eabi_attribute 34, 1
  12              		.eabi_attribute 18, 4
  13              		.thumb
  14              		.syntax unified
  15              		.file	"u8g2_line.c"
  16              		.text
  17              	.Ltext0:
  18              		.cfi_sections	.debug_frame
  19              		.section	.text.u8g2_DrawLine,"ax",%progbits
  20              		.align	1
  21              		.global	u8g2_DrawLine
  22              		.thumb
  23              		.thumb_func
  24              		.type	u8g2_DrawLine, %function
  25              	u8g2_DrawLine:
  26              	.LFB0:
  27              		.file 1 "..\\..\\..\\u8g2\\u8g2\\csrc\\u8g2_line.c"
   1:..\..\..\u8g2\u8g2\csrc/u8g2_line.c **** /*
   2:..\..\..\u8g2\u8g2\csrc/u8g2_line.c **** 
   3:..\..\..\u8g2\u8g2\csrc/u8g2_line.c ****   u8g2_box.c
   4:..\..\..\u8g2\u8g2\csrc/u8g2_line.c **** 
   5:..\..\..\u8g2\u8g2\csrc/u8g2_line.c ****   Universal 8bit Graphics Library (https://github.com/olikraus/u8g2/)
   6:..\..\..\u8g2\u8g2\csrc/u8g2_line.c **** 
   7:..\..\..\u8g2\u8g2\csrc/u8g2_line.c ****   Copyright (c) 2016, olikraus@gmail.com
   8:..\..\..\u8g2\u8g2\csrc/u8g2_line.c ****   All rights reserved.
   9:..\..\..\u8g2\u8g2\csrc/u8g2_line.c **** 
  10:..\..\..\u8g2\u8g2\csrc/u8g2_line.c ****   Redistribution and use in source and binary forms, with or without modification, 
  11:..\..\..\u8g2\u8g2\csrc/u8g2_line.c ****   are permitted provided that the following conditions are met:
  12:..\..\..\u8g2\u8g2\csrc/u8g2_line.c **** 
  13:..\..\..\u8g2\u8g2\csrc/u8g2_line.c ****   * Redistributions of source code must retain the above copyright notice, this list 
  14:..\..\..\u8g2\u8g2\csrc/u8g2_line.c ****     of conditions and the following disclaimer.
  15:..\..\..\u8g2\u8g2\csrc/u8g2_line.c ****     
  16:..\..\..\u8g2\u8g2\csrc/u8g2_line.c ****   * Redistributions in binary form must reproduce the above copyright notice, this 
  17:..\..\..\u8g2\u8g2\csrc/u8g2_line.c ****     list of conditions and the following disclaimer in the documentation and/or other 
  18:..\..\..\u8g2\u8g2\csrc/u8g2_line.c ****     materials provided with the distribution.
  19:..\..\..\u8g2\u8g2\csrc/u8g2_line.c **** 
  20:..\..\..\u8g2\u8g2\csrc/u8g2_line.c ****   THIS SOFTWARE IS PROVIDED BY THE COPYRIGHT HOLDERS AND 
  21:..\..\..\u8g2\u8g2\csrc/u8g2_line.c ****   CONTRIBUTORS "AS IS" AND ANY EXPRESS OR IMPLIED WARRANTIES, 
  22:..\..\..\u8g2\u8g2\csrc/u8g2_line.c ****   INCLUDING, BUT NOT LIMITED TO, THE IMPLIED WARRANTIES OF 
  23:..\..\..\u8g2\u8g2\csrc/u8g2_line.c ****   MERCHANTABILITY AND FITNESS FOR A PARTICULAR PURPOSE ARE 
  24:..\..\..\u8g2\u8g2\csrc/u8g2_line.c ****   DISCLAIMED. IN NO EVENT SHALL THE COPYRIGHT HOLDER OR 
  25:..\..\..\u8g2\u8g2\csrc/u8g2_line.c ****   CONTRIBUTORS BE LIABLE FOR ANY DIRECT, INDIRECT, INCIDENTAL, 
  26:..\..\..\u8g2\u8g2\csrc/u8g2_line.c ****   SPECIAL, EXEMPLARY, OR CONSEQUENTIAL DAMAGES (INCLUDING, BUT 
  27:..\..\..\u8g2\u8g2\csrc/u8g2_line.c ****   NOT LIMITED TO, PROCUREMENT OF SUBSTITUTE GOODS OR SERVICES; 
  28:..\..\..\u8g2\u8g2\csrc/u8g2_line.c ****   LOSS OF USE, DATA, OR PROFITS; OR BUSINESS INTERRUPTION) HOWEVER 
  29:..\..\..\u8g2\u8g2\csrc/u8g2_line.c ****   CAUSED AND ON ANY THEORY OF LIABILITY, WHETHER IN CONTRACT, 
  30:..\..\..\u8g2\u8g2\csrc/u8g2_line.c ****   STRICT LIABILITY, OR TORT (INCLUDING NEGLIGENCE OR OTHERWISE) 
ARM GAS  C:\Users\jesse\AppData\Local\Temp\ccijCsD3.s 			page 2


  31:..\..\..\u8g2\u8g2\csrc/u8g2_line.c ****   ARISING IN ANY WAY OUT OF THE USE OF THIS SOFTWARE, EVEN IF 
  32:..\..\..\u8g2\u8g2\csrc/u8g2_line.c ****   ADVISED OF THE POSSIBILITY OF SUCH DAMAGE.  
  33:..\..\..\u8g2\u8g2\csrc/u8g2_line.c **** 
  34:..\..\..\u8g2\u8g2\csrc/u8g2_line.c **** */
  35:..\..\..\u8g2\u8g2\csrc/u8g2_line.c **** 
  36:..\..\..\u8g2\u8g2\csrc/u8g2_line.c **** #include "u8g2.h"
  37:..\..\..\u8g2\u8g2\csrc/u8g2_line.c **** 
  38:..\..\..\u8g2\u8g2\csrc/u8g2_line.c **** 
  39:..\..\..\u8g2\u8g2\csrc/u8g2_line.c **** void u8g2_DrawLine(u8g2_t *u8g2, u8g2_uint_t x1, u8g2_uint_t y1, u8g2_uint_t x2, u8g2_uint_t y2)
  40:..\..\..\u8g2\u8g2\csrc/u8g2_line.c **** {
  28              		.loc 1 40 0
  29              		.cfi_startproc
  30              		@ args = 4, pretend = 0, frame = 8
  31              		@ frame_needed = 0, uses_anonymous_args = 0
  32              	.LVL0:
  33 0000 2DE9F74F 		push	{r0, r1, r2, r4, r5, r6, r7, r8, r9, r10, fp, lr}
  34              		.cfi_def_cfa_offset 48
  35              		.cfi_offset 4, -36
  36              		.cfi_offset 5, -32
  37              		.cfi_offset 6, -28
  38              		.cfi_offset 7, -24
  39              		.cfi_offset 8, -20
  40              		.cfi_offset 9, -16
  41              		.cfi_offset 10, -12
  42              		.cfi_offset 11, -8
  43              		.cfi_offset 14, -4
  44              		.loc 1 40 0
  45 0004 BDF83090 		ldrh	r9, [sp, #48]
  41:..\..\..\u8g2\u8g2\csrc/u8g2_line.c ****   u8g2_uint_t tmp;
  42:..\..\..\u8g2\u8g2\csrc/u8g2_line.c ****   u8g2_uint_t x,y;
  43:..\..\..\u8g2\u8g2\csrc/u8g2_line.c ****   u8g2_uint_t dx, dy;
  44:..\..\..\u8g2\u8g2\csrc/u8g2_line.c ****   u8g2_int_t err;
  45:..\..\..\u8g2\u8g2\csrc/u8g2_line.c ****   u8g2_int_t ystep;
  46:..\..\..\u8g2\u8g2\csrc/u8g2_line.c **** 
  47:..\..\..\u8g2\u8g2\csrc/u8g2_line.c ****   uint8_t swapxy = 0;
  48:..\..\..\u8g2\u8g2\csrc/u8g2_line.c ****   
  49:..\..\..\u8g2\u8g2\csrc/u8g2_line.c ****   /* no intersection check at the moment, should be added... */
  50:..\..\..\u8g2\u8g2\csrc/u8g2_line.c **** 
  51:..\..\..\u8g2\u8g2\csrc/u8g2_line.c ****   if ( x1 > x2 ) dx = x1-x2; else dx = x2-x1;
  46              		.loc 1 51 0
  47 0008 9942     		cmp	r1, r3
  48 000a 8CBF     		ite	hi
  49 000c CF1A     		subhi	r7, r1, r3
  50 000e 5F1A     		subls	r7, r3, r1
  52:..\..\..\u8g2\u8g2\csrc/u8g2_line.c ****   if ( y1 > y2 ) dy = y1-y2; else dy = y2-y1;
  51              		.loc 1 52 0
  52 0010 4A45     		cmp	r2, r9
  40:..\..\..\u8g2\u8g2\csrc/u8g2_line.c ****   u8g2_uint_t tmp;
  53              		.loc 1 40 0
  54 0012 0190     		str	r0, [sp, #4]
  55 0014 0C46     		mov	r4, r1
  56              	.LVL1:
  57 0016 1646     		mov	r6, r2
  58 0018 1D46     		mov	r5, r3
  51:..\..\..\u8g2\u8g2\csrc/u8g2_line.c ****   if ( y1 > y2 ) dy = y1-y2; else dy = y2-y1;
  59              		.loc 1 51 0
  60 001a BFB2     		uxth	r7, r7
ARM GAS  C:\Users\jesse\AppData\Local\Temp\ccijCsD3.s 			page 3


  61              	.LVL2:
  62              		.loc 1 52 0
  63 001c 0DD9     		bls	.L4
  64              		.loc 1 52 0 is_stmt 0 discriminator 1
  65 001e C9EB0208 		rsb	r8, r9, r2
  66 0022 1FFA88F8 		uxth	r8, r8
  67              	.LVL3:
  53:..\..\..\u8g2\u8g2\csrc/u8g2_line.c **** 
  54:..\..\..\u8g2\u8g2\csrc/u8g2_line.c ****   if ( dy > dx ) 
  68              		.loc 1 54 0 is_stmt 1 discriminator 1
  69 0026 4745     		cmp	r7, r8
  70 0028 47D2     		bcs	.L27
  71              		.loc 1 54 0 is_stmt 0
  72 002a 3B46     		mov	r3, r7
  73              	.LVL4:
  74 002c 2E46     		mov	r6, r5
  75 002e 4746     		mov	r7, r8
  76              	.LVL5:
  77 0030 4C46     		mov	r4, r9
  78 0032 9846     		mov	r8, r3
  79              	.LVL6:
  80 0034 1546     		mov	r5, r2
  81 0036 8946     		mov	r9, r1
  82 0038 0DE0     		b	.L24
  83              	.LVL7:
  84              	.L4:
  52:..\..\..\u8g2\u8g2\csrc/u8g2_line.c **** 
  85              		.loc 1 52 0 is_stmt 1 discriminator 2
  86 003a C2EB0908 		rsb	r8, r2, r9
  87 003e 1FFA88F8 		uxth	r8, r8
  88              	.LVL8:
  89              		.loc 1 54 0 discriminator 2
  90 0042 4745     		cmp	r7, r8
  91 0044 46D2     		bcs	.L7
  92              		.loc 1 54 0 is_stmt 0
  93 0046 3B46     		mov	r3, r7
  94              	.LVL9:
  95 0048 4746     		mov	r7, r8
  96              	.LVL10:
  97 004a 9846     		mov	r8, r3
  98              	.LVL11:
  99 004c 2B46     		mov	r3, r5
 100              	.LVL12:
 101 004e 1446     		mov	r4, r2
 102 0050 4D46     		mov	r5, r9
 103 0052 0E46     		mov	r6, r1
 104 0054 9946     		mov	r9, r3
 105              	.LVL13:
 106              	.L24:
  55:..\..\..\u8g2\u8g2\csrc/u8g2_line.c ****   {
  56:..\..\..\u8g2\u8g2\csrc/u8g2_line.c ****     swapxy = 1;
 107              		.loc 1 56 0 is_stmt 1
 108 0056 4FF0010A 		mov	r10, #1
 109              	.LVL14:
 110              	.L5:
  57:..\..\..\u8g2\u8g2\csrc/u8g2_line.c ****     tmp = dx; dx =dy; dy = tmp;
  58:..\..\..\u8g2\u8g2\csrc/u8g2_line.c ****     tmp = x1; x1 =y1; y1 = tmp;
ARM GAS  C:\Users\jesse\AppData\Local\Temp\ccijCsD3.s 			page 4


  59:..\..\..\u8g2\u8g2\csrc/u8g2_line.c ****     tmp = x2; x2 =y2; y2 = tmp;
  60:..\..\..\u8g2\u8g2\csrc/u8g2_line.c ****   }
  61:..\..\..\u8g2\u8g2\csrc/u8g2_line.c ****   if ( x1 > x2 ) 
  62:..\..\..\u8g2\u8g2\csrc/u8g2_line.c ****   {
  63:..\..\..\u8g2\u8g2\csrc/u8g2_line.c ****     tmp = x1; x1 =x2; x2 = tmp;
  64:..\..\..\u8g2\u8g2\csrc/u8g2_line.c ****     tmp = y1; y1 =y2; y2 = tmp;
  65:..\..\..\u8g2\u8g2\csrc/u8g2_line.c ****   }
  66:..\..\..\u8g2\u8g2\csrc/u8g2_line.c ****   err = dx >> 1;
  67:..\..\..\u8g2\u8g2\csrc/u8g2_line.c ****   if ( y2 > y1 ) ystep = 1; else ystep = -1;
 111              		.loc 1 67 0
 112 005a 4E45     		cmp	r6, r9
 113 005c 34BF     		ite	cc
 114 005e 4FF00109 		movcc	r9, #1
 115 0062 4FF0FF39 		movcs	r9, #-1
 116              	.LVL15:
  66:..\..\..\u8g2\u8g2\csrc/u8g2_line.c ****   if ( y2 > y1 ) ystep = 1; else ystep = -1;
 117              		.loc 1 66 0
 118 0066 47F34F0B 		sbfx	fp, r7, #1, #16
 119              	.LVL16:
 120              	.L8:
  68:..\..\..\u8g2\u8g2\csrc/u8g2_line.c ****   y = y1;
  69:..\..\..\u8g2\u8g2\csrc/u8g2_line.c **** 
  70:..\..\..\u8g2\u8g2\csrc/u8g2_line.c **** #ifndef  U8G2_16BIT
  71:..\..\..\u8g2\u8g2\csrc/u8g2_line.c ****   if ( x2 == 255 )
  72:..\..\..\u8g2\u8g2\csrc/u8g2_line.c ****     x2--;
  73:..\..\..\u8g2\u8g2\csrc/u8g2_line.c **** #else
  74:..\..\..\u8g2\u8g2\csrc/u8g2_line.c ****   if ( x2 == 0xffff )
  75:..\..\..\u8g2\u8g2\csrc/u8g2_line.c ****     x2--;
 121              		.loc 1 75 0
 122 006a 4FF6FE72 		movw	r2, #65534
 123 006e 4FF6FF71 		movw	r1, #65535
 124 0072 8D42     		cmp	r5, r1
 125 0074 08BF     		it	eq
 126 0076 1546     		moveq	r5, r2
 127              	.LVL17:
  76:..\..\..\u8g2\u8g2\csrc/u8g2_line.c **** #endif
  77:..\..\..\u8g2\u8g2\csrc/u8g2_line.c **** 
  78:..\..\..\u8g2\u8g2\csrc/u8g2_line.c ****   for( x = x1; x <= x2; x++ )
  79:..\..\..\u8g2\u8g2\csrc/u8g2_line.c ****   {
  80:..\..\..\u8g2\u8g2\csrc/u8g2_line.c ****     if ( swapxy == 0 ) 
  81:..\..\..\u8g2\u8g2\csrc/u8g2_line.c ****       u8g2_DrawPixel(u8g2, x, y); 
  82:..\..\..\u8g2\u8g2\csrc/u8g2_line.c ****     else 
  83:..\..\..\u8g2\u8g2\csrc/u8g2_line.c ****       u8g2_DrawPixel(u8g2, y, x); 
  84:..\..\..\u8g2\u8g2\csrc/u8g2_line.c ****     err -= (uint8_t)dy;
 128              		.loc 1 84 0
 129 0078 5FFA88F8 		uxtb	r8, r8
 130              	.LVL18:
 131              	.L10:
  78:..\..\..\u8g2\u8g2\csrc/u8g2_line.c ****   {
 132              		.loc 1 78 0 discriminator 1
 133 007c A542     		cmp	r5, r4
 134 007e 39D3     		bcc	.L28
  80:..\..\..\u8g2\u8g2\csrc/u8g2_line.c ****       u8g2_DrawPixel(u8g2, x, y); 
 135              		.loc 1 80 0
 136 0080 BAF1000F 		cmp	r10, #0
 137 0084 02D1     		bne	.L11
  81:..\..\..\u8g2\u8g2\csrc/u8g2_line.c ****     else 
ARM GAS  C:\Users\jesse\AppData\Local\Temp\ccijCsD3.s 			page 5


 138              		.loc 1 81 0
 139 0086 3246     		mov	r2, r6
 140 0088 2146     		mov	r1, r4
 141 008a 01E0     		b	.L25
 142              	.L11:
  83:..\..\..\u8g2\u8g2\csrc/u8g2_line.c ****     err -= (uint8_t)dy;
 143              		.loc 1 83 0
 144 008c 2246     		mov	r2, r4
 145 008e 3146     		mov	r1, r6
 146              	.L25:
 147 0090 0198     		ldr	r0, [sp, #4]
 148 0092 FFF7FEFF 		bl	u8g2_DrawPixel
 149              	.LVL19:
 150              		.loc 1 84 0
 151 0096 C8EB0B03 		rsb	r3, r8, fp
 152 009a 9AB2     		uxth	r2, r3
 153 009c 0FFA82FB 		sxth	fp, r2
 154              	.LVL20:
  85:..\..\..\u8g2\u8g2\csrc/u8g2_line.c ****     if ( err < 0 ) 
 155              		.loc 1 85 0
 156 00a0 BBF1000F 		cmp	fp, #0
  86:..\..\..\u8g2\u8g2\csrc/u8g2_line.c ****     {
  87:..\..\..\u8g2\u8g2\csrc/u8g2_line.c ****       y += (u8g2_uint_t)ystep;
 157              		.loc 1 87 0
 158 00a4 BCBF     		itt	lt
 159 00a6 4E44     		addlt	r6, r6, r9
 160              	.LVL21:
  88:..\..\..\u8g2\u8g2\csrc/u8g2_line.c ****       err += (u8g2_uint_t)dx;
 161              		.loc 1 88 0
 162 00a8 D319     		addlt	r3, r2, r7
  78:..\..\..\u8g2\u8g2\csrc/u8g2_line.c ****   {
 163              		.loc 1 78 0
 164 00aa 04F10104 		add	r4, r4, #1
 165              	.LVL22:
  87:..\..\..\u8g2\u8g2\csrc/u8g2_line.c ****       err += (u8g2_uint_t)dx;
 166              		.loc 1 87 0
 167 00ae BCBF     		itt	lt
 168 00b0 B6B2     		uxthlt	r6, r6
 169              	.LVL23:
 170              		.loc 1 88 0
 171 00b2 0FFA83FB 		sxthlt	fp, r3
 172              	.LVL24:
  78:..\..\..\u8g2\u8g2\csrc/u8g2_line.c ****   {
 173              		.loc 1 78 0
 174 00b6 A4B2     		uxth	r4, r4
 175              	.LVL25:
 176 00b8 E0E7     		b	.L10
 177              	.LVL26:
 178              	.L27:
  61:..\..\..\u8g2\u8g2\csrc/u8g2_line.c ****   {
 179              		.loc 1 61 0
 180 00ba 9942     		cmp	r1, r3
 181 00bc 17D9     		bls	.L23
 182              	.LVL27:
  66:..\..\..\u8g2\u8g2\csrc/u8g2_line.c ****   if ( y2 > y1 ) ystep = 1; else ystep = -1;
 183              		.loc 1 66 0
 184 00be 2246     		mov	r2, r4
ARM GAS  C:\Users\jesse\AppData\Local\Temp\ccijCsD3.s 			page 6


 185              	.LVL28:
 186 00c0 4E46     		mov	r6, r9
 187              	.LVL29:
 188 00c2 2C46     		mov	r4, r5
 189              	.LVL30:
 190 00c4 47F34F0B 		sbfx	fp, r7, #1, #16
 191              	.LVL31:
 192 00c8 1546     		mov	r5, r2
 193              	.LVL32:
 194 00ca 4FF0000A 		mov	r10, #0
  67:..\..\..\u8g2\u8g2\csrc/u8g2_line.c ****   y = y1;
 195              		.loc 1 67 0
 196 00ce 4FF00109 		mov	r9, #1
 197              	.LVL33:
 198 00d2 CAE7     		b	.L8
 199              	.LVL34:
 200              	.L7:
  61:..\..\..\u8g2\u8g2\csrc/u8g2_line.c ****   {
 201              		.loc 1 61 0
 202 00d4 9942     		cmp	r1, r3
 203 00d6 0AD9     		bls	.L23
 204              	.LVL35:
  66:..\..\..\u8g2\u8g2\csrc/u8g2_line.c ****   if ( y2 > y1 ) ystep = 1; else ystep = -1;
 205              		.loc 1 66 0
 206 00d8 2246     		mov	r2, r4
 207              	.LVL36:
 208 00da 4E46     		mov	r6, r9
 209              	.LVL37:
 210 00dc 2C46     		mov	r4, r5
 211              	.LVL38:
 212 00de 47F34F0B 		sbfx	fp, r7, #1, #16
 213              	.LVL39:
 214 00e2 1546     		mov	r5, r2
 215              	.LVL40:
 216 00e4 4FF0000A 		mov	r10, #0
  67:..\..\..\u8g2\u8g2\csrc/u8g2_line.c ****   y = y1;
 217              		.loc 1 67 0
 218 00e8 4FF0FF39 		mov	r9, #-1
 219              	.LVL41:
 220 00ec BDE7     		b	.L8
 221              	.LVL42:
 222              	.L23:
  61:..\..\..\u8g2\u8g2\csrc/u8g2_line.c ****   {
 223              		.loc 1 61 0
 224 00ee 4FF0000A 		mov	r10, #0
 225 00f2 B2E7     		b	.L5
 226              	.LVL43:
 227              	.L28:
  89:..\..\..\u8g2\u8g2\csrc/u8g2_line.c ****     }
  90:..\..\..\u8g2\u8g2\csrc/u8g2_line.c ****   }
  91:..\..\..\u8g2\u8g2\csrc/u8g2_line.c **** }
 228              		.loc 1 91 0
 229 00f4 03B0     		add	sp, sp, #12
 230              		.cfi_def_cfa_offset 36
 231              		@ sp needed
 232 00f6 BDE8F08F 		pop	{r4, r5, r6, r7, r8, r9, r10, fp, pc}
 233              		.cfi_endproc
ARM GAS  C:\Users\jesse\AppData\Local\Temp\ccijCsD3.s 			page 7


 234              	.LFE0:
 235              		.size	u8g2_DrawLine, .-u8g2_DrawLine
 236              		.text
 237              	.Letext0:
 238              		.file 2 "c:\\program files (x86)\\cypress\\psoc creator\\4.4\\psoc creator\\import\\gnu\\arm\\5.4.
 239              		.file 3 "c:\\program files (x86)\\cypress\\psoc creator\\4.4\\psoc creator\\import\\gnu\\arm\\5.4.
 240              		.file 4 "..\\..\\..\\u8g2\\u8g2\\csrc\\u8x8.h"
 241              		.file 5 "..\\..\\..\\u8g2\\u8g2\\csrc\\u8g2.h"