ARM GAS  C:\Users\jesse\AppData\Local\Temp\ccuy2FXa.s 			page 1


   1              		.syntax unified
   2              		.cpu cortex-m3
   3              		.fpu softvfp
   4              		.eabi_attribute 20, 1
   5              		.eabi_attribute 21, 1
   6              		.eabi_attribute 23, 3
   7              		.eabi_attribute 24, 1
   8              		.eabi_attribute 25, 1
   9              		.eabi_attribute 26, 1
  10              		.eabi_attribute 30, 4
  11              		.eabi_attribute 34, 1
  12              		.eabi_attribute 18, 4
  13              		.thumb
  14              		.syntax unified
  15              		.file	"u8g2_d_memory.c"
  16              		.text
  17              	.Ltext0:
  18              		.cfi_sections	.debug_frame
  19              		.section	.text.u8g2_m_16_4_1,"ax",%progbits
  20              		.align	1
  21              		.global	u8g2_m_16_4_1
  22              		.thumb
  23              		.thumb_func
  24              		.type	u8g2_m_16_4_1, %function
  25              	u8g2_m_16_4_1:
  26              	.LFB0:
  27              		.file 1 "..\\..\\..\\u8g2\\u8g2\\csrc\\u8g2_d_memory.c"
   1:..\..\..\u8g2\u8g2\csrc/u8g2_d_memory.c **** /* u8g2_d_memory.c */
   2:..\..\..\u8g2\u8g2\csrc/u8g2_d_memory.c **** /* generated code, codebuild, u8g2 project */
   3:..\..\..\u8g2\u8g2\csrc/u8g2_d_memory.c **** 
   4:..\..\..\u8g2\u8g2\csrc/u8g2_d_memory.c **** #include "u8g2.h"
   5:..\..\..\u8g2\u8g2\csrc/u8g2_d_memory.c **** 
   6:..\..\..\u8g2\u8g2\csrc/u8g2_d_memory.c **** uint8_t *u8g2_m_16_4_1(uint8_t *page_cnt)
   7:..\..\..\u8g2\u8g2\csrc/u8g2_d_memory.c **** {
  28              		.loc 1 7 0
  29              		.cfi_startproc
  30              		@ args = 0, pretend = 0, frame = 0
  31              		@ frame_needed = 0, uses_anonymous_args = 0
  32              		@ link register save eliminated.
  33              	.LVL0:
   8:..\..\..\u8g2\u8g2\csrc/u8g2_d_memory.c ****   #ifdef U8G2_USE_DYNAMIC_ALLOC
   9:..\..\..\u8g2\u8g2\csrc/u8g2_d_memory.c ****   *page_cnt = 1;
  10:..\..\..\u8g2\u8g2\csrc/u8g2_d_memory.c ****   return 0;
  11:..\..\..\u8g2\u8g2\csrc/u8g2_d_memory.c ****   #else
  12:..\..\..\u8g2\u8g2\csrc/u8g2_d_memory.c ****   static uint8_t buf[128];
  13:..\..\..\u8g2\u8g2\csrc/u8g2_d_memory.c ****   *page_cnt = 1;
  34              		.loc 1 13 0
  35 0000 0123     		movs	r3, #1
  36 0002 0370     		strb	r3, [r0]
  14:..\..\..\u8g2\u8g2\csrc/u8g2_d_memory.c ****   return buf;
  15:..\..\..\u8g2\u8g2\csrc/u8g2_d_memory.c ****   #endif
  16:..\..\..\u8g2\u8g2\csrc/u8g2_d_memory.c **** }
  37              		.loc 1 16 0
  38 0004 0048     		ldr	r0, .L2
  39              	.LVL1:
  40 0006 7047     		bx	lr
  41              	.L3:
ARM GAS  C:\Users\jesse\AppData\Local\Temp\ccuy2FXa.s 			page 2


  42              		.align	2
  43              	.L2:
  44 0008 00000000 		.word	.LANCHOR0
  45              		.cfi_endproc
  46              	.LFE0:
  47              		.size	u8g2_m_16_4_1, .-u8g2_m_16_4_1
  48              		.section	.text.u8g2_m_16_4_2,"ax",%progbits
  49              		.align	1
  50              		.global	u8g2_m_16_4_2
  51              		.thumb
  52              		.thumb_func
  53              		.type	u8g2_m_16_4_2, %function
  54              	u8g2_m_16_4_2:
  55              	.LFB1:
  17:..\..\..\u8g2\u8g2\csrc/u8g2_d_memory.c **** uint8_t *u8g2_m_16_4_2(uint8_t *page_cnt)
  18:..\..\..\u8g2\u8g2\csrc/u8g2_d_memory.c **** {
  56              		.loc 1 18 0
  57              		.cfi_startproc
  58              		@ args = 0, pretend = 0, frame = 0
  59              		@ frame_needed = 0, uses_anonymous_args = 0
  60              		@ link register save eliminated.
  61              	.LVL2:
  19:..\..\..\u8g2\u8g2\csrc/u8g2_d_memory.c ****   #ifdef U8G2_USE_DYNAMIC_ALLOC
  20:..\..\..\u8g2\u8g2\csrc/u8g2_d_memory.c ****   *page_cnt = 2;
  21:..\..\..\u8g2\u8g2\csrc/u8g2_d_memory.c ****   return 0;
  22:..\..\..\u8g2\u8g2\csrc/u8g2_d_memory.c ****   #else
  23:..\..\..\u8g2\u8g2\csrc/u8g2_d_memory.c ****   static uint8_t buf[256];
  24:..\..\..\u8g2\u8g2\csrc/u8g2_d_memory.c ****   *page_cnt = 2;
  62              		.loc 1 24 0
  63 0000 0223     		movs	r3, #2
  64 0002 0370     		strb	r3, [r0]
  25:..\..\..\u8g2\u8g2\csrc/u8g2_d_memory.c ****   return buf;
  26:..\..\..\u8g2\u8g2\csrc/u8g2_d_memory.c ****   #endif
  27:..\..\..\u8g2\u8g2\csrc/u8g2_d_memory.c **** }
  65              		.loc 1 27 0
  66 0004 0048     		ldr	r0, .L5
  67              	.LVL3:
  68 0006 7047     		bx	lr
  69              	.L6:
  70              		.align	2
  71              	.L5:
  72 0008 80000000 		.word	.LANCHOR0+128
  73              		.cfi_endproc
  74              	.LFE1:
  75              		.size	u8g2_m_16_4_2, .-u8g2_m_16_4_2
  76              		.section	.text.u8g2_m_16_4_f,"ax",%progbits
  77              		.align	1
  78              		.global	u8g2_m_16_4_f
  79              		.thumb
  80              		.thumb_func
  81              		.type	u8g2_m_16_4_f, %function
  82              	u8g2_m_16_4_f:
  83              	.LFB2:
  28:..\..\..\u8g2\u8g2\csrc/u8g2_d_memory.c **** uint8_t *u8g2_m_16_4_f(uint8_t *page_cnt)
  29:..\..\..\u8g2\u8g2\csrc/u8g2_d_memory.c **** {
  84              		.loc 1 29 0
  85              		.cfi_startproc
ARM GAS  C:\Users\jesse\AppData\Local\Temp\ccuy2FXa.s 			page 3


  86              		@ args = 0, pretend = 0, frame = 0
  87              		@ frame_needed = 0, uses_anonymous_args = 0
  88              		@ link register save eliminated.
  89              	.LVL4:
  30:..\..\..\u8g2\u8g2\csrc/u8g2_d_memory.c ****   #ifdef U8G2_USE_DYNAMIC_ALLOC
  31:..\..\..\u8g2\u8g2\csrc/u8g2_d_memory.c ****   *page_cnt = 4;
  32:..\..\..\u8g2\u8g2\csrc/u8g2_d_memory.c ****   return 0;
  33:..\..\..\u8g2\u8g2\csrc/u8g2_d_memory.c ****   #else
  34:..\..\..\u8g2\u8g2\csrc/u8g2_d_memory.c ****   static uint8_t buf[512];
  35:..\..\..\u8g2\u8g2\csrc/u8g2_d_memory.c ****   *page_cnt = 4;
  90              		.loc 1 35 0
  91 0000 0423     		movs	r3, #4
  92 0002 0370     		strb	r3, [r0]
  36:..\..\..\u8g2\u8g2\csrc/u8g2_d_memory.c ****   return buf;
  37:..\..\..\u8g2\u8g2\csrc/u8g2_d_memory.c ****   #endif
  38:..\..\..\u8g2\u8g2\csrc/u8g2_d_memory.c **** }
  93              		.loc 1 38 0
  94 0004 0048     		ldr	r0, .L8
  95              	.LVL5:
  96 0006 7047     		bx	lr
  97              	.L9:
  98              		.align	2
  99              	.L8:
 100 0008 80010000 		.word	.LANCHOR0+384
 101              		.cfi_endproc
 102              	.LFE2:
 103              		.size	u8g2_m_16_4_f, .-u8g2_m_16_4_f
 104              		.section	.text.u8g2_m_16_8_1,"ax",%progbits
 105              		.align	1
 106              		.global	u8g2_m_16_8_1
 107              		.thumb
 108              		.thumb_func
 109              		.type	u8g2_m_16_8_1, %function
 110              	u8g2_m_16_8_1:
 111              	.LFB3:
  39:..\..\..\u8g2\u8g2\csrc/u8g2_d_memory.c **** uint8_t *u8g2_m_16_8_1(uint8_t *page_cnt)
  40:..\..\..\u8g2\u8g2\csrc/u8g2_d_memory.c **** {
 112              		.loc 1 40 0
 113              		.cfi_startproc
 114              		@ args = 0, pretend = 0, frame = 0
 115              		@ frame_needed = 0, uses_anonymous_args = 0
 116              		@ link register save eliminated.
 117              	.LVL6:
  41:..\..\..\u8g2\u8g2\csrc/u8g2_d_memory.c ****   #ifdef U8G2_USE_DYNAMIC_ALLOC
  42:..\..\..\u8g2\u8g2\csrc/u8g2_d_memory.c ****   *page_cnt = 1;
  43:..\..\..\u8g2\u8g2\csrc/u8g2_d_memory.c ****   return 0;
  44:..\..\..\u8g2\u8g2\csrc/u8g2_d_memory.c ****   #else
  45:..\..\..\u8g2\u8g2\csrc/u8g2_d_memory.c ****   static uint8_t buf[128];
  46:..\..\..\u8g2\u8g2\csrc/u8g2_d_memory.c ****   *page_cnt = 1;
 118              		.loc 1 46 0
 119 0000 0123     		movs	r3, #1
 120 0002 0370     		strb	r3, [r0]
  47:..\..\..\u8g2\u8g2\csrc/u8g2_d_memory.c ****   return buf;
  48:..\..\..\u8g2\u8g2\csrc/u8g2_d_memory.c ****   #endif
  49:..\..\..\u8g2\u8g2\csrc/u8g2_d_memory.c **** }
 121              		.loc 1 49 0
 122 0004 0048     		ldr	r0, .L11
ARM GAS  C:\Users\jesse\AppData\Local\Temp\ccuy2FXa.s 			page 4


 123              	.LVL7:
 124 0006 7047     		bx	lr
 125              	.L12:
 126              		.align	2
 127              	.L11:
 128 0008 80030000 		.word	.LANCHOR0+896
 129              		.cfi_endproc
 130              	.LFE3:
 131              		.size	u8g2_m_16_8_1, .-u8g2_m_16_8_1
 132              		.section	.text.u8g2_m_16_8_2,"ax",%progbits
 133              		.align	1
 134              		.global	u8g2_m_16_8_2
 135              		.thumb
 136              		.thumb_func
 137              		.type	u8g2_m_16_8_2, %function
 138              	u8g2_m_16_8_2:
 139              	.LFB4:
  50:..\..\..\u8g2\u8g2\csrc/u8g2_d_memory.c **** uint8_t *u8g2_m_16_8_2(uint8_t *page_cnt)
  51:..\..\..\u8g2\u8g2\csrc/u8g2_d_memory.c **** {
 140              		.loc 1 51 0
 141              		.cfi_startproc
 142              		@ args = 0, pretend = 0, frame = 0
 143              		@ frame_needed = 0, uses_anonymous_args = 0
 144              		@ link register save eliminated.
 145              	.LVL8:
  52:..\..\..\u8g2\u8g2\csrc/u8g2_d_memory.c ****   #ifdef U8G2_USE_DYNAMIC_ALLOC
  53:..\..\..\u8g2\u8g2\csrc/u8g2_d_memory.c ****   *page_cnt = 2;
  54:..\..\..\u8g2\u8g2\csrc/u8g2_d_memory.c ****   return 0;
  55:..\..\..\u8g2\u8g2\csrc/u8g2_d_memory.c ****   #else
  56:..\..\..\u8g2\u8g2\csrc/u8g2_d_memory.c ****   static uint8_t buf[256];
  57:..\..\..\u8g2\u8g2\csrc/u8g2_d_memory.c ****   *page_cnt = 2;
 146              		.loc 1 57 0
 147 0000 0223     		movs	r3, #2
 148 0002 0370     		strb	r3, [r0]
  58:..\..\..\u8g2\u8g2\csrc/u8g2_d_memory.c ****   return buf;
  59:..\..\..\u8g2\u8g2\csrc/u8g2_d_memory.c ****   #endif
  60:..\..\..\u8g2\u8g2\csrc/u8g2_d_memory.c **** }
 149              		.loc 1 60 0
 150 0004 0048     		ldr	r0, .L14
 151              	.LVL9:
 152 0006 7047     		bx	lr
 153              	.L15:
 154              		.align	2
 155              	.L14:
 156 0008 00040000 		.word	.LANCHOR0+1024
 157              		.cfi_endproc
 158              	.LFE4:
 159              		.size	u8g2_m_16_8_2, .-u8g2_m_16_8_2
 160              		.section	.text.u8g2_m_16_8_f,"ax",%progbits
 161              		.align	1
 162              		.global	u8g2_m_16_8_f
 163              		.thumb
 164              		.thumb_func
 165              		.type	u8g2_m_16_8_f, %function
 166              	u8g2_m_16_8_f:
 167              	.LFB5:
  61:..\..\..\u8g2\u8g2\csrc/u8g2_d_memory.c **** uint8_t *u8g2_m_16_8_f(uint8_t *page_cnt)
ARM GAS  C:\Users\jesse\AppData\Local\Temp\ccuy2FXa.s 			page 5


  62:..\..\..\u8g2\u8g2\csrc/u8g2_d_memory.c **** {
 168              		.loc 1 62 0
 169              		.cfi_startproc
 170              		@ args = 0, pretend = 0, frame = 0
 171              		@ frame_needed = 0, uses_anonymous_args = 0
 172              		@ link register save eliminated.
 173              	.LVL10:
  63:..\..\..\u8g2\u8g2\csrc/u8g2_d_memory.c ****   #ifdef U8G2_USE_DYNAMIC_ALLOC
  64:..\..\..\u8g2\u8g2\csrc/u8g2_d_memory.c ****   *page_cnt = 8;
  65:..\..\..\u8g2\u8g2\csrc/u8g2_d_memory.c ****   return 0;
  66:..\..\..\u8g2\u8g2\csrc/u8g2_d_memory.c ****   #else
  67:..\..\..\u8g2\u8g2\csrc/u8g2_d_memory.c ****   static uint8_t buf[1024];
  68:..\..\..\u8g2\u8g2\csrc/u8g2_d_memory.c ****   *page_cnt = 8;
 174              		.loc 1 68 0
 175 0000 0823     		movs	r3, #8
 176 0002 0370     		strb	r3, [r0]
  69:..\..\..\u8g2\u8g2\csrc/u8g2_d_memory.c ****   return buf;
  70:..\..\..\u8g2\u8g2\csrc/u8g2_d_memory.c ****   #endif
  71:..\..\..\u8g2\u8g2\csrc/u8g2_d_memory.c **** }
 177              		.loc 1 71 0
 178 0004 0048     		ldr	r0, .L17
 179              	.LVL11:
 180 0006 7047     		bx	lr
 181              	.L18:
 182              		.align	2
 183              	.L17:
 184 0008 00050000 		.word	.LANCHOR0+1280
 185              		.cfi_endproc
 186              	.LFE5:
 187              		.size	u8g2_m_16_8_f, .-u8g2_m_16_8_f
 188              		.section	.text.u8g2_m_255_2_1,"ax",%progbits
 189              		.align	1
 190              		.global	u8g2_m_255_2_1
 191              		.thumb
 192              		.thumb_func
 193              		.type	u8g2_m_255_2_1, %function
 194              	u8g2_m_255_2_1:
 195              	.LFB6:
  72:..\..\..\u8g2\u8g2\csrc/u8g2_d_memory.c **** uint8_t *u8g2_m_255_2_1(uint8_t *page_cnt)
  73:..\..\..\u8g2\u8g2\csrc/u8g2_d_memory.c **** {
 196              		.loc 1 73 0
 197              		.cfi_startproc
 198              		@ args = 0, pretend = 0, frame = 0
 199              		@ frame_needed = 0, uses_anonymous_args = 0
 200              		@ link register save eliminated.
 201              	.LVL12:
  74:..\..\..\u8g2\u8g2\csrc/u8g2_d_memory.c ****   #ifdef U8G2_USE_DYNAMIC_ALLOC
  75:..\..\..\u8g2\u8g2\csrc/u8g2_d_memory.c ****   *page_cnt = 1;
  76:..\..\..\u8g2\u8g2\csrc/u8g2_d_memory.c ****   return 0;
  77:..\..\..\u8g2\u8g2\csrc/u8g2_d_memory.c ****   #else
  78:..\..\..\u8g2\u8g2\csrc/u8g2_d_memory.c ****   static uint8_t buf[2040];
  79:..\..\..\u8g2\u8g2\csrc/u8g2_d_memory.c ****   *page_cnt = 1;
 202              		.loc 1 79 0
 203 0000 0123     		movs	r3, #1
 204 0002 0370     		strb	r3, [r0]
  80:..\..\..\u8g2\u8g2\csrc/u8g2_d_memory.c ****   return buf;
  81:..\..\..\u8g2\u8g2\csrc/u8g2_d_memory.c ****   #endif
ARM GAS  C:\Users\jesse\AppData\Local\Temp\ccuy2FXa.s 			page 6


  82:..\..\..\u8g2\u8g2\csrc/u8g2_d_memory.c **** }
 205              		.loc 1 82 0
 206 0004 0048     		ldr	r0, .L20
 207              	.LVL13:
 208 0006 7047     		bx	lr
 209              	.L21:
 210              		.align	2
 211              	.L20:
 212 0008 00090000 		.word	.LANCHOR0+2304
 213              		.cfi_endproc
 214              	.LFE6:
 215              		.size	u8g2_m_255_2_1, .-u8g2_m_255_2_1
 216              		.section	.text.u8g2_m_255_2_2,"ax",%progbits
 217              		.align	1
 218              		.global	u8g2_m_255_2_2
 219              		.thumb
 220              		.thumb_func
 221              		.type	u8g2_m_255_2_2, %function
 222              	u8g2_m_255_2_2:
 223              	.LFB7:
  83:..\..\..\u8g2\u8g2\csrc/u8g2_d_memory.c **** uint8_t *u8g2_m_255_2_2(uint8_t *page_cnt)
  84:..\..\..\u8g2\u8g2\csrc/u8g2_d_memory.c **** {
 224              		.loc 1 84 0
 225              		.cfi_startproc
 226              		@ args = 0, pretend = 0, frame = 0
 227              		@ frame_needed = 0, uses_anonymous_args = 0
 228              		@ link register save eliminated.
 229              	.LVL14:
  85:..\..\..\u8g2\u8g2\csrc/u8g2_d_memory.c ****   #ifdef U8G2_USE_DYNAMIC_ALLOC
  86:..\..\..\u8g2\u8g2\csrc/u8g2_d_memory.c ****   *page_cnt = 2;
  87:..\..\..\u8g2\u8g2\csrc/u8g2_d_memory.c ****   return 0;
  88:..\..\..\u8g2\u8g2\csrc/u8g2_d_memory.c ****   #else
  89:..\..\..\u8g2\u8g2\csrc/u8g2_d_memory.c ****   static uint8_t buf[4080];
  90:..\..\..\u8g2\u8g2\csrc/u8g2_d_memory.c ****   *page_cnt = 2;
 230              		.loc 1 90 0
 231 0000 0223     		movs	r3, #2
 232 0002 0370     		strb	r3, [r0]
  91:..\..\..\u8g2\u8g2\csrc/u8g2_d_memory.c ****   return buf;
  92:..\..\..\u8g2\u8g2\csrc/u8g2_d_memory.c ****   #endif
  93:..\..\..\u8g2\u8g2\csrc/u8g2_d_memory.c **** }
 233              		.loc 1 93 0
 234 0004 0048     		ldr	r0, .L23
 235              	.LVL15:
 236 0006 7047     		bx	lr
 237              	.L24:
 238              		.align	2
 239              	.L23:
 240 0008 F8100000 		.word	.LANCHOR1
 241              		.cfi_endproc
 242              	.LFE7:
 243              		.size	u8g2_m_255_2_2, .-u8g2_m_255_2_2
 244              		.section	.text.u8g2_m_255_2_f,"ax",%progbits
 245              		.align	1
 246              		.global	u8g2_m_255_2_f
 247              		.thumb
 248              		.thumb_func
 249              		.type	u8g2_m_255_2_f, %function
ARM GAS  C:\Users\jesse\AppData\Local\Temp\ccuy2FXa.s 			page 7


 250              	u8g2_m_255_2_f:
 251              	.LFB8:
  94:..\..\..\u8g2\u8g2\csrc/u8g2_d_memory.c **** uint8_t *u8g2_m_255_2_f(uint8_t *page_cnt)
  95:..\..\..\u8g2\u8g2\csrc/u8g2_d_memory.c **** {
 252              		.loc 1 95 0
 253              		.cfi_startproc
 254              		@ args = 0, pretend = 0, frame = 0
 255              		@ frame_needed = 0, uses_anonymous_args = 0
 256              		@ link register save eliminated.
 257              	.LVL16:
  96:..\..\..\u8g2\u8g2\csrc/u8g2_d_memory.c ****   #ifdef U8G2_USE_DYNAMIC_ALLOC
  97:..\..\..\u8g2\u8g2\csrc/u8g2_d_memory.c ****   *page_cnt = 2;
  98:..\..\..\u8g2\u8g2\csrc/u8g2_d_memory.c ****   return 0;
  99:..\..\..\u8g2\u8g2\csrc/u8g2_d_memory.c ****   #else
 100:..\..\..\u8g2\u8g2\csrc/u8g2_d_memory.c ****   static uint8_t buf[4080];
 101:..\..\..\u8g2\u8g2\csrc/u8g2_d_memory.c ****   *page_cnt = 2;
 258              		.loc 1 101 0
 259 0000 0223     		movs	r3, #2
 260 0002 0370     		strb	r3, [r0]
 102:..\..\..\u8g2\u8g2\csrc/u8g2_d_memory.c ****   return buf;
 103:..\..\..\u8g2\u8g2\csrc/u8g2_d_memory.c ****   #endif
 104:..\..\..\u8g2\u8g2\csrc/u8g2_d_memory.c **** }
 261              		.loc 1 104 0
 262 0004 0048     		ldr	r0, .L26
 263              	.LVL17:
 264 0006 7047     		bx	lr
 265              	.L27:
 266              		.align	2
 267              	.L26:
 268 0008 E8200000 		.word	.LANCHOR1+4080
 269              		.cfi_endproc
 270              	.LFE8:
 271              		.size	u8g2_m_255_2_f, .-u8g2_m_255_2_f
 272              		.section	.text.u8g2_m_9_5_1,"ax",%progbits
 273              		.align	1
 274              		.global	u8g2_m_9_5_1
 275              		.thumb
 276              		.thumb_func
 277              		.type	u8g2_m_9_5_1, %function
 278              	u8g2_m_9_5_1:
 279              	.LFB9:
 105:..\..\..\u8g2\u8g2\csrc/u8g2_d_memory.c **** uint8_t *u8g2_m_9_5_1(uint8_t *page_cnt)
 106:..\..\..\u8g2\u8g2\csrc/u8g2_d_memory.c **** {
 280              		.loc 1 106 0
 281              		.cfi_startproc
 282              		@ args = 0, pretend = 0, frame = 0
 283              		@ frame_needed = 0, uses_anonymous_args = 0
 284              		@ link register save eliminated.
 285              	.LVL18:
 107:..\..\..\u8g2\u8g2\csrc/u8g2_d_memory.c ****   #ifdef U8G2_USE_DYNAMIC_ALLOC
 108:..\..\..\u8g2\u8g2\csrc/u8g2_d_memory.c ****   *page_cnt = 1;
 109:..\..\..\u8g2\u8g2\csrc/u8g2_d_memory.c ****   return 0;
 110:..\..\..\u8g2\u8g2\csrc/u8g2_d_memory.c ****   #else
 111:..\..\..\u8g2\u8g2\csrc/u8g2_d_memory.c ****   static uint8_t buf[72];
 112:..\..\..\u8g2\u8g2\csrc/u8g2_d_memory.c ****   *page_cnt = 1;
 286              		.loc 1 112 0
 287 0000 0123     		movs	r3, #1
ARM GAS  C:\Users\jesse\AppData\Local\Temp\ccuy2FXa.s 			page 8


 288 0002 0370     		strb	r3, [r0]
 113:..\..\..\u8g2\u8g2\csrc/u8g2_d_memory.c ****   return buf;
 114:..\..\..\u8g2\u8g2\csrc/u8g2_d_memory.c ****   #endif
 115:..\..\..\u8g2\u8g2\csrc/u8g2_d_memory.c **** }
 289              		.loc 1 115 0
 290 0004 0048     		ldr	r0, .L29
 291              	.LVL19:
 292 0006 7047     		bx	lr
 293              	.L30:
 294              		.align	2
 295              	.L29:
 296 0008 D8300000 		.word	.LANCHOR2+3816
 297              		.cfi_endproc
 298              	.LFE9:
 299              		.size	u8g2_m_9_5_1, .-u8g2_m_9_5_1
 300              		.section	.text.u8g2_m_9_5_2,"ax",%progbits
 301              		.align	1
 302              		.global	u8g2_m_9_5_2
 303              		.thumb
 304              		.thumb_func
 305              		.type	u8g2_m_9_5_2, %function
 306              	u8g2_m_9_5_2:
 307              	.LFB10:
 116:..\..\..\u8g2\u8g2\csrc/u8g2_d_memory.c **** uint8_t *u8g2_m_9_5_2(uint8_t *page_cnt)
 117:..\..\..\u8g2\u8g2\csrc/u8g2_d_memory.c **** {
 308              		.loc 1 117 0
 309              		.cfi_startproc
 310              		@ args = 0, pretend = 0, frame = 0
 311              		@ frame_needed = 0, uses_anonymous_args = 0
 312              		@ link register save eliminated.
 313              	.LVL20:
 118:..\..\..\u8g2\u8g2\csrc/u8g2_d_memory.c ****   #ifdef U8G2_USE_DYNAMIC_ALLOC
 119:..\..\..\u8g2\u8g2\csrc/u8g2_d_memory.c ****   *page_cnt = 2;
 120:..\..\..\u8g2\u8g2\csrc/u8g2_d_memory.c ****   return 0;
 121:..\..\..\u8g2\u8g2\csrc/u8g2_d_memory.c ****   #else
 122:..\..\..\u8g2\u8g2\csrc/u8g2_d_memory.c ****   static uint8_t buf[144];
 123:..\..\..\u8g2\u8g2\csrc/u8g2_d_memory.c ****   *page_cnt = 2;
 314              		.loc 1 123 0
 315 0000 0223     		movs	r3, #2
 316 0002 0370     		strb	r3, [r0]
 124:..\..\..\u8g2\u8g2\csrc/u8g2_d_memory.c ****   return buf;
 125:..\..\..\u8g2\u8g2\csrc/u8g2_d_memory.c ****   #endif
 126:..\..\..\u8g2\u8g2\csrc/u8g2_d_memory.c **** }
 317              		.loc 1 126 0
 318 0004 0048     		ldr	r0, .L32
 319              	.LVL21:
 320 0006 7047     		bx	lr
 321              	.L33:
 322              		.align	2
 323              	.L32:
 324 0008 20310000 		.word	.LANCHOR2+3888
 325              		.cfi_endproc
 326              	.LFE10:
 327              		.size	u8g2_m_9_5_2, .-u8g2_m_9_5_2
 328              		.section	.text.u8g2_m_9_5_f,"ax",%progbits
 329              		.align	1
 330              		.global	u8g2_m_9_5_f
ARM GAS  C:\Users\jesse\AppData\Local\Temp\ccuy2FXa.s 			page 9


 331              		.thumb
 332              		.thumb_func
 333              		.type	u8g2_m_9_5_f, %function
 334              	u8g2_m_9_5_f:
 335              	.LFB11:
 127:..\..\..\u8g2\u8g2\csrc/u8g2_d_memory.c **** uint8_t *u8g2_m_9_5_f(uint8_t *page_cnt)
 128:..\..\..\u8g2\u8g2\csrc/u8g2_d_memory.c **** {
 336              		.loc 1 128 0
 337              		.cfi_startproc
 338              		@ args = 0, pretend = 0, frame = 0
 339              		@ frame_needed = 0, uses_anonymous_args = 0
 340              		@ link register save eliminated.
 341              	.LVL22:
 129:..\..\..\u8g2\u8g2\csrc/u8g2_d_memory.c ****   #ifdef U8G2_USE_DYNAMIC_ALLOC
 130:..\..\..\u8g2\u8g2\csrc/u8g2_d_memory.c ****   *page_cnt = 5;
 131:..\..\..\u8g2\u8g2\csrc/u8g2_d_memory.c ****   return 0;
 132:..\..\..\u8g2\u8g2\csrc/u8g2_d_memory.c ****   #else
 133:..\..\..\u8g2\u8g2\csrc/u8g2_d_memory.c ****   static uint8_t buf[360];
 134:..\..\..\u8g2\u8g2\csrc/u8g2_d_memory.c ****   *page_cnt = 5;
 342              		.loc 1 134 0
 343 0000 0523     		movs	r3, #5
 344 0002 0370     		strb	r3, [r0]
 135:..\..\..\u8g2\u8g2\csrc/u8g2_d_memory.c ****   return buf;
 136:..\..\..\u8g2\u8g2\csrc/u8g2_d_memory.c ****   #endif
 137:..\..\..\u8g2\u8g2\csrc/u8g2_d_memory.c **** }
 345              		.loc 1 137 0
 346 0004 0048     		ldr	r0, .L35
 347              	.LVL23:
 348 0006 7047     		bx	lr
 349              	.L36:
 350              		.align	2
 351              	.L35:
 352 0008 B0310000 		.word	.LANCHOR2+4032
 353              		.cfi_endproc
 354              	.LFE11:
 355              		.size	u8g2_m_9_5_f, .-u8g2_m_9_5_f
 356              		.section	.text.u8g2_m_12_5_1,"ax",%progbits
 357              		.align	1
 358              		.global	u8g2_m_12_5_1
 359              		.thumb
 360              		.thumb_func
 361              		.type	u8g2_m_12_5_1, %function
 362              	u8g2_m_12_5_1:
 363              	.LFB12:
 138:..\..\..\u8g2\u8g2\csrc/u8g2_d_memory.c **** uint8_t *u8g2_m_12_5_1(uint8_t *page_cnt)
 139:..\..\..\u8g2\u8g2\csrc/u8g2_d_memory.c **** {
 364              		.loc 1 139 0
 365              		.cfi_startproc
 366              		@ args = 0, pretend = 0, frame = 0
 367              		@ frame_needed = 0, uses_anonymous_args = 0
 368              		@ link register save eliminated.
 369              	.LVL24:
 140:..\..\..\u8g2\u8g2\csrc/u8g2_d_memory.c ****   #ifdef U8G2_USE_DYNAMIC_ALLOC
 141:..\..\..\u8g2\u8g2\csrc/u8g2_d_memory.c ****   *page_cnt = 1;
 142:..\..\..\u8g2\u8g2\csrc/u8g2_d_memory.c ****   return 0;
 143:..\..\..\u8g2\u8g2\csrc/u8g2_d_memory.c ****   #else
 144:..\..\..\u8g2\u8g2\csrc/u8g2_d_memory.c ****   static uint8_t buf[96];
ARM GAS  C:\Users\jesse\AppData\Local\Temp\ccuy2FXa.s 			page 10


 145:..\..\..\u8g2\u8g2\csrc/u8g2_d_memory.c ****   *page_cnt = 1;
 370              		.loc 1 145 0
 371 0000 0123     		movs	r3, #1
 372 0002 0370     		strb	r3, [r0]
 146:..\..\..\u8g2\u8g2\csrc/u8g2_d_memory.c ****   return buf;
 147:..\..\..\u8g2\u8g2\csrc/u8g2_d_memory.c ****   #endif
 148:..\..\..\u8g2\u8g2\csrc/u8g2_d_memory.c **** }
 373              		.loc 1 148 0
 374 0004 0048     		ldr	r0, .L38
 375              	.LVL25:
 376 0006 7047     		bx	lr
 377              	.L39:
 378              		.align	2
 379              	.L38:
 380 0008 18330000 		.word	.LANCHOR3+48
 381              		.cfi_endproc
 382              	.LFE12:
 383              		.size	u8g2_m_12_5_1, .-u8g2_m_12_5_1
 384              		.section	.text.u8g2_m_12_5_2,"ax",%progbits
 385              		.align	1
 386              		.global	u8g2_m_12_5_2
 387              		.thumb
 388              		.thumb_func
 389              		.type	u8g2_m_12_5_2, %function
 390              	u8g2_m_12_5_2:
 391              	.LFB13:
 149:..\..\..\u8g2\u8g2\csrc/u8g2_d_memory.c **** uint8_t *u8g2_m_12_5_2(uint8_t *page_cnt)
 150:..\..\..\u8g2\u8g2\csrc/u8g2_d_memory.c **** {
 392              		.loc 1 150 0
 393              		.cfi_startproc
 394              		@ args = 0, pretend = 0, frame = 0
 395              		@ frame_needed = 0, uses_anonymous_args = 0
 396              		@ link register save eliminated.
 397              	.LVL26:
 151:..\..\..\u8g2\u8g2\csrc/u8g2_d_memory.c ****   #ifdef U8G2_USE_DYNAMIC_ALLOC
 152:..\..\..\u8g2\u8g2\csrc/u8g2_d_memory.c ****   *page_cnt = 2;
 153:..\..\..\u8g2\u8g2\csrc/u8g2_d_memory.c ****   return 0;
 154:..\..\..\u8g2\u8g2\csrc/u8g2_d_memory.c ****   #else
 155:..\..\..\u8g2\u8g2\csrc/u8g2_d_memory.c ****   static uint8_t buf[192];
 156:..\..\..\u8g2\u8g2\csrc/u8g2_d_memory.c ****   *page_cnt = 2;
 398              		.loc 1 156 0
 399 0000 0223     		movs	r3, #2
 400 0002 0370     		strb	r3, [r0]
 157:..\..\..\u8g2\u8g2\csrc/u8g2_d_memory.c ****   return buf;
 158:..\..\..\u8g2\u8g2\csrc/u8g2_d_memory.c ****   #endif
 159:..\..\..\u8g2\u8g2\csrc/u8g2_d_memory.c **** }
 401              		.loc 1 159 0
 402 0004 0048     		ldr	r0, .L41
 403              	.LVL27:
 404 0006 7047     		bx	lr
 405              	.L42:
 406              		.align	2
 407              	.L41:
 408 0008 78330000 		.word	.LANCHOR3+144
 409              		.cfi_endproc
 410              	.LFE13:
 411              		.size	u8g2_m_12_5_2, .-u8g2_m_12_5_2
ARM GAS  C:\Users\jesse\AppData\Local\Temp\ccuy2FXa.s 			page 11


 412              		.section	.text.u8g2_m_12_5_f,"ax",%progbits
 413              		.align	1
 414              		.global	u8g2_m_12_5_f
 415              		.thumb
 416              		.thumb_func
 417              		.type	u8g2_m_12_5_f, %function
 418              	u8g2_m_12_5_f:
 419              	.LFB14:
 160:..\..\..\u8g2\u8g2\csrc/u8g2_d_memory.c **** uint8_t *u8g2_m_12_5_f(uint8_t *page_cnt)
 161:..\..\..\u8g2\u8g2\csrc/u8g2_d_memory.c **** {
 420              		.loc 1 161 0
 421              		.cfi_startproc
 422              		@ args = 0, pretend = 0, frame = 0
 423              		@ frame_needed = 0, uses_anonymous_args = 0
 424              		@ link register save eliminated.
 425              	.LVL28:
 162:..\..\..\u8g2\u8g2\csrc/u8g2_d_memory.c ****   #ifdef U8G2_USE_DYNAMIC_ALLOC
 163:..\..\..\u8g2\u8g2\csrc/u8g2_d_memory.c ****   *page_cnt = 5;
 164:..\..\..\u8g2\u8g2\csrc/u8g2_d_memory.c ****   return 0;
 165:..\..\..\u8g2\u8g2\csrc/u8g2_d_memory.c ****   #else
 166:..\..\..\u8g2\u8g2\csrc/u8g2_d_memory.c ****   static uint8_t buf[480];
 167:..\..\..\u8g2\u8g2\csrc/u8g2_d_memory.c ****   *page_cnt = 5;
 426              		.loc 1 167 0
 427 0000 0523     		movs	r3, #5
 428 0002 0370     		strb	r3, [r0]
 168:..\..\..\u8g2\u8g2\csrc/u8g2_d_memory.c ****   return buf;
 169:..\..\..\u8g2\u8g2\csrc/u8g2_d_memory.c ****   #endif
 170:..\..\..\u8g2\u8g2\csrc/u8g2_d_memory.c **** }
 429              		.loc 1 170 0
 430 0004 0048     		ldr	r0, .L44
 431              	.LVL29:
 432 0006 7047     		bx	lr
 433              	.L45:
 434              		.align	2
 435              	.L44:
 436 0008 38340000 		.word	.LANCHOR3+336
 437              		.cfi_endproc
 438              	.LFE14:
 439              		.size	u8g2_m_12_5_f, .-u8g2_m_12_5_f
 440              		.section	.text.u8g2_m_8_4_1,"ax",%progbits
 441              		.align	1
 442              		.global	u8g2_m_8_4_1
 443              		.thumb
 444              		.thumb_func
 445              		.type	u8g2_m_8_4_1, %function
 446              	u8g2_m_8_4_1:
 447              	.LFB15:
 171:..\..\..\u8g2\u8g2\csrc/u8g2_d_memory.c **** uint8_t *u8g2_m_8_4_1(uint8_t *page_cnt)
 172:..\..\..\u8g2\u8g2\csrc/u8g2_d_memory.c **** {
 448              		.loc 1 172 0
 449              		.cfi_startproc
 450              		@ args = 0, pretend = 0, frame = 0
 451              		@ frame_needed = 0, uses_anonymous_args = 0
 452              		@ link register save eliminated.
 453              	.LVL30:
 173:..\..\..\u8g2\u8g2\csrc/u8g2_d_memory.c ****   #ifdef U8G2_USE_DYNAMIC_ALLOC
 174:..\..\..\u8g2\u8g2\csrc/u8g2_d_memory.c ****   *page_cnt = 1;
ARM GAS  C:\Users\jesse\AppData\Local\Temp\ccuy2FXa.s 			page 12


 175:..\..\..\u8g2\u8g2\csrc/u8g2_d_memory.c ****   return 0;
 176:..\..\..\u8g2\u8g2\csrc/u8g2_d_memory.c ****   #else
 177:..\..\..\u8g2\u8g2\csrc/u8g2_d_memory.c ****   static uint8_t buf[64];
 178:..\..\..\u8g2\u8g2\csrc/u8g2_d_memory.c ****   *page_cnt = 1;
 454              		.loc 1 178 0
 455 0000 0123     		movs	r3, #1
 456 0002 0370     		strb	r3, [r0]
 179:..\..\..\u8g2\u8g2\csrc/u8g2_d_memory.c ****   return buf;
 180:..\..\..\u8g2\u8g2\csrc/u8g2_d_memory.c ****   #endif
 181:..\..\..\u8g2\u8g2\csrc/u8g2_d_memory.c **** }
 457              		.loc 1 181 0
 458 0004 0048     		ldr	r0, .L47
 459              	.LVL31:
 460 0006 7047     		bx	lr
 461              	.L48:
 462              		.align	2
 463              	.L47:
 464 0008 18360000 		.word	.LANCHOR3+816
 465              		.cfi_endproc
 466              	.LFE15:
 467              		.size	u8g2_m_8_4_1, .-u8g2_m_8_4_1
 468              		.section	.text.u8g2_m_8_4_2,"ax",%progbits
 469              		.align	1
 470              		.global	u8g2_m_8_4_2
 471              		.thumb
 472              		.thumb_func
 473              		.type	u8g2_m_8_4_2, %function
 474              	u8g2_m_8_4_2:
 475              	.LFB16:
 182:..\..\..\u8g2\u8g2\csrc/u8g2_d_memory.c **** uint8_t *u8g2_m_8_4_2(uint8_t *page_cnt)
 183:..\..\..\u8g2\u8g2\csrc/u8g2_d_memory.c **** {
 476              		.loc 1 183 0
 477              		.cfi_startproc
 478              		@ args = 0, pretend = 0, frame = 0
 479              		@ frame_needed = 0, uses_anonymous_args = 0
 480              		@ link register save eliminated.
 481              	.LVL32:
 184:..\..\..\u8g2\u8g2\csrc/u8g2_d_memory.c ****   #ifdef U8G2_USE_DYNAMIC_ALLOC
 185:..\..\..\u8g2\u8g2\csrc/u8g2_d_memory.c ****   *page_cnt = 2;
 186:..\..\..\u8g2\u8g2\csrc/u8g2_d_memory.c ****   return 0;
 187:..\..\..\u8g2\u8g2\csrc/u8g2_d_memory.c ****   #else
 188:..\..\..\u8g2\u8g2\csrc/u8g2_d_memory.c ****   static uint8_t buf[128];
 189:..\..\..\u8g2\u8g2\csrc/u8g2_d_memory.c ****   *page_cnt = 2;
 482              		.loc 1 189 0
 483 0000 0223     		movs	r3, #2
 484 0002 0370     		strb	r3, [r0]
 190:..\..\..\u8g2\u8g2\csrc/u8g2_d_memory.c ****   return buf;
 191:..\..\..\u8g2\u8g2\csrc/u8g2_d_memory.c ****   #endif
 192:..\..\..\u8g2\u8g2\csrc/u8g2_d_memory.c **** }
 485              		.loc 1 192 0
 486 0004 0048     		ldr	r0, .L50
 487              	.LVL33:
 488 0006 7047     		bx	lr
 489              	.L51:
 490              		.align	2
 491              	.L50:
 492 0008 58360000 		.word	.LANCHOR3+880
ARM GAS  C:\Users\jesse\AppData\Local\Temp\ccuy2FXa.s 			page 13


 493              		.cfi_endproc
 494              	.LFE16:
 495              		.size	u8g2_m_8_4_2, .-u8g2_m_8_4_2
 496              		.section	.text.u8g2_m_8_4_f,"ax",%progbits
 497              		.align	1
 498              		.global	u8g2_m_8_4_f
 499              		.thumb
 500              		.thumb_func
 501              		.type	u8g2_m_8_4_f, %function
 502              	u8g2_m_8_4_f:
 503              	.LFB17:
 193:..\..\..\u8g2\u8g2\csrc/u8g2_d_memory.c **** uint8_t *u8g2_m_8_4_f(uint8_t *page_cnt)
 194:..\..\..\u8g2\u8g2\csrc/u8g2_d_memory.c **** {
 504              		.loc 1 194 0
 505              		.cfi_startproc
 506              		@ args = 0, pretend = 0, frame = 0
 507              		@ frame_needed = 0, uses_anonymous_args = 0
 508              		@ link register save eliminated.
 509              	.LVL34:
 195:..\..\..\u8g2\u8g2\csrc/u8g2_d_memory.c ****   #ifdef U8G2_USE_DYNAMIC_ALLOC
 196:..\..\..\u8g2\u8g2\csrc/u8g2_d_memory.c ****   *page_cnt = 4;
 197:..\..\..\u8g2\u8g2\csrc/u8g2_d_memory.c ****   return 0;
 198:..\..\..\u8g2\u8g2\csrc/u8g2_d_memory.c ****   #else
 199:..\..\..\u8g2\u8g2\csrc/u8g2_d_memory.c ****   static uint8_t buf[256];
 200:..\..\..\u8g2\u8g2\csrc/u8g2_d_memory.c ****   *page_cnt = 4;
 510              		.loc 1 200 0
 511 0000 0423     		movs	r3, #4
 512 0002 0370     		strb	r3, [r0]
 201:..\..\..\u8g2\u8g2\csrc/u8g2_d_memory.c ****   return buf;
 202:..\..\..\u8g2\u8g2\csrc/u8g2_d_memory.c ****   #endif
 203:..\..\..\u8g2\u8g2\csrc/u8g2_d_memory.c **** }
 513              		.loc 1 203 0
 514 0004 0048     		ldr	r0, .L53
 515              	.LVL35:
 516 0006 7047     		bx	lr
 517              	.L54:
 518              		.align	2
 519              	.L53:
 520 0008 D8360000 		.word	.LANCHOR3+1008
 521              		.cfi_endproc
 522              	.LFE17:
 523              		.size	u8g2_m_8_4_f, .-u8g2_m_8_4_f
 524              		.section	.text.u8g2_m_8_16_1,"ax",%progbits
 525              		.align	1
 526              		.global	u8g2_m_8_16_1
 527              		.thumb
 528              		.thumb_func
 529              		.type	u8g2_m_8_16_1, %function
 530              	u8g2_m_8_16_1:
 531              	.LFB18:
 204:..\..\..\u8g2\u8g2\csrc/u8g2_d_memory.c **** uint8_t *u8g2_m_8_16_1(uint8_t *page_cnt)
 205:..\..\..\u8g2\u8g2\csrc/u8g2_d_memory.c **** {
 532              		.loc 1 205 0
 533              		.cfi_startproc
 534              		@ args = 0, pretend = 0, frame = 0
 535              		@ frame_needed = 0, uses_anonymous_args = 0
 536              		@ link register save eliminated.
ARM GAS  C:\Users\jesse\AppData\Local\Temp\ccuy2FXa.s 			page 14


 537              	.LVL36:
 206:..\..\..\u8g2\u8g2\csrc/u8g2_d_memory.c ****   #ifdef U8G2_USE_DYNAMIC_ALLOC
 207:..\..\..\u8g2\u8g2\csrc/u8g2_d_memory.c ****   *page_cnt = 1;
 208:..\..\..\u8g2\u8g2\csrc/u8g2_d_memory.c ****   return 0;
 209:..\..\..\u8g2\u8g2\csrc/u8g2_d_memory.c ****   #else
 210:..\..\..\u8g2\u8g2\csrc/u8g2_d_memory.c ****   static uint8_t buf[64];
 211:..\..\..\u8g2\u8g2\csrc/u8g2_d_memory.c ****   *page_cnt = 1;
 538              		.loc 1 211 0
 539 0000 0123     		movs	r3, #1
 540 0002 0370     		strb	r3, [r0]
 212:..\..\..\u8g2\u8g2\csrc/u8g2_d_memory.c ****   return buf;
 213:..\..\..\u8g2\u8g2\csrc/u8g2_d_memory.c ****   #endif
 214:..\..\..\u8g2\u8g2\csrc/u8g2_d_memory.c **** }
 541              		.loc 1 214 0
 542 0004 0048     		ldr	r0, .L56
 543              	.LVL37:
 544 0006 7047     		bx	lr
 545              	.L57:
 546              		.align	2
 547              	.L56:
 548 0008 D8370000 		.word	.LANCHOR3+1264
 549              		.cfi_endproc
 550              	.LFE18:
 551              		.size	u8g2_m_8_16_1, .-u8g2_m_8_16_1
 552              		.section	.text.u8g2_m_8_16_2,"ax",%progbits
 553              		.align	1
 554              		.global	u8g2_m_8_16_2
 555              		.thumb
 556              		.thumb_func
 557              		.type	u8g2_m_8_16_2, %function
 558              	u8g2_m_8_16_2:
 559              	.LFB19:
 215:..\..\..\u8g2\u8g2\csrc/u8g2_d_memory.c **** uint8_t *u8g2_m_8_16_2(uint8_t *page_cnt)
 216:..\..\..\u8g2\u8g2\csrc/u8g2_d_memory.c **** {
 560              		.loc 1 216 0
 561              		.cfi_startproc
 562              		@ args = 0, pretend = 0, frame = 0
 563              		@ frame_needed = 0, uses_anonymous_args = 0
 564              		@ link register save eliminated.
 565              	.LVL38:
 217:..\..\..\u8g2\u8g2\csrc/u8g2_d_memory.c ****   #ifdef U8G2_USE_DYNAMIC_ALLOC
 218:..\..\..\u8g2\u8g2\csrc/u8g2_d_memory.c ****   *page_cnt = 2;
 219:..\..\..\u8g2\u8g2\csrc/u8g2_d_memory.c ****   return 0;
 220:..\..\..\u8g2\u8g2\csrc/u8g2_d_memory.c ****   #else
 221:..\..\..\u8g2\u8g2\csrc/u8g2_d_memory.c ****   static uint8_t buf[128];
 222:..\..\..\u8g2\u8g2\csrc/u8g2_d_memory.c ****   *page_cnt = 2;
 566              		.loc 1 222 0
 567 0000 0223     		movs	r3, #2
 568 0002 0370     		strb	r3, [r0]
 223:..\..\..\u8g2\u8g2\csrc/u8g2_d_memory.c ****   return buf;
 224:..\..\..\u8g2\u8g2\csrc/u8g2_d_memory.c ****   #endif
 225:..\..\..\u8g2\u8g2\csrc/u8g2_d_memory.c **** }
 569              		.loc 1 225 0
 570 0004 0048     		ldr	r0, .L59
 571              	.LVL39:
 572 0006 7047     		bx	lr
 573              	.L60:
ARM GAS  C:\Users\jesse\AppData\Local\Temp\ccuy2FXa.s 			page 15


 574              		.align	2
 575              	.L59:
 576 0008 18380000 		.word	.LANCHOR3+1328
 577              		.cfi_endproc
 578              	.LFE19:
 579              		.size	u8g2_m_8_16_2, .-u8g2_m_8_16_2
 580              		.section	.text.u8g2_m_8_16_f,"ax",%progbits
 581              		.align	1
 582              		.global	u8g2_m_8_16_f
 583              		.thumb
 584              		.thumb_func
 585              		.type	u8g2_m_8_16_f, %function
 586              	u8g2_m_8_16_f:
 587              	.LFB20:
 226:..\..\..\u8g2\u8g2\csrc/u8g2_d_memory.c **** uint8_t *u8g2_m_8_16_f(uint8_t *page_cnt)
 227:..\..\..\u8g2\u8g2\csrc/u8g2_d_memory.c **** {
 588              		.loc 1 227 0
 589              		.cfi_startproc
 590              		@ args = 0, pretend = 0, frame = 0
 591              		@ frame_needed = 0, uses_anonymous_args = 0
 592              		@ link register save eliminated.
 593              	.LVL40:
 228:..\..\..\u8g2\u8g2\csrc/u8g2_d_memory.c ****   #ifdef U8G2_USE_DYNAMIC_ALLOC
 229:..\..\..\u8g2\u8g2\csrc/u8g2_d_memory.c ****   *page_cnt = 16;
 230:..\..\..\u8g2\u8g2\csrc/u8g2_d_memory.c ****   return 0;
 231:..\..\..\u8g2\u8g2\csrc/u8g2_d_memory.c ****   #else
 232:..\..\..\u8g2\u8g2\csrc/u8g2_d_memory.c ****   static uint8_t buf[1024];
 233:..\..\..\u8g2\u8g2\csrc/u8g2_d_memory.c ****   *page_cnt = 16;
 594              		.loc 1 233 0
 595 0000 1023     		movs	r3, #16
 596 0002 0370     		strb	r3, [r0]
 234:..\..\..\u8g2\u8g2\csrc/u8g2_d_memory.c ****   return buf;
 235:..\..\..\u8g2\u8g2\csrc/u8g2_d_memory.c ****   #endif
 236:..\..\..\u8g2\u8g2\csrc/u8g2_d_memory.c **** }
 597              		.loc 1 236 0
 598 0004 0048     		ldr	r0, .L62
 599              	.LVL41:
 600 0006 7047     		bx	lr
 601              	.L63:
 602              		.align	2
 603              	.L62:
 604 0008 98380000 		.word	.LANCHOR3+1456
 605              		.cfi_endproc
 606              	.LFE20:
 607              		.size	u8g2_m_8_16_f, .-u8g2_m_8_16_f
 608              		.section	.text.u8g2_m_12_12_1,"ax",%progbits
 609              		.align	1
 610              		.global	u8g2_m_12_12_1
 611              		.thumb
 612              		.thumb_func
 613              		.type	u8g2_m_12_12_1, %function
 614              	u8g2_m_12_12_1:
 615              	.LFB21:
 237:..\..\..\u8g2\u8g2\csrc/u8g2_d_memory.c **** uint8_t *u8g2_m_12_12_1(uint8_t *page_cnt)
 238:..\..\..\u8g2\u8g2\csrc/u8g2_d_memory.c **** {
 616              		.loc 1 238 0
 617              		.cfi_startproc
ARM GAS  C:\Users\jesse\AppData\Local\Temp\ccuy2FXa.s 			page 16


 618              		@ args = 0, pretend = 0, frame = 0
 619              		@ frame_needed = 0, uses_anonymous_args = 0
 620              		@ link register save eliminated.
 621              	.LVL42:
 239:..\..\..\u8g2\u8g2\csrc/u8g2_d_memory.c ****   #ifdef U8G2_USE_DYNAMIC_ALLOC
 240:..\..\..\u8g2\u8g2\csrc/u8g2_d_memory.c ****   *page_cnt = 1;
 241:..\..\..\u8g2\u8g2\csrc/u8g2_d_memory.c ****   return 0;
 242:..\..\..\u8g2\u8g2\csrc/u8g2_d_memory.c ****   #else
 243:..\..\..\u8g2\u8g2\csrc/u8g2_d_memory.c ****   static uint8_t buf[96];
 244:..\..\..\u8g2\u8g2\csrc/u8g2_d_memory.c ****   *page_cnt = 1;
 622              		.loc 1 244 0
 623 0000 0123     		movs	r3, #1
 624 0002 0370     		strb	r3, [r0]
 245:..\..\..\u8g2\u8g2\csrc/u8g2_d_memory.c ****   return buf;
 246:..\..\..\u8g2\u8g2\csrc/u8g2_d_memory.c ****   #endif
 247:..\..\..\u8g2\u8g2\csrc/u8g2_d_memory.c **** }
 625              		.loc 1 247 0
 626 0004 0048     		ldr	r0, .L65
 627              	.LVL43:
 628 0006 7047     		bx	lr
 629              	.L66:
 630              		.align	2
 631              	.L65:
 632 0008 983C0000 		.word	.LANCHOR3+2480
 633              		.cfi_endproc
 634              	.LFE21:
 635              		.size	u8g2_m_12_12_1, .-u8g2_m_12_12_1
 636              		.section	.text.u8g2_m_12_12_2,"ax",%progbits
 637              		.align	1
 638              		.global	u8g2_m_12_12_2
 639              		.thumb
 640              		.thumb_func
 641              		.type	u8g2_m_12_12_2, %function
 642              	u8g2_m_12_12_2:
 643              	.LFB22:
 248:..\..\..\u8g2\u8g2\csrc/u8g2_d_memory.c **** uint8_t *u8g2_m_12_12_2(uint8_t *page_cnt)
 249:..\..\..\u8g2\u8g2\csrc/u8g2_d_memory.c **** {
 644              		.loc 1 249 0
 645              		.cfi_startproc
 646              		@ args = 0, pretend = 0, frame = 0
 647              		@ frame_needed = 0, uses_anonymous_args = 0
 648              		@ link register save eliminated.
 649              	.LVL44:
 250:..\..\..\u8g2\u8g2\csrc/u8g2_d_memory.c ****   #ifdef U8G2_USE_DYNAMIC_ALLOC
 251:..\..\..\u8g2\u8g2\csrc/u8g2_d_memory.c ****   *page_cnt = 2;
 252:..\..\..\u8g2\u8g2\csrc/u8g2_d_memory.c ****   return 0;
 253:..\..\..\u8g2\u8g2\csrc/u8g2_d_memory.c ****   #else
 254:..\..\..\u8g2\u8g2\csrc/u8g2_d_memory.c ****   static uint8_t buf[192];
 255:..\..\..\u8g2\u8g2\csrc/u8g2_d_memory.c ****   *page_cnt = 2;
 650              		.loc 1 255 0
 651 0000 0223     		movs	r3, #2
 652 0002 0370     		strb	r3, [r0]
 256:..\..\..\u8g2\u8g2\csrc/u8g2_d_memory.c ****   return buf;
 257:..\..\..\u8g2\u8g2\csrc/u8g2_d_memory.c ****   #endif
 258:..\..\..\u8g2\u8g2\csrc/u8g2_d_memory.c **** }
 653              		.loc 1 258 0
 654 0004 0048     		ldr	r0, .L68
ARM GAS  C:\Users\jesse\AppData\Local\Temp\ccuy2FXa.s 			page 17


 655              	.LVL45:
 656 0006 7047     		bx	lr
 657              	.L69:
 658              		.align	2
 659              	.L68:
 660 0008 F83C0000 		.word	.LANCHOR3+2576
 661              		.cfi_endproc
 662              	.LFE22:
 663              		.size	u8g2_m_12_12_2, .-u8g2_m_12_12_2
 664              		.section	.text.u8g2_m_12_12_f,"ax",%progbits
 665              		.align	1
 666              		.global	u8g2_m_12_12_f
 667              		.thumb
 668              		.thumb_func
 669              		.type	u8g2_m_12_12_f, %function
 670              	u8g2_m_12_12_f:
 671              	.LFB23:
 259:..\..\..\u8g2\u8g2\csrc/u8g2_d_memory.c **** uint8_t *u8g2_m_12_12_f(uint8_t *page_cnt)
 260:..\..\..\u8g2\u8g2\csrc/u8g2_d_memory.c **** {
 672              		.loc 1 260 0
 673              		.cfi_startproc
 674              		@ args = 0, pretend = 0, frame = 0
 675              		@ frame_needed = 0, uses_anonymous_args = 0
 676              		@ link register save eliminated.
 677              	.LVL46:
 261:..\..\..\u8g2\u8g2\csrc/u8g2_d_memory.c ****   #ifdef U8G2_USE_DYNAMIC_ALLOC
 262:..\..\..\u8g2\u8g2\csrc/u8g2_d_memory.c ****   *page_cnt = 12;
 263:..\..\..\u8g2\u8g2\csrc/u8g2_d_memory.c ****   return 0;
 264:..\..\..\u8g2\u8g2\csrc/u8g2_d_memory.c ****   #else
 265:..\..\..\u8g2\u8g2\csrc/u8g2_d_memory.c ****   static uint8_t buf[1152];
 266:..\..\..\u8g2\u8g2\csrc/u8g2_d_memory.c ****   *page_cnt = 12;
 678              		.loc 1 266 0
 679 0000 0C23     		movs	r3, #12
 680 0002 0370     		strb	r3, [r0]
 267:..\..\..\u8g2\u8g2\csrc/u8g2_d_memory.c ****   return buf;
 268:..\..\..\u8g2\u8g2\csrc/u8g2_d_memory.c ****   #endif
 269:..\..\..\u8g2\u8g2\csrc/u8g2_d_memory.c **** }
 681              		.loc 1 269 0
 682 0004 0048     		ldr	r0, .L71
 683              	.LVL47:
 684 0006 7047     		bx	lr
 685              	.L72:
 686              		.align	2
 687              	.L71:
 688 0008 B83D0000 		.word	.LANCHOR3+2768
 689              		.cfi_endproc
 690              	.LFE23:
 691              		.size	u8g2_m_12_12_f, .-u8g2_m_12_12_f
 692              		.section	.text.u8g2_m_10_16_1,"ax",%progbits
 693              		.align	1
 694              		.global	u8g2_m_10_16_1
 695              		.thumb
 696              		.thumb_func
 697              		.type	u8g2_m_10_16_1, %function
 698              	u8g2_m_10_16_1:
 699              	.LFB24:
 270:..\..\..\u8g2\u8g2\csrc/u8g2_d_memory.c **** uint8_t *u8g2_m_10_16_1(uint8_t *page_cnt)
ARM GAS  C:\Users\jesse\AppData\Local\Temp\ccuy2FXa.s 			page 18


 271:..\..\..\u8g2\u8g2\csrc/u8g2_d_memory.c **** {
 700              		.loc 1 271 0
 701              		.cfi_startproc
 702              		@ args = 0, pretend = 0, frame = 0
 703              		@ frame_needed = 0, uses_anonymous_args = 0
 704              		@ link register save eliminated.
 705              	.LVL48:
 272:..\..\..\u8g2\u8g2\csrc/u8g2_d_memory.c ****   #ifdef U8G2_USE_DYNAMIC_ALLOC
 273:..\..\..\u8g2\u8g2\csrc/u8g2_d_memory.c ****   *page_cnt = 1;
 274:..\..\..\u8g2\u8g2\csrc/u8g2_d_memory.c ****   return 0;
 275:..\..\..\u8g2\u8g2\csrc/u8g2_d_memory.c ****   #else
 276:..\..\..\u8g2\u8g2\csrc/u8g2_d_memory.c ****   static uint8_t buf[80];
 277:..\..\..\u8g2\u8g2\csrc/u8g2_d_memory.c ****   *page_cnt = 1;
 706              		.loc 1 277 0
 707 0000 0123     		movs	r3, #1
 708 0002 0370     		strb	r3, [r0]
 278:..\..\..\u8g2\u8g2\csrc/u8g2_d_memory.c ****   return buf;
 279:..\..\..\u8g2\u8g2\csrc/u8g2_d_memory.c ****   #endif
 280:..\..\..\u8g2\u8g2\csrc/u8g2_d_memory.c **** }
 709              		.loc 1 280 0
 710 0004 0048     		ldr	r0, .L74
 711              	.LVL49:
 712 0006 7047     		bx	lr
 713              	.L75:
 714              		.align	2
 715              	.L74:
 716 0008 38420000 		.word	.LANCHOR3+3920
 717              		.cfi_endproc
 718              	.LFE24:
 719              		.size	u8g2_m_10_16_1, .-u8g2_m_10_16_1
 720              		.section	.text.u8g2_m_10_16_2,"ax",%progbits
 721              		.align	1
 722              		.global	u8g2_m_10_16_2
 723              		.thumb
 724              		.thumb_func
 725              		.type	u8g2_m_10_16_2, %function
 726              	u8g2_m_10_16_2:
 727              	.LFB25:
 281:..\..\..\u8g2\u8g2\csrc/u8g2_d_memory.c **** uint8_t *u8g2_m_10_16_2(uint8_t *page_cnt)
 282:..\..\..\u8g2\u8g2\csrc/u8g2_d_memory.c **** {
 728              		.loc 1 282 0
 729              		.cfi_startproc
 730              		@ args = 0, pretend = 0, frame = 0
 731              		@ frame_needed = 0, uses_anonymous_args = 0
 732              		@ link register save eliminated.
 733              	.LVL50:
 283:..\..\..\u8g2\u8g2\csrc/u8g2_d_memory.c ****   #ifdef U8G2_USE_DYNAMIC_ALLOC
 284:..\..\..\u8g2\u8g2\csrc/u8g2_d_memory.c ****   *page_cnt = 2;
 285:..\..\..\u8g2\u8g2\csrc/u8g2_d_memory.c ****   return 0;
 286:..\..\..\u8g2\u8g2\csrc/u8g2_d_memory.c ****   #else
 287:..\..\..\u8g2\u8g2\csrc/u8g2_d_memory.c ****   static uint8_t buf[160];
 288:..\..\..\u8g2\u8g2\csrc/u8g2_d_memory.c ****   *page_cnt = 2;
 734              		.loc 1 288 0
 735 0000 0223     		movs	r3, #2
 736 0002 0370     		strb	r3, [r0]
 289:..\..\..\u8g2\u8g2\csrc/u8g2_d_memory.c ****   return buf;
 290:..\..\..\u8g2\u8g2\csrc/u8g2_d_memory.c ****   #endif
ARM GAS  C:\Users\jesse\AppData\Local\Temp\ccuy2FXa.s 			page 19


 291:..\..\..\u8g2\u8g2\csrc/u8g2_d_memory.c **** }
 737              		.loc 1 291 0
 738 0004 0048     		ldr	r0, .L77
 739              	.LVL51:
 740 0006 7047     		bx	lr
 741              	.L78:
 742              		.align	2
 743              	.L77:
 744 0008 88420000 		.word	.LANCHOR3+4000
 745              		.cfi_endproc
 746              	.LFE25:
 747              		.size	u8g2_m_10_16_2, .-u8g2_m_10_16_2
 748              		.section	.text.u8g2_m_10_16_f,"ax",%progbits
 749              		.align	1
 750              		.global	u8g2_m_10_16_f
 751              		.thumb
 752              		.thumb_func
 753              		.type	u8g2_m_10_16_f, %function
 754              	u8g2_m_10_16_f:
 755              	.LFB26:
 292:..\..\..\u8g2\u8g2\csrc/u8g2_d_memory.c **** uint8_t *u8g2_m_10_16_f(uint8_t *page_cnt)
 293:..\..\..\u8g2\u8g2\csrc/u8g2_d_memory.c **** {
 756              		.loc 1 293 0
 757              		.cfi_startproc
 758              		@ args = 0, pretend = 0, frame = 0
 759              		@ frame_needed = 0, uses_anonymous_args = 0
 760              		@ link register save eliminated.
 761              	.LVL52:
 294:..\..\..\u8g2\u8g2\csrc/u8g2_d_memory.c ****   #ifdef U8G2_USE_DYNAMIC_ALLOC
 295:..\..\..\u8g2\u8g2\csrc/u8g2_d_memory.c ****   *page_cnt = 16;
 296:..\..\..\u8g2\u8g2\csrc/u8g2_d_memory.c ****   return 0;
 297:..\..\..\u8g2\u8g2\csrc/u8g2_d_memory.c ****   #else
 298:..\..\..\u8g2\u8g2\csrc/u8g2_d_memory.c ****   static uint8_t buf[1280];
 299:..\..\..\u8g2\u8g2\csrc/u8g2_d_memory.c ****   *page_cnt = 16;
 762              		.loc 1 299 0
 763 0000 1023     		movs	r3, #16
 764 0002 0370     		strb	r3, [r0]
 300:..\..\..\u8g2\u8g2\csrc/u8g2_d_memory.c ****   return buf;
 301:..\..\..\u8g2\u8g2\csrc/u8g2_d_memory.c ****   #endif
 302:..\..\..\u8g2\u8g2\csrc/u8g2_d_memory.c **** }
 765              		.loc 1 302 0
 766 0004 0048     		ldr	r0, .L80
 767              	.LVL53:
 768 0006 7047     		bx	lr
 769              	.L81:
 770              		.align	2
 771              	.L80:
 772 0008 28430000 		.word	.LANCHOR4-184
 773              		.cfi_endproc
 774              	.LFE26:
 775              		.size	u8g2_m_10_16_f, .-u8g2_m_10_16_f
 776              		.section	.text.u8g2_m_16_16_1,"ax",%progbits
 777              		.align	1
 778              		.global	u8g2_m_16_16_1
 779              		.thumb
 780              		.thumb_func
 781              		.type	u8g2_m_16_16_1, %function
ARM GAS  C:\Users\jesse\AppData\Local\Temp\ccuy2FXa.s 			page 20


 782              	u8g2_m_16_16_1:
 783              	.LFB27:
 303:..\..\..\u8g2\u8g2\csrc/u8g2_d_memory.c **** uint8_t *u8g2_m_16_16_1(uint8_t *page_cnt)
 304:..\..\..\u8g2\u8g2\csrc/u8g2_d_memory.c **** {
 784              		.loc 1 304 0
 785              		.cfi_startproc
 786              		@ args = 0, pretend = 0, frame = 0
 787              		@ frame_needed = 0, uses_anonymous_args = 0
 788              		@ link register save eliminated.
 789              	.LVL54:
 305:..\..\..\u8g2\u8g2\csrc/u8g2_d_memory.c ****   #ifdef U8G2_USE_DYNAMIC_ALLOC
 306:..\..\..\u8g2\u8g2\csrc/u8g2_d_memory.c ****   *page_cnt = 1;
 307:..\..\..\u8g2\u8g2\csrc/u8g2_d_memory.c ****   return 0;
 308:..\..\..\u8g2\u8g2\csrc/u8g2_d_memory.c ****   #else
 309:..\..\..\u8g2\u8g2\csrc/u8g2_d_memory.c ****   static uint8_t buf[128];
 310:..\..\..\u8g2\u8g2\csrc/u8g2_d_memory.c ****   *page_cnt = 1;
 790              		.loc 1 310 0
 791 0000 0123     		movs	r3, #1
 792 0002 0370     		strb	r3, [r0]
 311:..\..\..\u8g2\u8g2\csrc/u8g2_d_memory.c ****   return buf;
 312:..\..\..\u8g2\u8g2\csrc/u8g2_d_memory.c ****   #endif
 313:..\..\..\u8g2\u8g2\csrc/u8g2_d_memory.c **** }
 793              		.loc 1 313 0
 794 0004 0048     		ldr	r0, .L83
 795              	.LVL55:
 796 0006 7047     		bx	lr
 797              	.L84:
 798              		.align	2
 799              	.L83:
 800 0008 28480000 		.word	.LANCHOR4+1096
 801              		.cfi_endproc
 802              	.LFE27:
 803              		.size	u8g2_m_16_16_1, .-u8g2_m_16_16_1
 804              		.section	.text.u8g2_m_16_16_2,"ax",%progbits
 805              		.align	1
 806              		.global	u8g2_m_16_16_2
 807              		.thumb
 808              		.thumb_func
 809              		.type	u8g2_m_16_16_2, %function
 810              	u8g2_m_16_16_2:
 811              	.LFB28:
 314:..\..\..\u8g2\u8g2\csrc/u8g2_d_memory.c **** uint8_t *u8g2_m_16_16_2(uint8_t *page_cnt)
 315:..\..\..\u8g2\u8g2\csrc/u8g2_d_memory.c **** {
 812              		.loc 1 315 0
 813              		.cfi_startproc
 814              		@ args = 0, pretend = 0, frame = 0
 815              		@ frame_needed = 0, uses_anonymous_args = 0
 816              		@ link register save eliminated.
 817              	.LVL56:
 316:..\..\..\u8g2\u8g2\csrc/u8g2_d_memory.c ****   #ifdef U8G2_USE_DYNAMIC_ALLOC
 317:..\..\..\u8g2\u8g2\csrc/u8g2_d_memory.c ****   *page_cnt = 2;
 318:..\..\..\u8g2\u8g2\csrc/u8g2_d_memory.c ****   return 0;
 319:..\..\..\u8g2\u8g2\csrc/u8g2_d_memory.c ****   #else
 320:..\..\..\u8g2\u8g2\csrc/u8g2_d_memory.c ****   static uint8_t buf[256];
 321:..\..\..\u8g2\u8g2\csrc/u8g2_d_memory.c ****   *page_cnt = 2;
 818              		.loc 1 321 0
 819 0000 0223     		movs	r3, #2
ARM GAS  C:\Users\jesse\AppData\Local\Temp\ccuy2FXa.s 			page 21


 820 0002 0370     		strb	r3, [r0]
 322:..\..\..\u8g2\u8g2\csrc/u8g2_d_memory.c ****   return buf;
 323:..\..\..\u8g2\u8g2\csrc/u8g2_d_memory.c ****   #endif
 324:..\..\..\u8g2\u8g2\csrc/u8g2_d_memory.c **** }
 821              		.loc 1 324 0
 822 0004 0048     		ldr	r0, .L86
 823              	.LVL57:
 824 0006 7047     		bx	lr
 825              	.L87:
 826              		.align	2
 827              	.L86:
 828 0008 A8480000 		.word	.LANCHOR4+1224
 829              		.cfi_endproc
 830              	.LFE28:
 831              		.size	u8g2_m_16_16_2, .-u8g2_m_16_16_2
 832              		.section	.text.u8g2_m_16_16_f,"ax",%progbits
 833              		.align	1
 834              		.global	u8g2_m_16_16_f
 835              		.thumb
 836              		.thumb_func
 837              		.type	u8g2_m_16_16_f, %function
 838              	u8g2_m_16_16_f:
 839              	.LFB29:
 325:..\..\..\u8g2\u8g2\csrc/u8g2_d_memory.c **** uint8_t *u8g2_m_16_16_f(uint8_t *page_cnt)
 326:..\..\..\u8g2\u8g2\csrc/u8g2_d_memory.c **** {
 840              		.loc 1 326 0
 841              		.cfi_startproc
 842              		@ args = 0, pretend = 0, frame = 0
 843              		@ frame_needed = 0, uses_anonymous_args = 0
 844              		@ link register save eliminated.
 845              	.LVL58:
 327:..\..\..\u8g2\u8g2\csrc/u8g2_d_memory.c ****   #ifdef U8G2_USE_DYNAMIC_ALLOC
 328:..\..\..\u8g2\u8g2\csrc/u8g2_d_memory.c ****   *page_cnt = 16;
 329:..\..\..\u8g2\u8g2\csrc/u8g2_d_memory.c ****   return 0;
 330:..\..\..\u8g2\u8g2\csrc/u8g2_d_memory.c ****   #else
 331:..\..\..\u8g2\u8g2\csrc/u8g2_d_memory.c ****   static uint8_t buf[2048];
 332:..\..\..\u8g2\u8g2\csrc/u8g2_d_memory.c ****   *page_cnt = 16;
 846              		.loc 1 332 0
 847 0000 1023     		movs	r3, #16
 848 0002 0370     		strb	r3, [r0]
 333:..\..\..\u8g2\u8g2\csrc/u8g2_d_memory.c ****   return buf;
 334:..\..\..\u8g2\u8g2\csrc/u8g2_d_memory.c ****   #endif
 335:..\..\..\u8g2\u8g2\csrc/u8g2_d_memory.c **** }
 849              		.loc 1 335 0
 850 0004 0048     		ldr	r0, .L89
 851              	.LVL59:
 852 0006 7047     		bx	lr
 853              	.L90:
 854              		.align	2
 855              	.L89:
 856 0008 A8490000 		.word	.LANCHOR4+1480
 857              		.cfi_endproc
 858              	.LFE29:
 859              		.size	u8g2_m_16_16_f, .-u8g2_m_16_16_f
 860              		.section	.text.u8g2_m_20_20_1,"ax",%progbits
 861              		.align	1
 862              		.global	u8g2_m_20_20_1
ARM GAS  C:\Users\jesse\AppData\Local\Temp\ccuy2FXa.s 			page 22


 863              		.thumb
 864              		.thumb_func
 865              		.type	u8g2_m_20_20_1, %function
 866              	u8g2_m_20_20_1:
 867              	.LFB30:
 336:..\..\..\u8g2\u8g2\csrc/u8g2_d_memory.c **** uint8_t *u8g2_m_20_20_1(uint8_t *page_cnt)
 337:..\..\..\u8g2\u8g2\csrc/u8g2_d_memory.c **** {
 868              		.loc 1 337 0
 869              		.cfi_startproc
 870              		@ args = 0, pretend = 0, frame = 0
 871              		@ frame_needed = 0, uses_anonymous_args = 0
 872              		@ link register save eliminated.
 873              	.LVL60:
 338:..\..\..\u8g2\u8g2\csrc/u8g2_d_memory.c ****   #ifdef U8G2_USE_DYNAMIC_ALLOC
 339:..\..\..\u8g2\u8g2\csrc/u8g2_d_memory.c ****   *page_cnt = 1;
 340:..\..\..\u8g2\u8g2\csrc/u8g2_d_memory.c ****   return 0;
 341:..\..\..\u8g2\u8g2\csrc/u8g2_d_memory.c ****   #else
 342:..\..\..\u8g2\u8g2\csrc/u8g2_d_memory.c ****   static uint8_t buf[160];
 343:..\..\..\u8g2\u8g2\csrc/u8g2_d_memory.c ****   *page_cnt = 1;
 874              		.loc 1 343 0
 875 0000 0123     		movs	r3, #1
 876 0002 0370     		strb	r3, [r0]
 344:..\..\..\u8g2\u8g2\csrc/u8g2_d_memory.c ****   return buf;
 345:..\..\..\u8g2\u8g2\csrc/u8g2_d_memory.c ****   #endif
 346:..\..\..\u8g2\u8g2\csrc/u8g2_d_memory.c **** }
 877              		.loc 1 346 0
 878 0004 0048     		ldr	r0, .L92
 879              	.LVL61:
 880 0006 7047     		bx	lr
 881              	.L93:
 882              		.align	2
 883              	.L92:
 884 0008 A8510000 		.word	.LANCHOR4+3528
 885              		.cfi_endproc
 886              	.LFE30:
 887              		.size	u8g2_m_20_20_1, .-u8g2_m_20_20_1
 888              		.section	.text.u8g2_m_20_20_2,"ax",%progbits
 889              		.align	1
 890              		.global	u8g2_m_20_20_2
 891              		.thumb
 892              		.thumb_func
 893              		.type	u8g2_m_20_20_2, %function
 894              	u8g2_m_20_20_2:
 895              	.LFB31:
 347:..\..\..\u8g2\u8g2\csrc/u8g2_d_memory.c **** uint8_t *u8g2_m_20_20_2(uint8_t *page_cnt)
 348:..\..\..\u8g2\u8g2\csrc/u8g2_d_memory.c **** {
 896              		.loc 1 348 0
 897              		.cfi_startproc
 898              		@ args = 0, pretend = 0, frame = 0
 899              		@ frame_needed = 0, uses_anonymous_args = 0
 900              		@ link register save eliminated.
 901              	.LVL62:
 349:..\..\..\u8g2\u8g2\csrc/u8g2_d_memory.c ****   #ifdef U8G2_USE_DYNAMIC_ALLOC
 350:..\..\..\u8g2\u8g2\csrc/u8g2_d_memory.c ****   *page_cnt = 2;
 351:..\..\..\u8g2\u8g2\csrc/u8g2_d_memory.c ****   return 0;
 352:..\..\..\u8g2\u8g2\csrc/u8g2_d_memory.c ****   #else
 353:..\..\..\u8g2\u8g2\csrc/u8g2_d_memory.c ****   static uint8_t buf[320];
ARM GAS  C:\Users\jesse\AppData\Local\Temp\ccuy2FXa.s 			page 23


 354:..\..\..\u8g2\u8g2\csrc/u8g2_d_memory.c ****   *page_cnt = 2;
 902              		.loc 1 354 0
 903 0000 0223     		movs	r3, #2
 904 0002 0370     		strb	r3, [r0]
 355:..\..\..\u8g2\u8g2\csrc/u8g2_d_memory.c ****   return buf;
 356:..\..\..\u8g2\u8g2\csrc/u8g2_d_memory.c ****   #endif
 357:..\..\..\u8g2\u8g2\csrc/u8g2_d_memory.c **** }
 905              		.loc 1 357 0
 906 0004 0048     		ldr	r0, .L95
 907              	.LVL63:
 908 0006 7047     		bx	lr
 909              	.L96:
 910              		.align	2
 911              	.L95:
 912 0008 48520000 		.word	.LANCHOR4+3688
 913              		.cfi_endproc
 914              	.LFE31:
 915              		.size	u8g2_m_20_20_2, .-u8g2_m_20_20_2
 916              		.section	.text.u8g2_m_20_20_f,"ax",%progbits
 917              		.align	1
 918              		.global	u8g2_m_20_20_f
 919              		.thumb
 920              		.thumb_func
 921              		.type	u8g2_m_20_20_f, %function
 922              	u8g2_m_20_20_f:
 923              	.LFB32:
 358:..\..\..\u8g2\u8g2\csrc/u8g2_d_memory.c **** uint8_t *u8g2_m_20_20_f(uint8_t *page_cnt)
 359:..\..\..\u8g2\u8g2\csrc/u8g2_d_memory.c **** {
 924              		.loc 1 359 0
 925              		.cfi_startproc
 926              		@ args = 0, pretend = 0, frame = 0
 927              		@ frame_needed = 0, uses_anonymous_args = 0
 928              		@ link register save eliminated.
 929              	.LVL64:
 360:..\..\..\u8g2\u8g2\csrc/u8g2_d_memory.c ****   #ifdef U8G2_USE_DYNAMIC_ALLOC
 361:..\..\..\u8g2\u8g2\csrc/u8g2_d_memory.c ****   *page_cnt = 20;
 362:..\..\..\u8g2\u8g2\csrc/u8g2_d_memory.c ****   return 0;
 363:..\..\..\u8g2\u8g2\csrc/u8g2_d_memory.c ****   #else
 364:..\..\..\u8g2\u8g2\csrc/u8g2_d_memory.c ****   static uint8_t buf[3200];
 365:..\..\..\u8g2\u8g2\csrc/u8g2_d_memory.c ****   *page_cnt = 20;
 930              		.loc 1 365 0
 931 0000 1423     		movs	r3, #20
 932 0002 0370     		strb	r3, [r0]
 366:..\..\..\u8g2\u8g2\csrc/u8g2_d_memory.c ****   return buf;
 367:..\..\..\u8g2\u8g2\csrc/u8g2_d_memory.c ****   #endif
 368:..\..\..\u8g2\u8g2\csrc/u8g2_d_memory.c **** }
 933              		.loc 1 368 0
 934 0004 0048     		ldr	r0, .L98
 935              	.LVL65:
 936 0006 7047     		bx	lr
 937              	.L99:
 938              		.align	2
 939              	.L98:
 940 0008 88530000 		.word	.LANCHOR4+4008
 941              		.cfi_endproc
 942              	.LFE32:
 943              		.size	u8g2_m_20_20_f, .-u8g2_m_20_20_f
ARM GAS  C:\Users\jesse\AppData\Local\Temp\ccuy2FXa.s 			page 24


 944              		.section	.text.u8g2_m_32_8_1,"ax",%progbits
 945              		.align	1
 946              		.global	u8g2_m_32_8_1
 947              		.thumb
 948              		.thumb_func
 949              		.type	u8g2_m_32_8_1, %function
 950              	u8g2_m_32_8_1:
 951              	.LFB33:
 369:..\..\..\u8g2\u8g2\csrc/u8g2_d_memory.c **** uint8_t *u8g2_m_32_8_1(uint8_t *page_cnt)
 370:..\..\..\u8g2\u8g2\csrc/u8g2_d_memory.c **** {
 952              		.loc 1 370 0
 953              		.cfi_startproc
 954              		@ args = 0, pretend = 0, frame = 0
 955              		@ frame_needed = 0, uses_anonymous_args = 0
 956              		@ link register save eliminated.
 957              	.LVL66:
 371:..\..\..\u8g2\u8g2\csrc/u8g2_d_memory.c ****   #ifdef U8G2_USE_DYNAMIC_ALLOC
 372:..\..\..\u8g2\u8g2\csrc/u8g2_d_memory.c ****   *page_cnt = 1;
 373:..\..\..\u8g2\u8g2\csrc/u8g2_d_memory.c ****   return 0;
 374:..\..\..\u8g2\u8g2\csrc/u8g2_d_memory.c ****   #else
 375:..\..\..\u8g2\u8g2\csrc/u8g2_d_memory.c ****   static uint8_t buf[256];
 376:..\..\..\u8g2\u8g2\csrc/u8g2_d_memory.c ****   *page_cnt = 1;
 958              		.loc 1 376 0
 959 0000 0123     		movs	r3, #1
 960 0002 0370     		strb	r3, [r0]
 377:..\..\..\u8g2\u8g2\csrc/u8g2_d_memory.c ****   return buf;
 378:..\..\..\u8g2\u8g2\csrc/u8g2_d_memory.c ****   #endif
 379:..\..\..\u8g2\u8g2\csrc/u8g2_d_memory.c **** }
 961              		.loc 1 379 0
 962 0004 0048     		ldr	r0, .L101
 963              	.LVL67:
 964 0006 7047     		bx	lr
 965              	.L102:
 966              		.align	2
 967              	.L101:
 968 0008 08600000 		.word	.LANCHOR5+2864
 969              		.cfi_endproc
 970              	.LFE33:
 971              		.size	u8g2_m_32_8_1, .-u8g2_m_32_8_1
 972              		.section	.text.u8g2_m_32_8_2,"ax",%progbits
 973              		.align	1
 974              		.global	u8g2_m_32_8_2
 975              		.thumb
 976              		.thumb_func
 977              		.type	u8g2_m_32_8_2, %function
 978              	u8g2_m_32_8_2:
 979              	.LFB34:
 380:..\..\..\u8g2\u8g2\csrc/u8g2_d_memory.c **** uint8_t *u8g2_m_32_8_2(uint8_t *page_cnt)
 381:..\..\..\u8g2\u8g2\csrc/u8g2_d_memory.c **** {
 980              		.loc 1 381 0
 981              		.cfi_startproc
 982              		@ args = 0, pretend = 0, frame = 0
 983              		@ frame_needed = 0, uses_anonymous_args = 0
 984              		@ link register save eliminated.
 985              	.LVL68:
 382:..\..\..\u8g2\u8g2\csrc/u8g2_d_memory.c ****   #ifdef U8G2_USE_DYNAMIC_ALLOC
 383:..\..\..\u8g2\u8g2\csrc/u8g2_d_memory.c ****   *page_cnt = 2;
ARM GAS  C:\Users\jesse\AppData\Local\Temp\ccuy2FXa.s 			page 25


 384:..\..\..\u8g2\u8g2\csrc/u8g2_d_memory.c ****   return 0;
 385:..\..\..\u8g2\u8g2\csrc/u8g2_d_memory.c ****   #else
 386:..\..\..\u8g2\u8g2\csrc/u8g2_d_memory.c ****   static uint8_t buf[512];
 387:..\..\..\u8g2\u8g2\csrc/u8g2_d_memory.c ****   *page_cnt = 2;
 986              		.loc 1 387 0
 987 0000 0223     		movs	r3, #2
 988 0002 0370     		strb	r3, [r0]
 388:..\..\..\u8g2\u8g2\csrc/u8g2_d_memory.c ****   return buf;
 389:..\..\..\u8g2\u8g2\csrc/u8g2_d_memory.c ****   #endif
 390:..\..\..\u8g2\u8g2\csrc/u8g2_d_memory.c **** }
 989              		.loc 1 390 0
 990 0004 0048     		ldr	r0, .L104
 991              	.LVL69:
 992 0006 7047     		bx	lr
 993              	.L105:
 994              		.align	2
 995              	.L104:
 996 0008 08610000 		.word	.LANCHOR5+3120
 997              		.cfi_endproc
 998              	.LFE34:
 999              		.size	u8g2_m_32_8_2, .-u8g2_m_32_8_2
 1000              		.section	.text.u8g2_m_32_8_f,"ax",%progbits
 1001              		.align	1
 1002              		.global	u8g2_m_32_8_f
 1003              		.thumb
 1004              		.thumb_func
 1005              		.type	u8g2_m_32_8_f, %function
 1006              	u8g2_m_32_8_f:
 1007              	.LFB35:
 391:..\..\..\u8g2\u8g2\csrc/u8g2_d_memory.c **** uint8_t *u8g2_m_32_8_f(uint8_t *page_cnt)
 392:..\..\..\u8g2\u8g2\csrc/u8g2_d_memory.c **** {
 1008              		.loc 1 392 0
 1009              		.cfi_startproc
 1010              		@ args = 0, pretend = 0, frame = 0
 1011              		@ frame_needed = 0, uses_anonymous_args = 0
 1012              		@ link register save eliminated.
 1013              	.LVL70:
 393:..\..\..\u8g2\u8g2\csrc/u8g2_d_memory.c ****   #ifdef U8G2_USE_DYNAMIC_ALLOC
 394:..\..\..\u8g2\u8g2\csrc/u8g2_d_memory.c ****   *page_cnt = 8;
 395:..\..\..\u8g2\u8g2\csrc/u8g2_d_memory.c ****   return 0;
 396:..\..\..\u8g2\u8g2\csrc/u8g2_d_memory.c ****   #else
 397:..\..\..\u8g2\u8g2\csrc/u8g2_d_memory.c ****   static uint8_t buf[2048];
 398:..\..\..\u8g2\u8g2\csrc/u8g2_d_memory.c ****   *page_cnt = 8;
 1014              		.loc 1 398 0
 1015 0000 0823     		movs	r3, #8
 1016 0002 0370     		strb	r3, [r0]
 399:..\..\..\u8g2\u8g2\csrc/u8g2_d_memory.c ****   return buf;
 400:..\..\..\u8g2\u8g2\csrc/u8g2_d_memory.c ****   #endif
 401:..\..\..\u8g2\u8g2\csrc/u8g2_d_memory.c **** }
 1017              		.loc 1 401 0
 1018 0004 0048     		ldr	r0, .L107
 1019              	.LVL71:
 1020 0006 7047     		bx	lr
 1021              	.L108:
 1022              		.align	2
 1023              	.L107:
 1024 0008 08630000 		.word	.LANCHOR5+3632
ARM GAS  C:\Users\jesse\AppData\Local\Temp\ccuy2FXa.s 			page 26


 1025              		.cfi_endproc
 1026              	.LFE35:
 1027              		.size	u8g2_m_32_8_f, .-u8g2_m_32_8_f
 1028              		.section	.text.u8g2_m_13_8_1,"ax",%progbits
 1029              		.align	1
 1030              		.global	u8g2_m_13_8_1
 1031              		.thumb
 1032              		.thumb_func
 1033              		.type	u8g2_m_13_8_1, %function
 1034              	u8g2_m_13_8_1:
 1035              	.LFB36:
 402:..\..\..\u8g2\u8g2\csrc/u8g2_d_memory.c **** uint8_t *u8g2_m_13_8_1(uint8_t *page_cnt)
 403:..\..\..\u8g2\u8g2\csrc/u8g2_d_memory.c **** {
 1036              		.loc 1 403 0
 1037              		.cfi_startproc
 1038              		@ args = 0, pretend = 0, frame = 0
 1039              		@ frame_needed = 0, uses_anonymous_args = 0
 1040              		@ link register save eliminated.
 1041              	.LVL72:
 404:..\..\..\u8g2\u8g2\csrc/u8g2_d_memory.c ****   #ifdef U8G2_USE_DYNAMIC_ALLOC
 405:..\..\..\u8g2\u8g2\csrc/u8g2_d_memory.c ****   *page_cnt = 1;
 406:..\..\..\u8g2\u8g2\csrc/u8g2_d_memory.c ****   return 0;
 407:..\..\..\u8g2\u8g2\csrc/u8g2_d_memory.c ****   #else
 408:..\..\..\u8g2\u8g2\csrc/u8g2_d_memory.c ****   static uint8_t buf[104];
 409:..\..\..\u8g2\u8g2\csrc/u8g2_d_memory.c ****   *page_cnt = 1;
 1042              		.loc 1 409 0
 1043 0000 0123     		movs	r3, #1
 1044 0002 0370     		strb	r3, [r0]
 410:..\..\..\u8g2\u8g2\csrc/u8g2_d_memory.c ****   return buf;
 411:..\..\..\u8g2\u8g2\csrc/u8g2_d_memory.c ****   #endif
 412:..\..\..\u8g2\u8g2\csrc/u8g2_d_memory.c **** }
 1045              		.loc 1 412 0
 1046 0004 0048     		ldr	r0, .L110
 1047              	.LVL73:
 1048 0006 7047     		bx	lr
 1049              	.L111:
 1050              		.align	2
 1051              	.L110:
 1052 0008 086B0000 		.word	.LANCHOR6+1336
 1053              		.cfi_endproc
 1054              	.LFE36:
 1055              		.size	u8g2_m_13_8_1, .-u8g2_m_13_8_1
 1056              		.section	.text.u8g2_m_13_8_2,"ax",%progbits
 1057              		.align	1
 1058              		.global	u8g2_m_13_8_2
 1059              		.thumb
 1060              		.thumb_func
 1061              		.type	u8g2_m_13_8_2, %function
 1062              	u8g2_m_13_8_2:
 1063              	.LFB37:
 413:..\..\..\u8g2\u8g2\csrc/u8g2_d_memory.c **** uint8_t *u8g2_m_13_8_2(uint8_t *page_cnt)
 414:..\..\..\u8g2\u8g2\csrc/u8g2_d_memory.c **** {
 1064              		.loc 1 414 0
 1065              		.cfi_startproc
 1066              		@ args = 0, pretend = 0, frame = 0
 1067              		@ frame_needed = 0, uses_anonymous_args = 0
 1068              		@ link register save eliminated.
ARM GAS  C:\Users\jesse\AppData\Local\Temp\ccuy2FXa.s 			page 27


 1069              	.LVL74:
 415:..\..\..\u8g2\u8g2\csrc/u8g2_d_memory.c ****   #ifdef U8G2_USE_DYNAMIC_ALLOC
 416:..\..\..\u8g2\u8g2\csrc/u8g2_d_memory.c ****   *page_cnt = 2;
 417:..\..\..\u8g2\u8g2\csrc/u8g2_d_memory.c ****   return 0;
 418:..\..\..\u8g2\u8g2\csrc/u8g2_d_memory.c ****   #else
 419:..\..\..\u8g2\u8g2\csrc/u8g2_d_memory.c ****   static uint8_t buf[208];
 420:..\..\..\u8g2\u8g2\csrc/u8g2_d_memory.c ****   *page_cnt = 2;
 1070              		.loc 1 420 0
 1071 0000 0223     		movs	r3, #2
 1072 0002 0370     		strb	r3, [r0]
 421:..\..\..\u8g2\u8g2\csrc/u8g2_d_memory.c ****   return buf;
 422:..\..\..\u8g2\u8g2\csrc/u8g2_d_memory.c ****   #endif
 423:..\..\..\u8g2\u8g2\csrc/u8g2_d_memory.c **** }
 1073              		.loc 1 423 0
 1074 0004 0048     		ldr	r0, .L113
 1075              	.LVL75:
 1076 0006 7047     		bx	lr
 1077              	.L114:
 1078              		.align	2
 1079              	.L113:
 1080 0008 706B0000 		.word	.LANCHOR6+1440
 1081              		.cfi_endproc
 1082              	.LFE37:
 1083              		.size	u8g2_m_13_8_2, .-u8g2_m_13_8_2
 1084              		.section	.text.u8g2_m_13_8_f,"ax",%progbits
 1085              		.align	1
 1086              		.global	u8g2_m_13_8_f
 1087              		.thumb
 1088              		.thumb_func
 1089              		.type	u8g2_m_13_8_f, %function
 1090              	u8g2_m_13_8_f:
 1091              	.LFB38:
 424:..\..\..\u8g2\u8g2\csrc/u8g2_d_memory.c **** uint8_t *u8g2_m_13_8_f(uint8_t *page_cnt)
 425:..\..\..\u8g2\u8g2\csrc/u8g2_d_memory.c **** {
 1092              		.loc 1 425 0
 1093              		.cfi_startproc
 1094              		@ args = 0, pretend = 0, frame = 0
 1095              		@ frame_needed = 0, uses_anonymous_args = 0
 1096              		@ link register save eliminated.
 1097              	.LVL76:
 426:..\..\..\u8g2\u8g2\csrc/u8g2_d_memory.c ****   #ifdef U8G2_USE_DYNAMIC_ALLOC
 427:..\..\..\u8g2\u8g2\csrc/u8g2_d_memory.c ****   *page_cnt = 8;
 428:..\..\..\u8g2\u8g2\csrc/u8g2_d_memory.c ****   return 0;
 429:..\..\..\u8g2\u8g2\csrc/u8g2_d_memory.c ****   #else
 430:..\..\..\u8g2\u8g2\csrc/u8g2_d_memory.c ****   static uint8_t buf[832];
 431:..\..\..\u8g2\u8g2\csrc/u8g2_d_memory.c ****   *page_cnt = 8;
 1098              		.loc 1 431 0
 1099 0000 0823     		movs	r3, #8
 1100 0002 0370     		strb	r3, [r0]
 432:..\..\..\u8g2\u8g2\csrc/u8g2_d_memory.c ****   return buf;
 433:..\..\..\u8g2\u8g2\csrc/u8g2_d_memory.c ****   #endif
 434:..\..\..\u8g2\u8g2\csrc/u8g2_d_memory.c **** }
 1101              		.loc 1 434 0
 1102 0004 0048     		ldr	r0, .L116
 1103              	.LVL77:
 1104 0006 7047     		bx	lr
 1105              	.L117:
ARM GAS  C:\Users\jesse\AppData\Local\Temp\ccuy2FXa.s 			page 28


 1106              		.align	2
 1107              	.L116:
 1108 0008 406C0000 		.word	.LANCHOR6+1648
 1109              		.cfi_endproc
 1110              	.LFE38:
 1111              		.size	u8g2_m_13_8_f, .-u8g2_m_13_8_f
 1112              		.section	.text.u8g2_m_8_6_1,"ax",%progbits
 1113              		.align	1
 1114              		.global	u8g2_m_8_6_1
 1115              		.thumb
 1116              		.thumb_func
 1117              		.type	u8g2_m_8_6_1, %function
 1118              	u8g2_m_8_6_1:
 1119              	.LFB39:
 435:..\..\..\u8g2\u8g2\csrc/u8g2_d_memory.c **** uint8_t *u8g2_m_8_6_1(uint8_t *page_cnt)
 436:..\..\..\u8g2\u8g2\csrc/u8g2_d_memory.c **** {
 1120              		.loc 1 436 0
 1121              		.cfi_startproc
 1122              		@ args = 0, pretend = 0, frame = 0
 1123              		@ frame_needed = 0, uses_anonymous_args = 0
 1124              		@ link register save eliminated.
 1125              	.LVL78:
 437:..\..\..\u8g2\u8g2\csrc/u8g2_d_memory.c ****   #ifdef U8G2_USE_DYNAMIC_ALLOC
 438:..\..\..\u8g2\u8g2\csrc/u8g2_d_memory.c ****   *page_cnt = 1;
 439:..\..\..\u8g2\u8g2\csrc/u8g2_d_memory.c ****   return 0;
 440:..\..\..\u8g2\u8g2\csrc/u8g2_d_memory.c ****   #else
 441:..\..\..\u8g2\u8g2\csrc/u8g2_d_memory.c ****   static uint8_t buf[64];
 442:..\..\..\u8g2\u8g2\csrc/u8g2_d_memory.c ****   *page_cnt = 1;
 1126              		.loc 1 442 0
 1127 0000 0123     		movs	r3, #1
 1128 0002 0370     		strb	r3, [r0]
 443:..\..\..\u8g2\u8g2\csrc/u8g2_d_memory.c ****   return buf;
 444:..\..\..\u8g2\u8g2\csrc/u8g2_d_memory.c ****   #endif
 445:..\..\..\u8g2\u8g2\csrc/u8g2_d_memory.c **** }
 1129              		.loc 1 445 0
 1130 0004 0048     		ldr	r0, .L119
 1131              	.LVL79:
 1132 0006 7047     		bx	lr
 1133              	.L120:
 1134              		.align	2
 1135              	.L119:
 1136 0008 806F0000 		.word	.LANCHOR6+2480
 1137              		.cfi_endproc
 1138              	.LFE39:
 1139              		.size	u8g2_m_8_6_1, .-u8g2_m_8_6_1
 1140              		.section	.text.u8g2_m_8_6_2,"ax",%progbits
 1141              		.align	1
 1142              		.global	u8g2_m_8_6_2
 1143              		.thumb
 1144              		.thumb_func
 1145              		.type	u8g2_m_8_6_2, %function
 1146              	u8g2_m_8_6_2:
 1147              	.LFB40:
 446:..\..\..\u8g2\u8g2\csrc/u8g2_d_memory.c **** uint8_t *u8g2_m_8_6_2(uint8_t *page_cnt)
 447:..\..\..\u8g2\u8g2\csrc/u8g2_d_memory.c **** {
 1148              		.loc 1 447 0
 1149              		.cfi_startproc
ARM GAS  C:\Users\jesse\AppData\Local\Temp\ccuy2FXa.s 			page 29


 1150              		@ args = 0, pretend = 0, frame = 0
 1151              		@ frame_needed = 0, uses_anonymous_args = 0
 1152              		@ link register save eliminated.
 1153              	.LVL80:
 448:..\..\..\u8g2\u8g2\csrc/u8g2_d_memory.c ****   #ifdef U8G2_USE_DYNAMIC_ALLOC
 449:..\..\..\u8g2\u8g2\csrc/u8g2_d_memory.c ****   *page_cnt = 2;
 450:..\..\..\u8g2\u8g2\csrc/u8g2_d_memory.c ****   return 0;
 451:..\..\..\u8g2\u8g2\csrc/u8g2_d_memory.c ****   #else
 452:..\..\..\u8g2\u8g2\csrc/u8g2_d_memory.c ****   static uint8_t buf[128];
 453:..\..\..\u8g2\u8g2\csrc/u8g2_d_memory.c ****   *page_cnt = 2;
 1154              		.loc 1 453 0
 1155 0000 0223     		movs	r3, #2
 1156 0002 0370     		strb	r3, [r0]
 454:..\..\..\u8g2\u8g2\csrc/u8g2_d_memory.c ****   return buf;
 455:..\..\..\u8g2\u8g2\csrc/u8g2_d_memory.c ****   #endif
 456:..\..\..\u8g2\u8g2\csrc/u8g2_d_memory.c **** }
 1157              		.loc 1 456 0
 1158 0004 0048     		ldr	r0, .L122
 1159              	.LVL81:
 1160 0006 7047     		bx	lr
 1161              	.L123:
 1162              		.align	2
 1163              	.L122:
 1164 0008 C06F0000 		.word	.LANCHOR6+2544
 1165              		.cfi_endproc
 1166              	.LFE40:
 1167              		.size	u8g2_m_8_6_2, .-u8g2_m_8_6_2
 1168              		.section	.text.u8g2_m_8_6_f,"ax",%progbits
 1169              		.align	1
 1170              		.global	u8g2_m_8_6_f
 1171              		.thumb
 1172              		.thumb_func
 1173              		.type	u8g2_m_8_6_f, %function
 1174              	u8g2_m_8_6_f:
 1175              	.LFB41:
 457:..\..\..\u8g2\u8g2\csrc/u8g2_d_memory.c **** uint8_t *u8g2_m_8_6_f(uint8_t *page_cnt)
 458:..\..\..\u8g2\u8g2\csrc/u8g2_d_memory.c **** {
 1176              		.loc 1 458 0
 1177              		.cfi_startproc
 1178              		@ args = 0, pretend = 0, frame = 0
 1179              		@ frame_needed = 0, uses_anonymous_args = 0
 1180              		@ link register save eliminated.
 1181              	.LVL82:
 459:..\..\..\u8g2\u8g2\csrc/u8g2_d_memory.c ****   #ifdef U8G2_USE_DYNAMIC_ALLOC
 460:..\..\..\u8g2\u8g2\csrc/u8g2_d_memory.c ****   *page_cnt = 6;
 461:..\..\..\u8g2\u8g2\csrc/u8g2_d_memory.c ****   return 0;
 462:..\..\..\u8g2\u8g2\csrc/u8g2_d_memory.c ****   #else
 463:..\..\..\u8g2\u8g2\csrc/u8g2_d_memory.c ****   static uint8_t buf[384];
 464:..\..\..\u8g2\u8g2\csrc/u8g2_d_memory.c ****   *page_cnt = 6;
 1182              		.loc 1 464 0
 1183 0000 0623     		movs	r3, #6
 1184 0002 0370     		strb	r3, [r0]
 465:..\..\..\u8g2\u8g2\csrc/u8g2_d_memory.c ****   return buf;
 466:..\..\..\u8g2\u8g2\csrc/u8g2_d_memory.c ****   #endif
 467:..\..\..\u8g2\u8g2\csrc/u8g2_d_memory.c **** }
 1185              		.loc 1 467 0
 1186 0004 0048     		ldr	r0, .L125
ARM GAS  C:\Users\jesse\AppData\Local\Temp\ccuy2FXa.s 			page 30


 1187              	.LVL83:
 1188 0006 7047     		bx	lr
 1189              	.L126:
 1190              		.align	2
 1191              	.L125:
 1192 0008 40700000 		.word	.LANCHOR6+2672
 1193              		.cfi_endproc
 1194              	.LFE41:
 1195              		.size	u8g2_m_8_6_f, .-u8g2_m_8_6_f
 1196              		.section	.text.u8g2_m_6_8_1,"ax",%progbits
 1197              		.align	1
 1198              		.global	u8g2_m_6_8_1
 1199              		.thumb
 1200              		.thumb_func
 1201              		.type	u8g2_m_6_8_1, %function
 1202              	u8g2_m_6_8_1:
 1203              	.LFB42:
 468:..\..\..\u8g2\u8g2\csrc/u8g2_d_memory.c **** uint8_t *u8g2_m_6_8_1(uint8_t *page_cnt)
 469:..\..\..\u8g2\u8g2\csrc/u8g2_d_memory.c **** {
 1204              		.loc 1 469 0
 1205              		.cfi_startproc
 1206              		@ args = 0, pretend = 0, frame = 0
 1207              		@ frame_needed = 0, uses_anonymous_args = 0
 1208              		@ link register save eliminated.
 1209              	.LVL84:
 470:..\..\..\u8g2\u8g2\csrc/u8g2_d_memory.c ****   #ifdef U8G2_USE_DYNAMIC_ALLOC
 471:..\..\..\u8g2\u8g2\csrc/u8g2_d_memory.c ****   *page_cnt = 1;
 472:..\..\..\u8g2\u8g2\csrc/u8g2_d_memory.c ****   return 0;
 473:..\..\..\u8g2\u8g2\csrc/u8g2_d_memory.c ****   #else
 474:..\..\..\u8g2\u8g2\csrc/u8g2_d_memory.c ****   static uint8_t buf[48];
 475:..\..\..\u8g2\u8g2\csrc/u8g2_d_memory.c ****   *page_cnt = 1;
 1210              		.loc 1 475 0
 1211 0000 0123     		movs	r3, #1
 1212 0002 0370     		strb	r3, [r0]
 476:..\..\..\u8g2\u8g2\csrc/u8g2_d_memory.c ****   return buf;
 477:..\..\..\u8g2\u8g2\csrc/u8g2_d_memory.c ****   #endif
 478:..\..\..\u8g2\u8g2\csrc/u8g2_d_memory.c **** }
 1213              		.loc 1 478 0
 1214 0004 0048     		ldr	r0, .L128
 1215              	.LVL85:
 1216 0006 7047     		bx	lr
 1217              	.L129:
 1218              		.align	2
 1219              	.L128:
 1220 0008 C0710000 		.word	.LANCHOR6+3056
 1221              		.cfi_endproc
 1222              	.LFE42:
 1223              		.size	u8g2_m_6_8_1, .-u8g2_m_6_8_1
 1224              		.section	.text.u8g2_m_6_8_2,"ax",%progbits
 1225              		.align	1
 1226              		.global	u8g2_m_6_8_2
 1227              		.thumb
 1228              		.thumb_func
 1229              		.type	u8g2_m_6_8_2, %function
 1230              	u8g2_m_6_8_2:
 1231              	.LFB43:
 479:..\..\..\u8g2\u8g2\csrc/u8g2_d_memory.c **** uint8_t *u8g2_m_6_8_2(uint8_t *page_cnt)
ARM GAS  C:\Users\jesse\AppData\Local\Temp\ccuy2FXa.s 			page 31


 480:..\..\..\u8g2\u8g2\csrc/u8g2_d_memory.c **** {
 1232              		.loc 1 480 0
 1233              		.cfi_startproc
 1234              		@ args = 0, pretend = 0, frame = 0
 1235              		@ frame_needed = 0, uses_anonymous_args = 0
 1236              		@ link register save eliminated.
 1237              	.LVL86:
 481:..\..\..\u8g2\u8g2\csrc/u8g2_d_memory.c ****   #ifdef U8G2_USE_DYNAMIC_ALLOC
 482:..\..\..\u8g2\u8g2\csrc/u8g2_d_memory.c ****   *page_cnt = 2;
 483:..\..\..\u8g2\u8g2\csrc/u8g2_d_memory.c ****   return 0;
 484:..\..\..\u8g2\u8g2\csrc/u8g2_d_memory.c ****   #else
 485:..\..\..\u8g2\u8g2\csrc/u8g2_d_memory.c ****   static uint8_t buf[96];
 486:..\..\..\u8g2\u8g2\csrc/u8g2_d_memory.c ****   *page_cnt = 2;
 1238              		.loc 1 486 0
 1239 0000 0223     		movs	r3, #2
 1240 0002 0370     		strb	r3, [r0]
 487:..\..\..\u8g2\u8g2\csrc/u8g2_d_memory.c ****   return buf;
 488:..\..\..\u8g2\u8g2\csrc/u8g2_d_memory.c ****   #endif
 489:..\..\..\u8g2\u8g2\csrc/u8g2_d_memory.c **** }
 1241              		.loc 1 489 0
 1242 0004 0048     		ldr	r0, .L131
 1243              	.LVL87:
 1244 0006 7047     		bx	lr
 1245              	.L132:
 1246              		.align	2
 1247              	.L131:
 1248 0008 F0710000 		.word	.LANCHOR6+3104
 1249              		.cfi_endproc
 1250              	.LFE43:
 1251              		.size	u8g2_m_6_8_2, .-u8g2_m_6_8_2
 1252              		.section	.text.u8g2_m_6_8_f,"ax",%progbits
 1253              		.align	1
 1254              		.global	u8g2_m_6_8_f
 1255              		.thumb
 1256              		.thumb_func
 1257              		.type	u8g2_m_6_8_f, %function
 1258              	u8g2_m_6_8_f:
 1259              	.LFB44:
 490:..\..\..\u8g2\u8g2\csrc/u8g2_d_memory.c **** uint8_t *u8g2_m_6_8_f(uint8_t *page_cnt)
 491:..\..\..\u8g2\u8g2\csrc/u8g2_d_memory.c **** {
 1260              		.loc 1 491 0
 1261              		.cfi_startproc
 1262              		@ args = 0, pretend = 0, frame = 0
 1263              		@ frame_needed = 0, uses_anonymous_args = 0
 1264              		@ link register save eliminated.
 1265              	.LVL88:
 492:..\..\..\u8g2\u8g2\csrc/u8g2_d_memory.c ****   #ifdef U8G2_USE_DYNAMIC_ALLOC
 493:..\..\..\u8g2\u8g2\csrc/u8g2_d_memory.c ****   *page_cnt = 8;
 494:..\..\..\u8g2\u8g2\csrc/u8g2_d_memory.c ****   return 0;
 495:..\..\..\u8g2\u8g2\csrc/u8g2_d_memory.c ****   #else
 496:..\..\..\u8g2\u8g2\csrc/u8g2_d_memory.c ****   static uint8_t buf[384];
 497:..\..\..\u8g2\u8g2\csrc/u8g2_d_memory.c ****   *page_cnt = 8;
 1266              		.loc 1 497 0
 1267 0000 0823     		movs	r3, #8
 1268 0002 0370     		strb	r3, [r0]
 498:..\..\..\u8g2\u8g2\csrc/u8g2_d_memory.c ****   return buf;
 499:..\..\..\u8g2\u8g2\csrc/u8g2_d_memory.c ****   #endif
ARM GAS  C:\Users\jesse\AppData\Local\Temp\ccuy2FXa.s 			page 32


 500:..\..\..\u8g2\u8g2\csrc/u8g2_d_memory.c **** }
 1269              		.loc 1 500 0
 1270 0004 0048     		ldr	r0, .L134
 1271              	.LVL89:
 1272 0006 7047     		bx	lr
 1273              	.L135:
 1274              		.align	2
 1275              	.L134:
 1276 0008 50720000 		.word	.LANCHOR6+3200
 1277              		.cfi_endproc
 1278              	.LFE44:
 1279              		.size	u8g2_m_6_8_f, .-u8g2_m_6_8_f
 1280              		.section	.text.u8g2_m_12_2_1,"ax",%progbits
 1281              		.align	1
 1282              		.global	u8g2_m_12_2_1
 1283              		.thumb
 1284              		.thumb_func
 1285              		.type	u8g2_m_12_2_1, %function
 1286              	u8g2_m_12_2_1:
 1287              	.LFB45:
 501:..\..\..\u8g2\u8g2\csrc/u8g2_d_memory.c **** uint8_t *u8g2_m_12_2_1(uint8_t *page_cnt)
 502:..\..\..\u8g2\u8g2\csrc/u8g2_d_memory.c **** {
 1288              		.loc 1 502 0
 1289              		.cfi_startproc
 1290              		@ args = 0, pretend = 0, frame = 0
 1291              		@ frame_needed = 0, uses_anonymous_args = 0
 1292              		@ link register save eliminated.
 1293              	.LVL90:
 503:..\..\..\u8g2\u8g2\csrc/u8g2_d_memory.c ****   #ifdef U8G2_USE_DYNAMIC_ALLOC
 504:..\..\..\u8g2\u8g2\csrc/u8g2_d_memory.c ****   *page_cnt = 1;
 505:..\..\..\u8g2\u8g2\csrc/u8g2_d_memory.c ****   return 0;
 506:..\..\..\u8g2\u8g2\csrc/u8g2_d_memory.c ****   #else
 507:..\..\..\u8g2\u8g2\csrc/u8g2_d_memory.c ****   static uint8_t buf[96];
 508:..\..\..\u8g2\u8g2\csrc/u8g2_d_memory.c ****   *page_cnt = 1;
 1294              		.loc 1 508 0
 1295 0000 0123     		movs	r3, #1
 1296 0002 0370     		strb	r3, [r0]
 509:..\..\..\u8g2\u8g2\csrc/u8g2_d_memory.c ****   return buf;
 510:..\..\..\u8g2\u8g2\csrc/u8g2_d_memory.c ****   #endif
 511:..\..\..\u8g2\u8g2\csrc/u8g2_d_memory.c **** }
 1297              		.loc 1 511 0
 1298 0004 0048     		ldr	r0, .L137
 1299              	.LVL91:
 1300 0006 7047     		bx	lr
 1301              	.L138:
 1302              		.align	2
 1303              	.L137:
 1304 0008 D0730000 		.word	.LANCHOR6+3584
 1305              		.cfi_endproc
 1306              	.LFE45:
 1307              		.size	u8g2_m_12_2_1, .-u8g2_m_12_2_1
 1308              		.section	.text.u8g2_m_12_2_2,"ax",%progbits
 1309              		.align	1
 1310              		.global	u8g2_m_12_2_2
 1311              		.thumb
 1312              		.thumb_func
 1313              		.type	u8g2_m_12_2_2, %function
ARM GAS  C:\Users\jesse\AppData\Local\Temp\ccuy2FXa.s 			page 33


 1314              	u8g2_m_12_2_2:
 1315              	.LFB46:
 512:..\..\..\u8g2\u8g2\csrc/u8g2_d_memory.c **** uint8_t *u8g2_m_12_2_2(uint8_t *page_cnt)
 513:..\..\..\u8g2\u8g2\csrc/u8g2_d_memory.c **** {
 1316              		.loc 1 513 0
 1317              		.cfi_startproc
 1318              		@ args = 0, pretend = 0, frame = 0
 1319              		@ frame_needed = 0, uses_anonymous_args = 0
 1320              		@ link register save eliminated.
 1321              	.LVL92:
 514:..\..\..\u8g2\u8g2\csrc/u8g2_d_memory.c ****   #ifdef U8G2_USE_DYNAMIC_ALLOC
 515:..\..\..\u8g2\u8g2\csrc/u8g2_d_memory.c ****   *page_cnt = 2;
 516:..\..\..\u8g2\u8g2\csrc/u8g2_d_memory.c ****   return 0;
 517:..\..\..\u8g2\u8g2\csrc/u8g2_d_memory.c ****   #else
 518:..\..\..\u8g2\u8g2\csrc/u8g2_d_memory.c ****   static uint8_t buf[192];
 519:..\..\..\u8g2\u8g2\csrc/u8g2_d_memory.c ****   *page_cnt = 2;
 1322              		.loc 1 519 0
 1323 0000 0223     		movs	r3, #2
 1324 0002 0370     		strb	r3, [r0]
 520:..\..\..\u8g2\u8g2\csrc/u8g2_d_memory.c ****   return buf;
 521:..\..\..\u8g2\u8g2\csrc/u8g2_d_memory.c ****   #endif
 522:..\..\..\u8g2\u8g2\csrc/u8g2_d_memory.c **** }
 1325              		.loc 1 522 0
 1326 0004 0048     		ldr	r0, .L140
 1327              	.LVL93:
 1328 0006 7047     		bx	lr
 1329              	.L141:
 1330              		.align	2
 1331              	.L140:
 1332 0008 30740000 		.word	.LANCHOR6+3680
 1333              		.cfi_endproc
 1334              	.LFE46:
 1335              		.size	u8g2_m_12_2_2, .-u8g2_m_12_2_2
 1336              		.section	.text.u8g2_m_12_2_f,"ax",%progbits
 1337              		.align	1
 1338              		.global	u8g2_m_12_2_f
 1339              		.thumb
 1340              		.thumb_func
 1341              		.type	u8g2_m_12_2_f, %function
 1342              	u8g2_m_12_2_f:
 1343              	.LFB47:
 523:..\..\..\u8g2\u8g2\csrc/u8g2_d_memory.c **** uint8_t *u8g2_m_12_2_f(uint8_t *page_cnt)
 524:..\..\..\u8g2\u8g2\csrc/u8g2_d_memory.c **** {
 1344              		.loc 1 524 0
 1345              		.cfi_startproc
 1346              		@ args = 0, pretend = 0, frame = 0
 1347              		@ frame_needed = 0, uses_anonymous_args = 0
 1348              		@ link register save eliminated.
 1349              	.LVL94:
 525:..\..\..\u8g2\u8g2\csrc/u8g2_d_memory.c ****   #ifdef U8G2_USE_DYNAMIC_ALLOC
 526:..\..\..\u8g2\u8g2\csrc/u8g2_d_memory.c ****   *page_cnt = 2;
 527:..\..\..\u8g2\u8g2\csrc/u8g2_d_memory.c ****   return 0;
 528:..\..\..\u8g2\u8g2\csrc/u8g2_d_memory.c ****   #else
 529:..\..\..\u8g2\u8g2\csrc/u8g2_d_memory.c ****   static uint8_t buf[192];
 530:..\..\..\u8g2\u8g2\csrc/u8g2_d_memory.c ****   *page_cnt = 2;
 1350              		.loc 1 530 0
 1351 0000 0223     		movs	r3, #2
ARM GAS  C:\Users\jesse\AppData\Local\Temp\ccuy2FXa.s 			page 34


 1352 0002 0370     		strb	r3, [r0]
 531:..\..\..\u8g2\u8g2\csrc/u8g2_d_memory.c ****   return buf;
 532:..\..\..\u8g2\u8g2\csrc/u8g2_d_memory.c ****   #endif
 533:..\..\..\u8g2\u8g2\csrc/u8g2_d_memory.c **** }
 1353              		.loc 1 533 0
 1354 0004 0048     		ldr	r0, .L143
 1355              	.LVL95:
 1356 0006 7047     		bx	lr
 1357              	.L144:
 1358              		.align	2
 1359              	.L143:
 1360 0008 F0740000 		.word	.LANCHOR6+3872
 1361              		.cfi_endproc
 1362              	.LFE47:
 1363              		.size	u8g2_m_12_2_f, .-u8g2_m_12_2_f
 1364              		.section	.text.u8g2_m_12_4_1,"ax",%progbits
 1365              		.align	1
 1366              		.global	u8g2_m_12_4_1
 1367              		.thumb
 1368              		.thumb_func
 1369              		.type	u8g2_m_12_4_1, %function
 1370              	u8g2_m_12_4_1:
 1371              	.LFB48:
 534:..\..\..\u8g2\u8g2\csrc/u8g2_d_memory.c **** uint8_t *u8g2_m_12_4_1(uint8_t *page_cnt)
 535:..\..\..\u8g2\u8g2\csrc/u8g2_d_memory.c **** {
 1372              		.loc 1 535 0
 1373              		.cfi_startproc
 1374              		@ args = 0, pretend = 0, frame = 0
 1375              		@ frame_needed = 0, uses_anonymous_args = 0
 1376              		@ link register save eliminated.
 1377              	.LVL96:
 536:..\..\..\u8g2\u8g2\csrc/u8g2_d_memory.c ****   #ifdef U8G2_USE_DYNAMIC_ALLOC
 537:..\..\..\u8g2\u8g2\csrc/u8g2_d_memory.c ****   *page_cnt = 1;
 538:..\..\..\u8g2\u8g2\csrc/u8g2_d_memory.c ****   return 0;
 539:..\..\..\u8g2\u8g2\csrc/u8g2_d_memory.c ****   #else
 540:..\..\..\u8g2\u8g2\csrc/u8g2_d_memory.c ****   static uint8_t buf[96];
 541:..\..\..\u8g2\u8g2\csrc/u8g2_d_memory.c ****   *page_cnt = 1;
 1378              		.loc 1 541 0
 1379 0000 0123     		movs	r3, #1
 1380 0002 0370     		strb	r3, [r0]
 542:..\..\..\u8g2\u8g2\csrc/u8g2_d_memory.c ****   return buf;
 543:..\..\..\u8g2\u8g2\csrc/u8g2_d_memory.c ****   #endif
 544:..\..\..\u8g2\u8g2\csrc/u8g2_d_memory.c **** }
 1381              		.loc 1 544 0
 1382 0004 0048     		ldr	r0, .L146
 1383              	.LVL97:
 1384 0006 7047     		bx	lr
 1385              	.L147:
 1386              		.align	2
 1387              	.L146:
 1388 0008 B0750000 		.word	.LANCHOR6+4064
 1389              		.cfi_endproc
 1390              	.LFE48:
 1391              		.size	u8g2_m_12_4_1, .-u8g2_m_12_4_1
 1392              		.section	.text.u8g2_m_12_4_2,"ax",%progbits
 1393              		.align	1
 1394              		.global	u8g2_m_12_4_2
ARM GAS  C:\Users\jesse\AppData\Local\Temp\ccuy2FXa.s 			page 35


 1395              		.thumb
 1396              		.thumb_func
 1397              		.type	u8g2_m_12_4_2, %function
 1398              	u8g2_m_12_4_2:
 1399              	.LFB49:
 545:..\..\..\u8g2\u8g2\csrc/u8g2_d_memory.c **** uint8_t *u8g2_m_12_4_2(uint8_t *page_cnt)
 546:..\..\..\u8g2\u8g2\csrc/u8g2_d_memory.c **** {
 1400              		.loc 1 546 0
 1401              		.cfi_startproc
 1402              		@ args = 0, pretend = 0, frame = 0
 1403              		@ frame_needed = 0, uses_anonymous_args = 0
 1404              		@ link register save eliminated.
 1405              	.LVL98:
 547:..\..\..\u8g2\u8g2\csrc/u8g2_d_memory.c ****   #ifdef U8G2_USE_DYNAMIC_ALLOC
 548:..\..\..\u8g2\u8g2\csrc/u8g2_d_memory.c ****   *page_cnt = 2;
 549:..\..\..\u8g2\u8g2\csrc/u8g2_d_memory.c ****   return 0;
 550:..\..\..\u8g2\u8g2\csrc/u8g2_d_memory.c ****   #else
 551:..\..\..\u8g2\u8g2\csrc/u8g2_d_memory.c ****   static uint8_t buf[192];
 552:..\..\..\u8g2\u8g2\csrc/u8g2_d_memory.c ****   *page_cnt = 2;
 1406              		.loc 1 552 0
 1407 0000 0223     		movs	r3, #2
 1408 0002 0370     		strb	r3, [r0]
 553:..\..\..\u8g2\u8g2\csrc/u8g2_d_memory.c ****   return buf;
 554:..\..\..\u8g2\u8g2\csrc/u8g2_d_memory.c ****   #endif
 555:..\..\..\u8g2\u8g2\csrc/u8g2_d_memory.c **** }
 1409              		.loc 1 555 0
 1410 0004 0048     		ldr	r0, .L149
 1411              	.LVL99:
 1412 0006 7047     		bx	lr
 1413              	.L150:
 1414              		.align	2
 1415              	.L149:
 1416 0008 10760000 		.word	.LANCHOR7-184
 1417              		.cfi_endproc
 1418              	.LFE49:
 1419              		.size	u8g2_m_12_4_2, .-u8g2_m_12_4_2
 1420              		.section	.text.u8g2_m_12_4_f,"ax",%progbits
 1421              		.align	1
 1422              		.global	u8g2_m_12_4_f
 1423              		.thumb
 1424              		.thumb_func
 1425              		.type	u8g2_m_12_4_f, %function
 1426              	u8g2_m_12_4_f:
 1427              	.LFB50:
 556:..\..\..\u8g2\u8g2\csrc/u8g2_d_memory.c **** uint8_t *u8g2_m_12_4_f(uint8_t *page_cnt)
 557:..\..\..\u8g2\u8g2\csrc/u8g2_d_memory.c **** {
 1428              		.loc 1 557 0
 1429              		.cfi_startproc
 1430              		@ args = 0, pretend = 0, frame = 0
 1431              		@ frame_needed = 0, uses_anonymous_args = 0
 1432              		@ link register save eliminated.
 1433              	.LVL100:
 558:..\..\..\u8g2\u8g2\csrc/u8g2_d_memory.c ****   #ifdef U8G2_USE_DYNAMIC_ALLOC
 559:..\..\..\u8g2\u8g2\csrc/u8g2_d_memory.c ****   *page_cnt = 4;
 560:..\..\..\u8g2\u8g2\csrc/u8g2_d_memory.c ****   return 0;
 561:..\..\..\u8g2\u8g2\csrc/u8g2_d_memory.c ****   #else
 562:..\..\..\u8g2\u8g2\csrc/u8g2_d_memory.c ****   static uint8_t buf[384];
ARM GAS  C:\Users\jesse\AppData\Local\Temp\ccuy2FXa.s 			page 36


 563:..\..\..\u8g2\u8g2\csrc/u8g2_d_memory.c ****   *page_cnt = 4;
 1434              		.loc 1 563 0
 1435 0000 0423     		movs	r3, #4
 1436 0002 0370     		strb	r3, [r0]
 564:..\..\..\u8g2\u8g2\csrc/u8g2_d_memory.c ****   return buf;
 565:..\..\..\u8g2\u8g2\csrc/u8g2_d_memory.c ****   #endif
 566:..\..\..\u8g2\u8g2\csrc/u8g2_d_memory.c **** }
 1437              		.loc 1 566 0
 1438 0004 0048     		ldr	r0, .L152
 1439              	.LVL101:
 1440 0006 7047     		bx	lr
 1441              	.L153:
 1442              		.align	2
 1443              	.L152:
 1444 0008 D0760000 		.word	.LANCHOR7+8
 1445              		.cfi_endproc
 1446              	.LFE50:
 1447              		.size	u8g2_m_12_4_f, .-u8g2_m_12_4_f
 1448              		.section	.text.u8g2_m_16_12_1,"ax",%progbits
 1449              		.align	1
 1450              		.global	u8g2_m_16_12_1
 1451              		.thumb
 1452              		.thumb_func
 1453              		.type	u8g2_m_16_12_1, %function
 1454              	u8g2_m_16_12_1:
 1455              	.LFB51:
 567:..\..\..\u8g2\u8g2\csrc/u8g2_d_memory.c **** uint8_t *u8g2_m_16_12_1(uint8_t *page_cnt)
 568:..\..\..\u8g2\u8g2\csrc/u8g2_d_memory.c **** {
 1456              		.loc 1 568 0
 1457              		.cfi_startproc
 1458              		@ args = 0, pretend = 0, frame = 0
 1459              		@ frame_needed = 0, uses_anonymous_args = 0
 1460              		@ link register save eliminated.
 1461              	.LVL102:
 569:..\..\..\u8g2\u8g2\csrc/u8g2_d_memory.c ****   #ifdef U8G2_USE_DYNAMIC_ALLOC
 570:..\..\..\u8g2\u8g2\csrc/u8g2_d_memory.c ****   *page_cnt = 1;
 571:..\..\..\u8g2\u8g2\csrc/u8g2_d_memory.c ****   return 0;
 572:..\..\..\u8g2\u8g2\csrc/u8g2_d_memory.c ****   #else
 573:..\..\..\u8g2\u8g2\csrc/u8g2_d_memory.c ****   static uint8_t buf[128];
 574:..\..\..\u8g2\u8g2\csrc/u8g2_d_memory.c ****   *page_cnt = 1;
 1462              		.loc 1 574 0
 1463 0000 0123     		movs	r3, #1
 1464 0002 0370     		strb	r3, [r0]
 575:..\..\..\u8g2\u8g2\csrc/u8g2_d_memory.c ****   return buf;
 576:..\..\..\u8g2\u8g2\csrc/u8g2_d_memory.c ****   #endif
 577:..\..\..\u8g2\u8g2\csrc/u8g2_d_memory.c **** }
 1465              		.loc 1 577 0
 1466 0004 0048     		ldr	r0, .L155
 1467              	.LVL103:
 1468 0006 7047     		bx	lr
 1469              	.L156:
 1470              		.align	2
 1471              	.L155:
 1472 0008 50780000 		.word	.LANCHOR7+392
 1473              		.cfi_endproc
 1474              	.LFE51:
 1475              		.size	u8g2_m_16_12_1, .-u8g2_m_16_12_1
ARM GAS  C:\Users\jesse\AppData\Local\Temp\ccuy2FXa.s 			page 37


 1476              		.section	.text.u8g2_m_16_12_2,"ax",%progbits
 1477              		.align	1
 1478              		.global	u8g2_m_16_12_2
 1479              		.thumb
 1480              		.thumb_func
 1481              		.type	u8g2_m_16_12_2, %function
 1482              	u8g2_m_16_12_2:
 1483              	.LFB52:
 578:..\..\..\u8g2\u8g2\csrc/u8g2_d_memory.c **** uint8_t *u8g2_m_16_12_2(uint8_t *page_cnt)
 579:..\..\..\u8g2\u8g2\csrc/u8g2_d_memory.c **** {
 1484              		.loc 1 579 0
 1485              		.cfi_startproc
 1486              		@ args = 0, pretend = 0, frame = 0
 1487              		@ frame_needed = 0, uses_anonymous_args = 0
 1488              		@ link register save eliminated.
 1489              	.LVL104:
 580:..\..\..\u8g2\u8g2\csrc/u8g2_d_memory.c ****   #ifdef U8G2_USE_DYNAMIC_ALLOC
 581:..\..\..\u8g2\u8g2\csrc/u8g2_d_memory.c ****   *page_cnt = 2;
 582:..\..\..\u8g2\u8g2\csrc/u8g2_d_memory.c ****   return 0;
 583:..\..\..\u8g2\u8g2\csrc/u8g2_d_memory.c ****   #else
 584:..\..\..\u8g2\u8g2\csrc/u8g2_d_memory.c ****   static uint8_t buf[256];
 585:..\..\..\u8g2\u8g2\csrc/u8g2_d_memory.c ****   *page_cnt = 2;
 1490              		.loc 1 585 0
 1491 0000 0223     		movs	r3, #2
 1492 0002 0370     		strb	r3, [r0]
 586:..\..\..\u8g2\u8g2\csrc/u8g2_d_memory.c ****   return buf;
 587:..\..\..\u8g2\u8g2\csrc/u8g2_d_memory.c ****   #endif
 588:..\..\..\u8g2\u8g2\csrc/u8g2_d_memory.c **** }
 1493              		.loc 1 588 0
 1494 0004 0048     		ldr	r0, .L158
 1495              	.LVL105:
 1496 0006 7047     		bx	lr
 1497              	.L159:
 1498              		.align	2
 1499              	.L158:
 1500 0008 D0780000 		.word	.LANCHOR7+520
 1501              		.cfi_endproc
 1502              	.LFE52:
 1503              		.size	u8g2_m_16_12_2, .-u8g2_m_16_12_2
 1504              		.section	.text.u8g2_m_16_12_f,"ax",%progbits
 1505              		.align	1
 1506              		.global	u8g2_m_16_12_f
 1507              		.thumb
 1508              		.thumb_func
 1509              		.type	u8g2_m_16_12_f, %function
 1510              	u8g2_m_16_12_f:
 1511              	.LFB53:
 589:..\..\..\u8g2\u8g2\csrc/u8g2_d_memory.c **** uint8_t *u8g2_m_16_12_f(uint8_t *page_cnt)
 590:..\..\..\u8g2\u8g2\csrc/u8g2_d_memory.c **** {
 1512              		.loc 1 590 0
 1513              		.cfi_startproc
 1514              		@ args = 0, pretend = 0, frame = 0
 1515              		@ frame_needed = 0, uses_anonymous_args = 0
 1516              		@ link register save eliminated.
 1517              	.LVL106:
 591:..\..\..\u8g2\u8g2\csrc/u8g2_d_memory.c ****   #ifdef U8G2_USE_DYNAMIC_ALLOC
 592:..\..\..\u8g2\u8g2\csrc/u8g2_d_memory.c ****   *page_cnt = 12;
ARM GAS  C:\Users\jesse\AppData\Local\Temp\ccuy2FXa.s 			page 38


 593:..\..\..\u8g2\u8g2\csrc/u8g2_d_memory.c ****   return 0;
 594:..\..\..\u8g2\u8g2\csrc/u8g2_d_memory.c ****   #else
 595:..\..\..\u8g2\u8g2\csrc/u8g2_d_memory.c ****   static uint8_t buf[1536];
 596:..\..\..\u8g2\u8g2\csrc/u8g2_d_memory.c ****   *page_cnt = 12;
 1518              		.loc 1 596 0
 1519 0000 0C23     		movs	r3, #12
 1520 0002 0370     		strb	r3, [r0]
 597:..\..\..\u8g2\u8g2\csrc/u8g2_d_memory.c ****   return buf;
 598:..\..\..\u8g2\u8g2\csrc/u8g2_d_memory.c ****   #endif
 599:..\..\..\u8g2\u8g2\csrc/u8g2_d_memory.c **** }
 1521              		.loc 1 599 0
 1522 0004 0048     		ldr	r0, .L161
 1523              	.LVL107:
 1524 0006 7047     		bx	lr
 1525              	.L162:
 1526              		.align	2
 1527              	.L161:
 1528 0008 D0790000 		.word	.LANCHOR7+776
 1529              		.cfi_endproc
 1530              	.LFE53:
 1531              		.size	u8g2_m_16_12_f, .-u8g2_m_16_12_f
 1532              		.section	.text.u8g2_m_32_4_1,"ax",%progbits
 1533              		.align	1
 1534              		.global	u8g2_m_32_4_1
 1535              		.thumb
 1536              		.thumb_func
 1537              		.type	u8g2_m_32_4_1, %function
 1538              	u8g2_m_32_4_1:
 1539              	.LFB54:
 600:..\..\..\u8g2\u8g2\csrc/u8g2_d_memory.c **** uint8_t *u8g2_m_32_4_1(uint8_t *page_cnt)
 601:..\..\..\u8g2\u8g2\csrc/u8g2_d_memory.c **** {
 1540              		.loc 1 601 0
 1541              		.cfi_startproc
 1542              		@ args = 0, pretend = 0, frame = 0
 1543              		@ frame_needed = 0, uses_anonymous_args = 0
 1544              		@ link register save eliminated.
 1545              	.LVL108:
 602:..\..\..\u8g2\u8g2\csrc/u8g2_d_memory.c ****   #ifdef U8G2_USE_DYNAMIC_ALLOC
 603:..\..\..\u8g2\u8g2\csrc/u8g2_d_memory.c ****   *page_cnt = 1;
 604:..\..\..\u8g2\u8g2\csrc/u8g2_d_memory.c ****   return 0;
 605:..\..\..\u8g2\u8g2\csrc/u8g2_d_memory.c ****   #else
 606:..\..\..\u8g2\u8g2\csrc/u8g2_d_memory.c ****   static uint8_t buf[256];
 607:..\..\..\u8g2\u8g2\csrc/u8g2_d_memory.c ****   *page_cnt = 1;
 1546              		.loc 1 607 0
 1547 0000 0123     		movs	r3, #1
 1548 0002 0370     		strb	r3, [r0]
 608:..\..\..\u8g2\u8g2\csrc/u8g2_d_memory.c ****   return buf;
 609:..\..\..\u8g2\u8g2\csrc/u8g2_d_memory.c ****   #endif
 610:..\..\..\u8g2\u8g2\csrc/u8g2_d_memory.c **** }
 1549              		.loc 1 610 0
 1550 0004 0048     		ldr	r0, .L164
 1551              	.LVL109:
 1552 0006 7047     		bx	lr
 1553              	.L165:
 1554              		.align	2
 1555              	.L164:
 1556 0008 D07F0000 		.word	.LANCHOR7+2312
ARM GAS  C:\Users\jesse\AppData\Local\Temp\ccuy2FXa.s 			page 39


 1557              		.cfi_endproc
 1558              	.LFE54:
 1559              		.size	u8g2_m_32_4_1, .-u8g2_m_32_4_1
 1560              		.section	.text.u8g2_m_32_4_2,"ax",%progbits
 1561              		.align	1
 1562              		.global	u8g2_m_32_4_2
 1563              		.thumb
 1564              		.thumb_func
 1565              		.type	u8g2_m_32_4_2, %function
 1566              	u8g2_m_32_4_2:
 1567              	.LFB55:
 611:..\..\..\u8g2\u8g2\csrc/u8g2_d_memory.c **** uint8_t *u8g2_m_32_4_2(uint8_t *page_cnt)
 612:..\..\..\u8g2\u8g2\csrc/u8g2_d_memory.c **** {
 1568              		.loc 1 612 0
 1569              		.cfi_startproc
 1570              		@ args = 0, pretend = 0, frame = 0
 1571              		@ frame_needed = 0, uses_anonymous_args = 0
 1572              		@ link register save eliminated.
 1573              	.LVL110:
 613:..\..\..\u8g2\u8g2\csrc/u8g2_d_memory.c ****   #ifdef U8G2_USE_DYNAMIC_ALLOC
 614:..\..\..\u8g2\u8g2\csrc/u8g2_d_memory.c ****   *page_cnt = 2;
 615:..\..\..\u8g2\u8g2\csrc/u8g2_d_memory.c ****   return 0;
 616:..\..\..\u8g2\u8g2\csrc/u8g2_d_memory.c ****   #else
 617:..\..\..\u8g2\u8g2\csrc/u8g2_d_memory.c ****   static uint8_t buf[512];
 618:..\..\..\u8g2\u8g2\csrc/u8g2_d_memory.c ****   *page_cnt = 2;
 1574              		.loc 1 618 0
 1575 0000 0223     		movs	r3, #2
 1576 0002 0370     		strb	r3, [r0]
 619:..\..\..\u8g2\u8g2\csrc/u8g2_d_memory.c ****   return buf;
 620:..\..\..\u8g2\u8g2\csrc/u8g2_d_memory.c ****   #endif
 621:..\..\..\u8g2\u8g2\csrc/u8g2_d_memory.c **** }
 1577              		.loc 1 621 0
 1578 0004 0048     		ldr	r0, .L167
 1579              	.LVL111:
 1580 0006 7047     		bx	lr
 1581              	.L168:
 1582              		.align	2
 1583              	.L167:
 1584 0008 D0800000 		.word	.LANCHOR7+2568
 1585              		.cfi_endproc
 1586              	.LFE55:
 1587              		.size	u8g2_m_32_4_2, .-u8g2_m_32_4_2
 1588              		.section	.text.u8g2_m_32_4_f,"ax",%progbits
 1589              		.align	1
 1590              		.global	u8g2_m_32_4_f
 1591              		.thumb
 1592              		.thumb_func
 1593              		.type	u8g2_m_32_4_f, %function
 1594              	u8g2_m_32_4_f:
 1595              	.LFB56:
 622:..\..\..\u8g2\u8g2\csrc/u8g2_d_memory.c **** uint8_t *u8g2_m_32_4_f(uint8_t *page_cnt)
 623:..\..\..\u8g2\u8g2\csrc/u8g2_d_memory.c **** {
 1596              		.loc 1 623 0
 1597              		.cfi_startproc
 1598              		@ args = 0, pretend = 0, frame = 0
 1599              		@ frame_needed = 0, uses_anonymous_args = 0
 1600              		@ link register save eliminated.
ARM GAS  C:\Users\jesse\AppData\Local\Temp\ccuy2FXa.s 			page 40


 1601              	.LVL112:
 624:..\..\..\u8g2\u8g2\csrc/u8g2_d_memory.c ****   #ifdef U8G2_USE_DYNAMIC_ALLOC
 625:..\..\..\u8g2\u8g2\csrc/u8g2_d_memory.c ****   *page_cnt = 4;
 626:..\..\..\u8g2\u8g2\csrc/u8g2_d_memory.c ****   return 0;
 627:..\..\..\u8g2\u8g2\csrc/u8g2_d_memory.c ****   #else
 628:..\..\..\u8g2\u8g2\csrc/u8g2_d_memory.c ****   static uint8_t buf[1024];
 629:..\..\..\u8g2\u8g2\csrc/u8g2_d_memory.c ****   *page_cnt = 4;
 1602              		.loc 1 629 0
 1603 0000 0423     		movs	r3, #4
 1604 0002 0370     		strb	r3, [r0]
 630:..\..\..\u8g2\u8g2\csrc/u8g2_d_memory.c ****   return buf;
 631:..\..\..\u8g2\u8g2\csrc/u8g2_d_memory.c ****   #endif
 632:..\..\..\u8g2\u8g2\csrc/u8g2_d_memory.c **** }
 1605              		.loc 1 632 0
 1606 0004 0048     		ldr	r0, .L170
 1607              	.LVL113:
 1608 0006 7047     		bx	lr
 1609              	.L171:
 1610              		.align	2
 1611              	.L170:
 1612 0008 D0820000 		.word	.LANCHOR7+3080
 1613              		.cfi_endproc
 1614              	.LFE56:
 1615              		.size	u8g2_m_32_4_f, .-u8g2_m_32_4_f
 1616              		.section	.text.u8g2_m_12_8_1,"ax",%progbits
 1617              		.align	1
 1618              		.global	u8g2_m_12_8_1
 1619              		.thumb
 1620              		.thumb_func
 1621              		.type	u8g2_m_12_8_1, %function
 1622              	u8g2_m_12_8_1:
 1623              	.LFB57:
 633:..\..\..\u8g2\u8g2\csrc/u8g2_d_memory.c **** uint8_t *u8g2_m_12_8_1(uint8_t *page_cnt)
 634:..\..\..\u8g2\u8g2\csrc/u8g2_d_memory.c **** {
 1624              		.loc 1 634 0
 1625              		.cfi_startproc
 1626              		@ args = 0, pretend = 0, frame = 0
 1627              		@ frame_needed = 0, uses_anonymous_args = 0
 1628              		@ link register save eliminated.
 1629              	.LVL114:
 635:..\..\..\u8g2\u8g2\csrc/u8g2_d_memory.c ****   #ifdef U8G2_USE_DYNAMIC_ALLOC
 636:..\..\..\u8g2\u8g2\csrc/u8g2_d_memory.c ****   *page_cnt = 1;
 637:..\..\..\u8g2\u8g2\csrc/u8g2_d_memory.c ****   return 0;
 638:..\..\..\u8g2\u8g2\csrc/u8g2_d_memory.c ****   #else
 639:..\..\..\u8g2\u8g2\csrc/u8g2_d_memory.c ****   static uint8_t buf[96];
 640:..\..\..\u8g2\u8g2\csrc/u8g2_d_memory.c ****   *page_cnt = 1;
 1630              		.loc 1 640 0
 1631 0000 0123     		movs	r3, #1
 1632 0002 0370     		strb	r3, [r0]
 641:..\..\..\u8g2\u8g2\csrc/u8g2_d_memory.c ****   return buf;
 642:..\..\..\u8g2\u8g2\csrc/u8g2_d_memory.c ****   #endif
 643:..\..\..\u8g2\u8g2\csrc/u8g2_d_memory.c **** }
 1633              		.loc 1 643 0
 1634 0004 0048     		ldr	r0, .L173
 1635              	.LVL115:
 1636 0006 7047     		bx	lr
 1637              	.L174:
ARM GAS  C:\Users\jesse\AppData\Local\Temp\ccuy2FXa.s 			page 41


 1638              		.align	2
 1639              	.L173:
 1640 0008 D0860000 		.word	.LANCHOR8-240
 1641              		.cfi_endproc
 1642              	.LFE57:
 1643              		.size	u8g2_m_12_8_1, .-u8g2_m_12_8_1
 1644              		.section	.text.u8g2_m_12_8_2,"ax",%progbits
 1645              		.align	1
 1646              		.global	u8g2_m_12_8_2
 1647              		.thumb
 1648              		.thumb_func
 1649              		.type	u8g2_m_12_8_2, %function
 1650              	u8g2_m_12_8_2:
 1651              	.LFB58:
 644:..\..\..\u8g2\u8g2\csrc/u8g2_d_memory.c **** uint8_t *u8g2_m_12_8_2(uint8_t *page_cnt)
 645:..\..\..\u8g2\u8g2\csrc/u8g2_d_memory.c **** {
 1652              		.loc 1 645 0
 1653              		.cfi_startproc
 1654              		@ args = 0, pretend = 0, frame = 0
 1655              		@ frame_needed = 0, uses_anonymous_args = 0
 1656              		@ link register save eliminated.
 1657              	.LVL116:
 646:..\..\..\u8g2\u8g2\csrc/u8g2_d_memory.c ****   #ifdef U8G2_USE_DYNAMIC_ALLOC
 647:..\..\..\u8g2\u8g2\csrc/u8g2_d_memory.c ****   *page_cnt = 2;
 648:..\..\..\u8g2\u8g2\csrc/u8g2_d_memory.c ****   return 0;
 649:..\..\..\u8g2\u8g2\csrc/u8g2_d_memory.c ****   #else
 650:..\..\..\u8g2\u8g2\csrc/u8g2_d_memory.c ****   static uint8_t buf[192];
 651:..\..\..\u8g2\u8g2\csrc/u8g2_d_memory.c ****   *page_cnt = 2;
 1658              		.loc 1 651 0
 1659 0000 0223     		movs	r3, #2
 1660 0002 0370     		strb	r3, [r0]
 652:..\..\..\u8g2\u8g2\csrc/u8g2_d_memory.c ****   return buf;
 653:..\..\..\u8g2\u8g2\csrc/u8g2_d_memory.c ****   #endif
 654:..\..\..\u8g2\u8g2\csrc/u8g2_d_memory.c **** }
 1661              		.loc 1 654 0
 1662 0004 0048     		ldr	r0, .L176
 1663              	.LVL117:
 1664 0006 7047     		bx	lr
 1665              	.L177:
 1666              		.align	2
 1667              	.L176:
 1668 0008 30870000 		.word	.LANCHOR8-144
 1669              		.cfi_endproc
 1670              	.LFE58:
 1671              		.size	u8g2_m_12_8_2, .-u8g2_m_12_8_2
 1672              		.section	.text.u8g2_m_12_8_f,"ax",%progbits
 1673              		.align	1
 1674              		.global	u8g2_m_12_8_f
 1675              		.thumb
 1676              		.thumb_func
 1677              		.type	u8g2_m_12_8_f, %function
 1678              	u8g2_m_12_8_f:
 1679              	.LFB59:
 655:..\..\..\u8g2\u8g2\csrc/u8g2_d_memory.c **** uint8_t *u8g2_m_12_8_f(uint8_t *page_cnt)
 656:..\..\..\u8g2\u8g2\csrc/u8g2_d_memory.c **** {
 1680              		.loc 1 656 0
 1681              		.cfi_startproc
ARM GAS  C:\Users\jesse\AppData\Local\Temp\ccuy2FXa.s 			page 42


 1682              		@ args = 0, pretend = 0, frame = 0
 1683              		@ frame_needed = 0, uses_anonymous_args = 0
 1684              		@ link register save eliminated.
 1685              	.LVL118:
 657:..\..\..\u8g2\u8g2\csrc/u8g2_d_memory.c ****   #ifdef U8G2_USE_DYNAMIC_ALLOC
 658:..\..\..\u8g2\u8g2\csrc/u8g2_d_memory.c ****   *page_cnt = 8;
 659:..\..\..\u8g2\u8g2\csrc/u8g2_d_memory.c ****   return 0;
 660:..\..\..\u8g2\u8g2\csrc/u8g2_d_memory.c ****   #else
 661:..\..\..\u8g2\u8g2\csrc/u8g2_d_memory.c ****   static uint8_t buf[768];
 662:..\..\..\u8g2\u8g2\csrc/u8g2_d_memory.c ****   *page_cnt = 8;
 1686              		.loc 1 662 0
 1687 0000 0823     		movs	r3, #8
 1688 0002 0370     		strb	r3, [r0]
 663:..\..\..\u8g2\u8g2\csrc/u8g2_d_memory.c ****   return buf;
 664:..\..\..\u8g2\u8g2\csrc/u8g2_d_memory.c ****   #endif
 665:..\..\..\u8g2\u8g2\csrc/u8g2_d_memory.c **** }
 1689              		.loc 1 665 0
 1690 0004 0048     		ldr	r0, .L179
 1691              	.LVL119:
 1692 0006 7047     		bx	lr
 1693              	.L180:
 1694              		.align	2
 1695              	.L179:
 1696 0008 F0870000 		.word	.LANCHOR8+48
 1697              		.cfi_endproc
 1698              	.LFE59:
 1699              		.size	u8g2_m_12_8_f, .-u8g2_m_12_8_f
 1700              		.section	.text.u8g2_m_20_4_1,"ax",%progbits
 1701              		.align	1
 1702              		.global	u8g2_m_20_4_1
 1703              		.thumb
 1704              		.thumb_func
 1705              		.type	u8g2_m_20_4_1, %function
 1706              	u8g2_m_20_4_1:
 1707              	.LFB60:
 666:..\..\..\u8g2\u8g2\csrc/u8g2_d_memory.c **** uint8_t *u8g2_m_20_4_1(uint8_t *page_cnt)
 667:..\..\..\u8g2\u8g2\csrc/u8g2_d_memory.c **** {
 1708              		.loc 1 667 0
 1709              		.cfi_startproc
 1710              		@ args = 0, pretend = 0, frame = 0
 1711              		@ frame_needed = 0, uses_anonymous_args = 0
 1712              		@ link register save eliminated.
 1713              	.LVL120:
 668:..\..\..\u8g2\u8g2\csrc/u8g2_d_memory.c ****   #ifdef U8G2_USE_DYNAMIC_ALLOC
 669:..\..\..\u8g2\u8g2\csrc/u8g2_d_memory.c ****   *page_cnt = 1;
 670:..\..\..\u8g2\u8g2\csrc/u8g2_d_memory.c ****   return 0;
 671:..\..\..\u8g2\u8g2\csrc/u8g2_d_memory.c ****   #else
 672:..\..\..\u8g2\u8g2\csrc/u8g2_d_memory.c ****   static uint8_t buf[160];
 673:..\..\..\u8g2\u8g2\csrc/u8g2_d_memory.c ****   *page_cnt = 1;
 1714              		.loc 1 673 0
 1715 0000 0123     		movs	r3, #1
 1716 0002 0370     		strb	r3, [r0]
 674:..\..\..\u8g2\u8g2\csrc/u8g2_d_memory.c ****   return buf;
 675:..\..\..\u8g2\u8g2\csrc/u8g2_d_memory.c ****   #endif
 676:..\..\..\u8g2\u8g2\csrc/u8g2_d_memory.c **** }
 1717              		.loc 1 676 0
 1718 0004 0048     		ldr	r0, .L182
ARM GAS  C:\Users\jesse\AppData\Local\Temp\ccuy2FXa.s 			page 43


 1719              	.LVL121:
 1720 0006 7047     		bx	lr
 1721              	.L183:
 1722              		.align	2
 1723              	.L182:
 1724 0008 F08A0000 		.word	.LANCHOR8+816
 1725              		.cfi_endproc
 1726              	.LFE60:
 1727              		.size	u8g2_m_20_4_1, .-u8g2_m_20_4_1
 1728              		.section	.text.u8g2_m_20_4_2,"ax",%progbits
 1729              		.align	1
 1730              		.global	u8g2_m_20_4_2
 1731              		.thumb
 1732              		.thumb_func
 1733              		.type	u8g2_m_20_4_2, %function
 1734              	u8g2_m_20_4_2:
 1735              	.LFB61:
 677:..\..\..\u8g2\u8g2\csrc/u8g2_d_memory.c **** uint8_t *u8g2_m_20_4_2(uint8_t *page_cnt)
 678:..\..\..\u8g2\u8g2\csrc/u8g2_d_memory.c **** {
 1736              		.loc 1 678 0
 1737              		.cfi_startproc
 1738              		@ args = 0, pretend = 0, frame = 0
 1739              		@ frame_needed = 0, uses_anonymous_args = 0
 1740              		@ link register save eliminated.
 1741              	.LVL122:
 679:..\..\..\u8g2\u8g2\csrc/u8g2_d_memory.c ****   #ifdef U8G2_USE_DYNAMIC_ALLOC
 680:..\..\..\u8g2\u8g2\csrc/u8g2_d_memory.c ****   *page_cnt = 2;
 681:..\..\..\u8g2\u8g2\csrc/u8g2_d_memory.c ****   return 0;
 682:..\..\..\u8g2\u8g2\csrc/u8g2_d_memory.c ****   #else
 683:..\..\..\u8g2\u8g2\csrc/u8g2_d_memory.c ****   static uint8_t buf[320];
 684:..\..\..\u8g2\u8g2\csrc/u8g2_d_memory.c ****   *page_cnt = 2;
 1742              		.loc 1 684 0
 1743 0000 0223     		movs	r3, #2
 1744 0002 0370     		strb	r3, [r0]
 685:..\..\..\u8g2\u8g2\csrc/u8g2_d_memory.c ****   return buf;
 686:..\..\..\u8g2\u8g2\csrc/u8g2_d_memory.c ****   #endif
 687:..\..\..\u8g2\u8g2\csrc/u8g2_d_memory.c **** }
 1745              		.loc 1 687 0
 1746 0004 0048     		ldr	r0, .L185
 1747              	.LVL123:
 1748 0006 7047     		bx	lr
 1749              	.L186:
 1750              		.align	2
 1751              	.L185:
 1752 0008 908B0000 		.word	.LANCHOR8+976
 1753              		.cfi_endproc
 1754              	.LFE61:
 1755              		.size	u8g2_m_20_4_2, .-u8g2_m_20_4_2
 1756              		.section	.text.u8g2_m_20_4_f,"ax",%progbits
 1757              		.align	1
 1758              		.global	u8g2_m_20_4_f
 1759              		.thumb
 1760              		.thumb_func
 1761              		.type	u8g2_m_20_4_f, %function
 1762              	u8g2_m_20_4_f:
 1763              	.LFB62:
 688:..\..\..\u8g2\u8g2\csrc/u8g2_d_memory.c **** uint8_t *u8g2_m_20_4_f(uint8_t *page_cnt)
ARM GAS  C:\Users\jesse\AppData\Local\Temp\ccuy2FXa.s 			page 44


 689:..\..\..\u8g2\u8g2\csrc/u8g2_d_memory.c **** {
 1764              		.loc 1 689 0
 1765              		.cfi_startproc
 1766              		@ args = 0, pretend = 0, frame = 0
 1767              		@ frame_needed = 0, uses_anonymous_args = 0
 1768              		@ link register save eliminated.
 1769              	.LVL124:
 690:..\..\..\u8g2\u8g2\csrc/u8g2_d_memory.c ****   #ifdef U8G2_USE_DYNAMIC_ALLOC
 691:..\..\..\u8g2\u8g2\csrc/u8g2_d_memory.c ****   *page_cnt = 4;
 692:..\..\..\u8g2\u8g2\csrc/u8g2_d_memory.c ****   return 0;
 693:..\..\..\u8g2\u8g2\csrc/u8g2_d_memory.c ****   #else
 694:..\..\..\u8g2\u8g2\csrc/u8g2_d_memory.c ****   static uint8_t buf[640];
 695:..\..\..\u8g2\u8g2\csrc/u8g2_d_memory.c ****   *page_cnt = 4;
 1770              		.loc 1 695 0
 1771 0000 0423     		movs	r3, #4
 1772 0002 0370     		strb	r3, [r0]
 696:..\..\..\u8g2\u8g2\csrc/u8g2_d_memory.c ****   return buf;
 697:..\..\..\u8g2\u8g2\csrc/u8g2_d_memory.c ****   #endif
 698:..\..\..\u8g2\u8g2\csrc/u8g2_d_memory.c **** }
 1773              		.loc 1 698 0
 1774 0004 0048     		ldr	r0, .L188
 1775              	.LVL125:
 1776 0006 7047     		bx	lr
 1777              	.L189:
 1778              		.align	2
 1779              	.L188:
 1780 0008 D08C0000 		.word	.LANCHOR8+1296
 1781              		.cfi_endproc
 1782              	.LFE62:
 1783              		.size	u8g2_m_20_4_f, .-u8g2_m_20_4_f
 1784              		.section	.text.u8g2_m_24_4_1,"ax",%progbits
 1785              		.align	1
 1786              		.global	u8g2_m_24_4_1
 1787              		.thumb
 1788              		.thumb_func
 1789              		.type	u8g2_m_24_4_1, %function
 1790              	u8g2_m_24_4_1:
 1791              	.LFB63:
 699:..\..\..\u8g2\u8g2\csrc/u8g2_d_memory.c **** uint8_t *u8g2_m_24_4_1(uint8_t *page_cnt)
 700:..\..\..\u8g2\u8g2\csrc/u8g2_d_memory.c **** {
 1792              		.loc 1 700 0
 1793              		.cfi_startproc
 1794              		@ args = 0, pretend = 0, frame = 0
 1795              		@ frame_needed = 0, uses_anonymous_args = 0
 1796              		@ link register save eliminated.
 1797              	.LVL126:
 701:..\..\..\u8g2\u8g2\csrc/u8g2_d_memory.c ****   #ifdef U8G2_USE_DYNAMIC_ALLOC
 702:..\..\..\u8g2\u8g2\csrc/u8g2_d_memory.c ****   *page_cnt = 1;
 703:..\..\..\u8g2\u8g2\csrc/u8g2_d_memory.c ****   return 0;
 704:..\..\..\u8g2\u8g2\csrc/u8g2_d_memory.c ****   #else
 705:..\..\..\u8g2\u8g2\csrc/u8g2_d_memory.c ****   static uint8_t buf[192];
 706:..\..\..\u8g2\u8g2\csrc/u8g2_d_memory.c ****   *page_cnt = 1;
 1798              		.loc 1 706 0
 1799 0000 0123     		movs	r3, #1
 1800 0002 0370     		strb	r3, [r0]
 707:..\..\..\u8g2\u8g2\csrc/u8g2_d_memory.c ****   return buf;
 708:..\..\..\u8g2\u8g2\csrc/u8g2_d_memory.c ****   #endif
ARM GAS  C:\Users\jesse\AppData\Local\Temp\ccuy2FXa.s 			page 45


 709:..\..\..\u8g2\u8g2\csrc/u8g2_d_memory.c **** }
 1801              		.loc 1 709 0
 1802 0004 0048     		ldr	r0, .L191
 1803              	.LVL127:
 1804 0006 7047     		bx	lr
 1805              	.L192:
 1806              		.align	2
 1807              	.L191:
 1808 0008 508F0000 		.word	.LANCHOR8+1936
 1809              		.cfi_endproc
 1810              	.LFE63:
 1811              		.size	u8g2_m_24_4_1, .-u8g2_m_24_4_1
 1812              		.section	.text.u8g2_m_24_4_2,"ax",%progbits
 1813              		.align	1
 1814              		.global	u8g2_m_24_4_2
 1815              		.thumb
 1816              		.thumb_func
 1817              		.type	u8g2_m_24_4_2, %function
 1818              	u8g2_m_24_4_2:
 1819              	.LFB64:
 710:..\..\..\u8g2\u8g2\csrc/u8g2_d_memory.c **** uint8_t *u8g2_m_24_4_2(uint8_t *page_cnt)
 711:..\..\..\u8g2\u8g2\csrc/u8g2_d_memory.c **** {
 1820              		.loc 1 711 0
 1821              		.cfi_startproc
 1822              		@ args = 0, pretend = 0, frame = 0
 1823              		@ frame_needed = 0, uses_anonymous_args = 0
 1824              		@ link register save eliminated.
 1825              	.LVL128:
 712:..\..\..\u8g2\u8g2\csrc/u8g2_d_memory.c ****   #ifdef U8G2_USE_DYNAMIC_ALLOC
 713:..\..\..\u8g2\u8g2\csrc/u8g2_d_memory.c ****   *page_cnt = 2;
 714:..\..\..\u8g2\u8g2\csrc/u8g2_d_memory.c ****   return 0;
 715:..\..\..\u8g2\u8g2\csrc/u8g2_d_memory.c ****   #else
 716:..\..\..\u8g2\u8g2\csrc/u8g2_d_memory.c ****   static uint8_t buf[384];
 717:..\..\..\u8g2\u8g2\csrc/u8g2_d_memory.c ****   *page_cnt = 2;
 1826              		.loc 1 717 0
 1827 0000 0223     		movs	r3, #2
 1828 0002 0370     		strb	r3, [r0]
 718:..\..\..\u8g2\u8g2\csrc/u8g2_d_memory.c ****   return buf;
 719:..\..\..\u8g2\u8g2\csrc/u8g2_d_memory.c ****   #endif
 720:..\..\..\u8g2\u8g2\csrc/u8g2_d_memory.c **** }
 1829              		.loc 1 720 0
 1830 0004 0048     		ldr	r0, .L194
 1831              	.LVL129:
 1832 0006 7047     		bx	lr
 1833              	.L195:
 1834              		.align	2
 1835              	.L194:
 1836 0008 10900000 		.word	.LANCHOR8+2128
 1837              		.cfi_endproc
 1838              	.LFE64:
 1839              		.size	u8g2_m_24_4_2, .-u8g2_m_24_4_2
 1840              		.section	.text.u8g2_m_24_4_f,"ax",%progbits
 1841              		.align	1
 1842              		.global	u8g2_m_24_4_f
 1843              		.thumb
 1844              		.thumb_func
 1845              		.type	u8g2_m_24_4_f, %function
ARM GAS  C:\Users\jesse\AppData\Local\Temp\ccuy2FXa.s 			page 46


 1846              	u8g2_m_24_4_f:
 1847              	.LFB65:
 721:..\..\..\u8g2\u8g2\csrc/u8g2_d_memory.c **** uint8_t *u8g2_m_24_4_f(uint8_t *page_cnt)
 722:..\..\..\u8g2\u8g2\csrc/u8g2_d_memory.c **** {
 1848              		.loc 1 722 0
 1849              		.cfi_startproc
 1850              		@ args = 0, pretend = 0, frame = 0
 1851              		@ frame_needed = 0, uses_anonymous_args = 0
 1852              		@ link register save eliminated.
 1853              	.LVL130:
 723:..\..\..\u8g2\u8g2\csrc/u8g2_d_memory.c ****   #ifdef U8G2_USE_DYNAMIC_ALLOC
 724:..\..\..\u8g2\u8g2\csrc/u8g2_d_memory.c ****   *page_cnt = 4;
 725:..\..\..\u8g2\u8g2\csrc/u8g2_d_memory.c ****   return 0;
 726:..\..\..\u8g2\u8g2\csrc/u8g2_d_memory.c ****   #else
 727:..\..\..\u8g2\u8g2\csrc/u8g2_d_memory.c ****   static uint8_t buf[768];
 728:..\..\..\u8g2\u8g2\csrc/u8g2_d_memory.c ****   *page_cnt = 4;
 1854              		.loc 1 728 0
 1855 0000 0423     		movs	r3, #4
 1856 0002 0370     		strb	r3, [r0]
 729:..\..\..\u8g2\u8g2\csrc/u8g2_d_memory.c ****   return buf;
 730:..\..\..\u8g2\u8g2\csrc/u8g2_d_memory.c ****   #endif
 731:..\..\..\u8g2\u8g2\csrc/u8g2_d_memory.c **** }
 1857              		.loc 1 731 0
 1858 0004 0048     		ldr	r0, .L197
 1859              	.LVL131:
 1860 0006 7047     		bx	lr
 1861              	.L198:
 1862              		.align	2
 1863              	.L197:
 1864 0008 90910000 		.word	.LANCHOR8+2512
 1865              		.cfi_endproc
 1866              	.LFE65:
 1867              		.size	u8g2_m_24_4_f, .-u8g2_m_24_4_f
 1868              		.section	.text.u8g2_m_50_30_1,"ax",%progbits
 1869              		.align	1
 1870              		.global	u8g2_m_50_30_1
 1871              		.thumb
 1872              		.thumb_func
 1873              		.type	u8g2_m_50_30_1, %function
 1874              	u8g2_m_50_30_1:
 1875              	.LFB66:
 732:..\..\..\u8g2\u8g2\csrc/u8g2_d_memory.c **** uint8_t *u8g2_m_50_30_1(uint8_t *page_cnt)
 733:..\..\..\u8g2\u8g2\csrc/u8g2_d_memory.c **** {
 1876              		.loc 1 733 0
 1877              		.cfi_startproc
 1878              		@ args = 0, pretend = 0, frame = 0
 1879              		@ frame_needed = 0, uses_anonymous_args = 0
 1880              		@ link register save eliminated.
 1881              	.LVL132:
 734:..\..\..\u8g2\u8g2\csrc/u8g2_d_memory.c ****   #ifdef U8G2_USE_DYNAMIC_ALLOC
 735:..\..\..\u8g2\u8g2\csrc/u8g2_d_memory.c ****   *page_cnt = 1;
 736:..\..\..\u8g2\u8g2\csrc/u8g2_d_memory.c ****   return 0;
 737:..\..\..\u8g2\u8g2\csrc/u8g2_d_memory.c ****   #else
 738:..\..\..\u8g2\u8g2\csrc/u8g2_d_memory.c ****   static uint8_t buf[400];
 739:..\..\..\u8g2\u8g2\csrc/u8g2_d_memory.c ****   *page_cnt = 1;
 1882              		.loc 1 739 0
 1883 0000 0123     		movs	r3, #1
ARM GAS  C:\Users\jesse\AppData\Local\Temp\ccuy2FXa.s 			page 47


 1884 0002 0370     		strb	r3, [r0]
 740:..\..\..\u8g2\u8g2\csrc/u8g2_d_memory.c ****   return buf;
 741:..\..\..\u8g2\u8g2\csrc/u8g2_d_memory.c ****   #endif
 742:..\..\..\u8g2\u8g2\csrc/u8g2_d_memory.c **** }
 1885              		.loc 1 742 0
 1886 0004 0048     		ldr	r0, .L200
 1887              	.LVL133:
 1888 0006 7047     		bx	lr
 1889              	.L201:
 1890              		.align	2
 1891              	.L200:
 1892 0008 90940000 		.word	.LANCHOR8+3280
 1893              		.cfi_endproc
 1894              	.LFE66:
 1895              		.size	u8g2_m_50_30_1, .-u8g2_m_50_30_1
 1896              		.section	.text.u8g2_m_50_30_2,"ax",%progbits
 1897              		.align	1
 1898              		.global	u8g2_m_50_30_2
 1899              		.thumb
 1900              		.thumb_func
 1901              		.type	u8g2_m_50_30_2, %function
 1902              	u8g2_m_50_30_2:
 1903              	.LFB67:
 743:..\..\..\u8g2\u8g2\csrc/u8g2_d_memory.c **** uint8_t *u8g2_m_50_30_2(uint8_t *page_cnt)
 744:..\..\..\u8g2\u8g2\csrc/u8g2_d_memory.c **** {
 1904              		.loc 1 744 0
 1905              		.cfi_startproc
 1906              		@ args = 0, pretend = 0, frame = 0
 1907              		@ frame_needed = 0, uses_anonymous_args = 0
 1908              		@ link register save eliminated.
 1909              	.LVL134:
 745:..\..\..\u8g2\u8g2\csrc/u8g2_d_memory.c ****   #ifdef U8G2_USE_DYNAMIC_ALLOC
 746:..\..\..\u8g2\u8g2\csrc/u8g2_d_memory.c ****   *page_cnt = 2;
 747:..\..\..\u8g2\u8g2\csrc/u8g2_d_memory.c ****   return 0;
 748:..\..\..\u8g2\u8g2\csrc/u8g2_d_memory.c ****   #else
 749:..\..\..\u8g2\u8g2\csrc/u8g2_d_memory.c ****   static uint8_t buf[800];
 750:..\..\..\u8g2\u8g2\csrc/u8g2_d_memory.c ****   *page_cnt = 2;
 1910              		.loc 1 750 0
 1911 0000 0223     		movs	r3, #2
 1912 0002 0370     		strb	r3, [r0]
 751:..\..\..\u8g2\u8g2\csrc/u8g2_d_memory.c ****   return buf;
 752:..\..\..\u8g2\u8g2\csrc/u8g2_d_memory.c ****   #endif
 753:..\..\..\u8g2\u8g2\csrc/u8g2_d_memory.c **** }
 1913              		.loc 1 753 0
 1914 0004 0048     		ldr	r0, .L203
 1915              	.LVL135:
 1916 0006 7047     		bx	lr
 1917              	.L204:
 1918              		.align	2
 1919              	.L203:
 1920 0008 20960000 		.word	.LANCHOR8+3680
 1921              		.cfi_endproc
 1922              	.LFE67:
 1923              		.size	u8g2_m_50_30_2, .-u8g2_m_50_30_2
 1924              		.section	.text.u8g2_m_50_30_f,"ax",%progbits
 1925              		.align	1
 1926              		.global	u8g2_m_50_30_f
ARM GAS  C:\Users\jesse\AppData\Local\Temp\ccuy2FXa.s 			page 48


 1927              		.thumb
 1928              		.thumb_func
 1929              		.type	u8g2_m_50_30_f, %function
 1930              	u8g2_m_50_30_f:
 1931              	.LFB68:
 754:..\..\..\u8g2\u8g2\csrc/u8g2_d_memory.c **** uint8_t *u8g2_m_50_30_f(uint8_t *page_cnt)
 755:..\..\..\u8g2\u8g2\csrc/u8g2_d_memory.c **** {
 1932              		.loc 1 755 0
 1933              		.cfi_startproc
 1934              		@ args = 0, pretend = 0, frame = 0
 1935              		@ frame_needed = 0, uses_anonymous_args = 0
 1936              		@ link register save eliminated.
 1937              	.LVL136:
 756:..\..\..\u8g2\u8g2\csrc/u8g2_d_memory.c ****   #ifdef U8G2_USE_DYNAMIC_ALLOC
 757:..\..\..\u8g2\u8g2\csrc/u8g2_d_memory.c ****   *page_cnt = 30;
 758:..\..\..\u8g2\u8g2\csrc/u8g2_d_memory.c ****   return 0;
 759:..\..\..\u8g2\u8g2\csrc/u8g2_d_memory.c ****   #else
 760:..\..\..\u8g2\u8g2\csrc/u8g2_d_memory.c ****   static uint8_t buf[12000];
 761:..\..\..\u8g2\u8g2\csrc/u8g2_d_memory.c ****   *page_cnt = 30;
 1938              		.loc 1 761 0
 1939 0000 1E23     		movs	r3, #30
 1940 0002 0370     		strb	r3, [r0]
 762:..\..\..\u8g2\u8g2\csrc/u8g2_d_memory.c ****   return buf;
 763:..\..\..\u8g2\u8g2\csrc/u8g2_d_memory.c ****   #endif
 764:..\..\..\u8g2\u8g2\csrc/u8g2_d_memory.c **** }
 1941              		.loc 1 764 0
 1942 0004 0048     		ldr	r0, .L206
 1943              	.LVL137:
 1944 0006 7047     		bx	lr
 1945              	.L207:
 1946              		.align	2
 1947              	.L206:
 1948 0008 40990000 		.word	.LANCHOR9+136
 1949              		.cfi_endproc
 1950              	.LFE68:
 1951              		.size	u8g2_m_50_30_f, .-u8g2_m_50_30_f
 1952              		.section	.text.u8g2_m_18_21_1,"ax",%progbits
 1953              		.align	1
 1954              		.global	u8g2_m_18_21_1
 1955              		.thumb
 1956              		.thumb_func
 1957              		.type	u8g2_m_18_21_1, %function
 1958              	u8g2_m_18_21_1:
 1959              	.LFB69:
 765:..\..\..\u8g2\u8g2\csrc/u8g2_d_memory.c **** uint8_t *u8g2_m_18_21_1(uint8_t *page_cnt)
 766:..\..\..\u8g2\u8g2\csrc/u8g2_d_memory.c **** {
 1960              		.loc 1 766 0
 1961              		.cfi_startproc
 1962              		@ args = 0, pretend = 0, frame = 0
 1963              		@ frame_needed = 0, uses_anonymous_args = 0
 1964              		@ link register save eliminated.
 1965              	.LVL138:
 767:..\..\..\u8g2\u8g2\csrc/u8g2_d_memory.c ****   #ifdef U8G2_USE_DYNAMIC_ALLOC
 768:..\..\..\u8g2\u8g2\csrc/u8g2_d_memory.c ****   *page_cnt = 1;
 769:..\..\..\u8g2\u8g2\csrc/u8g2_d_memory.c ****   return 0;
 770:..\..\..\u8g2\u8g2\csrc/u8g2_d_memory.c ****   #else
 771:..\..\..\u8g2\u8g2\csrc/u8g2_d_memory.c ****   static uint8_t buf[144];
ARM GAS  C:\Users\jesse\AppData\Local\Temp\ccuy2FXa.s 			page 49


 772:..\..\..\u8g2\u8g2\csrc/u8g2_d_memory.c ****   *page_cnt = 1;
 1966              		.loc 1 772 0
 1967 0000 0123     		movs	r3, #1
 1968 0002 0370     		strb	r3, [r0]
 773:..\..\..\u8g2\u8g2\csrc/u8g2_d_memory.c ****   return buf;
 774:..\..\..\u8g2\u8g2\csrc/u8g2_d_memory.c ****   #endif
 775:..\..\..\u8g2\u8g2\csrc/u8g2_d_memory.c **** }
 1969              		.loc 1 775 0
 1970 0004 0048     		ldr	r0, .L209
 1971              	.LVL139:
 1972 0006 7047     		bx	lr
 1973              	.L210:
 1974              		.align	2
 1975              	.L209:
 1976 0008 20C80000 		.word	.LANCHOR10+3448
 1977              		.cfi_endproc
 1978              	.LFE69:
 1979              		.size	u8g2_m_18_21_1, .-u8g2_m_18_21_1
 1980              		.section	.text.u8g2_m_18_21_2,"ax",%progbits
 1981              		.align	1
 1982              		.global	u8g2_m_18_21_2
 1983              		.thumb
 1984              		.thumb_func
 1985              		.type	u8g2_m_18_21_2, %function
 1986              	u8g2_m_18_21_2:
 1987              	.LFB70:
 776:..\..\..\u8g2\u8g2\csrc/u8g2_d_memory.c **** uint8_t *u8g2_m_18_21_2(uint8_t *page_cnt)
 777:..\..\..\u8g2\u8g2\csrc/u8g2_d_memory.c **** {
 1988              		.loc 1 777 0
 1989              		.cfi_startproc
 1990              		@ args = 0, pretend = 0, frame = 0
 1991              		@ frame_needed = 0, uses_anonymous_args = 0
 1992              		@ link register save eliminated.
 1993              	.LVL140:
 778:..\..\..\u8g2\u8g2\csrc/u8g2_d_memory.c ****   #ifdef U8G2_USE_DYNAMIC_ALLOC
 779:..\..\..\u8g2\u8g2\csrc/u8g2_d_memory.c ****   *page_cnt = 2;
 780:..\..\..\u8g2\u8g2\csrc/u8g2_d_memory.c ****   return 0;
 781:..\..\..\u8g2\u8g2\csrc/u8g2_d_memory.c ****   #else
 782:..\..\..\u8g2\u8g2\csrc/u8g2_d_memory.c ****   static uint8_t buf[288];
 783:..\..\..\u8g2\u8g2\csrc/u8g2_d_memory.c ****   *page_cnt = 2;
 1994              		.loc 1 783 0
 1995 0000 0223     		movs	r3, #2
 1996 0002 0370     		strb	r3, [r0]
 784:..\..\..\u8g2\u8g2\csrc/u8g2_d_memory.c ****   return buf;
 785:..\..\..\u8g2\u8g2\csrc/u8g2_d_memory.c ****   #endif
 786:..\..\..\u8g2\u8g2\csrc/u8g2_d_memory.c **** }
 1997              		.loc 1 786 0
 1998 0004 0048     		ldr	r0, .L212
 1999              	.LVL141:
 2000 0006 7047     		bx	lr
 2001              	.L213:
 2002              		.align	2
 2003              	.L212:
 2004 0008 B0C80000 		.word	.LANCHOR10+3592
 2005              		.cfi_endproc
 2006              	.LFE70:
 2007              		.size	u8g2_m_18_21_2, .-u8g2_m_18_21_2
ARM GAS  C:\Users\jesse\AppData\Local\Temp\ccuy2FXa.s 			page 50


 2008              		.section	.text.u8g2_m_18_21_f,"ax",%progbits
 2009              		.align	1
 2010              		.global	u8g2_m_18_21_f
 2011              		.thumb
 2012              		.thumb_func
 2013              		.type	u8g2_m_18_21_f, %function
 2014              	u8g2_m_18_21_f:
 2015              	.LFB71:
 787:..\..\..\u8g2\u8g2\csrc/u8g2_d_memory.c **** uint8_t *u8g2_m_18_21_f(uint8_t *page_cnt)
 788:..\..\..\u8g2\u8g2\csrc/u8g2_d_memory.c **** {
 2016              		.loc 1 788 0
 2017              		.cfi_startproc
 2018              		@ args = 0, pretend = 0, frame = 0
 2019              		@ frame_needed = 0, uses_anonymous_args = 0
 2020              		@ link register save eliminated.
 2021              	.LVL142:
 789:..\..\..\u8g2\u8g2\csrc/u8g2_d_memory.c ****   #ifdef U8G2_USE_DYNAMIC_ALLOC
 790:..\..\..\u8g2\u8g2\csrc/u8g2_d_memory.c ****   *page_cnt = 21;
 791:..\..\..\u8g2\u8g2\csrc/u8g2_d_memory.c ****   return 0;
 792:..\..\..\u8g2\u8g2\csrc/u8g2_d_memory.c ****   #else
 793:..\..\..\u8g2\u8g2\csrc/u8g2_d_memory.c ****   static uint8_t buf[3024];
 794:..\..\..\u8g2\u8g2\csrc/u8g2_d_memory.c ****   *page_cnt = 21;
 2022              		.loc 1 794 0
 2023 0000 1523     		movs	r3, #21
 2024 0002 0370     		strb	r3, [r0]
 795:..\..\..\u8g2\u8g2\csrc/u8g2_d_memory.c ****   return buf;
 796:..\..\..\u8g2\u8g2\csrc/u8g2_d_memory.c ****   #endif
 797:..\..\..\u8g2\u8g2\csrc/u8g2_d_memory.c **** }
 2025              		.loc 1 797 0
 2026 0004 0048     		ldr	r0, .L215
 2027              	.LVL143:
 2028 0006 7047     		bx	lr
 2029              	.L216:
 2030              		.align	2
 2031              	.L215:
 2032 0008 D0C90000 		.word	.LANCHOR10+3880
 2033              		.cfi_endproc
 2034              	.LFE71:
 2035              		.size	u8g2_m_18_21_f, .-u8g2_m_18_21_f
 2036              		.section	.text.u8g2_m_11_6_1,"ax",%progbits
 2037              		.align	1
 2038              		.global	u8g2_m_11_6_1
 2039              		.thumb
 2040              		.thumb_func
 2041              		.type	u8g2_m_11_6_1, %function
 2042              	u8g2_m_11_6_1:
 2043              	.LFB72:
 798:..\..\..\u8g2\u8g2\csrc/u8g2_d_memory.c **** uint8_t *u8g2_m_11_6_1(uint8_t *page_cnt)
 799:..\..\..\u8g2\u8g2\csrc/u8g2_d_memory.c **** {
 2044              		.loc 1 799 0
 2045              		.cfi_startproc
 2046              		@ args = 0, pretend = 0, frame = 0
 2047              		@ frame_needed = 0, uses_anonymous_args = 0
 2048              		@ link register save eliminated.
 2049              	.LVL144:
 800:..\..\..\u8g2\u8g2\csrc/u8g2_d_memory.c ****   #ifdef U8G2_USE_DYNAMIC_ALLOC
 801:..\..\..\u8g2\u8g2\csrc/u8g2_d_memory.c ****   *page_cnt = 1;
ARM GAS  C:\Users\jesse\AppData\Local\Temp\ccuy2FXa.s 			page 51


 802:..\..\..\u8g2\u8g2\csrc/u8g2_d_memory.c ****   return 0;
 803:..\..\..\u8g2\u8g2\csrc/u8g2_d_memory.c ****   #else
 804:..\..\..\u8g2\u8g2\csrc/u8g2_d_memory.c ****   static uint8_t buf[88];
 805:..\..\..\u8g2\u8g2\csrc/u8g2_d_memory.c ****   *page_cnt = 1;
 2050              		.loc 1 805 0
 2051 0000 0123     		movs	r3, #1
 2052 0002 0370     		strb	r3, [r0]
 806:..\..\..\u8g2\u8g2\csrc/u8g2_d_memory.c ****   return buf;
 807:..\..\..\u8g2\u8g2\csrc/u8g2_d_memory.c ****   #endif
 808:..\..\..\u8g2\u8g2\csrc/u8g2_d_memory.c **** }
 2053              		.loc 1 808 0
 2054 0004 0048     		ldr	r0, .L218
 2055              	.LVL145:
 2056 0006 7047     		bx	lr
 2057              	.L219:
 2058              		.align	2
 2059              	.L218:
 2060 0008 A0D50000 		.word	.LANCHOR11+2560
 2061              		.cfi_endproc
 2062              	.LFE72:
 2063              		.size	u8g2_m_11_6_1, .-u8g2_m_11_6_1
 2064              		.section	.text.u8g2_m_11_6_2,"ax",%progbits
 2065              		.align	1
 2066              		.global	u8g2_m_11_6_2
 2067              		.thumb
 2068              		.thumb_func
 2069              		.type	u8g2_m_11_6_2, %function
 2070              	u8g2_m_11_6_2:
 2071              	.LFB73:
 809:..\..\..\u8g2\u8g2\csrc/u8g2_d_memory.c **** uint8_t *u8g2_m_11_6_2(uint8_t *page_cnt)
 810:..\..\..\u8g2\u8g2\csrc/u8g2_d_memory.c **** {
 2072              		.loc 1 810 0
 2073              		.cfi_startproc
 2074              		@ args = 0, pretend = 0, frame = 0
 2075              		@ frame_needed = 0, uses_anonymous_args = 0
 2076              		@ link register save eliminated.
 2077              	.LVL146:
 811:..\..\..\u8g2\u8g2\csrc/u8g2_d_memory.c ****   #ifdef U8G2_USE_DYNAMIC_ALLOC
 812:..\..\..\u8g2\u8g2\csrc/u8g2_d_memory.c ****   *page_cnt = 2;
 813:..\..\..\u8g2\u8g2\csrc/u8g2_d_memory.c ****   return 0;
 814:..\..\..\u8g2\u8g2\csrc/u8g2_d_memory.c ****   #else
 815:..\..\..\u8g2\u8g2\csrc/u8g2_d_memory.c ****   static uint8_t buf[176];
 816:..\..\..\u8g2\u8g2\csrc/u8g2_d_memory.c ****   *page_cnt = 2;
 2078              		.loc 1 816 0
 2079 0000 0223     		movs	r3, #2
 2080 0002 0370     		strb	r3, [r0]
 817:..\..\..\u8g2\u8g2\csrc/u8g2_d_memory.c ****   return buf;
 818:..\..\..\u8g2\u8g2\csrc/u8g2_d_memory.c ****   #endif
 819:..\..\..\u8g2\u8g2\csrc/u8g2_d_memory.c **** }
 2081              		.loc 1 819 0
 2082 0004 0048     		ldr	r0, .L221
 2083              	.LVL147:
 2084 0006 7047     		bx	lr
 2085              	.L222:
 2086              		.align	2
 2087              	.L221:
 2088 0008 F8D50000 		.word	.LANCHOR11+2648
ARM GAS  C:\Users\jesse\AppData\Local\Temp\ccuy2FXa.s 			page 52


 2089              		.cfi_endproc
 2090              	.LFE73:
 2091              		.size	u8g2_m_11_6_2, .-u8g2_m_11_6_2
 2092              		.section	.text.u8g2_m_11_6_f,"ax",%progbits
 2093              		.align	1
 2094              		.global	u8g2_m_11_6_f
 2095              		.thumb
 2096              		.thumb_func
 2097              		.type	u8g2_m_11_6_f, %function
 2098              	u8g2_m_11_6_f:
 2099              	.LFB74:
 820:..\..\..\u8g2\u8g2\csrc/u8g2_d_memory.c **** uint8_t *u8g2_m_11_6_f(uint8_t *page_cnt)
 821:..\..\..\u8g2\u8g2\csrc/u8g2_d_memory.c **** {
 2100              		.loc 1 821 0
 2101              		.cfi_startproc
 2102              		@ args = 0, pretend = 0, frame = 0
 2103              		@ frame_needed = 0, uses_anonymous_args = 0
 2104              		@ link register save eliminated.
 2105              	.LVL148:
 822:..\..\..\u8g2\u8g2\csrc/u8g2_d_memory.c ****   #ifdef U8G2_USE_DYNAMIC_ALLOC
 823:..\..\..\u8g2\u8g2\csrc/u8g2_d_memory.c ****   *page_cnt = 6;
 824:..\..\..\u8g2\u8g2\csrc/u8g2_d_memory.c ****   return 0;
 825:..\..\..\u8g2\u8g2\csrc/u8g2_d_memory.c ****   #else
 826:..\..\..\u8g2\u8g2\csrc/u8g2_d_memory.c ****   static uint8_t buf[528];
 827:..\..\..\u8g2\u8g2\csrc/u8g2_d_memory.c ****   *page_cnt = 6;
 2106              		.loc 1 827 0
 2107 0000 0623     		movs	r3, #6
 2108 0002 0370     		strb	r3, [r0]
 828:..\..\..\u8g2\u8g2\csrc/u8g2_d_memory.c ****   return buf;
 829:..\..\..\u8g2\u8g2\csrc/u8g2_d_memory.c ****   #endif
 830:..\..\..\u8g2\u8g2\csrc/u8g2_d_memory.c **** }
 2109              		.loc 1 830 0
 2110 0004 0048     		ldr	r0, .L224
 2111              	.LVL149:
 2112 0006 7047     		bx	lr
 2113              	.L225:
 2114              		.align	2
 2115              	.L224:
 2116 0008 A8D60000 		.word	.LANCHOR11+2824
 2117              		.cfi_endproc
 2118              	.LFE74:
 2119              		.size	u8g2_m_11_6_f, .-u8g2_m_11_6_f
 2120              		.section	.text.u8g2_m_12_9_1,"ax",%progbits
 2121              		.align	1
 2122              		.global	u8g2_m_12_9_1
 2123              		.thumb
 2124              		.thumb_func
 2125              		.type	u8g2_m_12_9_1, %function
 2126              	u8g2_m_12_9_1:
 2127              	.LFB75:
 831:..\..\..\u8g2\u8g2\csrc/u8g2_d_memory.c **** uint8_t *u8g2_m_12_9_1(uint8_t *page_cnt)
 832:..\..\..\u8g2\u8g2\csrc/u8g2_d_memory.c **** {
 2128              		.loc 1 832 0
 2129              		.cfi_startproc
 2130              		@ args = 0, pretend = 0, frame = 0
 2131              		@ frame_needed = 0, uses_anonymous_args = 0
 2132              		@ link register save eliminated.
ARM GAS  C:\Users\jesse\AppData\Local\Temp\ccuy2FXa.s 			page 53


 2133              	.LVL150:
 833:..\..\..\u8g2\u8g2\csrc/u8g2_d_memory.c ****   #ifdef U8G2_USE_DYNAMIC_ALLOC
 834:..\..\..\u8g2\u8g2\csrc/u8g2_d_memory.c ****   *page_cnt = 1;
 835:..\..\..\u8g2\u8g2\csrc/u8g2_d_memory.c ****   return 0;
 836:..\..\..\u8g2\u8g2\csrc/u8g2_d_memory.c ****   #else
 837:..\..\..\u8g2\u8g2\csrc/u8g2_d_memory.c ****   static uint8_t buf[96];
 838:..\..\..\u8g2\u8g2\csrc/u8g2_d_memory.c ****   *page_cnt = 1;
 2134              		.loc 1 838 0
 2135 0000 0123     		movs	r3, #1
 2136 0002 0370     		strb	r3, [r0]
 839:..\..\..\u8g2\u8g2\csrc/u8g2_d_memory.c ****   return buf;
 840:..\..\..\u8g2\u8g2\csrc/u8g2_d_memory.c ****   #endif
 841:..\..\..\u8g2\u8g2\csrc/u8g2_d_memory.c **** }
 2137              		.loc 1 841 0
 2138 0004 0048     		ldr	r0, .L227
 2139              	.LVL151:
 2140 0006 7047     		bx	lr
 2141              	.L228:
 2142              		.align	2
 2143              	.L227:
 2144 0008 B8D80000 		.word	.LANCHOR11+3352
 2145              		.cfi_endproc
 2146              	.LFE75:
 2147              		.size	u8g2_m_12_9_1, .-u8g2_m_12_9_1
 2148              		.section	.text.u8g2_m_12_9_2,"ax",%progbits
 2149              		.align	1
 2150              		.global	u8g2_m_12_9_2
 2151              		.thumb
 2152              		.thumb_func
 2153              		.type	u8g2_m_12_9_2, %function
 2154              	u8g2_m_12_9_2:
 2155              	.LFB76:
 842:..\..\..\u8g2\u8g2\csrc/u8g2_d_memory.c **** uint8_t *u8g2_m_12_9_2(uint8_t *page_cnt)
 843:..\..\..\u8g2\u8g2\csrc/u8g2_d_memory.c **** {
 2156              		.loc 1 843 0
 2157              		.cfi_startproc
 2158              		@ args = 0, pretend = 0, frame = 0
 2159              		@ frame_needed = 0, uses_anonymous_args = 0
 2160              		@ link register save eliminated.
 2161              	.LVL152:
 844:..\..\..\u8g2\u8g2\csrc/u8g2_d_memory.c ****   #ifdef U8G2_USE_DYNAMIC_ALLOC
 845:..\..\..\u8g2\u8g2\csrc/u8g2_d_memory.c ****   *page_cnt = 2;
 846:..\..\..\u8g2\u8g2\csrc/u8g2_d_memory.c ****   return 0;
 847:..\..\..\u8g2\u8g2\csrc/u8g2_d_memory.c ****   #else
 848:..\..\..\u8g2\u8g2\csrc/u8g2_d_memory.c ****   static uint8_t buf[192];
 849:..\..\..\u8g2\u8g2\csrc/u8g2_d_memory.c ****   *page_cnt = 2;
 2162              		.loc 1 849 0
 2163 0000 0223     		movs	r3, #2
 2164 0002 0370     		strb	r3, [r0]
 850:..\..\..\u8g2\u8g2\csrc/u8g2_d_memory.c ****   return buf;
 851:..\..\..\u8g2\u8g2\csrc/u8g2_d_memory.c ****   #endif
 852:..\..\..\u8g2\u8g2\csrc/u8g2_d_memory.c **** }
 2165              		.loc 1 852 0
 2166 0004 0048     		ldr	r0, .L230
 2167              	.LVL153:
 2168 0006 7047     		bx	lr
 2169              	.L231:
ARM GAS  C:\Users\jesse\AppData\Local\Temp\ccuy2FXa.s 			page 54


 2170              		.align	2
 2171              	.L230:
 2172 0008 18D90000 		.word	.LANCHOR11+3448
 2173              		.cfi_endproc
 2174              	.LFE76:
 2175              		.size	u8g2_m_12_9_2, .-u8g2_m_12_9_2
 2176              		.section	.text.u8g2_m_12_9_f,"ax",%progbits
 2177              		.align	1
 2178              		.global	u8g2_m_12_9_f
 2179              		.thumb
 2180              		.thumb_func
 2181              		.type	u8g2_m_12_9_f, %function
 2182              	u8g2_m_12_9_f:
 2183              	.LFB77:
 853:..\..\..\u8g2\u8g2\csrc/u8g2_d_memory.c **** uint8_t *u8g2_m_12_9_f(uint8_t *page_cnt)
 854:..\..\..\u8g2\u8g2\csrc/u8g2_d_memory.c **** {
 2184              		.loc 1 854 0
 2185              		.cfi_startproc
 2186              		@ args = 0, pretend = 0, frame = 0
 2187              		@ frame_needed = 0, uses_anonymous_args = 0
 2188              		@ link register save eliminated.
 2189              	.LVL154:
 855:..\..\..\u8g2\u8g2\csrc/u8g2_d_memory.c ****   #ifdef U8G2_USE_DYNAMIC_ALLOC
 856:..\..\..\u8g2\u8g2\csrc/u8g2_d_memory.c ****   *page_cnt = 9;
 857:..\..\..\u8g2\u8g2\csrc/u8g2_d_memory.c ****   return 0;
 858:..\..\..\u8g2\u8g2\csrc/u8g2_d_memory.c ****   #else
 859:..\..\..\u8g2\u8g2\csrc/u8g2_d_memory.c ****   static uint8_t buf[864];
 860:..\..\..\u8g2\u8g2\csrc/u8g2_d_memory.c ****   *page_cnt = 9;
 2190              		.loc 1 860 0
 2191 0000 0923     		movs	r3, #9
 2192 0002 0370     		strb	r3, [r0]
 861:..\..\..\u8g2\u8g2\csrc/u8g2_d_memory.c ****   return buf;
 862:..\..\..\u8g2\u8g2\csrc/u8g2_d_memory.c ****   #endif
 863:..\..\..\u8g2\u8g2\csrc/u8g2_d_memory.c **** }
 2193              		.loc 1 863 0
 2194 0004 0048     		ldr	r0, .L233
 2195              	.LVL155:
 2196 0006 7047     		bx	lr
 2197              	.L234:
 2198              		.align	2
 2199              	.L233:
 2200 0008 D8D90000 		.word	.LANCHOR11+3640
 2201              		.cfi_endproc
 2202              	.LFE77:
 2203              		.size	u8g2_m_12_9_f, .-u8g2_m_12_9_f
 2204              		.section	.text.u8g2_m_24_8_1,"ax",%progbits
 2205              		.align	1
 2206              		.global	u8g2_m_24_8_1
 2207              		.thumb
 2208              		.thumb_func
 2209              		.type	u8g2_m_24_8_1, %function
 2210              	u8g2_m_24_8_1:
 2211              	.LFB78:
 864:..\..\..\u8g2\u8g2\csrc/u8g2_d_memory.c **** uint8_t *u8g2_m_24_8_1(uint8_t *page_cnt)
 865:..\..\..\u8g2\u8g2\csrc/u8g2_d_memory.c **** {
 2212              		.loc 1 865 0
 2213              		.cfi_startproc
ARM GAS  C:\Users\jesse\AppData\Local\Temp\ccuy2FXa.s 			page 55


 2214              		@ args = 0, pretend = 0, frame = 0
 2215              		@ frame_needed = 0, uses_anonymous_args = 0
 2216              		@ link register save eliminated.
 2217              	.LVL156:
 866:..\..\..\u8g2\u8g2\csrc/u8g2_d_memory.c ****   #ifdef U8G2_USE_DYNAMIC_ALLOC
 867:..\..\..\u8g2\u8g2\csrc/u8g2_d_memory.c ****   *page_cnt = 1;
 868:..\..\..\u8g2\u8g2\csrc/u8g2_d_memory.c ****   return 0;
 869:..\..\..\u8g2\u8g2\csrc/u8g2_d_memory.c ****   #else
 870:..\..\..\u8g2\u8g2\csrc/u8g2_d_memory.c ****   static uint8_t buf[192];
 871:..\..\..\u8g2\u8g2\csrc/u8g2_d_memory.c ****   *page_cnt = 1;
 2218              		.loc 1 871 0
 2219 0000 0123     		movs	r3, #1
 2220 0002 0370     		strb	r3, [r0]
 872:..\..\..\u8g2\u8g2\csrc/u8g2_d_memory.c ****   return buf;
 873:..\..\..\u8g2\u8g2\csrc/u8g2_d_memory.c ****   #endif
 874:..\..\..\u8g2\u8g2\csrc/u8g2_d_memory.c **** }
 2221              		.loc 1 874 0
 2222 0004 0048     		ldr	r0, .L236
 2223              	.LVL157:
 2224 0006 7047     		bx	lr
 2225              	.L237:
 2226              		.align	2
 2227              	.L236:
 2228 0008 38DD0000 		.word	.LANCHOR12+160
 2229              		.cfi_endproc
 2230              	.LFE78:
 2231              		.size	u8g2_m_24_8_1, .-u8g2_m_24_8_1
 2232              		.section	.text.u8g2_m_24_8_2,"ax",%progbits
 2233              		.align	1
 2234              		.global	u8g2_m_24_8_2
 2235              		.thumb
 2236              		.thumb_func
 2237              		.type	u8g2_m_24_8_2, %function
 2238              	u8g2_m_24_8_2:
 2239              	.LFB79:
 875:..\..\..\u8g2\u8g2\csrc/u8g2_d_memory.c **** uint8_t *u8g2_m_24_8_2(uint8_t *page_cnt)
 876:..\..\..\u8g2\u8g2\csrc/u8g2_d_memory.c **** {
 2240              		.loc 1 876 0
 2241              		.cfi_startproc
 2242              		@ args = 0, pretend = 0, frame = 0
 2243              		@ frame_needed = 0, uses_anonymous_args = 0
 2244              		@ link register save eliminated.
 2245              	.LVL158:
 877:..\..\..\u8g2\u8g2\csrc/u8g2_d_memory.c ****   #ifdef U8G2_USE_DYNAMIC_ALLOC
 878:..\..\..\u8g2\u8g2\csrc/u8g2_d_memory.c ****   *page_cnt = 2;
 879:..\..\..\u8g2\u8g2\csrc/u8g2_d_memory.c ****   return 0;
 880:..\..\..\u8g2\u8g2\csrc/u8g2_d_memory.c ****   #else
 881:..\..\..\u8g2\u8g2\csrc/u8g2_d_memory.c ****   static uint8_t buf[384];
 882:..\..\..\u8g2\u8g2\csrc/u8g2_d_memory.c ****   *page_cnt = 2;
 2246              		.loc 1 882 0
 2247 0000 0223     		movs	r3, #2
 2248 0002 0370     		strb	r3, [r0]
 883:..\..\..\u8g2\u8g2\csrc/u8g2_d_memory.c ****   return buf;
 884:..\..\..\u8g2\u8g2\csrc/u8g2_d_memory.c ****   #endif
 885:..\..\..\u8g2\u8g2\csrc/u8g2_d_memory.c **** }
 2249              		.loc 1 885 0
 2250 0004 0048     		ldr	r0, .L239
ARM GAS  C:\Users\jesse\AppData\Local\Temp\ccuy2FXa.s 			page 56


 2251              	.LVL159:
 2252 0006 7047     		bx	lr
 2253              	.L240:
 2254              		.align	2
 2255              	.L239:
 2256 0008 F8DD0000 		.word	.LANCHOR12+352
 2257              		.cfi_endproc
 2258              	.LFE79:
 2259              		.size	u8g2_m_24_8_2, .-u8g2_m_24_8_2
 2260              		.section	.text.u8g2_m_24_8_f,"ax",%progbits
 2261              		.align	1
 2262              		.global	u8g2_m_24_8_f
 2263              		.thumb
 2264              		.thumb_func
 2265              		.type	u8g2_m_24_8_f, %function
 2266              	u8g2_m_24_8_f:
 2267              	.LFB80:
 886:..\..\..\u8g2\u8g2\csrc/u8g2_d_memory.c **** uint8_t *u8g2_m_24_8_f(uint8_t *page_cnt)
 887:..\..\..\u8g2\u8g2\csrc/u8g2_d_memory.c **** {
 2268              		.loc 1 887 0
 2269              		.cfi_startproc
 2270              		@ args = 0, pretend = 0, frame = 0
 2271              		@ frame_needed = 0, uses_anonymous_args = 0
 2272              		@ link register save eliminated.
 2273              	.LVL160:
 888:..\..\..\u8g2\u8g2\csrc/u8g2_d_memory.c ****   #ifdef U8G2_USE_DYNAMIC_ALLOC
 889:..\..\..\u8g2\u8g2\csrc/u8g2_d_memory.c ****   *page_cnt = 8;
 890:..\..\..\u8g2\u8g2\csrc/u8g2_d_memory.c ****   return 0;
 891:..\..\..\u8g2\u8g2\csrc/u8g2_d_memory.c ****   #else
 892:..\..\..\u8g2\u8g2\csrc/u8g2_d_memory.c ****   static uint8_t buf[1536];
 893:..\..\..\u8g2\u8g2\csrc/u8g2_d_memory.c ****   *page_cnt = 8;
 2274              		.loc 1 893 0
 2275 0000 0823     		movs	r3, #8
 2276 0002 0370     		strb	r3, [r0]
 894:..\..\..\u8g2\u8g2\csrc/u8g2_d_memory.c ****   return buf;
 895:..\..\..\u8g2\u8g2\csrc/u8g2_d_memory.c ****   #endif
 896:..\..\..\u8g2\u8g2\csrc/u8g2_d_memory.c **** }
 2277              		.loc 1 896 0
 2278 0004 0048     		ldr	r0, .L242
 2279              	.LVL161:
 2280 0006 7047     		bx	lr
 2281              	.L243:
 2282              		.align	2
 2283              	.L242:
 2284 0008 78DF0000 		.word	.LANCHOR12+736
 2285              		.cfi_endproc
 2286              	.LFE80:
 2287              		.size	u8g2_m_24_8_f, .-u8g2_m_24_8_f
 2288              		.section	.text.u8g2_m_30_8_1,"ax",%progbits
 2289              		.align	1
 2290              		.global	u8g2_m_30_8_1
 2291              		.thumb
 2292              		.thumb_func
 2293              		.type	u8g2_m_30_8_1, %function
 2294              	u8g2_m_30_8_1:
 2295              	.LFB81:
 897:..\..\..\u8g2\u8g2\csrc/u8g2_d_memory.c **** uint8_t *u8g2_m_30_8_1(uint8_t *page_cnt)
ARM GAS  C:\Users\jesse\AppData\Local\Temp\ccuy2FXa.s 			page 57


 898:..\..\..\u8g2\u8g2\csrc/u8g2_d_memory.c **** {
 2296              		.loc 1 898 0
 2297              		.cfi_startproc
 2298              		@ args = 0, pretend = 0, frame = 0
 2299              		@ frame_needed = 0, uses_anonymous_args = 0
 2300              		@ link register save eliminated.
 2301              	.LVL162:
 899:..\..\..\u8g2\u8g2\csrc/u8g2_d_memory.c ****   #ifdef U8G2_USE_DYNAMIC_ALLOC
 900:..\..\..\u8g2\u8g2\csrc/u8g2_d_memory.c ****   *page_cnt = 1;
 901:..\..\..\u8g2\u8g2\csrc/u8g2_d_memory.c ****   return 0;
 902:..\..\..\u8g2\u8g2\csrc/u8g2_d_memory.c ****   #else
 903:..\..\..\u8g2\u8g2\csrc/u8g2_d_memory.c ****   static uint8_t buf[240];
 904:..\..\..\u8g2\u8g2\csrc/u8g2_d_memory.c ****   *page_cnt = 1;
 2302              		.loc 1 904 0
 2303 0000 0123     		movs	r3, #1
 2304 0002 0370     		strb	r3, [r0]
 905:..\..\..\u8g2\u8g2\csrc/u8g2_d_memory.c ****   return buf;
 906:..\..\..\u8g2\u8g2\csrc/u8g2_d_memory.c ****   #endif
 907:..\..\..\u8g2\u8g2\csrc/u8g2_d_memory.c **** }
 2305              		.loc 1 907 0
 2306 0004 0048     		ldr	r0, .L245
 2307              	.LVL163:
 2308 0006 7047     		bx	lr
 2309              	.L246:
 2310              		.align	2
 2311              	.L245:
 2312 0008 78E50000 		.word	.LANCHOR12+2272
 2313              		.cfi_endproc
 2314              	.LFE81:
 2315              		.size	u8g2_m_30_8_1, .-u8g2_m_30_8_1
 2316              		.section	.text.u8g2_m_30_8_2,"ax",%progbits
 2317              		.align	1
 2318              		.global	u8g2_m_30_8_2
 2319              		.thumb
 2320              		.thumb_func
 2321              		.type	u8g2_m_30_8_2, %function
 2322              	u8g2_m_30_8_2:
 2323              	.LFB82:
 908:..\..\..\u8g2\u8g2\csrc/u8g2_d_memory.c **** uint8_t *u8g2_m_30_8_2(uint8_t *page_cnt)
 909:..\..\..\u8g2\u8g2\csrc/u8g2_d_memory.c **** {
 2324              		.loc 1 909 0
 2325              		.cfi_startproc
 2326              		@ args = 0, pretend = 0, frame = 0
 2327              		@ frame_needed = 0, uses_anonymous_args = 0
 2328              		@ link register save eliminated.
 2329              	.LVL164:
 910:..\..\..\u8g2\u8g2\csrc/u8g2_d_memory.c ****   #ifdef U8G2_USE_DYNAMIC_ALLOC
 911:..\..\..\u8g2\u8g2\csrc/u8g2_d_memory.c ****   *page_cnt = 2;
 912:..\..\..\u8g2\u8g2\csrc/u8g2_d_memory.c ****   return 0;
 913:..\..\..\u8g2\u8g2\csrc/u8g2_d_memory.c ****   #else
 914:..\..\..\u8g2\u8g2\csrc/u8g2_d_memory.c ****   static uint8_t buf[480];
 915:..\..\..\u8g2\u8g2\csrc/u8g2_d_memory.c ****   *page_cnt = 2;
 2330              		.loc 1 915 0
 2331 0000 0223     		movs	r3, #2
 2332 0002 0370     		strb	r3, [r0]
 916:..\..\..\u8g2\u8g2\csrc/u8g2_d_memory.c ****   return buf;
 917:..\..\..\u8g2\u8g2\csrc/u8g2_d_memory.c ****   #endif
ARM GAS  C:\Users\jesse\AppData\Local\Temp\ccuy2FXa.s 			page 58


 918:..\..\..\u8g2\u8g2\csrc/u8g2_d_memory.c **** }
 2333              		.loc 1 918 0
 2334 0004 0048     		ldr	r0, .L248
 2335              	.LVL165:
 2336 0006 7047     		bx	lr
 2337              	.L249:
 2338              		.align	2
 2339              	.L248:
 2340 0008 68E60000 		.word	.LANCHOR12+2512
 2341              		.cfi_endproc
 2342              	.LFE82:
 2343              		.size	u8g2_m_30_8_2, .-u8g2_m_30_8_2
 2344              		.section	.text.u8g2_m_30_8_f,"ax",%progbits
 2345              		.align	1
 2346              		.global	u8g2_m_30_8_f
 2347              		.thumb
 2348              		.thumb_func
 2349              		.type	u8g2_m_30_8_f, %function
 2350              	u8g2_m_30_8_f:
 2351              	.LFB83:
 919:..\..\..\u8g2\u8g2\csrc/u8g2_d_memory.c **** uint8_t *u8g2_m_30_8_f(uint8_t *page_cnt)
 920:..\..\..\u8g2\u8g2\csrc/u8g2_d_memory.c **** {
 2352              		.loc 1 920 0
 2353              		.cfi_startproc
 2354              		@ args = 0, pretend = 0, frame = 0
 2355              		@ frame_needed = 0, uses_anonymous_args = 0
 2356              		@ link register save eliminated.
 2357              	.LVL166:
 921:..\..\..\u8g2\u8g2\csrc/u8g2_d_memory.c ****   #ifdef U8G2_USE_DYNAMIC_ALLOC
 922:..\..\..\u8g2\u8g2\csrc/u8g2_d_memory.c ****   *page_cnt = 8;
 923:..\..\..\u8g2\u8g2\csrc/u8g2_d_memory.c ****   return 0;
 924:..\..\..\u8g2\u8g2\csrc/u8g2_d_memory.c ****   #else
 925:..\..\..\u8g2\u8g2\csrc/u8g2_d_memory.c ****   static uint8_t buf[1920];
 926:..\..\..\u8g2\u8g2\csrc/u8g2_d_memory.c ****   *page_cnt = 8;
 2358              		.loc 1 926 0
 2359 0000 0823     		movs	r3, #8
 2360 0002 0370     		strb	r3, [r0]
 927:..\..\..\u8g2\u8g2\csrc/u8g2_d_memory.c ****   return buf;
 928:..\..\..\u8g2\u8g2\csrc/u8g2_d_memory.c ****   #endif
 929:..\..\..\u8g2\u8g2\csrc/u8g2_d_memory.c **** }
 2361              		.loc 1 929 0
 2362 0004 0048     		ldr	r0, .L251
 2363              	.LVL167:
 2364 0006 7047     		bx	lr
 2365              	.L252:
 2366              		.align	2
 2367              	.L251:
 2368 0008 48E80000 		.word	.LANCHOR12+2992
 2369              		.cfi_endproc
 2370              	.LFE83:
 2371              		.size	u8g2_m_30_8_f, .-u8g2_m_30_8_f
 2372              		.section	.text.u8g2_m_30_15_1,"ax",%progbits
 2373              		.align	1
 2374              		.global	u8g2_m_30_15_1
 2375              		.thumb
 2376              		.thumb_func
 2377              		.type	u8g2_m_30_15_1, %function
ARM GAS  C:\Users\jesse\AppData\Local\Temp\ccuy2FXa.s 			page 59


 2378              	u8g2_m_30_15_1:
 2379              	.LFB84:
 930:..\..\..\u8g2\u8g2\csrc/u8g2_d_memory.c **** uint8_t *u8g2_m_30_15_1(uint8_t *page_cnt)
 931:..\..\..\u8g2\u8g2\csrc/u8g2_d_memory.c **** {
 2380              		.loc 1 931 0
 2381              		.cfi_startproc
 2382              		@ args = 0, pretend = 0, frame = 0
 2383              		@ frame_needed = 0, uses_anonymous_args = 0
 2384              		@ link register save eliminated.
 2385              	.LVL168:
 932:..\..\..\u8g2\u8g2\csrc/u8g2_d_memory.c ****   #ifdef U8G2_USE_DYNAMIC_ALLOC
 933:..\..\..\u8g2\u8g2\csrc/u8g2_d_memory.c ****   *page_cnt = 1;
 934:..\..\..\u8g2\u8g2\csrc/u8g2_d_memory.c ****   return 0;
 935:..\..\..\u8g2\u8g2\csrc/u8g2_d_memory.c ****   #else
 936:..\..\..\u8g2\u8g2\csrc/u8g2_d_memory.c ****   static uint8_t buf[240];
 937:..\..\..\u8g2\u8g2\csrc/u8g2_d_memory.c ****   *page_cnt = 1;
 2386              		.loc 1 937 0
 2387 0000 0123     		movs	r3, #1
 2388 0002 0370     		strb	r3, [r0]
 938:..\..\..\u8g2\u8g2\csrc/u8g2_d_memory.c ****   return buf;
 939:..\..\..\u8g2\u8g2\csrc/u8g2_d_memory.c ****   #endif
 940:..\..\..\u8g2\u8g2\csrc/u8g2_d_memory.c **** }
 2389              		.loc 1 940 0
 2390 0004 0048     		ldr	r0, .L254
 2391              	.LVL169:
 2392 0006 7047     		bx	lr
 2393              	.L255:
 2394              		.align	2
 2395              	.L254:
 2396 0008 C8EF0000 		.word	.LANCHOR13+568
 2397              		.cfi_endproc
 2398              	.LFE84:
 2399              		.size	u8g2_m_30_15_1, .-u8g2_m_30_15_1
 2400              		.section	.text.u8g2_m_30_15_2,"ax",%progbits
 2401              		.align	1
 2402              		.global	u8g2_m_30_15_2
 2403              		.thumb
 2404              		.thumb_func
 2405              		.type	u8g2_m_30_15_2, %function
 2406              	u8g2_m_30_15_2:
 2407              	.LFB85:
 941:..\..\..\u8g2\u8g2\csrc/u8g2_d_memory.c **** uint8_t *u8g2_m_30_15_2(uint8_t *page_cnt)
 942:..\..\..\u8g2\u8g2\csrc/u8g2_d_memory.c **** {
 2408              		.loc 1 942 0
 2409              		.cfi_startproc
 2410              		@ args = 0, pretend = 0, frame = 0
 2411              		@ frame_needed = 0, uses_anonymous_args = 0
 2412              		@ link register save eliminated.
 2413              	.LVL170:
 943:..\..\..\u8g2\u8g2\csrc/u8g2_d_memory.c ****   #ifdef U8G2_USE_DYNAMIC_ALLOC
 944:..\..\..\u8g2\u8g2\csrc/u8g2_d_memory.c ****   *page_cnt = 2;
 945:..\..\..\u8g2\u8g2\csrc/u8g2_d_memory.c ****   return 0;
 946:..\..\..\u8g2\u8g2\csrc/u8g2_d_memory.c ****   #else
 947:..\..\..\u8g2\u8g2\csrc/u8g2_d_memory.c ****   static uint8_t buf[480];
 948:..\..\..\u8g2\u8g2\csrc/u8g2_d_memory.c ****   *page_cnt = 2;
 2414              		.loc 1 948 0
 2415 0000 0223     		movs	r3, #2
ARM GAS  C:\Users\jesse\AppData\Local\Temp\ccuy2FXa.s 			page 60


 2416 0002 0370     		strb	r3, [r0]
 949:..\..\..\u8g2\u8g2\csrc/u8g2_d_memory.c ****   return buf;
 950:..\..\..\u8g2\u8g2\csrc/u8g2_d_memory.c ****   #endif
 951:..\..\..\u8g2\u8g2\csrc/u8g2_d_memory.c **** }
 2417              		.loc 1 951 0
 2418 0004 0048     		ldr	r0, .L257
 2419              	.LVL171:
 2420 0006 7047     		bx	lr
 2421              	.L258:
 2422              		.align	2
 2423              	.L257:
 2424 0008 B8F00000 		.word	.LANCHOR13+808
 2425              		.cfi_endproc
 2426              	.LFE85:
 2427              		.size	u8g2_m_30_15_2, .-u8g2_m_30_15_2
 2428              		.section	.text.u8g2_m_30_15_f,"ax",%progbits
 2429              		.align	1
 2430              		.global	u8g2_m_30_15_f
 2431              		.thumb
 2432              		.thumb_func
 2433              		.type	u8g2_m_30_15_f, %function
 2434              	u8g2_m_30_15_f:
 2435              	.LFB86:
 952:..\..\..\u8g2\u8g2\csrc/u8g2_d_memory.c **** uint8_t *u8g2_m_30_15_f(uint8_t *page_cnt)
 953:..\..\..\u8g2\u8g2\csrc/u8g2_d_memory.c **** {
 2436              		.loc 1 953 0
 2437              		.cfi_startproc
 2438              		@ args = 0, pretend = 0, frame = 0
 2439              		@ frame_needed = 0, uses_anonymous_args = 0
 2440              		@ link register save eliminated.
 2441              	.LVL172:
 954:..\..\..\u8g2\u8g2\csrc/u8g2_d_memory.c ****   #ifdef U8G2_USE_DYNAMIC_ALLOC
 955:..\..\..\u8g2\u8g2\csrc/u8g2_d_memory.c ****   *page_cnt = 15;
 956:..\..\..\u8g2\u8g2\csrc/u8g2_d_memory.c ****   return 0;
 957:..\..\..\u8g2\u8g2\csrc/u8g2_d_memory.c ****   #else
 958:..\..\..\u8g2\u8g2\csrc/u8g2_d_memory.c ****   static uint8_t buf[3600];
 959:..\..\..\u8g2\u8g2\csrc/u8g2_d_memory.c ****   *page_cnt = 15;
 2442              		.loc 1 959 0
 2443 0000 0F23     		movs	r3, #15
 2444 0002 0370     		strb	r3, [r0]
 960:..\..\..\u8g2\u8g2\csrc/u8g2_d_memory.c ****   return buf;
 961:..\..\..\u8g2\u8g2\csrc/u8g2_d_memory.c ****   #endif
 962:..\..\..\u8g2\u8g2\csrc/u8g2_d_memory.c **** }
 2445              		.loc 1 962 0
 2446 0004 0048     		ldr	r0, .L260
 2447              	.LVL173:
 2448 0006 7047     		bx	lr
 2449              	.L261:
 2450              		.align	2
 2451              	.L260:
 2452 0008 98F20000 		.word	.LANCHOR13+1288
 2453              		.cfi_endproc
 2454              	.LFE86:
 2455              		.size	u8g2_m_30_15_f, .-u8g2_m_30_15_f
 2456              		.section	.text.u8g2_m_30_16_1,"ax",%progbits
 2457              		.align	1
 2458              		.global	u8g2_m_30_16_1
ARM GAS  C:\Users\jesse\AppData\Local\Temp\ccuy2FXa.s 			page 61


 2459              		.thumb
 2460              		.thumb_func
 2461              		.type	u8g2_m_30_16_1, %function
 2462              	u8g2_m_30_16_1:
 2463              	.LFB87:
 963:..\..\..\u8g2\u8g2\csrc/u8g2_d_memory.c **** uint8_t *u8g2_m_30_16_1(uint8_t *page_cnt)
 964:..\..\..\u8g2\u8g2\csrc/u8g2_d_memory.c **** {
 2464              		.loc 1 964 0
 2465              		.cfi_startproc
 2466              		@ args = 0, pretend = 0, frame = 0
 2467              		@ frame_needed = 0, uses_anonymous_args = 0
 2468              		@ link register save eliminated.
 2469              	.LVL174:
 965:..\..\..\u8g2\u8g2\csrc/u8g2_d_memory.c ****   #ifdef U8G2_USE_DYNAMIC_ALLOC
 966:..\..\..\u8g2\u8g2\csrc/u8g2_d_memory.c ****   *page_cnt = 1;
 967:..\..\..\u8g2\u8g2\csrc/u8g2_d_memory.c ****   return 0;
 968:..\..\..\u8g2\u8g2\csrc/u8g2_d_memory.c ****   #else
 969:..\..\..\u8g2\u8g2\csrc/u8g2_d_memory.c ****   static uint8_t buf[240];
 970:..\..\..\u8g2\u8g2\csrc/u8g2_d_memory.c ****   *page_cnt = 1;
 2470              		.loc 1 970 0
 2471 0000 0123     		movs	r3, #1
 2472 0002 0370     		strb	r3, [r0]
 971:..\..\..\u8g2\u8g2\csrc/u8g2_d_memory.c ****   return buf;
 972:..\..\..\u8g2\u8g2\csrc/u8g2_d_memory.c ****   #endif
 973:..\..\..\u8g2\u8g2\csrc/u8g2_d_memory.c **** }
 2473              		.loc 1 973 0
 2474 0004 0048     		ldr	r0, .L263
 2475              	.LVL175:
 2476 0006 7047     		bx	lr
 2477              	.L264:
 2478              		.align	2
 2479              	.L263:
 2480 0008 A8000100 		.word	.LANCHOR14+544
 2481              		.cfi_endproc
 2482              	.LFE87:
 2483              		.size	u8g2_m_30_16_1, .-u8g2_m_30_16_1
 2484              		.section	.text.u8g2_m_30_16_2,"ax",%progbits
 2485              		.align	1
 2486              		.global	u8g2_m_30_16_2
 2487              		.thumb
 2488              		.thumb_func
 2489              		.type	u8g2_m_30_16_2, %function
 2490              	u8g2_m_30_16_2:
 2491              	.LFB88:
 974:..\..\..\u8g2\u8g2\csrc/u8g2_d_memory.c **** uint8_t *u8g2_m_30_16_2(uint8_t *page_cnt)
 975:..\..\..\u8g2\u8g2\csrc/u8g2_d_memory.c **** {
 2492              		.loc 1 975 0
 2493              		.cfi_startproc
 2494              		@ args = 0, pretend = 0, frame = 0
 2495              		@ frame_needed = 0, uses_anonymous_args = 0
 2496              		@ link register save eliminated.
 2497              	.LVL176:
 976:..\..\..\u8g2\u8g2\csrc/u8g2_d_memory.c ****   #ifdef U8G2_USE_DYNAMIC_ALLOC
 977:..\..\..\u8g2\u8g2\csrc/u8g2_d_memory.c ****   *page_cnt = 2;
 978:..\..\..\u8g2\u8g2\csrc/u8g2_d_memory.c ****   return 0;
 979:..\..\..\u8g2\u8g2\csrc/u8g2_d_memory.c ****   #else
 980:..\..\..\u8g2\u8g2\csrc/u8g2_d_memory.c ****   static uint8_t buf[480];
ARM GAS  C:\Users\jesse\AppData\Local\Temp\ccuy2FXa.s 			page 62


 981:..\..\..\u8g2\u8g2\csrc/u8g2_d_memory.c ****   *page_cnt = 2;
 2498              		.loc 1 981 0
 2499 0000 0223     		movs	r3, #2
 2500 0002 0370     		strb	r3, [r0]
 982:..\..\..\u8g2\u8g2\csrc/u8g2_d_memory.c ****   return buf;
 983:..\..\..\u8g2\u8g2\csrc/u8g2_d_memory.c ****   #endif
 984:..\..\..\u8g2\u8g2\csrc/u8g2_d_memory.c **** }
 2501              		.loc 1 984 0
 2502 0004 0048     		ldr	r0, .L266
 2503              	.LVL177:
 2504 0006 7047     		bx	lr
 2505              	.L267:
 2506              		.align	2
 2507              	.L266:
 2508 0008 98010100 		.word	.LANCHOR14+784
 2509              		.cfi_endproc
 2510              	.LFE88:
 2511              		.size	u8g2_m_30_16_2, .-u8g2_m_30_16_2
 2512              		.section	.text.u8g2_m_30_16_f,"ax",%progbits
 2513              		.align	1
 2514              		.global	u8g2_m_30_16_f
 2515              		.thumb
 2516              		.thumb_func
 2517              		.type	u8g2_m_30_16_f, %function
 2518              	u8g2_m_30_16_f:
 2519              	.LFB89:
 985:..\..\..\u8g2\u8g2\csrc/u8g2_d_memory.c **** uint8_t *u8g2_m_30_16_f(uint8_t *page_cnt)
 986:..\..\..\u8g2\u8g2\csrc/u8g2_d_memory.c **** {
 2520              		.loc 1 986 0
 2521              		.cfi_startproc
 2522              		@ args = 0, pretend = 0, frame = 0
 2523              		@ frame_needed = 0, uses_anonymous_args = 0
 2524              		@ link register save eliminated.
 2525              	.LVL178:
 987:..\..\..\u8g2\u8g2\csrc/u8g2_d_memory.c ****   #ifdef U8G2_USE_DYNAMIC_ALLOC
 988:..\..\..\u8g2\u8g2\csrc/u8g2_d_memory.c ****   *page_cnt = 16;
 989:..\..\..\u8g2\u8g2\csrc/u8g2_d_memory.c ****   return 0;
 990:..\..\..\u8g2\u8g2\csrc/u8g2_d_memory.c ****   #else
 991:..\..\..\u8g2\u8g2\csrc/u8g2_d_memory.c ****   static uint8_t buf[3840];
 992:..\..\..\u8g2\u8g2\csrc/u8g2_d_memory.c ****   *page_cnt = 16;
 2526              		.loc 1 992 0
 2527 0000 1023     		movs	r3, #16
 2528 0002 0370     		strb	r3, [r0]
 993:..\..\..\u8g2\u8g2\csrc/u8g2_d_memory.c ****   return buf;
 994:..\..\..\u8g2\u8g2\csrc/u8g2_d_memory.c ****   #endif
 995:..\..\..\u8g2\u8g2\csrc/u8g2_d_memory.c **** }
 2529              		.loc 1 995 0
 2530 0004 0048     		ldr	r0, .L269
 2531              	.LVL179:
 2532 0006 7047     		bx	lr
 2533              	.L270:
 2534              		.align	2
 2535              	.L269:
 2536 0008 78030100 		.word	.LANCHOR14+1264
 2537              		.cfi_endproc
 2538              	.LFE89:
 2539              		.size	u8g2_m_30_16_f, .-u8g2_m_30_16_f
ARM GAS  C:\Users\jesse\AppData\Local\Temp\ccuy2FXa.s 			page 63


 2540              		.section	.text.u8g2_m_20_16_1,"ax",%progbits
 2541              		.align	1
 2542              		.global	u8g2_m_20_16_1
 2543              		.thumb
 2544              		.thumb_func
 2545              		.type	u8g2_m_20_16_1, %function
 2546              	u8g2_m_20_16_1:
 2547              	.LFB90:
 996:..\..\..\u8g2\u8g2\csrc/u8g2_d_memory.c **** uint8_t *u8g2_m_20_16_1(uint8_t *page_cnt)
 997:..\..\..\u8g2\u8g2\csrc/u8g2_d_memory.c **** {
 2548              		.loc 1 997 0
 2549              		.cfi_startproc
 2550              		@ args = 0, pretend = 0, frame = 0
 2551              		@ frame_needed = 0, uses_anonymous_args = 0
 2552              		@ link register save eliminated.
 2553              	.LVL180:
 998:..\..\..\u8g2\u8g2\csrc/u8g2_d_memory.c ****   #ifdef U8G2_USE_DYNAMIC_ALLOC
 999:..\..\..\u8g2\u8g2\csrc/u8g2_d_memory.c ****   *page_cnt = 1;
1000:..\..\..\u8g2\u8g2\csrc/u8g2_d_memory.c ****   return 0;
1001:..\..\..\u8g2\u8g2\csrc/u8g2_d_memory.c ****   #else
1002:..\..\..\u8g2\u8g2\csrc/u8g2_d_memory.c ****   static uint8_t buf[160];
1003:..\..\..\u8g2\u8g2\csrc/u8g2_d_memory.c ****   *page_cnt = 1;
 2554              		.loc 1 1003 0
 2555 0000 0123     		movs	r3, #1
 2556 0002 0370     		strb	r3, [r0]
1004:..\..\..\u8g2\u8g2\csrc/u8g2_d_memory.c ****   return buf;
1005:..\..\..\u8g2\u8g2\csrc/u8g2_d_memory.c ****   #endif
1006:..\..\..\u8g2\u8g2\csrc/u8g2_d_memory.c **** }
 2557              		.loc 1 1006 0
 2558 0004 0048     		ldr	r0, .L272
 2559              	.LVL181:
 2560 0006 7047     		bx	lr
 2561              	.L273:
 2562              		.align	2
 2563              	.L272:
 2564 0008 78120100 		.word	.LANCHOR15+760
 2565              		.cfi_endproc
 2566              	.LFE90:
 2567              		.size	u8g2_m_20_16_1, .-u8g2_m_20_16_1
 2568              		.section	.text.u8g2_m_20_16_2,"ax",%progbits
 2569              		.align	1
 2570              		.global	u8g2_m_20_16_2
 2571              		.thumb
 2572              		.thumb_func
 2573              		.type	u8g2_m_20_16_2, %function
 2574              	u8g2_m_20_16_2:
 2575              	.LFB91:
1007:..\..\..\u8g2\u8g2\csrc/u8g2_d_memory.c **** uint8_t *u8g2_m_20_16_2(uint8_t *page_cnt)
1008:..\..\..\u8g2\u8g2\csrc/u8g2_d_memory.c **** {
 2576              		.loc 1 1008 0
 2577              		.cfi_startproc
 2578              		@ args = 0, pretend = 0, frame = 0
 2579              		@ frame_needed = 0, uses_anonymous_args = 0
 2580              		@ link register save eliminated.
 2581              	.LVL182:
1009:..\..\..\u8g2\u8g2\csrc/u8g2_d_memory.c ****   #ifdef U8G2_USE_DYNAMIC_ALLOC
1010:..\..\..\u8g2\u8g2\csrc/u8g2_d_memory.c ****   *page_cnt = 2;
ARM GAS  C:\Users\jesse\AppData\Local\Temp\ccuy2FXa.s 			page 64


1011:..\..\..\u8g2\u8g2\csrc/u8g2_d_memory.c ****   return 0;
1012:..\..\..\u8g2\u8g2\csrc/u8g2_d_memory.c ****   #else
1013:..\..\..\u8g2\u8g2\csrc/u8g2_d_memory.c ****   static uint8_t buf[320];
1014:..\..\..\u8g2\u8g2\csrc/u8g2_d_memory.c ****   *page_cnt = 2;
 2582              		.loc 1 1014 0
 2583 0000 0223     		movs	r3, #2
 2584 0002 0370     		strb	r3, [r0]
1015:..\..\..\u8g2\u8g2\csrc/u8g2_d_memory.c ****   return buf;
1016:..\..\..\u8g2\u8g2\csrc/u8g2_d_memory.c ****   #endif
1017:..\..\..\u8g2\u8g2\csrc/u8g2_d_memory.c **** }
 2585              		.loc 1 1017 0
 2586 0004 0048     		ldr	r0, .L275
 2587              	.LVL183:
 2588 0006 7047     		bx	lr
 2589              	.L276:
 2590              		.align	2
 2591              	.L275:
 2592 0008 18130100 		.word	.LANCHOR15+920
 2593              		.cfi_endproc
 2594              	.LFE91:
 2595              		.size	u8g2_m_20_16_2, .-u8g2_m_20_16_2
 2596              		.section	.text.u8g2_m_20_16_f,"ax",%progbits
 2597              		.align	1
 2598              		.global	u8g2_m_20_16_f
 2599              		.thumb
 2600              		.thumb_func
 2601              		.type	u8g2_m_20_16_f, %function
 2602              	u8g2_m_20_16_f:
 2603              	.LFB92:
1018:..\..\..\u8g2\u8g2\csrc/u8g2_d_memory.c **** uint8_t *u8g2_m_20_16_f(uint8_t *page_cnt)
1019:..\..\..\u8g2\u8g2\csrc/u8g2_d_memory.c **** {
 2604              		.loc 1 1019 0
 2605              		.cfi_startproc
 2606              		@ args = 0, pretend = 0, frame = 0
 2607              		@ frame_needed = 0, uses_anonymous_args = 0
 2608              		@ link register save eliminated.
 2609              	.LVL184:
1020:..\..\..\u8g2\u8g2\csrc/u8g2_d_memory.c ****   #ifdef U8G2_USE_DYNAMIC_ALLOC
1021:..\..\..\u8g2\u8g2\csrc/u8g2_d_memory.c ****   *page_cnt = 16;
1022:..\..\..\u8g2\u8g2\csrc/u8g2_d_memory.c ****   return 0;
1023:..\..\..\u8g2\u8g2\csrc/u8g2_d_memory.c ****   #else
1024:..\..\..\u8g2\u8g2\csrc/u8g2_d_memory.c ****   static uint8_t buf[2560];
1025:..\..\..\u8g2\u8g2\csrc/u8g2_d_memory.c ****   *page_cnt = 16;
 2610              		.loc 1 1025 0
 2611 0000 1023     		movs	r3, #16
 2612 0002 0370     		strb	r3, [r0]
1026:..\..\..\u8g2\u8g2\csrc/u8g2_d_memory.c ****   return buf;
1027:..\..\..\u8g2\u8g2\csrc/u8g2_d_memory.c ****   #endif
1028:..\..\..\u8g2\u8g2\csrc/u8g2_d_memory.c **** }
 2613              		.loc 1 1028 0
 2614 0004 0048     		ldr	r0, .L278
 2615              	.LVL185:
 2616 0006 7047     		bx	lr
 2617              	.L279:
 2618              		.align	2
 2619              	.L278:
 2620 0008 58140100 		.word	.LANCHOR15+1240
ARM GAS  C:\Users\jesse\AppData\Local\Temp\ccuy2FXa.s 			page 65


 2621              		.cfi_endproc
 2622              	.LFE92:
 2623              		.size	u8g2_m_20_16_f, .-u8g2_m_20_16_f
 2624              		.section	.text.u8g2_m_24_12_1,"ax",%progbits
 2625              		.align	1
 2626              		.global	u8g2_m_24_12_1
 2627              		.thumb
 2628              		.thumb_func
 2629              		.type	u8g2_m_24_12_1, %function
 2630              	u8g2_m_24_12_1:
 2631              	.LFB93:
1029:..\..\..\u8g2\u8g2\csrc/u8g2_d_memory.c **** uint8_t *u8g2_m_24_12_1(uint8_t *page_cnt)
1030:..\..\..\u8g2\u8g2\csrc/u8g2_d_memory.c **** {
 2632              		.loc 1 1030 0
 2633              		.cfi_startproc
 2634              		@ args = 0, pretend = 0, frame = 0
 2635              		@ frame_needed = 0, uses_anonymous_args = 0
 2636              		@ link register save eliminated.
 2637              	.LVL186:
1031:..\..\..\u8g2\u8g2\csrc/u8g2_d_memory.c ****   #ifdef U8G2_USE_DYNAMIC_ALLOC
1032:..\..\..\u8g2\u8g2\csrc/u8g2_d_memory.c ****   *page_cnt = 1;
1033:..\..\..\u8g2\u8g2\csrc/u8g2_d_memory.c ****   return 0;
1034:..\..\..\u8g2\u8g2\csrc/u8g2_d_memory.c ****   #else
1035:..\..\..\u8g2\u8g2\csrc/u8g2_d_memory.c ****   static uint8_t buf[192];
1036:..\..\..\u8g2\u8g2\csrc/u8g2_d_memory.c ****   *page_cnt = 1;
 2638              		.loc 1 1036 0
 2639 0000 0123     		movs	r3, #1
 2640 0002 0370     		strb	r3, [r0]
1037:..\..\..\u8g2\u8g2\csrc/u8g2_d_memory.c ****   return buf;
1038:..\..\..\u8g2\u8g2\csrc/u8g2_d_memory.c ****   #endif
1039:..\..\..\u8g2\u8g2\csrc/u8g2_d_memory.c **** }
 2641              		.loc 1 1039 0
 2642 0004 0048     		ldr	r0, .L281
 2643              	.LVL187:
 2644 0006 7047     		bx	lr
 2645              	.L282:
 2646              		.align	2
 2647              	.L281:
 2648 0008 581E0100 		.word	.LANCHOR15+3800
 2649              		.cfi_endproc
 2650              	.LFE93:
 2651              		.size	u8g2_m_24_12_1, .-u8g2_m_24_12_1
 2652              		.section	.text.u8g2_m_24_12_2,"ax",%progbits
 2653              		.align	1
 2654              		.global	u8g2_m_24_12_2
 2655              		.thumb
 2656              		.thumb_func
 2657              		.type	u8g2_m_24_12_2, %function
 2658              	u8g2_m_24_12_2:
 2659              	.LFB94:
1040:..\..\..\u8g2\u8g2\csrc/u8g2_d_memory.c **** uint8_t *u8g2_m_24_12_2(uint8_t *page_cnt)
1041:..\..\..\u8g2\u8g2\csrc/u8g2_d_memory.c **** {
 2660              		.loc 1 1041 0
 2661              		.cfi_startproc
 2662              		@ args = 0, pretend = 0, frame = 0
 2663              		@ frame_needed = 0, uses_anonymous_args = 0
 2664              		@ link register save eliminated.
ARM GAS  C:\Users\jesse\AppData\Local\Temp\ccuy2FXa.s 			page 66


 2665              	.LVL188:
1042:..\..\..\u8g2\u8g2\csrc/u8g2_d_memory.c ****   #ifdef U8G2_USE_DYNAMIC_ALLOC
1043:..\..\..\u8g2\u8g2\csrc/u8g2_d_memory.c ****   *page_cnt = 2;
1044:..\..\..\u8g2\u8g2\csrc/u8g2_d_memory.c ****   return 0;
1045:..\..\..\u8g2\u8g2\csrc/u8g2_d_memory.c ****   #else
1046:..\..\..\u8g2\u8g2\csrc/u8g2_d_memory.c ****   static uint8_t buf[384];
1047:..\..\..\u8g2\u8g2\csrc/u8g2_d_memory.c ****   *page_cnt = 2;
 2666              		.loc 1 1047 0
 2667 0000 0223     		movs	r3, #2
 2668 0002 0370     		strb	r3, [r0]
1048:..\..\..\u8g2\u8g2\csrc/u8g2_d_memory.c ****   return buf;
1049:..\..\..\u8g2\u8g2\csrc/u8g2_d_memory.c ****   #endif
1050:..\..\..\u8g2\u8g2\csrc/u8g2_d_memory.c **** }
 2669              		.loc 1 1050 0
 2670 0004 0048     		ldr	r0, .L284
 2671              	.LVL189:
 2672 0006 7047     		bx	lr
 2673              	.L285:
 2674              		.align	2
 2675              	.L284:
 2676 0008 181F0100 		.word	.LANCHOR15+3992
 2677              		.cfi_endproc
 2678              	.LFE94:
 2679              		.size	u8g2_m_24_12_2, .-u8g2_m_24_12_2
 2680              		.section	.text.u8g2_m_24_12_f,"ax",%progbits
 2681              		.align	1
 2682              		.global	u8g2_m_24_12_f
 2683              		.thumb
 2684              		.thumb_func
 2685              		.type	u8g2_m_24_12_f, %function
 2686              	u8g2_m_24_12_f:
 2687              	.LFB95:
1051:..\..\..\u8g2\u8g2\csrc/u8g2_d_memory.c **** uint8_t *u8g2_m_24_12_f(uint8_t *page_cnt)
1052:..\..\..\u8g2\u8g2\csrc/u8g2_d_memory.c **** {
 2688              		.loc 1 1052 0
 2689              		.cfi_startproc
 2690              		@ args = 0, pretend = 0, frame = 0
 2691              		@ frame_needed = 0, uses_anonymous_args = 0
 2692              		@ link register save eliminated.
 2693              	.LVL190:
1053:..\..\..\u8g2\u8g2\csrc/u8g2_d_memory.c ****   #ifdef U8G2_USE_DYNAMIC_ALLOC
1054:..\..\..\u8g2\u8g2\csrc/u8g2_d_memory.c ****   *page_cnt = 12;
1055:..\..\..\u8g2\u8g2\csrc/u8g2_d_memory.c ****   return 0;
1056:..\..\..\u8g2\u8g2\csrc/u8g2_d_memory.c ****   #else
1057:..\..\..\u8g2\u8g2\csrc/u8g2_d_memory.c ****   static uint8_t buf[2304];
1058:..\..\..\u8g2\u8g2\csrc/u8g2_d_memory.c ****   *page_cnt = 12;
 2694              		.loc 1 1058 0
 2695 0000 0C23     		movs	r3, #12
 2696 0002 0370     		strb	r3, [r0]
1059:..\..\..\u8g2\u8g2\csrc/u8g2_d_memory.c ****   return buf;
1060:..\..\..\u8g2\u8g2\csrc/u8g2_d_memory.c ****   #endif
1061:..\..\..\u8g2\u8g2\csrc/u8g2_d_memory.c **** }
 2697              		.loc 1 1061 0
 2698 0004 0048     		ldr	r0, .L287
 2699              	.LVL191:
 2700 0006 7047     		bx	lr
 2701              	.L288:
ARM GAS  C:\Users\jesse\AppData\Local\Temp\ccuy2FXa.s 			page 67


 2702              		.align	2
 2703              	.L287:
 2704 0008 98200100 		.word	.LANCHOR16+32
 2705              		.cfi_endproc
 2706              	.LFE95:
 2707              		.size	u8g2_m_24_12_f, .-u8g2_m_24_12_f
 2708              		.section	.text.u8g2_m_20_13_1,"ax",%progbits
 2709              		.align	1
 2710              		.global	u8g2_m_20_13_1
 2711              		.thumb
 2712              		.thumb_func
 2713              		.type	u8g2_m_20_13_1, %function
 2714              	u8g2_m_20_13_1:
 2715              	.LFB96:
1062:..\..\..\u8g2\u8g2\csrc/u8g2_d_memory.c **** uint8_t *u8g2_m_20_13_1(uint8_t *page_cnt)
1063:..\..\..\u8g2\u8g2\csrc/u8g2_d_memory.c **** {
 2716              		.loc 1 1063 0
 2717              		.cfi_startproc
 2718              		@ args = 0, pretend = 0, frame = 0
 2719              		@ frame_needed = 0, uses_anonymous_args = 0
 2720              		@ link register save eliminated.
 2721              	.LVL192:
1064:..\..\..\u8g2\u8g2\csrc/u8g2_d_memory.c ****   #ifdef U8G2_USE_DYNAMIC_ALLOC
1065:..\..\..\u8g2\u8g2\csrc/u8g2_d_memory.c ****   *page_cnt = 1;
1066:..\..\..\u8g2\u8g2\csrc/u8g2_d_memory.c ****   return 0;
1067:..\..\..\u8g2\u8g2\csrc/u8g2_d_memory.c ****   #else
1068:..\..\..\u8g2\u8g2\csrc/u8g2_d_memory.c ****   static uint8_t buf[160];
1069:..\..\..\u8g2\u8g2\csrc/u8g2_d_memory.c ****   *page_cnt = 1;
 2722              		.loc 1 1069 0
 2723 0000 0123     		movs	r3, #1
 2724 0002 0370     		strb	r3, [r0]
1070:..\..\..\u8g2\u8g2\csrc/u8g2_d_memory.c ****   return buf;
1071:..\..\..\u8g2\u8g2\csrc/u8g2_d_memory.c ****   #endif
1072:..\..\..\u8g2\u8g2\csrc/u8g2_d_memory.c **** }
 2725              		.loc 1 1072 0
 2726 0004 0048     		ldr	r0, .L290
 2727              	.LVL193:
 2728 0006 7047     		bx	lr
 2729              	.L291:
 2730              		.align	2
 2731              	.L290:
 2732 0008 98290100 		.word	.LANCHOR16+2336
 2733              		.cfi_endproc
 2734              	.LFE96:
 2735              		.size	u8g2_m_20_13_1, .-u8g2_m_20_13_1
 2736              		.section	.text.u8g2_m_20_13_2,"ax",%progbits
 2737              		.align	1
 2738              		.global	u8g2_m_20_13_2
 2739              		.thumb
 2740              		.thumb_func
 2741              		.type	u8g2_m_20_13_2, %function
 2742              	u8g2_m_20_13_2:
 2743              	.LFB97:
1073:..\..\..\u8g2\u8g2\csrc/u8g2_d_memory.c **** uint8_t *u8g2_m_20_13_2(uint8_t *page_cnt)
1074:..\..\..\u8g2\u8g2\csrc/u8g2_d_memory.c **** {
 2744              		.loc 1 1074 0
 2745              		.cfi_startproc
ARM GAS  C:\Users\jesse\AppData\Local\Temp\ccuy2FXa.s 			page 68


 2746              		@ args = 0, pretend = 0, frame = 0
 2747              		@ frame_needed = 0, uses_anonymous_args = 0
 2748              		@ link register save eliminated.
 2749              	.LVL194:
1075:..\..\..\u8g2\u8g2\csrc/u8g2_d_memory.c ****   #ifdef U8G2_USE_DYNAMIC_ALLOC
1076:..\..\..\u8g2\u8g2\csrc/u8g2_d_memory.c ****   *page_cnt = 2;
1077:..\..\..\u8g2\u8g2\csrc/u8g2_d_memory.c ****   return 0;
1078:..\..\..\u8g2\u8g2\csrc/u8g2_d_memory.c ****   #else
1079:..\..\..\u8g2\u8g2\csrc/u8g2_d_memory.c ****   static uint8_t buf[320];
1080:..\..\..\u8g2\u8g2\csrc/u8g2_d_memory.c ****   *page_cnt = 2;
 2750              		.loc 1 1080 0
 2751 0000 0223     		movs	r3, #2
 2752 0002 0370     		strb	r3, [r0]
1081:..\..\..\u8g2\u8g2\csrc/u8g2_d_memory.c ****   return buf;
1082:..\..\..\u8g2\u8g2\csrc/u8g2_d_memory.c ****   #endif
1083:..\..\..\u8g2\u8g2\csrc/u8g2_d_memory.c **** }
 2753              		.loc 1 1083 0
 2754 0004 0048     		ldr	r0, .L293
 2755              	.LVL195:
 2756 0006 7047     		bx	lr
 2757              	.L294:
 2758              		.align	2
 2759              	.L293:
 2760 0008 382A0100 		.word	.LANCHOR16+2496
 2761              		.cfi_endproc
 2762              	.LFE97:
 2763              		.size	u8g2_m_20_13_2, .-u8g2_m_20_13_2
 2764              		.section	.text.u8g2_m_20_13_f,"ax",%progbits
 2765              		.align	1
 2766              		.global	u8g2_m_20_13_f
 2767              		.thumb
 2768              		.thumb_func
 2769              		.type	u8g2_m_20_13_f, %function
 2770              	u8g2_m_20_13_f:
 2771              	.LFB98:
1084:..\..\..\u8g2\u8g2\csrc/u8g2_d_memory.c **** uint8_t *u8g2_m_20_13_f(uint8_t *page_cnt)
1085:..\..\..\u8g2\u8g2\csrc/u8g2_d_memory.c **** {
 2772              		.loc 1 1085 0
 2773              		.cfi_startproc
 2774              		@ args = 0, pretend = 0, frame = 0
 2775              		@ frame_needed = 0, uses_anonymous_args = 0
 2776              		@ link register save eliminated.
 2777              	.LVL196:
1086:..\..\..\u8g2\u8g2\csrc/u8g2_d_memory.c ****   #ifdef U8G2_USE_DYNAMIC_ALLOC
1087:..\..\..\u8g2\u8g2\csrc/u8g2_d_memory.c ****   *page_cnt = 13;
1088:..\..\..\u8g2\u8g2\csrc/u8g2_d_memory.c ****   return 0;
1089:..\..\..\u8g2\u8g2\csrc/u8g2_d_memory.c ****   #else
1090:..\..\..\u8g2\u8g2\csrc/u8g2_d_memory.c ****   static uint8_t buf[2080];
1091:..\..\..\u8g2\u8g2\csrc/u8g2_d_memory.c ****   *page_cnt = 13;
 2778              		.loc 1 1091 0
 2779 0000 0D23     		movs	r3, #13
 2780 0002 0370     		strb	r3, [r0]
1092:..\..\..\u8g2\u8g2\csrc/u8g2_d_memory.c ****   return buf;
1093:..\..\..\u8g2\u8g2\csrc/u8g2_d_memory.c ****   #endif
1094:..\..\..\u8g2\u8g2\csrc/u8g2_d_memory.c **** }
 2781              		.loc 1 1094 0
 2782 0004 0048     		ldr	r0, .L296
ARM GAS  C:\Users\jesse\AppData\Local\Temp\ccuy2FXa.s 			page 69


 2783              	.LVL197:
 2784 0006 7047     		bx	lr
 2785              	.L297:
 2786              		.align	2
 2787              	.L296:
 2788 0008 782B0100 		.word	.LANCHOR16+2816
 2789              		.cfi_endproc
 2790              	.LFE98:
 2791              		.size	u8g2_m_20_13_f, .-u8g2_m_20_13_f
 2792              		.section	.text.u8g2_m_30_20_1,"ax",%progbits
 2793              		.align	1
 2794              		.global	u8g2_m_30_20_1
 2795              		.thumb
 2796              		.thumb_func
 2797              		.type	u8g2_m_30_20_1, %function
 2798              	u8g2_m_30_20_1:
 2799              	.LFB99:
1095:..\..\..\u8g2\u8g2\csrc/u8g2_d_memory.c **** uint8_t *u8g2_m_30_20_1(uint8_t *page_cnt)
1096:..\..\..\u8g2\u8g2\csrc/u8g2_d_memory.c **** {
 2800              		.loc 1 1096 0
 2801              		.cfi_startproc
 2802              		@ args = 0, pretend = 0, frame = 0
 2803              		@ frame_needed = 0, uses_anonymous_args = 0
 2804              		@ link register save eliminated.
 2805              	.LVL198:
1097:..\..\..\u8g2\u8g2\csrc/u8g2_d_memory.c ****   #ifdef U8G2_USE_DYNAMIC_ALLOC
1098:..\..\..\u8g2\u8g2\csrc/u8g2_d_memory.c ****   *page_cnt = 1;
1099:..\..\..\u8g2\u8g2\csrc/u8g2_d_memory.c ****   return 0;
1100:..\..\..\u8g2\u8g2\csrc/u8g2_d_memory.c ****   #else
1101:..\..\..\u8g2\u8g2\csrc/u8g2_d_memory.c ****   static uint8_t buf[240];
1102:..\..\..\u8g2\u8g2\csrc/u8g2_d_memory.c ****   *page_cnt = 1;
 2806              		.loc 1 1102 0
 2807 0000 0123     		movs	r3, #1
 2808 0002 0370     		strb	r3, [r0]
1103:..\..\..\u8g2\u8g2\csrc/u8g2_d_memory.c ****   return buf;
1104:..\..\..\u8g2\u8g2\csrc/u8g2_d_memory.c ****   #endif
1105:..\..\..\u8g2\u8g2\csrc/u8g2_d_memory.c **** }
 2809              		.loc 1 1105 0
 2810 0004 0048     		ldr	r0, .L299
 2811              	.LVL199:
 2812 0006 7047     		bx	lr
 2813              	.L300:
 2814              		.align	2
 2815              	.L299:
 2816 0008 98330100 		.word	.LANCHOR17+552
 2817              		.cfi_endproc
 2818              	.LFE99:
 2819              		.size	u8g2_m_30_20_1, .-u8g2_m_30_20_1
 2820              		.section	.text.u8g2_m_30_20_2,"ax",%progbits
 2821              		.align	1
 2822              		.global	u8g2_m_30_20_2
 2823              		.thumb
 2824              		.thumb_func
 2825              		.type	u8g2_m_30_20_2, %function
 2826              	u8g2_m_30_20_2:
 2827              	.LFB100:
1106:..\..\..\u8g2\u8g2\csrc/u8g2_d_memory.c **** uint8_t *u8g2_m_30_20_2(uint8_t *page_cnt)
ARM GAS  C:\Users\jesse\AppData\Local\Temp\ccuy2FXa.s 			page 70


1107:..\..\..\u8g2\u8g2\csrc/u8g2_d_memory.c **** {
 2828              		.loc 1 1107 0
 2829              		.cfi_startproc
 2830              		@ args = 0, pretend = 0, frame = 0
 2831              		@ frame_needed = 0, uses_anonymous_args = 0
 2832              		@ link register save eliminated.
 2833              	.LVL200:
1108:..\..\..\u8g2\u8g2\csrc/u8g2_d_memory.c ****   #ifdef U8G2_USE_DYNAMIC_ALLOC
1109:..\..\..\u8g2\u8g2\csrc/u8g2_d_memory.c ****   *page_cnt = 2;
1110:..\..\..\u8g2\u8g2\csrc/u8g2_d_memory.c ****   return 0;
1111:..\..\..\u8g2\u8g2\csrc/u8g2_d_memory.c ****   #else
1112:..\..\..\u8g2\u8g2\csrc/u8g2_d_memory.c ****   static uint8_t buf[480];
1113:..\..\..\u8g2\u8g2\csrc/u8g2_d_memory.c ****   *page_cnt = 2;
 2834              		.loc 1 1113 0
 2835 0000 0223     		movs	r3, #2
 2836 0002 0370     		strb	r3, [r0]
1114:..\..\..\u8g2\u8g2\csrc/u8g2_d_memory.c ****   return buf;
1115:..\..\..\u8g2\u8g2\csrc/u8g2_d_memory.c ****   #endif
1116:..\..\..\u8g2\u8g2\csrc/u8g2_d_memory.c **** }
 2837              		.loc 1 1116 0
 2838 0004 0048     		ldr	r0, .L302
 2839              	.LVL201:
 2840 0006 7047     		bx	lr
 2841              	.L303:
 2842              		.align	2
 2843              	.L302:
 2844 0008 88340100 		.word	.LANCHOR17+792
 2845              		.cfi_endproc
 2846              	.LFE100:
 2847              		.size	u8g2_m_30_20_2, .-u8g2_m_30_20_2
 2848              		.section	.text.u8g2_m_30_20_f,"ax",%progbits
 2849              		.align	1
 2850              		.global	u8g2_m_30_20_f
 2851              		.thumb
 2852              		.thumb_func
 2853              		.type	u8g2_m_30_20_f, %function
 2854              	u8g2_m_30_20_f:
 2855              	.LFB101:
1117:..\..\..\u8g2\u8g2\csrc/u8g2_d_memory.c **** uint8_t *u8g2_m_30_20_f(uint8_t *page_cnt)
1118:..\..\..\u8g2\u8g2\csrc/u8g2_d_memory.c **** {
 2856              		.loc 1 1118 0
 2857              		.cfi_startproc
 2858              		@ args = 0, pretend = 0, frame = 0
 2859              		@ frame_needed = 0, uses_anonymous_args = 0
 2860              		@ link register save eliminated.
 2861              	.LVL202:
1119:..\..\..\u8g2\u8g2\csrc/u8g2_d_memory.c ****   #ifdef U8G2_USE_DYNAMIC_ALLOC
1120:..\..\..\u8g2\u8g2\csrc/u8g2_d_memory.c ****   *page_cnt = 20;
1121:..\..\..\u8g2\u8g2\csrc/u8g2_d_memory.c ****   return 0;
1122:..\..\..\u8g2\u8g2\csrc/u8g2_d_memory.c ****   #else
1123:..\..\..\u8g2\u8g2\csrc/u8g2_d_memory.c ****   static uint8_t buf[4800];
1124:..\..\..\u8g2\u8g2\csrc/u8g2_d_memory.c ****   *page_cnt = 20;
 2862              		.loc 1 1124 0
 2863 0000 1423     		movs	r3, #20
 2864 0002 0370     		strb	r3, [r0]
1125:..\..\..\u8g2\u8g2\csrc/u8g2_d_memory.c ****   return buf;
1126:..\..\..\u8g2\u8g2\csrc/u8g2_d_memory.c ****   #endif
ARM GAS  C:\Users\jesse\AppData\Local\Temp\ccuy2FXa.s 			page 71


1127:..\..\..\u8g2\u8g2\csrc/u8g2_d_memory.c **** }
 2865              		.loc 1 1127 0
 2866 0004 0048     		ldr	r0, .L305
 2867              	.LVL203:
 2868 0006 7047     		bx	lr
 2869              	.L306:
 2870              		.align	2
 2871              	.L305:
 2872 0008 68360100 		.word	.LANCHOR17+1272
 2873              		.cfi_endproc
 2874              	.LFE101:
 2875              		.size	u8g2_m_30_20_f, .-u8g2_m_30_20_f
 2876              		.section	.text.u8g2_m_32_16_1,"ax",%progbits
 2877              		.align	1
 2878              		.global	u8g2_m_32_16_1
 2879              		.thumb
 2880              		.thumb_func
 2881              		.type	u8g2_m_32_16_1, %function
 2882              	u8g2_m_32_16_1:
 2883              	.LFB102:
1128:..\..\..\u8g2\u8g2\csrc/u8g2_d_memory.c **** uint8_t *u8g2_m_32_16_1(uint8_t *page_cnt)
1129:..\..\..\u8g2\u8g2\csrc/u8g2_d_memory.c **** {
 2884              		.loc 1 1129 0
 2885              		.cfi_startproc
 2886              		@ args = 0, pretend = 0, frame = 0
 2887              		@ frame_needed = 0, uses_anonymous_args = 0
 2888              		@ link register save eliminated.
 2889              	.LVL204:
1130:..\..\..\u8g2\u8g2\csrc/u8g2_d_memory.c ****   #ifdef U8G2_USE_DYNAMIC_ALLOC
1131:..\..\..\u8g2\u8g2\csrc/u8g2_d_memory.c ****   *page_cnt = 1;
1132:..\..\..\u8g2\u8g2\csrc/u8g2_d_memory.c ****   return 0;
1133:..\..\..\u8g2\u8g2\csrc/u8g2_d_memory.c ****   #else
1134:..\..\..\u8g2\u8g2\csrc/u8g2_d_memory.c ****   static uint8_t buf[256];
1135:..\..\..\u8g2\u8g2\csrc/u8g2_d_memory.c ****   *page_cnt = 1;
 2890              		.loc 1 1135 0
 2891 0000 0123     		movs	r3, #1
 2892 0002 0370     		strb	r3, [r0]
1136:..\..\..\u8g2\u8g2\csrc/u8g2_d_memory.c ****   return buf;
1137:..\..\..\u8g2\u8g2\csrc/u8g2_d_memory.c ****   #endif
1138:..\..\..\u8g2\u8g2\csrc/u8g2_d_memory.c **** }
 2893              		.loc 1 1138 0
 2894 0004 0048     		ldr	r0, .L308
 2895              	.LVL205:
 2896 0006 7047     		bx	lr
 2897              	.L309:
 2898              		.align	2
 2899              	.L308:
 2900 0008 28490100 		.word	.LANCHOR18+1728
 2901              		.cfi_endproc
 2902              	.LFE102:
 2903              		.size	u8g2_m_32_16_1, .-u8g2_m_32_16_1
 2904              		.section	.text.u8g2_m_32_16_2,"ax",%progbits
 2905              		.align	1
 2906              		.global	u8g2_m_32_16_2
 2907              		.thumb
 2908              		.thumb_func
 2909              		.type	u8g2_m_32_16_2, %function
ARM GAS  C:\Users\jesse\AppData\Local\Temp\ccuy2FXa.s 			page 72


 2910              	u8g2_m_32_16_2:
 2911              	.LFB103:
1139:..\..\..\u8g2\u8g2\csrc/u8g2_d_memory.c **** uint8_t *u8g2_m_32_16_2(uint8_t *page_cnt)
1140:..\..\..\u8g2\u8g2\csrc/u8g2_d_memory.c **** {
 2912              		.loc 1 1140 0
 2913              		.cfi_startproc
 2914              		@ args = 0, pretend = 0, frame = 0
 2915              		@ frame_needed = 0, uses_anonymous_args = 0
 2916              		@ link register save eliminated.
 2917              	.LVL206:
1141:..\..\..\u8g2\u8g2\csrc/u8g2_d_memory.c ****   #ifdef U8G2_USE_DYNAMIC_ALLOC
1142:..\..\..\u8g2\u8g2\csrc/u8g2_d_memory.c ****   *page_cnt = 2;
1143:..\..\..\u8g2\u8g2\csrc/u8g2_d_memory.c ****   return 0;
1144:..\..\..\u8g2\u8g2\csrc/u8g2_d_memory.c ****   #else
1145:..\..\..\u8g2\u8g2\csrc/u8g2_d_memory.c ****   static uint8_t buf[512];
1146:..\..\..\u8g2\u8g2\csrc/u8g2_d_memory.c ****   *page_cnt = 2;
 2918              		.loc 1 1146 0
 2919 0000 0223     		movs	r3, #2
 2920 0002 0370     		strb	r3, [r0]
1147:..\..\..\u8g2\u8g2\csrc/u8g2_d_memory.c ****   return buf;
1148:..\..\..\u8g2\u8g2\csrc/u8g2_d_memory.c ****   #endif
1149:..\..\..\u8g2\u8g2\csrc/u8g2_d_memory.c **** }
 2921              		.loc 1 1149 0
 2922 0004 0048     		ldr	r0, .L311
 2923              	.LVL207:
 2924 0006 7047     		bx	lr
 2925              	.L312:
 2926              		.align	2
 2927              	.L311:
 2928 0008 284A0100 		.word	.LANCHOR18+1984
 2929              		.cfi_endproc
 2930              	.LFE103:
 2931              		.size	u8g2_m_32_16_2, .-u8g2_m_32_16_2
 2932              		.section	.text.u8g2_m_32_16_f,"ax",%progbits
 2933              		.align	1
 2934              		.global	u8g2_m_32_16_f
 2935              		.thumb
 2936              		.thumb_func
 2937              		.type	u8g2_m_32_16_f, %function
 2938              	u8g2_m_32_16_f:
 2939              	.LFB104:
1150:..\..\..\u8g2\u8g2\csrc/u8g2_d_memory.c **** uint8_t *u8g2_m_32_16_f(uint8_t *page_cnt)
1151:..\..\..\u8g2\u8g2\csrc/u8g2_d_memory.c **** {
 2940              		.loc 1 1151 0
 2941              		.cfi_startproc
 2942              		@ args = 0, pretend = 0, frame = 0
 2943              		@ frame_needed = 0, uses_anonymous_args = 0
 2944              		@ link register save eliminated.
 2945              	.LVL208:
1152:..\..\..\u8g2\u8g2\csrc/u8g2_d_memory.c ****   #ifdef U8G2_USE_DYNAMIC_ALLOC
1153:..\..\..\u8g2\u8g2\csrc/u8g2_d_memory.c ****   *page_cnt = 16;
1154:..\..\..\u8g2\u8g2\csrc/u8g2_d_memory.c ****   return 0;
1155:..\..\..\u8g2\u8g2\csrc/u8g2_d_memory.c ****   #else
1156:..\..\..\u8g2\u8g2\csrc/u8g2_d_memory.c ****   static uint8_t buf[4096];
1157:..\..\..\u8g2\u8g2\csrc/u8g2_d_memory.c ****   *page_cnt = 16;
 2946              		.loc 1 1157 0
 2947 0000 1023     		movs	r3, #16
ARM GAS  C:\Users\jesse\AppData\Local\Temp\ccuy2FXa.s 			page 73


 2948 0002 0370     		strb	r3, [r0]
1158:..\..\..\u8g2\u8g2\csrc/u8g2_d_memory.c ****   return buf;
1159:..\..\..\u8g2\u8g2\csrc/u8g2_d_memory.c ****   #endif
1160:..\..\..\u8g2\u8g2\csrc/u8g2_d_memory.c **** }
 2949              		.loc 1 1160 0
 2950 0004 0048     		ldr	r0, .L314
 2951              	.LVL209:
 2952 0006 7047     		bx	lr
 2953              	.L315:
 2954              		.align	2
 2955              	.L314:
 2956 0008 284C0100 		.word	.LANCHOR18+2496
 2957              		.cfi_endproc
 2958              	.LFE104:
 2959              		.size	u8g2_m_32_16_f, .-u8g2_m_32_16_f
 2960              		.section	.text.u8g2_m_40_30_1,"ax",%progbits
 2961              		.align	1
 2962              		.global	u8g2_m_40_30_1
 2963              		.thumb
 2964              		.thumb_func
 2965              		.type	u8g2_m_40_30_1, %function
 2966              	u8g2_m_40_30_1:
 2967              	.LFB105:
1161:..\..\..\u8g2\u8g2\csrc/u8g2_d_memory.c **** uint8_t *u8g2_m_40_30_1(uint8_t *page_cnt)
1162:..\..\..\u8g2\u8g2\csrc/u8g2_d_memory.c **** {
 2968              		.loc 1 1162 0
 2969              		.cfi_startproc
 2970              		@ args = 0, pretend = 0, frame = 0
 2971              		@ frame_needed = 0, uses_anonymous_args = 0
 2972              		@ link register save eliminated.
 2973              	.LVL210:
1163:..\..\..\u8g2\u8g2\csrc/u8g2_d_memory.c ****   #ifdef U8G2_USE_DYNAMIC_ALLOC
1164:..\..\..\u8g2\u8g2\csrc/u8g2_d_memory.c ****   *page_cnt = 1;
1165:..\..\..\u8g2\u8g2\csrc/u8g2_d_memory.c ****   return 0;
1166:..\..\..\u8g2\u8g2\csrc/u8g2_d_memory.c ****   #else
1167:..\..\..\u8g2\u8g2\csrc/u8g2_d_memory.c ****   static uint8_t buf[320];
1168:..\..\..\u8g2\u8g2\csrc/u8g2_d_memory.c ****   *page_cnt = 1;
 2974              		.loc 1 1168 0
 2975 0000 0123     		movs	r3, #1
 2976 0002 0370     		strb	r3, [r0]
1169:..\..\..\u8g2\u8g2\csrc/u8g2_d_memory.c ****   return buf;
1170:..\..\..\u8g2\u8g2\csrc/u8g2_d_memory.c ****   #endif
1171:..\..\..\u8g2\u8g2\csrc/u8g2_d_memory.c **** }
 2977              		.loc 1 1171 0
 2978 0004 0048     		ldr	r0, .L317
 2979              	.LVL211:
 2980 0006 7047     		bx	lr
 2981              	.L318:
 2982              		.align	2
 2983              	.L317:
 2984 0008 285C0100 		.word	.LANCHOR19+2248
 2985              		.cfi_endproc
 2986              	.LFE105:
 2987              		.size	u8g2_m_40_30_1, .-u8g2_m_40_30_1
 2988              		.section	.text.u8g2_m_40_30_2,"ax",%progbits
 2989              		.align	1
 2990              		.global	u8g2_m_40_30_2
ARM GAS  C:\Users\jesse\AppData\Local\Temp\ccuy2FXa.s 			page 74


 2991              		.thumb
 2992              		.thumb_func
 2993              		.type	u8g2_m_40_30_2, %function
 2994              	u8g2_m_40_30_2:
 2995              	.LFB106:
1172:..\..\..\u8g2\u8g2\csrc/u8g2_d_memory.c **** uint8_t *u8g2_m_40_30_2(uint8_t *page_cnt)
1173:..\..\..\u8g2\u8g2\csrc/u8g2_d_memory.c **** {
 2996              		.loc 1 1173 0
 2997              		.cfi_startproc
 2998              		@ args = 0, pretend = 0, frame = 0
 2999              		@ frame_needed = 0, uses_anonymous_args = 0
 3000              		@ link register save eliminated.
 3001              	.LVL212:
1174:..\..\..\u8g2\u8g2\csrc/u8g2_d_memory.c ****   #ifdef U8G2_USE_DYNAMIC_ALLOC
1175:..\..\..\u8g2\u8g2\csrc/u8g2_d_memory.c ****   *page_cnt = 2;
1176:..\..\..\u8g2\u8g2\csrc/u8g2_d_memory.c ****   return 0;
1177:..\..\..\u8g2\u8g2\csrc/u8g2_d_memory.c ****   #else
1178:..\..\..\u8g2\u8g2\csrc/u8g2_d_memory.c ****   static uint8_t buf[640];
1179:..\..\..\u8g2\u8g2\csrc/u8g2_d_memory.c ****   *page_cnt = 2;
 3002              		.loc 1 1179 0
 3003 0000 0223     		movs	r3, #2
 3004 0002 0370     		strb	r3, [r0]
1180:..\..\..\u8g2\u8g2\csrc/u8g2_d_memory.c ****   return buf;
1181:..\..\..\u8g2\u8g2\csrc/u8g2_d_memory.c ****   #endif
1182:..\..\..\u8g2\u8g2\csrc/u8g2_d_memory.c **** }
 3005              		.loc 1 1182 0
 3006 0004 0048     		ldr	r0, .L320
 3007              	.LVL213:
 3008 0006 7047     		bx	lr
 3009              	.L321:
 3010              		.align	2
 3011              	.L320:
 3012 0008 685D0100 		.word	.LANCHOR19+2568
 3013              		.cfi_endproc
 3014              	.LFE106:
 3015              		.size	u8g2_m_40_30_2, .-u8g2_m_40_30_2
 3016              		.section	.text.u8g2_m_40_30_f,"ax",%progbits
 3017              		.align	1
 3018              		.global	u8g2_m_40_30_f
 3019              		.thumb
 3020              		.thumb_func
 3021              		.type	u8g2_m_40_30_f, %function
 3022              	u8g2_m_40_30_f:
 3023              	.LFB107:
1183:..\..\..\u8g2\u8g2\csrc/u8g2_d_memory.c **** uint8_t *u8g2_m_40_30_f(uint8_t *page_cnt)
1184:..\..\..\u8g2\u8g2\csrc/u8g2_d_memory.c **** {
 3024              		.loc 1 1184 0
 3025              		.cfi_startproc
 3026              		@ args = 0, pretend = 0, frame = 0
 3027              		@ frame_needed = 0, uses_anonymous_args = 0
 3028              		@ link register save eliminated.
 3029              	.LVL214:
1185:..\..\..\u8g2\u8g2\csrc/u8g2_d_memory.c ****   #ifdef U8G2_USE_DYNAMIC_ALLOC
1186:..\..\..\u8g2\u8g2\csrc/u8g2_d_memory.c ****   *page_cnt = 30;
1187:..\..\..\u8g2\u8g2\csrc/u8g2_d_memory.c ****   return 0;
1188:..\..\..\u8g2\u8g2\csrc/u8g2_d_memory.c ****   #else
1189:..\..\..\u8g2\u8g2\csrc/u8g2_d_memory.c ****   static uint8_t buf[9600];
ARM GAS  C:\Users\jesse\AppData\Local\Temp\ccuy2FXa.s 			page 75


1190:..\..\..\u8g2\u8g2\csrc/u8g2_d_memory.c ****   *page_cnt = 30;
 3030              		.loc 1 1190 0
 3031 0000 1E23     		movs	r3, #30
 3032 0002 0370     		strb	r3, [r0]
1191:..\..\..\u8g2\u8g2\csrc/u8g2_d_memory.c ****   return buf;
1192:..\..\..\u8g2\u8g2\csrc/u8g2_d_memory.c ****   #endif
1193:..\..\..\u8g2\u8g2\csrc/u8g2_d_memory.c **** }
 3033              		.loc 1 1193 0
 3034 0004 0048     		ldr	r0, .L323
 3035              	.LVL215:
 3036 0006 7047     		bx	lr
 3037              	.L324:
 3038              		.align	2
 3039              	.L323:
 3040 0008 E85F0100 		.word	.LANCHOR19+3208
 3041              		.cfi_endproc
 3042              	.LFE107:
 3043              		.size	u8g2_m_40_30_f, .-u8g2_m_40_30_f
 3044              		.section	.text.u8g2_m_20_8_1,"ax",%progbits
 3045              		.align	1
 3046              		.global	u8g2_m_20_8_1
 3047              		.thumb
 3048              		.thumb_func
 3049              		.type	u8g2_m_20_8_1, %function
 3050              	u8g2_m_20_8_1:
 3051              	.LFB108:
1194:..\..\..\u8g2\u8g2\csrc/u8g2_d_memory.c **** uint8_t *u8g2_m_20_8_1(uint8_t *page_cnt)
1195:..\..\..\u8g2\u8g2\csrc/u8g2_d_memory.c **** {
 3052              		.loc 1 1195 0
 3053              		.cfi_startproc
 3054              		@ args = 0, pretend = 0, frame = 0
 3055              		@ frame_needed = 0, uses_anonymous_args = 0
 3056              		@ link register save eliminated.
 3057              	.LVL216:
1196:..\..\..\u8g2\u8g2\csrc/u8g2_d_memory.c ****   #ifdef U8G2_USE_DYNAMIC_ALLOC
1197:..\..\..\u8g2\u8g2\csrc/u8g2_d_memory.c ****   *page_cnt = 1;
1198:..\..\..\u8g2\u8g2\csrc/u8g2_d_memory.c ****   return 0;
1199:..\..\..\u8g2\u8g2\csrc/u8g2_d_memory.c ****   #else
1200:..\..\..\u8g2\u8g2\csrc/u8g2_d_memory.c ****   static uint8_t buf[160];
1201:..\..\..\u8g2\u8g2\csrc/u8g2_d_memory.c ****   *page_cnt = 1;
 3058              		.loc 1 1201 0
 3059 0000 0123     		movs	r3, #1
 3060 0002 0370     		strb	r3, [r0]
1202:..\..\..\u8g2\u8g2\csrc/u8g2_d_memory.c ****   return buf;
1203:..\..\..\u8g2\u8g2\csrc/u8g2_d_memory.c ****   #endif
1204:..\..\..\u8g2\u8g2\csrc/u8g2_d_memory.c **** }
 3061              		.loc 1 1204 0
 3062 0004 0048     		ldr	r0, .L326
 3063              	.LVL217:
 3064 0006 7047     		bx	lr
 3065              	.L327:
 3066              		.align	2
 3067              	.L326:
 3068 0008 68850100 		.word	.LANCHOR20-224
 3069              		.cfi_endproc
 3070              	.LFE108:
 3071              		.size	u8g2_m_20_8_1, .-u8g2_m_20_8_1
ARM GAS  C:\Users\jesse\AppData\Local\Temp\ccuy2FXa.s 			page 76


 3072              		.section	.text.u8g2_m_20_8_2,"ax",%progbits
 3073              		.align	1
 3074              		.global	u8g2_m_20_8_2
 3075              		.thumb
 3076              		.thumb_func
 3077              		.type	u8g2_m_20_8_2, %function
 3078              	u8g2_m_20_8_2:
 3079              	.LFB109:
1205:..\..\..\u8g2\u8g2\csrc/u8g2_d_memory.c **** uint8_t *u8g2_m_20_8_2(uint8_t *page_cnt)
1206:..\..\..\u8g2\u8g2\csrc/u8g2_d_memory.c **** {
 3080              		.loc 1 1206 0
 3081              		.cfi_startproc
 3082              		@ args = 0, pretend = 0, frame = 0
 3083              		@ frame_needed = 0, uses_anonymous_args = 0
 3084              		@ link register save eliminated.
 3085              	.LVL218:
1207:..\..\..\u8g2\u8g2\csrc/u8g2_d_memory.c ****   #ifdef U8G2_USE_DYNAMIC_ALLOC
1208:..\..\..\u8g2\u8g2\csrc/u8g2_d_memory.c ****   *page_cnt = 2;
1209:..\..\..\u8g2\u8g2\csrc/u8g2_d_memory.c ****   return 0;
1210:..\..\..\u8g2\u8g2\csrc/u8g2_d_memory.c ****   #else
1211:..\..\..\u8g2\u8g2\csrc/u8g2_d_memory.c ****   static uint8_t buf[320];
1212:..\..\..\u8g2\u8g2\csrc/u8g2_d_memory.c ****   *page_cnt = 2;
 3086              		.loc 1 1212 0
 3087 0000 0223     		movs	r3, #2
 3088 0002 0370     		strb	r3, [r0]
1213:..\..\..\u8g2\u8g2\csrc/u8g2_d_memory.c ****   return buf;
1214:..\..\..\u8g2\u8g2\csrc/u8g2_d_memory.c ****   #endif
1215:..\..\..\u8g2\u8g2\csrc/u8g2_d_memory.c **** }
 3089              		.loc 1 1215 0
 3090 0004 0048     		ldr	r0, .L329
 3091              	.LVL219:
 3092 0006 7047     		bx	lr
 3093              	.L330:
 3094              		.align	2
 3095              	.L329:
 3096 0008 08860100 		.word	.LANCHOR20-64
 3097              		.cfi_endproc
 3098              	.LFE109:
 3099              		.size	u8g2_m_20_8_2, .-u8g2_m_20_8_2
 3100              		.section	.text.u8g2_m_20_8_f,"ax",%progbits
 3101              		.align	1
 3102              		.global	u8g2_m_20_8_f
 3103              		.thumb
 3104              		.thumb_func
 3105              		.type	u8g2_m_20_8_f, %function
 3106              	u8g2_m_20_8_f:
 3107              	.LFB110:
1216:..\..\..\u8g2\u8g2\csrc/u8g2_d_memory.c **** uint8_t *u8g2_m_20_8_f(uint8_t *page_cnt)
1217:..\..\..\u8g2\u8g2\csrc/u8g2_d_memory.c **** {
 3108              		.loc 1 1217 0
 3109              		.cfi_startproc
 3110              		@ args = 0, pretend = 0, frame = 0
 3111              		@ frame_needed = 0, uses_anonymous_args = 0
 3112              		@ link register save eliminated.
 3113              	.LVL220:
1218:..\..\..\u8g2\u8g2\csrc/u8g2_d_memory.c ****   #ifdef U8G2_USE_DYNAMIC_ALLOC
1219:..\..\..\u8g2\u8g2\csrc/u8g2_d_memory.c ****   *page_cnt = 8;
ARM GAS  C:\Users\jesse\AppData\Local\Temp\ccuy2FXa.s 			page 77


1220:..\..\..\u8g2\u8g2\csrc/u8g2_d_memory.c ****   return 0;
1221:..\..\..\u8g2\u8g2\csrc/u8g2_d_memory.c ****   #else
1222:..\..\..\u8g2\u8g2\csrc/u8g2_d_memory.c ****   static uint8_t buf[1280];
1223:..\..\..\u8g2\u8g2\csrc/u8g2_d_memory.c ****   *page_cnt = 8;
 3114              		.loc 1 1223 0
 3115 0000 0823     		movs	r3, #8
 3116 0002 0370     		strb	r3, [r0]
1224:..\..\..\u8g2\u8g2\csrc/u8g2_d_memory.c ****   return buf;
1225:..\..\..\u8g2\u8g2\csrc/u8g2_d_memory.c ****   #endif
1226:..\..\..\u8g2\u8g2\csrc/u8g2_d_memory.c **** }
 3117              		.loc 1 1226 0
 3118 0004 0048     		ldr	r0, .L332
 3119              	.LVL221:
 3120 0006 7047     		bx	lr
 3121              	.L333:
 3122              		.align	2
 3123              	.L332:
 3124 0008 48870100 		.word	.LANCHOR20+256
 3125              		.cfi_endproc
 3126              	.LFE110:
 3127              		.size	u8g2_m_20_8_f, .-u8g2_m_20_8_f
 3128              		.section	.text.u8g2_m_17_4_1,"ax",%progbits
 3129              		.align	1
 3130              		.global	u8g2_m_17_4_1
 3131              		.thumb
 3132              		.thumb_func
 3133              		.type	u8g2_m_17_4_1, %function
 3134              	u8g2_m_17_4_1:
 3135              	.LFB111:
1227:..\..\..\u8g2\u8g2\csrc/u8g2_d_memory.c **** uint8_t *u8g2_m_17_4_1(uint8_t *page_cnt)
1228:..\..\..\u8g2\u8g2\csrc/u8g2_d_memory.c **** {
 3136              		.loc 1 1228 0
 3137              		.cfi_startproc
 3138              		@ args = 0, pretend = 0, frame = 0
 3139              		@ frame_needed = 0, uses_anonymous_args = 0
 3140              		@ link register save eliminated.
 3141              	.LVL222:
1229:..\..\..\u8g2\u8g2\csrc/u8g2_d_memory.c ****   #ifdef U8G2_USE_DYNAMIC_ALLOC
1230:..\..\..\u8g2\u8g2\csrc/u8g2_d_memory.c ****   *page_cnt = 1;
1231:..\..\..\u8g2\u8g2\csrc/u8g2_d_memory.c ****   return 0;
1232:..\..\..\u8g2\u8g2\csrc/u8g2_d_memory.c ****   #else
1233:..\..\..\u8g2\u8g2\csrc/u8g2_d_memory.c ****   static uint8_t buf[136];
1234:..\..\..\u8g2\u8g2\csrc/u8g2_d_memory.c ****   *page_cnt = 1;
 3142              		.loc 1 1234 0
 3143 0000 0123     		movs	r3, #1
 3144 0002 0370     		strb	r3, [r0]
1235:..\..\..\u8g2\u8g2\csrc/u8g2_d_memory.c ****   return buf;
1236:..\..\..\u8g2\u8g2\csrc/u8g2_d_memory.c ****   #endif
1237:..\..\..\u8g2\u8g2\csrc/u8g2_d_memory.c **** }
 3145              		.loc 1 1237 0
 3146 0004 0048     		ldr	r0, .L335
 3147              	.LVL223:
 3148 0006 7047     		bx	lr
 3149              	.L336:
 3150              		.align	2
 3151              	.L335:
 3152 0008 488C0100 		.word	.LANCHOR20+1536
ARM GAS  C:\Users\jesse\AppData\Local\Temp\ccuy2FXa.s 			page 78


 3153              		.cfi_endproc
 3154              	.LFE111:
 3155              		.size	u8g2_m_17_4_1, .-u8g2_m_17_4_1
 3156              		.section	.text.u8g2_m_17_4_2,"ax",%progbits
 3157              		.align	1
 3158              		.global	u8g2_m_17_4_2
 3159              		.thumb
 3160              		.thumb_func
 3161              		.type	u8g2_m_17_4_2, %function
 3162              	u8g2_m_17_4_2:
 3163              	.LFB112:
1238:..\..\..\u8g2\u8g2\csrc/u8g2_d_memory.c **** uint8_t *u8g2_m_17_4_2(uint8_t *page_cnt)
1239:..\..\..\u8g2\u8g2\csrc/u8g2_d_memory.c **** {
 3164              		.loc 1 1239 0
 3165              		.cfi_startproc
 3166              		@ args = 0, pretend = 0, frame = 0
 3167              		@ frame_needed = 0, uses_anonymous_args = 0
 3168              		@ link register save eliminated.
 3169              	.LVL224:
1240:..\..\..\u8g2\u8g2\csrc/u8g2_d_memory.c ****   #ifdef U8G2_USE_DYNAMIC_ALLOC
1241:..\..\..\u8g2\u8g2\csrc/u8g2_d_memory.c ****   *page_cnt = 2;
1242:..\..\..\u8g2\u8g2\csrc/u8g2_d_memory.c ****   return 0;
1243:..\..\..\u8g2\u8g2\csrc/u8g2_d_memory.c ****   #else
1244:..\..\..\u8g2\u8g2\csrc/u8g2_d_memory.c ****   static uint8_t buf[272];
1245:..\..\..\u8g2\u8g2\csrc/u8g2_d_memory.c ****   *page_cnt = 2;
 3170              		.loc 1 1245 0
 3171 0000 0223     		movs	r3, #2
 3172 0002 0370     		strb	r3, [r0]
1246:..\..\..\u8g2\u8g2\csrc/u8g2_d_memory.c ****   return buf;
1247:..\..\..\u8g2\u8g2\csrc/u8g2_d_memory.c ****   #endif
1248:..\..\..\u8g2\u8g2\csrc/u8g2_d_memory.c **** }
 3173              		.loc 1 1248 0
 3174 0004 0048     		ldr	r0, .L338
 3175              	.LVL225:
 3176 0006 7047     		bx	lr
 3177              	.L339:
 3178              		.align	2
 3179              	.L338:
 3180 0008 D08C0100 		.word	.LANCHOR20+1672
 3181              		.cfi_endproc
 3182              	.LFE112:
 3183              		.size	u8g2_m_17_4_2, .-u8g2_m_17_4_2
 3184              		.section	.text.u8g2_m_17_4_f,"ax",%progbits
 3185              		.align	1
 3186              		.global	u8g2_m_17_4_f
 3187              		.thumb
 3188              		.thumb_func
 3189              		.type	u8g2_m_17_4_f, %function
 3190              	u8g2_m_17_4_f:
 3191              	.LFB113:
1249:..\..\..\u8g2\u8g2\csrc/u8g2_d_memory.c **** uint8_t *u8g2_m_17_4_f(uint8_t *page_cnt)
1250:..\..\..\u8g2\u8g2\csrc/u8g2_d_memory.c **** {
 3192              		.loc 1 1250 0
 3193              		.cfi_startproc
 3194              		@ args = 0, pretend = 0, frame = 0
 3195              		@ frame_needed = 0, uses_anonymous_args = 0
 3196              		@ link register save eliminated.
ARM GAS  C:\Users\jesse\AppData\Local\Temp\ccuy2FXa.s 			page 79


 3197              	.LVL226:
1251:..\..\..\u8g2\u8g2\csrc/u8g2_d_memory.c ****   #ifdef U8G2_USE_DYNAMIC_ALLOC
1252:..\..\..\u8g2\u8g2\csrc/u8g2_d_memory.c ****   *page_cnt = 4;
1253:..\..\..\u8g2\u8g2\csrc/u8g2_d_memory.c ****   return 0;
1254:..\..\..\u8g2\u8g2\csrc/u8g2_d_memory.c ****   #else
1255:..\..\..\u8g2\u8g2\csrc/u8g2_d_memory.c ****   static uint8_t buf[544];
1256:..\..\..\u8g2\u8g2\csrc/u8g2_d_memory.c ****   *page_cnt = 4;
 3198              		.loc 1 1256 0
 3199 0000 0423     		movs	r3, #4
 3200 0002 0370     		strb	r3, [r0]
1257:..\..\..\u8g2\u8g2\csrc/u8g2_d_memory.c ****   return buf;
1258:..\..\..\u8g2\u8g2\csrc/u8g2_d_memory.c ****   #endif
1259:..\..\..\u8g2\u8g2\csrc/u8g2_d_memory.c **** }
 3201              		.loc 1 1259 0
 3202 0004 0048     		ldr	r0, .L341
 3203              	.LVL227:
 3204 0006 7047     		bx	lr
 3205              	.L342:
 3206              		.align	2
 3207              	.L341:
 3208 0008 E08D0100 		.word	.LANCHOR20+1944
 3209              		.cfi_endproc
 3210              	.LFE113:
 3211              		.size	u8g2_m_17_4_f, .-u8g2_m_17_4_f
 3212              		.section	.text.u8g2_m_17_8_1,"ax",%progbits
 3213              		.align	1
 3214              		.global	u8g2_m_17_8_1
 3215              		.thumb
 3216              		.thumb_func
 3217              		.type	u8g2_m_17_8_1, %function
 3218              	u8g2_m_17_8_1:
 3219              	.LFB114:
1260:..\..\..\u8g2\u8g2\csrc/u8g2_d_memory.c **** uint8_t *u8g2_m_17_8_1(uint8_t *page_cnt)
1261:..\..\..\u8g2\u8g2\csrc/u8g2_d_memory.c **** {
 3220              		.loc 1 1261 0
 3221              		.cfi_startproc
 3222              		@ args = 0, pretend = 0, frame = 0
 3223              		@ frame_needed = 0, uses_anonymous_args = 0
 3224              		@ link register save eliminated.
 3225              	.LVL228:
1262:..\..\..\u8g2\u8g2\csrc/u8g2_d_memory.c ****   #ifdef U8G2_USE_DYNAMIC_ALLOC
1263:..\..\..\u8g2\u8g2\csrc/u8g2_d_memory.c ****   *page_cnt = 1;
1264:..\..\..\u8g2\u8g2\csrc/u8g2_d_memory.c ****   return 0;
1265:..\..\..\u8g2\u8g2\csrc/u8g2_d_memory.c ****   #else
1266:..\..\..\u8g2\u8g2\csrc/u8g2_d_memory.c ****   static uint8_t buf[136];
1267:..\..\..\u8g2\u8g2\csrc/u8g2_d_memory.c ****   *page_cnt = 1;
 3226              		.loc 1 1267 0
 3227 0000 0123     		movs	r3, #1
 3228 0002 0370     		strb	r3, [r0]
1268:..\..\..\u8g2\u8g2\csrc/u8g2_d_memory.c ****   return buf;
1269:..\..\..\u8g2\u8g2\csrc/u8g2_d_memory.c ****   #endif
1270:..\..\..\u8g2\u8g2\csrc/u8g2_d_memory.c **** }
 3229              		.loc 1 1270 0
 3230 0004 0048     		ldr	r0, .L344
 3231              	.LVL229:
 3232 0006 7047     		bx	lr
 3233              	.L345:
ARM GAS  C:\Users\jesse\AppData\Local\Temp\ccuy2FXa.s 			page 80


 3234              		.align	2
 3235              	.L344:
 3236 0008 00900100 		.word	.LANCHOR20+2488
 3237              		.cfi_endproc
 3238              	.LFE114:
 3239              		.size	u8g2_m_17_8_1, .-u8g2_m_17_8_1
 3240              		.section	.text.u8g2_m_17_8_2,"ax",%progbits
 3241              		.align	1
 3242              		.global	u8g2_m_17_8_2
 3243              		.thumb
 3244              		.thumb_func
 3245              		.type	u8g2_m_17_8_2, %function
 3246              	u8g2_m_17_8_2:
 3247              	.LFB115:
1271:..\..\..\u8g2\u8g2\csrc/u8g2_d_memory.c **** uint8_t *u8g2_m_17_8_2(uint8_t *page_cnt)
1272:..\..\..\u8g2\u8g2\csrc/u8g2_d_memory.c **** {
 3248              		.loc 1 1272 0
 3249              		.cfi_startproc
 3250              		@ args = 0, pretend = 0, frame = 0
 3251              		@ frame_needed = 0, uses_anonymous_args = 0
 3252              		@ link register save eliminated.
 3253              	.LVL230:
1273:..\..\..\u8g2\u8g2\csrc/u8g2_d_memory.c ****   #ifdef U8G2_USE_DYNAMIC_ALLOC
1274:..\..\..\u8g2\u8g2\csrc/u8g2_d_memory.c ****   *page_cnt = 2;
1275:..\..\..\u8g2\u8g2\csrc/u8g2_d_memory.c ****   return 0;
1276:..\..\..\u8g2\u8g2\csrc/u8g2_d_memory.c ****   #else
1277:..\..\..\u8g2\u8g2\csrc/u8g2_d_memory.c ****   static uint8_t buf[272];
1278:..\..\..\u8g2\u8g2\csrc/u8g2_d_memory.c ****   *page_cnt = 2;
 3254              		.loc 1 1278 0
 3255 0000 0223     		movs	r3, #2
 3256 0002 0370     		strb	r3, [r0]
1279:..\..\..\u8g2\u8g2\csrc/u8g2_d_memory.c ****   return buf;
1280:..\..\..\u8g2\u8g2\csrc/u8g2_d_memory.c ****   #endif
1281:..\..\..\u8g2\u8g2\csrc/u8g2_d_memory.c **** }
 3257              		.loc 1 1281 0
 3258 0004 0048     		ldr	r0, .L347
 3259              	.LVL231:
 3260 0006 7047     		bx	lr
 3261              	.L348:
 3262              		.align	2
 3263              	.L347:
 3264 0008 88900100 		.word	.LANCHOR20+2624
 3265              		.cfi_endproc
 3266              	.LFE115:
 3267              		.size	u8g2_m_17_8_2, .-u8g2_m_17_8_2
 3268              		.section	.text.u8g2_m_17_8_f,"ax",%progbits
 3269              		.align	1
 3270              		.global	u8g2_m_17_8_f
 3271              		.thumb
 3272              		.thumb_func
 3273              		.type	u8g2_m_17_8_f, %function
 3274              	u8g2_m_17_8_f:
 3275              	.LFB116:
1282:..\..\..\u8g2\u8g2\csrc/u8g2_d_memory.c **** uint8_t *u8g2_m_17_8_f(uint8_t *page_cnt)
1283:..\..\..\u8g2\u8g2\csrc/u8g2_d_memory.c **** {
 3276              		.loc 1 1283 0
 3277              		.cfi_startproc
ARM GAS  C:\Users\jesse\AppData\Local\Temp\ccuy2FXa.s 			page 81


 3278              		@ args = 0, pretend = 0, frame = 0
 3279              		@ frame_needed = 0, uses_anonymous_args = 0
 3280              		@ link register save eliminated.
 3281              	.LVL232:
1284:..\..\..\u8g2\u8g2\csrc/u8g2_d_memory.c ****   #ifdef U8G2_USE_DYNAMIC_ALLOC
1285:..\..\..\u8g2\u8g2\csrc/u8g2_d_memory.c ****   *page_cnt = 8;
1286:..\..\..\u8g2\u8g2\csrc/u8g2_d_memory.c ****   return 0;
1287:..\..\..\u8g2\u8g2\csrc/u8g2_d_memory.c ****   #else
1288:..\..\..\u8g2\u8g2\csrc/u8g2_d_memory.c ****   static uint8_t buf[1088];
1289:..\..\..\u8g2\u8g2\csrc/u8g2_d_memory.c ****   *page_cnt = 8;
 3282              		.loc 1 1289 0
 3283 0000 0823     		movs	r3, #8
 3284 0002 0370     		strb	r3, [r0]
1290:..\..\..\u8g2\u8g2\csrc/u8g2_d_memory.c ****   return buf;
1291:..\..\..\u8g2\u8g2\csrc/u8g2_d_memory.c ****   #endif
1292:..\..\..\u8g2\u8g2\csrc/u8g2_d_memory.c **** }
 3285              		.loc 1 1292 0
 3286 0004 0048     		ldr	r0, .L350
 3287              	.LVL233:
 3288 0006 7047     		bx	lr
 3289              	.L351:
 3290              		.align	2
 3291              	.L350:
 3292 0008 98910100 		.word	.LANCHOR20+2896
 3293              		.cfi_endproc
 3294              	.LFE116:
 3295              		.size	u8g2_m_17_8_f, .-u8g2_m_17_8_f
 3296              		.section	.text.u8g2_m_48_17_1,"ax",%progbits
 3297              		.align	1
 3298              		.global	u8g2_m_48_17_1
 3299              		.thumb
 3300              		.thumb_func
 3301              		.type	u8g2_m_48_17_1, %function
 3302              	u8g2_m_48_17_1:
 3303              	.LFB117:
1293:..\..\..\u8g2\u8g2\csrc/u8g2_d_memory.c **** uint8_t *u8g2_m_48_17_1(uint8_t *page_cnt)
1294:..\..\..\u8g2\u8g2\csrc/u8g2_d_memory.c **** {
 3304              		.loc 1 1294 0
 3305              		.cfi_startproc
 3306              		@ args = 0, pretend = 0, frame = 0
 3307              		@ frame_needed = 0, uses_anonymous_args = 0
 3308              		@ link register save eliminated.
 3309              	.LVL234:
1295:..\..\..\u8g2\u8g2\csrc/u8g2_d_memory.c ****   #ifdef U8G2_USE_DYNAMIC_ALLOC
1296:..\..\..\u8g2\u8g2\csrc/u8g2_d_memory.c ****   *page_cnt = 1;
1297:..\..\..\u8g2\u8g2\csrc/u8g2_d_memory.c ****   return 0;
1298:..\..\..\u8g2\u8g2\csrc/u8g2_d_memory.c ****   #else
1299:..\..\..\u8g2\u8g2\csrc/u8g2_d_memory.c ****   static uint8_t buf[384];
1300:..\..\..\u8g2\u8g2\csrc/u8g2_d_memory.c ****   *page_cnt = 1;
 3310              		.loc 1 1300 0
 3311 0000 0123     		movs	r3, #1
 3312 0002 0370     		strb	r3, [r0]
1301:..\..\..\u8g2\u8g2\csrc/u8g2_d_memory.c ****   return buf;
1302:..\..\..\u8g2\u8g2\csrc/u8g2_d_memory.c ****   #endif
1303:..\..\..\u8g2\u8g2\csrc/u8g2_d_memory.c **** }
 3313              		.loc 1 1303 0
 3314 0004 0048     		ldr	r0, .L353
ARM GAS  C:\Users\jesse\AppData\Local\Temp\ccuy2FXa.s 			page 82


 3315              	.LVL235:
 3316 0006 7047     		bx	lr
 3317              	.L354:
 3318              		.align	2
 3319              	.L353:
 3320 0008 D8950100 		.word	.LANCHOR20+3984
 3321              		.cfi_endproc
 3322              	.LFE117:
 3323              		.size	u8g2_m_48_17_1, .-u8g2_m_48_17_1
 3324              		.section	.text.u8g2_m_48_17_2,"ax",%progbits
 3325              		.align	1
 3326              		.global	u8g2_m_48_17_2
 3327              		.thumb
 3328              		.thumb_func
 3329              		.type	u8g2_m_48_17_2, %function
 3330              	u8g2_m_48_17_2:
 3331              	.LFB118:
1304:..\..\..\u8g2\u8g2\csrc/u8g2_d_memory.c **** uint8_t *u8g2_m_48_17_2(uint8_t *page_cnt)
1305:..\..\..\u8g2\u8g2\csrc/u8g2_d_memory.c **** {
 3332              		.loc 1 1305 0
 3333              		.cfi_startproc
 3334              		@ args = 0, pretend = 0, frame = 0
 3335              		@ frame_needed = 0, uses_anonymous_args = 0
 3336              		@ link register save eliminated.
 3337              	.LVL236:
1306:..\..\..\u8g2\u8g2\csrc/u8g2_d_memory.c ****   #ifdef U8G2_USE_DYNAMIC_ALLOC
1307:..\..\..\u8g2\u8g2\csrc/u8g2_d_memory.c ****   *page_cnt = 2;
1308:..\..\..\u8g2\u8g2\csrc/u8g2_d_memory.c ****   return 0;
1309:..\..\..\u8g2\u8g2\csrc/u8g2_d_memory.c ****   #else
1310:..\..\..\u8g2\u8g2\csrc/u8g2_d_memory.c ****   static uint8_t buf[768];
1311:..\..\..\u8g2\u8g2\csrc/u8g2_d_memory.c ****   *page_cnt = 2;
 3338              		.loc 1 1311 0
 3339 0000 0223     		movs	r3, #2
 3340 0002 0370     		strb	r3, [r0]
1312:..\..\..\u8g2\u8g2\csrc/u8g2_d_memory.c ****   return buf;
1313:..\..\..\u8g2\u8g2\csrc/u8g2_d_memory.c ****   #endif
1314:..\..\..\u8g2\u8g2\csrc/u8g2_d_memory.c **** }
 3341              		.loc 1 1314 0
 3342 0004 0048     		ldr	r0, .L356
 3343              	.LVL237:
 3344 0006 7047     		bx	lr
 3345              	.L357:
 3346              		.align	2
 3347              	.L356:
 3348 0008 58970100 		.word	.LANCHOR21+24
 3349              		.cfi_endproc
 3350              	.LFE118:
 3351              		.size	u8g2_m_48_17_2, .-u8g2_m_48_17_2
 3352              		.section	.text.u8g2_m_48_17_f,"ax",%progbits
 3353              		.align	1
 3354              		.global	u8g2_m_48_17_f
 3355              		.thumb
 3356              		.thumb_func
 3357              		.type	u8g2_m_48_17_f, %function
 3358              	u8g2_m_48_17_f:
 3359              	.LFB119:
1315:..\..\..\u8g2\u8g2\csrc/u8g2_d_memory.c **** uint8_t *u8g2_m_48_17_f(uint8_t *page_cnt)
ARM GAS  C:\Users\jesse\AppData\Local\Temp\ccuy2FXa.s 			page 83


1316:..\..\..\u8g2\u8g2\csrc/u8g2_d_memory.c **** {
 3360              		.loc 1 1316 0
 3361              		.cfi_startproc
 3362              		@ args = 0, pretend = 0, frame = 0
 3363              		@ frame_needed = 0, uses_anonymous_args = 0
 3364              		@ link register save eliminated.
 3365              	.LVL238:
1317:..\..\..\u8g2\u8g2\csrc/u8g2_d_memory.c ****   #ifdef U8G2_USE_DYNAMIC_ALLOC
1318:..\..\..\u8g2\u8g2\csrc/u8g2_d_memory.c ****   *page_cnt = 17;
1319:..\..\..\u8g2\u8g2\csrc/u8g2_d_memory.c ****   return 0;
1320:..\..\..\u8g2\u8g2\csrc/u8g2_d_memory.c ****   #else
1321:..\..\..\u8g2\u8g2\csrc/u8g2_d_memory.c ****   static uint8_t buf[6528];
1322:..\..\..\u8g2\u8g2\csrc/u8g2_d_memory.c ****   *page_cnt = 17;
 3366              		.loc 1 1322 0
 3367 0000 1123     		movs	r3, #17
 3368 0002 0370     		strb	r3, [r0]
1323:..\..\..\u8g2\u8g2\csrc/u8g2_d_memory.c ****   return buf;
1324:..\..\..\u8g2\u8g2\csrc/u8g2_d_memory.c ****   #endif
1325:..\..\..\u8g2\u8g2\csrc/u8g2_d_memory.c **** }
 3369              		.loc 1 1325 0
 3370 0004 0048     		ldr	r0, .L359
 3371              	.LVL239:
 3372 0006 7047     		bx	lr
 3373              	.L360:
 3374              		.align	2
 3375              	.L359:
 3376 0008 589A0100 		.word	.LANCHOR21+792
 3377              		.cfi_endproc
 3378              	.LFE119:
 3379              		.size	u8g2_m_48_17_f, .-u8g2_m_48_17_f
 3380              		.section	.text.u8g2_m_48_20_1,"ax",%progbits
 3381              		.align	1
 3382              		.global	u8g2_m_48_20_1
 3383              		.thumb
 3384              		.thumb_func
 3385              		.type	u8g2_m_48_20_1, %function
 3386              	u8g2_m_48_20_1:
 3387              	.LFB120:
1326:..\..\..\u8g2\u8g2\csrc/u8g2_d_memory.c **** uint8_t *u8g2_m_48_20_1(uint8_t *page_cnt)
1327:..\..\..\u8g2\u8g2\csrc/u8g2_d_memory.c **** {
 3388              		.loc 1 1327 0
 3389              		.cfi_startproc
 3390              		@ args = 0, pretend = 0, frame = 0
 3391              		@ frame_needed = 0, uses_anonymous_args = 0
 3392              		@ link register save eliminated.
 3393              	.LVL240:
1328:..\..\..\u8g2\u8g2\csrc/u8g2_d_memory.c ****   #ifdef U8G2_USE_DYNAMIC_ALLOC
1329:..\..\..\u8g2\u8g2\csrc/u8g2_d_memory.c ****   *page_cnt = 1;
1330:..\..\..\u8g2\u8g2\csrc/u8g2_d_memory.c ****   return 0;
1331:..\..\..\u8g2\u8g2\csrc/u8g2_d_memory.c ****   #else
1332:..\..\..\u8g2\u8g2\csrc/u8g2_d_memory.c ****   static uint8_t buf[384];
1333:..\..\..\u8g2\u8g2\csrc/u8g2_d_memory.c ****   *page_cnt = 1;
 3394              		.loc 1 1333 0
 3395 0000 0123     		movs	r3, #1
 3396 0002 0370     		strb	r3, [r0]
1334:..\..\..\u8g2\u8g2\csrc/u8g2_d_memory.c ****   return buf;
1335:..\..\..\u8g2\u8g2\csrc/u8g2_d_memory.c ****   #endif
ARM GAS  C:\Users\jesse\AppData\Local\Temp\ccuy2FXa.s 			page 84


1336:..\..\..\u8g2\u8g2\csrc/u8g2_d_memory.c **** }
 3397              		.loc 1 1336 0
 3398 0004 0048     		ldr	r0, .L362
 3399              	.LVL241:
 3400 0006 7047     		bx	lr
 3401              	.L363:
 3402              		.align	2
 3403              	.L362:
 3404 0008 D8B30100 		.word	.LANCHOR22+2976
 3405              		.cfi_endproc
 3406              	.LFE120:
 3407              		.size	u8g2_m_48_20_1, .-u8g2_m_48_20_1
 3408              		.section	.text.u8g2_m_48_20_2,"ax",%progbits
 3409              		.align	1
 3410              		.global	u8g2_m_48_20_2
 3411              		.thumb
 3412              		.thumb_func
 3413              		.type	u8g2_m_48_20_2, %function
 3414              	u8g2_m_48_20_2:
 3415              	.LFB121:
1337:..\..\..\u8g2\u8g2\csrc/u8g2_d_memory.c **** uint8_t *u8g2_m_48_20_2(uint8_t *page_cnt)
1338:..\..\..\u8g2\u8g2\csrc/u8g2_d_memory.c **** {
 3416              		.loc 1 1338 0
 3417              		.cfi_startproc
 3418              		@ args = 0, pretend = 0, frame = 0
 3419              		@ frame_needed = 0, uses_anonymous_args = 0
 3420              		@ link register save eliminated.
 3421              	.LVL242:
1339:..\..\..\u8g2\u8g2\csrc/u8g2_d_memory.c ****   #ifdef U8G2_USE_DYNAMIC_ALLOC
1340:..\..\..\u8g2\u8g2\csrc/u8g2_d_memory.c ****   *page_cnt = 2;
1341:..\..\..\u8g2\u8g2\csrc/u8g2_d_memory.c ****   return 0;
1342:..\..\..\u8g2\u8g2\csrc/u8g2_d_memory.c ****   #else
1343:..\..\..\u8g2\u8g2\csrc/u8g2_d_memory.c ****   static uint8_t buf[768];
1344:..\..\..\u8g2\u8g2\csrc/u8g2_d_memory.c ****   *page_cnt = 2;
 3422              		.loc 1 1344 0
 3423 0000 0223     		movs	r3, #2
 3424 0002 0370     		strb	r3, [r0]
1345:..\..\..\u8g2\u8g2\csrc/u8g2_d_memory.c ****   return buf;
1346:..\..\..\u8g2\u8g2\csrc/u8g2_d_memory.c ****   #endif
1347:..\..\..\u8g2\u8g2\csrc/u8g2_d_memory.c **** }
 3425              		.loc 1 1347 0
 3426 0004 0048     		ldr	r0, .L365
 3427              	.LVL243:
 3428 0006 7047     		bx	lr
 3429              	.L366:
 3430              		.align	2
 3431              	.L365:
 3432 0008 58B50100 		.word	.LANCHOR22+3360
 3433              		.cfi_endproc
 3434              	.LFE121:
 3435              		.size	u8g2_m_48_20_2, .-u8g2_m_48_20_2
 3436              		.section	.text.u8g2_m_48_20_f,"ax",%progbits
 3437              		.align	1
 3438              		.global	u8g2_m_48_20_f
 3439              		.thumb
 3440              		.thumb_func
 3441              		.type	u8g2_m_48_20_f, %function
ARM GAS  C:\Users\jesse\AppData\Local\Temp\ccuy2FXa.s 			page 85


 3442              	u8g2_m_48_20_f:
 3443              	.LFB122:
1348:..\..\..\u8g2\u8g2\csrc/u8g2_d_memory.c **** uint8_t *u8g2_m_48_20_f(uint8_t *page_cnt)
1349:..\..\..\u8g2\u8g2\csrc/u8g2_d_memory.c **** {
 3444              		.loc 1 1349 0
 3445              		.cfi_startproc
 3446              		@ args = 0, pretend = 0, frame = 0
 3447              		@ frame_needed = 0, uses_anonymous_args = 0
 3448              		@ link register save eliminated.
 3449              	.LVL244:
1350:..\..\..\u8g2\u8g2\csrc/u8g2_d_memory.c ****   #ifdef U8G2_USE_DYNAMIC_ALLOC
1351:..\..\..\u8g2\u8g2\csrc/u8g2_d_memory.c ****   *page_cnt = 20;
1352:..\..\..\u8g2\u8g2\csrc/u8g2_d_memory.c ****   return 0;
1353:..\..\..\u8g2\u8g2\csrc/u8g2_d_memory.c ****   #else
1354:..\..\..\u8g2\u8g2\csrc/u8g2_d_memory.c ****   static uint8_t buf[7680];
1355:..\..\..\u8g2\u8g2\csrc/u8g2_d_memory.c ****   *page_cnt = 20;
 3450              		.loc 1 1355 0
 3451 0000 1423     		movs	r3, #20
 3452 0002 0370     		strb	r3, [r0]
1356:..\..\..\u8g2\u8g2\csrc/u8g2_d_memory.c ****   return buf;
1357:..\..\..\u8g2\u8g2\csrc/u8g2_d_memory.c ****   #endif
1358:..\..\..\u8g2\u8g2\csrc/u8g2_d_memory.c **** }
 3453              		.loc 1 1358 0
 3454 0004 0048     		ldr	r0, .L368
 3455              	.LVL245:
 3456 0006 7047     		bx	lr
 3457              	.L369:
 3458              		.align	2
 3459              	.L368:
 3460 0008 58B80100 		.word	.LANCHOR23-216
 3461              		.cfi_endproc
 3462              	.LFE122:
 3463              		.size	u8g2_m_48_20_f, .-u8g2_m_48_20_f
 3464              		.section	.text.u8g2_m_20_12_1,"ax",%progbits
 3465              		.align	1
 3466              		.global	u8g2_m_20_12_1
 3467              		.thumb
 3468              		.thumb_func
 3469              		.type	u8g2_m_20_12_1, %function
 3470              	u8g2_m_20_12_1:
 3471              	.LFB123:
1359:..\..\..\u8g2\u8g2\csrc/u8g2_d_memory.c **** uint8_t *u8g2_m_20_12_1(uint8_t *page_cnt)
1360:..\..\..\u8g2\u8g2\csrc/u8g2_d_memory.c **** {
 3472              		.loc 1 1360 0
 3473              		.cfi_startproc
 3474              		@ args = 0, pretend = 0, frame = 0
 3475              		@ frame_needed = 0, uses_anonymous_args = 0
 3476              		@ link register save eliminated.
 3477              	.LVL246:
1361:..\..\..\u8g2\u8g2\csrc/u8g2_d_memory.c ****   #ifdef U8G2_USE_DYNAMIC_ALLOC
1362:..\..\..\u8g2\u8g2\csrc/u8g2_d_memory.c ****   *page_cnt = 1;
1363:..\..\..\u8g2\u8g2\csrc/u8g2_d_memory.c ****   return 0;
1364:..\..\..\u8g2\u8g2\csrc/u8g2_d_memory.c ****   #else
1365:..\..\..\u8g2\u8g2\csrc/u8g2_d_memory.c ****   static uint8_t buf[160];
1366:..\..\..\u8g2\u8g2\csrc/u8g2_d_memory.c ****   *page_cnt = 1;
 3478              		.loc 1 1366 0
 3479 0000 0123     		movs	r3, #1
ARM GAS  C:\Users\jesse\AppData\Local\Temp\ccuy2FXa.s 			page 86


 3480 0002 0370     		strb	r3, [r0]
1367:..\..\..\u8g2\u8g2\csrc/u8g2_d_memory.c ****   return buf;
1368:..\..\..\u8g2\u8g2\csrc/u8g2_d_memory.c ****   #endif
1369:..\..\..\u8g2\u8g2\csrc/u8g2_d_memory.c **** }
 3481              		.loc 1 1369 0
 3482 0004 0048     		ldr	r0, .L371
 3483              	.LVL247:
 3484 0006 7047     		bx	lr
 3485              	.L372:
 3486              		.align	2
 3487              	.L371:
 3488 0008 58D60100 		.word	.LANCHOR24+3120
 3489              		.cfi_endproc
 3490              	.LFE123:
 3491              		.size	u8g2_m_20_12_1, .-u8g2_m_20_12_1
 3492              		.section	.text.u8g2_m_20_12_2,"ax",%progbits
 3493              		.align	1
 3494              		.global	u8g2_m_20_12_2
 3495              		.thumb
 3496              		.thumb_func
 3497              		.type	u8g2_m_20_12_2, %function
 3498              	u8g2_m_20_12_2:
 3499              	.LFB124:
1370:..\..\..\u8g2\u8g2\csrc/u8g2_d_memory.c **** uint8_t *u8g2_m_20_12_2(uint8_t *page_cnt)
1371:..\..\..\u8g2\u8g2\csrc/u8g2_d_memory.c **** {
 3500              		.loc 1 1371 0
 3501              		.cfi_startproc
 3502              		@ args = 0, pretend = 0, frame = 0
 3503              		@ frame_needed = 0, uses_anonymous_args = 0
 3504              		@ link register save eliminated.
 3505              	.LVL248:
1372:..\..\..\u8g2\u8g2\csrc/u8g2_d_memory.c ****   #ifdef U8G2_USE_DYNAMIC_ALLOC
1373:..\..\..\u8g2\u8g2\csrc/u8g2_d_memory.c ****   *page_cnt = 2;
1374:..\..\..\u8g2\u8g2\csrc/u8g2_d_memory.c ****   return 0;
1375:..\..\..\u8g2\u8g2\csrc/u8g2_d_memory.c ****   #else
1376:..\..\..\u8g2\u8g2\csrc/u8g2_d_memory.c ****   static uint8_t buf[320];
1377:..\..\..\u8g2\u8g2\csrc/u8g2_d_memory.c ****   *page_cnt = 2;
 3506              		.loc 1 1377 0
 3507 0000 0223     		movs	r3, #2
 3508 0002 0370     		strb	r3, [r0]
1378:..\..\..\u8g2\u8g2\csrc/u8g2_d_memory.c ****   return buf;
1379:..\..\..\u8g2\u8g2\csrc/u8g2_d_memory.c ****   #endif
1380:..\..\..\u8g2\u8g2\csrc/u8g2_d_memory.c **** }
 3509              		.loc 1 1380 0
 3510 0004 0048     		ldr	r0, .L374
 3511              	.LVL249:
 3512 0006 7047     		bx	lr
 3513              	.L375:
 3514              		.align	2
 3515              	.L374:
 3516 0008 F8D60100 		.word	.LANCHOR24+3280
 3517              		.cfi_endproc
 3518              	.LFE124:
 3519              		.size	u8g2_m_20_12_2, .-u8g2_m_20_12_2
 3520              		.section	.text.u8g2_m_20_12_f,"ax",%progbits
 3521              		.align	1
 3522              		.global	u8g2_m_20_12_f
ARM GAS  C:\Users\jesse\AppData\Local\Temp\ccuy2FXa.s 			page 87


 3523              		.thumb
 3524              		.thumb_func
 3525              		.type	u8g2_m_20_12_f, %function
 3526              	u8g2_m_20_12_f:
 3527              	.LFB125:
1381:..\..\..\u8g2\u8g2\csrc/u8g2_d_memory.c **** uint8_t *u8g2_m_20_12_f(uint8_t *page_cnt)
1382:..\..\..\u8g2\u8g2\csrc/u8g2_d_memory.c **** {
 3528              		.loc 1 1382 0
 3529              		.cfi_startproc
 3530              		@ args = 0, pretend = 0, frame = 0
 3531              		@ frame_needed = 0, uses_anonymous_args = 0
 3532              		@ link register save eliminated.
 3533              	.LVL250:
1383:..\..\..\u8g2\u8g2\csrc/u8g2_d_memory.c ****   #ifdef U8G2_USE_DYNAMIC_ALLOC
1384:..\..\..\u8g2\u8g2\csrc/u8g2_d_memory.c ****   *page_cnt = 12;
1385:..\..\..\u8g2\u8g2\csrc/u8g2_d_memory.c ****   return 0;
1386:..\..\..\u8g2\u8g2\csrc/u8g2_d_memory.c ****   #else
1387:..\..\..\u8g2\u8g2\csrc/u8g2_d_memory.c ****   static uint8_t buf[1920];
1388:..\..\..\u8g2\u8g2\csrc/u8g2_d_memory.c ****   *page_cnt = 12;
 3534              		.loc 1 1388 0
 3535 0000 0C23     		movs	r3, #12
 3536 0002 0370     		strb	r3, [r0]
1389:..\..\..\u8g2\u8g2\csrc/u8g2_d_memory.c ****   return buf;
1390:..\..\..\u8g2\u8g2\csrc/u8g2_d_memory.c ****   #endif
1391:..\..\..\u8g2\u8g2\csrc/u8g2_d_memory.c **** }
 3537              		.loc 1 1391 0
 3538 0004 0048     		ldr	r0, .L377
 3539              	.LVL251:
 3540 0006 7047     		bx	lr
 3541              	.L378:
 3542              		.align	2
 3543              	.L377:
 3544 0008 38D80100 		.word	.LANCHOR24+3600
 3545              		.cfi_endproc
 3546              	.LFE125:
 3547              		.size	u8g2_m_20_12_f, .-u8g2_m_20_12_f
 3548              		.section	.text.u8g2_m_32_20_1,"ax",%progbits
 3549              		.align	1
 3550              		.global	u8g2_m_32_20_1
 3551              		.thumb
 3552              		.thumb_func
 3553              		.type	u8g2_m_32_20_1, %function
 3554              	u8g2_m_32_20_1:
 3555              	.LFB126:
1392:..\..\..\u8g2\u8g2\csrc/u8g2_d_memory.c **** uint8_t *u8g2_m_32_20_1(uint8_t *page_cnt)
1393:..\..\..\u8g2\u8g2\csrc/u8g2_d_memory.c **** {
 3556              		.loc 1 1393 0
 3557              		.cfi_startproc
 3558              		@ args = 0, pretend = 0, frame = 0
 3559              		@ frame_needed = 0, uses_anonymous_args = 0
 3560              		@ link register save eliminated.
 3561              	.LVL252:
1394:..\..\..\u8g2\u8g2\csrc/u8g2_d_memory.c ****   #ifdef U8G2_USE_DYNAMIC_ALLOC
1395:..\..\..\u8g2\u8g2\csrc/u8g2_d_memory.c ****   *page_cnt = 1;
1396:..\..\..\u8g2\u8g2\csrc/u8g2_d_memory.c ****   return 0;
1397:..\..\..\u8g2\u8g2\csrc/u8g2_d_memory.c ****   #else
1398:..\..\..\u8g2\u8g2\csrc/u8g2_d_memory.c ****   static uint8_t buf[256];
ARM GAS  C:\Users\jesse\AppData\Local\Temp\ccuy2FXa.s 			page 88


1399:..\..\..\u8g2\u8g2\csrc/u8g2_d_memory.c ****   *page_cnt = 1;
 3562              		.loc 1 1399 0
 3563 0000 0123     		movs	r3, #1
 3564 0002 0370     		strb	r3, [r0]
1400:..\..\..\u8g2\u8g2\csrc/u8g2_d_memory.c ****   return buf;
1401:..\..\..\u8g2\u8g2\csrc/u8g2_d_memory.c ****   #endif
1402:..\..\..\u8g2\u8g2\csrc/u8g2_d_memory.c **** }
 3565              		.loc 1 1402 0
 3566 0004 0048     		ldr	r0, .L380
 3567              	.LVL253:
 3568 0006 7047     		bx	lr
 3569              	.L381:
 3570              		.align	2
 3571              	.L380:
 3572 0008 B8DF0100 		.word	.LANCHOR25+1176
 3573              		.cfi_endproc
 3574              	.LFE126:
 3575              		.size	u8g2_m_32_20_1, .-u8g2_m_32_20_1
 3576              		.section	.text.u8g2_m_32_20_2,"ax",%progbits
 3577              		.align	1
 3578              		.global	u8g2_m_32_20_2
 3579              		.thumb
 3580              		.thumb_func
 3581              		.type	u8g2_m_32_20_2, %function
 3582              	u8g2_m_32_20_2:
 3583              	.LFB127:
1403:..\..\..\u8g2\u8g2\csrc/u8g2_d_memory.c **** uint8_t *u8g2_m_32_20_2(uint8_t *page_cnt)
1404:..\..\..\u8g2\u8g2\csrc/u8g2_d_memory.c **** {
 3584              		.loc 1 1404 0
 3585              		.cfi_startproc
 3586              		@ args = 0, pretend = 0, frame = 0
 3587              		@ frame_needed = 0, uses_anonymous_args = 0
 3588              		@ link register save eliminated.
 3589              	.LVL254:
1405:..\..\..\u8g2\u8g2\csrc/u8g2_d_memory.c ****   #ifdef U8G2_USE_DYNAMIC_ALLOC
1406:..\..\..\u8g2\u8g2\csrc/u8g2_d_memory.c ****   *page_cnt = 2;
1407:..\..\..\u8g2\u8g2\csrc/u8g2_d_memory.c ****   return 0;
1408:..\..\..\u8g2\u8g2\csrc/u8g2_d_memory.c ****   #else
1409:..\..\..\u8g2\u8g2\csrc/u8g2_d_memory.c ****   static uint8_t buf[512];
1410:..\..\..\u8g2\u8g2\csrc/u8g2_d_memory.c ****   *page_cnt = 2;
 3590              		.loc 1 1410 0
 3591 0000 0223     		movs	r3, #2
 3592 0002 0370     		strb	r3, [r0]
1411:..\..\..\u8g2\u8g2\csrc/u8g2_d_memory.c ****   return buf;
1412:..\..\..\u8g2\u8g2\csrc/u8g2_d_memory.c ****   #endif
1413:..\..\..\u8g2\u8g2\csrc/u8g2_d_memory.c **** }
 3593              		.loc 1 1413 0
 3594 0004 0048     		ldr	r0, .L383
 3595              	.LVL255:
 3596 0006 7047     		bx	lr
 3597              	.L384:
 3598              		.align	2
 3599              	.L383:
 3600 0008 B8E00100 		.word	.LANCHOR25+1432
 3601              		.cfi_endproc
 3602              	.LFE127:
 3603              		.size	u8g2_m_32_20_2, .-u8g2_m_32_20_2
ARM GAS  C:\Users\jesse\AppData\Local\Temp\ccuy2FXa.s 			page 89


 3604              		.section	.text.u8g2_m_32_20_f,"ax",%progbits
 3605              		.align	1
 3606              		.global	u8g2_m_32_20_f
 3607              		.thumb
 3608              		.thumb_func
 3609              		.type	u8g2_m_32_20_f, %function
 3610              	u8g2_m_32_20_f:
 3611              	.LFB128:
1414:..\..\..\u8g2\u8g2\csrc/u8g2_d_memory.c **** uint8_t *u8g2_m_32_20_f(uint8_t *page_cnt)
1415:..\..\..\u8g2\u8g2\csrc/u8g2_d_memory.c **** {
 3612              		.loc 1 1415 0
 3613              		.cfi_startproc
 3614              		@ args = 0, pretend = 0, frame = 0
 3615              		@ frame_needed = 0, uses_anonymous_args = 0
 3616              		@ link register save eliminated.
 3617              	.LVL256:
1416:..\..\..\u8g2\u8g2\csrc/u8g2_d_memory.c ****   #ifdef U8G2_USE_DYNAMIC_ALLOC
1417:..\..\..\u8g2\u8g2\csrc/u8g2_d_memory.c ****   *page_cnt = 20;
1418:..\..\..\u8g2\u8g2\csrc/u8g2_d_memory.c ****   return 0;
1419:..\..\..\u8g2\u8g2\csrc/u8g2_d_memory.c ****   #else
1420:..\..\..\u8g2\u8g2\csrc/u8g2_d_memory.c ****   static uint8_t buf[5120];
1421:..\..\..\u8g2\u8g2\csrc/u8g2_d_memory.c ****   *page_cnt = 20;
 3618              		.loc 1 1421 0
 3619 0000 1423     		movs	r3, #20
 3620 0002 0370     		strb	r3, [r0]
1422:..\..\..\u8g2\u8g2\csrc/u8g2_d_memory.c ****   return buf;
1423:..\..\..\u8g2\u8g2\csrc/u8g2_d_memory.c ****   #endif
1424:..\..\..\u8g2\u8g2\csrc/u8g2_d_memory.c **** }
 3621              		.loc 1 1424 0
 3622 0004 0048     		ldr	r0, .L386
 3623              	.LVL257:
 3624 0006 7047     		bx	lr
 3625              	.L387:
 3626              		.align	2
 3627              	.L386:
 3628 0008 B8E20100 		.word	.LANCHOR25+1944
 3629              		.cfi_endproc
 3630              	.LFE128:
 3631              		.size	u8g2_m_32_20_f, .-u8g2_m_32_20_f
 3632              		.section	.text.u8g2_m_22_13_1,"ax",%progbits
 3633              		.align	1
 3634              		.global	u8g2_m_22_13_1
 3635              		.thumb
 3636              		.thumb_func
 3637              		.type	u8g2_m_22_13_1, %function
 3638              	u8g2_m_22_13_1:
 3639              	.LFB129:
1425:..\..\..\u8g2\u8g2\csrc/u8g2_d_memory.c **** uint8_t *u8g2_m_22_13_1(uint8_t *page_cnt)
1426:..\..\..\u8g2\u8g2\csrc/u8g2_d_memory.c **** {
 3640              		.loc 1 1426 0
 3641              		.cfi_startproc
 3642              		@ args = 0, pretend = 0, frame = 0
 3643              		@ frame_needed = 0, uses_anonymous_args = 0
 3644              		@ link register save eliminated.
 3645              	.LVL258:
1427:..\..\..\u8g2\u8g2\csrc/u8g2_d_memory.c ****   #ifdef U8G2_USE_DYNAMIC_ALLOC
1428:..\..\..\u8g2\u8g2\csrc/u8g2_d_memory.c ****   *page_cnt = 1;
ARM GAS  C:\Users\jesse\AppData\Local\Temp\ccuy2FXa.s 			page 90


1429:..\..\..\u8g2\u8g2\csrc/u8g2_d_memory.c ****   return 0;
1430:..\..\..\u8g2\u8g2\csrc/u8g2_d_memory.c ****   #else
1431:..\..\..\u8g2\u8g2\csrc/u8g2_d_memory.c ****   static uint8_t buf[176];
1432:..\..\..\u8g2\u8g2\csrc/u8g2_d_memory.c ****   *page_cnt = 1;
 3646              		.loc 1 1432 0
 3647 0000 0123     		movs	r3, #1
 3648 0002 0370     		strb	r3, [r0]
1433:..\..\..\u8g2\u8g2\csrc/u8g2_d_memory.c ****   return buf;
1434:..\..\..\u8g2\u8g2\csrc/u8g2_d_memory.c ****   #endif
1435:..\..\..\u8g2\u8g2\csrc/u8g2_d_memory.c **** }
 3649              		.loc 1 1435 0
 3650 0004 0048     		ldr	r0, .L389
 3651              	.LVL259:
 3652 0006 7047     		bx	lr
 3653              	.L390:
 3654              		.align	2
 3655              	.L389:
 3656 0008 B8F60100 		.word	.LANCHOR26+2720
 3657              		.cfi_endproc
 3658              	.LFE129:
 3659              		.size	u8g2_m_22_13_1, .-u8g2_m_22_13_1
 3660              		.section	.text.u8g2_m_22_13_2,"ax",%progbits
 3661              		.align	1
 3662              		.global	u8g2_m_22_13_2
 3663              		.thumb
 3664              		.thumb_func
 3665              		.type	u8g2_m_22_13_2, %function
 3666              	u8g2_m_22_13_2:
 3667              	.LFB130:
1436:..\..\..\u8g2\u8g2\csrc/u8g2_d_memory.c **** uint8_t *u8g2_m_22_13_2(uint8_t *page_cnt)
1437:..\..\..\u8g2\u8g2\csrc/u8g2_d_memory.c **** {
 3668              		.loc 1 1437 0
 3669              		.cfi_startproc
 3670              		@ args = 0, pretend = 0, frame = 0
 3671              		@ frame_needed = 0, uses_anonymous_args = 0
 3672              		@ link register save eliminated.
 3673              	.LVL260:
1438:..\..\..\u8g2\u8g2\csrc/u8g2_d_memory.c ****   #ifdef U8G2_USE_DYNAMIC_ALLOC
1439:..\..\..\u8g2\u8g2\csrc/u8g2_d_memory.c ****   *page_cnt = 2;
1440:..\..\..\u8g2\u8g2\csrc/u8g2_d_memory.c ****   return 0;
1441:..\..\..\u8g2\u8g2\csrc/u8g2_d_memory.c ****   #else
1442:..\..\..\u8g2\u8g2\csrc/u8g2_d_memory.c ****   static uint8_t buf[352];
1443:..\..\..\u8g2\u8g2\csrc/u8g2_d_memory.c ****   *page_cnt = 2;
 3674              		.loc 1 1443 0
 3675 0000 0223     		movs	r3, #2
 3676 0002 0370     		strb	r3, [r0]
1444:..\..\..\u8g2\u8g2\csrc/u8g2_d_memory.c ****   return buf;
1445:..\..\..\u8g2\u8g2\csrc/u8g2_d_memory.c ****   #endif
1446:..\..\..\u8g2\u8g2\csrc/u8g2_d_memory.c **** }
 3677              		.loc 1 1446 0
 3678 0004 0048     		ldr	r0, .L392
 3679              	.LVL261:
 3680 0006 7047     		bx	lr
 3681              	.L393:
 3682              		.align	2
 3683              	.L392:
 3684 0008 68F70100 		.word	.LANCHOR26+2896
ARM GAS  C:\Users\jesse\AppData\Local\Temp\ccuy2FXa.s 			page 91


 3685              		.cfi_endproc
 3686              	.LFE130:
 3687              		.size	u8g2_m_22_13_2, .-u8g2_m_22_13_2
 3688              		.section	.text.u8g2_m_22_13_f,"ax",%progbits
 3689              		.align	1
 3690              		.global	u8g2_m_22_13_f
 3691              		.thumb
 3692              		.thumb_func
 3693              		.type	u8g2_m_22_13_f, %function
 3694              	u8g2_m_22_13_f:
 3695              	.LFB131:
1447:..\..\..\u8g2\u8g2\csrc/u8g2_d_memory.c **** uint8_t *u8g2_m_22_13_f(uint8_t *page_cnt)
1448:..\..\..\u8g2\u8g2\csrc/u8g2_d_memory.c **** {
 3696              		.loc 1 1448 0
 3697              		.cfi_startproc
 3698              		@ args = 0, pretend = 0, frame = 0
 3699              		@ frame_needed = 0, uses_anonymous_args = 0
 3700              		@ link register save eliminated.
 3701              	.LVL262:
1449:..\..\..\u8g2\u8g2\csrc/u8g2_d_memory.c ****   #ifdef U8G2_USE_DYNAMIC_ALLOC
1450:..\..\..\u8g2\u8g2\csrc/u8g2_d_memory.c ****   *page_cnt = 13;
1451:..\..\..\u8g2\u8g2\csrc/u8g2_d_memory.c ****   return 0;
1452:..\..\..\u8g2\u8g2\csrc/u8g2_d_memory.c ****   #else
1453:..\..\..\u8g2\u8g2\csrc/u8g2_d_memory.c ****   static uint8_t buf[2288];
1454:..\..\..\u8g2\u8g2\csrc/u8g2_d_memory.c ****   *page_cnt = 13;
 3702              		.loc 1 1454 0
 3703 0000 0D23     		movs	r3, #13
 3704 0002 0370     		strb	r3, [r0]
1455:..\..\..\u8g2\u8g2\csrc/u8g2_d_memory.c ****   return buf;
1456:..\..\..\u8g2\u8g2\csrc/u8g2_d_memory.c ****   #endif
1457:..\..\..\u8g2\u8g2\csrc/u8g2_d_memory.c **** }
 3705              		.loc 1 1457 0
 3706 0004 0048     		ldr	r0, .L395
 3707              	.LVL263:
 3708 0006 7047     		bx	lr
 3709              	.L396:
 3710              		.align	2
 3711              	.L395:
 3712 0008 C8F80100 		.word	.LANCHOR26+3248
 3713              		.cfi_endproc
 3714              	.LFE131:
 3715              		.size	u8g2_m_22_13_f, .-u8g2_m_22_13_f
 3716              		.section	.text.u8g2_m_19_4_1,"ax",%progbits
 3717              		.align	1
 3718              		.global	u8g2_m_19_4_1
 3719              		.thumb
 3720              		.thumb_func
 3721              		.type	u8g2_m_19_4_1, %function
 3722              	u8g2_m_19_4_1:
 3723              	.LFB132:
1458:..\..\..\u8g2\u8g2\csrc/u8g2_d_memory.c **** uint8_t *u8g2_m_19_4_1(uint8_t *page_cnt)
1459:..\..\..\u8g2\u8g2\csrc/u8g2_d_memory.c **** {
 3724              		.loc 1 1459 0
 3725              		.cfi_startproc
 3726              		@ args = 0, pretend = 0, frame = 0
 3727              		@ frame_needed = 0, uses_anonymous_args = 0
 3728              		@ link register save eliminated.
ARM GAS  C:\Users\jesse\AppData\Local\Temp\ccuy2FXa.s 			page 92


 3729              	.LVL264:
1460:..\..\..\u8g2\u8g2\csrc/u8g2_d_memory.c ****   #ifdef U8G2_USE_DYNAMIC_ALLOC
1461:..\..\..\u8g2\u8g2\csrc/u8g2_d_memory.c ****   *page_cnt = 1;
1462:..\..\..\u8g2\u8g2\csrc/u8g2_d_memory.c ****   return 0;
1463:..\..\..\u8g2\u8g2\csrc/u8g2_d_memory.c ****   #else
1464:..\..\..\u8g2\u8g2\csrc/u8g2_d_memory.c ****   static uint8_t buf[152];
1465:..\..\..\u8g2\u8g2\csrc/u8g2_d_memory.c ****   *page_cnt = 1;
 3730              		.loc 1 1465 0
 3731 0000 0123     		movs	r3, #1
 3732 0002 0370     		strb	r3, [r0]
1466:..\..\..\u8g2\u8g2\csrc/u8g2_d_memory.c ****   return buf;
1467:..\..\..\u8g2\u8g2\csrc/u8g2_d_memory.c ****   #endif
1468:..\..\..\u8g2\u8g2\csrc/u8g2_d_memory.c **** }
 3733              		.loc 1 1468 0
 3734 0004 0048     		ldr	r0, .L398
 3735              	.LVL265:
 3736 0006 7047     		bx	lr
 3737              	.L399:
 3738              		.align	2
 3739              	.L398:
 3740 0008 B8010200 		.word	.LANCHOR27+1192
 3741              		.cfi_endproc
 3742              	.LFE132:
 3743              		.size	u8g2_m_19_4_1, .-u8g2_m_19_4_1
 3744              		.section	.text.u8g2_m_19_4_2,"ax",%progbits
 3745              		.align	1
 3746              		.global	u8g2_m_19_4_2
 3747              		.thumb
 3748              		.thumb_func
 3749              		.type	u8g2_m_19_4_2, %function
 3750              	u8g2_m_19_4_2:
 3751              	.LFB133:
1469:..\..\..\u8g2\u8g2\csrc/u8g2_d_memory.c **** uint8_t *u8g2_m_19_4_2(uint8_t *page_cnt)
1470:..\..\..\u8g2\u8g2\csrc/u8g2_d_memory.c **** {
 3752              		.loc 1 1470 0
 3753              		.cfi_startproc
 3754              		@ args = 0, pretend = 0, frame = 0
 3755              		@ frame_needed = 0, uses_anonymous_args = 0
 3756              		@ link register save eliminated.
 3757              	.LVL266:
1471:..\..\..\u8g2\u8g2\csrc/u8g2_d_memory.c ****   #ifdef U8G2_USE_DYNAMIC_ALLOC
1472:..\..\..\u8g2\u8g2\csrc/u8g2_d_memory.c ****   *page_cnt = 2;
1473:..\..\..\u8g2\u8g2\csrc/u8g2_d_memory.c ****   return 0;
1474:..\..\..\u8g2\u8g2\csrc/u8g2_d_memory.c ****   #else
1475:..\..\..\u8g2\u8g2\csrc/u8g2_d_memory.c ****   static uint8_t buf[304];
1476:..\..\..\u8g2\u8g2\csrc/u8g2_d_memory.c ****   *page_cnt = 2;
 3758              		.loc 1 1476 0
 3759 0000 0223     		movs	r3, #2
 3760 0002 0370     		strb	r3, [r0]
1477:..\..\..\u8g2\u8g2\csrc/u8g2_d_memory.c ****   return buf;
1478:..\..\..\u8g2\u8g2\csrc/u8g2_d_memory.c ****   #endif
1479:..\..\..\u8g2\u8g2\csrc/u8g2_d_memory.c **** }
 3761              		.loc 1 1479 0
 3762 0004 0048     		ldr	r0, .L401
 3763              	.LVL267:
 3764 0006 7047     		bx	lr
 3765              	.L402:
ARM GAS  C:\Users\jesse\AppData\Local\Temp\ccuy2FXa.s 			page 93


 3766              		.align	2
 3767              	.L401:
 3768 0008 50020200 		.word	.LANCHOR27+1344
 3769              		.cfi_endproc
 3770              	.LFE133:
 3771              		.size	u8g2_m_19_4_2, .-u8g2_m_19_4_2
 3772              		.section	.text.u8g2_m_19_4_f,"ax",%progbits
 3773              		.align	1
 3774              		.global	u8g2_m_19_4_f
 3775              		.thumb
 3776              		.thumb_func
 3777              		.type	u8g2_m_19_4_f, %function
 3778              	u8g2_m_19_4_f:
 3779              	.LFB134:
1480:..\..\..\u8g2\u8g2\csrc/u8g2_d_memory.c **** uint8_t *u8g2_m_19_4_f(uint8_t *page_cnt)
1481:..\..\..\u8g2\u8g2\csrc/u8g2_d_memory.c **** {
 3780              		.loc 1 1481 0
 3781              		.cfi_startproc
 3782              		@ args = 0, pretend = 0, frame = 0
 3783              		@ frame_needed = 0, uses_anonymous_args = 0
 3784              		@ link register save eliminated.
 3785              	.LVL268:
1482:..\..\..\u8g2\u8g2\csrc/u8g2_d_memory.c ****   #ifdef U8G2_USE_DYNAMIC_ALLOC
1483:..\..\..\u8g2\u8g2\csrc/u8g2_d_memory.c ****   *page_cnt = 4;
1484:..\..\..\u8g2\u8g2\csrc/u8g2_d_memory.c ****   return 0;
1485:..\..\..\u8g2\u8g2\csrc/u8g2_d_memory.c ****   #else
1486:..\..\..\u8g2\u8g2\csrc/u8g2_d_memory.c ****   static uint8_t buf[608];
1487:..\..\..\u8g2\u8g2\csrc/u8g2_d_memory.c ****   *page_cnt = 4;
 3786              		.loc 1 1487 0
 3787 0000 0423     		movs	r3, #4
 3788 0002 0370     		strb	r3, [r0]
1488:..\..\..\u8g2\u8g2\csrc/u8g2_d_memory.c ****   return buf;
1489:..\..\..\u8g2\u8g2\csrc/u8g2_d_memory.c ****   #endif
1490:..\..\..\u8g2\u8g2\csrc/u8g2_d_memory.c **** }
 3789              		.loc 1 1490 0
 3790 0004 0048     		ldr	r0, .L404
 3791              	.LVL269:
 3792 0006 7047     		bx	lr
 3793              	.L405:
 3794              		.align	2
 3795              	.L404:
 3796 0008 80030200 		.word	.LANCHOR27+1648
 3797              		.cfi_endproc
 3798              	.LFE134:
 3799              		.size	u8g2_m_19_4_f, .-u8g2_m_19_4_f
 3800              		.section	.text.u8g2_m_20_10_1,"ax",%progbits
 3801              		.align	1
 3802              		.global	u8g2_m_20_10_1
 3803              		.thumb
 3804              		.thumb_func
 3805              		.type	u8g2_m_20_10_1, %function
 3806              	u8g2_m_20_10_1:
 3807              	.LFB135:
1491:..\..\..\u8g2\u8g2\csrc/u8g2_d_memory.c **** uint8_t *u8g2_m_20_10_1(uint8_t *page_cnt)
1492:..\..\..\u8g2\u8g2\csrc/u8g2_d_memory.c **** {
 3808              		.loc 1 1492 0
 3809              		.cfi_startproc
ARM GAS  C:\Users\jesse\AppData\Local\Temp\ccuy2FXa.s 			page 94


 3810              		@ args = 0, pretend = 0, frame = 0
 3811              		@ frame_needed = 0, uses_anonymous_args = 0
 3812              		@ link register save eliminated.
 3813              	.LVL270:
1493:..\..\..\u8g2\u8g2\csrc/u8g2_d_memory.c ****   #ifdef U8G2_USE_DYNAMIC_ALLOC
1494:..\..\..\u8g2\u8g2\csrc/u8g2_d_memory.c ****   *page_cnt = 1;
1495:..\..\..\u8g2\u8g2\csrc/u8g2_d_memory.c ****   return 0;
1496:..\..\..\u8g2\u8g2\csrc/u8g2_d_memory.c ****   #else
1497:..\..\..\u8g2\u8g2\csrc/u8g2_d_memory.c ****   static uint8_t buf[160];
1498:..\..\..\u8g2\u8g2\csrc/u8g2_d_memory.c ****   *page_cnt = 1;
 3814              		.loc 1 1498 0
 3815 0000 0123     		movs	r3, #1
 3816 0002 0370     		strb	r3, [r0]
1499:..\..\..\u8g2\u8g2\csrc/u8g2_d_memory.c ****   return buf;
1500:..\..\..\u8g2\u8g2\csrc/u8g2_d_memory.c ****   #endif
1501:..\..\..\u8g2\u8g2\csrc/u8g2_d_memory.c **** }
 3817              		.loc 1 1501 0
 3818 0004 0048     		ldr	r0, .L407
 3819              	.LVL271:
 3820 0006 7047     		bx	lr
 3821              	.L408:
 3822              		.align	2
 3823              	.L407:
 3824 0008 E0050200 		.word	.LANCHOR27+2256
 3825              		.cfi_endproc
 3826              	.LFE135:
 3827              		.size	u8g2_m_20_10_1, .-u8g2_m_20_10_1
 3828              		.section	.text.u8g2_m_20_10_2,"ax",%progbits
 3829              		.align	1
 3830              		.global	u8g2_m_20_10_2
 3831              		.thumb
 3832              		.thumb_func
 3833              		.type	u8g2_m_20_10_2, %function
 3834              	u8g2_m_20_10_2:
 3835              	.LFB136:
1502:..\..\..\u8g2\u8g2\csrc/u8g2_d_memory.c **** uint8_t *u8g2_m_20_10_2(uint8_t *page_cnt)
1503:..\..\..\u8g2\u8g2\csrc/u8g2_d_memory.c **** {
 3836              		.loc 1 1503 0
 3837              		.cfi_startproc
 3838              		@ args = 0, pretend = 0, frame = 0
 3839              		@ frame_needed = 0, uses_anonymous_args = 0
 3840              		@ link register save eliminated.
 3841              	.LVL272:
1504:..\..\..\u8g2\u8g2\csrc/u8g2_d_memory.c ****   #ifdef U8G2_USE_DYNAMIC_ALLOC
1505:..\..\..\u8g2\u8g2\csrc/u8g2_d_memory.c ****   *page_cnt = 2;
1506:..\..\..\u8g2\u8g2\csrc/u8g2_d_memory.c ****   return 0;
1507:..\..\..\u8g2\u8g2\csrc/u8g2_d_memory.c ****   #else
1508:..\..\..\u8g2\u8g2\csrc/u8g2_d_memory.c ****   static uint8_t buf[320];
1509:..\..\..\u8g2\u8g2\csrc/u8g2_d_memory.c ****   *page_cnt = 2;
 3842              		.loc 1 1509 0
 3843 0000 0223     		movs	r3, #2
 3844 0002 0370     		strb	r3, [r0]
1510:..\..\..\u8g2\u8g2\csrc/u8g2_d_memory.c ****   return buf;
1511:..\..\..\u8g2\u8g2\csrc/u8g2_d_memory.c ****   #endif
1512:..\..\..\u8g2\u8g2\csrc/u8g2_d_memory.c **** }
 3845              		.loc 1 1512 0
 3846 0004 0048     		ldr	r0, .L410
ARM GAS  C:\Users\jesse\AppData\Local\Temp\ccuy2FXa.s 			page 95


 3847              	.LVL273:
 3848 0006 7047     		bx	lr
 3849              	.L411:
 3850              		.align	2
 3851              	.L410:
 3852 0008 80060200 		.word	.LANCHOR27+2416
 3853              		.cfi_endproc
 3854              	.LFE136:
 3855              		.size	u8g2_m_20_10_2, .-u8g2_m_20_10_2
 3856              		.section	.text.u8g2_m_20_10_f,"ax",%progbits
 3857              		.align	1
 3858              		.global	u8g2_m_20_10_f
 3859              		.thumb
 3860              		.thumb_func
 3861              		.type	u8g2_m_20_10_f, %function
 3862              	u8g2_m_20_10_f:
 3863              	.LFB137:
1513:..\..\..\u8g2\u8g2\csrc/u8g2_d_memory.c **** uint8_t *u8g2_m_20_10_f(uint8_t *page_cnt)
1514:..\..\..\u8g2\u8g2\csrc/u8g2_d_memory.c **** {
 3864              		.loc 1 1514 0
 3865              		.cfi_startproc
 3866              		@ args = 0, pretend = 0, frame = 0
 3867              		@ frame_needed = 0, uses_anonymous_args = 0
 3868              		@ link register save eliminated.
 3869              	.LVL274:
1515:..\..\..\u8g2\u8g2\csrc/u8g2_d_memory.c ****   #ifdef U8G2_USE_DYNAMIC_ALLOC
1516:..\..\..\u8g2\u8g2\csrc/u8g2_d_memory.c ****   *page_cnt = 10;
1517:..\..\..\u8g2\u8g2\csrc/u8g2_d_memory.c ****   return 0;
1518:..\..\..\u8g2\u8g2\csrc/u8g2_d_memory.c ****   #else
1519:..\..\..\u8g2\u8g2\csrc/u8g2_d_memory.c ****   static uint8_t buf[1600];
1520:..\..\..\u8g2\u8g2\csrc/u8g2_d_memory.c ****   *page_cnt = 10;
 3870              		.loc 1 1520 0
 3871 0000 0A23     		movs	r3, #10
 3872 0002 0370     		strb	r3, [r0]
1521:..\..\..\u8g2\u8g2\csrc/u8g2_d_memory.c ****   return buf;
1522:..\..\..\u8g2\u8g2\csrc/u8g2_d_memory.c ****   #endif
1523:..\..\..\u8g2\u8g2\csrc/u8g2_d_memory.c **** }
 3873              		.loc 1 1523 0
 3874 0004 0048     		ldr	r0, .L413
 3875              	.LVL275:
 3876 0006 7047     		bx	lr
 3877              	.L414:
 3878              		.align	2
 3879              	.L413:
 3880 0008 C0070200 		.word	.LANCHOR27+2736
 3881              		.cfi_endproc
 3882              	.LFE137:
 3883              		.size	u8g2_m_20_10_f, .-u8g2_m_20_10_f
 3884              		.section	.text.u8g2_m_20_17_1,"ax",%progbits
 3885              		.align	1
 3886              		.global	u8g2_m_20_17_1
 3887              		.thumb
 3888              		.thumb_func
 3889              		.type	u8g2_m_20_17_1, %function
 3890              	u8g2_m_20_17_1:
 3891              	.LFB138:
1524:..\..\..\u8g2\u8g2\csrc/u8g2_d_memory.c **** uint8_t *u8g2_m_20_17_1(uint8_t *page_cnt)
ARM GAS  C:\Users\jesse\AppData\Local\Temp\ccuy2FXa.s 			page 96


1525:..\..\..\u8g2\u8g2\csrc/u8g2_d_memory.c **** {
 3892              		.loc 1 1525 0
 3893              		.cfi_startproc
 3894              		@ args = 0, pretend = 0, frame = 0
 3895              		@ frame_needed = 0, uses_anonymous_args = 0
 3896              		@ link register save eliminated.
 3897              	.LVL276:
1526:..\..\..\u8g2\u8g2\csrc/u8g2_d_memory.c ****   #ifdef U8G2_USE_DYNAMIC_ALLOC
1527:..\..\..\u8g2\u8g2\csrc/u8g2_d_memory.c ****   *page_cnt = 1;
1528:..\..\..\u8g2\u8g2\csrc/u8g2_d_memory.c ****   return 0;
1529:..\..\..\u8g2\u8g2\csrc/u8g2_d_memory.c ****   #else
1530:..\..\..\u8g2\u8g2\csrc/u8g2_d_memory.c ****   static uint8_t buf[160];
1531:..\..\..\u8g2\u8g2\csrc/u8g2_d_memory.c ****   *page_cnt = 1;
 3898              		.loc 1 1531 0
 3899 0000 0123     		movs	r3, #1
 3900 0002 0370     		strb	r3, [r0]
1532:..\..\..\u8g2\u8g2\csrc/u8g2_d_memory.c ****   return buf;
1533:..\..\..\u8g2\u8g2\csrc/u8g2_d_memory.c ****   #endif
1534:..\..\..\u8g2\u8g2\csrc/u8g2_d_memory.c **** }
 3901              		.loc 1 1534 0
 3902 0004 0048     		ldr	r0, .L416
 3903              	.LVL277:
 3904 0006 7047     		bx	lr
 3905              	.L417:
 3906              		.align	2
 3907              	.L416:
 3908 0008 000E0200 		.word	.LANCHOR28-8
 3909              		.cfi_endproc
 3910              	.LFE138:
 3911              		.size	u8g2_m_20_17_1, .-u8g2_m_20_17_1
 3912              		.section	.text.u8g2_m_20_17_2,"ax",%progbits
 3913              		.align	1
 3914              		.global	u8g2_m_20_17_2
 3915              		.thumb
 3916              		.thumb_func
 3917              		.type	u8g2_m_20_17_2, %function
 3918              	u8g2_m_20_17_2:
 3919              	.LFB139:
1535:..\..\..\u8g2\u8g2\csrc/u8g2_d_memory.c **** uint8_t *u8g2_m_20_17_2(uint8_t *page_cnt)
1536:..\..\..\u8g2\u8g2\csrc/u8g2_d_memory.c **** {
 3920              		.loc 1 1536 0
 3921              		.cfi_startproc
 3922              		@ args = 0, pretend = 0, frame = 0
 3923              		@ frame_needed = 0, uses_anonymous_args = 0
 3924              		@ link register save eliminated.
 3925              	.LVL278:
1537:..\..\..\u8g2\u8g2\csrc/u8g2_d_memory.c ****   #ifdef U8G2_USE_DYNAMIC_ALLOC
1538:..\..\..\u8g2\u8g2\csrc/u8g2_d_memory.c ****   *page_cnt = 2;
1539:..\..\..\u8g2\u8g2\csrc/u8g2_d_memory.c ****   return 0;
1540:..\..\..\u8g2\u8g2\csrc/u8g2_d_memory.c ****   #else
1541:..\..\..\u8g2\u8g2\csrc/u8g2_d_memory.c ****   static uint8_t buf[320];
1542:..\..\..\u8g2\u8g2\csrc/u8g2_d_memory.c ****   *page_cnt = 2;
 3926              		.loc 1 1542 0
 3927 0000 0223     		movs	r3, #2
 3928 0002 0370     		strb	r3, [r0]
1543:..\..\..\u8g2\u8g2\csrc/u8g2_d_memory.c ****   return buf;
1544:..\..\..\u8g2\u8g2\csrc/u8g2_d_memory.c ****   #endif
ARM GAS  C:\Users\jesse\AppData\Local\Temp\ccuy2FXa.s 			page 97


1545:..\..\..\u8g2\u8g2\csrc/u8g2_d_memory.c **** }
 3929              		.loc 1 1545 0
 3930 0004 0048     		ldr	r0, .L419
 3931              	.LVL279:
 3932 0006 7047     		bx	lr
 3933              	.L420:
 3934              		.align	2
 3935              	.L419:
 3936 0008 A00E0200 		.word	.LANCHOR28+152
 3937              		.cfi_endproc
 3938              	.LFE139:
 3939              		.size	u8g2_m_20_17_2, .-u8g2_m_20_17_2
 3940              		.section	.text.u8g2_m_20_17_f,"ax",%progbits
 3941              		.align	1
 3942              		.global	u8g2_m_20_17_f
 3943              		.thumb
 3944              		.thumb_func
 3945              		.type	u8g2_m_20_17_f, %function
 3946              	u8g2_m_20_17_f:
 3947              	.LFB140:
1546:..\..\..\u8g2\u8g2\csrc/u8g2_d_memory.c **** uint8_t *u8g2_m_20_17_f(uint8_t *page_cnt)
1547:..\..\..\u8g2\u8g2\csrc/u8g2_d_memory.c **** {
 3948              		.loc 1 1547 0
 3949              		.cfi_startproc
 3950              		@ args = 0, pretend = 0, frame = 0
 3951              		@ frame_needed = 0, uses_anonymous_args = 0
 3952              		@ link register save eliminated.
 3953              	.LVL280:
1548:..\..\..\u8g2\u8g2\csrc/u8g2_d_memory.c ****   #ifdef U8G2_USE_DYNAMIC_ALLOC
1549:..\..\..\u8g2\u8g2\csrc/u8g2_d_memory.c ****   *page_cnt = 17;
1550:..\..\..\u8g2\u8g2\csrc/u8g2_d_memory.c ****   return 0;
1551:..\..\..\u8g2\u8g2\csrc/u8g2_d_memory.c ****   #else
1552:..\..\..\u8g2\u8g2\csrc/u8g2_d_memory.c ****   static uint8_t buf[2720];
1553:..\..\..\u8g2\u8g2\csrc/u8g2_d_memory.c ****   *page_cnt = 17;
 3954              		.loc 1 1553 0
 3955 0000 1123     		movs	r3, #17
 3956 0002 0370     		strb	r3, [r0]
1554:..\..\..\u8g2\u8g2\csrc/u8g2_d_memory.c ****   return buf;
1555:..\..\..\u8g2\u8g2\csrc/u8g2_d_memory.c ****   #endif
1556:..\..\..\u8g2\u8g2\csrc/u8g2_d_memory.c **** }
 3957              		.loc 1 1556 0
 3958 0004 0048     		ldr	r0, .L422
 3959              	.LVL281:
 3960 0006 7047     		bx	lr
 3961              	.L423:
 3962              		.align	2
 3963              	.L422:
 3964 0008 E00F0200 		.word	.LANCHOR28+472
 3965              		.cfi_endproc
 3966              	.LFE140:
 3967              		.size	u8g2_m_20_17_f, .-u8g2_m_20_17_f
 3968              		.section	.text.u8g2_m_22_9_1,"ax",%progbits
 3969              		.align	1
 3970              		.global	u8g2_m_22_9_1
 3971              		.thumb
 3972              		.thumb_func
 3973              		.type	u8g2_m_22_9_1, %function
ARM GAS  C:\Users\jesse\AppData\Local\Temp\ccuy2FXa.s 			page 98


 3974              	u8g2_m_22_9_1:
 3975              	.LFB141:
1557:..\..\..\u8g2\u8g2\csrc/u8g2_d_memory.c **** uint8_t *u8g2_m_22_9_1(uint8_t *page_cnt)
1558:..\..\..\u8g2\u8g2\csrc/u8g2_d_memory.c **** {
 3976              		.loc 1 1558 0
 3977              		.cfi_startproc
 3978              		@ args = 0, pretend = 0, frame = 0
 3979              		@ frame_needed = 0, uses_anonymous_args = 0
 3980              		@ link register save eliminated.
 3981              	.LVL282:
1559:..\..\..\u8g2\u8g2\csrc/u8g2_d_memory.c ****   #ifdef U8G2_USE_DYNAMIC_ALLOC
1560:..\..\..\u8g2\u8g2\csrc/u8g2_d_memory.c ****   *page_cnt = 1;
1561:..\..\..\u8g2\u8g2\csrc/u8g2_d_memory.c ****   return 0;
1562:..\..\..\u8g2\u8g2\csrc/u8g2_d_memory.c ****   #else
1563:..\..\..\u8g2\u8g2\csrc/u8g2_d_memory.c ****   static uint8_t buf[176];
1564:..\..\..\u8g2\u8g2\csrc/u8g2_d_memory.c ****   *page_cnt = 1;
 3982              		.loc 1 1564 0
 3983 0000 0123     		movs	r3, #1
 3984 0002 0370     		strb	r3, [r0]
1565:..\..\..\u8g2\u8g2\csrc/u8g2_d_memory.c ****   return buf;
1566:..\..\..\u8g2\u8g2\csrc/u8g2_d_memory.c ****   #endif
1567:..\..\..\u8g2\u8g2\csrc/u8g2_d_memory.c **** }
 3985              		.loc 1 1567 0
 3986 0004 0048     		ldr	r0, .L425
 3987              	.LVL283:
 3988 0006 7047     		bx	lr
 3989              	.L426:
 3990              		.align	2
 3991              	.L425:
 3992 0008 801A0200 		.word	.LANCHOR28+3192
 3993              		.cfi_endproc
 3994              	.LFE141:
 3995              		.size	u8g2_m_22_9_1, .-u8g2_m_22_9_1
 3996              		.section	.text.u8g2_m_22_9_2,"ax",%progbits
 3997              		.align	1
 3998              		.global	u8g2_m_22_9_2
 3999              		.thumb
 4000              		.thumb_func
 4001              		.type	u8g2_m_22_9_2, %function
 4002              	u8g2_m_22_9_2:
 4003              	.LFB142:
1568:..\..\..\u8g2\u8g2\csrc/u8g2_d_memory.c **** uint8_t *u8g2_m_22_9_2(uint8_t *page_cnt)
1569:..\..\..\u8g2\u8g2\csrc/u8g2_d_memory.c **** {
 4004              		.loc 1 1569 0
 4005              		.cfi_startproc
 4006              		@ args = 0, pretend = 0, frame = 0
 4007              		@ frame_needed = 0, uses_anonymous_args = 0
 4008              		@ link register save eliminated.
 4009              	.LVL284:
1570:..\..\..\u8g2\u8g2\csrc/u8g2_d_memory.c ****   #ifdef U8G2_USE_DYNAMIC_ALLOC
1571:..\..\..\u8g2\u8g2\csrc/u8g2_d_memory.c ****   *page_cnt = 2;
1572:..\..\..\u8g2\u8g2\csrc/u8g2_d_memory.c ****   return 0;
1573:..\..\..\u8g2\u8g2\csrc/u8g2_d_memory.c ****   #else
1574:..\..\..\u8g2\u8g2\csrc/u8g2_d_memory.c ****   static uint8_t buf[352];
1575:..\..\..\u8g2\u8g2\csrc/u8g2_d_memory.c ****   *page_cnt = 2;
 4010              		.loc 1 1575 0
 4011 0000 0223     		movs	r3, #2
ARM GAS  C:\Users\jesse\AppData\Local\Temp\ccuy2FXa.s 			page 99


 4012 0002 0370     		strb	r3, [r0]
1576:..\..\..\u8g2\u8g2\csrc/u8g2_d_memory.c ****   return buf;
1577:..\..\..\u8g2\u8g2\csrc/u8g2_d_memory.c ****   #endif
1578:..\..\..\u8g2\u8g2\csrc/u8g2_d_memory.c **** }
 4013              		.loc 1 1578 0
 4014 0004 0048     		ldr	r0, .L428
 4015              	.LVL285:
 4016 0006 7047     		bx	lr
 4017              	.L429:
 4018              		.align	2
 4019              	.L428:
 4020 0008 301B0200 		.word	.LANCHOR28+3368
 4021              		.cfi_endproc
 4022              	.LFE142:
 4023              		.size	u8g2_m_22_9_2, .-u8g2_m_22_9_2
 4024              		.section	.text.u8g2_m_22_9_f,"ax",%progbits
 4025              		.align	1
 4026              		.global	u8g2_m_22_9_f
 4027              		.thumb
 4028              		.thumb_func
 4029              		.type	u8g2_m_22_9_f, %function
 4030              	u8g2_m_22_9_f:
 4031              	.LFB143:
1579:..\..\..\u8g2\u8g2\csrc/u8g2_d_memory.c **** uint8_t *u8g2_m_22_9_f(uint8_t *page_cnt)
1580:..\..\..\u8g2\u8g2\csrc/u8g2_d_memory.c **** {
 4032              		.loc 1 1580 0
 4033              		.cfi_startproc
 4034              		@ args = 0, pretend = 0, frame = 0
 4035              		@ frame_needed = 0, uses_anonymous_args = 0
 4036              		@ link register save eliminated.
 4037              	.LVL286:
1581:..\..\..\u8g2\u8g2\csrc/u8g2_d_memory.c ****   #ifdef U8G2_USE_DYNAMIC_ALLOC
1582:..\..\..\u8g2\u8g2\csrc/u8g2_d_memory.c ****   *page_cnt = 9;
1583:..\..\..\u8g2\u8g2\csrc/u8g2_d_memory.c ****   return 0;
1584:..\..\..\u8g2\u8g2\csrc/u8g2_d_memory.c ****   #else
1585:..\..\..\u8g2\u8g2\csrc/u8g2_d_memory.c ****   static uint8_t buf[1584];
1586:..\..\..\u8g2\u8g2\csrc/u8g2_d_memory.c ****   *page_cnt = 9;
 4038              		.loc 1 1586 0
 4039 0000 0923     		movs	r3, #9
 4040 0002 0370     		strb	r3, [r0]
1587:..\..\..\u8g2\u8g2\csrc/u8g2_d_memory.c ****   return buf;
1588:..\..\..\u8g2\u8g2\csrc/u8g2_d_memory.c ****   #endif
1589:..\..\..\u8g2\u8g2\csrc/u8g2_d_memory.c **** }
 4041              		.loc 1 1589 0
 4042 0004 0048     		ldr	r0, .L431
 4043              	.LVL287:
 4044 0006 7047     		bx	lr
 4045              	.L432:
 4046              		.align	2
 4047              	.L431:
 4048 0008 901C0200 		.word	.LANCHOR28+3720
 4049              		.cfi_endproc
 4050              	.LFE143:
 4051              		.size	u8g2_m_22_9_f, .-u8g2_m_22_9_f
 4052              		.section	.text.u8g2_m_25_25_1,"ax",%progbits
 4053              		.align	1
 4054              		.global	u8g2_m_25_25_1
ARM GAS  C:\Users\jesse\AppData\Local\Temp\ccuy2FXa.s 			page 100


 4055              		.thumb
 4056              		.thumb_func
 4057              		.type	u8g2_m_25_25_1, %function
 4058              	u8g2_m_25_25_1:
 4059              	.LFB144:
1590:..\..\..\u8g2\u8g2\csrc/u8g2_d_memory.c **** uint8_t *u8g2_m_25_25_1(uint8_t *page_cnt)
1591:..\..\..\u8g2\u8g2\csrc/u8g2_d_memory.c **** {
 4060              		.loc 1 1591 0
 4061              		.cfi_startproc
 4062              		@ args = 0, pretend = 0, frame = 0
 4063              		@ frame_needed = 0, uses_anonymous_args = 0
 4064              		@ link register save eliminated.
 4065              	.LVL288:
1592:..\..\..\u8g2\u8g2\csrc/u8g2_d_memory.c ****   #ifdef U8G2_USE_DYNAMIC_ALLOC
1593:..\..\..\u8g2\u8g2\csrc/u8g2_d_memory.c ****   *page_cnt = 1;
1594:..\..\..\u8g2\u8g2\csrc/u8g2_d_memory.c ****   return 0;
1595:..\..\..\u8g2\u8g2\csrc/u8g2_d_memory.c ****   #else
1596:..\..\..\u8g2\u8g2\csrc/u8g2_d_memory.c ****   static uint8_t buf[200];
1597:..\..\..\u8g2\u8g2\csrc/u8g2_d_memory.c ****   *page_cnt = 1;
 4066              		.loc 1 1597 0
 4067 0000 0123     		movs	r3, #1
 4068 0002 0370     		strb	r3, [r0]
1598:..\..\..\u8g2\u8g2\csrc/u8g2_d_memory.c ****   return buf;
1599:..\..\..\u8g2\u8g2\csrc/u8g2_d_memory.c ****   #endif
1600:..\..\..\u8g2\u8g2\csrc/u8g2_d_memory.c **** }
 4069              		.loc 1 1600 0
 4070 0004 0048     		ldr	r0, .L434
 4071              	.LVL289:
 4072 0006 7047     		bx	lr
 4073              	.L435:
 4074              		.align	2
 4075              	.L434:
 4076 0008 C0220200 		.word	.LANCHOR29+960
 4077              		.cfi_endproc
 4078              	.LFE144:
 4079              		.size	u8g2_m_25_25_1, .-u8g2_m_25_25_1
 4080              		.section	.text.u8g2_m_25_25_2,"ax",%progbits
 4081              		.align	1
 4082              		.global	u8g2_m_25_25_2
 4083              		.thumb
 4084              		.thumb_func
 4085              		.type	u8g2_m_25_25_2, %function
 4086              	u8g2_m_25_25_2:
 4087              	.LFB145:
1601:..\..\..\u8g2\u8g2\csrc/u8g2_d_memory.c **** uint8_t *u8g2_m_25_25_2(uint8_t *page_cnt)
1602:..\..\..\u8g2\u8g2\csrc/u8g2_d_memory.c **** {
 4088              		.loc 1 1602 0
 4089              		.cfi_startproc
 4090              		@ args = 0, pretend = 0, frame = 0
 4091              		@ frame_needed = 0, uses_anonymous_args = 0
 4092              		@ link register save eliminated.
 4093              	.LVL290:
1603:..\..\..\u8g2\u8g2\csrc/u8g2_d_memory.c ****   #ifdef U8G2_USE_DYNAMIC_ALLOC
1604:..\..\..\u8g2\u8g2\csrc/u8g2_d_memory.c ****   *page_cnt = 2;
1605:..\..\..\u8g2\u8g2\csrc/u8g2_d_memory.c ****   return 0;
1606:..\..\..\u8g2\u8g2\csrc/u8g2_d_memory.c ****   #else
1607:..\..\..\u8g2\u8g2\csrc/u8g2_d_memory.c ****   static uint8_t buf[400];
ARM GAS  C:\Users\jesse\AppData\Local\Temp\ccuy2FXa.s 			page 101


1608:..\..\..\u8g2\u8g2\csrc/u8g2_d_memory.c ****   *page_cnt = 2;
 4094              		.loc 1 1608 0
 4095 0000 0223     		movs	r3, #2
 4096 0002 0370     		strb	r3, [r0]
1609:..\..\..\u8g2\u8g2\csrc/u8g2_d_memory.c ****   return buf;
1610:..\..\..\u8g2\u8g2\csrc/u8g2_d_memory.c ****   #endif
1611:..\..\..\u8g2\u8g2\csrc/u8g2_d_memory.c **** }
 4097              		.loc 1 1611 0
 4098 0004 0048     		ldr	r0, .L437
 4099              	.LVL291:
 4100 0006 7047     		bx	lr
 4101              	.L438:
 4102              		.align	2
 4103              	.L437:
 4104 0008 88230200 		.word	.LANCHOR29+1160
 4105              		.cfi_endproc
 4106              	.LFE145:
 4107              		.size	u8g2_m_25_25_2, .-u8g2_m_25_25_2
 4108              		.section	.text.u8g2_m_25_25_f,"ax",%progbits
 4109              		.align	1
 4110              		.global	u8g2_m_25_25_f
 4111              		.thumb
 4112              		.thumb_func
 4113              		.type	u8g2_m_25_25_f, %function
 4114              	u8g2_m_25_25_f:
 4115              	.LFB146:
1612:..\..\..\u8g2\u8g2\csrc/u8g2_d_memory.c **** uint8_t *u8g2_m_25_25_f(uint8_t *page_cnt)
1613:..\..\..\u8g2\u8g2\csrc/u8g2_d_memory.c **** {
 4116              		.loc 1 1613 0
 4117              		.cfi_startproc
 4118              		@ args = 0, pretend = 0, frame = 0
 4119              		@ frame_needed = 0, uses_anonymous_args = 0
 4120              		@ link register save eliminated.
 4121              	.LVL292:
1614:..\..\..\u8g2\u8g2\csrc/u8g2_d_memory.c ****   #ifdef U8G2_USE_DYNAMIC_ALLOC
1615:..\..\..\u8g2\u8g2\csrc/u8g2_d_memory.c ****   *page_cnt = 25;
1616:..\..\..\u8g2\u8g2\csrc/u8g2_d_memory.c ****   return 0;
1617:..\..\..\u8g2\u8g2\csrc/u8g2_d_memory.c ****   #else
1618:..\..\..\u8g2\u8g2\csrc/u8g2_d_memory.c ****   static uint8_t buf[5000];
1619:..\..\..\u8g2\u8g2\csrc/u8g2_d_memory.c ****   *page_cnt = 25;
 4122              		.loc 1 1619 0
 4123 0000 1923     		movs	r3, #25
 4124 0002 0370     		strb	r3, [r0]
1620:..\..\..\u8g2\u8g2\csrc/u8g2_d_memory.c ****   return buf;
1621:..\..\..\u8g2\u8g2\csrc/u8g2_d_memory.c ****   #endif
1622:..\..\..\u8g2\u8g2\csrc/u8g2_d_memory.c **** }
 4125              		.loc 1 1622 0
 4126 0004 0048     		ldr	r0, .L440
 4127              	.LVL293:
 4128 0006 7047     		bx	lr
 4129              	.L441:
 4130              		.align	2
 4131              	.L440:
 4132 0008 18250200 		.word	.LANCHOR29+1560
 4133              		.cfi_endproc
 4134              	.LFE146:
 4135              		.size	u8g2_m_25_25_f, .-u8g2_m_25_25_f
ARM GAS  C:\Users\jesse\AppData\Local\Temp\ccuy2FXa.s 			page 102


 4136              		.section	.text.u8g2_m_37_16_1,"ax",%progbits
 4137              		.align	1
 4138              		.global	u8g2_m_37_16_1
 4139              		.thumb
 4140              		.thumb_func
 4141              		.type	u8g2_m_37_16_1, %function
 4142              	u8g2_m_37_16_1:
 4143              	.LFB147:
1623:..\..\..\u8g2\u8g2\csrc/u8g2_d_memory.c **** uint8_t *u8g2_m_37_16_1(uint8_t *page_cnt)
1624:..\..\..\u8g2\u8g2\csrc/u8g2_d_memory.c **** {
 4144              		.loc 1 1624 0
 4145              		.cfi_startproc
 4146              		@ args = 0, pretend = 0, frame = 0
 4147              		@ frame_needed = 0, uses_anonymous_args = 0
 4148              		@ link register save eliminated.
 4149              	.LVL294:
1625:..\..\..\u8g2\u8g2\csrc/u8g2_d_memory.c ****   #ifdef U8G2_USE_DYNAMIC_ALLOC
1626:..\..\..\u8g2\u8g2\csrc/u8g2_d_memory.c ****   *page_cnt = 1;
1627:..\..\..\u8g2\u8g2\csrc/u8g2_d_memory.c ****   return 0;
1628:..\..\..\u8g2\u8g2\csrc/u8g2_d_memory.c ****   #else
1629:..\..\..\u8g2\u8g2\csrc/u8g2_d_memory.c ****   static uint8_t buf[296];
1630:..\..\..\u8g2\u8g2\csrc/u8g2_d_memory.c ****   *page_cnt = 1;
 4150              		.loc 1 1630 0
 4151 0000 0123     		movs	r3, #1
 4152 0002 0370     		strb	r3, [r0]
1631:..\..\..\u8g2\u8g2\csrc/u8g2_d_memory.c ****   return buf;
1632:..\..\..\u8g2\u8g2\csrc/u8g2_d_memory.c ****   #endif
1633:..\..\..\u8g2\u8g2\csrc/u8g2_d_memory.c **** }
 4153              		.loc 1 1633 0
 4154 0004 0048     		ldr	r0, .L443
 4155              	.LVL295:
 4156 0006 7047     		bx	lr
 4157              	.L444:
 4158              		.align	2
 4159              	.L443:
 4160 0008 A0380200 		.word	.LANCHOR30+2216
 4161              		.cfi_endproc
 4162              	.LFE147:
 4163              		.size	u8g2_m_37_16_1, .-u8g2_m_37_16_1
 4164              		.section	.text.u8g2_m_37_16_2,"ax",%progbits
 4165              		.align	1
 4166              		.global	u8g2_m_37_16_2
 4167              		.thumb
 4168              		.thumb_func
 4169              		.type	u8g2_m_37_16_2, %function
 4170              	u8g2_m_37_16_2:
 4171              	.LFB148:
1634:..\..\..\u8g2\u8g2\csrc/u8g2_d_memory.c **** uint8_t *u8g2_m_37_16_2(uint8_t *page_cnt)
1635:..\..\..\u8g2\u8g2\csrc/u8g2_d_memory.c **** {
 4172              		.loc 1 1635 0
 4173              		.cfi_startproc
 4174              		@ args = 0, pretend = 0, frame = 0
 4175              		@ frame_needed = 0, uses_anonymous_args = 0
 4176              		@ link register save eliminated.
 4177              	.LVL296:
1636:..\..\..\u8g2\u8g2\csrc/u8g2_d_memory.c ****   #ifdef U8G2_USE_DYNAMIC_ALLOC
1637:..\..\..\u8g2\u8g2\csrc/u8g2_d_memory.c ****   *page_cnt = 2;
ARM GAS  C:\Users\jesse\AppData\Local\Temp\ccuy2FXa.s 			page 103


1638:..\..\..\u8g2\u8g2\csrc/u8g2_d_memory.c ****   return 0;
1639:..\..\..\u8g2\u8g2\csrc/u8g2_d_memory.c ****   #else
1640:..\..\..\u8g2\u8g2\csrc/u8g2_d_memory.c ****   static uint8_t buf[592];
1641:..\..\..\u8g2\u8g2\csrc/u8g2_d_memory.c ****   *page_cnt = 2;
 4178              		.loc 1 1641 0
 4179 0000 0223     		movs	r3, #2
 4180 0002 0370     		strb	r3, [r0]
1642:..\..\..\u8g2\u8g2\csrc/u8g2_d_memory.c ****   return buf;
1643:..\..\..\u8g2\u8g2\csrc/u8g2_d_memory.c ****   #endif
1644:..\..\..\u8g2\u8g2\csrc/u8g2_d_memory.c **** }
 4181              		.loc 1 1644 0
 4182 0004 0048     		ldr	r0, .L446
 4183              	.LVL297:
 4184 0006 7047     		bx	lr
 4185              	.L447:
 4186              		.align	2
 4187              	.L446:
 4188 0008 C8390200 		.word	.LANCHOR30+2512
 4189              		.cfi_endproc
 4190              	.LFE148:
 4191              		.size	u8g2_m_37_16_2, .-u8g2_m_37_16_2
 4192              		.section	.text.u8g2_m_37_16_f,"ax",%progbits
 4193              		.align	1
 4194              		.global	u8g2_m_37_16_f
 4195              		.thumb
 4196              		.thumb_func
 4197              		.type	u8g2_m_37_16_f, %function
 4198              	u8g2_m_37_16_f:
 4199              	.LFB149:
1645:..\..\..\u8g2\u8g2\csrc/u8g2_d_memory.c **** uint8_t *u8g2_m_37_16_f(uint8_t *page_cnt)
1646:..\..\..\u8g2\u8g2\csrc/u8g2_d_memory.c **** {
 4200              		.loc 1 1646 0
 4201              		.cfi_startproc
 4202              		@ args = 0, pretend = 0, frame = 0
 4203              		@ frame_needed = 0, uses_anonymous_args = 0
 4204              		@ link register save eliminated.
 4205              	.LVL298:
1647:..\..\..\u8g2\u8g2\csrc/u8g2_d_memory.c ****   #ifdef U8G2_USE_DYNAMIC_ALLOC
1648:..\..\..\u8g2\u8g2\csrc/u8g2_d_memory.c ****   *page_cnt = 16;
1649:..\..\..\u8g2\u8g2\csrc/u8g2_d_memory.c ****   return 0;
1650:..\..\..\u8g2\u8g2\csrc/u8g2_d_memory.c ****   #else
1651:..\..\..\u8g2\u8g2\csrc/u8g2_d_memory.c ****   static uint8_t buf[4736];
1652:..\..\..\u8g2\u8g2\csrc/u8g2_d_memory.c ****   *page_cnt = 16;
 4206              		.loc 1 1652 0
 4207 0000 1023     		movs	r3, #16
 4208 0002 0370     		strb	r3, [r0]
1653:..\..\..\u8g2\u8g2\csrc/u8g2_d_memory.c ****   return buf;
1654:..\..\..\u8g2\u8g2\csrc/u8g2_d_memory.c ****   #endif
1655:..\..\..\u8g2\u8g2\csrc/u8g2_d_memory.c **** }
 4209              		.loc 1 1655 0
 4210 0004 0048     		ldr	r0, .L449
 4211              	.LVL299:
 4212 0006 7047     		bx	lr
 4213              	.L450:
 4214              		.align	2
 4215              	.L449:
 4216 0008 183C0200 		.word	.LANCHOR30+3104
ARM GAS  C:\Users\jesse\AppData\Local\Temp\ccuy2FXa.s 			page 104


 4217              		.cfi_endproc
 4218              	.LFE149:
 4219              		.size	u8g2_m_37_16_f, .-u8g2_m_37_16_f
 4220              		.section	.text.u8g2_m_8_1_1,"ax",%progbits
 4221              		.align	1
 4222              		.global	u8g2_m_8_1_1
 4223              		.thumb
 4224              		.thumb_func
 4225              		.type	u8g2_m_8_1_1, %function
 4226              	u8g2_m_8_1_1:
 4227              	.LFB150:
1656:..\..\..\u8g2\u8g2\csrc/u8g2_d_memory.c **** uint8_t *u8g2_m_8_1_1(uint8_t *page_cnt)
1657:..\..\..\u8g2\u8g2\csrc/u8g2_d_memory.c **** {
 4228              		.loc 1 1657 0
 4229              		.cfi_startproc
 4230              		@ args = 0, pretend = 0, frame = 0
 4231              		@ frame_needed = 0, uses_anonymous_args = 0
 4232              		@ link register save eliminated.
 4233              	.LVL300:
1658:..\..\..\u8g2\u8g2\csrc/u8g2_d_memory.c ****   #ifdef U8G2_USE_DYNAMIC_ALLOC
1659:..\..\..\u8g2\u8g2\csrc/u8g2_d_memory.c ****   *page_cnt = 1;
1660:..\..\..\u8g2\u8g2\csrc/u8g2_d_memory.c ****   return 0;
1661:..\..\..\u8g2\u8g2\csrc/u8g2_d_memory.c ****   #else
1662:..\..\..\u8g2\u8g2\csrc/u8g2_d_memory.c ****   static uint8_t buf[64];
1663:..\..\..\u8g2\u8g2\csrc/u8g2_d_memory.c ****   *page_cnt = 1;
 4234              		.loc 1 1663 0
 4235 0000 0123     		movs	r3, #1
 4236 0002 0370     		strb	r3, [r0]
1664:..\..\..\u8g2\u8g2\csrc/u8g2_d_memory.c ****   return buf;
1665:..\..\..\u8g2\u8g2\csrc/u8g2_d_memory.c ****   #endif
1666:..\..\..\u8g2\u8g2\csrc/u8g2_d_memory.c **** }
 4237              		.loc 1 1666 0
 4238 0004 0048     		ldr	r0, .L452
 4239              	.LVL301:
 4240 0006 7047     		bx	lr
 4241              	.L453:
 4242              		.align	2
 4243              	.L452:
 4244 0008 984E0200 		.word	.LANCHOR31+3496
 4245              		.cfi_endproc
 4246              	.LFE150:
 4247              		.size	u8g2_m_8_1_1, .-u8g2_m_8_1_1
 4248              		.section	.text.u8g2_m_8_1_2,"ax",%progbits
 4249              		.align	1
 4250              		.global	u8g2_m_8_1_2
 4251              		.thumb
 4252              		.thumb_func
 4253              		.type	u8g2_m_8_1_2, %function
 4254              	u8g2_m_8_1_2:
 4255              	.LFB151:
1667:..\..\..\u8g2\u8g2\csrc/u8g2_d_memory.c **** uint8_t *u8g2_m_8_1_2(uint8_t *page_cnt)
1668:..\..\..\u8g2\u8g2\csrc/u8g2_d_memory.c **** {
 4256              		.loc 1 1668 0
 4257              		.cfi_startproc
 4258              		@ args = 0, pretend = 0, frame = 0
 4259              		@ frame_needed = 0, uses_anonymous_args = 0
 4260              		@ link register save eliminated.
ARM GAS  C:\Users\jesse\AppData\Local\Temp\ccuy2FXa.s 			page 105


 4261              	.LVL302:
1669:..\..\..\u8g2\u8g2\csrc/u8g2_d_memory.c ****   #ifdef U8G2_USE_DYNAMIC_ALLOC
1670:..\..\..\u8g2\u8g2\csrc/u8g2_d_memory.c ****   *page_cnt = 2;
1671:..\..\..\u8g2\u8g2\csrc/u8g2_d_memory.c ****   return 0;
1672:..\..\..\u8g2\u8g2\csrc/u8g2_d_memory.c ****   #else
1673:..\..\..\u8g2\u8g2\csrc/u8g2_d_memory.c ****   static uint8_t buf[128];
1674:..\..\..\u8g2\u8g2\csrc/u8g2_d_memory.c ****   *page_cnt = 2;
 4262              		.loc 1 1674 0
 4263 0000 0223     		movs	r3, #2
 4264 0002 0370     		strb	r3, [r0]
1675:..\..\..\u8g2\u8g2\csrc/u8g2_d_memory.c ****   return buf;
1676:..\..\..\u8g2\u8g2\csrc/u8g2_d_memory.c ****   #endif
1677:..\..\..\u8g2\u8g2\csrc/u8g2_d_memory.c **** }
 4265              		.loc 1 1677 0
 4266 0004 0048     		ldr	r0, .L455
 4267              	.LVL303:
 4268 0006 7047     		bx	lr
 4269              	.L456:
 4270              		.align	2
 4271              	.L455:
 4272 0008 D84E0200 		.word	.LANCHOR31+3560
 4273              		.cfi_endproc
 4274              	.LFE151:
 4275              		.size	u8g2_m_8_1_2, .-u8g2_m_8_1_2
 4276              		.section	.text.u8g2_m_8_1_f,"ax",%progbits
 4277              		.align	1
 4278              		.global	u8g2_m_8_1_f
 4279              		.thumb
 4280              		.thumb_func
 4281              		.type	u8g2_m_8_1_f, %function
 4282              	u8g2_m_8_1_f:
 4283              	.LFB152:
1678:..\..\..\u8g2\u8g2\csrc/u8g2_d_memory.c **** uint8_t *u8g2_m_8_1_f(uint8_t *page_cnt)
1679:..\..\..\u8g2\u8g2\csrc/u8g2_d_memory.c **** {
 4284              		.loc 1 1679 0
 4285              		.cfi_startproc
 4286              		@ args = 0, pretend = 0, frame = 0
 4287              		@ frame_needed = 0, uses_anonymous_args = 0
 4288              		@ link register save eliminated.
 4289              	.LVL304:
1680:..\..\..\u8g2\u8g2\csrc/u8g2_d_memory.c ****   #ifdef U8G2_USE_DYNAMIC_ALLOC
1681:..\..\..\u8g2\u8g2\csrc/u8g2_d_memory.c ****   *page_cnt = 1;
1682:..\..\..\u8g2\u8g2\csrc/u8g2_d_memory.c ****   return 0;
1683:..\..\..\u8g2\u8g2\csrc/u8g2_d_memory.c ****   #else
1684:..\..\..\u8g2\u8g2\csrc/u8g2_d_memory.c ****   static uint8_t buf[64];
1685:..\..\..\u8g2\u8g2\csrc/u8g2_d_memory.c ****   *page_cnt = 1;
 4290              		.loc 1 1685 0
 4291 0000 0123     		movs	r3, #1
 4292 0002 0370     		strb	r3, [r0]
1686:..\..\..\u8g2\u8g2\csrc/u8g2_d_memory.c ****   return buf;
1687:..\..\..\u8g2\u8g2\csrc/u8g2_d_memory.c ****   #endif
1688:..\..\..\u8g2\u8g2\csrc/u8g2_d_memory.c **** }
 4293              		.loc 1 1688 0
 4294 0004 0048     		ldr	r0, .L458
 4295              	.LVL305:
 4296 0006 7047     		bx	lr
 4297              	.L459:
ARM GAS  C:\Users\jesse\AppData\Local\Temp\ccuy2FXa.s 			page 106


 4298              		.align	2
 4299              	.L458:
 4300 0008 584F0200 		.word	.LANCHOR31+3688
 4301              		.cfi_endproc
 4302              	.LFE152:
 4303              		.size	u8g2_m_8_1_f, .-u8g2_m_8_1_f
 4304              		.section	.text.u8g2_m_4_1_1,"ax",%progbits
 4305              		.align	1
 4306              		.global	u8g2_m_4_1_1
 4307              		.thumb
 4308              		.thumb_func
 4309              		.type	u8g2_m_4_1_1, %function
 4310              	u8g2_m_4_1_1:
 4311              	.LFB153:
1689:..\..\..\u8g2\u8g2\csrc/u8g2_d_memory.c **** uint8_t *u8g2_m_4_1_1(uint8_t *page_cnt)
1690:..\..\..\u8g2\u8g2\csrc/u8g2_d_memory.c **** {
 4312              		.loc 1 1690 0
 4313              		.cfi_startproc
 4314              		@ args = 0, pretend = 0, frame = 0
 4315              		@ frame_needed = 0, uses_anonymous_args = 0
 4316              		@ link register save eliminated.
 4317              	.LVL306:
1691:..\..\..\u8g2\u8g2\csrc/u8g2_d_memory.c ****   #ifdef U8G2_USE_DYNAMIC_ALLOC
1692:..\..\..\u8g2\u8g2\csrc/u8g2_d_memory.c ****   *page_cnt = 1;
1693:..\..\..\u8g2\u8g2\csrc/u8g2_d_memory.c ****   return 0;
1694:..\..\..\u8g2\u8g2\csrc/u8g2_d_memory.c ****   #else
1695:..\..\..\u8g2\u8g2\csrc/u8g2_d_memory.c ****   static uint8_t buf[32];
1696:..\..\..\u8g2\u8g2\csrc/u8g2_d_memory.c ****   *page_cnt = 1;
 4318              		.loc 1 1696 0
 4319 0000 0123     		movs	r3, #1
 4320 0002 0370     		strb	r3, [r0]
1697:..\..\..\u8g2\u8g2\csrc/u8g2_d_memory.c ****   return buf;
1698:..\..\..\u8g2\u8g2\csrc/u8g2_d_memory.c ****   #endif
1699:..\..\..\u8g2\u8g2\csrc/u8g2_d_memory.c **** }
 4321              		.loc 1 1699 0
 4322 0004 0048     		ldr	r0, .L461
 4323              	.LVL307:
 4324 0006 7047     		bx	lr
 4325              	.L462:
 4326              		.align	2
 4327              	.L461:
 4328 0008 984F0200 		.word	.LANCHOR31+3752
 4329              		.cfi_endproc
 4330              	.LFE153:
 4331              		.size	u8g2_m_4_1_1, .-u8g2_m_4_1_1
 4332              		.section	.text.u8g2_m_4_1_2,"ax",%progbits
 4333              		.align	1
 4334              		.global	u8g2_m_4_1_2
 4335              		.thumb
 4336              		.thumb_func
 4337              		.type	u8g2_m_4_1_2, %function
 4338              	u8g2_m_4_1_2:
 4339              	.LFB154:
1700:..\..\..\u8g2\u8g2\csrc/u8g2_d_memory.c **** uint8_t *u8g2_m_4_1_2(uint8_t *page_cnt)
1701:..\..\..\u8g2\u8g2\csrc/u8g2_d_memory.c **** {
 4340              		.loc 1 1701 0
 4341              		.cfi_startproc
ARM GAS  C:\Users\jesse\AppData\Local\Temp\ccuy2FXa.s 			page 107


 4342              		@ args = 0, pretend = 0, frame = 0
 4343              		@ frame_needed = 0, uses_anonymous_args = 0
 4344              		@ link register save eliminated.
 4345              	.LVL308:
1702:..\..\..\u8g2\u8g2\csrc/u8g2_d_memory.c ****   #ifdef U8G2_USE_DYNAMIC_ALLOC
1703:..\..\..\u8g2\u8g2\csrc/u8g2_d_memory.c ****   *page_cnt = 2;
1704:..\..\..\u8g2\u8g2\csrc/u8g2_d_memory.c ****   return 0;
1705:..\..\..\u8g2\u8g2\csrc/u8g2_d_memory.c ****   #else
1706:..\..\..\u8g2\u8g2\csrc/u8g2_d_memory.c ****   static uint8_t buf[64];
1707:..\..\..\u8g2\u8g2\csrc/u8g2_d_memory.c ****   *page_cnt = 2;
 4346              		.loc 1 1707 0
 4347 0000 0223     		movs	r3, #2
 4348 0002 0370     		strb	r3, [r0]
1708:..\..\..\u8g2\u8g2\csrc/u8g2_d_memory.c ****   return buf;
1709:..\..\..\u8g2\u8g2\csrc/u8g2_d_memory.c ****   #endif
1710:..\..\..\u8g2\u8g2\csrc/u8g2_d_memory.c **** }
 4349              		.loc 1 1710 0
 4350 0004 0048     		ldr	r0, .L464
 4351              	.LVL309:
 4352 0006 7047     		bx	lr
 4353              	.L465:
 4354              		.align	2
 4355              	.L464:
 4356 0008 B84F0200 		.word	.LANCHOR31+3784
 4357              		.cfi_endproc
 4358              	.LFE154:
 4359              		.size	u8g2_m_4_1_2, .-u8g2_m_4_1_2
 4360              		.section	.text.u8g2_m_4_1_f,"ax",%progbits
 4361              		.align	1
 4362              		.global	u8g2_m_4_1_f
 4363              		.thumb
 4364              		.thumb_func
 4365              		.type	u8g2_m_4_1_f, %function
 4366              	u8g2_m_4_1_f:
 4367              	.LFB155:
1711:..\..\..\u8g2\u8g2\csrc/u8g2_d_memory.c **** uint8_t *u8g2_m_4_1_f(uint8_t *page_cnt)
1712:..\..\..\u8g2\u8g2\csrc/u8g2_d_memory.c **** {
 4368              		.loc 1 1712 0
 4369              		.cfi_startproc
 4370              		@ args = 0, pretend = 0, frame = 0
 4371              		@ frame_needed = 0, uses_anonymous_args = 0
 4372              		@ link register save eliminated.
 4373              	.LVL310:
1713:..\..\..\u8g2\u8g2\csrc/u8g2_d_memory.c ****   #ifdef U8G2_USE_DYNAMIC_ALLOC
1714:..\..\..\u8g2\u8g2\csrc/u8g2_d_memory.c ****   *page_cnt = 1;
1715:..\..\..\u8g2\u8g2\csrc/u8g2_d_memory.c ****   return 0;
1716:..\..\..\u8g2\u8g2\csrc/u8g2_d_memory.c ****   #else
1717:..\..\..\u8g2\u8g2\csrc/u8g2_d_memory.c ****   static uint8_t buf[32];
1718:..\..\..\u8g2\u8g2\csrc/u8g2_d_memory.c ****   *page_cnt = 1;
 4374              		.loc 1 1718 0
 4375 0000 0123     		movs	r3, #1
 4376 0002 0370     		strb	r3, [r0]
1719:..\..\..\u8g2\u8g2\csrc/u8g2_d_memory.c ****   return buf;
1720:..\..\..\u8g2\u8g2\csrc/u8g2_d_memory.c ****   #endif
1721:..\..\..\u8g2\u8g2\csrc/u8g2_d_memory.c **** }
 4377              		.loc 1 1721 0
 4378 0004 0048     		ldr	r0, .L467
ARM GAS  C:\Users\jesse\AppData\Local\Temp\ccuy2FXa.s 			page 108


 4379              	.LVL311:
 4380 0006 7047     		bx	lr
 4381              	.L468:
 4382              		.align	2
 4383              	.L467:
 4384 0008 F84F0200 		.word	.LANCHOR31+3848
 4385              		.cfi_endproc
 4386              	.LFE155:
 4387              		.size	u8g2_m_4_1_f, .-u8g2_m_4_1_f
 4388              		.section	.text.u8g2_m_1_1_1,"ax",%progbits
 4389              		.align	1
 4390              		.global	u8g2_m_1_1_1
 4391              		.thumb
 4392              		.thumb_func
 4393              		.type	u8g2_m_1_1_1, %function
 4394              	u8g2_m_1_1_1:
 4395              	.LFB156:
1722:..\..\..\u8g2\u8g2\csrc/u8g2_d_memory.c **** uint8_t *u8g2_m_1_1_1(uint8_t *page_cnt)
1723:..\..\..\u8g2\u8g2\csrc/u8g2_d_memory.c **** {
 4396              		.loc 1 1723 0
 4397              		.cfi_startproc
 4398              		@ args = 0, pretend = 0, frame = 0
 4399              		@ frame_needed = 0, uses_anonymous_args = 0
 4400              		@ link register save eliminated.
 4401              	.LVL312:
1724:..\..\..\u8g2\u8g2\csrc/u8g2_d_memory.c ****   #ifdef U8G2_USE_DYNAMIC_ALLOC
1725:..\..\..\u8g2\u8g2\csrc/u8g2_d_memory.c ****   *page_cnt = 1;
1726:..\..\..\u8g2\u8g2\csrc/u8g2_d_memory.c ****   return 0;
1727:..\..\..\u8g2\u8g2\csrc/u8g2_d_memory.c ****   #else
1728:..\..\..\u8g2\u8g2\csrc/u8g2_d_memory.c ****   static uint8_t buf[8];
1729:..\..\..\u8g2\u8g2\csrc/u8g2_d_memory.c ****   *page_cnt = 1;
 4402              		.loc 1 1729 0
 4403 0000 0123     		movs	r3, #1
 4404 0002 0370     		strb	r3, [r0]
1730:..\..\..\u8g2\u8g2\csrc/u8g2_d_memory.c ****   return buf;
1731:..\..\..\u8g2\u8g2\csrc/u8g2_d_memory.c ****   #endif
1732:..\..\..\u8g2\u8g2\csrc/u8g2_d_memory.c **** }
 4405              		.loc 1 1732 0
 4406 0004 0048     		ldr	r0, .L470
 4407              	.LVL313:
 4408 0006 7047     		bx	lr
 4409              	.L471:
 4410              		.align	2
 4411              	.L470:
 4412 0008 18500200 		.word	.LANCHOR31+3880
 4413              		.cfi_endproc
 4414              	.LFE156:
 4415              		.size	u8g2_m_1_1_1, .-u8g2_m_1_1_1
 4416              		.section	.text.u8g2_m_1_1_2,"ax",%progbits
 4417              		.align	1
 4418              		.global	u8g2_m_1_1_2
 4419              		.thumb
 4420              		.thumb_func
 4421              		.type	u8g2_m_1_1_2, %function
 4422              	u8g2_m_1_1_2:
 4423              	.LFB157:
1733:..\..\..\u8g2\u8g2\csrc/u8g2_d_memory.c **** uint8_t *u8g2_m_1_1_2(uint8_t *page_cnt)
ARM GAS  C:\Users\jesse\AppData\Local\Temp\ccuy2FXa.s 			page 109


1734:..\..\..\u8g2\u8g2\csrc/u8g2_d_memory.c **** {
 4424              		.loc 1 1734 0
 4425              		.cfi_startproc
 4426              		@ args = 0, pretend = 0, frame = 0
 4427              		@ frame_needed = 0, uses_anonymous_args = 0
 4428              		@ link register save eliminated.
 4429              	.LVL314:
1735:..\..\..\u8g2\u8g2\csrc/u8g2_d_memory.c ****   #ifdef U8G2_USE_DYNAMIC_ALLOC
1736:..\..\..\u8g2\u8g2\csrc/u8g2_d_memory.c ****   *page_cnt = 2;
1737:..\..\..\u8g2\u8g2\csrc/u8g2_d_memory.c ****   return 0;
1738:..\..\..\u8g2\u8g2\csrc/u8g2_d_memory.c ****   #else
1739:..\..\..\u8g2\u8g2\csrc/u8g2_d_memory.c ****   static uint8_t buf[16];
1740:..\..\..\u8g2\u8g2\csrc/u8g2_d_memory.c ****   *page_cnt = 2;
 4430              		.loc 1 1740 0
 4431 0000 0223     		movs	r3, #2
 4432 0002 0370     		strb	r3, [r0]
1741:..\..\..\u8g2\u8g2\csrc/u8g2_d_memory.c ****   return buf;
1742:..\..\..\u8g2\u8g2\csrc/u8g2_d_memory.c ****   #endif
1743:..\..\..\u8g2\u8g2\csrc/u8g2_d_memory.c **** }
 4433              		.loc 1 1743 0
 4434 0004 0048     		ldr	r0, .L473
 4435              	.LVL315:
 4436 0006 7047     		bx	lr
 4437              	.L474:
 4438              		.align	2
 4439              	.L473:
 4440 0008 20500200 		.word	.LANCHOR31+3888
 4441              		.cfi_endproc
 4442              	.LFE157:
 4443              		.size	u8g2_m_1_1_2, .-u8g2_m_1_1_2
 4444              		.section	.text.u8g2_m_1_1_f,"ax",%progbits
 4445              		.align	1
 4446              		.global	u8g2_m_1_1_f
 4447              		.thumb
 4448              		.thumb_func
 4449              		.type	u8g2_m_1_1_f, %function
 4450              	u8g2_m_1_1_f:
 4451              	.LFB158:
1744:..\..\..\u8g2\u8g2\csrc/u8g2_d_memory.c **** uint8_t *u8g2_m_1_1_f(uint8_t *page_cnt)
1745:..\..\..\u8g2\u8g2\csrc/u8g2_d_memory.c **** {
 4452              		.loc 1 1745 0
 4453              		.cfi_startproc
 4454              		@ args = 0, pretend = 0, frame = 0
 4455              		@ frame_needed = 0, uses_anonymous_args = 0
 4456              		@ link register save eliminated.
 4457              	.LVL316:
1746:..\..\..\u8g2\u8g2\csrc/u8g2_d_memory.c ****   #ifdef U8G2_USE_DYNAMIC_ALLOC
1747:..\..\..\u8g2\u8g2\csrc/u8g2_d_memory.c ****   *page_cnt = 1;
1748:..\..\..\u8g2\u8g2\csrc/u8g2_d_memory.c ****   return 0;
1749:..\..\..\u8g2\u8g2\csrc/u8g2_d_memory.c ****   #else
1750:..\..\..\u8g2\u8g2\csrc/u8g2_d_memory.c ****   static uint8_t buf[8];
1751:..\..\..\u8g2\u8g2\csrc/u8g2_d_memory.c ****   *page_cnt = 1;
 4458              		.loc 1 1751 0
 4459 0000 0123     		movs	r3, #1
 4460 0002 0370     		strb	r3, [r0]
1752:..\..\..\u8g2\u8g2\csrc/u8g2_d_memory.c ****   return buf;
1753:..\..\..\u8g2\u8g2\csrc/u8g2_d_memory.c ****   #endif
ARM GAS  C:\Users\jesse\AppData\Local\Temp\ccuy2FXa.s 			page 110


1754:..\..\..\u8g2\u8g2\csrc/u8g2_d_memory.c **** }
 4461              		.loc 1 1754 0
 4462 0004 0048     		ldr	r0, .L476
 4463              	.LVL317:
 4464 0006 7047     		bx	lr
 4465              	.L477:
 4466              		.align	2
 4467              	.L476:
 4468 0008 30500200 		.word	.LANCHOR31+3904
 4469              		.cfi_endproc
 4470              	.LFE158:
 4471              		.size	u8g2_m_1_1_f, .-u8g2_m_1_1_f
 4472              		.section	.text.u8g2_m_20_2_1,"ax",%progbits
 4473              		.align	1
 4474              		.global	u8g2_m_20_2_1
 4475              		.thumb
 4476              		.thumb_func
 4477              		.type	u8g2_m_20_2_1, %function
 4478              	u8g2_m_20_2_1:
 4479              	.LFB159:
1755:..\..\..\u8g2\u8g2\csrc/u8g2_d_memory.c **** uint8_t *u8g2_m_20_2_1(uint8_t *page_cnt)
1756:..\..\..\u8g2\u8g2\csrc/u8g2_d_memory.c **** {
 4480              		.loc 1 1756 0
 4481              		.cfi_startproc
 4482              		@ args = 0, pretend = 0, frame = 0
 4483              		@ frame_needed = 0, uses_anonymous_args = 0
 4484              		@ link register save eliminated.
 4485              	.LVL318:
1757:..\..\..\u8g2\u8g2\csrc/u8g2_d_memory.c ****   #ifdef U8G2_USE_DYNAMIC_ALLOC
1758:..\..\..\u8g2\u8g2\csrc/u8g2_d_memory.c ****   *page_cnt = 1;
1759:..\..\..\u8g2\u8g2\csrc/u8g2_d_memory.c ****   return 0;
1760:..\..\..\u8g2\u8g2\csrc/u8g2_d_memory.c ****   #else
1761:..\..\..\u8g2\u8g2\csrc/u8g2_d_memory.c ****   static uint8_t buf[160];
1762:..\..\..\u8g2\u8g2\csrc/u8g2_d_memory.c ****   *page_cnt = 1;
 4486              		.loc 1 1762 0
 4487 0000 0123     		movs	r3, #1
 4488 0002 0370     		strb	r3, [r0]
1763:..\..\..\u8g2\u8g2\csrc/u8g2_d_memory.c ****   return buf;
1764:..\..\..\u8g2\u8g2\csrc/u8g2_d_memory.c ****   #endif
1765:..\..\..\u8g2\u8g2\csrc/u8g2_d_memory.c **** }
 4489              		.loc 1 1765 0
 4490 0004 0048     		ldr	r0, .L479
 4491              	.LVL319:
 4492 0006 7047     		bx	lr
 4493              	.L480:
 4494              		.align	2
 4495              	.L479:
 4496 0008 38500200 		.word	.LANCHOR31+3912
 4497              		.cfi_endproc
 4498              	.LFE159:
 4499              		.size	u8g2_m_20_2_1, .-u8g2_m_20_2_1
 4500              		.section	.text.u8g2_m_20_2_2,"ax",%progbits
 4501              		.align	1
 4502              		.global	u8g2_m_20_2_2
 4503              		.thumb
 4504              		.thumb_func
 4505              		.type	u8g2_m_20_2_2, %function
ARM GAS  C:\Users\jesse\AppData\Local\Temp\ccuy2FXa.s 			page 111


 4506              	u8g2_m_20_2_2:
 4507              	.LFB160:
1766:..\..\..\u8g2\u8g2\csrc/u8g2_d_memory.c **** uint8_t *u8g2_m_20_2_2(uint8_t *page_cnt)
1767:..\..\..\u8g2\u8g2\csrc/u8g2_d_memory.c **** {
 4508              		.loc 1 1767 0
 4509              		.cfi_startproc
 4510              		@ args = 0, pretend = 0, frame = 0
 4511              		@ frame_needed = 0, uses_anonymous_args = 0
 4512              		@ link register save eliminated.
 4513              	.LVL320:
1768:..\..\..\u8g2\u8g2\csrc/u8g2_d_memory.c ****   #ifdef U8G2_USE_DYNAMIC_ALLOC
1769:..\..\..\u8g2\u8g2\csrc/u8g2_d_memory.c ****   *page_cnt = 2;
1770:..\..\..\u8g2\u8g2\csrc/u8g2_d_memory.c ****   return 0;
1771:..\..\..\u8g2\u8g2\csrc/u8g2_d_memory.c ****   #else
1772:..\..\..\u8g2\u8g2\csrc/u8g2_d_memory.c ****   static uint8_t buf[320];
1773:..\..\..\u8g2\u8g2\csrc/u8g2_d_memory.c ****   *page_cnt = 2;
 4514              		.loc 1 1773 0
 4515 0000 0223     		movs	r3, #2
 4516 0002 0370     		strb	r3, [r0]
1774:..\..\..\u8g2\u8g2\csrc/u8g2_d_memory.c ****   return buf;
1775:..\..\..\u8g2\u8g2\csrc/u8g2_d_memory.c ****   #endif
1776:..\..\..\u8g2\u8g2\csrc/u8g2_d_memory.c **** }
 4517              		.loc 1 1776 0
 4518 0004 0048     		ldr	r0, .L482
 4519              	.LVL321:
 4520 0006 7047     		bx	lr
 4521              	.L483:
 4522              		.align	2
 4523              	.L482:
 4524 0008 D8500200 		.word	.LANCHOR31+4072
 4525              		.cfi_endproc
 4526              	.LFE160:
 4527              		.size	u8g2_m_20_2_2, .-u8g2_m_20_2_2
 4528              		.section	.text.u8g2_m_20_2_f,"ax",%progbits
 4529              		.align	1
 4530              		.global	u8g2_m_20_2_f
 4531              		.thumb
 4532              		.thumb_func
 4533              		.type	u8g2_m_20_2_f, %function
 4534              	u8g2_m_20_2_f:
 4535              	.LFB161:
1777:..\..\..\u8g2\u8g2\csrc/u8g2_d_memory.c **** uint8_t *u8g2_m_20_2_f(uint8_t *page_cnt)
1778:..\..\..\u8g2\u8g2\csrc/u8g2_d_memory.c **** {
 4536              		.loc 1 1778 0
 4537              		.cfi_startproc
 4538              		@ args = 0, pretend = 0, frame = 0
 4539              		@ frame_needed = 0, uses_anonymous_args = 0
 4540              		@ link register save eliminated.
 4541              	.LVL322:
1779:..\..\..\u8g2\u8g2\csrc/u8g2_d_memory.c ****   #ifdef U8G2_USE_DYNAMIC_ALLOC
1780:..\..\..\u8g2\u8g2\csrc/u8g2_d_memory.c ****   *page_cnt = 2;
1781:..\..\..\u8g2\u8g2\csrc/u8g2_d_memory.c ****   return 0;
1782:..\..\..\u8g2\u8g2\csrc/u8g2_d_memory.c ****   #else
1783:..\..\..\u8g2\u8g2\csrc/u8g2_d_memory.c ****   static uint8_t buf[320];
1784:..\..\..\u8g2\u8g2\csrc/u8g2_d_memory.c ****   *page_cnt = 2;
 4542              		.loc 1 1784 0
 4543 0000 0223     		movs	r3, #2
ARM GAS  C:\Users\jesse\AppData\Local\Temp\ccuy2FXa.s 			page 112


 4544 0002 0370     		strb	r3, [r0]
1785:..\..\..\u8g2\u8g2\csrc/u8g2_d_memory.c ****   return buf;
1786:..\..\..\u8g2\u8g2\csrc/u8g2_d_memory.c ****   #endif
1787:..\..\..\u8g2\u8g2\csrc/u8g2_d_memory.c **** }
 4545              		.loc 1 1787 0
 4546 0004 0048     		ldr	r0, .L485
 4547              	.LVL323:
 4548 0006 7047     		bx	lr
 4549              	.L486:
 4550              		.align	2
 4551              	.L485:
 4552 0008 18520200 		.word	.LANCHOR32+48
 4553              		.cfi_endproc
 4554              	.LFE161:
 4555              		.size	u8g2_m_20_2_f, .-u8g2_m_20_2_f
 4556              		.section	.text.u8g2_m_32_7_1,"ax",%progbits
 4557              		.align	1
 4558              		.global	u8g2_m_32_7_1
 4559              		.thumb
 4560              		.thumb_func
 4561              		.type	u8g2_m_32_7_1, %function
 4562              	u8g2_m_32_7_1:
 4563              	.LFB162:
1788:..\..\..\u8g2\u8g2\csrc/u8g2_d_memory.c **** uint8_t *u8g2_m_32_7_1(uint8_t *page_cnt)
1789:..\..\..\u8g2\u8g2\csrc/u8g2_d_memory.c **** {
 4564              		.loc 1 1789 0
 4565              		.cfi_startproc
 4566              		@ args = 0, pretend = 0, frame = 0
 4567              		@ frame_needed = 0, uses_anonymous_args = 0
 4568              		@ link register save eliminated.
 4569              	.LVL324:
1790:..\..\..\u8g2\u8g2\csrc/u8g2_d_memory.c ****   #ifdef U8G2_USE_DYNAMIC_ALLOC
1791:..\..\..\u8g2\u8g2\csrc/u8g2_d_memory.c ****   *page_cnt = 1;
1792:..\..\..\u8g2\u8g2\csrc/u8g2_d_memory.c ****   return 0;
1793:..\..\..\u8g2\u8g2\csrc/u8g2_d_memory.c ****   #else
1794:..\..\..\u8g2\u8g2\csrc/u8g2_d_memory.c ****   static uint8_t buf[256];
1795:..\..\..\u8g2\u8g2\csrc/u8g2_d_memory.c ****   *page_cnt = 1;
 4570              		.loc 1 1795 0
 4571 0000 0123     		movs	r3, #1
 4572 0002 0370     		strb	r3, [r0]
1796:..\..\..\u8g2\u8g2\csrc/u8g2_d_memory.c ****   return buf;
1797:..\..\..\u8g2\u8g2\csrc/u8g2_d_memory.c ****   #endif
1798:..\..\..\u8g2\u8g2\csrc/u8g2_d_memory.c **** }
 4573              		.loc 1 1798 0
 4574 0004 0048     		ldr	r0, .L488
 4575              	.LVL325:
 4576 0006 7047     		bx	lr
 4577              	.L489:
 4578              		.align	2
 4579              	.L488:
 4580 0008 58530200 		.word	.LANCHOR32+368
 4581              		.cfi_endproc
 4582              	.LFE162:
 4583              		.size	u8g2_m_32_7_1, .-u8g2_m_32_7_1
 4584              		.section	.text.u8g2_m_32_7_2,"ax",%progbits
 4585              		.align	1
 4586              		.global	u8g2_m_32_7_2
ARM GAS  C:\Users\jesse\AppData\Local\Temp\ccuy2FXa.s 			page 113


 4587              		.thumb
 4588              		.thumb_func
 4589              		.type	u8g2_m_32_7_2, %function
 4590              	u8g2_m_32_7_2:
 4591              	.LFB163:
1799:..\..\..\u8g2\u8g2\csrc/u8g2_d_memory.c **** uint8_t *u8g2_m_32_7_2(uint8_t *page_cnt)
1800:..\..\..\u8g2\u8g2\csrc/u8g2_d_memory.c **** {
 4592              		.loc 1 1800 0
 4593              		.cfi_startproc
 4594              		@ args = 0, pretend = 0, frame = 0
 4595              		@ frame_needed = 0, uses_anonymous_args = 0
 4596              		@ link register save eliminated.
 4597              	.LVL326:
1801:..\..\..\u8g2\u8g2\csrc/u8g2_d_memory.c ****   #ifdef U8G2_USE_DYNAMIC_ALLOC
1802:..\..\..\u8g2\u8g2\csrc/u8g2_d_memory.c ****   *page_cnt = 2;
1803:..\..\..\u8g2\u8g2\csrc/u8g2_d_memory.c ****   return 0;
1804:..\..\..\u8g2\u8g2\csrc/u8g2_d_memory.c ****   #else
1805:..\..\..\u8g2\u8g2\csrc/u8g2_d_memory.c ****   static uint8_t buf[512];
1806:..\..\..\u8g2\u8g2\csrc/u8g2_d_memory.c ****   *page_cnt = 2;
 4598              		.loc 1 1806 0
 4599 0000 0223     		movs	r3, #2
 4600 0002 0370     		strb	r3, [r0]
1807:..\..\..\u8g2\u8g2\csrc/u8g2_d_memory.c ****   return buf;
1808:..\..\..\u8g2\u8g2\csrc/u8g2_d_memory.c ****   #endif
1809:..\..\..\u8g2\u8g2\csrc/u8g2_d_memory.c **** }
 4601              		.loc 1 1809 0
 4602 0004 0048     		ldr	r0, .L491
 4603              	.LVL327:
 4604 0006 7047     		bx	lr
 4605              	.L492:
 4606              		.align	2
 4607              	.L491:
 4608 0008 58540200 		.word	.LANCHOR32+624
 4609              		.cfi_endproc
 4610              	.LFE163:
 4611              		.size	u8g2_m_32_7_2, .-u8g2_m_32_7_2
 4612              		.section	.text.u8g2_m_32_7_f,"ax",%progbits
 4613              		.align	1
 4614              		.global	u8g2_m_32_7_f
 4615              		.thumb
 4616              		.thumb_func
 4617              		.type	u8g2_m_32_7_f, %function
 4618              	u8g2_m_32_7_f:
 4619              	.LFB164:
1810:..\..\..\u8g2\u8g2\csrc/u8g2_d_memory.c **** uint8_t *u8g2_m_32_7_f(uint8_t *page_cnt)
1811:..\..\..\u8g2\u8g2\csrc/u8g2_d_memory.c **** {
 4620              		.loc 1 1811 0
 4621              		.cfi_startproc
 4622              		@ args = 0, pretend = 0, frame = 0
 4623              		@ frame_needed = 0, uses_anonymous_args = 0
 4624              		@ link register save eliminated.
 4625              	.LVL328:
1812:..\..\..\u8g2\u8g2\csrc/u8g2_d_memory.c ****   #ifdef U8G2_USE_DYNAMIC_ALLOC
1813:..\..\..\u8g2\u8g2\csrc/u8g2_d_memory.c ****   *page_cnt = 7;
1814:..\..\..\u8g2\u8g2\csrc/u8g2_d_memory.c ****   return 0;
1815:..\..\..\u8g2\u8g2\csrc/u8g2_d_memory.c ****   #else
1816:..\..\..\u8g2\u8g2\csrc/u8g2_d_memory.c ****   static uint8_t buf[1792];
ARM GAS  C:\Users\jesse\AppData\Local\Temp\ccuy2FXa.s 			page 114


1817:..\..\..\u8g2\u8g2\csrc/u8g2_d_memory.c ****   *page_cnt = 7;
 4626              		.loc 1 1817 0
 4627 0000 0723     		movs	r3, #7
 4628 0002 0370     		strb	r3, [r0]
1818:..\..\..\u8g2\u8g2\csrc/u8g2_d_memory.c ****   return buf;
1819:..\..\..\u8g2\u8g2\csrc/u8g2_d_memory.c ****   #endif
1820:..\..\..\u8g2\u8g2\csrc/u8g2_d_memory.c **** }
 4629              		.loc 1 1820 0
 4630 0004 0048     		ldr	r0, .L494
 4631              	.LVL329:
 4632 0006 7047     		bx	lr
 4633              	.L495:
 4634              		.align	2
 4635              	.L494:
 4636 0008 58560200 		.word	.LANCHOR32+1136
 4637              		.cfi_endproc
 4638              	.LFE164:
 4639              		.size	u8g2_m_32_7_f, .-u8g2_m_32_7_f
 4640              		.section	.text.u8g2_m_48_30_1,"ax",%progbits
 4641              		.align	1
 4642              		.global	u8g2_m_48_30_1
 4643              		.thumb
 4644              		.thumb_func
 4645              		.type	u8g2_m_48_30_1, %function
 4646              	u8g2_m_48_30_1:
 4647              	.LFB165:
1821:..\..\..\u8g2\u8g2\csrc/u8g2_d_memory.c **** uint8_t *u8g2_m_48_30_1(uint8_t *page_cnt)
1822:..\..\..\u8g2\u8g2\csrc/u8g2_d_memory.c **** {
 4648              		.loc 1 1822 0
 4649              		.cfi_startproc
 4650              		@ args = 0, pretend = 0, frame = 0
 4651              		@ frame_needed = 0, uses_anonymous_args = 0
 4652              		@ link register save eliminated.
 4653              	.LVL330:
1823:..\..\..\u8g2\u8g2\csrc/u8g2_d_memory.c ****   #ifdef U8G2_USE_DYNAMIC_ALLOC
1824:..\..\..\u8g2\u8g2\csrc/u8g2_d_memory.c ****   *page_cnt = 1;
1825:..\..\..\u8g2\u8g2\csrc/u8g2_d_memory.c ****   return 0;
1826:..\..\..\u8g2\u8g2\csrc/u8g2_d_memory.c ****   #else
1827:..\..\..\u8g2\u8g2\csrc/u8g2_d_memory.c ****   static uint8_t buf[384];
1828:..\..\..\u8g2\u8g2\csrc/u8g2_d_memory.c ****   *page_cnt = 1;
 4654              		.loc 1 1828 0
 4655 0000 0123     		movs	r3, #1
 4656 0002 0370     		strb	r3, [r0]
1829:..\..\..\u8g2\u8g2\csrc/u8g2_d_memory.c ****   return buf;
1830:..\..\..\u8g2\u8g2\csrc/u8g2_d_memory.c ****   #endif
1831:..\..\..\u8g2\u8g2\csrc/u8g2_d_memory.c **** }
 4657              		.loc 1 1831 0
 4658 0004 0048     		ldr	r0, .L497
 4659              	.LVL331:
 4660 0006 7047     		bx	lr
 4661              	.L498:
 4662              		.align	2
 4663              	.L497:
 4664 0008 585D0200 		.word	.LANCHOR32+2928
 4665              		.cfi_endproc
 4666              	.LFE165:
 4667              		.size	u8g2_m_48_30_1, .-u8g2_m_48_30_1
ARM GAS  C:\Users\jesse\AppData\Local\Temp\ccuy2FXa.s 			page 115


 4668              		.section	.text.u8g2_m_48_30_2,"ax",%progbits
 4669              		.align	1
 4670              		.global	u8g2_m_48_30_2
 4671              		.thumb
 4672              		.thumb_func
 4673              		.type	u8g2_m_48_30_2, %function
 4674              	u8g2_m_48_30_2:
 4675              	.LFB166:
1832:..\..\..\u8g2\u8g2\csrc/u8g2_d_memory.c **** uint8_t *u8g2_m_48_30_2(uint8_t *page_cnt)
1833:..\..\..\u8g2\u8g2\csrc/u8g2_d_memory.c **** {
 4676              		.loc 1 1833 0
 4677              		.cfi_startproc
 4678              		@ args = 0, pretend = 0, frame = 0
 4679              		@ frame_needed = 0, uses_anonymous_args = 0
 4680              		@ link register save eliminated.
 4681              	.LVL332:
1834:..\..\..\u8g2\u8g2\csrc/u8g2_d_memory.c ****   #ifdef U8G2_USE_DYNAMIC_ALLOC
1835:..\..\..\u8g2\u8g2\csrc/u8g2_d_memory.c ****   *page_cnt = 2;
1836:..\..\..\u8g2\u8g2\csrc/u8g2_d_memory.c ****   return 0;
1837:..\..\..\u8g2\u8g2\csrc/u8g2_d_memory.c ****   #else
1838:..\..\..\u8g2\u8g2\csrc/u8g2_d_memory.c ****   static uint8_t buf[768];
1839:..\..\..\u8g2\u8g2\csrc/u8g2_d_memory.c ****   *page_cnt = 2;
 4682              		.loc 1 1839 0
 4683 0000 0223     		movs	r3, #2
 4684 0002 0370     		strb	r3, [r0]
1840:..\..\..\u8g2\u8g2\csrc/u8g2_d_memory.c ****   return buf;
1841:..\..\..\u8g2\u8g2\csrc/u8g2_d_memory.c ****   #endif
1842:..\..\..\u8g2\u8g2\csrc/u8g2_d_memory.c **** }
 4685              		.loc 1 1842 0
 4686 0004 0048     		ldr	r0, .L500
 4687              	.LVL333:
 4688 0006 7047     		bx	lr
 4689              	.L501:
 4690              		.align	2
 4691              	.L500:
 4692 0008 D85E0200 		.word	.LANCHOR32+3312
 4693              		.cfi_endproc
 4694              	.LFE166:
 4695              		.size	u8g2_m_48_30_2, .-u8g2_m_48_30_2
 4696              		.section	.text.u8g2_m_48_30_f,"ax",%progbits
 4697              		.align	1
 4698              		.global	u8g2_m_48_30_f
 4699              		.thumb
 4700              		.thumb_func
 4701              		.type	u8g2_m_48_30_f, %function
 4702              	u8g2_m_48_30_f:
 4703              	.LFB167:
1843:..\..\..\u8g2\u8g2\csrc/u8g2_d_memory.c **** uint8_t *u8g2_m_48_30_f(uint8_t *page_cnt)
1844:..\..\..\u8g2\u8g2\csrc/u8g2_d_memory.c **** {
 4704              		.loc 1 1844 0
 4705              		.cfi_startproc
 4706              		@ args = 0, pretend = 0, frame = 0
 4707              		@ frame_needed = 0, uses_anonymous_args = 0
 4708              		@ link register save eliminated.
 4709              	.LVL334:
1845:..\..\..\u8g2\u8g2\csrc/u8g2_d_memory.c ****   #ifdef U8G2_USE_DYNAMIC_ALLOC
1846:..\..\..\u8g2\u8g2\csrc/u8g2_d_memory.c ****   *page_cnt = 30;
ARM GAS  C:\Users\jesse\AppData\Local\Temp\ccuy2FXa.s 			page 116


1847:..\..\..\u8g2\u8g2\csrc/u8g2_d_memory.c ****   return 0;
1848:..\..\..\u8g2\u8g2\csrc/u8g2_d_memory.c ****   #else
1849:..\..\..\u8g2\u8g2\csrc/u8g2_d_memory.c ****   static uint8_t buf[11520];
1850:..\..\..\u8g2\u8g2\csrc/u8g2_d_memory.c ****   *page_cnt = 30;
 4710              		.loc 1 1850 0
 4711 0000 1E23     		movs	r3, #30
 4712 0002 0370     		strb	r3, [r0]
1851:..\..\..\u8g2\u8g2\csrc/u8g2_d_memory.c ****   return buf;
1852:..\..\..\u8g2\u8g2\csrc/u8g2_d_memory.c ****   #endif
1853:..\..\..\u8g2\u8g2\csrc/u8g2_d_memory.c **** }
 4713              		.loc 1 1853 0
 4714 0004 0048     		ldr	r0, .L503
 4715              	.LVL335:
 4716 0006 7047     		bx	lr
 4717              	.L504:
 4718              		.align	2
 4719              	.L503:
 4720 0008 D8610200 		.word	.LANCHOR32+4080
 4721              		.cfi_endproc
 4722              	.LFE167:
 4723              		.size	u8g2_m_48_30_f, .-u8g2_m_48_30_f
 4724              		.bss
 4725              		.set	.LANCHOR0,. + 0
 4726              		.set	.LANCHOR1,. + 4344
 4727              		.set	.LANCHOR2,. + 8688
 4728              		.set	.LANCHOR3,. + 13032
 4729              		.set	.LANCHOR4,. + 17376
 4730              		.set	.LANCHOR5,. + 21720
 4731              		.set	.LANCHOR6,. + 26064
 4732              		.set	.LANCHOR7,. + 30408
 4733              		.set	.LANCHOR8,. + 34752
 4734              		.set	.LANCHOR9,. + 39096
 4735              		.set	.LANCHOR10,. + 47784
 4736              		.set	.LANCHOR11,. + 52128
 4737              		.set	.LANCHOR12,. + 56472
 4738              		.set	.LANCHOR13,. + 60816
 4739              		.set	.LANCHOR14,. + 65160
 4740              		.set	.LANCHOR15,. + 69504
 4741              		.set	.LANCHOR16,. + 73848
 4742              		.set	.LANCHOR17,. + 78192
 4743              		.set	.LANCHOR18,. + 82536
 4744              		.set	.LANCHOR19,. + 86880
 4745              		.set	.LANCHOR20,. + 99912
 4746              		.set	.LANCHOR21,. + 104256
 4747              		.set	.LANCHOR22,. + 108600
 4748              		.set	.LANCHOR23,. + 112944
 4749              		.set	.LANCHOR24,. + 117288
 4750              		.set	.LANCHOR25,. + 121632
 4751              		.set	.LANCHOR26,. + 125976
 4752              		.set	.LANCHOR27,. + 130320
 4753              		.set	.LANCHOR28,. + 134664
 4754              		.set	.LANCHOR29,. + 139008
 4755              		.set	.LANCHOR30,. + 143352
 4756              		.set	.LANCHOR31,. + 147696
 4757              		.set	.LANCHOR32,. + 152040
 4758              		.type	buf.12710, %object
 4759              		.size	buf.12710, 128
ARM GAS  C:\Users\jesse\AppData\Local\Temp\ccuy2FXa.s 			page 117


 4760              	buf.12710:
 4761 0000 00000000 		.space	128
 4761      00000000 
 4761      00000000 
 4761      00000000 
 4761      00000000 
 4762              		.type	buf.12714, %object
 4763              		.size	buf.12714, 256
 4764              	buf.12714:
 4765 0080 00000000 		.space	256
 4765      00000000 
 4765      00000000 
 4765      00000000 
 4765      00000000 
 4766              		.type	buf.12718, %object
 4767              		.size	buf.12718, 512
 4768              	buf.12718:
 4769 0180 00000000 		.space	512
 4769      00000000 
 4769      00000000 
 4769      00000000 
 4769      00000000 
 4770              		.type	buf.12722, %object
 4771              		.size	buf.12722, 128
 4772              	buf.12722:
 4773 0380 00000000 		.space	128
 4773      00000000 
 4773      00000000 
 4773      00000000 
 4773      00000000 
 4774              		.type	buf.12726, %object
 4775              		.size	buf.12726, 256
 4776              	buf.12726:
 4777 0400 00000000 		.space	256
 4777      00000000 
 4777      00000000 
 4777      00000000 
 4777      00000000 
 4778              		.type	buf.12730, %object
 4779              		.size	buf.12730, 1024
 4780              	buf.12730:
 4781 0500 00000000 		.space	1024
 4781      00000000 
 4781      00000000 
 4781      00000000 
 4781      00000000 
 4782              		.type	buf.12734, %object
 4783              		.size	buf.12734, 2040
 4784              	buf.12734:
 4785 0900 00000000 		.space	2040
 4785      00000000 
 4785      00000000 
 4785      00000000 
 4785      00000000 
 4786              		.type	buf.12738, %object
 4787              		.size	buf.12738, 4080
 4788              	buf.12738:
ARM GAS  C:\Users\jesse\AppData\Local\Temp\ccuy2FXa.s 			page 118


 4789 10f8 00000000 		.space	4080
 4789      00000000 
 4789      00000000 
 4789      00000000 
 4789      00000000 
 4790              		.type	buf.12742, %object
 4791              		.size	buf.12742, 4080
 4792              	buf.12742:
 4793 20e8 00000000 		.space	4080
 4793      00000000 
 4793      00000000 
 4793      00000000 
 4793      00000000 
 4794              		.type	buf.12746, %object
 4795              		.size	buf.12746, 72
 4796              	buf.12746:
 4797 30d8 00000000 		.space	72
 4797      00000000 
 4797      00000000 
 4797      00000000 
 4797      00000000 
 4798              		.type	buf.12750, %object
 4799              		.size	buf.12750, 144
 4800              	buf.12750:
 4801 3120 00000000 		.space	144
 4801      00000000 
 4801      00000000 
 4801      00000000 
 4801      00000000 
 4802              		.type	buf.12754, %object
 4803              		.size	buf.12754, 360
 4804              	buf.12754:
 4805 31b0 00000000 		.space	360
 4805      00000000 
 4805      00000000 
 4805      00000000 
 4805      00000000 
 4806              		.type	buf.12758, %object
 4807              		.size	buf.12758, 96
 4808              	buf.12758:
 4809 3318 00000000 		.space	96
 4809      00000000 
 4809      00000000 
 4809      00000000 
 4809      00000000 
 4810              		.type	buf.12762, %object
 4811              		.size	buf.12762, 192
 4812              	buf.12762:
 4813 3378 00000000 		.space	192
 4813      00000000 
 4813      00000000 
 4813      00000000 
 4813      00000000 
 4814              		.type	buf.12766, %object
 4815              		.size	buf.12766, 480
 4816              	buf.12766:
 4817 3438 00000000 		.space	480
ARM GAS  C:\Users\jesse\AppData\Local\Temp\ccuy2FXa.s 			page 119


 4817      00000000 
 4817      00000000 
 4817      00000000 
 4817      00000000 
 4818              		.type	buf.12770, %object
 4819              		.size	buf.12770, 64
 4820              	buf.12770:
 4821 3618 00000000 		.space	64
 4821      00000000 
 4821      00000000 
 4821      00000000 
 4821      00000000 
 4822              		.type	buf.12774, %object
 4823              		.size	buf.12774, 128
 4824              	buf.12774:
 4825 3658 00000000 		.space	128
 4825      00000000 
 4825      00000000 
 4825      00000000 
 4825      00000000 
 4826              		.type	buf.12778, %object
 4827              		.size	buf.12778, 256
 4828              	buf.12778:
 4829 36d8 00000000 		.space	256
 4829      00000000 
 4829      00000000 
 4829      00000000 
 4829      00000000 
 4830              		.type	buf.12782, %object
 4831              		.size	buf.12782, 64
 4832              	buf.12782:
 4833 37d8 00000000 		.space	64
 4833      00000000 
 4833      00000000 
 4833      00000000 
 4833      00000000 
 4834              		.type	buf.12786, %object
 4835              		.size	buf.12786, 128
 4836              	buf.12786:
 4837 3818 00000000 		.space	128
 4837      00000000 
 4837      00000000 
 4837      00000000 
 4837      00000000 
 4838              		.type	buf.12790, %object
 4839              		.size	buf.12790, 1024
 4840              	buf.12790:
 4841 3898 00000000 		.space	1024
 4841      00000000 
 4841      00000000 
 4841      00000000 
 4841      00000000 
 4842              		.type	buf.12794, %object
 4843              		.size	buf.12794, 96
 4844              	buf.12794:
 4845 3c98 00000000 		.space	96
 4845      00000000 
ARM GAS  C:\Users\jesse\AppData\Local\Temp\ccuy2FXa.s 			page 120


 4845      00000000 
 4845      00000000 
 4845      00000000 
 4846              		.type	buf.12798, %object
 4847              		.size	buf.12798, 192
 4848              	buf.12798:
 4849 3cf8 00000000 		.space	192
 4849      00000000 
 4849      00000000 
 4849      00000000 
 4849      00000000 
 4850              		.type	buf.12802, %object
 4851              		.size	buf.12802, 1152
 4852              	buf.12802:
 4853 3db8 00000000 		.space	1152
 4853      00000000 
 4853      00000000 
 4853      00000000 
 4853      00000000 
 4854              		.type	buf.12806, %object
 4855              		.size	buf.12806, 80
 4856              	buf.12806:
 4857 4238 00000000 		.space	80
 4857      00000000 
 4857      00000000 
 4857      00000000 
 4857      00000000 
 4858              		.type	buf.12810, %object
 4859              		.size	buf.12810, 160
 4860              	buf.12810:
 4861 4288 00000000 		.space	160
 4861      00000000 
 4861      00000000 
 4861      00000000 
 4861      00000000 
 4862              		.type	buf.12814, %object
 4863              		.size	buf.12814, 1280
 4864              	buf.12814:
 4865 4328 00000000 		.space	1280
 4865      00000000 
 4865      00000000 
 4865      00000000 
 4865      00000000 
 4866              		.type	buf.12818, %object
 4867              		.size	buf.12818, 128
 4868              	buf.12818:
 4869 4828 00000000 		.space	128
 4869      00000000 
 4869      00000000 
 4869      00000000 
 4869      00000000 
 4870              		.type	buf.12822, %object
 4871              		.size	buf.12822, 256
 4872              	buf.12822:
 4873 48a8 00000000 		.space	256
 4873      00000000 
 4873      00000000 
ARM GAS  C:\Users\jesse\AppData\Local\Temp\ccuy2FXa.s 			page 121


 4873      00000000 
 4873      00000000 
 4874              		.type	buf.12826, %object
 4875              		.size	buf.12826, 2048
 4876              	buf.12826:
 4877 49a8 00000000 		.space	2048
 4877      00000000 
 4877      00000000 
 4877      00000000 
 4877      00000000 
 4878              		.type	buf.12830, %object
 4879              		.size	buf.12830, 160
 4880              	buf.12830:
 4881 51a8 00000000 		.space	160
 4881      00000000 
 4881      00000000 
 4881      00000000 
 4881      00000000 
 4882              		.type	buf.12834, %object
 4883              		.size	buf.12834, 320
 4884              	buf.12834:
 4885 5248 00000000 		.space	320
 4885      00000000 
 4885      00000000 
 4885      00000000 
 4885      00000000 
 4886              		.type	buf.12838, %object
 4887              		.size	buf.12838, 3200
 4888              	buf.12838:
 4889 5388 00000000 		.space	3200
 4889      00000000 
 4889      00000000 
 4889      00000000 
 4889      00000000 
 4890              		.type	buf.12842, %object
 4891              		.size	buf.12842, 256
 4892              	buf.12842:
 4893 6008 00000000 		.space	256
 4893      00000000 
 4893      00000000 
 4893      00000000 
 4893      00000000 
 4894              		.type	buf.12846, %object
 4895              		.size	buf.12846, 512
 4896              	buf.12846:
 4897 6108 00000000 		.space	512
 4897      00000000 
 4897      00000000 
 4897      00000000 
 4897      00000000 
 4898              		.type	buf.12850, %object
 4899              		.size	buf.12850, 2048
 4900              	buf.12850:
 4901 6308 00000000 		.space	2048
 4901      00000000 
 4901      00000000 
 4901      00000000 
ARM GAS  C:\Users\jesse\AppData\Local\Temp\ccuy2FXa.s 			page 122


 4901      00000000 
 4902              		.type	buf.12854, %object
 4903              		.size	buf.12854, 104
 4904              	buf.12854:
 4905 6b08 00000000 		.space	104
 4905      00000000 
 4905      00000000 
 4905      00000000 
 4905      00000000 
 4906              		.type	buf.12858, %object
 4907              		.size	buf.12858, 208
 4908              	buf.12858:
 4909 6b70 00000000 		.space	208
 4909      00000000 
 4909      00000000 
 4909      00000000 
 4909      00000000 
 4910              		.type	buf.12862, %object
 4911              		.size	buf.12862, 832
 4912              	buf.12862:
 4913 6c40 00000000 		.space	832
 4913      00000000 
 4913      00000000 
 4913      00000000 
 4913      00000000 
 4914              		.type	buf.12866, %object
 4915              		.size	buf.12866, 64
 4916              	buf.12866:
 4917 6f80 00000000 		.space	64
 4917      00000000 
 4917      00000000 
 4917      00000000 
 4917      00000000 
 4918              		.type	buf.12870, %object
 4919              		.size	buf.12870, 128
 4920              	buf.12870:
 4921 6fc0 00000000 		.space	128
 4921      00000000 
 4921      00000000 
 4921      00000000 
 4921      00000000 
 4922              		.type	buf.12874, %object
 4923              		.size	buf.12874, 384
 4924              	buf.12874:
 4925 7040 00000000 		.space	384
 4925      00000000 
 4925      00000000 
 4925      00000000 
 4925      00000000 
 4926              		.type	buf.12878, %object
 4927              		.size	buf.12878, 48
 4928              	buf.12878:
 4929 71c0 00000000 		.space	48
 4929      00000000 
 4929      00000000 
 4929      00000000 
 4929      00000000 
ARM GAS  C:\Users\jesse\AppData\Local\Temp\ccuy2FXa.s 			page 123


 4930              		.type	buf.12882, %object
 4931              		.size	buf.12882, 96
 4932              	buf.12882:
 4933 71f0 00000000 		.space	96
 4933      00000000 
 4933      00000000 
 4933      00000000 
 4933      00000000 
 4934              		.type	buf.12886, %object
 4935              		.size	buf.12886, 384
 4936              	buf.12886:
 4937 7250 00000000 		.space	384
 4937      00000000 
 4937      00000000 
 4937      00000000 
 4937      00000000 
 4938              		.type	buf.12890, %object
 4939              		.size	buf.12890, 96
 4940              	buf.12890:
 4941 73d0 00000000 		.space	96
 4941      00000000 
 4941      00000000 
 4941      00000000 
 4941      00000000 
 4942              		.type	buf.12894, %object
 4943              		.size	buf.12894, 192
 4944              	buf.12894:
 4945 7430 00000000 		.space	192
 4945      00000000 
 4945      00000000 
 4945      00000000 
 4945      00000000 
 4946              		.type	buf.12898, %object
 4947              		.size	buf.12898, 192
 4948              	buf.12898:
 4949 74f0 00000000 		.space	192
 4949      00000000 
 4949      00000000 
 4949      00000000 
 4949      00000000 
 4950              		.type	buf.12902, %object
 4951              		.size	buf.12902, 96
 4952              	buf.12902:
 4953 75b0 00000000 		.space	96
 4953      00000000 
 4953      00000000 
 4953      00000000 
 4953      00000000 
 4954              		.type	buf.12906, %object
 4955              		.size	buf.12906, 192
 4956              	buf.12906:
 4957 7610 00000000 		.space	192
 4957      00000000 
 4957      00000000 
 4957      00000000 
 4957      00000000 
 4958              		.type	buf.12910, %object
ARM GAS  C:\Users\jesse\AppData\Local\Temp\ccuy2FXa.s 			page 124


 4959              		.size	buf.12910, 384
 4960              	buf.12910:
 4961 76d0 00000000 		.space	384
 4961      00000000 
 4961      00000000 
 4961      00000000 
 4961      00000000 
 4962              		.type	buf.12914, %object
 4963              		.size	buf.12914, 128
 4964              	buf.12914:
 4965 7850 00000000 		.space	128
 4965      00000000 
 4965      00000000 
 4965      00000000 
 4965      00000000 
 4966              		.type	buf.12918, %object
 4967              		.size	buf.12918, 256
 4968              	buf.12918:
 4969 78d0 00000000 		.space	256
 4969      00000000 
 4969      00000000 
 4969      00000000 
 4969      00000000 
 4970              		.type	buf.12922, %object
 4971              		.size	buf.12922, 1536
 4972              	buf.12922:
 4973 79d0 00000000 		.space	1536
 4973      00000000 
 4973      00000000 
 4973      00000000 
 4973      00000000 
 4974              		.type	buf.12926, %object
 4975              		.size	buf.12926, 256
 4976              	buf.12926:
 4977 7fd0 00000000 		.space	256
 4977      00000000 
 4977      00000000 
 4977      00000000 
 4977      00000000 
 4978              		.type	buf.12930, %object
 4979              		.size	buf.12930, 512
 4980              	buf.12930:
 4981 80d0 00000000 		.space	512
 4981      00000000 
 4981      00000000 
 4981      00000000 
 4981      00000000 
 4982              		.type	buf.12934, %object
 4983              		.size	buf.12934, 1024
 4984              	buf.12934:
 4985 82d0 00000000 		.space	1024
 4985      00000000 
 4985      00000000 
 4985      00000000 
 4985      00000000 
 4986              		.type	buf.12938, %object
 4987              		.size	buf.12938, 96
ARM GAS  C:\Users\jesse\AppData\Local\Temp\ccuy2FXa.s 			page 125


 4988              	buf.12938:
 4989 86d0 00000000 		.space	96
 4989      00000000 
 4989      00000000 
 4989      00000000 
 4989      00000000 
 4990              		.type	buf.12942, %object
 4991              		.size	buf.12942, 192
 4992              	buf.12942:
 4993 8730 00000000 		.space	192
 4993      00000000 
 4993      00000000 
 4993      00000000 
 4993      00000000 
 4994              		.type	buf.12946, %object
 4995              		.size	buf.12946, 768
 4996              	buf.12946:
 4997 87f0 00000000 		.space	768
 4997      00000000 
 4997      00000000 
 4997      00000000 
 4997      00000000 
 4998              		.type	buf.12950, %object
 4999              		.size	buf.12950, 160
 5000              	buf.12950:
 5001 8af0 00000000 		.space	160
 5001      00000000 
 5001      00000000 
 5001      00000000 
 5001      00000000 
 5002              		.type	buf.12954, %object
 5003              		.size	buf.12954, 320
 5004              	buf.12954:
 5005 8b90 00000000 		.space	320
 5005      00000000 
 5005      00000000 
 5005      00000000 
 5005      00000000 
 5006              		.type	buf.12958, %object
 5007              		.size	buf.12958, 640
 5008              	buf.12958:
 5009 8cd0 00000000 		.space	640
 5009      00000000 
 5009      00000000 
 5009      00000000 
 5009      00000000 
 5010              		.type	buf.12962, %object
 5011              		.size	buf.12962, 192
 5012              	buf.12962:
 5013 8f50 00000000 		.space	192
 5013      00000000 
 5013      00000000 
 5013      00000000 
 5013      00000000 
 5014              		.type	buf.12966, %object
 5015              		.size	buf.12966, 384
 5016              	buf.12966:
ARM GAS  C:\Users\jesse\AppData\Local\Temp\ccuy2FXa.s 			page 126


 5017 9010 00000000 		.space	384
 5017      00000000 
 5017      00000000 
 5017      00000000 
 5017      00000000 
 5018              		.type	buf.12970, %object
 5019              		.size	buf.12970, 768
 5020              	buf.12970:
 5021 9190 00000000 		.space	768
 5021      00000000 
 5021      00000000 
 5021      00000000 
 5021      00000000 
 5022              		.type	buf.12974, %object
 5023              		.size	buf.12974, 400
 5024              	buf.12974:
 5025 9490 00000000 		.space	400
 5025      00000000 
 5025      00000000 
 5025      00000000 
 5025      00000000 
 5026              		.type	buf.12978, %object
 5027              		.size	buf.12978, 800
 5028              	buf.12978:
 5029 9620 00000000 		.space	800
 5029      00000000 
 5029      00000000 
 5029      00000000 
 5029      00000000 
 5030              		.type	buf.12982, %object
 5031              		.size	buf.12982, 12000
 5032              	buf.12982:
 5033 9940 00000000 		.space	12000
 5033      00000000 
 5033      00000000 
 5033      00000000 
 5033      00000000 
 5034              		.type	buf.12986, %object
 5035              		.size	buf.12986, 144
 5036              	buf.12986:
 5037 c820 00000000 		.space	144
 5037      00000000 
 5037      00000000 
 5037      00000000 
 5037      00000000 
 5038              		.type	buf.12990, %object
 5039              		.size	buf.12990, 288
 5040              	buf.12990:
 5041 c8b0 00000000 		.space	288
 5041      00000000 
 5041      00000000 
 5041      00000000 
 5041      00000000 
 5042              		.type	buf.12994, %object
 5043              		.size	buf.12994, 3024
 5044              	buf.12994:
 5045 c9d0 00000000 		.space	3024
ARM GAS  C:\Users\jesse\AppData\Local\Temp\ccuy2FXa.s 			page 127


 5045      00000000 
 5045      00000000 
 5045      00000000 
 5045      00000000 
 5046              		.type	buf.12998, %object
 5047              		.size	buf.12998, 88
 5048              	buf.12998:
 5049 d5a0 00000000 		.space	88
 5049      00000000 
 5049      00000000 
 5049      00000000 
 5049      00000000 
 5050              		.type	buf.13002, %object
 5051              		.size	buf.13002, 176
 5052              	buf.13002:
 5053 d5f8 00000000 		.space	176
 5053      00000000 
 5053      00000000 
 5053      00000000 
 5053      00000000 
 5054              		.type	buf.13006, %object
 5055              		.size	buf.13006, 528
 5056              	buf.13006:
 5057 d6a8 00000000 		.space	528
 5057      00000000 
 5057      00000000 
 5057      00000000 
 5057      00000000 
 5058              		.type	buf.13010, %object
 5059              		.size	buf.13010, 96
 5060              	buf.13010:
 5061 d8b8 00000000 		.space	96
 5061      00000000 
 5061      00000000 
 5061      00000000 
 5061      00000000 
 5062              		.type	buf.13014, %object
 5063              		.size	buf.13014, 192
 5064              	buf.13014:
 5065 d918 00000000 		.space	192
 5065      00000000 
 5065      00000000 
 5065      00000000 
 5065      00000000 
 5066              		.type	buf.13018, %object
 5067              		.size	buf.13018, 864
 5068              	buf.13018:
 5069 d9d8 00000000 		.space	864
 5069      00000000 
 5069      00000000 
 5069      00000000 
 5069      00000000 
 5070              		.type	buf.13022, %object
 5071              		.size	buf.13022, 192
 5072              	buf.13022:
 5073 dd38 00000000 		.space	192
 5073      00000000 
ARM GAS  C:\Users\jesse\AppData\Local\Temp\ccuy2FXa.s 			page 128


 5073      00000000 
 5073      00000000 
 5073      00000000 
 5074              		.type	buf.13026, %object
 5075              		.size	buf.13026, 384
 5076              	buf.13026:
 5077 ddf8 00000000 		.space	384
 5077      00000000 
 5077      00000000 
 5077      00000000 
 5077      00000000 
 5078              		.type	buf.13030, %object
 5079              		.size	buf.13030, 1536
 5080              	buf.13030:
 5081 df78 00000000 		.space	1536
 5081      00000000 
 5081      00000000 
 5081      00000000 
 5081      00000000 
 5082              		.type	buf.13034, %object
 5083              		.size	buf.13034, 240
 5084              	buf.13034:
 5085 e578 00000000 		.space	240
 5085      00000000 
 5085      00000000 
 5085      00000000 
 5085      00000000 
 5086              		.type	buf.13038, %object
 5087              		.size	buf.13038, 480
 5088              	buf.13038:
 5089 e668 00000000 		.space	480
 5089      00000000 
 5089      00000000 
 5089      00000000 
 5089      00000000 
 5090              		.type	buf.13042, %object
 5091              		.size	buf.13042, 1920
 5092              	buf.13042:
 5093 e848 00000000 		.space	1920
 5093      00000000 
 5093      00000000 
 5093      00000000 
 5093      00000000 
 5094              		.type	buf.13046, %object
 5095              		.size	buf.13046, 240
 5096              	buf.13046:
 5097 efc8 00000000 		.space	240
 5097      00000000 
 5097      00000000 
 5097      00000000 
 5097      00000000 
 5098              		.type	buf.13050, %object
 5099              		.size	buf.13050, 480
 5100              	buf.13050:
 5101 f0b8 00000000 		.space	480
 5101      00000000 
 5101      00000000 
ARM GAS  C:\Users\jesse\AppData\Local\Temp\ccuy2FXa.s 			page 129


 5101      00000000 
 5101      00000000 
 5102              		.type	buf.13054, %object
 5103              		.size	buf.13054, 3600
 5104              	buf.13054:
 5105 f298 00000000 		.space	3600
 5105      00000000 
 5105      00000000 
 5105      00000000 
 5105      00000000 
 5106              		.type	buf.13058, %object
 5107              		.size	buf.13058, 240
 5108              	buf.13058:
 5109 100a8 00000000 		.space	240
 5109      00000000 
 5109      00000000 
 5109      00000000 
 5109      00000000 
 5110              		.type	buf.13062, %object
 5111              		.size	buf.13062, 480
 5112              	buf.13062:
 5113 10198 00000000 		.space	480
 5113      00000000 
 5113      00000000 
 5113      00000000 
 5113      00000000 
 5114              		.type	buf.13066, %object
 5115              		.size	buf.13066, 3840
 5116              	buf.13066:
 5117 10378 00000000 		.space	3840
 5117      00000000 
 5117      00000000 
 5117      00000000 
 5117      00000000 
 5118              		.type	buf.13070, %object
 5119              		.size	buf.13070, 160
 5120              	buf.13070:
 5121 11278 00000000 		.space	160
 5121      00000000 
 5121      00000000 
 5121      00000000 
 5121      00000000 
 5122              		.type	buf.13074, %object
 5123              		.size	buf.13074, 320
 5124              	buf.13074:
 5125 11318 00000000 		.space	320
 5125      00000000 
 5125      00000000 
 5125      00000000 
 5125      00000000 
 5126              		.type	buf.13078, %object
 5127              		.size	buf.13078, 2560
 5128              	buf.13078:
 5129 11458 00000000 		.space	2560
 5129      00000000 
 5129      00000000 
 5129      00000000 
ARM GAS  C:\Users\jesse\AppData\Local\Temp\ccuy2FXa.s 			page 130


 5129      00000000 
 5130              		.type	buf.13082, %object
 5131              		.size	buf.13082, 192
 5132              	buf.13082:
 5133 11e58 00000000 		.space	192
 5133      00000000 
 5133      00000000 
 5133      00000000 
 5133      00000000 
 5134              		.type	buf.13086, %object
 5135              		.size	buf.13086, 384
 5136              	buf.13086:
 5137 11f18 00000000 		.space	384
 5137      00000000 
 5137      00000000 
 5137      00000000 
 5137      00000000 
 5138              		.type	buf.13090, %object
 5139              		.size	buf.13090, 2304
 5140              	buf.13090:
 5141 12098 00000000 		.space	2304
 5141      00000000 
 5141      00000000 
 5141      00000000 
 5141      00000000 
 5142              		.type	buf.13094, %object
 5143              		.size	buf.13094, 160
 5144              	buf.13094:
 5145 12998 00000000 		.space	160
 5145      00000000 
 5145      00000000 
 5145      00000000 
 5145      00000000 
 5146              		.type	buf.13098, %object
 5147              		.size	buf.13098, 320
 5148              	buf.13098:
 5149 12a38 00000000 		.space	320
 5149      00000000 
 5149      00000000 
 5149      00000000 
 5149      00000000 
 5150              		.type	buf.13102, %object
 5151              		.size	buf.13102, 2080
 5152              	buf.13102:
 5153 12b78 00000000 		.space	2080
 5153      00000000 
 5153      00000000 
 5153      00000000 
 5153      00000000 
 5154              		.type	buf.13106, %object
 5155              		.size	buf.13106, 240
 5156              	buf.13106:
 5157 13398 00000000 		.space	240
 5157      00000000 
 5157      00000000 
 5157      00000000 
 5157      00000000 
ARM GAS  C:\Users\jesse\AppData\Local\Temp\ccuy2FXa.s 			page 131


 5158              		.type	buf.13110, %object
 5159              		.size	buf.13110, 480
 5160              	buf.13110:
 5161 13488 00000000 		.space	480
 5161      00000000 
 5161      00000000 
 5161      00000000 
 5161      00000000 
 5162              		.type	buf.13114, %object
 5163              		.size	buf.13114, 4800
 5164              	buf.13114:
 5165 13668 00000000 		.space	4800
 5165      00000000 
 5165      00000000 
 5165      00000000 
 5165      00000000 
 5166              		.type	buf.13118, %object
 5167              		.size	buf.13118, 256
 5168              	buf.13118:
 5169 14928 00000000 		.space	256
 5169      00000000 
 5169      00000000 
 5169      00000000 
 5169      00000000 
 5170              		.type	buf.13122, %object
 5171              		.size	buf.13122, 512
 5172              	buf.13122:
 5173 14a28 00000000 		.space	512
 5173      00000000 
 5173      00000000 
 5173      00000000 
 5173      00000000 
 5174              		.type	buf.13126, %object
 5175              		.size	buf.13126, 4096
 5176              	buf.13126:
 5177 14c28 00000000 		.space	4096
 5177      00000000 
 5177      00000000 
 5177      00000000 
 5177      00000000 
 5178              		.type	buf.13130, %object
 5179              		.size	buf.13130, 320
 5180              	buf.13130:
 5181 15c28 00000000 		.space	320
 5181      00000000 
 5181      00000000 
 5181      00000000 
 5181      00000000 
 5182              		.type	buf.13134, %object
 5183              		.size	buf.13134, 640
 5184              	buf.13134:
 5185 15d68 00000000 		.space	640
 5185      00000000 
 5185      00000000 
 5185      00000000 
 5185      00000000 
 5186              		.type	buf.13138, %object
ARM GAS  C:\Users\jesse\AppData\Local\Temp\ccuy2FXa.s 			page 132


 5187              		.size	buf.13138, 9600
 5188              	buf.13138:
 5189 15fe8 00000000 		.space	9600
 5189      00000000 
 5189      00000000 
 5189      00000000 
 5189      00000000 
 5190              		.type	buf.13142, %object
 5191              		.size	buf.13142, 160
 5192              	buf.13142:
 5193 18568 00000000 		.space	160
 5193      00000000 
 5193      00000000 
 5193      00000000 
 5193      00000000 
 5194              		.type	buf.13146, %object
 5195              		.size	buf.13146, 320
 5196              	buf.13146:
 5197 18608 00000000 		.space	320
 5197      00000000 
 5197      00000000 
 5197      00000000 
 5197      00000000 
 5198              		.type	buf.13150, %object
 5199              		.size	buf.13150, 1280
 5200              	buf.13150:
 5201 18748 00000000 		.space	1280
 5201      00000000 
 5201      00000000 
 5201      00000000 
 5201      00000000 
 5202              		.type	buf.13154, %object
 5203              		.size	buf.13154, 136
 5204              	buf.13154:
 5205 18c48 00000000 		.space	136
 5205      00000000 
 5205      00000000 
 5205      00000000 
 5205      00000000 
 5206              		.type	buf.13158, %object
 5207              		.size	buf.13158, 272
 5208              	buf.13158:
 5209 18cd0 00000000 		.space	272
 5209      00000000 
 5209      00000000 
 5209      00000000 
 5209      00000000 
 5210              		.type	buf.13162, %object
 5211              		.size	buf.13162, 544
 5212              	buf.13162:
 5213 18de0 00000000 		.space	544
 5213      00000000 
 5213      00000000 
 5213      00000000 
 5213      00000000 
 5214              		.type	buf.13166, %object
 5215              		.size	buf.13166, 136
ARM GAS  C:\Users\jesse\AppData\Local\Temp\ccuy2FXa.s 			page 133


 5216              	buf.13166:
 5217 19000 00000000 		.space	136
 5217      00000000 
 5217      00000000 
 5217      00000000 
 5217      00000000 
 5218              		.type	buf.13170, %object
 5219              		.size	buf.13170, 272
 5220              	buf.13170:
 5221 19088 00000000 		.space	272
 5221      00000000 
 5221      00000000 
 5221      00000000 
 5221      00000000 
 5222              		.type	buf.13174, %object
 5223              		.size	buf.13174, 1088
 5224              	buf.13174:
 5225 19198 00000000 		.space	1088
 5225      00000000 
 5225      00000000 
 5225      00000000 
 5225      00000000 
 5226              		.type	buf.13178, %object
 5227              		.size	buf.13178, 384
 5228              	buf.13178:
 5229 195d8 00000000 		.space	384
 5229      00000000 
 5229      00000000 
 5229      00000000 
 5229      00000000 
 5230              		.type	buf.13182, %object
 5231              		.size	buf.13182, 768
 5232              	buf.13182:
 5233 19758 00000000 		.space	768
 5233      00000000 
 5233      00000000 
 5233      00000000 
 5233      00000000 
 5234              		.type	buf.13186, %object
 5235              		.size	buf.13186, 6528
 5236              	buf.13186:
 5237 19a58 00000000 		.space	6528
 5237      00000000 
 5237      00000000 
 5237      00000000 
 5237      00000000 
 5238              		.type	buf.13190, %object
 5239              		.size	buf.13190, 384
 5240              	buf.13190:
 5241 1b3d8 00000000 		.space	384
 5241      00000000 
 5241      00000000 
 5241      00000000 
 5241      00000000 
 5242              		.type	buf.13194, %object
 5243              		.size	buf.13194, 768
 5244              	buf.13194:
ARM GAS  C:\Users\jesse\AppData\Local\Temp\ccuy2FXa.s 			page 134


 5245 1b558 00000000 		.space	768
 5245      00000000 
 5245      00000000 
 5245      00000000 
 5245      00000000 
 5246              		.type	buf.13198, %object
 5247              		.size	buf.13198, 7680
 5248              	buf.13198:
 5249 1b858 00000000 		.space	7680
 5249      00000000 
 5249      00000000 
 5249      00000000 
 5249      00000000 
 5250              		.type	buf.13202, %object
 5251              		.size	buf.13202, 160
 5252              	buf.13202:
 5253 1d658 00000000 		.space	160
 5253      00000000 
 5253      00000000 
 5253      00000000 
 5253      00000000 
 5254              		.type	buf.13206, %object
 5255              		.size	buf.13206, 320
 5256              	buf.13206:
 5257 1d6f8 00000000 		.space	320
 5257      00000000 
 5257      00000000 
 5257      00000000 
 5257      00000000 
 5258              		.type	buf.13210, %object
 5259              		.size	buf.13210, 1920
 5260              	buf.13210:
 5261 1d838 00000000 		.space	1920
 5261      00000000 
 5261      00000000 
 5261      00000000 
 5261      00000000 
 5262              		.type	buf.13214, %object
 5263              		.size	buf.13214, 256
 5264              	buf.13214:
 5265 1dfb8 00000000 		.space	256
 5265      00000000 
 5265      00000000 
 5265      00000000 
 5265      00000000 
 5266              		.type	buf.13218, %object
 5267              		.size	buf.13218, 512
 5268              	buf.13218:
 5269 1e0b8 00000000 		.space	512
 5269      00000000 
 5269      00000000 
 5269      00000000 
 5269      00000000 
 5270              		.type	buf.13222, %object
 5271              		.size	buf.13222, 5120
 5272              	buf.13222:
 5273 1e2b8 00000000 		.space	5120
ARM GAS  C:\Users\jesse\AppData\Local\Temp\ccuy2FXa.s 			page 135


 5273      00000000 
 5273      00000000 
 5273      00000000 
 5273      00000000 
 5274              		.type	buf.13226, %object
 5275              		.size	buf.13226, 176
 5276              	buf.13226:
 5277 1f6b8 00000000 		.space	176
 5277      00000000 
 5277      00000000 
 5277      00000000 
 5277      00000000 
 5278              		.type	buf.13230, %object
 5279              		.size	buf.13230, 352
 5280              	buf.13230:
 5281 1f768 00000000 		.space	352
 5281      00000000 
 5281      00000000 
 5281      00000000 
 5281      00000000 
 5282              		.type	buf.13234, %object
 5283              		.size	buf.13234, 2288
 5284              	buf.13234:
 5285 1f8c8 00000000 		.space	2288
 5285      00000000 
 5285      00000000 
 5285      00000000 
 5285      00000000 
 5286              		.type	buf.13238, %object
 5287              		.size	buf.13238, 152
 5288              	buf.13238:
 5289 201b8 00000000 		.space	152
 5289      00000000 
 5289      00000000 
 5289      00000000 
 5289      00000000 
 5290              		.type	buf.13242, %object
 5291              		.size	buf.13242, 304
 5292              	buf.13242:
 5293 20250 00000000 		.space	304
 5293      00000000 
 5293      00000000 
 5293      00000000 
 5293      00000000 
 5294              		.type	buf.13246, %object
 5295              		.size	buf.13246, 608
 5296              	buf.13246:
 5297 20380 00000000 		.space	608
 5297      00000000 
 5297      00000000 
 5297      00000000 
 5297      00000000 
 5298              		.type	buf.13250, %object
 5299              		.size	buf.13250, 160
 5300              	buf.13250:
 5301 205e0 00000000 		.space	160
 5301      00000000 
ARM GAS  C:\Users\jesse\AppData\Local\Temp\ccuy2FXa.s 			page 136


 5301      00000000 
 5301      00000000 
 5301      00000000 
 5302              		.type	buf.13254, %object
 5303              		.size	buf.13254, 320
 5304              	buf.13254:
 5305 20680 00000000 		.space	320
 5305      00000000 
 5305      00000000 
 5305      00000000 
 5305      00000000 
 5306              		.type	buf.13258, %object
 5307              		.size	buf.13258, 1600
 5308              	buf.13258:
 5309 207c0 00000000 		.space	1600
 5309      00000000 
 5309      00000000 
 5309      00000000 
 5309      00000000 
 5310              		.type	buf.13262, %object
 5311              		.size	buf.13262, 160
 5312              	buf.13262:
 5313 20e00 00000000 		.space	160
 5313      00000000 
 5313      00000000 
 5313      00000000 
 5313      00000000 
 5314              		.type	buf.13266, %object
 5315              		.size	buf.13266, 320
 5316              	buf.13266:
 5317 20ea0 00000000 		.space	320
 5317      00000000 
 5317      00000000 
 5317      00000000 
 5317      00000000 
 5318              		.type	buf.13270, %object
 5319              		.size	buf.13270, 2720
 5320              	buf.13270:
 5321 20fe0 00000000 		.space	2720
 5321      00000000 
 5321      00000000 
 5321      00000000 
 5321      00000000 
 5322              		.type	buf.13274, %object
 5323              		.size	buf.13274, 176
 5324              	buf.13274:
 5325 21a80 00000000 		.space	176
 5325      00000000 
 5325      00000000 
 5325      00000000 
 5325      00000000 
 5326              		.type	buf.13278, %object
 5327              		.size	buf.13278, 352
 5328              	buf.13278:
 5329 21b30 00000000 		.space	352
 5329      00000000 
 5329      00000000 
ARM GAS  C:\Users\jesse\AppData\Local\Temp\ccuy2FXa.s 			page 137


 5329      00000000 
 5329      00000000 
 5330              		.type	buf.13282, %object
 5331              		.size	buf.13282, 1584
 5332              	buf.13282:
 5333 21c90 00000000 		.space	1584
 5333      00000000 
 5333      00000000 
 5333      00000000 
 5333      00000000 
 5334              		.type	buf.13286, %object
 5335              		.size	buf.13286, 200
 5336              	buf.13286:
 5337 222c0 00000000 		.space	200
 5337      00000000 
 5337      00000000 
 5337      00000000 
 5337      00000000 
 5338              		.type	buf.13290, %object
 5339              		.size	buf.13290, 400
 5340              	buf.13290:
 5341 22388 00000000 		.space	400
 5341      00000000 
 5341      00000000 
 5341      00000000 
 5341      00000000 
 5342              		.type	buf.13294, %object
 5343              		.size	buf.13294, 5000
 5344              	buf.13294:
 5345 22518 00000000 		.space	5000
 5345      00000000 
 5345      00000000 
 5345      00000000 
 5345      00000000 
 5346              		.type	buf.13298, %object
 5347              		.size	buf.13298, 296
 5348              	buf.13298:
 5349 238a0 00000000 		.space	296
 5349      00000000 
 5349      00000000 
 5349      00000000 
 5349      00000000 
 5350              		.type	buf.13302, %object
 5351              		.size	buf.13302, 592
 5352              	buf.13302:
 5353 239c8 00000000 		.space	592
 5353      00000000 
 5353      00000000 
 5353      00000000 
 5353      00000000 
 5354              		.type	buf.13306, %object
 5355              		.size	buf.13306, 4736
 5356              	buf.13306:
 5357 23c18 00000000 		.space	4736
 5357      00000000 
 5357      00000000 
 5357      00000000 
ARM GAS  C:\Users\jesse\AppData\Local\Temp\ccuy2FXa.s 			page 138


 5357      00000000 
 5358              		.type	buf.13310, %object
 5359              		.size	buf.13310, 64
 5360              	buf.13310:
 5361 24e98 00000000 		.space	64
 5361      00000000 
 5361      00000000 
 5361      00000000 
 5361      00000000 
 5362              		.type	buf.13314, %object
 5363              		.size	buf.13314, 128
 5364              	buf.13314:
 5365 24ed8 00000000 		.space	128
 5365      00000000 
 5365      00000000 
 5365      00000000 
 5365      00000000 
 5366              		.type	buf.13318, %object
 5367              		.size	buf.13318, 64
 5368              	buf.13318:
 5369 24f58 00000000 		.space	64
 5369      00000000 
 5369      00000000 
 5369      00000000 
 5369      00000000 
 5370              		.type	buf.13322, %object
 5371              		.size	buf.13322, 32
 5372              	buf.13322:
 5373 24f98 00000000 		.space	32
 5373      00000000 
 5373      00000000 
 5373      00000000 
 5373      00000000 
 5374              		.type	buf.13326, %object
 5375              		.size	buf.13326, 64
 5376              	buf.13326:
 5377 24fb8 00000000 		.space	64
 5377      00000000 
 5377      00000000 
 5377      00000000 
 5377      00000000 
 5378              		.type	buf.13330, %object
 5379              		.size	buf.13330, 32
 5380              	buf.13330:
 5381 24ff8 00000000 		.space	32
 5381      00000000 
 5381      00000000 
 5381      00000000 
 5381      00000000 
 5382              		.type	buf.13334, %object
 5383              		.size	buf.13334, 8
 5384              	buf.13334:
 5385 25018 00000000 		.space	8
 5385      00000000 
 5386              		.type	buf.13338, %object
 5387              		.size	buf.13338, 16
 5388              	buf.13338:
ARM GAS  C:\Users\jesse\AppData\Local\Temp\ccuy2FXa.s 			page 139


 5389 25020 00000000 		.space	16
 5389      00000000 
 5389      00000000 
 5389      00000000 
 5390              		.type	buf.13342, %object
 5391              		.size	buf.13342, 8
 5392              	buf.13342:
 5393 25030 00000000 		.space	8
 5393      00000000 
 5394              		.type	buf.13346, %object
 5395              		.size	buf.13346, 160
 5396              	buf.13346:
 5397 25038 00000000 		.space	160
 5397      00000000 
 5397      00000000 
 5397      00000000 
 5397      00000000 
 5398              		.type	buf.13350, %object
 5399              		.size	buf.13350, 320
 5400              	buf.13350:
 5401 250d8 00000000 		.space	320
 5401      00000000 
 5401      00000000 
 5401      00000000 
 5401      00000000 
 5402              		.type	buf.13354, %object
 5403              		.size	buf.13354, 320
 5404              	buf.13354:
 5405 25218 00000000 		.space	320
 5405      00000000 
 5405      00000000 
 5405      00000000 
 5405      00000000 
 5406              		.type	buf.13358, %object
 5407              		.size	buf.13358, 256
 5408              	buf.13358:
 5409 25358 00000000 		.space	256
 5409      00000000 
 5409      00000000 
 5409      00000000 
 5409      00000000 
 5410              		.type	buf.13362, %object
 5411              		.size	buf.13362, 512
 5412              	buf.13362:
 5413 25458 00000000 		.space	512
 5413      00000000 
 5413      00000000 
 5413      00000000 
 5413      00000000 
 5414              		.type	buf.13366, %object
 5415              		.size	buf.13366, 1792
 5416              	buf.13366:
 5417 25658 00000000 		.space	1792
 5417      00000000 
 5417      00000000 
 5417      00000000 
 5417      00000000 
ARM GAS  C:\Users\jesse\AppData\Local\Temp\ccuy2FXa.s 			page 140


 5418              		.type	buf.13370, %object
 5419              		.size	buf.13370, 384
 5420              	buf.13370:
 5421 25d58 00000000 		.space	384
 5421      00000000 
 5421      00000000 
 5421      00000000 
 5421      00000000 
 5422              		.type	buf.13374, %object
 5423              		.size	buf.13374, 768
 5424              	buf.13374:
 5425 25ed8 00000000 		.space	768
 5425      00000000 
 5425      00000000 
 5425      00000000 
 5425      00000000 
 5426              		.type	buf.13378, %object
 5427              		.size	buf.13378, 11520
 5428              	buf.13378:
 5429 261d8 00000000 		.space	11520
 5429      00000000 
 5429      00000000 
 5429      00000000 
 5429      00000000 
 5430              		.text
 5431              	.Letext0:
 5432              		.file 2 "c:\\program files (x86)\\cypress\\psoc creator\\4.4\\psoc creator\\import\\gnu\\arm\\5.4.
 5433              		.file 3 "c:\\program files (x86)\\cypress\\psoc creator\\4.4\\psoc creator\\import\\gnu\\arm\\5.4.
 5434              		.section	.debug_info,"",%progbits
 5435              	.Ldebug_info0:
 5436 0000 042D0000 		.4byte	0x2d04
 5437 0004 0400     		.2byte	0x4
 5438 0006 00000000 		.4byte	.Ldebug_abbrev0
 5439 000a 04       		.byte	0x4
 5440 000b 01       		.uleb128 0x1
 5441 000c 41090000 		.4byte	.LASF182
 5442 0010 0C       		.byte	0xc
 5443 0011 44040000 		.4byte	.LASF183
 5444 0015 7B030000 		.4byte	.LASF184
 5445 0019 00000000 		.4byte	.Ldebug_ranges0+0
 5446 001d 00000000 		.4byte	0
 5447 0021 00000000 		.4byte	.Ldebug_line0
 5448 0025 02       		.uleb128 0x2
 5449 0026 01       		.byte	0x1
 5450 0027 06       		.byte	0x6
 5451 0028 6D0A0000 		.4byte	.LASF0
 5452 002c 03       		.uleb128 0x3
 5453 002d 1C080000 		.4byte	.LASF9
 5454 0031 02       		.byte	0x2
 5455 0032 1D       		.byte	0x1d
 5456 0033 37000000 		.4byte	0x37
 5457 0037 02       		.uleb128 0x2
 5458 0038 01       		.byte	0x1
 5459 0039 08       		.byte	0x8
 5460 003a C0080000 		.4byte	.LASF1
 5461 003e 02       		.uleb128 0x2
 5462 003f 02       		.byte	0x2
ARM GAS  C:\Users\jesse\AppData\Local\Temp\ccuy2FXa.s 			page 141


 5463 0040 05       		.byte	0x5
 5464 0041 92070000 		.4byte	.LASF2
 5465 0045 02       		.uleb128 0x2
 5466 0046 02       		.byte	0x2
 5467 0047 07       		.byte	0x7
 5468 0048 790A0000 		.4byte	.LASF3
 5469 004c 02       		.uleb128 0x2
 5470 004d 04       		.byte	0x4
 5471 004e 05       		.byte	0x5
 5472 004f BA070000 		.4byte	.LASF4
 5473 0053 02       		.uleb128 0x2
 5474 0054 04       		.byte	0x4
 5475 0055 07       		.byte	0x7
 5476 0056 2F080000 		.4byte	.LASF5
 5477 005a 02       		.uleb128 0x2
 5478 005b 08       		.byte	0x8
 5479 005c 05       		.byte	0x5
 5480 005d 40050000 		.4byte	.LASF6
 5481 0061 02       		.uleb128 0x2
 5482 0062 08       		.byte	0x8
 5483 0063 07       		.byte	0x7
 5484 0064 90020000 		.4byte	.LASF7
 5485 0068 04       		.uleb128 0x4
 5486 0069 04       		.byte	0x4
 5487 006a 05       		.byte	0x5
 5488 006b 696E7400 		.ascii	"int\000"
 5489 006f 02       		.uleb128 0x2
 5490 0070 04       		.byte	0x4
 5491 0071 07       		.byte	0x7
 5492 0072 57000000 		.4byte	.LASF8
 5493 0076 03       		.uleb128 0x3
 5494 0077 E1040000 		.4byte	.LASF10
 5495 007b 03       		.byte	0x3
 5496 007c 18       		.byte	0x18
 5497 007d 2C000000 		.4byte	0x2c
 5498 0081 02       		.uleb128 0x2
 5499 0082 08       		.byte	0x8
 5500 0083 04       		.byte	0x4
 5501 0084 E8060000 		.4byte	.LASF11
 5502 0088 05       		.uleb128 0x5
 5503 0089 04       		.byte	0x4
 5504 008a 76000000 		.4byte	0x76
 5505 008e 06       		.uleb128 0x6
 5506 008f C5020000 		.4byte	.LASF13
 5507 0093 01       		.byte	0x1
 5508 0094 06       		.byte	0x6
 5509 0095 88000000 		.4byte	0x88
 5510 0099 00000000 		.4byte	.LFB0
 5511 009d 0C000000 		.4byte	.LFE0-.LFB0
 5512 00a1 01       		.uleb128 0x1
 5513 00a2 9C       		.byte	0x9c
 5514 00a3 C8000000 		.4byte	0xc8
 5515 00a7 07       		.uleb128 0x7
 5516 00a8 7B080000 		.4byte	.LASF15
 5517 00ac 01       		.byte	0x1
 5518 00ad 06       		.byte	0x6
 5519 00ae 88000000 		.4byte	0x88
ARM GAS  C:\Users\jesse\AppData\Local\Temp\ccuy2FXa.s 			page 142


 5520 00b2 00000000 		.4byte	.LLST0
 5521 00b6 08       		.uleb128 0x8
 5522 00b7 62756600 		.ascii	"buf\000"
 5523 00bb 01       		.byte	0x1
 5524 00bc 0C       		.byte	0xc
 5525 00bd C8000000 		.4byte	0xc8
 5526 00c1 05       		.uleb128 0x5
 5527 00c2 03       		.byte	0x3
 5528 00c3 00000000 		.4byte	buf.12710
 5529 00c7 00       		.byte	0
 5530 00c8 09       		.uleb128 0x9
 5531 00c9 76000000 		.4byte	0x76
 5532 00cd D8000000 		.4byte	0xd8
 5533 00d1 0A       		.uleb128 0xa
 5534 00d2 D8000000 		.4byte	0xd8
 5535 00d6 7F       		.byte	0x7f
 5536 00d7 00       		.byte	0
 5537 00d8 02       		.uleb128 0x2
 5538 00d9 04       		.byte	0x4
 5539 00da 07       		.byte	0x7
 5540 00db 26080000 		.4byte	.LASF12
 5541 00df 06       		.uleb128 0x6
 5542 00e0 D3020000 		.4byte	.LASF14
 5543 00e4 01       		.byte	0x1
 5544 00e5 11       		.byte	0x11
 5545 00e6 88000000 		.4byte	0x88
 5546 00ea 00000000 		.4byte	.LFB1
 5547 00ee 0C000000 		.4byte	.LFE1-.LFB1
 5548 00f2 01       		.uleb128 0x1
 5549 00f3 9C       		.byte	0x9c
 5550 00f4 19010000 		.4byte	0x119
 5551 00f8 07       		.uleb128 0x7
 5552 00f9 7B080000 		.4byte	.LASF15
 5553 00fd 01       		.byte	0x1
 5554 00fe 11       		.byte	0x11
 5555 00ff 88000000 		.4byte	0x88
 5556 0103 21000000 		.4byte	.LLST1
 5557 0107 08       		.uleb128 0x8
 5558 0108 62756600 		.ascii	"buf\000"
 5559 010c 01       		.byte	0x1
 5560 010d 17       		.byte	0x17
 5561 010e 19010000 		.4byte	0x119
 5562 0112 05       		.uleb128 0x5
 5563 0113 03       		.byte	0x3
 5564 0114 80000000 		.4byte	buf.12714
 5565 0118 00       		.byte	0
 5566 0119 09       		.uleb128 0x9
 5567 011a 76000000 		.4byte	0x76
 5568 011e 29010000 		.4byte	0x129
 5569 0122 0A       		.uleb128 0xa
 5570 0123 D8000000 		.4byte	0xd8
 5571 0127 FF       		.byte	0xff
 5572 0128 00       		.byte	0
 5573 0129 06       		.uleb128 0x6
 5574 012a 5F030000 		.4byte	.LASF16
 5575 012e 01       		.byte	0x1
 5576 012f 1C       		.byte	0x1c
ARM GAS  C:\Users\jesse\AppData\Local\Temp\ccuy2FXa.s 			page 143


 5577 0130 88000000 		.4byte	0x88
 5578 0134 00000000 		.4byte	.LFB2
 5579 0138 0C000000 		.4byte	.LFE2-.LFB2
 5580 013c 01       		.uleb128 0x1
 5581 013d 9C       		.byte	0x9c
 5582 013e 63010000 		.4byte	0x163
 5583 0142 07       		.uleb128 0x7
 5584 0143 7B080000 		.4byte	.LASF15
 5585 0147 01       		.byte	0x1
 5586 0148 1C       		.byte	0x1c
 5587 0149 88000000 		.4byte	0x88
 5588 014d 42000000 		.4byte	.LLST2
 5589 0151 08       		.uleb128 0x8
 5590 0152 62756600 		.ascii	"buf\000"
 5591 0156 01       		.byte	0x1
 5592 0157 22       		.byte	0x22
 5593 0158 63010000 		.4byte	0x163
 5594 015c 05       		.uleb128 0x5
 5595 015d 03       		.byte	0x3
 5596 015e 80010000 		.4byte	buf.12718
 5597 0162 00       		.byte	0
 5598 0163 09       		.uleb128 0x9
 5599 0164 76000000 		.4byte	0x76
 5600 0168 74010000 		.4byte	0x174
 5601 016c 0B       		.uleb128 0xb
 5602 016d D8000000 		.4byte	0xd8
 5603 0171 FF01     		.2byte	0x1ff
 5604 0173 00       		.byte	0
 5605 0174 06       		.uleb128 0x6
 5606 0175 CE080000 		.4byte	.LASF17
 5607 0179 01       		.byte	0x1
 5608 017a 27       		.byte	0x27
 5609 017b 88000000 		.4byte	0x88
 5610 017f 00000000 		.4byte	.LFB3
 5611 0183 0C000000 		.4byte	.LFE3-.LFB3
 5612 0187 01       		.uleb128 0x1
 5613 0188 9C       		.byte	0x9c
 5614 0189 AE010000 		.4byte	0x1ae
 5615 018d 07       		.uleb128 0x7
 5616 018e 7B080000 		.4byte	.LASF15
 5617 0192 01       		.byte	0x1
 5618 0193 27       		.byte	0x27
 5619 0194 88000000 		.4byte	0x88
 5620 0198 63000000 		.4byte	.LLST3
 5621 019c 08       		.uleb128 0x8
 5622 019d 62756600 		.ascii	"buf\000"
 5623 01a1 01       		.byte	0x1
 5624 01a2 2D       		.byte	0x2d
 5625 01a3 C8000000 		.4byte	0xc8
 5626 01a7 05       		.uleb128 0x5
 5627 01a8 03       		.byte	0x3
 5628 01a9 80030000 		.4byte	buf.12722
 5629 01ad 00       		.byte	0
 5630 01ae 06       		.uleb128 0x6
 5631 01af DC080000 		.4byte	.LASF18
 5632 01b3 01       		.byte	0x1
 5633 01b4 32       		.byte	0x32
ARM GAS  C:\Users\jesse\AppData\Local\Temp\ccuy2FXa.s 			page 144


 5634 01b5 88000000 		.4byte	0x88
 5635 01b9 00000000 		.4byte	.LFB4
 5636 01bd 0C000000 		.4byte	.LFE4-.LFB4
 5637 01c1 01       		.uleb128 0x1
 5638 01c2 9C       		.byte	0x9c
 5639 01c3 E8010000 		.4byte	0x1e8
 5640 01c7 07       		.uleb128 0x7
 5641 01c8 7B080000 		.4byte	.LASF15
 5642 01cc 01       		.byte	0x1
 5643 01cd 32       		.byte	0x32
 5644 01ce 88000000 		.4byte	0x88
 5645 01d2 84000000 		.4byte	.LLST4
 5646 01d6 08       		.uleb128 0x8
 5647 01d7 62756600 		.ascii	"buf\000"
 5648 01db 01       		.byte	0x1
 5649 01dc 38       		.byte	0x38
 5650 01dd 19010000 		.4byte	0x119
 5651 01e1 05       		.uleb128 0x5
 5652 01e2 03       		.byte	0x3
 5653 01e3 00040000 		.4byte	buf.12726
 5654 01e7 00       		.byte	0
 5655 01e8 06       		.uleb128 0x6
 5656 01e9 170A0000 		.4byte	.LASF19
 5657 01ed 01       		.byte	0x1
 5658 01ee 3D       		.byte	0x3d
 5659 01ef 88000000 		.4byte	0x88
 5660 01f3 00000000 		.4byte	.LFB5
 5661 01f7 0C000000 		.4byte	.LFE5-.LFB5
 5662 01fb 01       		.uleb128 0x1
 5663 01fc 9C       		.byte	0x9c
 5664 01fd 22020000 		.4byte	0x222
 5665 0201 07       		.uleb128 0x7
 5666 0202 7B080000 		.4byte	.LASF15
 5667 0206 01       		.byte	0x1
 5668 0207 3D       		.byte	0x3d
 5669 0208 88000000 		.4byte	0x88
 5670 020c A5000000 		.4byte	.LLST5
 5671 0210 08       		.uleb128 0x8
 5672 0211 62756600 		.ascii	"buf\000"
 5673 0215 01       		.byte	0x1
 5674 0216 43       		.byte	0x43
 5675 0217 22020000 		.4byte	0x222
 5676 021b 05       		.uleb128 0x5
 5677 021c 03       		.byte	0x3
 5678 021d 00050000 		.4byte	buf.12730
 5679 0221 00       		.byte	0
 5680 0222 09       		.uleb128 0x9
 5681 0223 76000000 		.4byte	0x76
 5682 0227 33020000 		.4byte	0x233
 5683 022b 0B       		.uleb128 0xb
 5684 022c D8000000 		.4byte	0xd8
 5685 0230 FF03     		.2byte	0x3ff
 5686 0232 00       		.byte	0
 5687 0233 06       		.uleb128 0x6
 5688 0234 08040000 		.4byte	.LASF20
 5689 0238 01       		.byte	0x1
 5690 0239 48       		.byte	0x48
ARM GAS  C:\Users\jesse\AppData\Local\Temp\ccuy2FXa.s 			page 145


 5691 023a 88000000 		.4byte	0x88
 5692 023e 00000000 		.4byte	.LFB6
 5693 0242 0C000000 		.4byte	.LFE6-.LFB6
 5694 0246 01       		.uleb128 0x1
 5695 0247 9C       		.byte	0x9c
 5696 0248 6D020000 		.4byte	0x26d
 5697 024c 07       		.uleb128 0x7
 5698 024d 7B080000 		.4byte	.LASF15
 5699 0251 01       		.byte	0x1
 5700 0252 48       		.byte	0x48
 5701 0253 88000000 		.4byte	0x88
 5702 0257 C6000000 		.4byte	.LLST6
 5703 025b 08       		.uleb128 0x8
 5704 025c 62756600 		.ascii	"buf\000"
 5705 0260 01       		.byte	0x1
 5706 0261 4E       		.byte	0x4e
 5707 0262 6D020000 		.4byte	0x26d
 5708 0266 05       		.uleb128 0x5
 5709 0267 03       		.byte	0x3
 5710 0268 00090000 		.4byte	buf.12734
 5711 026c 00       		.byte	0
 5712 026d 09       		.uleb128 0x9
 5713 026e 76000000 		.4byte	0x76
 5714 0272 7E020000 		.4byte	0x27e
 5715 0276 0B       		.uleb128 0xb
 5716 0277 D8000000 		.4byte	0xd8
 5717 027b F707     		.2byte	0x7f7
 5718 027d 00       		.byte	0
 5719 027e 06       		.uleb128 0x6
 5720 027f 17040000 		.4byte	.LASF21
 5721 0283 01       		.byte	0x1
 5722 0284 53       		.byte	0x53
 5723 0285 88000000 		.4byte	0x88
 5724 0289 00000000 		.4byte	.LFB7
 5725 028d 0C000000 		.4byte	.LFE7-.LFB7
 5726 0291 01       		.uleb128 0x1
 5727 0292 9C       		.byte	0x9c
 5728 0293 B8020000 		.4byte	0x2b8
 5729 0297 07       		.uleb128 0x7
 5730 0298 7B080000 		.4byte	.LASF15
 5731 029c 01       		.byte	0x1
 5732 029d 53       		.byte	0x53
 5733 029e 88000000 		.4byte	0x88
 5734 02a2 E7000000 		.4byte	.LLST7
 5735 02a6 08       		.uleb128 0x8
 5736 02a7 62756600 		.ascii	"buf\000"
 5737 02ab 01       		.byte	0x1
 5738 02ac 59       		.byte	0x59
 5739 02ad B8020000 		.4byte	0x2b8
 5740 02b1 05       		.uleb128 0x5
 5741 02b2 03       		.byte	0x3
 5742 02b3 F8100000 		.4byte	buf.12738
 5743 02b7 00       		.byte	0
 5744 02b8 09       		.uleb128 0x9
 5745 02b9 76000000 		.4byte	0x76
 5746 02bd C9020000 		.4byte	0x2c9
 5747 02c1 0B       		.uleb128 0xb
ARM GAS  C:\Users\jesse\AppData\Local\Temp\ccuy2FXa.s 			page 146


 5748 02c2 D8000000 		.4byte	0xd8
 5749 02c6 EF0F     		.2byte	0xfef
 5750 02c8 00       		.byte	0
 5751 02c9 06       		.uleb128 0x6
 5752 02ca 79040000 		.4byte	.LASF22
 5753 02ce 01       		.byte	0x1
 5754 02cf 5E       		.byte	0x5e
 5755 02d0 88000000 		.4byte	0x88
 5756 02d4 00000000 		.4byte	.LFB8
 5757 02d8 0C000000 		.4byte	.LFE8-.LFB8
 5758 02dc 01       		.uleb128 0x1
 5759 02dd 9C       		.byte	0x9c
 5760 02de 03030000 		.4byte	0x303
 5761 02e2 07       		.uleb128 0x7
 5762 02e3 7B080000 		.4byte	.LASF15
 5763 02e7 01       		.byte	0x1
 5764 02e8 5E       		.byte	0x5e
 5765 02e9 88000000 		.4byte	0x88
 5766 02ed 08010000 		.4byte	.LLST8
 5767 02f1 08       		.uleb128 0x8
 5768 02f2 62756600 		.ascii	"buf\000"
 5769 02f6 01       		.byte	0x1
 5770 02f7 64       		.byte	0x64
 5771 02f8 B8020000 		.4byte	0x2b8
 5772 02fc 05       		.uleb128 0x5
 5773 02fd 03       		.byte	0x3
 5774 02fe E8200000 		.4byte	buf.12742
 5775 0302 00       		.byte	0
 5776 0303 06       		.uleb128 0x6
 5777 0304 E1030000 		.4byte	.LASF23
 5778 0308 01       		.byte	0x1
 5779 0309 69       		.byte	0x69
 5780 030a 88000000 		.4byte	0x88
 5781 030e 00000000 		.4byte	.LFB9
 5782 0312 0C000000 		.4byte	.LFE9-.LFB9
 5783 0316 01       		.uleb128 0x1
 5784 0317 9C       		.byte	0x9c
 5785 0318 3D030000 		.4byte	0x33d
 5786 031c 07       		.uleb128 0x7
 5787 031d 7B080000 		.4byte	.LASF15
 5788 0321 01       		.byte	0x1
 5789 0322 69       		.byte	0x69
 5790 0323 88000000 		.4byte	0x88
 5791 0327 29010000 		.4byte	.LLST9
 5792 032b 08       		.uleb128 0x8
 5793 032c 62756600 		.ascii	"buf\000"
 5794 0330 01       		.byte	0x1
 5795 0331 6F       		.byte	0x6f
 5796 0332 3D030000 		.4byte	0x33d
 5797 0336 05       		.uleb128 0x5
 5798 0337 03       		.byte	0x3
 5799 0338 D8300000 		.4byte	buf.12746
 5800 033c 00       		.byte	0
 5801 033d 09       		.uleb128 0x9
 5802 033e 76000000 		.4byte	0x76
 5803 0342 4D030000 		.4byte	0x34d
 5804 0346 0A       		.uleb128 0xa
ARM GAS  C:\Users\jesse\AppData\Local\Temp\ccuy2FXa.s 			page 147


 5805 0347 D8000000 		.4byte	0xd8
 5806 034b 47       		.byte	0x47
 5807 034c 00       		.byte	0
 5808 034d 06       		.uleb128 0x6
 5809 034e EE030000 		.4byte	.LASF24
 5810 0352 01       		.byte	0x1
 5811 0353 74       		.byte	0x74
 5812 0354 88000000 		.4byte	0x88
 5813 0358 00000000 		.4byte	.LFB10
 5814 035c 0C000000 		.4byte	.LFE10-.LFB10
 5815 0360 01       		.uleb128 0x1
 5816 0361 9C       		.byte	0x9c
 5817 0362 87030000 		.4byte	0x387
 5818 0366 07       		.uleb128 0x7
 5819 0367 7B080000 		.4byte	.LASF15
 5820 036b 01       		.byte	0x1
 5821 036c 74       		.byte	0x74
 5822 036d 88000000 		.4byte	0x88
 5823 0371 4A010000 		.4byte	.LLST10
 5824 0375 08       		.uleb128 0x8
 5825 0376 62756600 		.ascii	"buf\000"
 5826 037a 01       		.byte	0x1
 5827 037b 7A       		.byte	0x7a
 5828 037c 87030000 		.4byte	0x387
 5829 0380 05       		.uleb128 0x5
 5830 0381 03       		.byte	0x3
 5831 0382 20310000 		.4byte	buf.12750
 5832 0386 00       		.byte	0
 5833 0387 09       		.uleb128 0x9
 5834 0388 76000000 		.4byte	0x76
 5835 038c 97030000 		.4byte	0x397
 5836 0390 0A       		.uleb128 0xa
 5837 0391 D8000000 		.4byte	0xd8
 5838 0395 8F       		.byte	0x8f
 5839 0396 00       		.byte	0
 5840 0397 06       		.uleb128 0x6
 5841 0398 6C040000 		.4byte	.LASF25
 5842 039c 01       		.byte	0x1
 5843 039d 7F       		.byte	0x7f
 5844 039e 88000000 		.4byte	0x88
 5845 03a2 00000000 		.4byte	.LFB11
 5846 03a6 0C000000 		.4byte	.LFE11-.LFB11
 5847 03aa 01       		.uleb128 0x1
 5848 03ab 9C       		.byte	0x9c
 5849 03ac D1030000 		.4byte	0x3d1
 5850 03b0 07       		.uleb128 0x7
 5851 03b1 7B080000 		.4byte	.LASF15
 5852 03b5 01       		.byte	0x1
 5853 03b6 7F       		.byte	0x7f
 5854 03b7 88000000 		.4byte	0x88
 5855 03bb 6B010000 		.4byte	.LLST11
 5856 03bf 08       		.uleb128 0x8
 5857 03c0 62756600 		.ascii	"buf\000"
 5858 03c4 01       		.byte	0x1
 5859 03c5 85       		.byte	0x85
 5860 03c6 D1030000 		.4byte	0x3d1
 5861 03ca 05       		.uleb128 0x5
ARM GAS  C:\Users\jesse\AppData\Local\Temp\ccuy2FXa.s 			page 148


 5862 03cb 03       		.byte	0x3
 5863 03cc B0310000 		.4byte	buf.12754
 5864 03d0 00       		.byte	0
 5865 03d1 09       		.uleb128 0x9
 5866 03d2 76000000 		.4byte	0x76
 5867 03d6 E2030000 		.4byte	0x3e2
 5868 03da 0B       		.uleb128 0xb
 5869 03db D8000000 		.4byte	0xd8
 5870 03df 6701     		.2byte	0x167
 5871 03e1 00       		.byte	0
 5872 03e2 06       		.uleb128 0x6
 5873 03e3 1D000000 		.4byte	.LASF26
 5874 03e7 01       		.byte	0x1
 5875 03e8 8A       		.byte	0x8a
 5876 03e9 88000000 		.4byte	0x88
 5877 03ed 00000000 		.4byte	.LFB12
 5878 03f1 0C000000 		.4byte	.LFE12-.LFB12
 5879 03f5 01       		.uleb128 0x1
 5880 03f6 9C       		.byte	0x9c
 5881 03f7 1C040000 		.4byte	0x41c
 5882 03fb 07       		.uleb128 0x7
 5883 03fc 7B080000 		.4byte	.LASF15
 5884 0400 01       		.byte	0x1
 5885 0401 8A       		.byte	0x8a
 5886 0402 88000000 		.4byte	0x88
 5887 0406 8C010000 		.4byte	.LLST12
 5888 040a 08       		.uleb128 0x8
 5889 040b 62756600 		.ascii	"buf\000"
 5890 040f 01       		.byte	0x1
 5891 0410 90       		.byte	0x90
 5892 0411 1C040000 		.4byte	0x41c
 5893 0415 05       		.uleb128 0x5
 5894 0416 03       		.byte	0x3
 5895 0417 18330000 		.4byte	buf.12758
 5896 041b 00       		.byte	0
 5897 041c 09       		.uleb128 0x9
 5898 041d 76000000 		.4byte	0x76
 5899 0421 2C040000 		.4byte	0x42c
 5900 0425 0A       		.uleb128 0xa
 5901 0426 D8000000 		.4byte	0xd8
 5902 042a 5F       		.byte	0x5f
 5903 042b 00       		.byte	0
 5904 042c 06       		.uleb128 0x6
 5905 042d 2B000000 		.4byte	.LASF27
 5906 0431 01       		.byte	0x1
 5907 0432 95       		.byte	0x95
 5908 0433 88000000 		.4byte	0x88
 5909 0437 00000000 		.4byte	.LFB13
 5910 043b 0C000000 		.4byte	.LFE13-.LFB13
 5911 043f 01       		.uleb128 0x1
 5912 0440 9C       		.byte	0x9c
 5913 0441 66040000 		.4byte	0x466
 5914 0445 07       		.uleb128 0x7
 5915 0446 7B080000 		.4byte	.LASF15
 5916 044a 01       		.byte	0x1
 5917 044b 95       		.byte	0x95
 5918 044c 88000000 		.4byte	0x88
ARM GAS  C:\Users\jesse\AppData\Local\Temp\ccuy2FXa.s 			page 149


 5919 0450 AD010000 		.4byte	.LLST13
 5920 0454 08       		.uleb128 0x8
 5921 0455 62756600 		.ascii	"buf\000"
 5922 0459 01       		.byte	0x1
 5923 045a 9B       		.byte	0x9b
 5924 045b 66040000 		.4byte	0x466
 5925 045f 05       		.uleb128 0x5
 5926 0460 03       		.byte	0x3
 5927 0461 78330000 		.4byte	buf.12762
 5928 0465 00       		.byte	0
 5929 0466 09       		.uleb128 0x9
 5930 0467 76000000 		.4byte	0x76
 5931 046b 76040000 		.4byte	0x476
 5932 046f 0A       		.uleb128 0xa
 5933 0470 D8000000 		.4byte	0xd8
 5934 0474 BF       		.byte	0xbf
 5935 0475 00       		.byte	0
 5936 0476 06       		.uleb128 0x6
 5937 0477 AA000000 		.4byte	.LASF28
 5938 047b 01       		.byte	0x1
 5939 047c A0       		.byte	0xa0
 5940 047d 88000000 		.4byte	0x88
 5941 0481 00000000 		.4byte	.LFB14
 5942 0485 0C000000 		.4byte	.LFE14-.LFB14
 5943 0489 01       		.uleb128 0x1
 5944 048a 9C       		.byte	0x9c
 5945 048b B0040000 		.4byte	0x4b0
 5946 048f 07       		.uleb128 0x7
 5947 0490 7B080000 		.4byte	.LASF15
 5948 0494 01       		.byte	0x1
 5949 0495 A0       		.byte	0xa0
 5950 0496 88000000 		.4byte	0x88
 5951 049a CE010000 		.4byte	.LLST14
 5952 049e 08       		.uleb128 0x8
 5953 049f 62756600 		.ascii	"buf\000"
 5954 04a3 01       		.byte	0x1
 5955 04a4 A6       		.byte	0xa6
 5956 04a5 B0040000 		.4byte	0x4b0
 5957 04a9 05       		.uleb128 0x5
 5958 04aa 03       		.byte	0x3
 5959 04ab 38340000 		.4byte	buf.12766
 5960 04af 00       		.byte	0
 5961 04b0 09       		.uleb128 0x9
 5962 04b1 76000000 		.4byte	0x76
 5963 04b5 C1040000 		.4byte	0x4c1
 5964 04b9 0B       		.uleb128 0xb
 5965 04ba D8000000 		.4byte	0xd8
 5966 04be DF01     		.2byte	0x1df
 5967 04c0 00       		.byte	0
 5968 04c1 06       		.uleb128 0x6
 5969 04c2 45030000 		.4byte	.LASF29
 5970 04c6 01       		.byte	0x1
 5971 04c7 AB       		.byte	0xab
 5972 04c8 88000000 		.4byte	0x88
 5973 04cc 00000000 		.4byte	.LFB15
 5974 04d0 0C000000 		.4byte	.LFE15-.LFB15
 5975 04d4 01       		.uleb128 0x1
ARM GAS  C:\Users\jesse\AppData\Local\Temp\ccuy2FXa.s 			page 150


 5976 04d5 9C       		.byte	0x9c
 5977 04d6 FB040000 		.4byte	0x4fb
 5978 04da 07       		.uleb128 0x7
 5979 04db 7B080000 		.4byte	.LASF15
 5980 04df 01       		.byte	0x1
 5981 04e0 AB       		.byte	0xab
 5982 04e1 88000000 		.4byte	0x88
 5983 04e5 EF010000 		.4byte	.LLST15
 5984 04e9 08       		.uleb128 0x8
 5985 04ea 62756600 		.ascii	"buf\000"
 5986 04ee 01       		.byte	0x1
 5987 04ef B1       		.byte	0xb1
 5988 04f0 FB040000 		.4byte	0x4fb
 5989 04f4 05       		.uleb128 0x5
 5990 04f5 03       		.byte	0x3
 5991 04f6 18360000 		.4byte	buf.12770
 5992 04fa 00       		.byte	0
 5993 04fb 09       		.uleb128 0x9
 5994 04fc 76000000 		.4byte	0x76
 5995 0500 0B050000 		.4byte	0x50b
 5996 0504 0A       		.uleb128 0xa
 5997 0505 D8000000 		.4byte	0xd8
 5998 0509 3F       		.byte	0x3f
 5999 050a 00       		.byte	0
 6000 050b 06       		.uleb128 0x6
 6001 050c 52030000 		.4byte	.LASF30
 6002 0510 01       		.byte	0x1
 6003 0511 B6       		.byte	0xb6
 6004 0512 88000000 		.4byte	0x88
 6005 0516 00000000 		.4byte	.LFB16
 6006 051a 0C000000 		.4byte	.LFE16-.LFB16
 6007 051e 01       		.uleb128 0x1
 6008 051f 9C       		.byte	0x9c
 6009 0520 45050000 		.4byte	0x545
 6010 0524 07       		.uleb128 0x7
 6011 0525 7B080000 		.4byte	.LASF15
 6012 0529 01       		.byte	0x1
 6013 052a B6       		.byte	0xb6
 6014 052b 88000000 		.4byte	0x88
 6015 052f 10020000 		.4byte	.LLST16
 6016 0533 08       		.uleb128 0x8
 6017 0534 62756600 		.ascii	"buf\000"
 6018 0538 01       		.byte	0x1
 6019 0539 BC       		.byte	0xbc
 6020 053a C8000000 		.4byte	0xc8
 6021 053e 05       		.uleb128 0x5
 6022 053f 03       		.byte	0x3
 6023 0540 58360000 		.4byte	buf.12774
 6024 0544 00       		.byte	0
 6025 0545 06       		.uleb128 0x6
 6026 0546 FB030000 		.4byte	.LASF31
 6027 054a 01       		.byte	0x1
 6028 054b C1       		.byte	0xc1
 6029 054c 88000000 		.4byte	0x88
 6030 0550 00000000 		.4byte	.LFB17
 6031 0554 0C000000 		.4byte	.LFE17-.LFB17
 6032 0558 01       		.uleb128 0x1
ARM GAS  C:\Users\jesse\AppData\Local\Temp\ccuy2FXa.s 			page 151


 6033 0559 9C       		.byte	0x9c
 6034 055a 7F050000 		.4byte	0x57f
 6035 055e 07       		.uleb128 0x7
 6036 055f 7B080000 		.4byte	.LASF15
 6037 0563 01       		.byte	0x1
 6038 0564 C1       		.byte	0xc1
 6039 0565 88000000 		.4byte	0x88
 6040 0569 31020000 		.4byte	.LLST17
 6041 056d 08       		.uleb128 0x8
 6042 056e 62756600 		.ascii	"buf\000"
 6043 0572 01       		.byte	0x1
 6044 0573 C7       		.byte	0xc7
 6045 0574 19010000 		.4byte	0x119
 6046 0578 05       		.uleb128 0x5
 6047 0579 03       		.byte	0x3
 6048 057a D8360000 		.4byte	buf.12778
 6049 057e 00       		.byte	0
 6050 057f 06       		.uleb128 0x6
 6051 0580 F8040000 		.4byte	.LASF32
 6052 0584 01       		.byte	0x1
 6053 0585 CC       		.byte	0xcc
 6054 0586 88000000 		.4byte	0x88
 6055 058a 00000000 		.4byte	.LFB18
 6056 058e 0C000000 		.4byte	.LFE18-.LFB18
 6057 0592 01       		.uleb128 0x1
 6058 0593 9C       		.byte	0x9c
 6059 0594 B9050000 		.4byte	0x5b9
 6060 0598 07       		.uleb128 0x7
 6061 0599 7B080000 		.4byte	.LASF15
 6062 059d 01       		.byte	0x1
 6063 059e CC       		.byte	0xcc
 6064 059f 88000000 		.4byte	0x88
 6065 05a3 52020000 		.4byte	.LLST18
 6066 05a7 08       		.uleb128 0x8
 6067 05a8 62756600 		.ascii	"buf\000"
 6068 05ac 01       		.byte	0x1
 6069 05ad D2       		.byte	0xd2
 6070 05ae FB040000 		.4byte	0x4fb
 6071 05b2 05       		.uleb128 0x5
 6072 05b3 03       		.byte	0x3
 6073 05b4 D8370000 		.4byte	buf.12782
 6074 05b8 00       		.byte	0
 6075 05b9 06       		.uleb128 0x6
 6076 05ba 06050000 		.4byte	.LASF33
 6077 05be 01       		.byte	0x1
 6078 05bf D7       		.byte	0xd7
 6079 05c0 88000000 		.4byte	0x88
 6080 05c4 00000000 		.4byte	.LFB19
 6081 05c8 0C000000 		.4byte	.LFE19-.LFB19
 6082 05cc 01       		.uleb128 0x1
 6083 05cd 9C       		.byte	0x9c
 6084 05ce F3050000 		.4byte	0x5f3
 6085 05d2 07       		.uleb128 0x7
 6086 05d3 7B080000 		.4byte	.LASF15
 6087 05d7 01       		.byte	0x1
 6088 05d8 D7       		.byte	0xd7
 6089 05d9 88000000 		.4byte	0x88
ARM GAS  C:\Users\jesse\AppData\Local\Temp\ccuy2FXa.s 			page 152


 6090 05dd 73020000 		.4byte	.LLST19
 6091 05e1 08       		.uleb128 0x8
 6092 05e2 62756600 		.ascii	"buf\000"
 6093 05e6 01       		.byte	0x1
 6094 05e7 DD       		.byte	0xdd
 6095 05e8 C8000000 		.4byte	0xc8
 6096 05ec 05       		.uleb128 0x5
 6097 05ed 03       		.byte	0x3
 6098 05ee 18380000 		.4byte	buf.12786
 6099 05f2 00       		.byte	0
 6100 05f3 06       		.uleb128 0x6
 6101 05f4 A2050000 		.4byte	.LASF34
 6102 05f8 01       		.byte	0x1
 6103 05f9 E2       		.byte	0xe2
 6104 05fa 88000000 		.4byte	0x88
 6105 05fe 00000000 		.4byte	.LFB20
 6106 0602 0C000000 		.4byte	.LFE20-.LFB20
 6107 0606 01       		.uleb128 0x1
 6108 0607 9C       		.byte	0x9c
 6109 0608 2D060000 		.4byte	0x62d
 6110 060c 07       		.uleb128 0x7
 6111 060d 7B080000 		.4byte	.LASF15
 6112 0611 01       		.byte	0x1
 6113 0612 E2       		.byte	0xe2
 6114 0613 88000000 		.4byte	0x88
 6115 0617 94020000 		.4byte	.LLST20
 6116 061b 08       		.uleb128 0x8
 6117 061c 62756600 		.ascii	"buf\000"
 6118 0620 01       		.byte	0x1
 6119 0621 E8       		.byte	0xe8
 6120 0622 22020000 		.4byte	0x222
 6121 0626 05       		.uleb128 0x5
 6122 0627 03       		.byte	0x3
 6123 0628 98380000 		.4byte	buf.12790
 6124 062c 00       		.byte	0
 6125 062d 06       		.uleb128 0x6
 6126 062e A2080000 		.4byte	.LASF35
 6127 0632 01       		.byte	0x1
 6128 0633 ED       		.byte	0xed
 6129 0634 88000000 		.4byte	0x88
 6130 0638 00000000 		.4byte	.LFB21
 6131 063c 0C000000 		.4byte	.LFE21-.LFB21
 6132 0640 01       		.uleb128 0x1
 6133 0641 9C       		.byte	0x9c
 6134 0642 67060000 		.4byte	0x667
 6135 0646 07       		.uleb128 0x7
 6136 0647 7B080000 		.4byte	.LASF15
 6137 064b 01       		.byte	0x1
 6138 064c ED       		.byte	0xed
 6139 064d 88000000 		.4byte	0x88
 6140 0651 B5020000 		.4byte	.LLST21
 6141 0655 08       		.uleb128 0x8
 6142 0656 62756600 		.ascii	"buf\000"
 6143 065a 01       		.byte	0x1
 6144 065b F3       		.byte	0xf3
 6145 065c 1C040000 		.4byte	0x41c
 6146 0660 05       		.uleb128 0x5
ARM GAS  C:\Users\jesse\AppData\Local\Temp\ccuy2FXa.s 			page 153


 6147 0661 03       		.byte	0x3
 6148 0662 983C0000 		.4byte	buf.12794
 6149 0666 00       		.byte	0
 6150 0667 06       		.uleb128 0x6
 6151 0668 B1080000 		.4byte	.LASF36
 6152 066c 01       		.byte	0x1
 6153 066d F8       		.byte	0xf8
 6154 066e 88000000 		.4byte	0x88
 6155 0672 00000000 		.4byte	.LFB22
 6156 0676 0C000000 		.4byte	.LFE22-.LFB22
 6157 067a 01       		.uleb128 0x1
 6158 067b 9C       		.byte	0x9c
 6159 067c A1060000 		.4byte	0x6a1
 6160 0680 07       		.uleb128 0x7
 6161 0681 7B080000 		.4byte	.LASF15
 6162 0685 01       		.byte	0x1
 6163 0686 F8       		.byte	0xf8
 6164 0687 88000000 		.4byte	0x88
 6165 068b D6020000 		.4byte	.LLST22
 6166 068f 08       		.uleb128 0x8
 6167 0690 62756600 		.ascii	"buf\000"
 6168 0694 01       		.byte	0x1
 6169 0695 FE       		.byte	0xfe
 6170 0696 66040000 		.4byte	0x466
 6171 069a 05       		.uleb128 0x5
 6172 069b 03       		.byte	0x3
 6173 069c F83C0000 		.4byte	buf.12798
 6174 06a0 00       		.byte	0
 6175 06a1 0C       		.uleb128 0xc
 6176 06a2 32090000 		.4byte	.LASF37
 6177 06a6 01       		.byte	0x1
 6178 06a7 0301     		.2byte	0x103
 6179 06a9 88000000 		.4byte	0x88
 6180 06ad 00000000 		.4byte	.LFB23
 6181 06b1 0C000000 		.4byte	.LFE23-.LFB23
 6182 06b5 01       		.uleb128 0x1
 6183 06b6 9C       		.byte	0x9c
 6184 06b7 DE060000 		.4byte	0x6de
 6185 06bb 0D       		.uleb128 0xd
 6186 06bc 7B080000 		.4byte	.LASF15
 6187 06c0 01       		.byte	0x1
 6188 06c1 0301     		.2byte	0x103
 6189 06c3 88000000 		.4byte	0x88
 6190 06c7 F7020000 		.4byte	.LLST23
 6191 06cb 0E       		.uleb128 0xe
 6192 06cc 62756600 		.ascii	"buf\000"
 6193 06d0 01       		.byte	0x1
 6194 06d1 0901     		.2byte	0x109
 6195 06d3 DE060000 		.4byte	0x6de
 6196 06d7 05       		.uleb128 0x5
 6197 06d8 03       		.byte	0x3
 6198 06d9 B83D0000 		.4byte	buf.12802
 6199 06dd 00       		.byte	0
 6200 06de 09       		.uleb128 0x9
 6201 06df 76000000 		.4byte	0x76
 6202 06e3 EF060000 		.4byte	0x6ef
 6203 06e7 0B       		.uleb128 0xb
ARM GAS  C:\Users\jesse\AppData\Local\Temp\ccuy2FXa.s 			page 154


 6204 06e8 D8000000 		.4byte	0xd8
 6205 06ec 7F04     		.2byte	0x47f
 6206 06ee 00       		.byte	0
 6207 06ef 0C       		.uleb128 0xc
 6208 06f0 E0000000 		.4byte	.LASF38
 6209 06f4 01       		.byte	0x1
 6210 06f5 0E01     		.2byte	0x10e
 6211 06f7 88000000 		.4byte	0x88
 6212 06fb 00000000 		.4byte	.LFB24
 6213 06ff 0C000000 		.4byte	.LFE24-.LFB24
 6214 0703 01       		.uleb128 0x1
 6215 0704 9C       		.byte	0x9c
 6216 0705 2C070000 		.4byte	0x72c
 6217 0709 0D       		.uleb128 0xd
 6218 070a 7B080000 		.4byte	.LASF15
 6219 070e 01       		.byte	0x1
 6220 070f 0E01     		.2byte	0x10e
 6221 0711 88000000 		.4byte	0x88
 6222 0715 18030000 		.4byte	.LLST24
 6223 0719 0E       		.uleb128 0xe
 6224 071a 62756600 		.ascii	"buf\000"
 6225 071e 01       		.byte	0x1
 6226 071f 1401     		.2byte	0x114
 6227 0721 2C070000 		.4byte	0x72c
 6228 0725 05       		.uleb128 0x5
 6229 0726 03       		.byte	0x3
 6230 0727 38420000 		.4byte	buf.12806
 6231 072b 00       		.byte	0
 6232 072c 09       		.uleb128 0x9
 6233 072d 76000000 		.4byte	0x76
 6234 0731 3C070000 		.4byte	0x73c
 6235 0735 0A       		.uleb128 0xa
 6236 0736 D8000000 		.4byte	0xd8
 6237 073a 4F       		.byte	0x4f
 6238 073b 00       		.byte	0
 6239 073c 0C       		.uleb128 0xc
 6240 073d EF000000 		.4byte	.LASF39
 6241 0741 01       		.byte	0x1
 6242 0742 1901     		.2byte	0x119
 6243 0744 88000000 		.4byte	0x88
 6244 0748 00000000 		.4byte	.LFB25
 6245 074c 0C000000 		.4byte	.LFE25-.LFB25
 6246 0750 01       		.uleb128 0x1
 6247 0751 9C       		.byte	0x9c
 6248 0752 79070000 		.4byte	0x779
 6249 0756 0D       		.uleb128 0xd
 6250 0757 7B080000 		.4byte	.LASF15
 6251 075b 01       		.byte	0x1
 6252 075c 1901     		.2byte	0x119
 6253 075e 88000000 		.4byte	0x88
 6254 0762 39030000 		.4byte	.LLST25
 6255 0766 0E       		.uleb128 0xe
 6256 0767 62756600 		.ascii	"buf\000"
 6257 076b 01       		.byte	0x1
 6258 076c 1F01     		.2byte	0x11f
 6259 076e 79070000 		.4byte	0x779
 6260 0772 05       		.uleb128 0x5
ARM GAS  C:\Users\jesse\AppData\Local\Temp\ccuy2FXa.s 			page 155


 6261 0773 03       		.byte	0x3
 6262 0774 88420000 		.4byte	buf.12810
 6263 0778 00       		.byte	0
 6264 0779 09       		.uleb128 0x9
 6265 077a 76000000 		.4byte	0x76
 6266 077e 89070000 		.4byte	0x789
 6267 0782 0A       		.uleb128 0xa
 6268 0783 D8000000 		.4byte	0xd8
 6269 0787 9F       		.byte	0x9f
 6270 0788 00       		.byte	0
 6271 0789 0C       		.uleb128 0xc
 6272 078a 80010000 		.4byte	.LASF40
 6273 078e 01       		.byte	0x1
 6274 078f 2401     		.2byte	0x124
 6275 0791 88000000 		.4byte	0x88
 6276 0795 00000000 		.4byte	.LFB26
 6277 0799 0C000000 		.4byte	.LFE26-.LFB26
 6278 079d 01       		.uleb128 0x1
 6279 079e 9C       		.byte	0x9c
 6280 079f C6070000 		.4byte	0x7c6
 6281 07a3 0D       		.uleb128 0xd
 6282 07a4 7B080000 		.4byte	.LASF15
 6283 07a8 01       		.byte	0x1
 6284 07a9 2401     		.2byte	0x124
 6285 07ab 88000000 		.4byte	0x88
 6286 07af 5A030000 		.4byte	.LLST26
 6287 07b3 0E       		.uleb128 0xe
 6288 07b4 62756600 		.ascii	"buf\000"
 6289 07b8 01       		.byte	0x1
 6290 07b9 2A01     		.2byte	0x12a
 6291 07bb C6070000 		.4byte	0x7c6
 6292 07bf 05       		.uleb128 0x5
 6293 07c0 03       		.byte	0x3
 6294 07c1 28430000 		.4byte	buf.12814
 6295 07c5 00       		.byte	0
 6296 07c6 09       		.uleb128 0x9
 6297 07c7 76000000 		.4byte	0x76
 6298 07cb D7070000 		.4byte	0x7d7
 6299 07cf 0B       		.uleb128 0xb
 6300 07d0 D8000000 		.4byte	0xd8
 6301 07d4 FF04     		.2byte	0x4ff
 6302 07d6 00       		.byte	0
 6303 07d7 0C       		.uleb128 0xc
 6304 07d8 FE070000 		.4byte	.LASF41
 6305 07dc 01       		.byte	0x1
 6306 07dd 2F01     		.2byte	0x12f
 6307 07df 88000000 		.4byte	0x88
 6308 07e3 00000000 		.4byte	.LFB27
 6309 07e7 0C000000 		.4byte	.LFE27-.LFB27
 6310 07eb 01       		.uleb128 0x1
 6311 07ec 9C       		.byte	0x9c
 6312 07ed 14080000 		.4byte	0x814
 6313 07f1 0D       		.uleb128 0xd
 6314 07f2 7B080000 		.4byte	.LASF15
 6315 07f6 01       		.byte	0x1
 6316 07f7 2F01     		.2byte	0x12f
 6317 07f9 88000000 		.4byte	0x88
ARM GAS  C:\Users\jesse\AppData\Local\Temp\ccuy2FXa.s 			page 156


 6318 07fd 7B030000 		.4byte	.LLST27
 6319 0801 0E       		.uleb128 0xe
 6320 0802 62756600 		.ascii	"buf\000"
 6321 0806 01       		.byte	0x1
 6322 0807 3501     		.2byte	0x135
 6323 0809 C8000000 		.4byte	0xc8
 6324 080d 05       		.uleb128 0x5
 6325 080e 03       		.byte	0x3
 6326 080f 28480000 		.4byte	buf.12818
 6327 0813 00       		.byte	0
 6328 0814 0C       		.uleb128 0xc
 6329 0815 0D080000 		.4byte	.LASF42
 6330 0819 01       		.byte	0x1
 6331 081a 3A01     		.2byte	0x13a
 6332 081c 88000000 		.4byte	0x88
 6333 0820 00000000 		.4byte	.LFB28
 6334 0824 0C000000 		.4byte	.LFE28-.LFB28
 6335 0828 01       		.uleb128 0x1
 6336 0829 9C       		.byte	0x9c
 6337 082a 51080000 		.4byte	0x851
 6338 082e 0D       		.uleb128 0xd
 6339 082f 7B080000 		.4byte	.LASF15
 6340 0833 01       		.byte	0x1
 6341 0834 3A01     		.2byte	0x13a
 6342 0836 88000000 		.4byte	0x88
 6343 083a 9C030000 		.4byte	.LLST28
 6344 083e 0E       		.uleb128 0xe
 6345 083f 62756600 		.ascii	"buf\000"
 6346 0843 01       		.byte	0x1
 6347 0844 4001     		.2byte	0x140
 6348 0846 19010000 		.4byte	0x119
 6349 084a 05       		.uleb128 0x5
 6350 084b 03       		.byte	0x3
 6351 084c A8480000 		.4byte	buf.12822
 6352 0850 00       		.byte	0
 6353 0851 0C       		.uleb128 0xc
 6354 0852 41080000 		.4byte	.LASF43
 6355 0856 01       		.byte	0x1
 6356 0857 4501     		.2byte	0x145
 6357 0859 88000000 		.4byte	0x88
 6358 085d 00000000 		.4byte	.LFB29
 6359 0861 0C000000 		.4byte	.LFE29-.LFB29
 6360 0865 01       		.uleb128 0x1
 6361 0866 9C       		.byte	0x9c
 6362 0867 8E080000 		.4byte	0x88e
 6363 086b 0D       		.uleb128 0xd
 6364 086c 7B080000 		.4byte	.LASF15
 6365 0870 01       		.byte	0x1
 6366 0871 4501     		.2byte	0x145
 6367 0873 88000000 		.4byte	0x88
 6368 0877 BD030000 		.4byte	.LLST29
 6369 087b 0E       		.uleb128 0xe
 6370 087c 62756600 		.ascii	"buf\000"
 6371 0880 01       		.byte	0x1
 6372 0881 4B01     		.2byte	0x14b
 6373 0883 8E080000 		.4byte	0x88e
 6374 0887 05       		.uleb128 0x5
ARM GAS  C:\Users\jesse\AppData\Local\Temp\ccuy2FXa.s 			page 157


 6375 0888 03       		.byte	0x3
 6376 0889 A8490000 		.4byte	buf.12826
 6377 088d 00       		.byte	0
 6378 088e 09       		.uleb128 0x9
 6379 088f 76000000 		.4byte	0x76
 6380 0893 9F080000 		.4byte	0x89f
 6381 0897 0B       		.uleb128 0xb
 6382 0898 D8000000 		.4byte	0xd8
 6383 089c FF07     		.2byte	0x7ff
 6384 089e 00       		.byte	0
 6385 089f 0C       		.uleb128 0xc
 6386 08a0 CF090000 		.4byte	.LASF44
 6387 08a4 01       		.byte	0x1
 6388 08a5 5001     		.2byte	0x150
 6389 08a7 88000000 		.4byte	0x88
 6390 08ab 00000000 		.4byte	.LFB30
 6391 08af 0C000000 		.4byte	.LFE30-.LFB30
 6392 08b3 01       		.uleb128 0x1
 6393 08b4 9C       		.byte	0x9c
 6394 08b5 DC080000 		.4byte	0x8dc
 6395 08b9 0D       		.uleb128 0xd
 6396 08ba 7B080000 		.4byte	.LASF15
 6397 08be 01       		.byte	0x1
 6398 08bf 5001     		.2byte	0x150
 6399 08c1 88000000 		.4byte	0x88
 6400 08c5 DE030000 		.4byte	.LLST30
 6401 08c9 0E       		.uleb128 0xe
 6402 08ca 62756600 		.ascii	"buf\000"
 6403 08ce 01       		.byte	0x1
 6404 08cf 5601     		.2byte	0x156
 6405 08d1 79070000 		.4byte	0x779
 6406 08d5 05       		.uleb128 0x5
 6407 08d6 03       		.byte	0x3
 6408 08d7 A8510000 		.4byte	buf.12830
 6409 08db 00       		.byte	0
 6410 08dc 0C       		.uleb128 0xc
 6411 08dd DE090000 		.4byte	.LASF45
 6412 08e1 01       		.byte	0x1
 6413 08e2 5B01     		.2byte	0x15b
 6414 08e4 88000000 		.4byte	0x88
 6415 08e8 00000000 		.4byte	.LFB31
 6416 08ec 0C000000 		.4byte	.LFE31-.LFB31
 6417 08f0 01       		.uleb128 0x1
 6418 08f1 9C       		.byte	0x9c
 6419 08f2 19090000 		.4byte	0x919
 6420 08f6 0D       		.uleb128 0xd
 6421 08f7 7B080000 		.4byte	.LASF15
 6422 08fb 01       		.byte	0x1
 6423 08fc 5B01     		.2byte	0x15b
 6424 08fe 88000000 		.4byte	0x88
 6425 0902 FF030000 		.4byte	.LLST31
 6426 0906 0E       		.uleb128 0xe
 6427 0907 62756600 		.ascii	"buf\000"
 6428 090b 01       		.byte	0x1
 6429 090c 6101     		.2byte	0x161
 6430 090e 19090000 		.4byte	0x919
 6431 0912 05       		.uleb128 0x5
ARM GAS  C:\Users\jesse\AppData\Local\Temp\ccuy2FXa.s 			page 158


 6432 0913 03       		.byte	0x3
 6433 0914 48520000 		.4byte	buf.12834
 6434 0918 00       		.byte	0
 6435 0919 09       		.uleb128 0x9
 6436 091a 76000000 		.4byte	0x76
 6437 091e 2A090000 		.4byte	0x92a
 6438 0922 0B       		.uleb128 0xb
 6439 0923 D8000000 		.4byte	0xd8
 6440 0927 3F01     		.2byte	0x13f
 6441 0929 00       		.byte	0
 6442 092a 0C       		.uleb128 0xc
 6443 092b A80A0000 		.4byte	.LASF46
 6444 092f 01       		.byte	0x1
 6445 0930 6601     		.2byte	0x166
 6446 0932 88000000 		.4byte	0x88
 6447 0936 00000000 		.4byte	.LFB32
 6448 093a 0C000000 		.4byte	.LFE32-.LFB32
 6449 093e 01       		.uleb128 0x1
 6450 093f 9C       		.byte	0x9c
 6451 0940 67090000 		.4byte	0x967
 6452 0944 0D       		.uleb128 0xd
 6453 0945 7B080000 		.4byte	.LASF15
 6454 0949 01       		.byte	0x1
 6455 094a 6601     		.2byte	0x166
 6456 094c 88000000 		.4byte	0x88
 6457 0950 20040000 		.4byte	.LLST32
 6458 0954 0E       		.uleb128 0xe
 6459 0955 62756600 		.ascii	"buf\000"
 6460 0959 01       		.byte	0x1
 6461 095a 6C01     		.2byte	0x16c
 6462 095c 67090000 		.4byte	0x967
 6463 0960 05       		.uleb128 0x5
 6464 0961 03       		.byte	0x3
 6465 0962 88530000 		.4byte	buf.12838
 6466 0966 00       		.byte	0
 6467 0967 09       		.uleb128 0x9
 6468 0968 76000000 		.4byte	0x76
 6469 096c 78090000 		.4byte	0x978
 6470 0970 0B       		.uleb128 0xb
 6471 0971 D8000000 		.4byte	0xd8
 6472 0975 7F0C     		.2byte	0xc7f
 6473 0977 00       		.byte	0
 6474 0978 0C       		.uleb128 0xc
 6475 0979 86050000 		.4byte	.LASF47
 6476 097d 01       		.byte	0x1
 6477 097e 7101     		.2byte	0x171
 6478 0980 88000000 		.4byte	0x88
 6479 0984 00000000 		.4byte	.LFB33
 6480 0988 0C000000 		.4byte	.LFE33-.LFB33
 6481 098c 01       		.uleb128 0x1
 6482 098d 9C       		.byte	0x9c
 6483 098e B5090000 		.4byte	0x9b5
 6484 0992 0D       		.uleb128 0xd
 6485 0993 7B080000 		.4byte	.LASF15
 6486 0997 01       		.byte	0x1
 6487 0998 7101     		.2byte	0x171
 6488 099a 88000000 		.4byte	0x88
ARM GAS  C:\Users\jesse\AppData\Local\Temp\ccuy2FXa.s 			page 159


 6489 099e 41040000 		.4byte	.LLST33
 6490 09a2 0E       		.uleb128 0xe
 6491 09a3 62756600 		.ascii	"buf\000"
 6492 09a7 01       		.byte	0x1
 6493 09a8 7701     		.2byte	0x177
 6494 09aa 19010000 		.4byte	0x119
 6495 09ae 05       		.uleb128 0x5
 6496 09af 03       		.byte	0x3
 6497 09b0 08600000 		.4byte	buf.12842
 6498 09b4 00       		.byte	0
 6499 09b5 0C       		.uleb128 0xc
 6500 09b6 94050000 		.4byte	.LASF48
 6501 09ba 01       		.byte	0x1
 6502 09bb 7C01     		.2byte	0x17c
 6503 09bd 88000000 		.4byte	0x88
 6504 09c1 00000000 		.4byte	.LFB34
 6505 09c5 0C000000 		.4byte	.LFE34-.LFB34
 6506 09c9 01       		.uleb128 0x1
 6507 09ca 9C       		.byte	0x9c
 6508 09cb F2090000 		.4byte	0x9f2
 6509 09cf 0D       		.uleb128 0xd
 6510 09d0 7B080000 		.4byte	.LASF15
 6511 09d4 01       		.byte	0x1
 6512 09d5 7C01     		.2byte	0x17c
 6513 09d7 88000000 		.4byte	0x88
 6514 09db 62040000 		.4byte	.LLST34
 6515 09df 0E       		.uleb128 0xe
 6516 09e0 62756600 		.ascii	"buf\000"
 6517 09e4 01       		.byte	0x1
 6518 09e5 8201     		.2byte	0x182
 6519 09e7 63010000 		.4byte	0x163
 6520 09eb 05       		.uleb128 0x5
 6521 09ec 03       		.byte	0x3
 6522 09ed 08610000 		.4byte	buf.12846
 6523 09f1 00       		.byte	0
 6524 09f2 0C       		.uleb128 0xc
 6525 09f3 04060000 		.4byte	.LASF49
 6526 09f7 01       		.byte	0x1
 6527 09f8 8701     		.2byte	0x187
 6528 09fa 88000000 		.4byte	0x88
 6529 09fe 00000000 		.4byte	.LFB35
 6530 0a02 0C000000 		.4byte	.LFE35-.LFB35
 6531 0a06 01       		.uleb128 0x1
 6532 0a07 9C       		.byte	0x9c
 6533 0a08 2F0A0000 		.4byte	0xa2f
 6534 0a0c 0D       		.uleb128 0xd
 6535 0a0d 7B080000 		.4byte	.LASF15
 6536 0a11 01       		.byte	0x1
 6537 0a12 8701     		.2byte	0x187
 6538 0a14 88000000 		.4byte	0x88
 6539 0a18 83040000 		.4byte	.LLST35
 6540 0a1c 0E       		.uleb128 0xe
 6541 0a1d 62756600 		.ascii	"buf\000"
 6542 0a21 01       		.byte	0x1
 6543 0a22 8D01     		.2byte	0x18d
 6544 0a24 8E080000 		.4byte	0x88e
 6545 0a28 05       		.uleb128 0x5
ARM GAS  C:\Users\jesse\AppData\Local\Temp\ccuy2FXa.s 			page 160


 6546 0a29 03       		.byte	0x3
 6547 0a2a 08630000 		.4byte	buf.12850
 6548 0a2e 00       		.byte	0
 6549 0a2f 0C       		.uleb128 0xc
 6550 0a30 ED090000 		.4byte	.LASF50
 6551 0a34 01       		.byte	0x1
 6552 0a35 9201     		.2byte	0x192
 6553 0a37 88000000 		.4byte	0x88
 6554 0a3b 00000000 		.4byte	.LFB36
 6555 0a3f 0C000000 		.4byte	.LFE36-.LFB36
 6556 0a43 01       		.uleb128 0x1
 6557 0a44 9C       		.byte	0x9c
 6558 0a45 6C0A0000 		.4byte	0xa6c
 6559 0a49 0D       		.uleb128 0xd
 6560 0a4a 7B080000 		.4byte	.LASF15
 6561 0a4e 01       		.byte	0x1
 6562 0a4f 9201     		.2byte	0x192
 6563 0a51 88000000 		.4byte	0x88
 6564 0a55 A4040000 		.4byte	.LLST36
 6565 0a59 0E       		.uleb128 0xe
 6566 0a5a 62756600 		.ascii	"buf\000"
 6567 0a5e 01       		.byte	0x1
 6568 0a5f 9801     		.2byte	0x198
 6569 0a61 6C0A0000 		.4byte	0xa6c
 6570 0a65 05       		.uleb128 0x5
 6571 0a66 03       		.byte	0x3
 6572 0a67 086B0000 		.4byte	buf.12854
 6573 0a6b 00       		.byte	0
 6574 0a6c 09       		.uleb128 0x9
 6575 0a6d 76000000 		.4byte	0x76
 6576 0a71 7C0A0000 		.4byte	0xa7c
 6577 0a75 0A       		.uleb128 0xa
 6578 0a76 D8000000 		.4byte	0xd8
 6579 0a7a 67       		.byte	0x67
 6580 0a7b 00       		.byte	0
 6581 0a7c 0C       		.uleb128 0xc
 6582 0a7d FB090000 		.4byte	.LASF51
 6583 0a81 01       		.byte	0x1
 6584 0a82 9D01     		.2byte	0x19d
 6585 0a84 88000000 		.4byte	0x88
 6586 0a88 00000000 		.4byte	.LFB37
 6587 0a8c 0C000000 		.4byte	.LFE37-.LFB37
 6588 0a90 01       		.uleb128 0x1
 6589 0a91 9C       		.byte	0x9c
 6590 0a92 B90A0000 		.4byte	0xab9
 6591 0a96 0D       		.uleb128 0xd
 6592 0a97 7B080000 		.4byte	.LASF15
 6593 0a9b 01       		.byte	0x1
 6594 0a9c 9D01     		.2byte	0x19d
 6595 0a9e 88000000 		.4byte	0x88
 6596 0aa2 C5040000 		.4byte	.LLST37
 6597 0aa6 0E       		.uleb128 0xe
 6598 0aa7 62756600 		.ascii	"buf\000"
 6599 0aab 01       		.byte	0x1
 6600 0aac A301     		.2byte	0x1a3
 6601 0aae B90A0000 		.4byte	0xab9
 6602 0ab2 05       		.uleb128 0x5
ARM GAS  C:\Users\jesse\AppData\Local\Temp\ccuy2FXa.s 			page 161


 6603 0ab3 03       		.byte	0x3
 6604 0ab4 706B0000 		.4byte	buf.12858
 6605 0ab8 00       		.byte	0
 6606 0ab9 09       		.uleb128 0x9
 6607 0aba 76000000 		.4byte	0x76
 6608 0abe C90A0000 		.4byte	0xac9
 6609 0ac2 0A       		.uleb128 0xa
 6610 0ac3 D8000000 		.4byte	0xd8
 6611 0ac7 CF       		.byte	0xcf
 6612 0ac8 00       		.byte	0
 6613 0ac9 0C       		.uleb128 0xc
 6614 0aca B70A0000 		.4byte	.LASF52
 6615 0ace 01       		.byte	0x1
 6616 0acf A801     		.2byte	0x1a8
 6617 0ad1 88000000 		.4byte	0x88
 6618 0ad5 00000000 		.4byte	.LFB38
 6619 0ad9 0C000000 		.4byte	.LFE38-.LFB38
 6620 0add 01       		.uleb128 0x1
 6621 0ade 9C       		.byte	0x9c
 6622 0adf 060B0000 		.4byte	0xb06
 6623 0ae3 0D       		.uleb128 0xd
 6624 0ae4 7B080000 		.4byte	.LASF15
 6625 0ae8 01       		.byte	0x1
 6626 0ae9 A801     		.2byte	0x1a8
 6627 0aeb 88000000 		.4byte	0x88
 6628 0aef E6040000 		.4byte	.LLST38
 6629 0af3 0E       		.uleb128 0xe
 6630 0af4 62756600 		.ascii	"buf\000"
 6631 0af8 01       		.byte	0x1
 6632 0af9 AE01     		.2byte	0x1ae
 6633 0afb 060B0000 		.4byte	0xb06
 6634 0aff 05       		.uleb128 0x5
 6635 0b00 03       		.byte	0x3
 6636 0b01 406C0000 		.4byte	buf.12862
 6637 0b05 00       		.byte	0
 6638 0b06 09       		.uleb128 0x9
 6639 0b07 76000000 		.4byte	0x76
 6640 0b0b 170B0000 		.4byte	0xb17
 6641 0b0f 0B       		.uleb128 0xb
 6642 0b10 D8000000 		.4byte	0xd8
 6643 0b14 3F03     		.2byte	0x33f
 6644 0b16 00       		.byte	0
 6645 0b17 0C       		.uleb128 0xc
 6646 0b18 90000000 		.4byte	.LASF53
 6647 0b1c 01       		.byte	0x1
 6648 0b1d B301     		.2byte	0x1b3
 6649 0b1f 88000000 		.4byte	0x88
 6650 0b23 00000000 		.4byte	.LFB39
 6651 0b27 0C000000 		.4byte	.LFE39-.LFB39
 6652 0b2b 01       		.uleb128 0x1
 6653 0b2c 9C       		.byte	0x9c
 6654 0b2d 540B0000 		.4byte	0xb54
 6655 0b31 0D       		.uleb128 0xd
 6656 0b32 7B080000 		.4byte	.LASF15
 6657 0b36 01       		.byte	0x1
 6658 0b37 B301     		.2byte	0x1b3
 6659 0b39 88000000 		.4byte	0x88
ARM GAS  C:\Users\jesse\AppData\Local\Temp\ccuy2FXa.s 			page 162


 6660 0b3d 07050000 		.4byte	.LLST39
 6661 0b41 0E       		.uleb128 0xe
 6662 0b42 62756600 		.ascii	"buf\000"
 6663 0b46 01       		.byte	0x1
 6664 0b47 B901     		.2byte	0x1b9
 6665 0b49 FB040000 		.4byte	0x4fb
 6666 0b4d 05       		.uleb128 0x5
 6667 0b4e 03       		.byte	0x3
 6668 0b4f 806F0000 		.4byte	buf.12866
 6669 0b53 00       		.byte	0
 6670 0b54 0C       		.uleb128 0xc
 6671 0b55 9D000000 		.4byte	.LASF54
 6672 0b59 01       		.byte	0x1
 6673 0b5a BE01     		.2byte	0x1be
 6674 0b5c 88000000 		.4byte	0x88
 6675 0b60 00000000 		.4byte	.LFB40
 6676 0b64 0C000000 		.4byte	.LFE40-.LFB40
 6677 0b68 01       		.uleb128 0x1
 6678 0b69 9C       		.byte	0x9c
 6679 0b6a 910B0000 		.4byte	0xb91
 6680 0b6e 0D       		.uleb128 0xd
 6681 0b6f 7B080000 		.4byte	.LASF15
 6682 0b73 01       		.byte	0x1
 6683 0b74 BE01     		.2byte	0x1be
 6684 0b76 88000000 		.4byte	0x88
 6685 0b7a 28050000 		.4byte	.LLST40
 6686 0b7e 0E       		.uleb128 0xe
 6687 0b7f 62756600 		.ascii	"buf\000"
 6688 0b83 01       		.byte	0x1
 6689 0b84 C401     		.2byte	0x1c4
 6690 0b86 C8000000 		.4byte	0xc8
 6691 0b8a 05       		.uleb128 0x5
 6692 0b8b 03       		.byte	0x3
 6693 0b8c C06F0000 		.4byte	buf.12870
 6694 0b90 00       		.byte	0
 6695 0b91 0C       		.uleb128 0xc
 6696 0b92 0D010000 		.4byte	.LASF55
 6697 0b96 01       		.byte	0x1
 6698 0b97 C901     		.2byte	0x1c9
 6699 0b99 88000000 		.4byte	0x88
 6700 0b9d 00000000 		.4byte	.LFB41
 6701 0ba1 0C000000 		.4byte	.LFE41-.LFB41
 6702 0ba5 01       		.uleb128 0x1
 6703 0ba6 9C       		.byte	0x9c
 6704 0ba7 CE0B0000 		.4byte	0xbce
 6705 0bab 0D       		.uleb128 0xd
 6706 0bac 7B080000 		.4byte	.LASF15
 6707 0bb0 01       		.byte	0x1
 6708 0bb1 C901     		.2byte	0x1c9
 6709 0bb3 88000000 		.4byte	0x88
 6710 0bb7 49050000 		.4byte	.LLST41
 6711 0bbb 0E       		.uleb128 0xe
 6712 0bbc 62756600 		.ascii	"buf\000"
 6713 0bc0 01       		.byte	0x1
 6714 0bc1 CF01     		.2byte	0x1cf
 6715 0bc3 CE0B0000 		.4byte	0xbce
 6716 0bc7 05       		.uleb128 0x5
ARM GAS  C:\Users\jesse\AppData\Local\Temp\ccuy2FXa.s 			page 163


 6717 0bc8 03       		.byte	0x3
 6718 0bc9 40700000 		.4byte	buf.12874
 6719 0bcd 00       		.byte	0
 6720 0bce 09       		.uleb128 0x9
 6721 0bcf 76000000 		.4byte	0x76
 6722 0bd3 DF0B0000 		.4byte	0xbdf
 6723 0bd7 0B       		.uleb128 0xb
 6724 0bd8 D8000000 		.4byte	0xd8
 6725 0bdc 7F01     		.2byte	0x17f
 6726 0bde 00       		.byte	0
 6727 0bdf 0C       		.uleb128 0xc
 6728 0be0 4C060000 		.4byte	.LASF56
 6729 0be4 01       		.byte	0x1
 6730 0be5 D401     		.2byte	0x1d4
 6731 0be7 88000000 		.4byte	0x88
 6732 0beb 00000000 		.4byte	.LFB42
 6733 0bef 0C000000 		.4byte	.LFE42-.LFB42
 6734 0bf3 01       		.uleb128 0x1
 6735 0bf4 9C       		.byte	0x9c
 6736 0bf5 1C0C0000 		.4byte	0xc1c
 6737 0bf9 0D       		.uleb128 0xd
 6738 0bfa 7B080000 		.4byte	.LASF15
 6739 0bfe 01       		.byte	0x1
 6740 0bff D401     		.2byte	0x1d4
 6741 0c01 88000000 		.4byte	0x88
 6742 0c05 6A050000 		.4byte	.LLST42
 6743 0c09 0E       		.uleb128 0xe
 6744 0c0a 62756600 		.ascii	"buf\000"
 6745 0c0e 01       		.byte	0x1
 6746 0c0f DA01     		.2byte	0x1da
 6747 0c11 1C0C0000 		.4byte	0xc1c
 6748 0c15 05       		.uleb128 0x5
 6749 0c16 03       		.byte	0x3
 6750 0c17 C0710000 		.4byte	buf.12878
 6751 0c1b 00       		.byte	0
 6752 0c1c 09       		.uleb128 0x9
 6753 0c1d 76000000 		.4byte	0x76
 6754 0c21 2C0C0000 		.4byte	0xc2c
 6755 0c25 0A       		.uleb128 0xa
 6756 0c26 D8000000 		.4byte	0xd8
 6757 0c2a 2F       		.byte	0x2f
 6758 0c2b 00       		.byte	0
 6759 0c2c 0C       		.uleb128 0xc
 6760 0c2d 59060000 		.4byte	.LASF57
 6761 0c31 01       		.byte	0x1
 6762 0c32 DF01     		.2byte	0x1df
 6763 0c34 88000000 		.4byte	0x88
 6764 0c38 00000000 		.4byte	.LFB43
 6765 0c3c 0C000000 		.4byte	.LFE43-.LFB43
 6766 0c40 01       		.uleb128 0x1
 6767 0c41 9C       		.byte	0x9c
 6768 0c42 690C0000 		.4byte	0xc69
 6769 0c46 0D       		.uleb128 0xd
 6770 0c47 7B080000 		.4byte	.LASF15
 6771 0c4b 01       		.byte	0x1
 6772 0c4c DF01     		.2byte	0x1df
 6773 0c4e 88000000 		.4byte	0x88
ARM GAS  C:\Users\jesse\AppData\Local\Temp\ccuy2FXa.s 			page 164


 6774 0c52 8B050000 		.4byte	.LLST43
 6775 0c56 0E       		.uleb128 0xe
 6776 0c57 62756600 		.ascii	"buf\000"
 6777 0c5b 01       		.byte	0x1
 6778 0c5c E501     		.2byte	0x1e5
 6779 0c5e 1C040000 		.4byte	0x41c
 6780 0c62 05       		.uleb128 0x5
 6781 0c63 03       		.byte	0x3
 6782 0c64 F0710000 		.4byte	buf.12882
 6783 0c68 00       		.byte	0
 6784 0c69 0C       		.uleb128 0xc
 6785 0c6a 1F070000 		.4byte	.LASF58
 6786 0c6e 01       		.byte	0x1
 6787 0c6f EA01     		.2byte	0x1ea
 6788 0c71 88000000 		.4byte	0x88
 6789 0c75 00000000 		.4byte	.LFB44
 6790 0c79 0C000000 		.4byte	.LFE44-.LFB44
 6791 0c7d 01       		.uleb128 0x1
 6792 0c7e 9C       		.byte	0x9c
 6793 0c7f A60C0000 		.4byte	0xca6
 6794 0c83 0D       		.uleb128 0xd
 6795 0c84 7B080000 		.4byte	.LASF15
 6796 0c88 01       		.byte	0x1
 6797 0c89 EA01     		.2byte	0x1ea
 6798 0c8b 88000000 		.4byte	0x88
 6799 0c8f AC050000 		.4byte	.LLST44
 6800 0c93 0E       		.uleb128 0xe
 6801 0c94 62756600 		.ascii	"buf\000"
 6802 0c98 01       		.byte	0x1
 6803 0c99 F001     		.2byte	0x1f0
 6804 0c9b CE0B0000 		.4byte	0xbce
 6805 0c9f 05       		.uleb128 0x5
 6806 0ca0 03       		.byte	0x3
 6807 0ca1 50720000 		.4byte	buf.12886
 6808 0ca5 00       		.byte	0
 6809 0ca6 0C       		.uleb128 0xc
 6810 0ca7 16090000 		.4byte	.LASF59
 6811 0cab 01       		.byte	0x1
 6812 0cac F501     		.2byte	0x1f5
 6813 0cae 88000000 		.4byte	0x88
 6814 0cb2 00000000 		.4byte	.LFB45
 6815 0cb6 0C000000 		.4byte	.LFE45-.LFB45
 6816 0cba 01       		.uleb128 0x1
 6817 0cbb 9C       		.byte	0x9c
 6818 0cbc E30C0000 		.4byte	0xce3
 6819 0cc0 0D       		.uleb128 0xd
 6820 0cc1 7B080000 		.4byte	.LASF15
 6821 0cc5 01       		.byte	0x1
 6822 0cc6 F501     		.2byte	0x1f5
 6823 0cc8 88000000 		.4byte	0x88
 6824 0ccc CD050000 		.4byte	.LLST45
 6825 0cd0 0E       		.uleb128 0xe
 6826 0cd1 62756600 		.ascii	"buf\000"
 6827 0cd5 01       		.byte	0x1
 6828 0cd6 FB01     		.2byte	0x1fb
 6829 0cd8 1C040000 		.4byte	0x41c
 6830 0cdc 05       		.uleb128 0x5
ARM GAS  C:\Users\jesse\AppData\Local\Temp\ccuy2FXa.s 			page 165


 6831 0cdd 03       		.byte	0x3
 6832 0cde D0730000 		.4byte	buf.12890
 6833 0ce2 00       		.byte	0
 6834 0ce3 0C       		.uleb128 0xc
 6835 0ce4 24090000 		.4byte	.LASF60
 6836 0ce8 01       		.byte	0x1
 6837 0ce9 0002     		.2byte	0x200
 6838 0ceb 88000000 		.4byte	0x88
 6839 0cef 00000000 		.4byte	.LFB46
 6840 0cf3 0C000000 		.4byte	.LFE46-.LFB46
 6841 0cf7 01       		.uleb128 0x1
 6842 0cf8 9C       		.byte	0x9c
 6843 0cf9 200D0000 		.4byte	0xd20
 6844 0cfd 0D       		.uleb128 0xd
 6845 0cfe 7B080000 		.4byte	.LASF15
 6846 0d02 01       		.byte	0x1
 6847 0d03 0002     		.2byte	0x200
 6848 0d05 88000000 		.4byte	0x88
 6849 0d09 EE050000 		.4byte	.LLST46
 6850 0d0d 0E       		.uleb128 0xe
 6851 0d0e 62756600 		.ascii	"buf\000"
 6852 0d12 01       		.byte	0x1
 6853 0d13 0602     		.2byte	0x206
 6854 0d15 66040000 		.4byte	0x466
 6855 0d19 05       		.uleb128 0x5
 6856 0d1a 03       		.byte	0x3
 6857 0d1b 30740000 		.4byte	buf.12894
 6858 0d1f 00       		.byte	0
 6859 0d20 0C       		.uleb128 0xc
 6860 0d21 5F0A0000 		.4byte	.LASF61
 6861 0d25 01       		.byte	0x1
 6862 0d26 0B02     		.2byte	0x20b
 6863 0d28 88000000 		.4byte	0x88
 6864 0d2c 00000000 		.4byte	.LFB47
 6865 0d30 0C000000 		.4byte	.LFE47-.LFB47
 6866 0d34 01       		.uleb128 0x1
 6867 0d35 9C       		.byte	0x9c
 6868 0d36 5D0D0000 		.4byte	0xd5d
 6869 0d3a 0D       		.uleb128 0xd
 6870 0d3b 7B080000 		.4byte	.LASF15
 6871 0d3f 01       		.byte	0x1
 6872 0d40 0B02     		.2byte	0x20b
 6873 0d42 88000000 		.4byte	0x88
 6874 0d46 0F060000 		.4byte	.LLST47
 6875 0d4a 0E       		.uleb128 0xe
 6876 0d4b 62756600 		.ascii	"buf\000"
 6877 0d4f 01       		.byte	0x1
 6878 0d50 1102     		.2byte	0x211
 6879 0d52 66040000 		.4byte	0x466
 6880 0d56 05       		.uleb128 0x5
 6881 0d57 03       		.byte	0x3
 6882 0d58 F0740000 		.4byte	buf.12898
 6883 0d5c 00       		.byte	0
 6884 0d5d 0C       		.uleb128 0xc
 6885 0d5e 3A070000 		.4byte	.LASF62
 6886 0d62 01       		.byte	0x1
 6887 0d63 1602     		.2byte	0x216
ARM GAS  C:\Users\jesse\AppData\Local\Temp\ccuy2FXa.s 			page 166


 6888 0d65 88000000 		.4byte	0x88
 6889 0d69 00000000 		.4byte	.LFB48
 6890 0d6d 0C000000 		.4byte	.LFE48-.LFB48
 6891 0d71 01       		.uleb128 0x1
 6892 0d72 9C       		.byte	0x9c
 6893 0d73 9A0D0000 		.4byte	0xd9a
 6894 0d77 0D       		.uleb128 0xd
 6895 0d78 7B080000 		.4byte	.LASF15
 6896 0d7c 01       		.byte	0x1
 6897 0d7d 1602     		.2byte	0x216
 6898 0d7f 88000000 		.4byte	0x88
 6899 0d83 30060000 		.4byte	.LLST48
 6900 0d87 0E       		.uleb128 0xe
 6901 0d88 62756600 		.ascii	"buf\000"
 6902 0d8c 01       		.byte	0x1
 6903 0d8d 1C02     		.2byte	0x21c
 6904 0d8f 1C040000 		.4byte	0x41c
 6905 0d93 05       		.uleb128 0x5
 6906 0d94 03       		.byte	0x3
 6907 0d95 B0750000 		.4byte	buf.12902
 6908 0d99 00       		.byte	0
 6909 0d9a 0C       		.uleb128 0xc
 6910 0d9b 48070000 		.4byte	.LASF63
 6911 0d9f 01       		.byte	0x1
 6912 0da0 2102     		.2byte	0x221
 6913 0da2 88000000 		.4byte	0x88
 6914 0da6 00000000 		.4byte	.LFB49
 6915 0daa 0C000000 		.4byte	.LFE49-.LFB49
 6916 0dae 01       		.uleb128 0x1
 6917 0daf 9C       		.byte	0x9c
 6918 0db0 D70D0000 		.4byte	0xdd7
 6919 0db4 0D       		.uleb128 0xd
 6920 0db5 7B080000 		.4byte	.LASF15
 6921 0db9 01       		.byte	0x1
 6922 0dba 2102     		.2byte	0x221
 6923 0dbc 88000000 		.4byte	0x88
 6924 0dc0 51060000 		.4byte	.LLST49
 6925 0dc4 0E       		.uleb128 0xe
 6926 0dc5 62756600 		.ascii	"buf\000"
 6927 0dc9 01       		.byte	0x1
 6928 0dca 2702     		.2byte	0x227
 6929 0dcc 66040000 		.4byte	0x466
 6930 0dd0 05       		.uleb128 0x5
 6931 0dd1 03       		.byte	0x3
 6932 0dd2 10760000 		.4byte	buf.12906
 6933 0dd6 00       		.byte	0
 6934 0dd7 0C       		.uleb128 0xc
 6935 0dd8 D2070000 		.4byte	.LASF64
 6936 0ddc 01       		.byte	0x1
 6937 0ddd 2C02     		.2byte	0x22c
 6938 0ddf 88000000 		.4byte	0x88
 6939 0de3 00000000 		.4byte	.LFB50
 6940 0de7 0C000000 		.4byte	.LFE50-.LFB50
 6941 0deb 01       		.uleb128 0x1
 6942 0dec 9C       		.byte	0x9c
 6943 0ded 140E0000 		.4byte	0xe14
 6944 0df1 0D       		.uleb128 0xd
ARM GAS  C:\Users\jesse\AppData\Local\Temp\ccuy2FXa.s 			page 167


 6945 0df2 7B080000 		.4byte	.LASF15
 6946 0df6 01       		.byte	0x1
 6947 0df7 2C02     		.2byte	0x22c
 6948 0df9 88000000 		.4byte	0x88
 6949 0dfd 72060000 		.4byte	.LLST50
 6950 0e01 0E       		.uleb128 0xe
 6951 0e02 62756600 		.ascii	"buf\000"
 6952 0e06 01       		.byte	0x1
 6953 0e07 3202     		.2byte	0x232
 6954 0e09 CE0B0000 		.4byte	0xbce
 6955 0e0d 05       		.uleb128 0x5
 6956 0e0e 03       		.byte	0x3
 6957 0e0f D0760000 		.4byte	buf.12910
 6958 0e13 00       		.byte	0
 6959 0e14 0C       		.uleb128 0xc
 6960 0e15 38010000 		.4byte	.LASF65
 6961 0e19 01       		.byte	0x1
 6962 0e1a 3702     		.2byte	0x237
 6963 0e1c 88000000 		.4byte	0x88
 6964 0e20 00000000 		.4byte	.LFB51
 6965 0e24 0C000000 		.4byte	.LFE51-.LFB51
 6966 0e28 01       		.uleb128 0x1
 6967 0e29 9C       		.byte	0x9c
 6968 0e2a 510E0000 		.4byte	0xe51
 6969 0e2e 0D       		.uleb128 0xd
 6970 0e2f 7B080000 		.4byte	.LASF15
 6971 0e33 01       		.byte	0x1
 6972 0e34 3702     		.2byte	0x237
 6973 0e36 88000000 		.4byte	0x88
 6974 0e3a 93060000 		.4byte	.LLST51
 6975 0e3e 0E       		.uleb128 0xe
 6976 0e3f 62756600 		.ascii	"buf\000"
 6977 0e43 01       		.byte	0x1
 6978 0e44 3D02     		.2byte	0x23d
 6979 0e46 C8000000 		.4byte	0xc8
 6980 0e4a 05       		.uleb128 0x5
 6981 0e4b 03       		.byte	0x3
 6982 0e4c 50780000 		.4byte	buf.12914
 6983 0e50 00       		.byte	0
 6984 0e51 0C       		.uleb128 0xc
 6985 0e52 47010000 		.4byte	.LASF66
 6986 0e56 01       		.byte	0x1
 6987 0e57 4202     		.2byte	0x242
 6988 0e59 88000000 		.4byte	0x88
 6989 0e5d 00000000 		.4byte	.LFB52
 6990 0e61 0C000000 		.4byte	.LFE52-.LFB52
 6991 0e65 01       		.uleb128 0x1
 6992 0e66 9C       		.byte	0x9c
 6993 0e67 8E0E0000 		.4byte	0xe8e
 6994 0e6b 0D       		.uleb128 0xd
 6995 0e6c 7B080000 		.4byte	.LASF15
 6996 0e70 01       		.byte	0x1
 6997 0e71 4202     		.2byte	0x242
 6998 0e73 88000000 		.4byte	0x88
 6999 0e77 B4060000 		.4byte	.LLST52
 7000 0e7b 0E       		.uleb128 0xe
 7001 0e7c 62756600 		.ascii	"buf\000"
ARM GAS  C:\Users\jesse\AppData\Local\Temp\ccuy2FXa.s 			page 168


 7002 0e80 01       		.byte	0x1
 7003 0e81 4802     		.2byte	0x248
 7004 0e83 19010000 		.4byte	0x119
 7005 0e87 05       		.uleb128 0x5
 7006 0e88 03       		.byte	0x3
 7007 0e89 D0780000 		.4byte	buf.12918
 7008 0e8d 00       		.byte	0
 7009 0e8e 0C       		.uleb128 0xc
 7010 0e8f 11020000 		.4byte	.LASF67
 7011 0e93 01       		.byte	0x1
 7012 0e94 4D02     		.2byte	0x24d
 7013 0e96 88000000 		.4byte	0x88
 7014 0e9a 00000000 		.4byte	.LFB53
 7015 0e9e 0C000000 		.4byte	.LFE53-.LFB53
 7016 0ea2 01       		.uleb128 0x1
 7017 0ea3 9C       		.byte	0x9c
 7018 0ea4 CB0E0000 		.4byte	0xecb
 7019 0ea8 0D       		.uleb128 0xd
 7020 0ea9 7B080000 		.4byte	.LASF15
 7021 0ead 01       		.byte	0x1
 7022 0eae 4D02     		.2byte	0x24d
 7023 0eb0 88000000 		.4byte	0x88
 7024 0eb4 D5060000 		.4byte	.LLST53
 7025 0eb8 0E       		.uleb128 0xe
 7026 0eb9 62756600 		.ascii	"buf\000"
 7027 0ebd 01       		.byte	0x1
 7028 0ebe 5302     		.2byte	0x253
 7029 0ec0 CB0E0000 		.4byte	0xecb
 7030 0ec4 05       		.uleb128 0x5
 7031 0ec5 03       		.byte	0x3
 7032 0ec6 D0790000 		.4byte	buf.12922
 7033 0eca 00       		.byte	0
 7034 0ecb 09       		.uleb128 0x9
 7035 0ecc 76000000 		.4byte	0x76
 7036 0ed0 DC0E0000 		.4byte	0xedc
 7037 0ed4 0B       		.uleb128 0xb
 7038 0ed5 D8000000 		.4byte	0xd8
 7039 0ed9 FF05     		.2byte	0x5ff
 7040 0edb 00       		.byte	0
 7041 0edc 0C       		.uleb128 0xc
 7042 0edd 8C0A0000 		.4byte	.LASF68
 7043 0ee1 01       		.byte	0x1
 7044 0ee2 5802     		.2byte	0x258
 7045 0ee4 88000000 		.4byte	0x88
 7046 0ee8 00000000 		.4byte	.LFB54
 7047 0eec 0C000000 		.4byte	.LFE54-.LFB54
 7048 0ef0 01       		.uleb128 0x1
 7049 0ef1 9C       		.byte	0x9c
 7050 0ef2 190F0000 		.4byte	0xf19
 7051 0ef6 0D       		.uleb128 0xd
 7052 0ef7 7B080000 		.4byte	.LASF15
 7053 0efb 01       		.byte	0x1
 7054 0efc 5802     		.2byte	0x258
 7055 0efe 88000000 		.4byte	0x88
 7056 0f02 F6060000 		.4byte	.LLST54
 7057 0f06 0E       		.uleb128 0xe
 7058 0f07 62756600 		.ascii	"buf\000"
ARM GAS  C:\Users\jesse\AppData\Local\Temp\ccuy2FXa.s 			page 169


 7059 0f0b 01       		.byte	0x1
 7060 0f0c 5E02     		.2byte	0x25e
 7061 0f0e 19010000 		.4byte	0x119
 7062 0f12 05       		.uleb128 0x5
 7063 0f13 03       		.byte	0x3
 7064 0f14 D07F0000 		.4byte	buf.12926
 7065 0f18 00       		.byte	0
 7066 0f19 0C       		.uleb128 0xc
 7067 0f1a 9A0A0000 		.4byte	.LASF69
 7068 0f1e 01       		.byte	0x1
 7069 0f1f 6302     		.2byte	0x263
 7070 0f21 88000000 		.4byte	0x88
 7071 0f25 00000000 		.4byte	.LFB55
 7072 0f29 0C000000 		.4byte	.LFE55-.LFB55
 7073 0f2d 01       		.uleb128 0x1
 7074 0f2e 9C       		.byte	0x9c
 7075 0f2f 560F0000 		.4byte	0xf56
 7076 0f33 0D       		.uleb128 0xd
 7077 0f34 7B080000 		.4byte	.LASF15
 7078 0f38 01       		.byte	0x1
 7079 0f39 6302     		.2byte	0x263
 7080 0f3b 88000000 		.4byte	0x88
 7081 0f3f 17070000 		.4byte	.LLST55
 7082 0f43 0E       		.uleb128 0xe
 7083 0f44 62756600 		.ascii	"buf\000"
 7084 0f48 01       		.byte	0x1
 7085 0f49 6902     		.2byte	0x269
 7086 0f4b 63010000 		.4byte	0x163
 7087 0f4f 05       		.uleb128 0x5
 7088 0f50 03       		.byte	0x3
 7089 0f51 D0800000 		.4byte	buf.12930
 7090 0f55 00       		.byte	0
 7091 0f56 0C       		.uleb128 0xc
 7092 0f57 F10A0000 		.4byte	.LASF70
 7093 0f5b 01       		.byte	0x1
 7094 0f5c 6E02     		.2byte	0x26e
 7095 0f5e 88000000 		.4byte	0x88
 7096 0f62 00000000 		.4byte	.LFB56
 7097 0f66 0C000000 		.4byte	.LFE56-.LFB56
 7098 0f6a 01       		.uleb128 0x1
 7099 0f6b 9C       		.byte	0x9c
 7100 0f6c 930F0000 		.4byte	0xf93
 7101 0f70 0D       		.uleb128 0xd
 7102 0f71 7B080000 		.4byte	.LASF15
 7103 0f75 01       		.byte	0x1
 7104 0f76 6E02     		.2byte	0x26e
 7105 0f78 88000000 		.4byte	0x88
 7106 0f7c 38070000 		.4byte	.LLST56
 7107 0f80 0E       		.uleb128 0xe
 7108 0f81 62756600 		.ascii	"buf\000"
 7109 0f85 01       		.byte	0x1
 7110 0f86 7402     		.2byte	0x274
 7111 0f88 22020000 		.4byte	0x222
 7112 0f8c 05       		.uleb128 0x5
 7113 0f8d 03       		.byte	0x3
 7114 0f8e D0820000 		.4byte	buf.12934
 7115 0f92 00       		.byte	0
ARM GAS  C:\Users\jesse\AppData\Local\Temp\ccuy2FXa.s 			page 170


 7116 0f93 0C       		.uleb128 0xc
 7117 0f94 66020000 		.4byte	.LASF71
 7118 0f98 01       		.byte	0x1
 7119 0f99 7902     		.2byte	0x279
 7120 0f9b 88000000 		.4byte	0x88
 7121 0f9f 00000000 		.4byte	.LFB57
 7122 0fa3 0C000000 		.4byte	.LFE57-.LFB57
 7123 0fa7 01       		.uleb128 0x1
 7124 0fa8 9C       		.byte	0x9c
 7125 0fa9 D00F0000 		.4byte	0xfd0
 7126 0fad 0D       		.uleb128 0xd
 7127 0fae 7B080000 		.4byte	.LASF15
 7128 0fb2 01       		.byte	0x1
 7129 0fb3 7902     		.2byte	0x279
 7130 0fb5 88000000 		.4byte	0x88
 7131 0fb9 59070000 		.4byte	.LLST57
 7132 0fbd 0E       		.uleb128 0xe
 7133 0fbe 62756600 		.ascii	"buf\000"
 7134 0fc2 01       		.byte	0x1
 7135 0fc3 7F02     		.2byte	0x27f
 7136 0fc5 1C040000 		.4byte	0x41c
 7137 0fc9 05       		.uleb128 0x5
 7138 0fca 03       		.byte	0x3
 7139 0fcb D0860000 		.4byte	buf.12938
 7140 0fcf 00       		.byte	0
 7141 0fd0 0C       		.uleb128 0xc
 7142 0fd1 74020000 		.4byte	.LASF72
 7143 0fd5 01       		.byte	0x1
 7144 0fd6 8402     		.2byte	0x284
 7145 0fd8 88000000 		.4byte	0x88
 7146 0fdc 00000000 		.4byte	.LFB58
 7147 0fe0 0C000000 		.4byte	.LFE58-.LFB58
 7148 0fe4 01       		.uleb128 0x1
 7149 0fe5 9C       		.byte	0x9c
 7150 0fe6 0D100000 		.4byte	0x100d
 7151 0fea 0D       		.uleb128 0xd
 7152 0feb 7B080000 		.4byte	.LASF15
 7153 0fef 01       		.byte	0x1
 7154 0ff0 8402     		.2byte	0x284
 7155 0ff2 88000000 		.4byte	0x88
 7156 0ff6 7A070000 		.4byte	.LLST58
 7157 0ffa 0E       		.uleb128 0xe
 7158 0ffb 62756600 		.ascii	"buf\000"
 7159 0fff 01       		.byte	0x1
 7160 1000 8A02     		.2byte	0x28a
 7161 1002 66040000 		.4byte	0x466
 7162 1006 05       		.uleb128 0x5
 7163 1007 03       		.byte	0x3
 7164 1008 30870000 		.4byte	buf.12942
 7165 100c 00       		.byte	0
 7166 100d 0C       		.uleb128 0xc
 7167 100e 19030000 		.4byte	.LASF73
 7168 1012 01       		.byte	0x1
 7169 1013 8F02     		.2byte	0x28f
 7170 1015 88000000 		.4byte	0x88
 7171 1019 00000000 		.4byte	.LFB59
 7172 101d 0C000000 		.4byte	.LFE59-.LFB59
ARM GAS  C:\Users\jesse\AppData\Local\Temp\ccuy2FXa.s 			page 171


 7173 1021 01       		.uleb128 0x1
 7174 1022 9C       		.byte	0x9c
 7175 1023 4A100000 		.4byte	0x104a
 7176 1027 0D       		.uleb128 0xd
 7177 1028 7B080000 		.4byte	.LASF15
 7178 102c 01       		.byte	0x1
 7179 102d 8F02     		.2byte	0x28f
 7180 102f 88000000 		.4byte	0x88
 7181 1033 9B070000 		.4byte	.LLST59
 7182 1037 0E       		.uleb128 0xe
 7183 1038 62756600 		.ascii	"buf\000"
 7184 103c 01       		.byte	0x1
 7185 103d 9502     		.2byte	0x295
 7186 103f 4A100000 		.4byte	0x104a
 7187 1043 05       		.uleb128 0x5
 7188 1044 03       		.byte	0x3
 7189 1045 F0870000 		.4byte	buf.12946
 7190 1049 00       		.byte	0
 7191 104a 09       		.uleb128 0x9
 7192 104b 76000000 		.4byte	0x76
 7193 104f 5B100000 		.4byte	0x105b
 7194 1053 0B       		.uleb128 0xb
 7195 1054 D8000000 		.4byte	0xd8
 7196 1058 FF02     		.2byte	0x2ff
 7197 105a 00       		.byte	0
 7198 105b 0C       		.uleb128 0xc
 7199 105c FF0A0000 		.4byte	.LASF74
 7200 1060 01       		.byte	0x1
 7201 1061 9A02     		.2byte	0x29a
 7202 1063 88000000 		.4byte	0x88
 7203 1067 00000000 		.4byte	.LFB60
 7204 106b 0C000000 		.4byte	.LFE60-.LFB60
 7205 106f 01       		.uleb128 0x1
 7206 1070 9C       		.byte	0x9c
 7207 1071 98100000 		.4byte	0x1098
 7208 1075 0D       		.uleb128 0xd
 7209 1076 7B080000 		.4byte	.LASF15
 7210 107a 01       		.byte	0x1
 7211 107b 9A02     		.2byte	0x29a
 7212 107d 88000000 		.4byte	0x88
 7213 1081 BC070000 		.4byte	.LLST60
 7214 1085 0E       		.uleb128 0xe
 7215 1086 62756600 		.ascii	"buf\000"
 7216 108a 01       		.byte	0x1
 7217 108b A002     		.2byte	0x2a0
 7218 108d 79070000 		.4byte	0x779
 7219 1091 05       		.uleb128 0x5
 7220 1092 03       		.byte	0x3
 7221 1093 F08A0000 		.4byte	buf.12950
 7222 1097 00       		.byte	0
 7223 1098 0C       		.uleb128 0xc
 7224 1099 0D0B0000 		.4byte	.LASF75
 7225 109d 01       		.byte	0x1
 7226 109e A502     		.2byte	0x2a5
 7227 10a0 88000000 		.4byte	0x88
 7228 10a4 00000000 		.4byte	.LFB61
 7229 10a8 0C000000 		.4byte	.LFE61-.LFB61
ARM GAS  C:\Users\jesse\AppData\Local\Temp\ccuy2FXa.s 			page 172


 7230 10ac 01       		.uleb128 0x1
 7231 10ad 9C       		.byte	0x9c
 7232 10ae D5100000 		.4byte	0x10d5
 7233 10b2 0D       		.uleb128 0xd
 7234 10b3 7B080000 		.4byte	.LASF15
 7235 10b7 01       		.byte	0x1
 7236 10b8 A502     		.2byte	0x2a5
 7237 10ba 88000000 		.4byte	0x88
 7238 10be DD070000 		.4byte	.LLST61
 7239 10c2 0E       		.uleb128 0xe
 7240 10c3 62756600 		.ascii	"buf\000"
 7241 10c7 01       		.byte	0x1
 7242 10c8 AB02     		.2byte	0x2ab
 7243 10ca 19090000 		.4byte	0x919
 7244 10ce 05       		.uleb128 0x5
 7245 10cf 03       		.byte	0x3
 7246 10d0 908B0000 		.4byte	buf.12954
 7247 10d4 00       		.byte	0
 7248 10d5 0C       		.uleb128 0xc
 7249 10d6 0F000000 		.4byte	.LASF76
 7250 10da 01       		.byte	0x1
 7251 10db B002     		.2byte	0x2b0
 7252 10dd 88000000 		.4byte	0x88
 7253 10e1 00000000 		.4byte	.LFB62
 7254 10e5 0C000000 		.4byte	.LFE62-.LFB62
 7255 10e9 01       		.uleb128 0x1
 7256 10ea 9C       		.byte	0x9c
 7257 10eb 12110000 		.4byte	0x1112
 7258 10ef 0D       		.uleb128 0xd
 7259 10f0 7B080000 		.4byte	.LASF15
 7260 10f4 01       		.byte	0x1
 7261 10f5 B002     		.2byte	0x2b0
 7262 10f7 88000000 		.4byte	0x88
 7263 10fb FE070000 		.4byte	.LLST62
 7264 10ff 0E       		.uleb128 0xe
 7265 1100 62756600 		.ascii	"buf\000"
 7266 1104 01       		.byte	0x1
 7267 1105 B602     		.2byte	0x2b6
 7268 1107 12110000 		.4byte	0x1112
 7269 110b 05       		.uleb128 0x5
 7270 110c 03       		.byte	0x3
 7271 110d D08C0000 		.4byte	buf.12958
 7272 1111 00       		.byte	0
 7273 1112 09       		.uleb128 0x9
 7274 1113 76000000 		.4byte	0x76
 7275 1117 23110000 		.4byte	0x1123
 7276 111b 0B       		.uleb128 0xb
 7277 111c D8000000 		.4byte	0xd8
 7278 1120 7F02     		.2byte	0x27f
 7279 1122 00       		.byte	0
 7280 1123 0C       		.uleb128 0xc
 7281 1124 66060000 		.4byte	.LASF77
 7282 1128 01       		.byte	0x1
 7283 1129 BB02     		.2byte	0x2bb
 7284 112b 88000000 		.4byte	0x88
 7285 112f 00000000 		.4byte	.LFB63
 7286 1133 0C000000 		.4byte	.LFE63-.LFB63
ARM GAS  C:\Users\jesse\AppData\Local\Temp\ccuy2FXa.s 			page 173


 7287 1137 01       		.uleb128 0x1
 7288 1138 9C       		.byte	0x9c
 7289 1139 60110000 		.4byte	0x1160
 7290 113d 0D       		.uleb128 0xd
 7291 113e 7B080000 		.4byte	.LASF15
 7292 1142 01       		.byte	0x1
 7293 1143 BB02     		.2byte	0x2bb
 7294 1145 88000000 		.4byte	0x88
 7295 1149 1F080000 		.4byte	.LLST63
 7296 114d 0E       		.uleb128 0xe
 7297 114e 62756600 		.ascii	"buf\000"
 7298 1152 01       		.byte	0x1
 7299 1153 C102     		.2byte	0x2c1
 7300 1155 66040000 		.4byte	0x466
 7301 1159 05       		.uleb128 0x5
 7302 115a 03       		.byte	0x3
 7303 115b 508F0000 		.4byte	buf.12962
 7304 115f 00       		.byte	0
 7305 1160 0C       		.uleb128 0xc
 7306 1161 74060000 		.4byte	.LASF78
 7307 1165 01       		.byte	0x1
 7308 1166 C602     		.2byte	0x2c6
 7309 1168 88000000 		.4byte	0x88
 7310 116c 00000000 		.4byte	.LFB64
 7311 1170 0C000000 		.4byte	.LFE64-.LFB64
 7312 1174 01       		.uleb128 0x1
 7313 1175 9C       		.byte	0x9c
 7314 1176 9D110000 		.4byte	0x119d
 7315 117a 0D       		.uleb128 0xd
 7316 117b 7B080000 		.4byte	.LASF15
 7317 117f 01       		.byte	0x1
 7318 1180 C602     		.2byte	0x2c6
 7319 1182 88000000 		.4byte	0x88
 7320 1186 40080000 		.4byte	.LLST64
 7321 118a 0E       		.uleb128 0xe
 7322 118b 62756600 		.ascii	"buf\000"
 7323 118f 01       		.byte	0x1
 7324 1190 CC02     		.2byte	0x2cc
 7325 1192 CE0B0000 		.4byte	0xbce
 7326 1196 05       		.uleb128 0x5
 7327 1197 03       		.byte	0x3
 7328 1198 10900000 		.4byte	buf.12966
 7329 119c 00       		.byte	0
 7330 119d 0C       		.uleb128 0xc
 7331 119e 2C070000 		.4byte	.LASF79
 7332 11a2 01       		.byte	0x1
 7333 11a3 D102     		.2byte	0x2d1
 7334 11a5 88000000 		.4byte	0x88
 7335 11a9 00000000 		.4byte	.LFB65
 7336 11ad 0C000000 		.4byte	.LFE65-.LFB65
 7337 11b1 01       		.uleb128 0x1
 7338 11b2 9C       		.byte	0x9c
 7339 11b3 DA110000 		.4byte	0x11da
 7340 11b7 0D       		.uleb128 0xd
 7341 11b8 7B080000 		.4byte	.LASF15
 7342 11bc 01       		.byte	0x1
 7343 11bd D102     		.2byte	0x2d1
ARM GAS  C:\Users\jesse\AppData\Local\Temp\ccuy2FXa.s 			page 174


 7344 11bf 88000000 		.4byte	0x88
 7345 11c3 61080000 		.4byte	.LLST65
 7346 11c7 0E       		.uleb128 0xe
 7347 11c8 62756600 		.ascii	"buf\000"
 7348 11cc 01       		.byte	0x1
 7349 11cd D702     		.2byte	0x2d7
 7350 11cf 4A100000 		.4byte	0x104a
 7351 11d3 05       		.uleb128 0x5
 7352 11d4 03       		.byte	0x3
 7353 11d5 90910000 		.4byte	buf.12970
 7354 11d9 00       		.byte	0
 7355 11da 0C       		.uleb128 0xc
 7356 11db 1A010000 		.4byte	.LASF80
 7357 11df 01       		.byte	0x1
 7358 11e0 DC02     		.2byte	0x2dc
 7359 11e2 88000000 		.4byte	0x88
 7360 11e6 00000000 		.4byte	.LFB66
 7361 11ea 0C000000 		.4byte	.LFE66-.LFB66
 7362 11ee 01       		.uleb128 0x1
 7363 11ef 9C       		.byte	0x9c
 7364 11f0 17120000 		.4byte	0x1217
 7365 11f4 0D       		.uleb128 0xd
 7366 11f5 7B080000 		.4byte	.LASF15
 7367 11f9 01       		.byte	0x1
 7368 11fa DC02     		.2byte	0x2dc
 7369 11fc 88000000 		.4byte	0x88
 7370 1200 82080000 		.4byte	.LLST66
 7371 1204 0E       		.uleb128 0xe
 7372 1205 62756600 		.ascii	"buf\000"
 7373 1209 01       		.byte	0x1
 7374 120a E202     		.2byte	0x2e2
 7375 120c 17120000 		.4byte	0x1217
 7376 1210 05       		.uleb128 0x5
 7377 1211 03       		.byte	0x3
 7378 1212 90940000 		.4byte	buf.12974
 7379 1216 00       		.byte	0
 7380 1217 09       		.uleb128 0x9
 7381 1218 76000000 		.4byte	0x76
 7382 121c 28120000 		.4byte	0x1228
 7383 1220 0B       		.uleb128 0xb
 7384 1221 D8000000 		.4byte	0xd8
 7385 1225 8F01     		.2byte	0x18f
 7386 1227 00       		.byte	0
 7387 1228 0C       		.uleb128 0xc
 7388 1229 29010000 		.4byte	.LASF81
 7389 122d 01       		.byte	0x1
 7390 122e E702     		.2byte	0x2e7
 7391 1230 88000000 		.4byte	0x88
 7392 1234 00000000 		.4byte	.LFB67
 7393 1238 0C000000 		.4byte	.LFE67-.LFB67
 7394 123c 01       		.uleb128 0x1
 7395 123d 9C       		.byte	0x9c
 7396 123e 65120000 		.4byte	0x1265
 7397 1242 0D       		.uleb128 0xd
 7398 1243 7B080000 		.4byte	.LASF15
 7399 1247 01       		.byte	0x1
 7400 1248 E702     		.2byte	0x2e7
ARM GAS  C:\Users\jesse\AppData\Local\Temp\ccuy2FXa.s 			page 175


 7401 124a 88000000 		.4byte	0x88
 7402 124e A3080000 		.4byte	.LLST67
 7403 1252 0E       		.uleb128 0xe
 7404 1253 62756600 		.ascii	"buf\000"
 7405 1257 01       		.byte	0x1
 7406 1258 ED02     		.2byte	0x2ed
 7407 125a 65120000 		.4byte	0x1265
 7408 125e 05       		.uleb128 0x5
 7409 125f 03       		.byte	0x3
 7410 1260 20960000 		.4byte	buf.12978
 7411 1264 00       		.byte	0
 7412 1265 09       		.uleb128 0x9
 7413 1266 76000000 		.4byte	0x76
 7414 126a 76120000 		.4byte	0x1276
 7415 126e 0B       		.uleb128 0xb
 7416 126f D8000000 		.4byte	0xd8
 7417 1273 1F03     		.2byte	0x31f
 7418 1275 00       		.byte	0
 7419 1276 0C       		.uleb128 0xc
 7420 1277 02020000 		.4byte	.LASF82
 7421 127b 01       		.byte	0x1
 7422 127c F202     		.2byte	0x2f2
 7423 127e 88000000 		.4byte	0x88
 7424 1282 00000000 		.4byte	.LFB68
 7425 1286 0C000000 		.4byte	.LFE68-.LFB68
 7426 128a 01       		.uleb128 0x1
 7427 128b 9C       		.byte	0x9c
 7428 128c B3120000 		.4byte	0x12b3
 7429 1290 0D       		.uleb128 0xd
 7430 1291 7B080000 		.4byte	.LASF15
 7431 1295 01       		.byte	0x1
 7432 1296 F202     		.2byte	0x2f2
 7433 1298 88000000 		.4byte	0x88
 7434 129c C4080000 		.4byte	.LLST68
 7435 12a0 0E       		.uleb128 0xe
 7436 12a1 62756600 		.ascii	"buf\000"
 7437 12a5 01       		.byte	0x1
 7438 12a6 F802     		.2byte	0x2f8
 7439 12a8 B3120000 		.4byte	0x12b3
 7440 12ac 05       		.uleb128 0x5
 7441 12ad 03       		.byte	0x3
 7442 12ae 40990000 		.4byte	buf.12982
 7443 12b2 00       		.byte	0
 7444 12b3 09       		.uleb128 0x9
 7445 12b4 76000000 		.4byte	0x76
 7446 12b8 C4120000 		.4byte	0x12c4
 7447 12bc 0B       		.uleb128 0xb
 7448 12bd D8000000 		.4byte	0xd8
 7449 12c1 DF2E     		.2byte	0x2edf
 7450 12c3 00       		.byte	0
 7451 12c4 0C       		.uleb128 0xc
 7452 12c5 9E060000 		.4byte	.LASF83
 7453 12c9 01       		.byte	0x1
 7454 12ca FD02     		.2byte	0x2fd
 7455 12cc 88000000 		.4byte	0x88
 7456 12d0 00000000 		.4byte	.LFB69
 7457 12d4 0C000000 		.4byte	.LFE69-.LFB69
ARM GAS  C:\Users\jesse\AppData\Local\Temp\ccuy2FXa.s 			page 176


 7458 12d8 01       		.uleb128 0x1
 7459 12d9 9C       		.byte	0x9c
 7460 12da 01130000 		.4byte	0x1301
 7461 12de 0D       		.uleb128 0xd
 7462 12df 7B080000 		.4byte	.LASF15
 7463 12e3 01       		.byte	0x1
 7464 12e4 FD02     		.2byte	0x2fd
 7465 12e6 88000000 		.4byte	0x88
 7466 12ea E5080000 		.4byte	.LLST69
 7467 12ee 0E       		.uleb128 0xe
 7468 12ef 62756600 		.ascii	"buf\000"
 7469 12f3 01       		.byte	0x1
 7470 12f4 0303     		.2byte	0x303
 7471 12f6 87030000 		.4byte	0x387
 7472 12fa 05       		.uleb128 0x5
 7473 12fb 03       		.byte	0x3
 7474 12fc 20C80000 		.4byte	buf.12986
 7475 1300 00       		.byte	0
 7476 1301 0C       		.uleb128 0xc
 7477 1302 AD060000 		.4byte	.LASF84
 7478 1306 01       		.byte	0x1
 7479 1307 0803     		.2byte	0x308
 7480 1309 88000000 		.4byte	0x88
 7481 130d 00000000 		.4byte	.LFB70
 7482 1311 0C000000 		.4byte	.LFE70-.LFB70
 7483 1315 01       		.uleb128 0x1
 7484 1316 9C       		.byte	0x9c
 7485 1317 3E130000 		.4byte	0x133e
 7486 131b 0D       		.uleb128 0xd
 7487 131c 7B080000 		.4byte	.LASF15
 7488 1320 01       		.byte	0x1
 7489 1321 0803     		.2byte	0x308
 7490 1323 88000000 		.4byte	0x88
 7491 1327 06090000 		.4byte	.LLST70
 7492 132b 0E       		.uleb128 0xe
 7493 132c 62756600 		.ascii	"buf\000"
 7494 1330 01       		.byte	0x1
 7495 1331 0E03     		.2byte	0x30e
 7496 1333 3E130000 		.4byte	0x133e
 7497 1337 05       		.uleb128 0x5
 7498 1338 03       		.byte	0x3
 7499 1339 B0C80000 		.4byte	buf.12990
 7500 133d 00       		.byte	0
 7501 133e 09       		.uleb128 0x9
 7502 133f 76000000 		.4byte	0x76
 7503 1343 4F130000 		.4byte	0x134f
 7504 1347 0B       		.uleb128 0xb
 7505 1348 D8000000 		.4byte	0xd8
 7506 134c 1F01     		.2byte	0x11f
 7507 134e 00       		.byte	0
 7508 134f 0C       		.uleb128 0xc
 7509 1350 56070000 		.4byte	.LASF85
 7510 1354 01       		.byte	0x1
 7511 1355 1303     		.2byte	0x313
 7512 1357 88000000 		.4byte	0x88
 7513 135b 00000000 		.4byte	.LFB71
 7514 135f 0C000000 		.4byte	.LFE71-.LFB71
ARM GAS  C:\Users\jesse\AppData\Local\Temp\ccuy2FXa.s 			page 177


 7515 1363 01       		.uleb128 0x1
 7516 1364 9C       		.byte	0x9c
 7517 1365 8C130000 		.4byte	0x138c
 7518 1369 0D       		.uleb128 0xd
 7519 136a 7B080000 		.4byte	.LASF15
 7520 136e 01       		.byte	0x1
 7521 136f 1303     		.2byte	0x313
 7522 1371 88000000 		.4byte	0x88
 7523 1375 27090000 		.4byte	.LLST71
 7524 1379 0E       		.uleb128 0xe
 7525 137a 62756600 		.ascii	"buf\000"
 7526 137e 01       		.byte	0x1
 7527 137f 1903     		.2byte	0x319
 7528 1381 8C130000 		.4byte	0x138c
 7529 1385 05       		.uleb128 0x5
 7530 1386 03       		.byte	0x3
 7531 1387 D0C90000 		.4byte	buf.12994
 7532 138b 00       		.byte	0
 7533 138c 09       		.uleb128 0x9
 7534 138d 76000000 		.4byte	0x76
 7535 1391 9D130000 		.4byte	0x139d
 7536 1395 0B       		.uleb128 0xb
 7537 1396 D8000000 		.4byte	0xd8
 7538 139a CF0B     		.2byte	0xbcf
 7539 139c 00       		.byte	0
 7540 139d 0C       		.uleb128 0xc
 7541 139e 50080000 		.4byte	.LASF86
 7542 13a2 01       		.byte	0x1
 7543 13a3 1E03     		.2byte	0x31e
 7544 13a5 88000000 		.4byte	0x88
 7545 13a9 00000000 		.4byte	.LFB72
 7546 13ad 0C000000 		.4byte	.LFE72-.LFB72
 7547 13b1 01       		.uleb128 0x1
 7548 13b2 9C       		.byte	0x9c
 7549 13b3 DA130000 		.4byte	0x13da
 7550 13b7 0D       		.uleb128 0xd
 7551 13b8 7B080000 		.4byte	.LASF15
 7552 13bc 01       		.byte	0x1
 7553 13bd 1E03     		.2byte	0x31e
 7554 13bf 88000000 		.4byte	0x88
 7555 13c3 48090000 		.4byte	.LLST72
 7556 13c7 0E       		.uleb128 0xe
 7557 13c8 62756600 		.ascii	"buf\000"
 7558 13cc 01       		.byte	0x1
 7559 13cd 2403     		.2byte	0x324
 7560 13cf DA130000 		.4byte	0x13da
 7561 13d3 05       		.uleb128 0x5
 7562 13d4 03       		.byte	0x3
 7563 13d5 A0D50000 		.4byte	buf.12998
 7564 13d9 00       		.byte	0
 7565 13da 09       		.uleb128 0x9
 7566 13db 76000000 		.4byte	0x76
 7567 13df EA130000 		.4byte	0x13ea
 7568 13e3 0A       		.uleb128 0xa
 7569 13e4 D8000000 		.4byte	0xd8
 7570 13e8 57       		.byte	0x57
 7571 13e9 00       		.byte	0
ARM GAS  C:\Users\jesse\AppData\Local\Temp\ccuy2FXa.s 			page 178


 7572 13ea 0C       		.uleb128 0xc
 7573 13eb 5E080000 		.4byte	.LASF87
 7574 13ef 01       		.byte	0x1
 7575 13f0 2903     		.2byte	0x329
 7576 13f2 88000000 		.4byte	0x88
 7577 13f6 00000000 		.4byte	.LFB73
 7578 13fa 0C000000 		.4byte	.LFE73-.LFB73
 7579 13fe 01       		.uleb128 0x1
 7580 13ff 9C       		.byte	0x9c
 7581 1400 27140000 		.4byte	0x1427
 7582 1404 0D       		.uleb128 0xd
 7583 1405 7B080000 		.4byte	.LASF15
 7584 1409 01       		.byte	0x1
 7585 140a 2903     		.2byte	0x329
 7586 140c 88000000 		.4byte	0x88
 7587 1410 69090000 		.4byte	.LLST73
 7588 1414 0E       		.uleb128 0xe
 7589 1415 62756600 		.ascii	"buf\000"
 7590 1419 01       		.byte	0x1
 7591 141a 2F03     		.2byte	0x32f
 7592 141c 27140000 		.4byte	0x1427
 7593 1420 05       		.uleb128 0x5
 7594 1421 03       		.byte	0x3
 7595 1422 F8D50000 		.4byte	buf.13002
 7596 1426 00       		.byte	0
 7597 1427 09       		.uleb128 0x9
 7598 1428 76000000 		.4byte	0x76
 7599 142c 37140000 		.4byte	0x1437
 7600 1430 0A       		.uleb128 0xa
 7601 1431 D8000000 		.4byte	0xd8
 7602 1435 AF       		.byte	0xaf
 7603 1436 00       		.byte	0
 7604 1437 0C       		.uleb128 0xc
 7605 1438 EA080000 		.4byte	.LASF88
 7606 143c 01       		.byte	0x1
 7607 143d 3403     		.2byte	0x334
 7608 143f 88000000 		.4byte	0x88
 7609 1443 00000000 		.4byte	.LFB74
 7610 1447 0C000000 		.4byte	.LFE74-.LFB74
 7611 144b 01       		.uleb128 0x1
 7612 144c 9C       		.byte	0x9c
 7613 144d 74140000 		.4byte	0x1474
 7614 1451 0D       		.uleb128 0xd
 7615 1452 7B080000 		.4byte	.LASF15
 7616 1456 01       		.byte	0x1
 7617 1457 3403     		.2byte	0x334
 7618 1459 88000000 		.4byte	0x88
 7619 145d 8A090000 		.4byte	.LLST74
 7620 1461 0E       		.uleb128 0xe
 7621 1462 62756600 		.ascii	"buf\000"
 7622 1466 01       		.byte	0x1
 7623 1467 3A03     		.2byte	0x33a
 7624 1469 74140000 		.4byte	0x1474
 7625 146d 05       		.uleb128 0x5
 7626 146e 03       		.byte	0x3
 7627 146f A8D60000 		.4byte	buf.13006
 7628 1473 00       		.byte	0
ARM GAS  C:\Users\jesse\AppData\Local\Temp\ccuy2FXa.s 			page 179


 7629 1474 09       		.uleb128 0x9
 7630 1475 76000000 		.4byte	0x76
 7631 1479 85140000 		.4byte	0x1485
 7632 147d 0B       		.uleb128 0xb
 7633 147e D8000000 		.4byte	0xd8
 7634 1482 0F02     		.2byte	0x20f
 7635 1484 00       		.byte	0
 7636 1485 0C       		.uleb128 0xc
 7637 1486 F4060000 		.4byte	.LASF89
 7638 148a 01       		.byte	0x1
 7639 148b 3F03     		.2byte	0x33f
 7640 148d 88000000 		.4byte	0x88
 7641 1491 00000000 		.4byte	.LFB75
 7642 1495 0C000000 		.4byte	.LFE75-.LFB75
 7643 1499 01       		.uleb128 0x1
 7644 149a 9C       		.byte	0x9c
 7645 149b C2140000 		.4byte	0x14c2
 7646 149f 0D       		.uleb128 0xd
 7647 14a0 7B080000 		.4byte	.LASF15
 7648 14a4 01       		.byte	0x1
 7649 14a5 3F03     		.2byte	0x33f
 7650 14a7 88000000 		.4byte	0x88
 7651 14ab AB090000 		.4byte	.LLST75
 7652 14af 0E       		.uleb128 0xe
 7653 14b0 62756600 		.ascii	"buf\000"
 7654 14b4 01       		.byte	0x1
 7655 14b5 4503     		.2byte	0x345
 7656 14b7 1C040000 		.4byte	0x41c
 7657 14bb 05       		.uleb128 0x5
 7658 14bc 03       		.byte	0x3
 7659 14bd B8D80000 		.4byte	buf.13010
 7660 14c1 00       		.byte	0
 7661 14c2 0C       		.uleb128 0xc
 7662 14c3 02070000 		.4byte	.LASF90
 7663 14c7 01       		.byte	0x1
 7664 14c8 4A03     		.2byte	0x34a
 7665 14ca 88000000 		.4byte	0x88
 7666 14ce 00000000 		.4byte	.LFB76
 7667 14d2 0C000000 		.4byte	.LFE76-.LFB76
 7668 14d6 01       		.uleb128 0x1
 7669 14d7 9C       		.byte	0x9c
 7670 14d8 FF140000 		.4byte	0x14ff
 7671 14dc 0D       		.uleb128 0xd
 7672 14dd 7B080000 		.4byte	.LASF15
 7673 14e1 01       		.byte	0x1
 7674 14e2 4A03     		.2byte	0x34a
 7675 14e4 88000000 		.4byte	0x88
 7676 14e8 CC090000 		.4byte	.LLST76
 7677 14ec 0E       		.uleb128 0xe
 7678 14ed 62756600 		.ascii	"buf\000"
 7679 14f1 01       		.byte	0x1
 7680 14f2 5003     		.2byte	0x350
 7681 14f4 66040000 		.4byte	0x466
 7682 14f8 05       		.uleb128 0x5
 7683 14f9 03       		.byte	0x3
 7684 14fa 18D90000 		.4byte	buf.13014
 7685 14fe 00       		.byte	0
ARM GAS  C:\Users\jesse\AppData\Local\Temp\ccuy2FXa.s 			page 180


 7686 14ff 0C       		.uleb128 0xc
 7687 1500 090A0000 		.4byte	.LASF91
 7688 1504 01       		.byte	0x1
 7689 1505 5503     		.2byte	0x355
 7690 1507 88000000 		.4byte	0x88
 7691 150b 00000000 		.4byte	.LFB77
 7692 150f 0C000000 		.4byte	.LFE77-.LFB77
 7693 1513 01       		.uleb128 0x1
 7694 1514 9C       		.byte	0x9c
 7695 1515 3C150000 		.4byte	0x153c
 7696 1519 0D       		.uleb128 0xd
 7697 151a 7B080000 		.4byte	.LASF15
 7698 151e 01       		.byte	0x1
 7699 151f 5503     		.2byte	0x355
 7700 1521 88000000 		.4byte	0x88
 7701 1525 ED090000 		.4byte	.LLST77
 7702 1529 0E       		.uleb128 0xe
 7703 152a 62756600 		.ascii	"buf\000"
 7704 152e 01       		.byte	0x1
 7705 152f 5B03     		.2byte	0x35b
 7706 1531 3C150000 		.4byte	0x153c
 7707 1535 05       		.uleb128 0x5
 7708 1536 03       		.byte	0x3
 7709 1537 D8D90000 		.4byte	buf.13018
 7710 153b 00       		.byte	0
 7711 153c 09       		.uleb128 0x9
 7712 153d 76000000 		.4byte	0x76
 7713 1541 4D150000 		.4byte	0x154d
 7714 1545 0B       		.uleb128 0xb
 7715 1546 D8000000 		.4byte	0xd8
 7716 154a 5F03     		.2byte	0x35f
 7717 154c 00       		.byte	0
 7718 154d 0C       		.uleb128 0xc
 7719 154e 8F010000 		.4byte	.LASF92
 7720 1552 01       		.byte	0x1
 7721 1553 6003     		.2byte	0x360
 7722 1555 88000000 		.4byte	0x88
 7723 1559 00000000 		.4byte	.LFB78
 7724 155d 0C000000 		.4byte	.LFE78-.LFB78
 7725 1561 01       		.uleb128 0x1
 7726 1562 9C       		.byte	0x9c
 7727 1563 8A150000 		.4byte	0x158a
 7728 1567 0D       		.uleb128 0xd
 7729 1568 7B080000 		.4byte	.LASF15
 7730 156c 01       		.byte	0x1
 7731 156d 6003     		.2byte	0x360
 7732 156f 88000000 		.4byte	0x88
 7733 1573 0E0A0000 		.4byte	.LLST78
 7734 1577 0E       		.uleb128 0xe
 7735 1578 62756600 		.ascii	"buf\000"
 7736 157c 01       		.byte	0x1
 7737 157d 6603     		.2byte	0x366
 7738 157f 66040000 		.4byte	0x466
 7739 1583 05       		.uleb128 0x5
 7740 1584 03       		.byte	0x3
 7741 1585 38DD0000 		.4byte	buf.13022
 7742 1589 00       		.byte	0
ARM GAS  C:\Users\jesse\AppData\Local\Temp\ccuy2FXa.s 			page 181


 7743 158a 0C       		.uleb128 0xc
 7744 158b 9D010000 		.4byte	.LASF93
 7745 158f 01       		.byte	0x1
 7746 1590 6B03     		.2byte	0x36b
 7747 1592 88000000 		.4byte	0x88
 7748 1596 00000000 		.4byte	.LFB79
 7749 159a 0C000000 		.4byte	.LFE79-.LFB79
 7750 159e 01       		.uleb128 0x1
 7751 159f 9C       		.byte	0x9c
 7752 15a0 C7150000 		.4byte	0x15c7
 7753 15a4 0D       		.uleb128 0xd
 7754 15a5 7B080000 		.4byte	.LASF15
 7755 15a9 01       		.byte	0x1
 7756 15aa 6B03     		.2byte	0x36b
 7757 15ac 88000000 		.4byte	0x88
 7758 15b0 2F0A0000 		.4byte	.LLST79
 7759 15b4 0E       		.uleb128 0xe
 7760 15b5 62756600 		.ascii	"buf\000"
 7761 15b9 01       		.byte	0x1
 7762 15ba 7103     		.2byte	0x371
 7763 15bc CE0B0000 		.4byte	0xbce
 7764 15c0 05       		.uleb128 0x5
 7765 15c1 03       		.byte	0x3
 7766 15c2 F8DD0000 		.4byte	buf.13026
 7767 15c6 00       		.byte	0
 7768 15c7 0C       		.uleb128 0xc
 7769 15c8 58020000 		.4byte	.LASF94
 7770 15cc 01       		.byte	0x1
 7771 15cd 7603     		.2byte	0x376
 7772 15cf 88000000 		.4byte	0x88
 7773 15d3 00000000 		.4byte	.LFB80
 7774 15d7 0C000000 		.4byte	.LFE80-.LFB80
 7775 15db 01       		.uleb128 0x1
 7776 15dc 9C       		.byte	0x9c
 7777 15dd 04160000 		.4byte	0x1604
 7778 15e1 0D       		.uleb128 0xd
 7779 15e2 7B080000 		.4byte	.LASF15
 7780 15e6 01       		.byte	0x1
 7781 15e7 7603     		.2byte	0x376
 7782 15e9 88000000 		.4byte	0x88
 7783 15ed 500A0000 		.4byte	.LLST80
 7784 15f1 0E       		.uleb128 0xe
 7785 15f2 62756600 		.ascii	"buf\000"
 7786 15f6 01       		.byte	0x1
 7787 15f7 7C03     		.2byte	0x37c
 7788 15f9 CB0E0000 		.4byte	0xecb
 7789 15fd 05       		.uleb128 0x5
 7790 15fe 03       		.byte	0x3
 7791 15ff 78DF0000 		.4byte	buf.13030
 7792 1603 00       		.byte	0
 7793 1604 0C       		.uleb128 0xc
 7794 1605 3C020000 		.4byte	.LASF95
 7795 1609 01       		.byte	0x1
 7796 160a 8103     		.2byte	0x381
 7797 160c 88000000 		.4byte	0x88
 7798 1610 00000000 		.4byte	.LFB81
 7799 1614 0C000000 		.4byte	.LFE81-.LFB81
ARM GAS  C:\Users\jesse\AppData\Local\Temp\ccuy2FXa.s 			page 182


 7800 1618 01       		.uleb128 0x1
 7801 1619 9C       		.byte	0x9c
 7802 161a 41160000 		.4byte	0x1641
 7803 161e 0D       		.uleb128 0xd
 7804 161f 7B080000 		.4byte	.LASF15
 7805 1623 01       		.byte	0x1
 7806 1624 8103     		.2byte	0x381
 7807 1626 88000000 		.4byte	0x88
 7808 162a 710A0000 		.4byte	.LLST81
 7809 162e 0E       		.uleb128 0xe
 7810 162f 62756600 		.ascii	"buf\000"
 7811 1633 01       		.byte	0x1
 7812 1634 8703     		.2byte	0x387
 7813 1636 41160000 		.4byte	0x1641
 7814 163a 05       		.uleb128 0x5
 7815 163b 03       		.byte	0x3
 7816 163c 78E50000 		.4byte	buf.13034
 7817 1640 00       		.byte	0
 7818 1641 09       		.uleb128 0x9
 7819 1642 76000000 		.4byte	0x76
 7820 1646 51160000 		.4byte	0x1651
 7821 164a 0A       		.uleb128 0xa
 7822 164b D8000000 		.4byte	0xd8
 7823 164f EF       		.byte	0xef
 7824 1650 00       		.byte	0
 7825 1651 0C       		.uleb128 0xc
 7826 1652 4A020000 		.4byte	.LASF96
 7827 1656 01       		.byte	0x1
 7828 1657 8C03     		.2byte	0x38c
 7829 1659 88000000 		.4byte	0x88
 7830 165d 00000000 		.4byte	.LFB82
 7831 1661 0C000000 		.4byte	.LFE82-.LFB82
 7832 1665 01       		.uleb128 0x1
 7833 1666 9C       		.byte	0x9c
 7834 1667 8E160000 		.4byte	0x168e
 7835 166b 0D       		.uleb128 0xd
 7836 166c 7B080000 		.4byte	.LASF15
 7837 1670 01       		.byte	0x1
 7838 1671 8C03     		.2byte	0x38c
 7839 1673 88000000 		.4byte	0x88
 7840 1677 920A0000 		.4byte	.LLST82
 7841 167b 0E       		.uleb128 0xe
 7842 167c 62756600 		.ascii	"buf\000"
 7843 1680 01       		.byte	0x1
 7844 1681 9203     		.2byte	0x392
 7845 1683 B0040000 		.4byte	0x4b0
 7846 1687 05       		.uleb128 0x5
 7847 1688 03       		.byte	0x3
 7848 1689 68E60000 		.4byte	buf.13038
 7849 168d 00       		.byte	0
 7850 168e 0C       		.uleb128 0xc
 7851 168f EF020000 		.4byte	.LASF97
 7852 1693 01       		.byte	0x1
 7853 1694 9703     		.2byte	0x397
 7854 1696 88000000 		.4byte	0x88
 7855 169a 00000000 		.4byte	.LFB83
 7856 169e 0C000000 		.4byte	.LFE83-.LFB83
ARM GAS  C:\Users\jesse\AppData\Local\Temp\ccuy2FXa.s 			page 183


 7857 16a2 01       		.uleb128 0x1
 7858 16a3 9C       		.byte	0x9c
 7859 16a4 CB160000 		.4byte	0x16cb
 7860 16a8 0D       		.uleb128 0xd
 7861 16a9 7B080000 		.4byte	.LASF15
 7862 16ad 01       		.byte	0x1
 7863 16ae 9703     		.2byte	0x397
 7864 16b0 88000000 		.4byte	0x88
 7865 16b4 B30A0000 		.4byte	.LLST83
 7866 16b8 0E       		.uleb128 0xe
 7867 16b9 62756600 		.ascii	"buf\000"
 7868 16bd 01       		.byte	0x1
 7869 16be 9D03     		.2byte	0x39d
 7870 16c0 CB160000 		.4byte	0x16cb
 7871 16c4 05       		.uleb128 0x5
 7872 16c5 03       		.byte	0x3
 7873 16c6 48E80000 		.4byte	buf.13042
 7874 16ca 00       		.byte	0
 7875 16cb 09       		.uleb128 0x9
 7876 16cc 76000000 		.4byte	0x76
 7877 16d0 DC160000 		.4byte	0x16dc
 7878 16d4 0B       		.uleb128 0xb
 7879 16d5 D8000000 		.4byte	0xd8
 7880 16d9 7F07     		.2byte	0x77f
 7881 16db 00       		.byte	0
 7882 16dc 0C       		.uleb128 0xc
 7883 16dd F8080000 		.4byte	.LASF98
 7884 16e1 01       		.byte	0x1
 7885 16e2 A203     		.2byte	0x3a2
 7886 16e4 88000000 		.4byte	0x88
 7887 16e8 00000000 		.4byte	.LFB84
 7888 16ec 0C000000 		.4byte	.LFE84-.LFB84
 7889 16f0 01       		.uleb128 0x1
 7890 16f1 9C       		.byte	0x9c
 7891 16f2 19170000 		.4byte	0x1719
 7892 16f6 0D       		.uleb128 0xd
 7893 16f7 7B080000 		.4byte	.LASF15
 7894 16fb 01       		.byte	0x1
 7895 16fc A203     		.2byte	0x3a2
 7896 16fe 88000000 		.4byte	0x88
 7897 1702 D40A0000 		.4byte	.LLST84
 7898 1706 0E       		.uleb128 0xe
 7899 1707 62756600 		.ascii	"buf\000"
 7900 170b 01       		.byte	0x1
 7901 170c A803     		.2byte	0x3a8
 7902 170e 41160000 		.4byte	0x1641
 7903 1712 05       		.uleb128 0x5
 7904 1713 03       		.byte	0x3
 7905 1714 C8EF0000 		.4byte	buf.13046
 7906 1718 00       		.byte	0
 7907 1719 0C       		.uleb128 0xc
 7908 171a 07090000 		.4byte	.LASF99
 7909 171e 01       		.byte	0x1
 7910 171f AD03     		.2byte	0x3ad
 7911 1721 88000000 		.4byte	0x88
 7912 1725 00000000 		.4byte	.LFB85
 7913 1729 0C000000 		.4byte	.LFE85-.LFB85
ARM GAS  C:\Users\jesse\AppData\Local\Temp\ccuy2FXa.s 			page 184


 7914 172d 01       		.uleb128 0x1
 7915 172e 9C       		.byte	0x9c
 7916 172f 56170000 		.4byte	0x1756
 7917 1733 0D       		.uleb128 0xd
 7918 1734 7B080000 		.4byte	.LASF15
 7919 1738 01       		.byte	0x1
 7920 1739 AD03     		.2byte	0x3ad
 7921 173b 88000000 		.4byte	0x88
 7922 173f F50A0000 		.4byte	.LLST85
 7923 1743 0E       		.uleb128 0xe
 7924 1744 62756600 		.ascii	"buf\000"
 7925 1748 01       		.byte	0x1
 7926 1749 B303     		.2byte	0x3b3
 7927 174b B0040000 		.4byte	0x4b0
 7928 174f 05       		.uleb128 0x5
 7929 1750 03       		.byte	0x3
 7930 1751 B8F00000 		.4byte	buf.13050
 7931 1755 00       		.byte	0
 7932 1756 0C       		.uleb128 0xc
 7933 1757 340A0000 		.4byte	.LASF100
 7934 175b 01       		.byte	0x1
 7935 175c B803     		.2byte	0x3b8
 7936 175e 88000000 		.4byte	0x88
 7937 1762 00000000 		.4byte	.LFB86
 7938 1766 0C000000 		.4byte	.LFE86-.LFB86
 7939 176a 01       		.uleb128 0x1
 7940 176b 9C       		.byte	0x9c
 7941 176c 93170000 		.4byte	0x1793
 7942 1770 0D       		.uleb128 0xd
 7943 1771 7B080000 		.4byte	.LASF15
 7944 1775 01       		.byte	0x1
 7945 1776 B803     		.2byte	0x3b8
 7946 1778 88000000 		.4byte	0x88
 7947 177c 160B0000 		.4byte	.LLST86
 7948 1780 0E       		.uleb128 0xe
 7949 1781 62756600 		.ascii	"buf\000"
 7950 1785 01       		.byte	0x1
 7951 1786 BE03     		.2byte	0x3be
 7952 1788 93170000 		.4byte	0x1793
 7953 178c 05       		.uleb128 0x5
 7954 178d 03       		.byte	0x3
 7955 178e 98F20000 		.4byte	buf.13054
 7956 1792 00       		.byte	0
 7957 1793 09       		.uleb128 0x9
 7958 1794 76000000 		.4byte	0x76
 7959 1798 A4170000 		.4byte	0x17a4
 7960 179c 0B       		.uleb128 0xb
 7961 179d D8000000 		.4byte	0xd8
 7962 17a1 0F0E     		.2byte	0xe0f
 7963 17a3 00       		.byte	0
 7964 17a4 0C       		.uleb128 0xc
 7965 17a5 A7020000 		.4byte	.LASF101
 7966 17a9 01       		.byte	0x1
 7967 17aa C303     		.2byte	0x3c3
 7968 17ac 88000000 		.4byte	0x88
 7969 17b0 00000000 		.4byte	.LFB87
 7970 17b4 0C000000 		.4byte	.LFE87-.LFB87
ARM GAS  C:\Users\jesse\AppData\Local\Temp\ccuy2FXa.s 			page 185


 7971 17b8 01       		.uleb128 0x1
 7972 17b9 9C       		.byte	0x9c
 7973 17ba E1170000 		.4byte	0x17e1
 7974 17be 0D       		.uleb128 0xd
 7975 17bf 7B080000 		.4byte	.LASF15
 7976 17c3 01       		.byte	0x1
 7977 17c4 C303     		.2byte	0x3c3
 7978 17c6 88000000 		.4byte	0x88
 7979 17ca 370B0000 		.4byte	.LLST87
 7980 17ce 0E       		.uleb128 0xe
 7981 17cf 62756600 		.ascii	"buf\000"
 7982 17d3 01       		.byte	0x1
 7983 17d4 C903     		.2byte	0x3c9
 7984 17d6 41160000 		.4byte	0x1641
 7985 17da 05       		.uleb128 0x5
 7986 17db 03       		.byte	0x3
 7987 17dc A8000100 		.4byte	buf.13058
 7988 17e0 00       		.byte	0
 7989 17e1 0C       		.uleb128 0xc
 7990 17e2 B6020000 		.4byte	.LASF102
 7991 17e6 01       		.byte	0x1
 7992 17e7 CE03     		.2byte	0x3ce
 7993 17e9 88000000 		.4byte	0x88
 7994 17ed 00000000 		.4byte	.LFB88
 7995 17f1 0C000000 		.4byte	.LFE88-.LFB88
 7996 17f5 01       		.uleb128 0x1
 7997 17f6 9C       		.byte	0x9c
 7998 17f7 1E180000 		.4byte	0x181e
 7999 17fb 0D       		.uleb128 0xd
 8000 17fc 7B080000 		.4byte	.LASF15
 8001 1800 01       		.byte	0x1
 8002 1801 CE03     		.2byte	0x3ce
 8003 1803 88000000 		.4byte	0x88
 8004 1807 580B0000 		.4byte	.LLST88
 8005 180b 0E       		.uleb128 0xe
 8006 180c 62756600 		.ascii	"buf\000"
 8007 1810 01       		.byte	0x1
 8008 1811 D403     		.2byte	0x3d4
 8009 1813 B0040000 		.4byte	0x4b0
 8010 1817 05       		.uleb128 0x5
 8011 1818 03       		.byte	0x3
 8012 1819 98010100 		.4byte	buf.13062
 8013 181d 00       		.byte	0
 8014 181e 0C       		.uleb128 0xc
 8015 181f 36030000 		.4byte	.LASF103
 8016 1823 01       		.byte	0x1
 8017 1824 D903     		.2byte	0x3d9
 8018 1826 88000000 		.4byte	0x88
 8019 182a 00000000 		.4byte	.LFB89
 8020 182e 0C000000 		.4byte	.LFE89-.LFB89
 8021 1832 01       		.uleb128 0x1
 8022 1833 9C       		.byte	0x9c
 8023 1834 5B180000 		.4byte	0x185b
 8024 1838 0D       		.uleb128 0xd
 8025 1839 7B080000 		.4byte	.LASF15
 8026 183d 01       		.byte	0x1
 8027 183e D903     		.2byte	0x3d9
ARM GAS  C:\Users\jesse\AppData\Local\Temp\ccuy2FXa.s 			page 186


 8028 1840 88000000 		.4byte	0x88
 8029 1844 790B0000 		.4byte	.LLST89
 8030 1848 0E       		.uleb128 0xe
 8031 1849 62756600 		.ascii	"buf\000"
 8032 184d 01       		.byte	0x1
 8033 184e DF03     		.2byte	0x3df
 8034 1850 5B180000 		.4byte	0x185b
 8035 1854 05       		.uleb128 0x5
 8036 1855 03       		.byte	0x3
 8037 1856 78030100 		.4byte	buf.13066
 8038 185a 00       		.byte	0
 8039 185b 09       		.uleb128 0x9
 8040 185c 76000000 		.4byte	0x76
 8041 1860 6C180000 		.4byte	0x186c
 8042 1864 0B       		.uleb128 0xb
 8043 1865 D8000000 		.4byte	0xd8
 8044 1869 FF0E     		.2byte	0xeff
 8045 186b 00       		.byte	0
 8046 186c 0C       		.uleb128 0xc
 8047 186d 9C070000 		.4byte	.LASF104
 8048 1871 01       		.byte	0x1
 8049 1872 E403     		.2byte	0x3e4
 8050 1874 88000000 		.4byte	0x88
 8051 1878 00000000 		.4byte	.LFB90
 8052 187c 0C000000 		.4byte	.LFE90-.LFB90
 8053 1880 01       		.uleb128 0x1
 8054 1881 9C       		.byte	0x9c
 8055 1882 A9180000 		.4byte	0x18a9
 8056 1886 0D       		.uleb128 0xd
 8057 1887 7B080000 		.4byte	.LASF15
 8058 188b 01       		.byte	0x1
 8059 188c E403     		.2byte	0x3e4
 8060 188e 88000000 		.4byte	0x88
 8061 1892 9A0B0000 		.4byte	.LLST90
 8062 1896 0E       		.uleb128 0xe
 8063 1897 62756600 		.ascii	"buf\000"
 8064 189b 01       		.byte	0x1
 8065 189c EA03     		.2byte	0x3ea
 8066 189e 79070000 		.4byte	0x779
 8067 18a2 05       		.uleb128 0x5
 8068 18a3 03       		.byte	0x3
 8069 18a4 78120100 		.4byte	buf.13070
 8070 18a8 00       		.byte	0
 8071 18a9 0C       		.uleb128 0xc
 8072 18aa AB070000 		.4byte	.LASF105
 8073 18ae 01       		.byte	0x1
 8074 18af EF03     		.2byte	0x3ef
 8075 18b1 88000000 		.4byte	0x88
 8076 18b5 00000000 		.4byte	.LFB91
 8077 18b9 0C000000 		.4byte	.LFE91-.LFB91
 8078 18bd 01       		.uleb128 0x1
 8079 18be 9C       		.byte	0x9c
 8080 18bf E6180000 		.4byte	0x18e6
 8081 18c3 0D       		.uleb128 0xd
 8082 18c4 7B080000 		.4byte	.LASF15
 8083 18c8 01       		.byte	0x1
 8084 18c9 EF03     		.2byte	0x3ef
ARM GAS  C:\Users\jesse\AppData\Local\Temp\ccuy2FXa.s 			page 187


 8085 18cb 88000000 		.4byte	0x88
 8086 18cf BB0B0000 		.4byte	.LLST91
 8087 18d3 0E       		.uleb128 0xe
 8088 18d4 62756600 		.ascii	"buf\000"
 8089 18d8 01       		.byte	0x1
 8090 18d9 F503     		.2byte	0x3f5
 8091 18db 19090000 		.4byte	0x919
 8092 18df 05       		.uleb128 0x5
 8093 18e0 03       		.byte	0x3
 8094 18e1 18130100 		.4byte	buf.13074
 8095 18e5 00       		.byte	0
 8096 18e6 0C       		.uleb128 0xc
 8097 18e7 EF070000 		.4byte	.LASF106
 8098 18eb 01       		.byte	0x1
 8099 18ec FA03     		.2byte	0x3fa
 8100 18ee 88000000 		.4byte	0x88
 8101 18f2 00000000 		.4byte	.LFB92
 8102 18f6 0C000000 		.4byte	.LFE92-.LFB92
 8103 18fa 01       		.uleb128 0x1
 8104 18fb 9C       		.byte	0x9c
 8105 18fc 23190000 		.4byte	0x1923
 8106 1900 0D       		.uleb128 0xd
 8107 1901 7B080000 		.4byte	.LASF15
 8108 1905 01       		.byte	0x1
 8109 1906 FA03     		.2byte	0x3fa
 8110 1908 88000000 		.4byte	0x88
 8111 190c DC0B0000 		.4byte	.LLST92
 8112 1910 0E       		.uleb128 0xe
 8113 1911 62756600 		.ascii	"buf\000"
 8114 1915 01       		.byte	0x1
 8115 1916 0004     		.2byte	0x400
 8116 1918 23190000 		.4byte	0x1923
 8117 191c 05       		.uleb128 0x5
 8118 191d 03       		.byte	0x3
 8119 191e 58140100 		.4byte	buf.13078
 8120 1922 00       		.byte	0
 8121 1923 09       		.uleb128 0x9
 8122 1924 76000000 		.4byte	0x76
 8123 1928 34190000 		.4byte	0x1934
 8124 192c 0B       		.uleb128 0xb
 8125 192d D8000000 		.4byte	0xd8
 8126 1931 FF09     		.2byte	0x9ff
 8127 1933 00       		.byte	0
 8128 1934 0C       		.uleb128 0xc
 8129 1935 B0050000 		.4byte	.LASF107
 8130 1939 01       		.byte	0x1
 8131 193a 0504     		.2byte	0x405
 8132 193c 88000000 		.4byte	0x88
 8133 1940 00000000 		.4byte	.LFB93
 8134 1944 0C000000 		.4byte	.LFE93-.LFB93
 8135 1948 01       		.uleb128 0x1
 8136 1949 9C       		.byte	0x9c
 8137 194a 71190000 		.4byte	0x1971
 8138 194e 0D       		.uleb128 0xd
 8139 194f 7B080000 		.4byte	.LASF15
 8140 1953 01       		.byte	0x1
 8141 1954 0504     		.2byte	0x405
ARM GAS  C:\Users\jesse\AppData\Local\Temp\ccuy2FXa.s 			page 188


 8142 1956 88000000 		.4byte	0x88
 8143 195a FD0B0000 		.4byte	.LLST93
 8144 195e 0E       		.uleb128 0xe
 8145 195f 62756600 		.ascii	"buf\000"
 8146 1963 01       		.byte	0x1
 8147 1964 0B04     		.2byte	0x40b
 8148 1966 66040000 		.4byte	0x466
 8149 196a 05       		.uleb128 0x5
 8150 196b 03       		.byte	0x3
 8151 196c 581E0100 		.4byte	buf.13082
 8152 1970 00       		.byte	0
 8153 1971 0C       		.uleb128 0xc
 8154 1972 BF050000 		.4byte	.LASF108
 8155 1976 01       		.byte	0x1
 8156 1977 1004     		.2byte	0x410
 8157 1979 88000000 		.4byte	0x88
 8158 197d 00000000 		.4byte	.LFB94
 8159 1981 0C000000 		.4byte	.LFE94-.LFB94
 8160 1985 01       		.uleb128 0x1
 8161 1986 9C       		.byte	0x9c
 8162 1987 AE190000 		.4byte	0x19ae
 8163 198b 0D       		.uleb128 0xd
 8164 198c 7B080000 		.4byte	.LASF15
 8165 1990 01       		.byte	0x1
 8166 1991 1004     		.2byte	0x410
 8167 1993 88000000 		.4byte	0x88
 8168 1997 1E0C0000 		.4byte	.LLST94
 8169 199b 0E       		.uleb128 0xe
 8170 199c 62756600 		.ascii	"buf\000"
 8171 19a0 01       		.byte	0x1
 8172 19a1 1604     		.2byte	0x416
 8173 19a3 CE0B0000 		.4byte	0xbce
 8174 19a7 05       		.uleb128 0x5
 8175 19a8 03       		.byte	0x3
 8176 19a9 181F0100 		.4byte	buf.13086
 8177 19ad 00       		.byte	0
 8178 19ae 0C       		.uleb128 0xc
 8179 19af 82060000 		.4byte	.LASF109
 8180 19b3 01       		.byte	0x1
 8181 19b4 1B04     		.2byte	0x41b
 8182 19b6 88000000 		.4byte	0x88
 8183 19ba 00000000 		.4byte	.LFB95
 8184 19be 0C000000 		.4byte	.LFE95-.LFB95
 8185 19c2 01       		.uleb128 0x1
 8186 19c3 9C       		.byte	0x9c
 8187 19c4 EB190000 		.4byte	0x19eb
 8188 19c8 0D       		.uleb128 0xd
 8189 19c9 7B080000 		.4byte	.LASF15
 8190 19cd 01       		.byte	0x1
 8191 19ce 1B04     		.2byte	0x41b
 8192 19d0 88000000 		.4byte	0x88
 8193 19d4 3F0C0000 		.4byte	.LLST95
 8194 19d8 0E       		.uleb128 0xe
 8195 19d9 62756600 		.ascii	"buf\000"
 8196 19dd 01       		.byte	0x1
 8197 19de 2104     		.2byte	0x421
 8198 19e0 EB190000 		.4byte	0x19eb
ARM GAS  C:\Users\jesse\AppData\Local\Temp\ccuy2FXa.s 			page 189


 8199 19e4 05       		.uleb128 0x5
 8200 19e5 03       		.byte	0x3
 8201 19e6 98200100 		.4byte	buf.13090
 8202 19ea 00       		.byte	0
 8203 19eb 09       		.uleb128 0x9
 8204 19ec 76000000 		.4byte	0x76
 8205 19f0 FC190000 		.4byte	0x19fc
 8206 19f4 0B       		.uleb128 0xb
 8207 19f5 D8000000 		.4byte	0xd8
 8208 19f9 FF08     		.2byte	0x8ff
 8209 19fb 00       		.byte	0
 8210 19fc 0C       		.uleb128 0xc
 8211 19fd 14050000 		.4byte	.LASF110
 8212 1a01 01       		.byte	0x1
 8213 1a02 2604     		.2byte	0x426
 8214 1a04 88000000 		.4byte	0x88
 8215 1a08 00000000 		.4byte	.LFB96
 8216 1a0c 0C000000 		.4byte	.LFE96-.LFB96
 8217 1a10 01       		.uleb128 0x1
 8218 1a11 9C       		.byte	0x9c
 8219 1a12 391A0000 		.4byte	0x1a39
 8220 1a16 0D       		.uleb128 0xd
 8221 1a17 7B080000 		.4byte	.LASF15
 8222 1a1b 01       		.byte	0x1
 8223 1a1c 2604     		.2byte	0x426
 8224 1a1e 88000000 		.4byte	0x88
 8225 1a22 600C0000 		.4byte	.LLST96
 8226 1a26 0E       		.uleb128 0xe
 8227 1a27 62756600 		.ascii	"buf\000"
 8228 1a2b 01       		.byte	0x1
 8229 1a2c 2C04     		.2byte	0x42c
 8230 1a2e 79070000 		.4byte	0x779
 8231 1a32 05       		.uleb128 0x5
 8232 1a33 03       		.byte	0x3
 8233 1a34 98290100 		.4byte	buf.13094
 8234 1a38 00       		.byte	0
 8235 1a39 0C       		.uleb128 0xc
 8236 1a3a 23050000 		.4byte	.LASF111
 8237 1a3e 01       		.byte	0x1
 8238 1a3f 3104     		.2byte	0x431
 8239 1a41 88000000 		.4byte	0x88
 8240 1a45 00000000 		.4byte	.LFB97
 8241 1a49 0C000000 		.4byte	.LFE97-.LFB97
 8242 1a4d 01       		.uleb128 0x1
 8243 1a4e 9C       		.byte	0x9c
 8244 1a4f 761A0000 		.4byte	0x1a76
 8245 1a53 0D       		.uleb128 0xd
 8246 1a54 7B080000 		.4byte	.LASF15
 8247 1a58 01       		.byte	0x1
 8248 1a59 3104     		.2byte	0x431
 8249 1a5b 88000000 		.4byte	0x88
 8250 1a5f 810C0000 		.4byte	.LLST97
 8251 1a63 0E       		.uleb128 0xe
 8252 1a64 62756600 		.ascii	"buf\000"
 8253 1a68 01       		.byte	0x1
 8254 1a69 3704     		.2byte	0x437
 8255 1a6b 19090000 		.4byte	0x919
ARM GAS  C:\Users\jesse\AppData\Local\Temp\ccuy2FXa.s 			page 190


 8256 1a6f 05       		.uleb128 0x5
 8257 1a70 03       		.byte	0x3
 8258 1a71 382A0100 		.4byte	buf.13098
 8259 1a75 00       		.byte	0
 8260 1a76 0C       		.uleb128 0xc
 8261 1a77 C3070000 		.4byte	.LASF112
 8262 1a7b 01       		.byte	0x1
 8263 1a7c 3C04     		.2byte	0x43c
 8264 1a7e 88000000 		.4byte	0x88
 8265 1a82 00000000 		.4byte	.LFB98
 8266 1a86 0C000000 		.4byte	.LFE98-.LFB98
 8267 1a8a 01       		.uleb128 0x1
 8268 1a8b 9C       		.byte	0x9c
 8269 1a8c B31A0000 		.4byte	0x1ab3
 8270 1a90 0D       		.uleb128 0xd
 8271 1a91 7B080000 		.4byte	.LASF15
 8272 1a95 01       		.byte	0x1
 8273 1a96 3C04     		.2byte	0x43c
 8274 1a98 88000000 		.4byte	0x88
 8275 1a9c A20C0000 		.4byte	.LLST98
 8276 1aa0 0E       		.uleb128 0xe
 8277 1aa1 62756600 		.ascii	"buf\000"
 8278 1aa5 01       		.byte	0x1
 8279 1aa6 4204     		.2byte	0x442
 8280 1aa8 B31A0000 		.4byte	0x1ab3
 8281 1aac 05       		.uleb128 0x5
 8282 1aad 03       		.byte	0x3
 8283 1aae 782B0100 		.4byte	buf.13102
 8284 1ab2 00       		.byte	0
 8285 1ab3 09       		.uleb128 0x9
 8286 1ab4 76000000 		.4byte	0x76
 8287 1ab8 C41A0000 		.4byte	0x1ac4
 8288 1abc 0B       		.uleb128 0xb
 8289 1abd D8000000 		.4byte	0xd8
 8290 1ac1 1F08     		.2byte	0x81f
 8291 1ac3 00       		.byte	0
 8292 1ac4 0C       		.uleb128 0xc
 8293 1ac5 C3040000 		.4byte	.LASF113
 8294 1ac9 01       		.byte	0x1
 8295 1aca 4704     		.2byte	0x447
 8296 1acc 88000000 		.4byte	0x88
 8297 1ad0 00000000 		.4byte	.LFB99
 8298 1ad4 0C000000 		.4byte	.LFE99-.LFB99
 8299 1ad8 01       		.uleb128 0x1
 8300 1ad9 9C       		.byte	0x9c
 8301 1ada 011B0000 		.4byte	0x1b01
 8302 1ade 0D       		.uleb128 0xd
 8303 1adf 7B080000 		.4byte	.LASF15
 8304 1ae3 01       		.byte	0x1
 8305 1ae4 4704     		.2byte	0x447
 8306 1ae6 88000000 		.4byte	0x88
 8307 1aea C30C0000 		.4byte	.LLST99
 8308 1aee 0E       		.uleb128 0xe
 8309 1aef 62756600 		.ascii	"buf\000"
 8310 1af3 01       		.byte	0x1
 8311 1af4 4D04     		.2byte	0x44d
 8312 1af6 41160000 		.4byte	0x1641
ARM GAS  C:\Users\jesse\AppData\Local\Temp\ccuy2FXa.s 			page 191


 8313 1afa 05       		.uleb128 0x5
 8314 1afb 03       		.byte	0x3
 8315 1afc 98330100 		.4byte	buf.13106
 8316 1b00 00       		.byte	0
 8317 1b01 0C       		.uleb128 0xc
 8318 1b02 D2040000 		.4byte	.LASF114
 8319 1b06 01       		.byte	0x1
 8320 1b07 5204     		.2byte	0x452
 8321 1b09 88000000 		.4byte	0x88
 8322 1b0d 00000000 		.4byte	.LFB100
 8323 1b11 0C000000 		.4byte	.LFE100-.LFB100
 8324 1b15 01       		.uleb128 0x1
 8325 1b16 9C       		.byte	0x9c
 8326 1b17 3E1B0000 		.4byte	0x1b3e
 8327 1b1b 0D       		.uleb128 0xd
 8328 1b1c 7B080000 		.4byte	.LASF15
 8329 1b20 01       		.byte	0x1
 8330 1b21 5204     		.2byte	0x452
 8331 1b23 88000000 		.4byte	0x88
 8332 1b27 E40C0000 		.4byte	.LLST100
 8333 1b2b 0E       		.uleb128 0xe
 8334 1b2c 62756600 		.ascii	"buf\000"
 8335 1b30 01       		.byte	0x1
 8336 1b31 5804     		.2byte	0x458
 8337 1b33 B0040000 		.4byte	0x4b0
 8338 1b37 05       		.uleb128 0x5
 8339 1b38 03       		.byte	0x3
 8340 1b39 88340100 		.4byte	buf.13110
 8341 1b3d 00       		.byte	0
 8342 1b3e 0C       		.uleb128 0xc
 8343 1b3f 48000000 		.4byte	.LASF115
 8344 1b43 01       		.byte	0x1
 8345 1b44 5D04     		.2byte	0x45d
 8346 1b46 88000000 		.4byte	0x88
 8347 1b4a 00000000 		.4byte	.LFB101
 8348 1b4e 0C000000 		.4byte	.LFE101-.LFB101
 8349 1b52 01       		.uleb128 0x1
 8350 1b53 9C       		.byte	0x9c
 8351 1b54 7B1B0000 		.4byte	0x1b7b
 8352 1b58 0D       		.uleb128 0xd
 8353 1b59 7B080000 		.4byte	.LASF15
 8354 1b5d 01       		.byte	0x1
 8355 1b5e 5D04     		.2byte	0x45d
 8356 1b60 88000000 		.4byte	0x88
 8357 1b64 050D0000 		.4byte	.LLST101
 8358 1b68 0E       		.uleb128 0xe
 8359 1b69 62756600 		.ascii	"buf\000"
 8360 1b6d 01       		.byte	0x1
 8361 1b6e 6304     		.2byte	0x463
 8362 1b70 7B1B0000 		.4byte	0x1b7b
 8363 1b74 05       		.uleb128 0x5
 8364 1b75 03       		.byte	0x3
 8365 1b76 68360100 		.4byte	buf.13114
 8366 1b7a 00       		.byte	0
 8367 1b7b 09       		.uleb128 0x9
 8368 1b7c 76000000 		.4byte	0x76
 8369 1b80 8C1B0000 		.4byte	0x1b8c
ARM GAS  C:\Users\jesse\AppData\Local\Temp\ccuy2FXa.s 			page 192


 8370 1b84 0B       		.uleb128 0xb
 8371 1b85 D8000000 		.4byte	0xd8
 8372 1b89 BF12     		.2byte	0x12bf
 8373 1b8b 00       		.byte	0
 8374 1b8c 0C       		.uleb128 0xc
 8375 1b8d 88040000 		.4byte	.LASF116
 8376 1b91 01       		.byte	0x1
 8377 1b92 6804     		.2byte	0x468
 8378 1b94 88000000 		.4byte	0x88
 8379 1b98 00000000 		.4byte	.LFB102
 8380 1b9c 0C000000 		.4byte	.LFE102-.LFB102
 8381 1ba0 01       		.uleb128 0x1
 8382 1ba1 9C       		.byte	0x9c
 8383 1ba2 C91B0000 		.4byte	0x1bc9
 8384 1ba6 0D       		.uleb128 0xd
 8385 1ba7 7B080000 		.4byte	.LASF15
 8386 1bab 01       		.byte	0x1
 8387 1bac 6804     		.2byte	0x468
 8388 1bae 88000000 		.4byte	0x88
 8389 1bb2 260D0000 		.4byte	.LLST102
 8390 1bb6 0E       		.uleb128 0xe
 8391 1bb7 62756600 		.ascii	"buf\000"
 8392 1bbb 01       		.byte	0x1
 8393 1bbc 6E04     		.2byte	0x46e
 8394 1bbe 19010000 		.4byte	0x119
 8395 1bc2 05       		.uleb128 0x5
 8396 1bc3 03       		.byte	0x3
 8397 1bc4 28490100 		.4byte	buf.13118
 8398 1bc8 00       		.byte	0
 8399 1bc9 0C       		.uleb128 0xc
 8400 1bca 97040000 		.4byte	.LASF117
 8401 1bce 01       		.byte	0x1
 8402 1bcf 7304     		.2byte	0x473
 8403 1bd1 88000000 		.4byte	0x88
 8404 1bd5 00000000 		.4byte	.LFB103
 8405 1bd9 0C000000 		.4byte	.LFE103-.LFB103
 8406 1bdd 01       		.uleb128 0x1
 8407 1bde 9C       		.byte	0x9c
 8408 1bdf 061C0000 		.4byte	0x1c06
 8409 1be3 0D       		.uleb128 0xd
 8410 1be4 7B080000 		.4byte	.LASF15
 8411 1be8 01       		.byte	0x1
 8412 1be9 7304     		.2byte	0x473
 8413 1beb 88000000 		.4byte	0x88
 8414 1bef 470D0000 		.4byte	.LLST103
 8415 1bf3 0E       		.uleb128 0xe
 8416 1bf4 62756600 		.ascii	"buf\000"
 8417 1bf8 01       		.byte	0x1
 8418 1bf9 7904     		.2byte	0x479
 8419 1bfb 63010000 		.4byte	0x163
 8420 1bff 05       		.uleb128 0x5
 8421 1c00 03       		.byte	0x3
 8422 1c01 284A0100 		.4byte	buf.13122
 8423 1c05 00       		.byte	0
 8424 1c06 0C       		.uleb128 0xc
 8425 1c07 E9040000 		.4byte	.LASF118
 8426 1c0b 01       		.byte	0x1
ARM GAS  C:\Users\jesse\AppData\Local\Temp\ccuy2FXa.s 			page 193


 8427 1c0c 7E04     		.2byte	0x47e
 8428 1c0e 88000000 		.4byte	0x88
 8429 1c12 00000000 		.4byte	.LFB104
 8430 1c16 0C000000 		.4byte	.LFE104-.LFB104
 8431 1c1a 01       		.uleb128 0x1
 8432 1c1b 9C       		.byte	0x9c
 8433 1c1c 431C0000 		.4byte	0x1c43
 8434 1c20 0D       		.uleb128 0xd
 8435 1c21 7B080000 		.4byte	.LASF15
 8436 1c25 01       		.byte	0x1
 8437 1c26 7E04     		.2byte	0x47e
 8438 1c28 88000000 		.4byte	0x88
 8439 1c2c 680D0000 		.4byte	.LLST104
 8440 1c30 0E       		.uleb128 0xe
 8441 1c31 62756600 		.ascii	"buf\000"
 8442 1c35 01       		.byte	0x1
 8443 1c36 8404     		.2byte	0x484
 8444 1c38 431C0000 		.4byte	0x1c43
 8445 1c3c 05       		.uleb128 0x5
 8446 1c3d 03       		.byte	0x3
 8447 1c3e 284C0100 		.4byte	buf.13126
 8448 1c42 00       		.byte	0
 8449 1c43 09       		.uleb128 0x9
 8450 1c44 76000000 		.4byte	0x76
 8451 1c48 541C0000 		.4byte	0x1c54
 8452 1c4c 0B       		.uleb128 0xb
 8453 1c4d D8000000 		.4byte	0xd8
 8454 1c51 FF0F     		.2byte	0xfff
 8455 1c53 00       		.byte	0
 8456 1c54 0C       		.uleb128 0xc
 8457 1c55 2E060000 		.4byte	.LASF119
 8458 1c59 01       		.byte	0x1
 8459 1c5a 8904     		.2byte	0x489
 8460 1c5c 88000000 		.4byte	0x88
 8461 1c60 00000000 		.4byte	.LFB105
 8462 1c64 0C000000 		.4byte	.LFE105-.LFB105
 8463 1c68 01       		.uleb128 0x1
 8464 1c69 9C       		.byte	0x9c
 8465 1c6a 911C0000 		.4byte	0x1c91
 8466 1c6e 0D       		.uleb128 0xd
 8467 1c6f 7B080000 		.4byte	.LASF15
 8468 1c73 01       		.byte	0x1
 8469 1c74 8904     		.2byte	0x489
 8470 1c76 88000000 		.4byte	0x88
 8471 1c7a 890D0000 		.4byte	.LLST105
 8472 1c7e 0E       		.uleb128 0xe
 8473 1c7f 62756600 		.ascii	"buf\000"
 8474 1c83 01       		.byte	0x1
 8475 1c84 8F04     		.2byte	0x48f
 8476 1c86 19090000 		.4byte	0x919
 8477 1c8a 05       		.uleb128 0x5
 8478 1c8b 03       		.byte	0x3
 8479 1c8c 285C0100 		.4byte	buf.13130
 8480 1c90 00       		.byte	0
 8481 1c91 0C       		.uleb128 0xc
 8482 1c92 3D060000 		.4byte	.LASF120
 8483 1c96 01       		.byte	0x1
ARM GAS  C:\Users\jesse\AppData\Local\Temp\ccuy2FXa.s 			page 194


 8484 1c97 9404     		.2byte	0x494
 8485 1c99 88000000 		.4byte	0x88
 8486 1c9d 00000000 		.4byte	.LFB106
 8487 1ca1 0C000000 		.4byte	.LFE106-.LFB106
 8488 1ca5 01       		.uleb128 0x1
 8489 1ca6 9C       		.byte	0x9c
 8490 1ca7 CE1C0000 		.4byte	0x1cce
 8491 1cab 0D       		.uleb128 0xd
 8492 1cac 7B080000 		.4byte	.LASF15
 8493 1cb0 01       		.byte	0x1
 8494 1cb1 9404     		.2byte	0x494
 8495 1cb3 88000000 		.4byte	0x88
 8496 1cb7 AA0D0000 		.4byte	.LLST106
 8497 1cbb 0E       		.uleb128 0xe
 8498 1cbc 62756600 		.ascii	"buf\000"
 8499 1cc0 01       		.byte	0x1
 8500 1cc1 9A04     		.2byte	0x49a
 8501 1cc3 12110000 		.4byte	0x1112
 8502 1cc7 05       		.uleb128 0x5
 8503 1cc8 03       		.byte	0x3
 8504 1cc9 685D0100 		.4byte	buf.13134
 8505 1ccd 00       		.byte	0
 8506 1cce 0C       		.uleb128 0xc
 8507 1ccf 10070000 		.4byte	.LASF121
 8508 1cd3 01       		.byte	0x1
 8509 1cd4 9F04     		.2byte	0x49f
 8510 1cd6 88000000 		.4byte	0x88
 8511 1cda 00000000 		.4byte	.LFB107
 8512 1cde 0C000000 		.4byte	.LFE107-.LFB107
 8513 1ce2 01       		.uleb128 0x1
 8514 1ce3 9C       		.byte	0x9c
 8515 1ce4 0B1D0000 		.4byte	0x1d0b
 8516 1ce8 0D       		.uleb128 0xd
 8517 1ce9 7B080000 		.4byte	.LASF15
 8518 1ced 01       		.byte	0x1
 8519 1cee 9F04     		.2byte	0x49f
 8520 1cf0 88000000 		.4byte	0x88
 8521 1cf4 CB0D0000 		.4byte	.LLST107
 8522 1cf8 0E       		.uleb128 0xe
 8523 1cf9 62756600 		.ascii	"buf\000"
 8524 1cfd 01       		.byte	0x1
 8525 1cfe A504     		.2byte	0x4a5
 8526 1d00 0B1D0000 		.4byte	0x1d0b
 8527 1d04 05       		.uleb128 0x5
 8528 1d05 03       		.byte	0x3
 8529 1d06 E85F0100 		.4byte	buf.13138
 8530 1d0a 00       		.byte	0
 8531 1d0b 09       		.uleb128 0x9
 8532 1d0c 76000000 		.4byte	0x76
 8533 1d10 1C1D0000 		.4byte	0x1d1c
 8534 1d14 0B       		.uleb128 0xb
 8535 1d15 D8000000 		.4byte	0xd8
 8536 1d19 7F25     		.2byte	0x257f
 8537 1d1b 00       		.byte	0
 8538 1d1c 0C       		.uleb128 0xc
 8539 1d1d 12060000 		.4byte	.LASF122
 8540 1d21 01       		.byte	0x1
ARM GAS  C:\Users\jesse\AppData\Local\Temp\ccuy2FXa.s 			page 195


 8541 1d22 AA04     		.2byte	0x4aa
 8542 1d24 88000000 		.4byte	0x88
 8543 1d28 00000000 		.4byte	.LFB108
 8544 1d2c 0C000000 		.4byte	.LFE108-.LFB108
 8545 1d30 01       		.uleb128 0x1
 8546 1d31 9C       		.byte	0x9c
 8547 1d32 591D0000 		.4byte	0x1d59
 8548 1d36 0D       		.uleb128 0xd
 8549 1d37 7B080000 		.4byte	.LASF15
 8550 1d3b 01       		.byte	0x1
 8551 1d3c AA04     		.2byte	0x4aa
 8552 1d3e 88000000 		.4byte	0x88
 8553 1d42 EC0D0000 		.4byte	.LLST108
 8554 1d46 0E       		.uleb128 0xe
 8555 1d47 62756600 		.ascii	"buf\000"
 8556 1d4b 01       		.byte	0x1
 8557 1d4c B004     		.2byte	0x4b0
 8558 1d4e 79070000 		.4byte	0x779
 8559 1d52 05       		.uleb128 0x5
 8560 1d53 03       		.byte	0x3
 8561 1d54 68850100 		.4byte	buf.13142
 8562 1d58 00       		.byte	0
 8563 1d59 0C       		.uleb128 0xc
 8564 1d5a 20060000 		.4byte	.LASF123
 8565 1d5e 01       		.byte	0x1
 8566 1d5f B504     		.2byte	0x4b5
 8567 1d61 88000000 		.4byte	0x88
 8568 1d65 00000000 		.4byte	.LFB109
 8569 1d69 0C000000 		.4byte	.LFE109-.LFB109
 8570 1d6d 01       		.uleb128 0x1
 8571 1d6e 9C       		.byte	0x9c
 8572 1d6f 961D0000 		.4byte	0x1d96
 8573 1d73 0D       		.uleb128 0xd
 8574 1d74 7B080000 		.4byte	.LASF15
 8575 1d78 01       		.byte	0x1
 8576 1d79 B504     		.2byte	0x4b5
 8577 1d7b 88000000 		.4byte	0x88
 8578 1d7f 0D0E0000 		.4byte	.LLST109
 8579 1d83 0E       		.uleb128 0xe
 8580 1d84 62756600 		.ascii	"buf\000"
 8581 1d88 01       		.byte	0x1
 8582 1d89 BB04     		.2byte	0x4bb
 8583 1d8b 19090000 		.4byte	0x919
 8584 1d8f 05       		.uleb128 0x5
 8585 1d90 03       		.byte	0x3
 8586 1d91 08860100 		.4byte	buf.13146
 8587 1d95 00       		.byte	0
 8588 1d96 0C       		.uleb128 0xc
 8589 1d97 DA060000 		.4byte	.LASF124
 8590 1d9b 01       		.byte	0x1
 8591 1d9c C004     		.2byte	0x4c0
 8592 1d9e 88000000 		.4byte	0x88
 8593 1da2 00000000 		.4byte	.LFB110
 8594 1da6 0C000000 		.4byte	.LFE110-.LFB110
 8595 1daa 01       		.uleb128 0x1
 8596 1dab 9C       		.byte	0x9c
 8597 1dac D31D0000 		.4byte	0x1dd3
ARM GAS  C:\Users\jesse\AppData\Local\Temp\ccuy2FXa.s 			page 196


 8598 1db0 0D       		.uleb128 0xd
 8599 1db1 7B080000 		.4byte	.LASF15
 8600 1db5 01       		.byte	0x1
 8601 1db6 C004     		.2byte	0x4c0
 8602 1db8 88000000 		.4byte	0x88
 8603 1dbc 2E0E0000 		.4byte	.LLST110
 8604 1dc0 0E       		.uleb128 0xe
 8605 1dc1 62756600 		.ascii	"buf\000"
 8606 1dc5 01       		.byte	0x1
 8607 1dc6 C604     		.2byte	0x4c6
 8608 1dc8 C6070000 		.4byte	0x7c6
 8609 1dcc 05       		.uleb128 0x5
 8610 1dcd 03       		.byte	0x3
 8611 1dce 48870100 		.4byte	buf.13150
 8612 1dd2 00       		.byte	0
 8613 1dd3 0C       		.uleb128 0xc
 8614 1dd4 430A0000 		.4byte	.LASF125
 8615 1dd8 01       		.byte	0x1
 8616 1dd9 CB04     		.2byte	0x4cb
 8617 1ddb 88000000 		.4byte	0x88
 8618 1ddf 00000000 		.4byte	.LFB111
 8619 1de3 0C000000 		.4byte	.LFE111-.LFB111
 8620 1de7 01       		.uleb128 0x1
 8621 1de8 9C       		.byte	0x9c
 8622 1de9 101E0000 		.4byte	0x1e10
 8623 1ded 0D       		.uleb128 0xd
 8624 1dee 7B080000 		.4byte	.LASF15
 8625 1df2 01       		.byte	0x1
 8626 1df3 CB04     		.2byte	0x4cb
 8627 1df5 88000000 		.4byte	0x88
 8628 1df9 4F0E0000 		.4byte	.LLST111
 8629 1dfd 0E       		.uleb128 0xe
 8630 1dfe 62756600 		.ascii	"buf\000"
 8631 1e02 01       		.byte	0x1
 8632 1e03 D104     		.2byte	0x4d1
 8633 1e05 101E0000 		.4byte	0x1e10
 8634 1e09 05       		.uleb128 0x5
 8635 1e0a 03       		.byte	0x3
 8636 1e0b 488C0100 		.4byte	buf.13154
 8637 1e0f 00       		.byte	0
 8638 1e10 09       		.uleb128 0x9
 8639 1e11 76000000 		.4byte	0x76
 8640 1e15 201E0000 		.4byte	0x1e20
 8641 1e19 0A       		.uleb128 0xa
 8642 1e1a D8000000 		.4byte	0xd8
 8643 1e1e 87       		.byte	0x87
 8644 1e1f 00       		.byte	0
 8645 1e20 0C       		.uleb128 0xc
 8646 1e21 510A0000 		.4byte	.LASF126
 8647 1e25 01       		.byte	0x1
 8648 1e26 D604     		.2byte	0x4d6
 8649 1e28 88000000 		.4byte	0x88
 8650 1e2c 00000000 		.4byte	.LFB112
 8651 1e30 0C000000 		.4byte	.LFE112-.LFB112
 8652 1e34 01       		.uleb128 0x1
 8653 1e35 9C       		.byte	0x9c
 8654 1e36 5D1E0000 		.4byte	0x1e5d
ARM GAS  C:\Users\jesse\AppData\Local\Temp\ccuy2FXa.s 			page 197


 8655 1e3a 0D       		.uleb128 0xd
 8656 1e3b 7B080000 		.4byte	.LASF15
 8657 1e3f 01       		.byte	0x1
 8658 1e40 D604     		.2byte	0x4d6
 8659 1e42 88000000 		.4byte	0x88
 8660 1e46 700E0000 		.4byte	.LLST112
 8661 1e4a 0E       		.uleb128 0xe
 8662 1e4b 62756600 		.ascii	"buf\000"
 8663 1e4f 01       		.byte	0x1
 8664 1e50 DC04     		.2byte	0x4dc
 8665 1e52 5D1E0000 		.4byte	0x1e5d
 8666 1e56 05       		.uleb128 0x5
 8667 1e57 03       		.byte	0x3
 8668 1e58 D08C0100 		.4byte	buf.13158
 8669 1e5c 00       		.byte	0
 8670 1e5d 09       		.uleb128 0x9
 8671 1e5e 76000000 		.4byte	0x76
 8672 1e62 6E1E0000 		.4byte	0x1e6e
 8673 1e66 0B       		.uleb128 0xb
 8674 1e67 D8000000 		.4byte	0xd8
 8675 1e6b 0F01     		.2byte	0x10f
 8676 1e6d 00       		.byte	0
 8677 1e6e 0C       		.uleb128 0xc
 8678 1e6f E30A0000 		.4byte	.LASF127
 8679 1e73 01       		.byte	0x1
 8680 1e74 E104     		.2byte	0x4e1
 8681 1e76 88000000 		.4byte	0x88
 8682 1e7a 00000000 		.4byte	.LFB113
 8683 1e7e 0C000000 		.4byte	.LFE113-.LFB113
 8684 1e82 01       		.uleb128 0x1
 8685 1e83 9C       		.byte	0x9c
 8686 1e84 AB1E0000 		.4byte	0x1eab
 8687 1e88 0D       		.uleb128 0xd
 8688 1e89 7B080000 		.4byte	.LASF15
 8689 1e8d 01       		.byte	0x1
 8690 1e8e E104     		.2byte	0x4e1
 8691 1e90 88000000 		.4byte	0x88
 8692 1e94 910E0000 		.4byte	.LLST113
 8693 1e98 0E       		.uleb128 0xe
 8694 1e99 62756600 		.ascii	"buf\000"
 8695 1e9d 01       		.byte	0x1
 8696 1e9e E704     		.2byte	0x4e7
 8697 1ea0 AB1E0000 		.4byte	0x1eab
 8698 1ea4 05       		.uleb128 0x5
 8699 1ea5 03       		.byte	0x3
 8700 1ea6 E08D0100 		.4byte	buf.13162
 8701 1eaa 00       		.byte	0
 8702 1eab 09       		.uleb128 0x9
 8703 1eac 76000000 		.4byte	0x76
 8704 1eb0 BC1E0000 		.4byte	0x1ebc
 8705 1eb4 0B       		.uleb128 0xb
 8706 1eb5 D8000000 		.4byte	0xd8
 8707 1eb9 1F02     		.2byte	0x21f
 8708 1ebb 00       		.byte	0
 8709 1ebc 0C       		.uleb128 0xc
 8710 1ebd 82000000 		.4byte	.LASF128
 8711 1ec1 01       		.byte	0x1
ARM GAS  C:\Users\jesse\AppData\Local\Temp\ccuy2FXa.s 			page 198


 8712 1ec2 EC04     		.2byte	0x4ec
 8713 1ec4 88000000 		.4byte	0x88
 8714 1ec8 00000000 		.4byte	.LFB114
 8715 1ecc 0C000000 		.4byte	.LFE114-.LFB114
 8716 1ed0 01       		.uleb128 0x1
 8717 1ed1 9C       		.byte	0x9c
 8718 1ed2 F91E0000 		.4byte	0x1ef9
 8719 1ed6 0D       		.uleb128 0xd
 8720 1ed7 7B080000 		.4byte	.LASF15
 8721 1edb 01       		.byte	0x1
 8722 1edc EC04     		.2byte	0x4ec
 8723 1ede 88000000 		.4byte	0x88
 8724 1ee2 B20E0000 		.4byte	.LLST114
 8725 1ee6 0E       		.uleb128 0xe
 8726 1ee7 62756600 		.ascii	"buf\000"
 8727 1eeb 01       		.byte	0x1
 8728 1eec F204     		.2byte	0x4f2
 8729 1eee 101E0000 		.4byte	0x1e10
 8730 1ef2 05       		.uleb128 0x5
 8731 1ef3 03       		.byte	0x3
 8732 1ef4 00900100 		.4byte	buf.13166
 8733 1ef8 00       		.byte	0
 8734 1ef9 0C       		.uleb128 0xc
 8735 1efa 32050000 		.4byte	.LASF129
 8736 1efe 01       		.byte	0x1
 8737 1eff F704     		.2byte	0x4f7
 8738 1f01 88000000 		.4byte	0x88
 8739 1f05 00000000 		.4byte	.LFB115
 8740 1f09 0C000000 		.4byte	.LFE115-.LFB115
 8741 1f0d 01       		.uleb128 0x1
 8742 1f0e 9C       		.byte	0x9c
 8743 1f0f 361F0000 		.4byte	0x1f36
 8744 1f13 0D       		.uleb128 0xd
 8745 1f14 7B080000 		.4byte	.LASF15
 8746 1f18 01       		.byte	0x1
 8747 1f19 F704     		.2byte	0x4f7
 8748 1f1b 88000000 		.4byte	0x88
 8749 1f1f D30E0000 		.4byte	.LLST115
 8750 1f23 0E       		.uleb128 0xe
 8751 1f24 62756600 		.ascii	"buf\000"
 8752 1f28 01       		.byte	0x1
 8753 1f29 FD04     		.2byte	0x4fd
 8754 1f2b 5D1E0000 		.4byte	0x1e5d
 8755 1f2f 05       		.uleb128 0x5
 8756 1f30 03       		.byte	0x3
 8757 1f31 88900100 		.4byte	buf.13170
 8758 1f35 00       		.byte	0
 8759 1f36 0C       		.uleb128 0xc
 8760 1f37 AB010000 		.4byte	.LASF130
 8761 1f3b 01       		.byte	0x1
 8762 1f3c 0205     		.2byte	0x502
 8763 1f3e 88000000 		.4byte	0x88
 8764 1f42 00000000 		.4byte	.LFB116
 8765 1f46 0C000000 		.4byte	.LFE116-.LFB116
 8766 1f4a 01       		.uleb128 0x1
 8767 1f4b 9C       		.byte	0x9c
 8768 1f4c 731F0000 		.4byte	0x1f73
ARM GAS  C:\Users\jesse\AppData\Local\Temp\ccuy2FXa.s 			page 199


 8769 1f50 0D       		.uleb128 0xd
 8770 1f51 7B080000 		.4byte	.LASF15
 8771 1f55 01       		.byte	0x1
 8772 1f56 0205     		.2byte	0x502
 8773 1f58 88000000 		.4byte	0x88
 8774 1f5c F40E0000 		.4byte	.LLST116
 8775 1f60 0E       		.uleb128 0xe
 8776 1f61 62756600 		.ascii	"buf\000"
 8777 1f65 01       		.byte	0x1
 8778 1f66 0805     		.2byte	0x508
 8779 1f68 731F0000 		.4byte	0x1f73
 8780 1f6c 05       		.uleb128 0x5
 8781 1f6d 03       		.byte	0x3
 8782 1f6e 98910100 		.4byte	buf.13174
 8783 1f72 00       		.byte	0
 8784 1f73 09       		.uleb128 0x9
 8785 1f74 76000000 		.4byte	0x76
 8786 1f78 841F0000 		.4byte	0x1f84
 8787 1f7c 0B       		.uleb128 0xb
 8788 1f7d D8000000 		.4byte	0xd8
 8789 1f81 3F04     		.2byte	0x43f
 8790 1f83 00       		.byte	0
 8791 1f84 0C       		.uleb128 0xc
 8792 1f85 1B0B0000 		.4byte	.LASF131
 8793 1f89 01       		.byte	0x1
 8794 1f8a 0D05     		.2byte	0x50d
 8795 1f8c 88000000 		.4byte	0x88
 8796 1f90 00000000 		.4byte	.LFB117
 8797 1f94 0C000000 		.4byte	.LFE117-.LFB117
 8798 1f98 01       		.uleb128 0x1
 8799 1f99 9C       		.byte	0x9c
 8800 1f9a C11F0000 		.4byte	0x1fc1
 8801 1f9e 0D       		.uleb128 0xd
 8802 1f9f 7B080000 		.4byte	.LASF15
 8803 1fa3 01       		.byte	0x1
 8804 1fa4 0D05     		.2byte	0x50d
 8805 1fa6 88000000 		.4byte	0x88
 8806 1faa 150F0000 		.4byte	.LLST117
 8807 1fae 0E       		.uleb128 0xe
 8808 1faf 62756600 		.ascii	"buf\000"
 8809 1fb3 01       		.byte	0x1
 8810 1fb4 1305     		.2byte	0x513
 8811 1fb6 CE0B0000 		.4byte	0xbce
 8812 1fba 05       		.uleb128 0x5
 8813 1fbb 03       		.byte	0x3
 8814 1fbc D8950100 		.4byte	buf.13178
 8815 1fc0 00       		.byte	0
 8816 1fc1 0C       		.uleb128 0xc
 8817 1fc2 2A0B0000 		.4byte	.LASF132
 8818 1fc6 01       		.byte	0x1
 8819 1fc7 1805     		.2byte	0x518
 8820 1fc9 88000000 		.4byte	0x88
 8821 1fcd 00000000 		.4byte	.LFB118
 8822 1fd1 0C000000 		.4byte	.LFE118-.LFB118
 8823 1fd5 01       		.uleb128 0x1
 8824 1fd6 9C       		.byte	0x9c
 8825 1fd7 FE1F0000 		.4byte	0x1ffe
ARM GAS  C:\Users\jesse\AppData\Local\Temp\ccuy2FXa.s 			page 200


 8826 1fdb 0D       		.uleb128 0xd
 8827 1fdc 7B080000 		.4byte	.LASF15
 8828 1fe0 01       		.byte	0x1
 8829 1fe1 1805     		.2byte	0x518
 8830 1fe3 88000000 		.4byte	0x88
 8831 1fe7 360F0000 		.4byte	.LLST118
 8832 1feb 0E       		.uleb128 0xe
 8833 1fec 62756600 		.ascii	"buf\000"
 8834 1ff0 01       		.byte	0x1
 8835 1ff1 1E05     		.2byte	0x51e
 8836 1ff3 4A100000 		.4byte	0x104a
 8837 1ff7 05       		.uleb128 0x5
 8838 1ff8 03       		.byte	0x3
 8839 1ff9 58970100 		.4byte	buf.13182
 8840 1ffd 00       		.byte	0
 8841 1ffe 0C       		.uleb128 0xc
 8842 1fff 39000000 		.4byte	.LASF133
 8843 2003 01       		.byte	0x1
 8844 2004 2305     		.2byte	0x523
 8845 2006 88000000 		.4byte	0x88
 8846 200a 00000000 		.4byte	.LFB119
 8847 200e 0C000000 		.4byte	.LFE119-.LFB119
 8848 2012 01       		.uleb128 0x1
 8849 2013 9C       		.byte	0x9c
 8850 2014 3B200000 		.4byte	0x203b
 8851 2018 0D       		.uleb128 0xd
 8852 2019 7B080000 		.4byte	.LASF15
 8853 201d 01       		.byte	0x1
 8854 201e 2305     		.2byte	0x523
 8855 2020 88000000 		.4byte	0x88
 8856 2024 570F0000 		.4byte	.LLST119
 8857 2028 0E       		.uleb128 0xe
 8858 2029 62756600 		.ascii	"buf\000"
 8859 202d 01       		.byte	0x1
 8860 202e 2905     		.2byte	0x529
 8861 2030 3B200000 		.4byte	0x203b
 8862 2034 05       		.uleb128 0x5
 8863 2035 03       		.byte	0x3
 8864 2036 589A0100 		.4byte	buf.13186
 8865 203a 00       		.byte	0
 8866 203b 09       		.uleb128 0x9
 8867 203c 76000000 		.4byte	0x76
 8868 2040 4C200000 		.4byte	0x204c
 8869 2044 0B       		.uleb128 0xb
 8870 2045 D8000000 		.4byte	0xd8
 8871 2049 7F19     		.2byte	0x197f
 8872 204b 00       		.byte	0
 8873 204c 0C       		.uleb128 0xc
 8874 204d 84080000 		.4byte	.LASF134
 8875 2051 01       		.byte	0x1
 8876 2052 2E05     		.2byte	0x52e
 8877 2054 88000000 		.4byte	0x88
 8878 2058 00000000 		.4byte	.LFB120
 8879 205c 0C000000 		.4byte	.LFE120-.LFB120
 8880 2060 01       		.uleb128 0x1
 8881 2061 9C       		.byte	0x9c
 8882 2062 89200000 		.4byte	0x2089
ARM GAS  C:\Users\jesse\AppData\Local\Temp\ccuy2FXa.s 			page 201


 8883 2066 0D       		.uleb128 0xd
 8884 2067 7B080000 		.4byte	.LASF15
 8885 206b 01       		.byte	0x1
 8886 206c 2E05     		.2byte	0x52e
 8887 206e 88000000 		.4byte	0x88
 8888 2072 780F0000 		.4byte	.LLST120
 8889 2076 0E       		.uleb128 0xe
 8890 2077 62756600 		.ascii	"buf\000"
 8891 207b 01       		.byte	0x1
 8892 207c 3405     		.2byte	0x534
 8893 207e CE0B0000 		.4byte	0xbce
 8894 2082 05       		.uleb128 0x5
 8895 2083 03       		.byte	0x3
 8896 2084 D8B30100 		.4byte	buf.13190
 8897 2088 00       		.byte	0
 8898 2089 0C       		.uleb128 0xc
 8899 208a 93080000 		.4byte	.LASF135
 8900 208e 01       		.byte	0x1
 8901 208f 3905     		.2byte	0x539
 8902 2091 88000000 		.4byte	0x88
 8903 2095 00000000 		.4byte	.LFB121
 8904 2099 0C000000 		.4byte	.LFE121-.LFB121
 8905 209d 01       		.uleb128 0x1
 8906 209e 9C       		.byte	0x9c
 8907 209f C6200000 		.4byte	0x20c6
 8908 20a3 0D       		.uleb128 0xd
 8909 20a4 7B080000 		.4byte	.LASF15
 8910 20a8 01       		.byte	0x1
 8911 20a9 3905     		.2byte	0x539
 8912 20ab 88000000 		.4byte	0x88
 8913 20af 990F0000 		.4byte	.LLST121
 8914 20b3 0E       		.uleb128 0xe
 8915 20b4 62756600 		.ascii	"buf\000"
 8916 20b8 01       		.byte	0x1
 8917 20b9 3F05     		.2byte	0x53f
 8918 20bb 4A100000 		.4byte	0x104a
 8919 20bf 05       		.uleb128 0x5
 8920 20c0 03       		.byte	0x3
 8921 20c1 58B50100 		.4byte	buf.13194
 8922 20c5 00       		.byte	0
 8923 20c6 0C       		.uleb128 0xc
 8924 20c7 56010000 		.4byte	.LASF136
 8925 20cb 01       		.byte	0x1
 8926 20cc 4405     		.2byte	0x544
 8927 20ce 88000000 		.4byte	0x88
 8928 20d2 00000000 		.4byte	.LFB122
 8929 20d6 0C000000 		.4byte	.LFE122-.LFB122
 8930 20da 01       		.uleb128 0x1
 8931 20db 9C       		.byte	0x9c
 8932 20dc 03210000 		.4byte	0x2103
 8933 20e0 0D       		.uleb128 0xd
 8934 20e1 7B080000 		.4byte	.LASF15
 8935 20e5 01       		.byte	0x1
 8936 20e6 4405     		.2byte	0x544
 8937 20e8 88000000 		.4byte	0x88
 8938 20ec BA0F0000 		.4byte	.LLST122
 8939 20f0 0E       		.uleb128 0xe
ARM GAS  C:\Users\jesse\AppData\Local\Temp\ccuy2FXa.s 			page 202


 8940 20f1 62756600 		.ascii	"buf\000"
 8941 20f5 01       		.byte	0x1
 8942 20f6 4A05     		.2byte	0x54a
 8943 20f8 03210000 		.4byte	0x2103
 8944 20fc 05       		.uleb128 0x5
 8945 20fd 03       		.byte	0x3
 8946 20fe 58B80100 		.4byte	buf.13198
 8947 2102 00       		.byte	0
 8948 2103 09       		.uleb128 0x9
 8949 2104 76000000 		.4byte	0x76
 8950 2108 14210000 		.4byte	0x2114
 8951 210c 0B       		.uleb128 0xb
 8952 210d D8000000 		.4byte	0xd8
 8953 2111 FF1D     		.2byte	0x1dff
 8954 2113 00       		.byte	0
 8955 2114 0C       		.uleb128 0xc
 8956 2115 6C080000 		.4byte	.LASF137
 8957 2119 01       		.byte	0x1
 8958 211a 4F05     		.2byte	0x54f
 8959 211c 88000000 		.4byte	0x88
 8960 2120 00000000 		.4byte	.LFB123
 8961 2124 0C000000 		.4byte	.LFE123-.LFB123
 8962 2128 01       		.uleb128 0x1
 8963 2129 9C       		.byte	0x9c
 8964 212a 51210000 		.4byte	0x2151
 8965 212e 0D       		.uleb128 0xd
 8966 212f 7B080000 		.4byte	.LASF15
 8967 2133 01       		.byte	0x1
 8968 2134 4F05     		.2byte	0x54f
 8969 2136 88000000 		.4byte	0x88
 8970 213a DB0F0000 		.4byte	.LLST123
 8971 213e 0E       		.uleb128 0xe
 8972 213f 62756600 		.ascii	"buf\000"
 8973 2143 01       		.byte	0x1
 8974 2144 5505     		.2byte	0x555
 8975 2146 79070000 		.4byte	0x779
 8976 214a 05       		.uleb128 0x5
 8977 214b 03       		.byte	0x3
 8978 214c 58D60100 		.4byte	buf.13202
 8979 2150 00       		.byte	0
 8980 2151 0C       		.uleb128 0xc
 8981 2152 F3010000 		.4byte	.LASF138
 8982 2156 01       		.byte	0x1
 8983 2157 5A05     		.2byte	0x55a
 8984 2159 88000000 		.4byte	0x88
 8985 215d 00000000 		.4byte	.LFB124
 8986 2161 0C000000 		.4byte	.LFE124-.LFB124
 8987 2165 01       		.uleb128 0x1
 8988 2166 9C       		.byte	0x9c
 8989 2167 8E210000 		.4byte	0x218e
 8990 216b 0D       		.uleb128 0xd
 8991 216c 7B080000 		.4byte	.LASF15
 8992 2170 01       		.byte	0x1
 8993 2171 5A05     		.2byte	0x55a
 8994 2173 88000000 		.4byte	0x88
 8995 2177 FC0F0000 		.4byte	.LLST124
 8996 217b 0E       		.uleb128 0xe
ARM GAS  C:\Users\jesse\AppData\Local\Temp\ccuy2FXa.s 			page 203


 8997 217c 62756600 		.ascii	"buf\000"
 8998 2180 01       		.byte	0x1
 8999 2181 6005     		.2byte	0x560
 9000 2183 19090000 		.4byte	0x919
 9001 2187 05       		.uleb128 0x5
 9002 2188 03       		.byte	0x3
 9003 2189 F8D60100 		.4byte	buf.13206
 9004 218d 00       		.byte	0
 9005 218e 0C       		.uleb128 0xc
 9006 218f 250A0000 		.4byte	.LASF139
 9007 2193 01       		.byte	0x1
 9008 2194 6505     		.2byte	0x565
 9009 2196 88000000 		.4byte	0x88
 9010 219a 00000000 		.4byte	.LFB125
 9011 219e 0C000000 		.4byte	.LFE125-.LFB125
 9012 21a2 01       		.uleb128 0x1
 9013 21a3 9C       		.byte	0x9c
 9014 21a4 CB210000 		.4byte	0x21cb
 9015 21a8 0D       		.uleb128 0xd
 9016 21a9 7B080000 		.4byte	.LASF15
 9017 21ad 01       		.byte	0x1
 9018 21ae 6505     		.2byte	0x565
 9019 21b0 88000000 		.4byte	0x88
 9020 21b4 1D100000 		.4byte	.LLST125
 9021 21b8 0E       		.uleb128 0xe
 9022 21b9 62756600 		.ascii	"buf\000"
 9023 21bd 01       		.byte	0x1
 9024 21be 6B05     		.2byte	0x56b
 9025 21c0 CB160000 		.4byte	0x16cb
 9026 21c4 05       		.uleb128 0x5
 9027 21c5 03       		.byte	0x3
 9028 21c6 38D80100 		.4byte	buf.13210
 9029 21ca 00       		.byte	0
 9030 21cb 0C       		.uleb128 0xc
 9031 21cc BC060000 		.4byte	.LASF140
 9032 21d0 01       		.byte	0x1
 9033 21d1 7005     		.2byte	0x570
 9034 21d3 88000000 		.4byte	0x88
 9035 21d7 00000000 		.4byte	.LFB126
 9036 21db 0C000000 		.4byte	.LFE126-.LFB126
 9037 21df 01       		.uleb128 0x1
 9038 21e0 9C       		.byte	0x9c
 9039 21e1 08220000 		.4byte	0x2208
 9040 21e5 0D       		.uleb128 0xd
 9041 21e6 7B080000 		.4byte	.LASF15
 9042 21ea 01       		.byte	0x1
 9043 21eb 7005     		.2byte	0x570
 9044 21ed 88000000 		.4byte	0x88
 9045 21f1 3E100000 		.4byte	.LLST126
 9046 21f5 0E       		.uleb128 0xe
 9047 21f6 62756600 		.ascii	"buf\000"
 9048 21fa 01       		.byte	0x1
 9049 21fb 7605     		.2byte	0x576
 9050 21fd 19010000 		.4byte	0x119
 9051 2201 05       		.uleb128 0x5
 9052 2202 03       		.byte	0x3
 9053 2203 B8DF0100 		.4byte	buf.13214
ARM GAS  C:\Users\jesse\AppData\Local\Temp\ccuy2FXa.s 			page 204


 9054 2207 00       		.byte	0
 9055 2208 0C       		.uleb128 0xc
 9056 2209 CB060000 		.4byte	.LASF141
 9057 220d 01       		.byte	0x1
 9058 220e 7B05     		.2byte	0x57b
 9059 2210 88000000 		.4byte	0x88
 9060 2214 00000000 		.4byte	.LFB127
 9061 2218 0C000000 		.4byte	.LFE127-.LFB127
 9062 221c 01       		.uleb128 0x1
 9063 221d 9C       		.byte	0x9c
 9064 221e 45220000 		.4byte	0x2245
 9065 2222 0D       		.uleb128 0xd
 9066 2223 7B080000 		.4byte	.LASF15
 9067 2227 01       		.byte	0x1
 9068 2228 7B05     		.2byte	0x57b
 9069 222a 88000000 		.4byte	0x88
 9070 222e 5F100000 		.4byte	.LLST127
 9071 2232 0E       		.uleb128 0xe
 9072 2233 62756600 		.ascii	"buf\000"
 9073 2237 01       		.byte	0x1
 9074 2238 8105     		.2byte	0x581
 9075 223a 63010000 		.4byte	0x163
 9076 223e 05       		.uleb128 0x5
 9077 223f 03       		.byte	0x3
 9078 2240 B8E00100 		.4byte	buf.13218
 9079 2244 00       		.byte	0
 9080 2245 0C       		.uleb128 0xc
 9081 2246 83070000 		.4byte	.LASF142
 9082 224a 01       		.byte	0x1
 9083 224b 8605     		.2byte	0x586
 9084 224d 88000000 		.4byte	0x88
 9085 2251 00000000 		.4byte	.LFB128
 9086 2255 0C000000 		.4byte	.LFE128-.LFB128
 9087 2259 01       		.uleb128 0x1
 9088 225a 9C       		.byte	0x9c
 9089 225b 82220000 		.4byte	0x2282
 9090 225f 0D       		.uleb128 0xd
 9091 2260 7B080000 		.4byte	.LASF15
 9092 2264 01       		.byte	0x1
 9093 2265 8605     		.2byte	0x586
 9094 2267 88000000 		.4byte	0x88
 9095 226b 80100000 		.4byte	.LLST128
 9096 226f 0E       		.uleb128 0xe
 9097 2270 62756600 		.ascii	"buf\000"
 9098 2274 01       		.byte	0x1
 9099 2275 8C05     		.2byte	0x58c
 9100 2277 82220000 		.4byte	0x2282
 9101 227b 05       		.uleb128 0x5
 9102 227c 03       		.byte	0x3
 9103 227d B8E20100 		.4byte	buf.13222
 9104 2281 00       		.byte	0
 9105 2282 09       		.uleb128 0x9
 9106 2283 76000000 		.4byte	0x76
 9107 2287 93220000 		.4byte	0x2293
 9108 228b 0B       		.uleb128 0xb
 9109 228c D8000000 		.4byte	0xd8
 9110 2290 FF13     		.2byte	0x13ff
ARM GAS  C:\Users\jesse\AppData\Local\Temp\ccuy2FXa.s 			page 205


 9111 2292 00       		.byte	0
 9112 2293 0C       		.uleb128 0xc
 9113 2294 65070000 		.4byte	.LASF143
 9114 2298 01       		.byte	0x1
 9115 2299 9105     		.2byte	0x591
 9116 229b 88000000 		.4byte	0x88
 9117 229f 00000000 		.4byte	.LFB129
 9118 22a3 0C000000 		.4byte	.LFE129-.LFB129
 9119 22a7 01       		.uleb128 0x1
 9120 22a8 9C       		.byte	0x9c
 9121 22a9 D0220000 		.4byte	0x22d0
 9122 22ad 0D       		.uleb128 0xd
 9123 22ae 7B080000 		.4byte	.LASF15
 9124 22b2 01       		.byte	0x1
 9125 22b3 9105     		.2byte	0x591
 9126 22b5 88000000 		.4byte	0x88
 9127 22b9 A1100000 		.4byte	.LLST129
 9128 22bd 0E       		.uleb128 0xe
 9129 22be 62756600 		.ascii	"buf\000"
 9130 22c2 01       		.byte	0x1
 9131 22c3 9705     		.2byte	0x597
 9132 22c5 27140000 		.4byte	0x1427
 9133 22c9 05       		.uleb128 0x5
 9134 22ca 03       		.byte	0x3
 9135 22cb B8F60100 		.4byte	buf.13226
 9136 22cf 00       		.byte	0
 9137 22d0 0C       		.uleb128 0xc
 9138 22d1 74070000 		.4byte	.LASF144
 9139 22d5 01       		.byte	0x1
 9140 22d6 9C05     		.2byte	0x59c
 9141 22d8 88000000 		.4byte	0x88
 9142 22dc 00000000 		.4byte	.LFB130
 9143 22e0 0C000000 		.4byte	.LFE130-.LFB130
 9144 22e4 01       		.uleb128 0x1
 9145 22e5 9C       		.byte	0x9c
 9146 22e6 0D230000 		.4byte	0x230d
 9147 22ea 0D       		.uleb128 0xd
 9148 22eb 7B080000 		.4byte	.LASF15
 9149 22ef 01       		.byte	0x1
 9150 22f0 9C05     		.2byte	0x59c
 9151 22f2 88000000 		.4byte	0x88
 9152 22f6 C2100000 		.4byte	.LLST130
 9153 22fa 0E       		.uleb128 0xe
 9154 22fb 62756600 		.ascii	"buf\000"
 9155 22ff 01       		.byte	0x1
 9156 2300 A205     		.2byte	0x5a2
 9157 2302 0D230000 		.4byte	0x230d
 9158 2306 05       		.uleb128 0x5
 9159 2307 03       		.byte	0x3
 9160 2308 68F70100 		.4byte	buf.13230
 9161 230c 00       		.byte	0
 9162 230d 09       		.uleb128 0x9
 9163 230e 76000000 		.4byte	0x76
 9164 2312 1E230000 		.4byte	0x231e
 9165 2316 0B       		.uleb128 0xb
 9166 2317 D8000000 		.4byte	0xd8
 9167 231b 5F01     		.2byte	0x15f
ARM GAS  C:\Users\jesse\AppData\Local\Temp\ccuy2FXa.s 			page 206


 9168 231d 00       		.byte	0
 9169 231e 0C       		.uleb128 0xc
 9170 231f E0070000 		.4byte	.LASF145
 9171 2323 01       		.byte	0x1
 9172 2324 A705     		.2byte	0x5a7
 9173 2326 88000000 		.4byte	0x88
 9174 232a 00000000 		.4byte	.LFB131
 9175 232e 0C000000 		.4byte	.LFE131-.LFB131
 9176 2332 01       		.uleb128 0x1
 9177 2333 9C       		.byte	0x9c
 9178 2334 5B230000 		.4byte	0x235b
 9179 2338 0D       		.uleb128 0xd
 9180 2339 7B080000 		.4byte	.LASF15
 9181 233d 01       		.byte	0x1
 9182 233e A705     		.2byte	0x5a7
 9183 2340 88000000 		.4byte	0x88
 9184 2344 E3100000 		.4byte	.LLST131
 9185 2348 0E       		.uleb128 0xe
 9186 2349 62756600 		.ascii	"buf\000"
 9187 234d 01       		.byte	0x1
 9188 234e AD05     		.2byte	0x5ad
 9189 2350 5B230000 		.4byte	0x235b
 9190 2354 05       		.uleb128 0x5
 9191 2355 03       		.byte	0x3
 9192 2356 C8F80100 		.4byte	buf.13234
 9193 235a 00       		.byte	0
 9194 235b 09       		.uleb128 0x9
 9195 235c 76000000 		.4byte	0x76
 9196 2360 6C230000 		.4byte	0x236c
 9197 2364 0B       		.uleb128 0xb
 9198 2365 D8000000 		.4byte	0xd8
 9199 2369 EF08     		.2byte	0x8ef
 9200 236b 00       		.byte	0
 9201 236c 0C       		.uleb128 0xc
 9202 236d 20020000 		.4byte	.LASF146
 9203 2371 01       		.byte	0x1
 9204 2372 B205     		.2byte	0x5b2
 9205 2374 88000000 		.4byte	0x88
 9206 2378 00000000 		.4byte	.LFB132
 9207 237c 0C000000 		.4byte	.LFE132-.LFB132
 9208 2380 01       		.uleb128 0x1
 9209 2381 9C       		.byte	0x9c
 9210 2382 A9230000 		.4byte	0x23a9
 9211 2386 0D       		.uleb128 0xd
 9212 2387 7B080000 		.4byte	.LASF15
 9213 238b 01       		.byte	0x1
 9214 238c B205     		.2byte	0x5b2
 9215 238e 88000000 		.4byte	0x88
 9216 2392 04110000 		.4byte	.LLST132
 9217 2396 0E       		.uleb128 0xe
 9218 2397 62756600 		.ascii	"buf\000"
 9219 239b 01       		.byte	0x1
 9220 239c B805     		.2byte	0x5b8
 9221 239e A9230000 		.4byte	0x23a9
 9222 23a2 05       		.uleb128 0x5
 9223 23a3 03       		.byte	0x3
 9224 23a4 B8010200 		.4byte	buf.13238
ARM GAS  C:\Users\jesse\AppData\Local\Temp\ccuy2FXa.s 			page 207


 9225 23a8 00       		.byte	0
 9226 23a9 09       		.uleb128 0x9
 9227 23aa 76000000 		.4byte	0x76
 9228 23ae B9230000 		.4byte	0x23b9
 9229 23b2 0A       		.uleb128 0xa
 9230 23b3 D8000000 		.4byte	0xd8
 9231 23b7 97       		.byte	0x97
 9232 23b8 00       		.byte	0
 9233 23b9 0C       		.uleb128 0xc
 9234 23ba 2E020000 		.4byte	.LASF147
 9235 23be 01       		.byte	0x1
 9236 23bf BD05     		.2byte	0x5bd
 9237 23c1 88000000 		.4byte	0x88
 9238 23c5 00000000 		.4byte	.LFB133
 9239 23c9 0C000000 		.4byte	.LFE133-.LFB133
 9240 23cd 01       		.uleb128 0x1
 9241 23ce 9C       		.byte	0x9c
 9242 23cf F6230000 		.4byte	0x23f6
 9243 23d3 0D       		.uleb128 0xd
 9244 23d4 7B080000 		.4byte	.LASF15
 9245 23d8 01       		.byte	0x1
 9246 23d9 BD05     		.2byte	0x5bd
 9247 23db 88000000 		.4byte	0x88
 9248 23df 25110000 		.4byte	.LLST133
 9249 23e3 0E       		.uleb128 0xe
 9250 23e4 62756600 		.ascii	"buf\000"
 9251 23e8 01       		.byte	0x1
 9252 23e9 C305     		.2byte	0x5c3
 9253 23eb F6230000 		.4byte	0x23f6
 9254 23ef 05       		.uleb128 0x5
 9255 23f0 03       		.byte	0x3
 9256 23f1 50020200 		.4byte	buf.13242
 9257 23f5 00       		.byte	0
 9258 23f6 09       		.uleb128 0x9
 9259 23f7 76000000 		.4byte	0x76
 9260 23fb 07240000 		.4byte	0x2407
 9261 23ff 0B       		.uleb128 0xb
 9262 2400 D8000000 		.4byte	0xd8
 9263 2404 2F01     		.2byte	0x12f
 9264 2406 00       		.byte	0
 9265 2407 0C       		.uleb128 0xc
 9266 2408 E1020000 		.4byte	.LASF148
 9267 240c 01       		.byte	0x1
 9268 240d C805     		.2byte	0x5c8
 9269 240f 88000000 		.4byte	0x88
 9270 2413 00000000 		.4byte	.LFB134
 9271 2417 0C000000 		.4byte	.LFE134-.LFB134
 9272 241b 01       		.uleb128 0x1
 9273 241c 9C       		.byte	0x9c
 9274 241d 44240000 		.4byte	0x2444
 9275 2421 0D       		.uleb128 0xd
 9276 2422 7B080000 		.4byte	.LASF15
 9277 2426 01       		.byte	0x1
 9278 2427 C805     		.2byte	0x5c8
 9279 2429 88000000 		.4byte	0x88
 9280 242d 46110000 		.4byte	.LLST134
 9281 2431 0E       		.uleb128 0xe
ARM GAS  C:\Users\jesse\AppData\Local\Temp\ccuy2FXa.s 			page 208


 9282 2432 62756600 		.ascii	"buf\000"
 9283 2436 01       		.byte	0x1
 9284 2437 CE05     		.2byte	0x5ce
 9285 2439 44240000 		.4byte	0x2444
 9286 243d 05       		.uleb128 0x5
 9287 243e 03       		.byte	0x3
 9288 243f 80030200 		.4byte	buf.13246
 9289 2443 00       		.byte	0
 9290 2444 09       		.uleb128 0x9
 9291 2445 76000000 		.4byte	0x76
 9292 2449 55240000 		.4byte	0x2455
 9293 244d 0B       		.uleb128 0xb
 9294 244e D8000000 		.4byte	0xd8
 9295 2452 5F02     		.2byte	0x25f
 9296 2454 00       		.byte	0
 9297 2455 0C       		.uleb128 0xc
 9298 2456 B9010000 		.4byte	.LASF149
 9299 245a 01       		.byte	0x1
 9300 245b D305     		.2byte	0x5d3
 9301 245d 88000000 		.4byte	0x88
 9302 2461 00000000 		.4byte	.LFB135
 9303 2465 0C000000 		.4byte	.LFE135-.LFB135
 9304 2469 01       		.uleb128 0x1
 9305 246a 9C       		.byte	0x9c
 9306 246b 92240000 		.4byte	0x2492
 9307 246f 0D       		.uleb128 0xd
 9308 2470 7B080000 		.4byte	.LASF15
 9309 2474 01       		.byte	0x1
 9310 2475 D305     		.2byte	0x5d3
 9311 2477 88000000 		.4byte	0x88
 9312 247b 67110000 		.4byte	.LLST135
 9313 247f 0E       		.uleb128 0xe
 9314 2480 62756600 		.ascii	"buf\000"
 9315 2484 01       		.byte	0x1
 9316 2485 D905     		.2byte	0x5d9
 9317 2487 79070000 		.4byte	0x779
 9318 248b 05       		.uleb128 0x5
 9319 248c 03       		.byte	0x3
 9320 248d E0050200 		.4byte	buf.13250
 9321 2491 00       		.byte	0
 9322 2492 0C       		.uleb128 0xc
 9323 2493 C8010000 		.4byte	.LASF150
 9324 2497 01       		.byte	0x1
 9325 2498 DE05     		.2byte	0x5de
 9326 249a 88000000 		.4byte	0x88
 9327 249e 00000000 		.4byte	.LFB136
 9328 24a2 0C000000 		.4byte	.LFE136-.LFB136
 9329 24a6 01       		.uleb128 0x1
 9330 24a7 9C       		.byte	0x9c
 9331 24a8 CF240000 		.4byte	0x24cf
 9332 24ac 0D       		.uleb128 0xd
 9333 24ad 7B080000 		.4byte	.LASF15
 9334 24b1 01       		.byte	0x1
 9335 24b2 DE05     		.2byte	0x5de
 9336 24b4 88000000 		.4byte	0x88
 9337 24b8 88110000 		.4byte	.LLST136
 9338 24bc 0E       		.uleb128 0xe
ARM GAS  C:\Users\jesse\AppData\Local\Temp\ccuy2FXa.s 			page 209


 9339 24bd 62756600 		.ascii	"buf\000"
 9340 24c1 01       		.byte	0x1
 9341 24c2 E405     		.2byte	0x5e4
 9342 24c4 19090000 		.4byte	0x919
 9343 24c8 05       		.uleb128 0x5
 9344 24c9 03       		.byte	0x3
 9345 24ca 80060200 		.4byte	buf.13254
 9346 24ce 00       		.byte	0
 9347 24cf 0C       		.uleb128 0xc
 9348 24d0 27030000 		.4byte	.LASF151
 9349 24d4 01       		.byte	0x1
 9350 24d5 E905     		.2byte	0x5e9
 9351 24d7 88000000 		.4byte	0x88
 9352 24db 00000000 		.4byte	.LFB137
 9353 24df 0C000000 		.4byte	.LFE137-.LFB137
 9354 24e3 01       		.uleb128 0x1
 9355 24e4 9C       		.byte	0x9c
 9356 24e5 0C250000 		.4byte	0x250c
 9357 24e9 0D       		.uleb128 0xd
 9358 24ea 7B080000 		.4byte	.LASF15
 9359 24ee 01       		.byte	0x1
 9360 24ef E905     		.2byte	0x5e9
 9361 24f1 88000000 		.4byte	0x88
 9362 24f5 A9110000 		.4byte	.LLST137
 9363 24f9 0E       		.uleb128 0xe
 9364 24fa 62756600 		.ascii	"buf\000"
 9365 24fe 01       		.byte	0x1
 9366 24ff EF05     		.2byte	0x5ef
 9367 2501 0C250000 		.4byte	0x250c
 9368 2505 05       		.uleb128 0x5
 9369 2506 03       		.byte	0x3
 9370 2507 C0070200 		.4byte	buf.13258
 9371 250b 00       		.byte	0
 9372 250c 09       		.uleb128 0x9
 9373 250d 76000000 		.4byte	0x76
 9374 2511 1D250000 		.4byte	0x251d
 9375 2515 0B       		.uleb128 0xb
 9376 2516 D8000000 		.4byte	0xd8
 9377 251a 3F06     		.2byte	0x63f
 9378 251c 00       		.byte	0
 9379 251d 0C       		.uleb128 0xc
 9380 251e 64000000 		.4byte	.LASF152
 9381 2522 01       		.byte	0x1
 9382 2523 F405     		.2byte	0x5f4
 9383 2525 88000000 		.4byte	0x88
 9384 2529 00000000 		.4byte	.LFB138
 9385 252d 0C000000 		.4byte	.LFE138-.LFB138
 9386 2531 01       		.uleb128 0x1
 9387 2532 9C       		.byte	0x9c
 9388 2533 5A250000 		.4byte	0x255a
 9389 2537 0D       		.uleb128 0xd
 9390 2538 7B080000 		.4byte	.LASF15
 9391 253c 01       		.byte	0x1
 9392 253d F405     		.2byte	0x5f4
 9393 253f 88000000 		.4byte	0x88
 9394 2543 CA110000 		.4byte	.LLST138
 9395 2547 0E       		.uleb128 0xe
ARM GAS  C:\Users\jesse\AppData\Local\Temp\ccuy2FXa.s 			page 210


 9396 2548 62756600 		.ascii	"buf\000"
 9397 254c 01       		.byte	0x1
 9398 254d FA05     		.2byte	0x5fa
 9399 254f 79070000 		.4byte	0x779
 9400 2553 05       		.uleb128 0x5
 9401 2554 03       		.byte	0x3
 9402 2555 000E0200 		.4byte	buf.13262
 9403 2559 00       		.byte	0
 9404 255a 0C       		.uleb128 0xc
 9405 255b 73000000 		.4byte	.LASF153
 9406 255f 01       		.byte	0x1
 9407 2560 FF05     		.2byte	0x5ff
 9408 2562 88000000 		.4byte	0x88
 9409 2566 00000000 		.4byte	.LFB139
 9410 256a 0C000000 		.4byte	.LFE139-.LFB139
 9411 256e 01       		.uleb128 0x1
 9412 256f 9C       		.byte	0x9c
 9413 2570 97250000 		.4byte	0x2597
 9414 2574 0D       		.uleb128 0xd
 9415 2575 7B080000 		.4byte	.LASF15
 9416 2579 01       		.byte	0x1
 9417 257a FF05     		.2byte	0x5ff
 9418 257c 88000000 		.4byte	0x88
 9419 2580 EB110000 		.4byte	.LLST139
 9420 2584 0E       		.uleb128 0xe
 9421 2585 62756600 		.ascii	"buf\000"
 9422 2589 01       		.byte	0x1
 9423 258a 0506     		.2byte	0x605
 9424 258c 19090000 		.4byte	0x919
 9425 2590 05       		.uleb128 0x5
 9426 2591 03       		.byte	0x3
 9427 2592 A00E0200 		.4byte	buf.13266
 9428 2596 00       		.byte	0
 9429 2597 0C       		.uleb128 0xc
 9430 2598 FE000000 		.4byte	.LASF154
 9431 259c 01       		.byte	0x1
 9432 259d 0A06     		.2byte	0x60a
 9433 259f 88000000 		.4byte	0x88
 9434 25a3 00000000 		.4byte	.LFB140
 9435 25a7 0C000000 		.4byte	.LFE140-.LFB140
 9436 25ab 01       		.uleb128 0x1
 9437 25ac 9C       		.byte	0x9c
 9438 25ad D4250000 		.4byte	0x25d4
 9439 25b1 0D       		.uleb128 0xd
 9440 25b2 7B080000 		.4byte	.LASF15
 9441 25b6 01       		.byte	0x1
 9442 25b7 0A06     		.2byte	0x60a
 9443 25b9 88000000 		.4byte	0x88
 9444 25bd 0C120000 		.4byte	.LLST140
 9445 25c1 0E       		.uleb128 0xe
 9446 25c2 62756600 		.ascii	"buf\000"
 9447 25c6 01       		.byte	0x1
 9448 25c7 1006     		.2byte	0x610
 9449 25c9 D4250000 		.4byte	0x25d4
 9450 25cd 05       		.uleb128 0x5
 9451 25ce 03       		.byte	0x3
 9452 25cf E00F0200 		.4byte	buf.13270
ARM GAS  C:\Users\jesse\AppData\Local\Temp\ccuy2FXa.s 			page 211


 9453 25d3 00       		.byte	0
 9454 25d4 09       		.uleb128 0x9
 9455 25d5 76000000 		.4byte	0x76
 9456 25d9 E5250000 		.4byte	0x25e5
 9457 25dd 0B       		.uleb128 0xb
 9458 25de D8000000 		.4byte	0xd8
 9459 25e2 9F0A     		.2byte	0xa9f
 9460 25e4 00       		.byte	0
 9461 25e5 0C       		.uleb128 0xc
 9462 25e6 FD020000 		.4byte	.LASF155
 9463 25ea 01       		.byte	0x1
 9464 25eb 1506     		.2byte	0x615
 9465 25ed 88000000 		.4byte	0x88
 9466 25f1 00000000 		.4byte	.LFB141
 9467 25f5 0C000000 		.4byte	.LFE141-.LFB141
 9468 25f9 01       		.uleb128 0x1
 9469 25fa 9C       		.byte	0x9c
 9470 25fb 22260000 		.4byte	0x2622
 9471 25ff 0D       		.uleb128 0xd
 9472 2600 7B080000 		.4byte	.LASF15
 9473 2604 01       		.byte	0x1
 9474 2605 1506     		.2byte	0x615
 9475 2607 88000000 		.4byte	0x88
 9476 260b 2D120000 		.4byte	.LLST141
 9477 260f 0E       		.uleb128 0xe
 9478 2610 62756600 		.ascii	"buf\000"
 9479 2614 01       		.byte	0x1
 9480 2615 1B06     		.2byte	0x61b
 9481 2617 27140000 		.4byte	0x1427
 9482 261b 05       		.uleb128 0x5
 9483 261c 03       		.byte	0x3
 9484 261d 801A0200 		.4byte	buf.13274
 9485 2621 00       		.byte	0
 9486 2622 0C       		.uleb128 0xc
 9487 2623 0B030000 		.4byte	.LASF156
 9488 2627 01       		.byte	0x1
 9489 2628 2006     		.2byte	0x620
 9490 262a 88000000 		.4byte	0x88
 9491 262e 00000000 		.4byte	.LFB142
 9492 2632 0C000000 		.4byte	.LFE142-.LFB142
 9493 2636 01       		.uleb128 0x1
 9494 2637 9C       		.byte	0x9c
 9495 2638 5F260000 		.4byte	0x265f
 9496 263c 0D       		.uleb128 0xd
 9497 263d 7B080000 		.4byte	.LASF15
 9498 2641 01       		.byte	0x1
 9499 2642 2006     		.2byte	0x620
 9500 2644 88000000 		.4byte	0x88
 9501 2648 4E120000 		.4byte	.LLST142
 9502 264c 0E       		.uleb128 0xe
 9503 264d 62756600 		.ascii	"buf\000"
 9504 2651 01       		.byte	0x1
 9505 2652 2606     		.2byte	0x626
 9506 2654 0D230000 		.4byte	0x230d
 9507 2658 05       		.uleb128 0x5
 9508 2659 03       		.byte	0x3
 9509 265a 301B0200 		.4byte	buf.13278
ARM GAS  C:\Users\jesse\AppData\Local\Temp\ccuy2FXa.s 			page 212


 9510 265e 00       		.byte	0
 9511 265f 0C       		.uleb128 0xc
 9512 2660 6D030000 		.4byte	.LASF157
 9513 2664 01       		.byte	0x1
 9514 2665 2B06     		.2byte	0x62b
 9515 2667 88000000 		.4byte	0x88
 9516 266b 00000000 		.4byte	.LFB143
 9517 266f 0C000000 		.4byte	.LFE143-.LFB143
 9518 2673 01       		.uleb128 0x1
 9519 2674 9C       		.byte	0x9c
 9520 2675 9C260000 		.4byte	0x269c
 9521 2679 0D       		.uleb128 0xd
 9522 267a 7B080000 		.4byte	.LASF15
 9523 267e 01       		.byte	0x1
 9524 267f 2B06     		.2byte	0x62b
 9525 2681 88000000 		.4byte	0x88
 9526 2685 6F120000 		.4byte	.LLST143
 9527 2689 0E       		.uleb128 0xe
 9528 268a 62756600 		.ascii	"buf\000"
 9529 268e 01       		.byte	0x1
 9530 268f 3106     		.2byte	0x631
 9531 2691 9C260000 		.4byte	0x269c
 9532 2695 05       		.uleb128 0x5
 9533 2696 03       		.byte	0x3
 9534 2697 901C0200 		.4byte	buf.13282
 9535 269b 00       		.byte	0
 9536 269c 09       		.uleb128 0x9
 9537 269d 76000000 		.4byte	0x76
 9538 26a1 AD260000 		.4byte	0x26ad
 9539 26a5 0B       		.uleb128 0xb
 9540 26a6 D8000000 		.4byte	0xd8
 9541 26aa 2F06     		.2byte	0x62f
 9542 26ac 00       		.byte	0
 9543 26ad 0C       		.uleb128 0xc
 9544 26ae C50A0000 		.4byte	.LASF158
 9545 26b2 01       		.byte	0x1
 9546 26b3 3606     		.2byte	0x636
 9547 26b5 88000000 		.4byte	0x88
 9548 26b9 00000000 		.4byte	.LFB144
 9549 26bd 0C000000 		.4byte	.LFE144-.LFB144
 9550 26c1 01       		.uleb128 0x1
 9551 26c2 9C       		.byte	0x9c
 9552 26c3 EA260000 		.4byte	0x26ea
 9553 26c7 0D       		.uleb128 0xd
 9554 26c8 7B080000 		.4byte	.LASF15
 9555 26cc 01       		.byte	0x1
 9556 26cd 3606     		.2byte	0x636
 9557 26cf 88000000 		.4byte	0x88
 9558 26d3 90120000 		.4byte	.LLST144
 9559 26d7 0E       		.uleb128 0xe
 9560 26d8 62756600 		.ascii	"buf\000"
 9561 26dc 01       		.byte	0x1
 9562 26dd 3C06     		.2byte	0x63c
 9563 26df EA260000 		.4byte	0x26ea
 9564 26e3 05       		.uleb128 0x5
 9565 26e4 03       		.byte	0x3
 9566 26e5 C0220200 		.4byte	buf.13286
ARM GAS  C:\Users\jesse\AppData\Local\Temp\ccuy2FXa.s 			page 213


 9567 26e9 00       		.byte	0
 9568 26ea 09       		.uleb128 0x9
 9569 26eb 76000000 		.4byte	0x76
 9570 26ef FA260000 		.4byte	0x26fa
 9571 26f3 0A       		.uleb128 0xa
 9572 26f4 D8000000 		.4byte	0xd8
 9573 26f8 C7       		.byte	0xc7
 9574 26f9 00       		.byte	0
 9575 26fa 0C       		.uleb128 0xc
 9576 26fb D40A0000 		.4byte	.LASF159
 9577 26ff 01       		.byte	0x1
 9578 2700 4106     		.2byte	0x641
 9579 2702 88000000 		.4byte	0x88
 9580 2706 00000000 		.4byte	.LFB145
 9581 270a 0C000000 		.4byte	.LFE145-.LFB145
 9582 270e 01       		.uleb128 0x1
 9583 270f 9C       		.byte	0x9c
 9584 2710 37270000 		.4byte	0x2737
 9585 2714 0D       		.uleb128 0xd
 9586 2715 7B080000 		.4byte	.LASF15
 9587 2719 01       		.byte	0x1
 9588 271a 4106     		.2byte	0x641
 9589 271c 88000000 		.4byte	0x88
 9590 2720 B1120000 		.4byte	.LLST145
 9591 2724 0E       		.uleb128 0xe
 9592 2725 62756600 		.ascii	"buf\000"
 9593 2729 01       		.byte	0x1
 9594 272a 4706     		.2byte	0x647
 9595 272c 17120000 		.4byte	0x1217
 9596 2730 05       		.uleb128 0x5
 9597 2731 03       		.byte	0x3
 9598 2732 88230200 		.4byte	buf.13290
 9599 2736 00       		.byte	0
 9600 2737 0C       		.uleb128 0xc
 9601 2738 00000000 		.4byte	.LASF160
 9602 273c 01       		.byte	0x1
 9603 273d 4C06     		.2byte	0x64c
 9604 273f 88000000 		.4byte	0x88
 9605 2743 00000000 		.4byte	.LFB146
 9606 2747 0C000000 		.4byte	.LFE146-.LFB146
 9607 274b 01       		.uleb128 0x1
 9608 274c 9C       		.byte	0x9c
 9609 274d 74270000 		.4byte	0x2774
 9610 2751 0D       		.uleb128 0xd
 9611 2752 7B080000 		.4byte	.LASF15
 9612 2756 01       		.byte	0x1
 9613 2757 4C06     		.2byte	0x64c
 9614 2759 88000000 		.4byte	0x88
 9615 275d D2120000 		.4byte	.LLST146
 9616 2761 0E       		.uleb128 0xe
 9617 2762 62756600 		.ascii	"buf\000"
 9618 2766 01       		.byte	0x1
 9619 2767 5206     		.2byte	0x652
 9620 2769 74270000 		.4byte	0x2774
 9621 276d 05       		.uleb128 0x5
 9622 276e 03       		.byte	0x3
 9623 276f 18250200 		.4byte	buf.13294
ARM GAS  C:\Users\jesse\AppData\Local\Temp\ccuy2FXa.s 			page 214


 9624 2773 00       		.byte	0
 9625 2774 09       		.uleb128 0x9
 9626 2775 76000000 		.4byte	0x76
 9627 2779 85270000 		.4byte	0x2785
 9628 277d 0B       		.uleb128 0xb
 9629 277e D8000000 		.4byte	0xd8
 9630 2782 8713     		.2byte	0x1387
 9631 2784 00       		.byte	0
 9632 2785 0C       		.uleb128 0xc
 9633 2786 4E050000 		.4byte	.LASF161
 9634 278a 01       		.byte	0x1
 9635 278b 5706     		.2byte	0x657
 9636 278d 88000000 		.4byte	0x88
 9637 2791 00000000 		.4byte	.LFB147
 9638 2795 0C000000 		.4byte	.LFE147-.LFB147
 9639 2799 01       		.uleb128 0x1
 9640 279a 9C       		.byte	0x9c
 9641 279b C2270000 		.4byte	0x27c2
 9642 279f 0D       		.uleb128 0xd
 9643 27a0 7B080000 		.4byte	.LASF15
 9644 27a4 01       		.byte	0x1
 9645 27a5 5706     		.2byte	0x657
 9646 27a7 88000000 		.4byte	0x88
 9647 27ab F3120000 		.4byte	.LLST147
 9648 27af 0E       		.uleb128 0xe
 9649 27b0 62756600 		.ascii	"buf\000"
 9650 27b4 01       		.byte	0x1
 9651 27b5 5D06     		.2byte	0x65d
 9652 27b7 C2270000 		.4byte	0x27c2
 9653 27bb 05       		.uleb128 0x5
 9654 27bc 03       		.byte	0x3
 9655 27bd A0380200 		.4byte	buf.13298
 9656 27c1 00       		.byte	0
 9657 27c2 09       		.uleb128 0x9
 9658 27c3 76000000 		.4byte	0x76
 9659 27c7 D3270000 		.4byte	0x27d3
 9660 27cb 0B       		.uleb128 0xb
 9661 27cc D8000000 		.4byte	0xd8
 9662 27d0 2701     		.2byte	0x127
 9663 27d2 00       		.byte	0
 9664 27d3 0C       		.uleb128 0xc
 9665 27d4 5D050000 		.4byte	.LASF162
 9666 27d8 01       		.byte	0x1
 9667 27d9 6206     		.2byte	0x662
 9668 27db 88000000 		.4byte	0x88
 9669 27df 00000000 		.4byte	.LFB148
 9670 27e3 0C000000 		.4byte	.LFE148-.LFB148
 9671 27e7 01       		.uleb128 0x1
 9672 27e8 9C       		.byte	0x9c
 9673 27e9 10280000 		.4byte	0x2810
 9674 27ed 0D       		.uleb128 0xd
 9675 27ee 7B080000 		.4byte	.LASF15
 9676 27f2 01       		.byte	0x1
 9677 27f3 6206     		.2byte	0x662
 9678 27f5 88000000 		.4byte	0x88
 9679 27f9 14130000 		.4byte	.LLST148
 9680 27fd 0E       		.uleb128 0xe
ARM GAS  C:\Users\jesse\AppData\Local\Temp\ccuy2FXa.s 			page 215


 9681 27fe 62756600 		.ascii	"buf\000"
 9682 2802 01       		.byte	0x1
 9683 2803 6806     		.2byte	0x668
 9684 2805 10280000 		.4byte	0x2810
 9685 2809 05       		.uleb128 0x5
 9686 280a 03       		.byte	0x3
 9687 280b C8390200 		.4byte	buf.13302
 9688 280f 00       		.byte	0
 9689 2810 09       		.uleb128 0x9
 9690 2811 76000000 		.4byte	0x76
 9691 2815 21280000 		.4byte	0x2821
 9692 2819 0B       		.uleb128 0xb
 9693 281a D8000000 		.4byte	0xd8
 9694 281e 4F02     		.2byte	0x24f
 9695 2820 00       		.byte	0
 9696 2821 0C       		.uleb128 0xc
 9697 2822 E8050000 		.4byte	.LASF163
 9698 2826 01       		.byte	0x1
 9699 2827 6D06     		.2byte	0x66d
 9700 2829 88000000 		.4byte	0x88
 9701 282d 00000000 		.4byte	.LFB149
 9702 2831 0C000000 		.4byte	.LFE149-.LFB149
 9703 2835 01       		.uleb128 0x1
 9704 2836 9C       		.byte	0x9c
 9705 2837 5E280000 		.4byte	0x285e
 9706 283b 0D       		.uleb128 0xd
 9707 283c 7B080000 		.4byte	.LASF15
 9708 2840 01       		.byte	0x1
 9709 2841 6D06     		.2byte	0x66d
 9710 2843 88000000 		.4byte	0x88
 9711 2847 35130000 		.4byte	.LLST149
 9712 284b 0E       		.uleb128 0xe
 9713 284c 62756600 		.ascii	"buf\000"
 9714 2850 01       		.byte	0x1
 9715 2851 7306     		.2byte	0x673
 9716 2853 5E280000 		.4byte	0x285e
 9717 2857 05       		.uleb128 0x5
 9718 2858 03       		.byte	0x3
 9719 2859 183C0200 		.4byte	buf.13306
 9720 285d 00       		.byte	0
 9721 285e 09       		.uleb128 0x9
 9722 285f 76000000 		.4byte	0x76
 9723 2863 6F280000 		.4byte	0x286f
 9724 2867 0B       		.uleb128 0xb
 9725 2868 D8000000 		.4byte	0xd8
 9726 286c 7F12     		.2byte	0x127f
 9727 286e 00       		.byte	0
 9728 286f 0C       		.uleb128 0xc
 9729 2870 B8000000 		.4byte	.LASF164
 9730 2874 01       		.byte	0x1
 9731 2875 7806     		.2byte	0x678
 9732 2877 88000000 		.4byte	0x88
 9733 287b 00000000 		.4byte	.LFB150
 9734 287f 0C000000 		.4byte	.LFE150-.LFB150
 9735 2883 01       		.uleb128 0x1
 9736 2884 9C       		.byte	0x9c
 9737 2885 AC280000 		.4byte	0x28ac
ARM GAS  C:\Users\jesse\AppData\Local\Temp\ccuy2FXa.s 			page 216


 9738 2889 0D       		.uleb128 0xd
 9739 288a 7B080000 		.4byte	.LASF15
 9740 288e 01       		.byte	0x1
 9741 288f 7806     		.2byte	0x678
 9742 2891 88000000 		.4byte	0x88
 9743 2895 56130000 		.4byte	.LLST150
 9744 2899 0E       		.uleb128 0xe
 9745 289a 62756600 		.ascii	"buf\000"
 9746 289e 01       		.byte	0x1
 9747 289f 7E06     		.2byte	0x67e
 9748 28a1 FB040000 		.4byte	0x4fb
 9749 28a5 05       		.uleb128 0x5
 9750 28a6 03       		.byte	0x3
 9751 28a7 984E0200 		.4byte	buf.13310
 9752 28ab 00       		.byte	0
 9753 28ac 0C       		.uleb128 0xc
 9754 28ad C5000000 		.4byte	.LASF165
 9755 28b1 01       		.byte	0x1
 9756 28b2 8306     		.2byte	0x683
 9757 28b4 88000000 		.4byte	0x88
 9758 28b8 00000000 		.4byte	.LFB151
 9759 28bc 0C000000 		.4byte	.LFE151-.LFB151
 9760 28c0 01       		.uleb128 0x1
 9761 28c1 9C       		.byte	0x9c
 9762 28c2 E9280000 		.4byte	0x28e9
 9763 28c6 0D       		.uleb128 0xd
 9764 28c7 7B080000 		.4byte	.LASF15
 9765 28cb 01       		.byte	0x1
 9766 28cc 8306     		.2byte	0x683
 9767 28ce 88000000 		.4byte	0x88
 9768 28d2 77130000 		.4byte	.LLST151
 9769 28d6 0E       		.uleb128 0xe
 9770 28d7 62756600 		.ascii	"buf\000"
 9771 28db 01       		.byte	0x1
 9772 28dc 8906     		.2byte	0x689
 9773 28de C8000000 		.4byte	0xc8
 9774 28e2 05       		.uleb128 0x5
 9775 28e3 03       		.byte	0x3
 9776 28e4 D84E0200 		.4byte	buf.13314
 9777 28e8 00       		.byte	0
 9778 28e9 0C       		.uleb128 0xc
 9779 28ea 65010000 		.4byte	.LASF166
 9780 28ee 01       		.byte	0x1
 9781 28ef 8E06     		.2byte	0x68e
 9782 28f1 88000000 		.4byte	0x88
 9783 28f5 00000000 		.4byte	.LFB152
 9784 28f9 0C000000 		.4byte	.LFE152-.LFB152
 9785 28fd 01       		.uleb128 0x1
 9786 28fe 9C       		.byte	0x9c
 9787 28ff 26290000 		.4byte	0x2926
 9788 2903 0D       		.uleb128 0xd
 9789 2904 7B080000 		.4byte	.LASF15
 9790 2908 01       		.byte	0x1
 9791 2909 8E06     		.2byte	0x68e
 9792 290b 88000000 		.4byte	0x88
 9793 290f 98130000 		.4byte	.LLST152
 9794 2913 0E       		.uleb128 0xe
ARM GAS  C:\Users\jesse\AppData\Local\Temp\ccuy2FXa.s 			page 217


 9795 2914 62756600 		.ascii	"buf\000"
 9796 2918 01       		.byte	0x1
 9797 2919 9406     		.2byte	0x694
 9798 291b FB040000 		.4byte	0x4fb
 9799 291f 05       		.uleb128 0x5
 9800 2920 03       		.byte	0x3
 9801 2921 584F0200 		.4byte	buf.13318
 9802 2925 00       		.byte	0
 9803 2926 0C       		.uleb128 0xc
 9804 2927 6C050000 		.4byte	.LASF167
 9805 292b 01       		.byte	0x1
 9806 292c 9906     		.2byte	0x699
 9807 292e 88000000 		.4byte	0x88
 9808 2932 00000000 		.4byte	.LFB153
 9809 2936 0C000000 		.4byte	.LFE153-.LFB153
 9810 293a 01       		.uleb128 0x1
 9811 293b 9C       		.byte	0x9c
 9812 293c 63290000 		.4byte	0x2963
 9813 2940 0D       		.uleb128 0xd
 9814 2941 7B080000 		.4byte	.LASF15
 9815 2945 01       		.byte	0x1
 9816 2946 9906     		.2byte	0x699
 9817 2948 88000000 		.4byte	0x88
 9818 294c B9130000 		.4byte	.LLST153
 9819 2950 0E       		.uleb128 0xe
 9820 2951 62756600 		.ascii	"buf\000"
 9821 2955 01       		.byte	0x1
 9822 2956 9F06     		.2byte	0x69f
 9823 2958 63290000 		.4byte	0x2963
 9824 295c 05       		.uleb128 0x5
 9825 295d 03       		.byte	0x3
 9826 295e 984F0200 		.4byte	buf.13322
 9827 2962 00       		.byte	0
 9828 2963 09       		.uleb128 0x9
 9829 2964 76000000 		.4byte	0x76
 9830 2968 73290000 		.4byte	0x2973
 9831 296c 0A       		.uleb128 0xa
 9832 296d D8000000 		.4byte	0xd8
 9833 2971 1F       		.byte	0x1f
 9834 2972 00       		.byte	0
 9835 2973 0C       		.uleb128 0xc
 9836 2974 79050000 		.4byte	.LASF168
 9837 2978 01       		.byte	0x1
 9838 2979 A406     		.2byte	0x6a4
 9839 297b 88000000 		.4byte	0x88
 9840 297f 00000000 		.4byte	.LFB154
 9841 2983 0C000000 		.4byte	.LFE154-.LFB154
 9842 2987 01       		.uleb128 0x1
 9843 2988 9C       		.byte	0x9c
 9844 2989 B0290000 		.4byte	0x29b0
 9845 298d 0D       		.uleb128 0xd
 9846 298e 7B080000 		.4byte	.LASF15
 9847 2992 01       		.byte	0x1
 9848 2993 A406     		.2byte	0x6a4
 9849 2995 88000000 		.4byte	0x88
 9850 2999 DA130000 		.4byte	.LLST154
 9851 299d 0E       		.uleb128 0xe
ARM GAS  C:\Users\jesse\AppData\Local\Temp\ccuy2FXa.s 			page 218


 9852 299e 62756600 		.ascii	"buf\000"
 9853 29a2 01       		.byte	0x1
 9854 29a3 AA06     		.2byte	0x6aa
 9855 29a5 FB040000 		.4byte	0x4fb
 9856 29a9 05       		.uleb128 0x5
 9857 29aa 03       		.byte	0x3
 9858 29ab B84F0200 		.4byte	buf.13326
 9859 29af 00       		.byte	0
 9860 29b0 0C       		.uleb128 0xc
 9861 29b1 F7050000 		.4byte	.LASF169
 9862 29b5 01       		.byte	0x1
 9863 29b6 AF06     		.2byte	0x6af
 9864 29b8 88000000 		.4byte	0x88
 9865 29bc 00000000 		.4byte	.LFB155
 9866 29c0 0C000000 		.4byte	.LFE155-.LFB155
 9867 29c4 01       		.uleb128 0x1
 9868 29c5 9C       		.byte	0x9c
 9869 29c6 ED290000 		.4byte	0x29ed
 9870 29ca 0D       		.uleb128 0xd
 9871 29cb 7B080000 		.4byte	.LASF15
 9872 29cf 01       		.byte	0x1
 9873 29d0 AF06     		.2byte	0x6af
 9874 29d2 88000000 		.4byte	0x88
 9875 29d6 FB130000 		.4byte	.LLST155
 9876 29da 0E       		.uleb128 0xe
 9877 29db 62756600 		.ascii	"buf\000"
 9878 29df 01       		.byte	0x1
 9879 29e0 B506     		.2byte	0x6b5
 9880 29e2 63290000 		.4byte	0x2963
 9881 29e6 05       		.uleb128 0x5
 9882 29e7 03       		.byte	0x3
 9883 29e8 F84F0200 		.4byte	buf.13330
 9884 29ec 00       		.byte	0
 9885 29ed 0C       		.uleb128 0xc
 9886 29ee CE050000 		.4byte	.LASF170
 9887 29f2 01       		.byte	0x1
 9888 29f3 BA06     		.2byte	0x6ba
 9889 29f5 88000000 		.4byte	0x88
 9890 29f9 00000000 		.4byte	.LFB156
 9891 29fd 0C000000 		.4byte	.LFE156-.LFB156
 9892 2a01 01       		.uleb128 0x1
 9893 2a02 9C       		.byte	0x9c
 9894 2a03 2A2A0000 		.4byte	0x2a2a
 9895 2a07 0D       		.uleb128 0xd
 9896 2a08 7B080000 		.4byte	.LASF15
 9897 2a0c 01       		.byte	0x1
 9898 2a0d BA06     		.2byte	0x6ba
 9899 2a0f 88000000 		.4byte	0x88
 9900 2a13 1C140000 		.4byte	.LLST156
 9901 2a17 0E       		.uleb128 0xe
 9902 2a18 62756600 		.ascii	"buf\000"
 9903 2a1c 01       		.byte	0x1
 9904 2a1d C006     		.2byte	0x6c0
 9905 2a1f 2A2A0000 		.4byte	0x2a2a
 9906 2a23 05       		.uleb128 0x5
 9907 2a24 03       		.byte	0x3
 9908 2a25 18500200 		.4byte	buf.13334
ARM GAS  C:\Users\jesse\AppData\Local\Temp\ccuy2FXa.s 			page 219


 9909 2a29 00       		.byte	0
 9910 2a2a 09       		.uleb128 0x9
 9911 2a2b 76000000 		.4byte	0x76
 9912 2a2f 3A2A0000 		.4byte	0x2a3a
 9913 2a33 0A       		.uleb128 0xa
 9914 2a34 D8000000 		.4byte	0xd8
 9915 2a38 07       		.byte	0x7
 9916 2a39 00       		.byte	0
 9917 2a3a 0C       		.uleb128 0xc
 9918 2a3b DB050000 		.4byte	.LASF171
 9919 2a3f 01       		.byte	0x1
 9920 2a40 C506     		.2byte	0x6c5
 9921 2a42 88000000 		.4byte	0x88
 9922 2a46 00000000 		.4byte	.LFB157
 9923 2a4a 0C000000 		.4byte	.LFE157-.LFB157
 9924 2a4e 01       		.uleb128 0x1
 9925 2a4f 9C       		.byte	0x9c
 9926 2a50 772A0000 		.4byte	0x2a77
 9927 2a54 0D       		.uleb128 0xd
 9928 2a55 7B080000 		.4byte	.LASF15
 9929 2a59 01       		.byte	0x1
 9930 2a5a C506     		.2byte	0x6c5
 9931 2a5c 88000000 		.4byte	0x88
 9932 2a60 3D140000 		.4byte	.LLST157
 9933 2a64 0E       		.uleb128 0xe
 9934 2a65 62756600 		.ascii	"buf\000"
 9935 2a69 01       		.byte	0x1
 9936 2a6a CB06     		.2byte	0x6cb
 9937 2a6c 772A0000 		.4byte	0x2a77
 9938 2a70 05       		.uleb128 0x5
 9939 2a71 03       		.byte	0x3
 9940 2a72 20500200 		.4byte	buf.13338
 9941 2a76 00       		.byte	0
 9942 2a77 09       		.uleb128 0x9
 9943 2a78 76000000 		.4byte	0x76
 9944 2a7c 872A0000 		.4byte	0x2a87
 9945 2a80 0A       		.uleb128 0xa
 9946 2a81 D8000000 		.4byte	0xd8
 9947 2a85 0F       		.byte	0xf
 9948 2a86 00       		.byte	0
 9949 2a87 0C       		.uleb128 0xc
 9950 2a88 91060000 		.4byte	.LASF172
 9951 2a8c 01       		.byte	0x1
 9952 2a8d D006     		.2byte	0x6d0
 9953 2a8f 88000000 		.4byte	0x88
 9954 2a93 00000000 		.4byte	.LFB158
 9955 2a97 0C000000 		.4byte	.LFE158-.LFB158
 9956 2a9b 01       		.uleb128 0x1
 9957 2a9c 9C       		.byte	0x9c
 9958 2a9d C42A0000 		.4byte	0x2ac4
 9959 2aa1 0D       		.uleb128 0xd
 9960 2aa2 7B080000 		.4byte	.LASF15
 9961 2aa6 01       		.byte	0x1
 9962 2aa7 D006     		.2byte	0x6d0
 9963 2aa9 88000000 		.4byte	0x88
 9964 2aad 5E140000 		.4byte	.LLST158
 9965 2ab1 0E       		.uleb128 0xe
ARM GAS  C:\Users\jesse\AppData\Local\Temp\ccuy2FXa.s 			page 220


 9966 2ab2 62756600 		.ascii	"buf\000"
 9967 2ab6 01       		.byte	0x1
 9968 2ab7 D606     		.2byte	0x6d6
 9969 2ab9 2A2A0000 		.4byte	0x2a2a
 9970 2abd 05       		.uleb128 0x5
 9971 2abe 03       		.byte	0x3
 9972 2abf 30500200 		.4byte	buf.13342
 9973 2ac3 00       		.byte	0
 9974 2ac4 0C       		.uleb128 0xc
 9975 2ac5 D7010000 		.4byte	.LASF173
 9976 2ac9 01       		.byte	0x1
 9977 2aca DB06     		.2byte	0x6db
 9978 2acc 88000000 		.4byte	0x88
 9979 2ad0 00000000 		.4byte	.LFB159
 9980 2ad4 0C000000 		.4byte	.LFE159-.LFB159
 9981 2ad8 01       		.uleb128 0x1
 9982 2ad9 9C       		.byte	0x9c
 9983 2ada 012B0000 		.4byte	0x2b01
 9984 2ade 0D       		.uleb128 0xd
 9985 2adf 7B080000 		.4byte	.LASF15
 9986 2ae3 01       		.byte	0x1
 9987 2ae4 DB06     		.2byte	0x6db
 9988 2ae6 88000000 		.4byte	0x88
 9989 2aea 7F140000 		.4byte	.LLST159
 9990 2aee 0E       		.uleb128 0xe
 9991 2aef 62756600 		.ascii	"buf\000"
 9992 2af3 01       		.byte	0x1
 9993 2af4 E106     		.2byte	0x6e1
 9994 2af6 79070000 		.4byte	0x779
 9995 2afa 05       		.uleb128 0x5
 9996 2afb 03       		.byte	0x3
 9997 2afc 38500200 		.4byte	buf.13346
 9998 2b00 00       		.byte	0
 9999 2b01 0C       		.uleb128 0xc
 10000 2b02 E5010000 		.4byte	.LASF174
 10001 2b06 01       		.byte	0x1
 10002 2b07 E606     		.2byte	0x6e6
 10003 2b09 88000000 		.4byte	0x88
 10004 2b0d 00000000 		.4byte	.LFB160
 10005 2b11 0C000000 		.4byte	.LFE160-.LFB160
 10006 2b15 01       		.uleb128 0x1
 10007 2b16 9C       		.byte	0x9c
 10008 2b17 3E2B0000 		.4byte	0x2b3e
 10009 2b1b 0D       		.uleb128 0xd
 10010 2b1c 7B080000 		.4byte	.LASF15
 10011 2b20 01       		.byte	0x1
 10012 2b21 E606     		.2byte	0x6e6
 10013 2b23 88000000 		.4byte	0x88
 10014 2b27 A0140000 		.4byte	.LLST160
 10015 2b2b 0E       		.uleb128 0xe
 10016 2b2c 62756600 		.ascii	"buf\000"
 10017 2b30 01       		.byte	0x1
 10018 2b31 EC06     		.2byte	0x6ec
 10019 2b33 19090000 		.4byte	0x919
 10020 2b37 05       		.uleb128 0x5
 10021 2b38 03       		.byte	0x3
 10022 2b39 D8500200 		.4byte	buf.13350
ARM GAS  C:\Users\jesse\AppData\Local\Temp\ccuy2FXa.s 			page 221


 10023 2b3d 00       		.byte	0
 10024 2b3e 0C       		.uleb128 0xc
 10025 2b3f 82020000 		.4byte	.LASF175
 10026 2b43 01       		.byte	0x1
 10027 2b44 F106     		.2byte	0x6f1
 10028 2b46 88000000 		.4byte	0x88
 10029 2b4a 00000000 		.4byte	.LFB161
 10030 2b4e 0C000000 		.4byte	.LFE161-.LFB161
 10031 2b52 01       		.uleb128 0x1
 10032 2b53 9C       		.byte	0x9c
 10033 2b54 7B2B0000 		.4byte	0x2b7b
 10034 2b58 0D       		.uleb128 0xd
 10035 2b59 7B080000 		.4byte	.LASF15
 10036 2b5d 01       		.byte	0x1
 10037 2b5e F106     		.2byte	0x6f1
 10038 2b60 88000000 		.4byte	0x88
 10039 2b64 C1140000 		.4byte	.LLST161
 10040 2b68 0E       		.uleb128 0xe
 10041 2b69 62756600 		.ascii	"buf\000"
 10042 2b6d 01       		.byte	0x1
 10043 2b6e F706     		.2byte	0x6f7
 10044 2b70 19090000 		.4byte	0x919
 10045 2b74 05       		.uleb128 0x5
 10046 2b75 03       		.byte	0x3
 10047 2b76 18520200 		.4byte	buf.13354
 10048 2b7a 00       		.byte	0
 10049 2b7b 0C       		.uleb128 0xc
 10050 2b7c D2000000 		.4byte	.LASF176
 10051 2b80 01       		.byte	0x1
 10052 2b81 FC06     		.2byte	0x6fc
 10053 2b83 88000000 		.4byte	0x88
 10054 2b87 00000000 		.4byte	.LFB162
 10055 2b8b 0C000000 		.4byte	.LFE162-.LFB162
 10056 2b8f 01       		.uleb128 0x1
 10057 2b90 9C       		.byte	0x9c
 10058 2b91 B82B0000 		.4byte	0x2bb8
 10059 2b95 0D       		.uleb128 0xd
 10060 2b96 7B080000 		.4byte	.LASF15
 10061 2b9a 01       		.byte	0x1
 10062 2b9b FC06     		.2byte	0x6fc
 10063 2b9d 88000000 		.4byte	0x88
 10064 2ba1 E2140000 		.4byte	.LLST162
 10065 2ba5 0E       		.uleb128 0xe
 10066 2ba6 62756600 		.ascii	"buf\000"
 10067 2baa 01       		.byte	0x1
 10068 2bab 0207     		.2byte	0x702
 10069 2bad 19010000 		.4byte	0x119
 10070 2bb1 05       		.uleb128 0x5
 10071 2bb2 03       		.byte	0x3
 10072 2bb3 58530200 		.4byte	buf.13358
 10073 2bb7 00       		.byte	0
 10074 2bb8 0C       		.uleb128 0xc
 10075 2bb9 B5040000 		.4byte	.LASF177
 10076 2bbd 01       		.byte	0x1
 10077 2bbe 0707     		.2byte	0x707
 10078 2bc0 88000000 		.4byte	0x88
 10079 2bc4 00000000 		.4byte	.LFB163
ARM GAS  C:\Users\jesse\AppData\Local\Temp\ccuy2FXa.s 			page 222


 10080 2bc8 0C000000 		.4byte	.LFE163-.LFB163
 10081 2bcc 01       		.uleb128 0x1
 10082 2bcd 9C       		.byte	0x9c
 10083 2bce F52B0000 		.4byte	0x2bf5
 10084 2bd2 0D       		.uleb128 0xd
 10085 2bd3 7B080000 		.4byte	.LASF15
 10086 2bd7 01       		.byte	0x1
 10087 2bd8 0707     		.2byte	0x707
 10088 2bda 88000000 		.4byte	0x88
 10089 2bde 03150000 		.4byte	.LLST163
 10090 2be2 0E       		.uleb128 0xe
 10091 2be3 62756600 		.ascii	"buf\000"
 10092 2be7 01       		.byte	0x1
 10093 2be8 0D07     		.2byte	0x70d
 10094 2bea 63010000 		.4byte	0x163
 10095 2bee 05       		.uleb128 0x5
 10096 2bef 03       		.byte	0x3
 10097 2bf0 58540200 		.4byte	buf.13362
 10098 2bf4 00       		.byte	0
 10099 2bf5 0C       		.uleb128 0xc
 10100 2bf6 72010000 		.4byte	.LASF178
 10101 2bfa 01       		.byte	0x1
 10102 2bfb 1207     		.2byte	0x712
 10103 2bfd 88000000 		.4byte	0x88
 10104 2c01 00000000 		.4byte	.LFB164
 10105 2c05 0C000000 		.4byte	.LFE164-.LFB164
 10106 2c09 01       		.uleb128 0x1
 10107 2c0a 9C       		.byte	0x9c
 10108 2c0b 322C0000 		.4byte	0x2c32
 10109 2c0f 0D       		.uleb128 0xd
 10110 2c10 7B080000 		.4byte	.LASF15
 10111 2c14 01       		.byte	0x1
 10112 2c15 1207     		.2byte	0x712
 10113 2c17 88000000 		.4byte	0x88
 10114 2c1b 24150000 		.4byte	.LLST164
 10115 2c1f 0E       		.uleb128 0xe
 10116 2c20 62756600 		.ascii	"buf\000"
 10117 2c24 01       		.byte	0x1
 10118 2c25 1807     		.2byte	0x718
 10119 2c27 322C0000 		.4byte	0x2c32
 10120 2c2b 05       		.uleb128 0x5
 10121 2c2c 03       		.byte	0x3
 10122 2c2d 58560200 		.4byte	buf.13366
 10123 2c31 00       		.byte	0
 10124 2c32 09       		.uleb128 0x9
 10125 2c33 76000000 		.4byte	0x76
 10126 2c37 432C0000 		.4byte	0x2c43
 10127 2c3b 0B       		.uleb128 0xb
 10128 2c3c D8000000 		.4byte	0xd8
 10129 2c40 FF06     		.2byte	0x6ff
 10130 2c42 00       		.byte	0
 10131 2c43 0C       		.uleb128 0xc
 10132 2c44 26040000 		.4byte	.LASF179
 10133 2c48 01       		.byte	0x1
 10134 2c49 1D07     		.2byte	0x71d
 10135 2c4b 88000000 		.4byte	0x88
 10136 2c4f 00000000 		.4byte	.LFB165
ARM GAS  C:\Users\jesse\AppData\Local\Temp\ccuy2FXa.s 			page 223


 10137 2c53 0C000000 		.4byte	.LFE165-.LFB165
 10138 2c57 01       		.uleb128 0x1
 10139 2c58 9C       		.byte	0x9c
 10140 2c59 802C0000 		.4byte	0x2c80
 10141 2c5d 0D       		.uleb128 0xd
 10142 2c5e 7B080000 		.4byte	.LASF15
 10143 2c62 01       		.byte	0x1
 10144 2c63 1D07     		.2byte	0x71d
 10145 2c65 88000000 		.4byte	0x88
 10146 2c69 45150000 		.4byte	.LLST165
 10147 2c6d 0E       		.uleb128 0xe
 10148 2c6e 62756600 		.ascii	"buf\000"
 10149 2c72 01       		.byte	0x1
 10150 2c73 2307     		.2byte	0x723
 10151 2c75 CE0B0000 		.4byte	0xbce
 10152 2c79 05       		.uleb128 0x5
 10153 2c7a 03       		.byte	0x3
 10154 2c7b 585D0200 		.4byte	buf.13370
 10155 2c7f 00       		.byte	0
 10156 2c80 0C       		.uleb128 0xc
 10157 2c81 35040000 		.4byte	.LASF180
 10158 2c85 01       		.byte	0x1
 10159 2c86 2807     		.2byte	0x728
 10160 2c88 88000000 		.4byte	0x88
 10161 2c8c 00000000 		.4byte	.LFB166
 10162 2c90 0C000000 		.4byte	.LFE166-.LFB166
 10163 2c94 01       		.uleb128 0x1
 10164 2c95 9C       		.byte	0x9c
 10165 2c96 BD2C0000 		.4byte	0x2cbd
 10166 2c9a 0D       		.uleb128 0xd
 10167 2c9b 7B080000 		.4byte	.LASF15
 10168 2c9f 01       		.byte	0x1
 10169 2ca0 2807     		.2byte	0x728
 10170 2ca2 88000000 		.4byte	0x88
 10171 2ca6 66150000 		.4byte	.LLST166
 10172 2caa 0E       		.uleb128 0xe
 10173 2cab 62756600 		.ascii	"buf\000"
 10174 2caf 01       		.byte	0x1
 10175 2cb0 2E07     		.2byte	0x72e
 10176 2cb2 4A100000 		.4byte	0x104a
 10177 2cb6 05       		.uleb128 0x5
 10178 2cb7 03       		.byte	0x3
 10179 2cb8 D85E0200 		.4byte	buf.13374
 10180 2cbc 00       		.byte	0
 10181 2cbd 0C       		.uleb128 0xc
 10182 2cbe A6040000 		.4byte	.LASF181
 10183 2cc2 01       		.byte	0x1
 10184 2cc3 3307     		.2byte	0x733
 10185 2cc5 88000000 		.4byte	0x88
 10186 2cc9 00000000 		.4byte	.LFB167
 10187 2ccd 0C000000 		.4byte	.LFE167-.LFB167
 10188 2cd1 01       		.uleb128 0x1
 10189 2cd2 9C       		.byte	0x9c
 10190 2cd3 FA2C0000 		.4byte	0x2cfa
 10191 2cd7 0D       		.uleb128 0xd
 10192 2cd8 7B080000 		.4byte	.LASF15
 10193 2cdc 01       		.byte	0x1
ARM GAS  C:\Users\jesse\AppData\Local\Temp\ccuy2FXa.s 			page 224


 10194 2cdd 3307     		.2byte	0x733
 10195 2cdf 88000000 		.4byte	0x88
 10196 2ce3 87150000 		.4byte	.LLST167
 10197 2ce7 0E       		.uleb128 0xe
 10198 2ce8 62756600 		.ascii	"buf\000"
 10199 2cec 01       		.byte	0x1
 10200 2ced 3907     		.2byte	0x739
 10201 2cef FA2C0000 		.4byte	0x2cfa
 10202 2cf3 05       		.uleb128 0x5
 10203 2cf4 03       		.byte	0x3
 10204 2cf5 D8610200 		.4byte	buf.13378
 10205 2cf9 00       		.byte	0
 10206 2cfa 0F       		.uleb128 0xf
 10207 2cfb 76000000 		.4byte	0x76
 10208 2cff 0B       		.uleb128 0xb
 10209 2d00 D8000000 		.4byte	0xd8
 10210 2d04 FF2C     		.2byte	0x2cff
 10211 2d06 00       		.byte	0
 10212 2d07 00       		.byte	0
 10213              		.section	.debug_abbrev,"",%progbits
 10214              	.Ldebug_abbrev0:
 10215 0000 01       		.uleb128 0x1
 10216 0001 11       		.uleb128 0x11
 10217 0002 01       		.byte	0x1
 10218 0003 25       		.uleb128 0x25
 10219 0004 0E       		.uleb128 0xe
 10220 0005 13       		.uleb128 0x13
 10221 0006 0B       		.uleb128 0xb
 10222 0007 03       		.uleb128 0x3
 10223 0008 0E       		.uleb128 0xe
 10224 0009 1B       		.uleb128 0x1b
 10225 000a 0E       		.uleb128 0xe
 10226 000b 55       		.uleb128 0x55
 10227 000c 17       		.uleb128 0x17
 10228 000d 11       		.uleb128 0x11
 10229 000e 01       		.uleb128 0x1
 10230 000f 10       		.uleb128 0x10
 10231 0010 17       		.uleb128 0x17
 10232 0011 00       		.byte	0
 10233 0012 00       		.byte	0
 10234 0013 02       		.uleb128 0x2
 10235 0014 24       		.uleb128 0x24
 10236 0015 00       		.byte	0
 10237 0016 0B       		.uleb128 0xb
 10238 0017 0B       		.uleb128 0xb
 10239 0018 3E       		.uleb128 0x3e
 10240 0019 0B       		.uleb128 0xb
 10241 001a 03       		.uleb128 0x3
 10242 001b 0E       		.uleb128 0xe
 10243 001c 00       		.byte	0
 10244 001d 00       		.byte	0
 10245 001e 03       		.uleb128 0x3
 10246 001f 16       		.uleb128 0x16
 10247 0020 00       		.byte	0
 10248 0021 03       		.uleb128 0x3
 10249 0022 0E       		.uleb128 0xe
 10250 0023 3A       		.uleb128 0x3a
ARM GAS  C:\Users\jesse\AppData\Local\Temp\ccuy2FXa.s 			page 225


 10251 0024 0B       		.uleb128 0xb
 10252 0025 3B       		.uleb128 0x3b
 10253 0026 0B       		.uleb128 0xb
 10254 0027 49       		.uleb128 0x49
 10255 0028 13       		.uleb128 0x13
 10256 0029 00       		.byte	0
 10257 002a 00       		.byte	0
 10258 002b 04       		.uleb128 0x4
 10259 002c 24       		.uleb128 0x24
 10260 002d 00       		.byte	0
 10261 002e 0B       		.uleb128 0xb
 10262 002f 0B       		.uleb128 0xb
 10263 0030 3E       		.uleb128 0x3e
 10264 0031 0B       		.uleb128 0xb
 10265 0032 03       		.uleb128 0x3
 10266 0033 08       		.uleb128 0x8
 10267 0034 00       		.byte	0
 10268 0035 00       		.byte	0
 10269 0036 05       		.uleb128 0x5
 10270 0037 0F       		.uleb128 0xf
 10271 0038 00       		.byte	0
 10272 0039 0B       		.uleb128 0xb
 10273 003a 0B       		.uleb128 0xb
 10274 003b 49       		.uleb128 0x49
 10275 003c 13       		.uleb128 0x13
 10276 003d 00       		.byte	0
 10277 003e 00       		.byte	0
 10278 003f 06       		.uleb128 0x6
 10279 0040 2E       		.uleb128 0x2e
 10280 0041 01       		.byte	0x1
 10281 0042 3F       		.uleb128 0x3f
 10282 0043 19       		.uleb128 0x19
 10283 0044 03       		.uleb128 0x3
 10284 0045 0E       		.uleb128 0xe
 10285 0046 3A       		.uleb128 0x3a
 10286 0047 0B       		.uleb128 0xb
 10287 0048 3B       		.uleb128 0x3b
 10288 0049 0B       		.uleb128 0xb
 10289 004a 27       		.uleb128 0x27
 10290 004b 19       		.uleb128 0x19
 10291 004c 49       		.uleb128 0x49
 10292 004d 13       		.uleb128 0x13
 10293 004e 11       		.uleb128 0x11
 10294 004f 01       		.uleb128 0x1
 10295 0050 12       		.uleb128 0x12
 10296 0051 06       		.uleb128 0x6
 10297 0052 40       		.uleb128 0x40
 10298 0053 18       		.uleb128 0x18
 10299 0054 9742     		.uleb128 0x2117
 10300 0056 19       		.uleb128 0x19
 10301 0057 01       		.uleb128 0x1
 10302 0058 13       		.uleb128 0x13
 10303 0059 00       		.byte	0
 10304 005a 00       		.byte	0
 10305 005b 07       		.uleb128 0x7
 10306 005c 05       		.uleb128 0x5
 10307 005d 00       		.byte	0
ARM GAS  C:\Users\jesse\AppData\Local\Temp\ccuy2FXa.s 			page 226


 10308 005e 03       		.uleb128 0x3
 10309 005f 0E       		.uleb128 0xe
 10310 0060 3A       		.uleb128 0x3a
 10311 0061 0B       		.uleb128 0xb
 10312 0062 3B       		.uleb128 0x3b
 10313 0063 0B       		.uleb128 0xb
 10314 0064 49       		.uleb128 0x49
 10315 0065 13       		.uleb128 0x13
 10316 0066 02       		.uleb128 0x2
 10317 0067 17       		.uleb128 0x17
 10318 0068 00       		.byte	0
 10319 0069 00       		.byte	0
 10320 006a 08       		.uleb128 0x8
 10321 006b 34       		.uleb128 0x34
 10322 006c 00       		.byte	0
 10323 006d 03       		.uleb128 0x3
 10324 006e 08       		.uleb128 0x8
 10325 006f 3A       		.uleb128 0x3a
 10326 0070 0B       		.uleb128 0xb
 10327 0071 3B       		.uleb128 0x3b
 10328 0072 0B       		.uleb128 0xb
 10329 0073 49       		.uleb128 0x49
 10330 0074 13       		.uleb128 0x13
 10331 0075 02       		.uleb128 0x2
 10332 0076 18       		.uleb128 0x18
 10333 0077 00       		.byte	0
 10334 0078 00       		.byte	0
 10335 0079 09       		.uleb128 0x9
 10336 007a 01       		.uleb128 0x1
 10337 007b 01       		.byte	0x1
 10338 007c 49       		.uleb128 0x49
 10339 007d 13       		.uleb128 0x13
 10340 007e 01       		.uleb128 0x1
 10341 007f 13       		.uleb128 0x13
 10342 0080 00       		.byte	0
 10343 0081 00       		.byte	0
 10344 0082 0A       		.uleb128 0xa
 10345 0083 21       		.uleb128 0x21
 10346 0084 00       		.byte	0
 10347 0085 49       		.uleb128 0x49
 10348 0086 13       		.uleb128 0x13
 10349 0087 2F       		.uleb128 0x2f
 10350 0088 0B       		.uleb128 0xb
 10351 0089 00       		.byte	0
 10352 008a 00       		.byte	0
 10353 008b 0B       		.uleb128 0xb
 10354 008c 21       		.uleb128 0x21
 10355 008d 00       		.byte	0
 10356 008e 49       		.uleb128 0x49
 10357 008f 13       		.uleb128 0x13
 10358 0090 2F       		.uleb128 0x2f
 10359 0091 05       		.uleb128 0x5
 10360 0092 00       		.byte	0
 10361 0093 00       		.byte	0
 10362 0094 0C       		.uleb128 0xc
 10363 0095 2E       		.uleb128 0x2e
 10364 0096 01       		.byte	0x1
ARM GAS  C:\Users\jesse\AppData\Local\Temp\ccuy2FXa.s 			page 227


 10365 0097 3F       		.uleb128 0x3f
 10366 0098 19       		.uleb128 0x19
 10367 0099 03       		.uleb128 0x3
 10368 009a 0E       		.uleb128 0xe
 10369 009b 3A       		.uleb128 0x3a
 10370 009c 0B       		.uleb128 0xb
 10371 009d 3B       		.uleb128 0x3b
 10372 009e 05       		.uleb128 0x5
 10373 009f 27       		.uleb128 0x27
 10374 00a0 19       		.uleb128 0x19
 10375 00a1 49       		.uleb128 0x49
 10376 00a2 13       		.uleb128 0x13
 10377 00a3 11       		.uleb128 0x11
 10378 00a4 01       		.uleb128 0x1
 10379 00a5 12       		.uleb128 0x12
 10380 00a6 06       		.uleb128 0x6
 10381 00a7 40       		.uleb128 0x40
 10382 00a8 18       		.uleb128 0x18
 10383 00a9 9742     		.uleb128 0x2117
 10384 00ab 19       		.uleb128 0x19
 10385 00ac 01       		.uleb128 0x1
 10386 00ad 13       		.uleb128 0x13
 10387 00ae 00       		.byte	0
 10388 00af 00       		.byte	0
 10389 00b0 0D       		.uleb128 0xd
 10390 00b1 05       		.uleb128 0x5
 10391 00b2 00       		.byte	0
 10392 00b3 03       		.uleb128 0x3
 10393 00b4 0E       		.uleb128 0xe
 10394 00b5 3A       		.uleb128 0x3a
 10395 00b6 0B       		.uleb128 0xb
 10396 00b7 3B       		.uleb128 0x3b
 10397 00b8 05       		.uleb128 0x5
 10398 00b9 49       		.uleb128 0x49
 10399 00ba 13       		.uleb128 0x13
 10400 00bb 02       		.uleb128 0x2
 10401 00bc 17       		.uleb128 0x17
 10402 00bd 00       		.byte	0
 10403 00be 00       		.byte	0
 10404 00bf 0E       		.uleb128 0xe
 10405 00c0 34       		.uleb128 0x34
 10406 00c1 00       		.byte	0
 10407 00c2 03       		.uleb128 0x3
 10408 00c3 08       		.uleb128 0x8
 10409 00c4 3A       		.uleb128 0x3a
 10410 00c5 0B       		.uleb128 0xb
 10411 00c6 3B       		.uleb128 0x3b
 10412 00c7 05       		.uleb128 0x5
 10413 00c8 49       		.uleb128 0x49
 10414 00c9 13       		.uleb128 0x13
 10415 00ca 02       		.uleb128 0x2
 10416 00cb 18       		.uleb128 0x18
 10417 00cc 00       		.byte	0
 10418 00cd 00       		.byte	0
 10419 00ce 0F       		.uleb128 0xf
 10420 00cf 01       		.uleb128 0x1
 10421 00d0 01       		.byte	0x1
ARM GAS  C:\Users\jesse\AppData\Local\Temp\ccuy2FXa.s 			page 228


 10422 00d1 49       		.uleb128 0x49
 10423 00d2 13       		.uleb128 0x13
 10424 00d3 00       		.byte	0
 10425 00d4 00       		.byte	0
 10426 00d5 00       		.byte	0
 10427              		.section	.debug_loc,"",%progbits
 10428              	.Ldebug_loc0:
 10429              	.LLST0:
 10430 0000 00000000 		.4byte	.LVL0
 10431 0004 06000000 		.4byte	.LVL1
 10432 0008 0100     		.2byte	0x1
 10433 000a 50       		.byte	0x50
 10434 000b 06000000 		.4byte	.LVL1
 10435 000f 0C000000 		.4byte	.LFE0
 10436 0013 0400     		.2byte	0x4
 10437 0015 F3       		.byte	0xf3
 10438 0016 01       		.uleb128 0x1
 10439 0017 50       		.byte	0x50
 10440 0018 9F       		.byte	0x9f
 10441 0019 00000000 		.4byte	0
 10442 001d 00000000 		.4byte	0
 10443              	.LLST1:
 10444 0021 00000000 		.4byte	.LVL2
 10445 0025 06000000 		.4byte	.LVL3
 10446 0029 0100     		.2byte	0x1
 10447 002b 50       		.byte	0x50
 10448 002c 06000000 		.4byte	.LVL3
 10449 0030 0C000000 		.4byte	.LFE1
 10450 0034 0400     		.2byte	0x4
 10451 0036 F3       		.byte	0xf3
 10452 0037 01       		.uleb128 0x1
 10453 0038 50       		.byte	0x50
 10454 0039 9F       		.byte	0x9f
 10455 003a 00000000 		.4byte	0
 10456 003e 00000000 		.4byte	0
 10457              	.LLST2:
 10458 0042 00000000 		.4byte	.LVL4
 10459 0046 06000000 		.4byte	.LVL5
 10460 004a 0100     		.2byte	0x1
 10461 004c 50       		.byte	0x50
 10462 004d 06000000 		.4byte	.LVL5
 10463 0051 0C000000 		.4byte	.LFE2
 10464 0055 0400     		.2byte	0x4
 10465 0057 F3       		.byte	0xf3
 10466 0058 01       		.uleb128 0x1
 10467 0059 50       		.byte	0x50
 10468 005a 9F       		.byte	0x9f
 10469 005b 00000000 		.4byte	0
 10470 005f 00000000 		.4byte	0
 10471              	.LLST3:
 10472 0063 00000000 		.4byte	.LVL6
 10473 0067 06000000 		.4byte	.LVL7
 10474 006b 0100     		.2byte	0x1
 10475 006d 50       		.byte	0x50
 10476 006e 06000000 		.4byte	.LVL7
 10477 0072 0C000000 		.4byte	.LFE3
 10478 0076 0400     		.2byte	0x4
ARM GAS  C:\Users\jesse\AppData\Local\Temp\ccuy2FXa.s 			page 229


 10479 0078 F3       		.byte	0xf3
 10480 0079 01       		.uleb128 0x1
 10481 007a 50       		.byte	0x50
 10482 007b 9F       		.byte	0x9f
 10483 007c 00000000 		.4byte	0
 10484 0080 00000000 		.4byte	0
 10485              	.LLST4:
 10486 0084 00000000 		.4byte	.LVL8
 10487 0088 06000000 		.4byte	.LVL9
 10488 008c 0100     		.2byte	0x1
 10489 008e 50       		.byte	0x50
 10490 008f 06000000 		.4byte	.LVL9
 10491 0093 0C000000 		.4byte	.LFE4
 10492 0097 0400     		.2byte	0x4
 10493 0099 F3       		.byte	0xf3
 10494 009a 01       		.uleb128 0x1
 10495 009b 50       		.byte	0x50
 10496 009c 9F       		.byte	0x9f
 10497 009d 00000000 		.4byte	0
 10498 00a1 00000000 		.4byte	0
 10499              	.LLST5:
 10500 00a5 00000000 		.4byte	.LVL10
 10501 00a9 06000000 		.4byte	.LVL11
 10502 00ad 0100     		.2byte	0x1
 10503 00af 50       		.byte	0x50
 10504 00b0 06000000 		.4byte	.LVL11
 10505 00b4 0C000000 		.4byte	.LFE5
 10506 00b8 0400     		.2byte	0x4
 10507 00ba F3       		.byte	0xf3
 10508 00bb 01       		.uleb128 0x1
 10509 00bc 50       		.byte	0x50
 10510 00bd 9F       		.byte	0x9f
 10511 00be 00000000 		.4byte	0
 10512 00c2 00000000 		.4byte	0
 10513              	.LLST6:
 10514 00c6 00000000 		.4byte	.LVL12
 10515 00ca 06000000 		.4byte	.LVL13
 10516 00ce 0100     		.2byte	0x1
 10517 00d0 50       		.byte	0x50
 10518 00d1 06000000 		.4byte	.LVL13
 10519 00d5 0C000000 		.4byte	.LFE6
 10520 00d9 0400     		.2byte	0x4
 10521 00db F3       		.byte	0xf3
 10522 00dc 01       		.uleb128 0x1
 10523 00dd 50       		.byte	0x50
 10524 00de 9F       		.byte	0x9f
 10525 00df 00000000 		.4byte	0
 10526 00e3 00000000 		.4byte	0
 10527              	.LLST7:
 10528 00e7 00000000 		.4byte	.LVL14
 10529 00eb 06000000 		.4byte	.LVL15
 10530 00ef 0100     		.2byte	0x1
 10531 00f1 50       		.byte	0x50
 10532 00f2 06000000 		.4byte	.LVL15
 10533 00f6 0C000000 		.4byte	.LFE7
 10534 00fa 0400     		.2byte	0x4
 10535 00fc F3       		.byte	0xf3
ARM GAS  C:\Users\jesse\AppData\Local\Temp\ccuy2FXa.s 			page 230


 10536 00fd 01       		.uleb128 0x1
 10537 00fe 50       		.byte	0x50
 10538 00ff 9F       		.byte	0x9f
 10539 0100 00000000 		.4byte	0
 10540 0104 00000000 		.4byte	0
 10541              	.LLST8:
 10542 0108 00000000 		.4byte	.LVL16
 10543 010c 06000000 		.4byte	.LVL17
 10544 0110 0100     		.2byte	0x1
 10545 0112 50       		.byte	0x50
 10546 0113 06000000 		.4byte	.LVL17
 10547 0117 0C000000 		.4byte	.LFE8
 10548 011b 0400     		.2byte	0x4
 10549 011d F3       		.byte	0xf3
 10550 011e 01       		.uleb128 0x1
 10551 011f 50       		.byte	0x50
 10552 0120 9F       		.byte	0x9f
 10553 0121 00000000 		.4byte	0
 10554 0125 00000000 		.4byte	0
 10555              	.LLST9:
 10556 0129 00000000 		.4byte	.LVL18
 10557 012d 06000000 		.4byte	.LVL19
 10558 0131 0100     		.2byte	0x1
 10559 0133 50       		.byte	0x50
 10560 0134 06000000 		.4byte	.LVL19
 10561 0138 0C000000 		.4byte	.LFE9
 10562 013c 0400     		.2byte	0x4
 10563 013e F3       		.byte	0xf3
 10564 013f 01       		.uleb128 0x1
 10565 0140 50       		.byte	0x50
 10566 0141 9F       		.byte	0x9f
 10567 0142 00000000 		.4byte	0
 10568 0146 00000000 		.4byte	0
 10569              	.LLST10:
 10570 014a 00000000 		.4byte	.LVL20
 10571 014e 06000000 		.4byte	.LVL21
 10572 0152 0100     		.2byte	0x1
 10573 0154 50       		.byte	0x50
 10574 0155 06000000 		.4byte	.LVL21
 10575 0159 0C000000 		.4byte	.LFE10
 10576 015d 0400     		.2byte	0x4
 10577 015f F3       		.byte	0xf3
 10578 0160 01       		.uleb128 0x1
 10579 0161 50       		.byte	0x50
 10580 0162 9F       		.byte	0x9f
 10581 0163 00000000 		.4byte	0
 10582 0167 00000000 		.4byte	0
 10583              	.LLST11:
 10584 016b 00000000 		.4byte	.LVL22
 10585 016f 06000000 		.4byte	.LVL23
 10586 0173 0100     		.2byte	0x1
 10587 0175 50       		.byte	0x50
 10588 0176 06000000 		.4byte	.LVL23
 10589 017a 0C000000 		.4byte	.LFE11
 10590 017e 0400     		.2byte	0x4
 10591 0180 F3       		.byte	0xf3
 10592 0181 01       		.uleb128 0x1
ARM GAS  C:\Users\jesse\AppData\Local\Temp\ccuy2FXa.s 			page 231


 10593 0182 50       		.byte	0x50
 10594 0183 9F       		.byte	0x9f
 10595 0184 00000000 		.4byte	0
 10596 0188 00000000 		.4byte	0
 10597              	.LLST12:
 10598 018c 00000000 		.4byte	.LVL24
 10599 0190 06000000 		.4byte	.LVL25
 10600 0194 0100     		.2byte	0x1
 10601 0196 50       		.byte	0x50
 10602 0197 06000000 		.4byte	.LVL25
 10603 019b 0C000000 		.4byte	.LFE12
 10604 019f 0400     		.2byte	0x4
 10605 01a1 F3       		.byte	0xf3
 10606 01a2 01       		.uleb128 0x1
 10607 01a3 50       		.byte	0x50
 10608 01a4 9F       		.byte	0x9f
 10609 01a5 00000000 		.4byte	0
 10610 01a9 00000000 		.4byte	0
 10611              	.LLST13:
 10612 01ad 00000000 		.4byte	.LVL26
 10613 01b1 06000000 		.4byte	.LVL27
 10614 01b5 0100     		.2byte	0x1
 10615 01b7 50       		.byte	0x50
 10616 01b8 06000000 		.4byte	.LVL27
 10617 01bc 0C000000 		.4byte	.LFE13
 10618 01c0 0400     		.2byte	0x4
 10619 01c2 F3       		.byte	0xf3
 10620 01c3 01       		.uleb128 0x1
 10621 01c4 50       		.byte	0x50
 10622 01c5 9F       		.byte	0x9f
 10623 01c6 00000000 		.4byte	0
 10624 01ca 00000000 		.4byte	0
 10625              	.LLST14:
 10626 01ce 00000000 		.4byte	.LVL28
 10627 01d2 06000000 		.4byte	.LVL29
 10628 01d6 0100     		.2byte	0x1
 10629 01d8 50       		.byte	0x50
 10630 01d9 06000000 		.4byte	.LVL29
 10631 01dd 0C000000 		.4byte	.LFE14
 10632 01e1 0400     		.2byte	0x4
 10633 01e3 F3       		.byte	0xf3
 10634 01e4 01       		.uleb128 0x1
 10635 01e5 50       		.byte	0x50
 10636 01e6 9F       		.byte	0x9f
 10637 01e7 00000000 		.4byte	0
 10638 01eb 00000000 		.4byte	0
 10639              	.LLST15:
 10640 01ef 00000000 		.4byte	.LVL30
 10641 01f3 06000000 		.4byte	.LVL31
 10642 01f7 0100     		.2byte	0x1
 10643 01f9 50       		.byte	0x50
 10644 01fa 06000000 		.4byte	.LVL31
 10645 01fe 0C000000 		.4byte	.LFE15
 10646 0202 0400     		.2byte	0x4
 10647 0204 F3       		.byte	0xf3
 10648 0205 01       		.uleb128 0x1
 10649 0206 50       		.byte	0x50
ARM GAS  C:\Users\jesse\AppData\Local\Temp\ccuy2FXa.s 			page 232


 10650 0207 9F       		.byte	0x9f
 10651 0208 00000000 		.4byte	0
 10652 020c 00000000 		.4byte	0
 10653              	.LLST16:
 10654 0210 00000000 		.4byte	.LVL32
 10655 0214 06000000 		.4byte	.LVL33
 10656 0218 0100     		.2byte	0x1
 10657 021a 50       		.byte	0x50
 10658 021b 06000000 		.4byte	.LVL33
 10659 021f 0C000000 		.4byte	.LFE16
 10660 0223 0400     		.2byte	0x4
 10661 0225 F3       		.byte	0xf3
 10662 0226 01       		.uleb128 0x1
 10663 0227 50       		.byte	0x50
 10664 0228 9F       		.byte	0x9f
 10665 0229 00000000 		.4byte	0
 10666 022d 00000000 		.4byte	0
 10667              	.LLST17:
 10668 0231 00000000 		.4byte	.LVL34
 10669 0235 06000000 		.4byte	.LVL35
 10670 0239 0100     		.2byte	0x1
 10671 023b 50       		.byte	0x50
 10672 023c 06000000 		.4byte	.LVL35
 10673 0240 0C000000 		.4byte	.LFE17
 10674 0244 0400     		.2byte	0x4
 10675 0246 F3       		.byte	0xf3
 10676 0247 01       		.uleb128 0x1
 10677 0248 50       		.byte	0x50
 10678 0249 9F       		.byte	0x9f
 10679 024a 00000000 		.4byte	0
 10680 024e 00000000 		.4byte	0
 10681              	.LLST18:
 10682 0252 00000000 		.4byte	.LVL36
 10683 0256 06000000 		.4byte	.LVL37
 10684 025a 0100     		.2byte	0x1
 10685 025c 50       		.byte	0x50
 10686 025d 06000000 		.4byte	.LVL37
 10687 0261 0C000000 		.4byte	.LFE18
 10688 0265 0400     		.2byte	0x4
 10689 0267 F3       		.byte	0xf3
 10690 0268 01       		.uleb128 0x1
 10691 0269 50       		.byte	0x50
 10692 026a 9F       		.byte	0x9f
 10693 026b 00000000 		.4byte	0
 10694 026f 00000000 		.4byte	0
 10695              	.LLST19:
 10696 0273 00000000 		.4byte	.LVL38
 10697 0277 06000000 		.4byte	.LVL39
 10698 027b 0100     		.2byte	0x1
 10699 027d 50       		.byte	0x50
 10700 027e 06000000 		.4byte	.LVL39
 10701 0282 0C000000 		.4byte	.LFE19
 10702 0286 0400     		.2byte	0x4
 10703 0288 F3       		.byte	0xf3
 10704 0289 01       		.uleb128 0x1
 10705 028a 50       		.byte	0x50
 10706 028b 9F       		.byte	0x9f
ARM GAS  C:\Users\jesse\AppData\Local\Temp\ccuy2FXa.s 			page 233


 10707 028c 00000000 		.4byte	0
 10708 0290 00000000 		.4byte	0
 10709              	.LLST20:
 10710 0294 00000000 		.4byte	.LVL40
 10711 0298 06000000 		.4byte	.LVL41
 10712 029c 0100     		.2byte	0x1
 10713 029e 50       		.byte	0x50
 10714 029f 06000000 		.4byte	.LVL41
 10715 02a3 0C000000 		.4byte	.LFE20
 10716 02a7 0400     		.2byte	0x4
 10717 02a9 F3       		.byte	0xf3
 10718 02aa 01       		.uleb128 0x1
 10719 02ab 50       		.byte	0x50
 10720 02ac 9F       		.byte	0x9f
 10721 02ad 00000000 		.4byte	0
 10722 02b1 00000000 		.4byte	0
 10723              	.LLST21:
 10724 02b5 00000000 		.4byte	.LVL42
 10725 02b9 06000000 		.4byte	.LVL43
 10726 02bd 0100     		.2byte	0x1
 10727 02bf 50       		.byte	0x50
 10728 02c0 06000000 		.4byte	.LVL43
 10729 02c4 0C000000 		.4byte	.LFE21
 10730 02c8 0400     		.2byte	0x4
 10731 02ca F3       		.byte	0xf3
 10732 02cb 01       		.uleb128 0x1
 10733 02cc 50       		.byte	0x50
 10734 02cd 9F       		.byte	0x9f
 10735 02ce 00000000 		.4byte	0
 10736 02d2 00000000 		.4byte	0
 10737              	.LLST22:
 10738 02d6 00000000 		.4byte	.LVL44
 10739 02da 06000000 		.4byte	.LVL45
 10740 02de 0100     		.2byte	0x1
 10741 02e0 50       		.byte	0x50
 10742 02e1 06000000 		.4byte	.LVL45
 10743 02e5 0C000000 		.4byte	.LFE22
 10744 02e9 0400     		.2byte	0x4
 10745 02eb F3       		.byte	0xf3
 10746 02ec 01       		.uleb128 0x1
 10747 02ed 50       		.byte	0x50
 10748 02ee 9F       		.byte	0x9f
 10749 02ef 00000000 		.4byte	0
 10750 02f3 00000000 		.4byte	0
 10751              	.LLST23:
 10752 02f7 00000000 		.4byte	.LVL46
 10753 02fb 06000000 		.4byte	.LVL47
 10754 02ff 0100     		.2byte	0x1
 10755 0301 50       		.byte	0x50
 10756 0302 06000000 		.4byte	.LVL47
 10757 0306 0C000000 		.4byte	.LFE23
 10758 030a 0400     		.2byte	0x4
 10759 030c F3       		.byte	0xf3
 10760 030d 01       		.uleb128 0x1
 10761 030e 50       		.byte	0x50
 10762 030f 9F       		.byte	0x9f
 10763 0310 00000000 		.4byte	0
ARM GAS  C:\Users\jesse\AppData\Local\Temp\ccuy2FXa.s 			page 234


 10764 0314 00000000 		.4byte	0
 10765              	.LLST24:
 10766 0318 00000000 		.4byte	.LVL48
 10767 031c 06000000 		.4byte	.LVL49
 10768 0320 0100     		.2byte	0x1
 10769 0322 50       		.byte	0x50
 10770 0323 06000000 		.4byte	.LVL49
 10771 0327 0C000000 		.4byte	.LFE24
 10772 032b 0400     		.2byte	0x4
 10773 032d F3       		.byte	0xf3
 10774 032e 01       		.uleb128 0x1
 10775 032f 50       		.byte	0x50
 10776 0330 9F       		.byte	0x9f
 10777 0331 00000000 		.4byte	0
 10778 0335 00000000 		.4byte	0
 10779              	.LLST25:
 10780 0339 00000000 		.4byte	.LVL50
 10781 033d 06000000 		.4byte	.LVL51
 10782 0341 0100     		.2byte	0x1
 10783 0343 50       		.byte	0x50
 10784 0344 06000000 		.4byte	.LVL51
 10785 0348 0C000000 		.4byte	.LFE25
 10786 034c 0400     		.2byte	0x4
 10787 034e F3       		.byte	0xf3
 10788 034f 01       		.uleb128 0x1
 10789 0350 50       		.byte	0x50
 10790 0351 9F       		.byte	0x9f
 10791 0352 00000000 		.4byte	0
 10792 0356 00000000 		.4byte	0
 10793              	.LLST26:
 10794 035a 00000000 		.4byte	.LVL52
 10795 035e 06000000 		.4byte	.LVL53
 10796 0362 0100     		.2byte	0x1
 10797 0364 50       		.byte	0x50
 10798 0365 06000000 		.4byte	.LVL53
 10799 0369 0C000000 		.4byte	.LFE26
 10800 036d 0400     		.2byte	0x4
 10801 036f F3       		.byte	0xf3
 10802 0370 01       		.uleb128 0x1
 10803 0371 50       		.byte	0x50
 10804 0372 9F       		.byte	0x9f
 10805 0373 00000000 		.4byte	0
 10806 0377 00000000 		.4byte	0
 10807              	.LLST27:
 10808 037b 00000000 		.4byte	.LVL54
 10809 037f 06000000 		.4byte	.LVL55
 10810 0383 0100     		.2byte	0x1
 10811 0385 50       		.byte	0x50
 10812 0386 06000000 		.4byte	.LVL55
 10813 038a 0C000000 		.4byte	.LFE27
 10814 038e 0400     		.2byte	0x4
 10815 0390 F3       		.byte	0xf3
 10816 0391 01       		.uleb128 0x1
 10817 0392 50       		.byte	0x50
 10818 0393 9F       		.byte	0x9f
 10819 0394 00000000 		.4byte	0
 10820 0398 00000000 		.4byte	0
ARM GAS  C:\Users\jesse\AppData\Local\Temp\ccuy2FXa.s 			page 235


 10821              	.LLST28:
 10822 039c 00000000 		.4byte	.LVL56
 10823 03a0 06000000 		.4byte	.LVL57
 10824 03a4 0100     		.2byte	0x1
 10825 03a6 50       		.byte	0x50
 10826 03a7 06000000 		.4byte	.LVL57
 10827 03ab 0C000000 		.4byte	.LFE28
 10828 03af 0400     		.2byte	0x4
 10829 03b1 F3       		.byte	0xf3
 10830 03b2 01       		.uleb128 0x1
 10831 03b3 50       		.byte	0x50
 10832 03b4 9F       		.byte	0x9f
 10833 03b5 00000000 		.4byte	0
 10834 03b9 00000000 		.4byte	0
 10835              	.LLST29:
 10836 03bd 00000000 		.4byte	.LVL58
 10837 03c1 06000000 		.4byte	.LVL59
 10838 03c5 0100     		.2byte	0x1
 10839 03c7 50       		.byte	0x50
 10840 03c8 06000000 		.4byte	.LVL59
 10841 03cc 0C000000 		.4byte	.LFE29
 10842 03d0 0400     		.2byte	0x4
 10843 03d2 F3       		.byte	0xf3
 10844 03d3 01       		.uleb128 0x1
 10845 03d4 50       		.byte	0x50
 10846 03d5 9F       		.byte	0x9f
 10847 03d6 00000000 		.4byte	0
 10848 03da 00000000 		.4byte	0
 10849              	.LLST30:
 10850 03de 00000000 		.4byte	.LVL60
 10851 03e2 06000000 		.4byte	.LVL61
 10852 03e6 0100     		.2byte	0x1
 10853 03e8 50       		.byte	0x50
 10854 03e9 06000000 		.4byte	.LVL61
 10855 03ed 0C000000 		.4byte	.LFE30
 10856 03f1 0400     		.2byte	0x4
 10857 03f3 F3       		.byte	0xf3
 10858 03f4 01       		.uleb128 0x1
 10859 03f5 50       		.byte	0x50
 10860 03f6 9F       		.byte	0x9f
 10861 03f7 00000000 		.4byte	0
 10862 03fb 00000000 		.4byte	0
 10863              	.LLST31:
 10864 03ff 00000000 		.4byte	.LVL62
 10865 0403 06000000 		.4byte	.LVL63
 10866 0407 0100     		.2byte	0x1
 10867 0409 50       		.byte	0x50
 10868 040a 06000000 		.4byte	.LVL63
 10869 040e 0C000000 		.4byte	.LFE31
 10870 0412 0400     		.2byte	0x4
 10871 0414 F3       		.byte	0xf3
 10872 0415 01       		.uleb128 0x1
 10873 0416 50       		.byte	0x50
 10874 0417 9F       		.byte	0x9f
 10875 0418 00000000 		.4byte	0
 10876 041c 00000000 		.4byte	0
 10877              	.LLST32:
ARM GAS  C:\Users\jesse\AppData\Local\Temp\ccuy2FXa.s 			page 236


 10878 0420 00000000 		.4byte	.LVL64
 10879 0424 06000000 		.4byte	.LVL65
 10880 0428 0100     		.2byte	0x1
 10881 042a 50       		.byte	0x50
 10882 042b 06000000 		.4byte	.LVL65
 10883 042f 0C000000 		.4byte	.LFE32
 10884 0433 0400     		.2byte	0x4
 10885 0435 F3       		.byte	0xf3
 10886 0436 01       		.uleb128 0x1
 10887 0437 50       		.byte	0x50
 10888 0438 9F       		.byte	0x9f
 10889 0439 00000000 		.4byte	0
 10890 043d 00000000 		.4byte	0
 10891              	.LLST33:
 10892 0441 00000000 		.4byte	.LVL66
 10893 0445 06000000 		.4byte	.LVL67
 10894 0449 0100     		.2byte	0x1
 10895 044b 50       		.byte	0x50
 10896 044c 06000000 		.4byte	.LVL67
 10897 0450 0C000000 		.4byte	.LFE33
 10898 0454 0400     		.2byte	0x4
 10899 0456 F3       		.byte	0xf3
 10900 0457 01       		.uleb128 0x1
 10901 0458 50       		.byte	0x50
 10902 0459 9F       		.byte	0x9f
 10903 045a 00000000 		.4byte	0
 10904 045e 00000000 		.4byte	0
 10905              	.LLST34:
 10906 0462 00000000 		.4byte	.LVL68
 10907 0466 06000000 		.4byte	.LVL69
 10908 046a 0100     		.2byte	0x1
 10909 046c 50       		.byte	0x50
 10910 046d 06000000 		.4byte	.LVL69
 10911 0471 0C000000 		.4byte	.LFE34
 10912 0475 0400     		.2byte	0x4
 10913 0477 F3       		.byte	0xf3
 10914 0478 01       		.uleb128 0x1
 10915 0479 50       		.byte	0x50
 10916 047a 9F       		.byte	0x9f
 10917 047b 00000000 		.4byte	0
 10918 047f 00000000 		.4byte	0
 10919              	.LLST35:
 10920 0483 00000000 		.4byte	.LVL70
 10921 0487 06000000 		.4byte	.LVL71
 10922 048b 0100     		.2byte	0x1
 10923 048d 50       		.byte	0x50
 10924 048e 06000000 		.4byte	.LVL71
 10925 0492 0C000000 		.4byte	.LFE35
 10926 0496 0400     		.2byte	0x4
 10927 0498 F3       		.byte	0xf3
 10928 0499 01       		.uleb128 0x1
 10929 049a 50       		.byte	0x50
 10930 049b 9F       		.byte	0x9f
 10931 049c 00000000 		.4byte	0
 10932 04a0 00000000 		.4byte	0
 10933              	.LLST36:
 10934 04a4 00000000 		.4byte	.LVL72
ARM GAS  C:\Users\jesse\AppData\Local\Temp\ccuy2FXa.s 			page 237


 10935 04a8 06000000 		.4byte	.LVL73
 10936 04ac 0100     		.2byte	0x1
 10937 04ae 50       		.byte	0x50
 10938 04af 06000000 		.4byte	.LVL73
 10939 04b3 0C000000 		.4byte	.LFE36
 10940 04b7 0400     		.2byte	0x4
 10941 04b9 F3       		.byte	0xf3
 10942 04ba 01       		.uleb128 0x1
 10943 04bb 50       		.byte	0x50
 10944 04bc 9F       		.byte	0x9f
 10945 04bd 00000000 		.4byte	0
 10946 04c1 00000000 		.4byte	0
 10947              	.LLST37:
 10948 04c5 00000000 		.4byte	.LVL74
 10949 04c9 06000000 		.4byte	.LVL75
 10950 04cd 0100     		.2byte	0x1
 10951 04cf 50       		.byte	0x50
 10952 04d0 06000000 		.4byte	.LVL75
 10953 04d4 0C000000 		.4byte	.LFE37
 10954 04d8 0400     		.2byte	0x4
 10955 04da F3       		.byte	0xf3
 10956 04db 01       		.uleb128 0x1
 10957 04dc 50       		.byte	0x50
 10958 04dd 9F       		.byte	0x9f
 10959 04de 00000000 		.4byte	0
 10960 04e2 00000000 		.4byte	0
 10961              	.LLST38:
 10962 04e6 00000000 		.4byte	.LVL76
 10963 04ea 06000000 		.4byte	.LVL77
 10964 04ee 0100     		.2byte	0x1
 10965 04f0 50       		.byte	0x50
 10966 04f1 06000000 		.4byte	.LVL77
 10967 04f5 0C000000 		.4byte	.LFE38
 10968 04f9 0400     		.2byte	0x4
 10969 04fb F3       		.byte	0xf3
 10970 04fc 01       		.uleb128 0x1
 10971 04fd 50       		.byte	0x50
 10972 04fe 9F       		.byte	0x9f
 10973 04ff 00000000 		.4byte	0
 10974 0503 00000000 		.4byte	0
 10975              	.LLST39:
 10976 0507 00000000 		.4byte	.LVL78
 10977 050b 06000000 		.4byte	.LVL79
 10978 050f 0100     		.2byte	0x1
 10979 0511 50       		.byte	0x50
 10980 0512 06000000 		.4byte	.LVL79
 10981 0516 0C000000 		.4byte	.LFE39
 10982 051a 0400     		.2byte	0x4
 10983 051c F3       		.byte	0xf3
 10984 051d 01       		.uleb128 0x1
 10985 051e 50       		.byte	0x50
 10986 051f 9F       		.byte	0x9f
 10987 0520 00000000 		.4byte	0
 10988 0524 00000000 		.4byte	0
 10989              	.LLST40:
 10990 0528 00000000 		.4byte	.LVL80
 10991 052c 06000000 		.4byte	.LVL81
ARM GAS  C:\Users\jesse\AppData\Local\Temp\ccuy2FXa.s 			page 238


 10992 0530 0100     		.2byte	0x1
 10993 0532 50       		.byte	0x50
 10994 0533 06000000 		.4byte	.LVL81
 10995 0537 0C000000 		.4byte	.LFE40
 10996 053b 0400     		.2byte	0x4
 10997 053d F3       		.byte	0xf3
 10998 053e 01       		.uleb128 0x1
 10999 053f 50       		.byte	0x50
 11000 0540 9F       		.byte	0x9f
 11001 0541 00000000 		.4byte	0
 11002 0545 00000000 		.4byte	0
 11003              	.LLST41:
 11004 0549 00000000 		.4byte	.LVL82
 11005 054d 06000000 		.4byte	.LVL83
 11006 0551 0100     		.2byte	0x1
 11007 0553 50       		.byte	0x50
 11008 0554 06000000 		.4byte	.LVL83
 11009 0558 0C000000 		.4byte	.LFE41
 11010 055c 0400     		.2byte	0x4
 11011 055e F3       		.byte	0xf3
 11012 055f 01       		.uleb128 0x1
 11013 0560 50       		.byte	0x50
 11014 0561 9F       		.byte	0x9f
 11015 0562 00000000 		.4byte	0
 11016 0566 00000000 		.4byte	0
 11017              	.LLST42:
 11018 056a 00000000 		.4byte	.LVL84
 11019 056e 06000000 		.4byte	.LVL85
 11020 0572 0100     		.2byte	0x1
 11021 0574 50       		.byte	0x50
 11022 0575 06000000 		.4byte	.LVL85
 11023 0579 0C000000 		.4byte	.LFE42
 11024 057d 0400     		.2byte	0x4
 11025 057f F3       		.byte	0xf3
 11026 0580 01       		.uleb128 0x1
 11027 0581 50       		.byte	0x50
 11028 0582 9F       		.byte	0x9f
 11029 0583 00000000 		.4byte	0
 11030 0587 00000000 		.4byte	0
 11031              	.LLST43:
 11032 058b 00000000 		.4byte	.LVL86
 11033 058f 06000000 		.4byte	.LVL87
 11034 0593 0100     		.2byte	0x1
 11035 0595 50       		.byte	0x50
 11036 0596 06000000 		.4byte	.LVL87
 11037 059a 0C000000 		.4byte	.LFE43
 11038 059e 0400     		.2byte	0x4
 11039 05a0 F3       		.byte	0xf3
 11040 05a1 01       		.uleb128 0x1
 11041 05a2 50       		.byte	0x50
 11042 05a3 9F       		.byte	0x9f
 11043 05a4 00000000 		.4byte	0
 11044 05a8 00000000 		.4byte	0
 11045              	.LLST44:
 11046 05ac 00000000 		.4byte	.LVL88
 11047 05b0 06000000 		.4byte	.LVL89
 11048 05b4 0100     		.2byte	0x1
ARM GAS  C:\Users\jesse\AppData\Local\Temp\ccuy2FXa.s 			page 239


 11049 05b6 50       		.byte	0x50
 11050 05b7 06000000 		.4byte	.LVL89
 11051 05bb 0C000000 		.4byte	.LFE44
 11052 05bf 0400     		.2byte	0x4
 11053 05c1 F3       		.byte	0xf3
 11054 05c2 01       		.uleb128 0x1
 11055 05c3 50       		.byte	0x50
 11056 05c4 9F       		.byte	0x9f
 11057 05c5 00000000 		.4byte	0
 11058 05c9 00000000 		.4byte	0
 11059              	.LLST45:
 11060 05cd 00000000 		.4byte	.LVL90
 11061 05d1 06000000 		.4byte	.LVL91
 11062 05d5 0100     		.2byte	0x1
 11063 05d7 50       		.byte	0x50
 11064 05d8 06000000 		.4byte	.LVL91
 11065 05dc 0C000000 		.4byte	.LFE45
 11066 05e0 0400     		.2byte	0x4
 11067 05e2 F3       		.byte	0xf3
 11068 05e3 01       		.uleb128 0x1
 11069 05e4 50       		.byte	0x50
 11070 05e5 9F       		.byte	0x9f
 11071 05e6 00000000 		.4byte	0
 11072 05ea 00000000 		.4byte	0
 11073              	.LLST46:
 11074 05ee 00000000 		.4byte	.LVL92
 11075 05f2 06000000 		.4byte	.LVL93
 11076 05f6 0100     		.2byte	0x1
 11077 05f8 50       		.byte	0x50
 11078 05f9 06000000 		.4byte	.LVL93
 11079 05fd 0C000000 		.4byte	.LFE46
 11080 0601 0400     		.2byte	0x4
 11081 0603 F3       		.byte	0xf3
 11082 0604 01       		.uleb128 0x1
 11083 0605 50       		.byte	0x50
 11084 0606 9F       		.byte	0x9f
 11085 0607 00000000 		.4byte	0
 11086 060b 00000000 		.4byte	0
 11087              	.LLST47:
 11088 060f 00000000 		.4byte	.LVL94
 11089 0613 06000000 		.4byte	.LVL95
 11090 0617 0100     		.2byte	0x1
 11091 0619 50       		.byte	0x50
 11092 061a 06000000 		.4byte	.LVL95
 11093 061e 0C000000 		.4byte	.LFE47
 11094 0622 0400     		.2byte	0x4
 11095 0624 F3       		.byte	0xf3
 11096 0625 01       		.uleb128 0x1
 11097 0626 50       		.byte	0x50
 11098 0627 9F       		.byte	0x9f
 11099 0628 00000000 		.4byte	0
 11100 062c 00000000 		.4byte	0
 11101              	.LLST48:
 11102 0630 00000000 		.4byte	.LVL96
 11103 0634 06000000 		.4byte	.LVL97
 11104 0638 0100     		.2byte	0x1
 11105 063a 50       		.byte	0x50
ARM GAS  C:\Users\jesse\AppData\Local\Temp\ccuy2FXa.s 			page 240


 11106 063b 06000000 		.4byte	.LVL97
 11107 063f 0C000000 		.4byte	.LFE48
 11108 0643 0400     		.2byte	0x4
 11109 0645 F3       		.byte	0xf3
 11110 0646 01       		.uleb128 0x1
 11111 0647 50       		.byte	0x50
 11112 0648 9F       		.byte	0x9f
 11113 0649 00000000 		.4byte	0
 11114 064d 00000000 		.4byte	0
 11115              	.LLST49:
 11116 0651 00000000 		.4byte	.LVL98
 11117 0655 06000000 		.4byte	.LVL99
 11118 0659 0100     		.2byte	0x1
 11119 065b 50       		.byte	0x50
 11120 065c 06000000 		.4byte	.LVL99
 11121 0660 0C000000 		.4byte	.LFE49
 11122 0664 0400     		.2byte	0x4
 11123 0666 F3       		.byte	0xf3
 11124 0667 01       		.uleb128 0x1
 11125 0668 50       		.byte	0x50
 11126 0669 9F       		.byte	0x9f
 11127 066a 00000000 		.4byte	0
 11128 066e 00000000 		.4byte	0
 11129              	.LLST50:
 11130 0672 00000000 		.4byte	.LVL100
 11131 0676 06000000 		.4byte	.LVL101
 11132 067a 0100     		.2byte	0x1
 11133 067c 50       		.byte	0x50
 11134 067d 06000000 		.4byte	.LVL101
 11135 0681 0C000000 		.4byte	.LFE50
 11136 0685 0400     		.2byte	0x4
 11137 0687 F3       		.byte	0xf3
 11138 0688 01       		.uleb128 0x1
 11139 0689 50       		.byte	0x50
 11140 068a 9F       		.byte	0x9f
 11141 068b 00000000 		.4byte	0
 11142 068f 00000000 		.4byte	0
 11143              	.LLST51:
 11144 0693 00000000 		.4byte	.LVL102
 11145 0697 06000000 		.4byte	.LVL103
 11146 069b 0100     		.2byte	0x1
 11147 069d 50       		.byte	0x50
 11148 069e 06000000 		.4byte	.LVL103
 11149 06a2 0C000000 		.4byte	.LFE51
 11150 06a6 0400     		.2byte	0x4
 11151 06a8 F3       		.byte	0xf3
 11152 06a9 01       		.uleb128 0x1
 11153 06aa 50       		.byte	0x50
 11154 06ab 9F       		.byte	0x9f
 11155 06ac 00000000 		.4byte	0
 11156 06b0 00000000 		.4byte	0
 11157              	.LLST52:
 11158 06b4 00000000 		.4byte	.LVL104
 11159 06b8 06000000 		.4byte	.LVL105
 11160 06bc 0100     		.2byte	0x1
 11161 06be 50       		.byte	0x50
 11162 06bf 06000000 		.4byte	.LVL105
ARM GAS  C:\Users\jesse\AppData\Local\Temp\ccuy2FXa.s 			page 241


 11163 06c3 0C000000 		.4byte	.LFE52
 11164 06c7 0400     		.2byte	0x4
 11165 06c9 F3       		.byte	0xf3
 11166 06ca 01       		.uleb128 0x1
 11167 06cb 50       		.byte	0x50
 11168 06cc 9F       		.byte	0x9f
 11169 06cd 00000000 		.4byte	0
 11170 06d1 00000000 		.4byte	0
 11171              	.LLST53:
 11172 06d5 00000000 		.4byte	.LVL106
 11173 06d9 06000000 		.4byte	.LVL107
 11174 06dd 0100     		.2byte	0x1
 11175 06df 50       		.byte	0x50
 11176 06e0 06000000 		.4byte	.LVL107
 11177 06e4 0C000000 		.4byte	.LFE53
 11178 06e8 0400     		.2byte	0x4
 11179 06ea F3       		.byte	0xf3
 11180 06eb 01       		.uleb128 0x1
 11181 06ec 50       		.byte	0x50
 11182 06ed 9F       		.byte	0x9f
 11183 06ee 00000000 		.4byte	0
 11184 06f2 00000000 		.4byte	0
 11185              	.LLST54:
 11186 06f6 00000000 		.4byte	.LVL108
 11187 06fa 06000000 		.4byte	.LVL109
 11188 06fe 0100     		.2byte	0x1
 11189 0700 50       		.byte	0x50
 11190 0701 06000000 		.4byte	.LVL109
 11191 0705 0C000000 		.4byte	.LFE54
 11192 0709 0400     		.2byte	0x4
 11193 070b F3       		.byte	0xf3
 11194 070c 01       		.uleb128 0x1
 11195 070d 50       		.byte	0x50
 11196 070e 9F       		.byte	0x9f
 11197 070f 00000000 		.4byte	0
 11198 0713 00000000 		.4byte	0
 11199              	.LLST55:
 11200 0717 00000000 		.4byte	.LVL110
 11201 071b 06000000 		.4byte	.LVL111
 11202 071f 0100     		.2byte	0x1
 11203 0721 50       		.byte	0x50
 11204 0722 06000000 		.4byte	.LVL111
 11205 0726 0C000000 		.4byte	.LFE55
 11206 072a 0400     		.2byte	0x4
 11207 072c F3       		.byte	0xf3
 11208 072d 01       		.uleb128 0x1
 11209 072e 50       		.byte	0x50
 11210 072f 9F       		.byte	0x9f
 11211 0730 00000000 		.4byte	0
 11212 0734 00000000 		.4byte	0
 11213              	.LLST56:
 11214 0738 00000000 		.4byte	.LVL112
 11215 073c 06000000 		.4byte	.LVL113
 11216 0740 0100     		.2byte	0x1
 11217 0742 50       		.byte	0x50
 11218 0743 06000000 		.4byte	.LVL113
 11219 0747 0C000000 		.4byte	.LFE56
ARM GAS  C:\Users\jesse\AppData\Local\Temp\ccuy2FXa.s 			page 242


 11220 074b 0400     		.2byte	0x4
 11221 074d F3       		.byte	0xf3
 11222 074e 01       		.uleb128 0x1
 11223 074f 50       		.byte	0x50
 11224 0750 9F       		.byte	0x9f
 11225 0751 00000000 		.4byte	0
 11226 0755 00000000 		.4byte	0
 11227              	.LLST57:
 11228 0759 00000000 		.4byte	.LVL114
 11229 075d 06000000 		.4byte	.LVL115
 11230 0761 0100     		.2byte	0x1
 11231 0763 50       		.byte	0x50
 11232 0764 06000000 		.4byte	.LVL115
 11233 0768 0C000000 		.4byte	.LFE57
 11234 076c 0400     		.2byte	0x4
 11235 076e F3       		.byte	0xf3
 11236 076f 01       		.uleb128 0x1
 11237 0770 50       		.byte	0x50
 11238 0771 9F       		.byte	0x9f
 11239 0772 00000000 		.4byte	0
 11240 0776 00000000 		.4byte	0
 11241              	.LLST58:
 11242 077a 00000000 		.4byte	.LVL116
 11243 077e 06000000 		.4byte	.LVL117
 11244 0782 0100     		.2byte	0x1
 11245 0784 50       		.byte	0x50
 11246 0785 06000000 		.4byte	.LVL117
 11247 0789 0C000000 		.4byte	.LFE58
 11248 078d 0400     		.2byte	0x4
 11249 078f F3       		.byte	0xf3
 11250 0790 01       		.uleb128 0x1
 11251 0791 50       		.byte	0x50
 11252 0792 9F       		.byte	0x9f
 11253 0793 00000000 		.4byte	0
 11254 0797 00000000 		.4byte	0
 11255              	.LLST59:
 11256 079b 00000000 		.4byte	.LVL118
 11257 079f 06000000 		.4byte	.LVL119
 11258 07a3 0100     		.2byte	0x1
 11259 07a5 50       		.byte	0x50
 11260 07a6 06000000 		.4byte	.LVL119
 11261 07aa 0C000000 		.4byte	.LFE59
 11262 07ae 0400     		.2byte	0x4
 11263 07b0 F3       		.byte	0xf3
 11264 07b1 01       		.uleb128 0x1
 11265 07b2 50       		.byte	0x50
 11266 07b3 9F       		.byte	0x9f
 11267 07b4 00000000 		.4byte	0
 11268 07b8 00000000 		.4byte	0
 11269              	.LLST60:
 11270 07bc 00000000 		.4byte	.LVL120
 11271 07c0 06000000 		.4byte	.LVL121
 11272 07c4 0100     		.2byte	0x1
 11273 07c6 50       		.byte	0x50
 11274 07c7 06000000 		.4byte	.LVL121
 11275 07cb 0C000000 		.4byte	.LFE60
 11276 07cf 0400     		.2byte	0x4
ARM GAS  C:\Users\jesse\AppData\Local\Temp\ccuy2FXa.s 			page 243


 11277 07d1 F3       		.byte	0xf3
 11278 07d2 01       		.uleb128 0x1
 11279 07d3 50       		.byte	0x50
 11280 07d4 9F       		.byte	0x9f
 11281 07d5 00000000 		.4byte	0
 11282 07d9 00000000 		.4byte	0
 11283              	.LLST61:
 11284 07dd 00000000 		.4byte	.LVL122
 11285 07e1 06000000 		.4byte	.LVL123
 11286 07e5 0100     		.2byte	0x1
 11287 07e7 50       		.byte	0x50
 11288 07e8 06000000 		.4byte	.LVL123
 11289 07ec 0C000000 		.4byte	.LFE61
 11290 07f0 0400     		.2byte	0x4
 11291 07f2 F3       		.byte	0xf3
 11292 07f3 01       		.uleb128 0x1
 11293 07f4 50       		.byte	0x50
 11294 07f5 9F       		.byte	0x9f
 11295 07f6 00000000 		.4byte	0
 11296 07fa 00000000 		.4byte	0
 11297              	.LLST62:
 11298 07fe 00000000 		.4byte	.LVL124
 11299 0802 06000000 		.4byte	.LVL125
 11300 0806 0100     		.2byte	0x1
 11301 0808 50       		.byte	0x50
 11302 0809 06000000 		.4byte	.LVL125
 11303 080d 0C000000 		.4byte	.LFE62
 11304 0811 0400     		.2byte	0x4
 11305 0813 F3       		.byte	0xf3
 11306 0814 01       		.uleb128 0x1
 11307 0815 50       		.byte	0x50
 11308 0816 9F       		.byte	0x9f
 11309 0817 00000000 		.4byte	0
 11310 081b 00000000 		.4byte	0
 11311              	.LLST63:
 11312 081f 00000000 		.4byte	.LVL126
 11313 0823 06000000 		.4byte	.LVL127
 11314 0827 0100     		.2byte	0x1
 11315 0829 50       		.byte	0x50
 11316 082a 06000000 		.4byte	.LVL127
 11317 082e 0C000000 		.4byte	.LFE63
 11318 0832 0400     		.2byte	0x4
 11319 0834 F3       		.byte	0xf3
 11320 0835 01       		.uleb128 0x1
 11321 0836 50       		.byte	0x50
 11322 0837 9F       		.byte	0x9f
 11323 0838 00000000 		.4byte	0
 11324 083c 00000000 		.4byte	0
 11325              	.LLST64:
 11326 0840 00000000 		.4byte	.LVL128
 11327 0844 06000000 		.4byte	.LVL129
 11328 0848 0100     		.2byte	0x1
 11329 084a 50       		.byte	0x50
 11330 084b 06000000 		.4byte	.LVL129
 11331 084f 0C000000 		.4byte	.LFE64
 11332 0853 0400     		.2byte	0x4
 11333 0855 F3       		.byte	0xf3
ARM GAS  C:\Users\jesse\AppData\Local\Temp\ccuy2FXa.s 			page 244


 11334 0856 01       		.uleb128 0x1
 11335 0857 50       		.byte	0x50
 11336 0858 9F       		.byte	0x9f
 11337 0859 00000000 		.4byte	0
 11338 085d 00000000 		.4byte	0
 11339              	.LLST65:
 11340 0861 00000000 		.4byte	.LVL130
 11341 0865 06000000 		.4byte	.LVL131
 11342 0869 0100     		.2byte	0x1
 11343 086b 50       		.byte	0x50
 11344 086c 06000000 		.4byte	.LVL131
 11345 0870 0C000000 		.4byte	.LFE65
 11346 0874 0400     		.2byte	0x4
 11347 0876 F3       		.byte	0xf3
 11348 0877 01       		.uleb128 0x1
 11349 0878 50       		.byte	0x50
 11350 0879 9F       		.byte	0x9f
 11351 087a 00000000 		.4byte	0
 11352 087e 00000000 		.4byte	0
 11353              	.LLST66:
 11354 0882 00000000 		.4byte	.LVL132
 11355 0886 06000000 		.4byte	.LVL133
 11356 088a 0100     		.2byte	0x1
 11357 088c 50       		.byte	0x50
 11358 088d 06000000 		.4byte	.LVL133
 11359 0891 0C000000 		.4byte	.LFE66
 11360 0895 0400     		.2byte	0x4
 11361 0897 F3       		.byte	0xf3
 11362 0898 01       		.uleb128 0x1
 11363 0899 50       		.byte	0x50
 11364 089a 9F       		.byte	0x9f
 11365 089b 00000000 		.4byte	0
 11366 089f 00000000 		.4byte	0
 11367              	.LLST67:
 11368 08a3 00000000 		.4byte	.LVL134
 11369 08a7 06000000 		.4byte	.LVL135
 11370 08ab 0100     		.2byte	0x1
 11371 08ad 50       		.byte	0x50
 11372 08ae 06000000 		.4byte	.LVL135
 11373 08b2 0C000000 		.4byte	.LFE67
 11374 08b6 0400     		.2byte	0x4
 11375 08b8 F3       		.byte	0xf3
 11376 08b9 01       		.uleb128 0x1
 11377 08ba 50       		.byte	0x50
 11378 08bb 9F       		.byte	0x9f
 11379 08bc 00000000 		.4byte	0
 11380 08c0 00000000 		.4byte	0
 11381              	.LLST68:
 11382 08c4 00000000 		.4byte	.LVL136
 11383 08c8 06000000 		.4byte	.LVL137
 11384 08cc 0100     		.2byte	0x1
 11385 08ce 50       		.byte	0x50
 11386 08cf 06000000 		.4byte	.LVL137
 11387 08d3 0C000000 		.4byte	.LFE68
 11388 08d7 0400     		.2byte	0x4
 11389 08d9 F3       		.byte	0xf3
 11390 08da 01       		.uleb128 0x1
ARM GAS  C:\Users\jesse\AppData\Local\Temp\ccuy2FXa.s 			page 245


 11391 08db 50       		.byte	0x50
 11392 08dc 9F       		.byte	0x9f
 11393 08dd 00000000 		.4byte	0
 11394 08e1 00000000 		.4byte	0
 11395              	.LLST69:
 11396 08e5 00000000 		.4byte	.LVL138
 11397 08e9 06000000 		.4byte	.LVL139
 11398 08ed 0100     		.2byte	0x1
 11399 08ef 50       		.byte	0x50
 11400 08f0 06000000 		.4byte	.LVL139
 11401 08f4 0C000000 		.4byte	.LFE69
 11402 08f8 0400     		.2byte	0x4
 11403 08fa F3       		.byte	0xf3
 11404 08fb 01       		.uleb128 0x1
 11405 08fc 50       		.byte	0x50
 11406 08fd 9F       		.byte	0x9f
 11407 08fe 00000000 		.4byte	0
 11408 0902 00000000 		.4byte	0
 11409              	.LLST70:
 11410 0906 00000000 		.4byte	.LVL140
 11411 090a 06000000 		.4byte	.LVL141
 11412 090e 0100     		.2byte	0x1
 11413 0910 50       		.byte	0x50
 11414 0911 06000000 		.4byte	.LVL141
 11415 0915 0C000000 		.4byte	.LFE70
 11416 0919 0400     		.2byte	0x4
 11417 091b F3       		.byte	0xf3
 11418 091c 01       		.uleb128 0x1
 11419 091d 50       		.byte	0x50
 11420 091e 9F       		.byte	0x9f
 11421 091f 00000000 		.4byte	0
 11422 0923 00000000 		.4byte	0
 11423              	.LLST71:
 11424 0927 00000000 		.4byte	.LVL142
 11425 092b 06000000 		.4byte	.LVL143
 11426 092f 0100     		.2byte	0x1
 11427 0931 50       		.byte	0x50
 11428 0932 06000000 		.4byte	.LVL143
 11429 0936 0C000000 		.4byte	.LFE71
 11430 093a 0400     		.2byte	0x4
 11431 093c F3       		.byte	0xf3
 11432 093d 01       		.uleb128 0x1
 11433 093e 50       		.byte	0x50
 11434 093f 9F       		.byte	0x9f
 11435 0940 00000000 		.4byte	0
 11436 0944 00000000 		.4byte	0
 11437              	.LLST72:
 11438 0948 00000000 		.4byte	.LVL144
 11439 094c 06000000 		.4byte	.LVL145
 11440 0950 0100     		.2byte	0x1
 11441 0952 50       		.byte	0x50
 11442 0953 06000000 		.4byte	.LVL145
 11443 0957 0C000000 		.4byte	.LFE72
 11444 095b 0400     		.2byte	0x4
 11445 095d F3       		.byte	0xf3
 11446 095e 01       		.uleb128 0x1
 11447 095f 50       		.byte	0x50
ARM GAS  C:\Users\jesse\AppData\Local\Temp\ccuy2FXa.s 			page 246


 11448 0960 9F       		.byte	0x9f
 11449 0961 00000000 		.4byte	0
 11450 0965 00000000 		.4byte	0
 11451              	.LLST73:
 11452 0969 00000000 		.4byte	.LVL146
 11453 096d 06000000 		.4byte	.LVL147
 11454 0971 0100     		.2byte	0x1
 11455 0973 50       		.byte	0x50
 11456 0974 06000000 		.4byte	.LVL147
 11457 0978 0C000000 		.4byte	.LFE73
 11458 097c 0400     		.2byte	0x4
 11459 097e F3       		.byte	0xf3
 11460 097f 01       		.uleb128 0x1
 11461 0980 50       		.byte	0x50
 11462 0981 9F       		.byte	0x9f
 11463 0982 00000000 		.4byte	0
 11464 0986 00000000 		.4byte	0
 11465              	.LLST74:
 11466 098a 00000000 		.4byte	.LVL148
 11467 098e 06000000 		.4byte	.LVL149
 11468 0992 0100     		.2byte	0x1
 11469 0994 50       		.byte	0x50
 11470 0995 06000000 		.4byte	.LVL149
 11471 0999 0C000000 		.4byte	.LFE74
 11472 099d 0400     		.2byte	0x4
 11473 099f F3       		.byte	0xf3
 11474 09a0 01       		.uleb128 0x1
 11475 09a1 50       		.byte	0x50
 11476 09a2 9F       		.byte	0x9f
 11477 09a3 00000000 		.4byte	0
 11478 09a7 00000000 		.4byte	0
 11479              	.LLST75:
 11480 09ab 00000000 		.4byte	.LVL150
 11481 09af 06000000 		.4byte	.LVL151
 11482 09b3 0100     		.2byte	0x1
 11483 09b5 50       		.byte	0x50
 11484 09b6 06000000 		.4byte	.LVL151
 11485 09ba 0C000000 		.4byte	.LFE75
 11486 09be 0400     		.2byte	0x4
 11487 09c0 F3       		.byte	0xf3
 11488 09c1 01       		.uleb128 0x1
 11489 09c2 50       		.byte	0x50
 11490 09c3 9F       		.byte	0x9f
 11491 09c4 00000000 		.4byte	0
 11492 09c8 00000000 		.4byte	0
 11493              	.LLST76:
 11494 09cc 00000000 		.4byte	.LVL152
 11495 09d0 06000000 		.4byte	.LVL153
 11496 09d4 0100     		.2byte	0x1
 11497 09d6 50       		.byte	0x50
 11498 09d7 06000000 		.4byte	.LVL153
 11499 09db 0C000000 		.4byte	.LFE76
 11500 09df 0400     		.2byte	0x4
 11501 09e1 F3       		.byte	0xf3
 11502 09e2 01       		.uleb128 0x1
 11503 09e3 50       		.byte	0x50
 11504 09e4 9F       		.byte	0x9f
ARM GAS  C:\Users\jesse\AppData\Local\Temp\ccuy2FXa.s 			page 247


 11505 09e5 00000000 		.4byte	0
 11506 09e9 00000000 		.4byte	0
 11507              	.LLST77:
 11508 09ed 00000000 		.4byte	.LVL154
 11509 09f1 06000000 		.4byte	.LVL155
 11510 09f5 0100     		.2byte	0x1
 11511 09f7 50       		.byte	0x50
 11512 09f8 06000000 		.4byte	.LVL155
 11513 09fc 0C000000 		.4byte	.LFE77
 11514 0a00 0400     		.2byte	0x4
 11515 0a02 F3       		.byte	0xf3
 11516 0a03 01       		.uleb128 0x1
 11517 0a04 50       		.byte	0x50
 11518 0a05 9F       		.byte	0x9f
 11519 0a06 00000000 		.4byte	0
 11520 0a0a 00000000 		.4byte	0
 11521              	.LLST78:
 11522 0a0e 00000000 		.4byte	.LVL156
 11523 0a12 06000000 		.4byte	.LVL157
 11524 0a16 0100     		.2byte	0x1
 11525 0a18 50       		.byte	0x50
 11526 0a19 06000000 		.4byte	.LVL157
 11527 0a1d 0C000000 		.4byte	.LFE78
 11528 0a21 0400     		.2byte	0x4
 11529 0a23 F3       		.byte	0xf3
 11530 0a24 01       		.uleb128 0x1
 11531 0a25 50       		.byte	0x50
 11532 0a26 9F       		.byte	0x9f
 11533 0a27 00000000 		.4byte	0
 11534 0a2b 00000000 		.4byte	0
 11535              	.LLST79:
 11536 0a2f 00000000 		.4byte	.LVL158
 11537 0a33 06000000 		.4byte	.LVL159
 11538 0a37 0100     		.2byte	0x1
 11539 0a39 50       		.byte	0x50
 11540 0a3a 06000000 		.4byte	.LVL159
 11541 0a3e 0C000000 		.4byte	.LFE79
 11542 0a42 0400     		.2byte	0x4
 11543 0a44 F3       		.byte	0xf3
 11544 0a45 01       		.uleb128 0x1
 11545 0a46 50       		.byte	0x50
 11546 0a47 9F       		.byte	0x9f
 11547 0a48 00000000 		.4byte	0
 11548 0a4c 00000000 		.4byte	0
 11549              	.LLST80:
 11550 0a50 00000000 		.4byte	.LVL160
 11551 0a54 06000000 		.4byte	.LVL161
 11552 0a58 0100     		.2byte	0x1
 11553 0a5a 50       		.byte	0x50
 11554 0a5b 06000000 		.4byte	.LVL161
 11555 0a5f 0C000000 		.4byte	.LFE80
 11556 0a63 0400     		.2byte	0x4
 11557 0a65 F3       		.byte	0xf3
 11558 0a66 01       		.uleb128 0x1
 11559 0a67 50       		.byte	0x50
 11560 0a68 9F       		.byte	0x9f
 11561 0a69 00000000 		.4byte	0
ARM GAS  C:\Users\jesse\AppData\Local\Temp\ccuy2FXa.s 			page 248


 11562 0a6d 00000000 		.4byte	0
 11563              	.LLST81:
 11564 0a71 00000000 		.4byte	.LVL162
 11565 0a75 06000000 		.4byte	.LVL163
 11566 0a79 0100     		.2byte	0x1
 11567 0a7b 50       		.byte	0x50
 11568 0a7c 06000000 		.4byte	.LVL163
 11569 0a80 0C000000 		.4byte	.LFE81
 11570 0a84 0400     		.2byte	0x4
 11571 0a86 F3       		.byte	0xf3
 11572 0a87 01       		.uleb128 0x1
 11573 0a88 50       		.byte	0x50
 11574 0a89 9F       		.byte	0x9f
 11575 0a8a 00000000 		.4byte	0
 11576 0a8e 00000000 		.4byte	0
 11577              	.LLST82:
 11578 0a92 00000000 		.4byte	.LVL164
 11579 0a96 06000000 		.4byte	.LVL165
 11580 0a9a 0100     		.2byte	0x1
 11581 0a9c 50       		.byte	0x50
 11582 0a9d 06000000 		.4byte	.LVL165
 11583 0aa1 0C000000 		.4byte	.LFE82
 11584 0aa5 0400     		.2byte	0x4
 11585 0aa7 F3       		.byte	0xf3
 11586 0aa8 01       		.uleb128 0x1
 11587 0aa9 50       		.byte	0x50
 11588 0aaa 9F       		.byte	0x9f
 11589 0aab 00000000 		.4byte	0
 11590 0aaf 00000000 		.4byte	0
 11591              	.LLST83:
 11592 0ab3 00000000 		.4byte	.LVL166
 11593 0ab7 06000000 		.4byte	.LVL167
 11594 0abb 0100     		.2byte	0x1
 11595 0abd 50       		.byte	0x50
 11596 0abe 06000000 		.4byte	.LVL167
 11597 0ac2 0C000000 		.4byte	.LFE83
 11598 0ac6 0400     		.2byte	0x4
 11599 0ac8 F3       		.byte	0xf3
 11600 0ac9 01       		.uleb128 0x1
 11601 0aca 50       		.byte	0x50
 11602 0acb 9F       		.byte	0x9f
 11603 0acc 00000000 		.4byte	0
 11604 0ad0 00000000 		.4byte	0
 11605              	.LLST84:
 11606 0ad4 00000000 		.4byte	.LVL168
 11607 0ad8 06000000 		.4byte	.LVL169
 11608 0adc 0100     		.2byte	0x1
 11609 0ade 50       		.byte	0x50
 11610 0adf 06000000 		.4byte	.LVL169
 11611 0ae3 0C000000 		.4byte	.LFE84
 11612 0ae7 0400     		.2byte	0x4
 11613 0ae9 F3       		.byte	0xf3
 11614 0aea 01       		.uleb128 0x1
 11615 0aeb 50       		.byte	0x50
 11616 0aec 9F       		.byte	0x9f
 11617 0aed 00000000 		.4byte	0
 11618 0af1 00000000 		.4byte	0
ARM GAS  C:\Users\jesse\AppData\Local\Temp\ccuy2FXa.s 			page 249


 11619              	.LLST85:
 11620 0af5 00000000 		.4byte	.LVL170
 11621 0af9 06000000 		.4byte	.LVL171
 11622 0afd 0100     		.2byte	0x1
 11623 0aff 50       		.byte	0x50
 11624 0b00 06000000 		.4byte	.LVL171
 11625 0b04 0C000000 		.4byte	.LFE85
 11626 0b08 0400     		.2byte	0x4
 11627 0b0a F3       		.byte	0xf3
 11628 0b0b 01       		.uleb128 0x1
 11629 0b0c 50       		.byte	0x50
 11630 0b0d 9F       		.byte	0x9f
 11631 0b0e 00000000 		.4byte	0
 11632 0b12 00000000 		.4byte	0
 11633              	.LLST86:
 11634 0b16 00000000 		.4byte	.LVL172
 11635 0b1a 06000000 		.4byte	.LVL173
 11636 0b1e 0100     		.2byte	0x1
 11637 0b20 50       		.byte	0x50
 11638 0b21 06000000 		.4byte	.LVL173
 11639 0b25 0C000000 		.4byte	.LFE86
 11640 0b29 0400     		.2byte	0x4
 11641 0b2b F3       		.byte	0xf3
 11642 0b2c 01       		.uleb128 0x1
 11643 0b2d 50       		.byte	0x50
 11644 0b2e 9F       		.byte	0x9f
 11645 0b2f 00000000 		.4byte	0
 11646 0b33 00000000 		.4byte	0
 11647              	.LLST87:
 11648 0b37 00000000 		.4byte	.LVL174
 11649 0b3b 06000000 		.4byte	.LVL175
 11650 0b3f 0100     		.2byte	0x1
 11651 0b41 50       		.byte	0x50
 11652 0b42 06000000 		.4byte	.LVL175
 11653 0b46 0C000000 		.4byte	.LFE87
 11654 0b4a 0400     		.2byte	0x4
 11655 0b4c F3       		.byte	0xf3
 11656 0b4d 01       		.uleb128 0x1
 11657 0b4e 50       		.byte	0x50
 11658 0b4f 9F       		.byte	0x9f
 11659 0b50 00000000 		.4byte	0
 11660 0b54 00000000 		.4byte	0
 11661              	.LLST88:
 11662 0b58 00000000 		.4byte	.LVL176
 11663 0b5c 06000000 		.4byte	.LVL177
 11664 0b60 0100     		.2byte	0x1
 11665 0b62 50       		.byte	0x50
 11666 0b63 06000000 		.4byte	.LVL177
 11667 0b67 0C000000 		.4byte	.LFE88
 11668 0b6b 0400     		.2byte	0x4
 11669 0b6d F3       		.byte	0xf3
 11670 0b6e 01       		.uleb128 0x1
 11671 0b6f 50       		.byte	0x50
 11672 0b70 9F       		.byte	0x9f
 11673 0b71 00000000 		.4byte	0
 11674 0b75 00000000 		.4byte	0
 11675              	.LLST89:
ARM GAS  C:\Users\jesse\AppData\Local\Temp\ccuy2FXa.s 			page 250


 11676 0b79 00000000 		.4byte	.LVL178
 11677 0b7d 06000000 		.4byte	.LVL179
 11678 0b81 0100     		.2byte	0x1
 11679 0b83 50       		.byte	0x50
 11680 0b84 06000000 		.4byte	.LVL179
 11681 0b88 0C000000 		.4byte	.LFE89
 11682 0b8c 0400     		.2byte	0x4
 11683 0b8e F3       		.byte	0xf3
 11684 0b8f 01       		.uleb128 0x1
 11685 0b90 50       		.byte	0x50
 11686 0b91 9F       		.byte	0x9f
 11687 0b92 00000000 		.4byte	0
 11688 0b96 00000000 		.4byte	0
 11689              	.LLST90:
 11690 0b9a 00000000 		.4byte	.LVL180
 11691 0b9e 06000000 		.4byte	.LVL181
 11692 0ba2 0100     		.2byte	0x1
 11693 0ba4 50       		.byte	0x50
 11694 0ba5 06000000 		.4byte	.LVL181
 11695 0ba9 0C000000 		.4byte	.LFE90
 11696 0bad 0400     		.2byte	0x4
 11697 0baf F3       		.byte	0xf3
 11698 0bb0 01       		.uleb128 0x1
 11699 0bb1 50       		.byte	0x50
 11700 0bb2 9F       		.byte	0x9f
 11701 0bb3 00000000 		.4byte	0
 11702 0bb7 00000000 		.4byte	0
 11703              	.LLST91:
 11704 0bbb 00000000 		.4byte	.LVL182
 11705 0bbf 06000000 		.4byte	.LVL183
 11706 0bc3 0100     		.2byte	0x1
 11707 0bc5 50       		.byte	0x50
 11708 0bc6 06000000 		.4byte	.LVL183
 11709 0bca 0C000000 		.4byte	.LFE91
 11710 0bce 0400     		.2byte	0x4
 11711 0bd0 F3       		.byte	0xf3
 11712 0bd1 01       		.uleb128 0x1
 11713 0bd2 50       		.byte	0x50
 11714 0bd3 9F       		.byte	0x9f
 11715 0bd4 00000000 		.4byte	0
 11716 0bd8 00000000 		.4byte	0
 11717              	.LLST92:
 11718 0bdc 00000000 		.4byte	.LVL184
 11719 0be0 06000000 		.4byte	.LVL185
 11720 0be4 0100     		.2byte	0x1
 11721 0be6 50       		.byte	0x50
 11722 0be7 06000000 		.4byte	.LVL185
 11723 0beb 0C000000 		.4byte	.LFE92
 11724 0bef 0400     		.2byte	0x4
 11725 0bf1 F3       		.byte	0xf3
 11726 0bf2 01       		.uleb128 0x1
 11727 0bf3 50       		.byte	0x50
 11728 0bf4 9F       		.byte	0x9f
 11729 0bf5 00000000 		.4byte	0
 11730 0bf9 00000000 		.4byte	0
 11731              	.LLST93:
 11732 0bfd 00000000 		.4byte	.LVL186
ARM GAS  C:\Users\jesse\AppData\Local\Temp\ccuy2FXa.s 			page 251


 11733 0c01 06000000 		.4byte	.LVL187
 11734 0c05 0100     		.2byte	0x1
 11735 0c07 50       		.byte	0x50
 11736 0c08 06000000 		.4byte	.LVL187
 11737 0c0c 0C000000 		.4byte	.LFE93
 11738 0c10 0400     		.2byte	0x4
 11739 0c12 F3       		.byte	0xf3
 11740 0c13 01       		.uleb128 0x1
 11741 0c14 50       		.byte	0x50
 11742 0c15 9F       		.byte	0x9f
 11743 0c16 00000000 		.4byte	0
 11744 0c1a 00000000 		.4byte	0
 11745              	.LLST94:
 11746 0c1e 00000000 		.4byte	.LVL188
 11747 0c22 06000000 		.4byte	.LVL189
 11748 0c26 0100     		.2byte	0x1
 11749 0c28 50       		.byte	0x50
 11750 0c29 06000000 		.4byte	.LVL189
 11751 0c2d 0C000000 		.4byte	.LFE94
 11752 0c31 0400     		.2byte	0x4
 11753 0c33 F3       		.byte	0xf3
 11754 0c34 01       		.uleb128 0x1
 11755 0c35 50       		.byte	0x50
 11756 0c36 9F       		.byte	0x9f
 11757 0c37 00000000 		.4byte	0
 11758 0c3b 00000000 		.4byte	0
 11759              	.LLST95:
 11760 0c3f 00000000 		.4byte	.LVL190
 11761 0c43 06000000 		.4byte	.LVL191
 11762 0c47 0100     		.2byte	0x1
 11763 0c49 50       		.byte	0x50
 11764 0c4a 06000000 		.4byte	.LVL191
 11765 0c4e 0C000000 		.4byte	.LFE95
 11766 0c52 0400     		.2byte	0x4
 11767 0c54 F3       		.byte	0xf3
 11768 0c55 01       		.uleb128 0x1
 11769 0c56 50       		.byte	0x50
 11770 0c57 9F       		.byte	0x9f
 11771 0c58 00000000 		.4byte	0
 11772 0c5c 00000000 		.4byte	0
 11773              	.LLST96:
 11774 0c60 00000000 		.4byte	.LVL192
 11775 0c64 06000000 		.4byte	.LVL193
 11776 0c68 0100     		.2byte	0x1
 11777 0c6a 50       		.byte	0x50
 11778 0c6b 06000000 		.4byte	.LVL193
 11779 0c6f 0C000000 		.4byte	.LFE96
 11780 0c73 0400     		.2byte	0x4
 11781 0c75 F3       		.byte	0xf3
 11782 0c76 01       		.uleb128 0x1
 11783 0c77 50       		.byte	0x50
 11784 0c78 9F       		.byte	0x9f
 11785 0c79 00000000 		.4byte	0
 11786 0c7d 00000000 		.4byte	0
 11787              	.LLST97:
 11788 0c81 00000000 		.4byte	.LVL194
 11789 0c85 06000000 		.4byte	.LVL195
ARM GAS  C:\Users\jesse\AppData\Local\Temp\ccuy2FXa.s 			page 252


 11790 0c89 0100     		.2byte	0x1
 11791 0c8b 50       		.byte	0x50
 11792 0c8c 06000000 		.4byte	.LVL195
 11793 0c90 0C000000 		.4byte	.LFE97
 11794 0c94 0400     		.2byte	0x4
 11795 0c96 F3       		.byte	0xf3
 11796 0c97 01       		.uleb128 0x1
 11797 0c98 50       		.byte	0x50
 11798 0c99 9F       		.byte	0x9f
 11799 0c9a 00000000 		.4byte	0
 11800 0c9e 00000000 		.4byte	0
 11801              	.LLST98:
 11802 0ca2 00000000 		.4byte	.LVL196
 11803 0ca6 06000000 		.4byte	.LVL197
 11804 0caa 0100     		.2byte	0x1
 11805 0cac 50       		.byte	0x50
 11806 0cad 06000000 		.4byte	.LVL197
 11807 0cb1 0C000000 		.4byte	.LFE98
 11808 0cb5 0400     		.2byte	0x4
 11809 0cb7 F3       		.byte	0xf3
 11810 0cb8 01       		.uleb128 0x1
 11811 0cb9 50       		.byte	0x50
 11812 0cba 9F       		.byte	0x9f
 11813 0cbb 00000000 		.4byte	0
 11814 0cbf 00000000 		.4byte	0
 11815              	.LLST99:
 11816 0cc3 00000000 		.4byte	.LVL198
 11817 0cc7 06000000 		.4byte	.LVL199
 11818 0ccb 0100     		.2byte	0x1
 11819 0ccd 50       		.byte	0x50
 11820 0cce 06000000 		.4byte	.LVL199
 11821 0cd2 0C000000 		.4byte	.LFE99
 11822 0cd6 0400     		.2byte	0x4
 11823 0cd8 F3       		.byte	0xf3
 11824 0cd9 01       		.uleb128 0x1
 11825 0cda 50       		.byte	0x50
 11826 0cdb 9F       		.byte	0x9f
 11827 0cdc 00000000 		.4byte	0
 11828 0ce0 00000000 		.4byte	0
 11829              	.LLST100:
 11830 0ce4 00000000 		.4byte	.LVL200
 11831 0ce8 06000000 		.4byte	.LVL201
 11832 0cec 0100     		.2byte	0x1
 11833 0cee 50       		.byte	0x50
 11834 0cef 06000000 		.4byte	.LVL201
 11835 0cf3 0C000000 		.4byte	.LFE100
 11836 0cf7 0400     		.2byte	0x4
 11837 0cf9 F3       		.byte	0xf3
 11838 0cfa 01       		.uleb128 0x1
 11839 0cfb 50       		.byte	0x50
 11840 0cfc 9F       		.byte	0x9f
 11841 0cfd 00000000 		.4byte	0
 11842 0d01 00000000 		.4byte	0
 11843              	.LLST101:
 11844 0d05 00000000 		.4byte	.LVL202
 11845 0d09 06000000 		.4byte	.LVL203
 11846 0d0d 0100     		.2byte	0x1
ARM GAS  C:\Users\jesse\AppData\Local\Temp\ccuy2FXa.s 			page 253


 11847 0d0f 50       		.byte	0x50
 11848 0d10 06000000 		.4byte	.LVL203
 11849 0d14 0C000000 		.4byte	.LFE101
 11850 0d18 0400     		.2byte	0x4
 11851 0d1a F3       		.byte	0xf3
 11852 0d1b 01       		.uleb128 0x1
 11853 0d1c 50       		.byte	0x50
 11854 0d1d 9F       		.byte	0x9f
 11855 0d1e 00000000 		.4byte	0
 11856 0d22 00000000 		.4byte	0
 11857              	.LLST102:
 11858 0d26 00000000 		.4byte	.LVL204
 11859 0d2a 06000000 		.4byte	.LVL205
 11860 0d2e 0100     		.2byte	0x1
 11861 0d30 50       		.byte	0x50
 11862 0d31 06000000 		.4byte	.LVL205
 11863 0d35 0C000000 		.4byte	.LFE102
 11864 0d39 0400     		.2byte	0x4
 11865 0d3b F3       		.byte	0xf3
 11866 0d3c 01       		.uleb128 0x1
 11867 0d3d 50       		.byte	0x50
 11868 0d3e 9F       		.byte	0x9f
 11869 0d3f 00000000 		.4byte	0
 11870 0d43 00000000 		.4byte	0
 11871              	.LLST103:
 11872 0d47 00000000 		.4byte	.LVL206
 11873 0d4b 06000000 		.4byte	.LVL207
 11874 0d4f 0100     		.2byte	0x1
 11875 0d51 50       		.byte	0x50
 11876 0d52 06000000 		.4byte	.LVL207
 11877 0d56 0C000000 		.4byte	.LFE103
 11878 0d5a 0400     		.2byte	0x4
 11879 0d5c F3       		.byte	0xf3
 11880 0d5d 01       		.uleb128 0x1
 11881 0d5e 50       		.byte	0x50
 11882 0d5f 9F       		.byte	0x9f
 11883 0d60 00000000 		.4byte	0
 11884 0d64 00000000 		.4byte	0
 11885              	.LLST104:
 11886 0d68 00000000 		.4byte	.LVL208
 11887 0d6c 06000000 		.4byte	.LVL209
 11888 0d70 0100     		.2byte	0x1
 11889 0d72 50       		.byte	0x50
 11890 0d73 06000000 		.4byte	.LVL209
 11891 0d77 0C000000 		.4byte	.LFE104
 11892 0d7b 0400     		.2byte	0x4
 11893 0d7d F3       		.byte	0xf3
 11894 0d7e 01       		.uleb128 0x1
 11895 0d7f 50       		.byte	0x50
 11896 0d80 9F       		.byte	0x9f
 11897 0d81 00000000 		.4byte	0
 11898 0d85 00000000 		.4byte	0
 11899              	.LLST105:
 11900 0d89 00000000 		.4byte	.LVL210
 11901 0d8d 06000000 		.4byte	.LVL211
 11902 0d91 0100     		.2byte	0x1
 11903 0d93 50       		.byte	0x50
ARM GAS  C:\Users\jesse\AppData\Local\Temp\ccuy2FXa.s 			page 254


 11904 0d94 06000000 		.4byte	.LVL211
 11905 0d98 0C000000 		.4byte	.LFE105
 11906 0d9c 0400     		.2byte	0x4
 11907 0d9e F3       		.byte	0xf3
 11908 0d9f 01       		.uleb128 0x1
 11909 0da0 50       		.byte	0x50
 11910 0da1 9F       		.byte	0x9f
 11911 0da2 00000000 		.4byte	0
 11912 0da6 00000000 		.4byte	0
 11913              	.LLST106:
 11914 0daa 00000000 		.4byte	.LVL212
 11915 0dae 06000000 		.4byte	.LVL213
 11916 0db2 0100     		.2byte	0x1
 11917 0db4 50       		.byte	0x50
 11918 0db5 06000000 		.4byte	.LVL213
 11919 0db9 0C000000 		.4byte	.LFE106
 11920 0dbd 0400     		.2byte	0x4
 11921 0dbf F3       		.byte	0xf3
 11922 0dc0 01       		.uleb128 0x1
 11923 0dc1 50       		.byte	0x50
 11924 0dc2 9F       		.byte	0x9f
 11925 0dc3 00000000 		.4byte	0
 11926 0dc7 00000000 		.4byte	0
 11927              	.LLST107:
 11928 0dcb 00000000 		.4byte	.LVL214
 11929 0dcf 06000000 		.4byte	.LVL215
 11930 0dd3 0100     		.2byte	0x1
 11931 0dd5 50       		.byte	0x50
 11932 0dd6 06000000 		.4byte	.LVL215
 11933 0dda 0C000000 		.4byte	.LFE107
 11934 0dde 0400     		.2byte	0x4
 11935 0de0 F3       		.byte	0xf3
 11936 0de1 01       		.uleb128 0x1
 11937 0de2 50       		.byte	0x50
 11938 0de3 9F       		.byte	0x9f
 11939 0de4 00000000 		.4byte	0
 11940 0de8 00000000 		.4byte	0
 11941              	.LLST108:
 11942 0dec 00000000 		.4byte	.LVL216
 11943 0df0 06000000 		.4byte	.LVL217
 11944 0df4 0100     		.2byte	0x1
 11945 0df6 50       		.byte	0x50
 11946 0df7 06000000 		.4byte	.LVL217
 11947 0dfb 0C000000 		.4byte	.LFE108
 11948 0dff 0400     		.2byte	0x4
 11949 0e01 F3       		.byte	0xf3
 11950 0e02 01       		.uleb128 0x1
 11951 0e03 50       		.byte	0x50
 11952 0e04 9F       		.byte	0x9f
 11953 0e05 00000000 		.4byte	0
 11954 0e09 00000000 		.4byte	0
 11955              	.LLST109:
 11956 0e0d 00000000 		.4byte	.LVL218
 11957 0e11 06000000 		.4byte	.LVL219
 11958 0e15 0100     		.2byte	0x1
 11959 0e17 50       		.byte	0x50
 11960 0e18 06000000 		.4byte	.LVL219
ARM GAS  C:\Users\jesse\AppData\Local\Temp\ccuy2FXa.s 			page 255


 11961 0e1c 0C000000 		.4byte	.LFE109
 11962 0e20 0400     		.2byte	0x4
 11963 0e22 F3       		.byte	0xf3
 11964 0e23 01       		.uleb128 0x1
 11965 0e24 50       		.byte	0x50
 11966 0e25 9F       		.byte	0x9f
 11967 0e26 00000000 		.4byte	0
 11968 0e2a 00000000 		.4byte	0
 11969              	.LLST110:
 11970 0e2e 00000000 		.4byte	.LVL220
 11971 0e32 06000000 		.4byte	.LVL221
 11972 0e36 0100     		.2byte	0x1
 11973 0e38 50       		.byte	0x50
 11974 0e39 06000000 		.4byte	.LVL221
 11975 0e3d 0C000000 		.4byte	.LFE110
 11976 0e41 0400     		.2byte	0x4
 11977 0e43 F3       		.byte	0xf3
 11978 0e44 01       		.uleb128 0x1
 11979 0e45 50       		.byte	0x50
 11980 0e46 9F       		.byte	0x9f
 11981 0e47 00000000 		.4byte	0
 11982 0e4b 00000000 		.4byte	0
 11983              	.LLST111:
 11984 0e4f 00000000 		.4byte	.LVL222
 11985 0e53 06000000 		.4byte	.LVL223
 11986 0e57 0100     		.2byte	0x1
 11987 0e59 50       		.byte	0x50
 11988 0e5a 06000000 		.4byte	.LVL223
 11989 0e5e 0C000000 		.4byte	.LFE111
 11990 0e62 0400     		.2byte	0x4
 11991 0e64 F3       		.byte	0xf3
 11992 0e65 01       		.uleb128 0x1
 11993 0e66 50       		.byte	0x50
 11994 0e67 9F       		.byte	0x9f
 11995 0e68 00000000 		.4byte	0
 11996 0e6c 00000000 		.4byte	0
 11997              	.LLST112:
 11998 0e70 00000000 		.4byte	.LVL224
 11999 0e74 06000000 		.4byte	.LVL225
 12000 0e78 0100     		.2byte	0x1
 12001 0e7a 50       		.byte	0x50
 12002 0e7b 06000000 		.4byte	.LVL225
 12003 0e7f 0C000000 		.4byte	.LFE112
 12004 0e83 0400     		.2byte	0x4
 12005 0e85 F3       		.byte	0xf3
 12006 0e86 01       		.uleb128 0x1
 12007 0e87 50       		.byte	0x50
 12008 0e88 9F       		.byte	0x9f
 12009 0e89 00000000 		.4byte	0
 12010 0e8d 00000000 		.4byte	0
 12011              	.LLST113:
 12012 0e91 00000000 		.4byte	.LVL226
 12013 0e95 06000000 		.4byte	.LVL227
 12014 0e99 0100     		.2byte	0x1
 12015 0e9b 50       		.byte	0x50
 12016 0e9c 06000000 		.4byte	.LVL227
 12017 0ea0 0C000000 		.4byte	.LFE113
ARM GAS  C:\Users\jesse\AppData\Local\Temp\ccuy2FXa.s 			page 256


 12018 0ea4 0400     		.2byte	0x4
 12019 0ea6 F3       		.byte	0xf3
 12020 0ea7 01       		.uleb128 0x1
 12021 0ea8 50       		.byte	0x50
 12022 0ea9 9F       		.byte	0x9f
 12023 0eaa 00000000 		.4byte	0
 12024 0eae 00000000 		.4byte	0
 12025              	.LLST114:
 12026 0eb2 00000000 		.4byte	.LVL228
 12027 0eb6 06000000 		.4byte	.LVL229
 12028 0eba 0100     		.2byte	0x1
 12029 0ebc 50       		.byte	0x50
 12030 0ebd 06000000 		.4byte	.LVL229
 12031 0ec1 0C000000 		.4byte	.LFE114
 12032 0ec5 0400     		.2byte	0x4
 12033 0ec7 F3       		.byte	0xf3
 12034 0ec8 01       		.uleb128 0x1
 12035 0ec9 50       		.byte	0x50
 12036 0eca 9F       		.byte	0x9f
 12037 0ecb 00000000 		.4byte	0
 12038 0ecf 00000000 		.4byte	0
 12039              	.LLST115:
 12040 0ed3 00000000 		.4byte	.LVL230
 12041 0ed7 06000000 		.4byte	.LVL231
 12042 0edb 0100     		.2byte	0x1
 12043 0edd 50       		.byte	0x50
 12044 0ede 06000000 		.4byte	.LVL231
 12045 0ee2 0C000000 		.4byte	.LFE115
 12046 0ee6 0400     		.2byte	0x4
 12047 0ee8 F3       		.byte	0xf3
 12048 0ee9 01       		.uleb128 0x1
 12049 0eea 50       		.byte	0x50
 12050 0eeb 9F       		.byte	0x9f
 12051 0eec 00000000 		.4byte	0
 12052 0ef0 00000000 		.4byte	0
 12053              	.LLST116:
 12054 0ef4 00000000 		.4byte	.LVL232
 12055 0ef8 06000000 		.4byte	.LVL233
 12056 0efc 0100     		.2byte	0x1
 12057 0efe 50       		.byte	0x50
 12058 0eff 06000000 		.4byte	.LVL233
 12059 0f03 0C000000 		.4byte	.LFE116
 12060 0f07 0400     		.2byte	0x4
 12061 0f09 F3       		.byte	0xf3
 12062 0f0a 01       		.uleb128 0x1
 12063 0f0b 50       		.byte	0x50
 12064 0f0c 9F       		.byte	0x9f
 12065 0f0d 00000000 		.4byte	0
 12066 0f11 00000000 		.4byte	0
 12067              	.LLST117:
 12068 0f15 00000000 		.4byte	.LVL234
 12069 0f19 06000000 		.4byte	.LVL235
 12070 0f1d 0100     		.2byte	0x1
 12071 0f1f 50       		.byte	0x50
 12072 0f20 06000000 		.4byte	.LVL235
 12073 0f24 0C000000 		.4byte	.LFE117
 12074 0f28 0400     		.2byte	0x4
ARM GAS  C:\Users\jesse\AppData\Local\Temp\ccuy2FXa.s 			page 257


 12075 0f2a F3       		.byte	0xf3
 12076 0f2b 01       		.uleb128 0x1
 12077 0f2c 50       		.byte	0x50
 12078 0f2d 9F       		.byte	0x9f
 12079 0f2e 00000000 		.4byte	0
 12080 0f32 00000000 		.4byte	0
 12081              	.LLST118:
 12082 0f36 00000000 		.4byte	.LVL236
 12083 0f3a 06000000 		.4byte	.LVL237
 12084 0f3e 0100     		.2byte	0x1
 12085 0f40 50       		.byte	0x50
 12086 0f41 06000000 		.4byte	.LVL237
 12087 0f45 0C000000 		.4byte	.LFE118
 12088 0f49 0400     		.2byte	0x4
 12089 0f4b F3       		.byte	0xf3
 12090 0f4c 01       		.uleb128 0x1
 12091 0f4d 50       		.byte	0x50
 12092 0f4e 9F       		.byte	0x9f
 12093 0f4f 00000000 		.4byte	0
 12094 0f53 00000000 		.4byte	0
 12095              	.LLST119:
 12096 0f57 00000000 		.4byte	.LVL238
 12097 0f5b 06000000 		.4byte	.LVL239
 12098 0f5f 0100     		.2byte	0x1
 12099 0f61 50       		.byte	0x50
 12100 0f62 06000000 		.4byte	.LVL239
 12101 0f66 0C000000 		.4byte	.LFE119
 12102 0f6a 0400     		.2byte	0x4
 12103 0f6c F3       		.byte	0xf3
 12104 0f6d 01       		.uleb128 0x1
 12105 0f6e 50       		.byte	0x50
 12106 0f6f 9F       		.byte	0x9f
 12107 0f70 00000000 		.4byte	0
 12108 0f74 00000000 		.4byte	0
 12109              	.LLST120:
 12110 0f78 00000000 		.4byte	.LVL240
 12111 0f7c 06000000 		.4byte	.LVL241
 12112 0f80 0100     		.2byte	0x1
 12113 0f82 50       		.byte	0x50
 12114 0f83 06000000 		.4byte	.LVL241
 12115 0f87 0C000000 		.4byte	.LFE120
 12116 0f8b 0400     		.2byte	0x4
 12117 0f8d F3       		.byte	0xf3
 12118 0f8e 01       		.uleb128 0x1
 12119 0f8f 50       		.byte	0x50
 12120 0f90 9F       		.byte	0x9f
 12121 0f91 00000000 		.4byte	0
 12122 0f95 00000000 		.4byte	0
 12123              	.LLST121:
 12124 0f99 00000000 		.4byte	.LVL242
 12125 0f9d 06000000 		.4byte	.LVL243
 12126 0fa1 0100     		.2byte	0x1
 12127 0fa3 50       		.byte	0x50
 12128 0fa4 06000000 		.4byte	.LVL243
 12129 0fa8 0C000000 		.4byte	.LFE121
 12130 0fac 0400     		.2byte	0x4
 12131 0fae F3       		.byte	0xf3
ARM GAS  C:\Users\jesse\AppData\Local\Temp\ccuy2FXa.s 			page 258


 12132 0faf 01       		.uleb128 0x1
 12133 0fb0 50       		.byte	0x50
 12134 0fb1 9F       		.byte	0x9f
 12135 0fb2 00000000 		.4byte	0
 12136 0fb6 00000000 		.4byte	0
 12137              	.LLST122:
 12138 0fba 00000000 		.4byte	.LVL244
 12139 0fbe 06000000 		.4byte	.LVL245
 12140 0fc2 0100     		.2byte	0x1
 12141 0fc4 50       		.byte	0x50
 12142 0fc5 06000000 		.4byte	.LVL245
 12143 0fc9 0C000000 		.4byte	.LFE122
 12144 0fcd 0400     		.2byte	0x4
 12145 0fcf F3       		.byte	0xf3
 12146 0fd0 01       		.uleb128 0x1
 12147 0fd1 50       		.byte	0x50
 12148 0fd2 9F       		.byte	0x9f
 12149 0fd3 00000000 		.4byte	0
 12150 0fd7 00000000 		.4byte	0
 12151              	.LLST123:
 12152 0fdb 00000000 		.4byte	.LVL246
 12153 0fdf 06000000 		.4byte	.LVL247
 12154 0fe3 0100     		.2byte	0x1
 12155 0fe5 50       		.byte	0x50
 12156 0fe6 06000000 		.4byte	.LVL247
 12157 0fea 0C000000 		.4byte	.LFE123
 12158 0fee 0400     		.2byte	0x4
 12159 0ff0 F3       		.byte	0xf3
 12160 0ff1 01       		.uleb128 0x1
 12161 0ff2 50       		.byte	0x50
 12162 0ff3 9F       		.byte	0x9f
 12163 0ff4 00000000 		.4byte	0
 12164 0ff8 00000000 		.4byte	0
 12165              	.LLST124:
 12166 0ffc 00000000 		.4byte	.LVL248
 12167 1000 06000000 		.4byte	.LVL249
 12168 1004 0100     		.2byte	0x1
 12169 1006 50       		.byte	0x50
 12170 1007 06000000 		.4byte	.LVL249
 12171 100b 0C000000 		.4byte	.LFE124
 12172 100f 0400     		.2byte	0x4
 12173 1011 F3       		.byte	0xf3
 12174 1012 01       		.uleb128 0x1
 12175 1013 50       		.byte	0x50
 12176 1014 9F       		.byte	0x9f
 12177 1015 00000000 		.4byte	0
 12178 1019 00000000 		.4byte	0
 12179              	.LLST125:
 12180 101d 00000000 		.4byte	.LVL250
 12181 1021 06000000 		.4byte	.LVL251
 12182 1025 0100     		.2byte	0x1
 12183 1027 50       		.byte	0x50
 12184 1028 06000000 		.4byte	.LVL251
 12185 102c 0C000000 		.4byte	.LFE125
 12186 1030 0400     		.2byte	0x4
 12187 1032 F3       		.byte	0xf3
 12188 1033 01       		.uleb128 0x1
ARM GAS  C:\Users\jesse\AppData\Local\Temp\ccuy2FXa.s 			page 259


 12189 1034 50       		.byte	0x50
 12190 1035 9F       		.byte	0x9f
 12191 1036 00000000 		.4byte	0
 12192 103a 00000000 		.4byte	0
 12193              	.LLST126:
 12194 103e 00000000 		.4byte	.LVL252
 12195 1042 06000000 		.4byte	.LVL253
 12196 1046 0100     		.2byte	0x1
 12197 1048 50       		.byte	0x50
 12198 1049 06000000 		.4byte	.LVL253
 12199 104d 0C000000 		.4byte	.LFE126
 12200 1051 0400     		.2byte	0x4
 12201 1053 F3       		.byte	0xf3
 12202 1054 01       		.uleb128 0x1
 12203 1055 50       		.byte	0x50
 12204 1056 9F       		.byte	0x9f
 12205 1057 00000000 		.4byte	0
 12206 105b 00000000 		.4byte	0
 12207              	.LLST127:
 12208 105f 00000000 		.4byte	.LVL254
 12209 1063 06000000 		.4byte	.LVL255
 12210 1067 0100     		.2byte	0x1
 12211 1069 50       		.byte	0x50
 12212 106a 06000000 		.4byte	.LVL255
 12213 106e 0C000000 		.4byte	.LFE127
 12214 1072 0400     		.2byte	0x4
 12215 1074 F3       		.byte	0xf3
 12216 1075 01       		.uleb128 0x1
 12217 1076 50       		.byte	0x50
 12218 1077 9F       		.byte	0x9f
 12219 1078 00000000 		.4byte	0
 12220 107c 00000000 		.4byte	0
 12221              	.LLST128:
 12222 1080 00000000 		.4byte	.LVL256
 12223 1084 06000000 		.4byte	.LVL257
 12224 1088 0100     		.2byte	0x1
 12225 108a 50       		.byte	0x50
 12226 108b 06000000 		.4byte	.LVL257
 12227 108f 0C000000 		.4byte	.LFE128
 12228 1093 0400     		.2byte	0x4
 12229 1095 F3       		.byte	0xf3
 12230 1096 01       		.uleb128 0x1
 12231 1097 50       		.byte	0x50
 12232 1098 9F       		.byte	0x9f
 12233 1099 00000000 		.4byte	0
 12234 109d 00000000 		.4byte	0
 12235              	.LLST129:
 12236 10a1 00000000 		.4byte	.LVL258
 12237 10a5 06000000 		.4byte	.LVL259
 12238 10a9 0100     		.2byte	0x1
 12239 10ab 50       		.byte	0x50
 12240 10ac 06000000 		.4byte	.LVL259
 12241 10b0 0C000000 		.4byte	.LFE129
 12242 10b4 0400     		.2byte	0x4
 12243 10b6 F3       		.byte	0xf3
 12244 10b7 01       		.uleb128 0x1
 12245 10b8 50       		.byte	0x50
ARM GAS  C:\Users\jesse\AppData\Local\Temp\ccuy2FXa.s 			page 260


 12246 10b9 9F       		.byte	0x9f
 12247 10ba 00000000 		.4byte	0
 12248 10be 00000000 		.4byte	0
 12249              	.LLST130:
 12250 10c2 00000000 		.4byte	.LVL260
 12251 10c6 06000000 		.4byte	.LVL261
 12252 10ca 0100     		.2byte	0x1
 12253 10cc 50       		.byte	0x50
 12254 10cd 06000000 		.4byte	.LVL261
 12255 10d1 0C000000 		.4byte	.LFE130
 12256 10d5 0400     		.2byte	0x4
 12257 10d7 F3       		.byte	0xf3
 12258 10d8 01       		.uleb128 0x1
 12259 10d9 50       		.byte	0x50
 12260 10da 9F       		.byte	0x9f
 12261 10db 00000000 		.4byte	0
 12262 10df 00000000 		.4byte	0
 12263              	.LLST131:
 12264 10e3 00000000 		.4byte	.LVL262
 12265 10e7 06000000 		.4byte	.LVL263
 12266 10eb 0100     		.2byte	0x1
 12267 10ed 50       		.byte	0x50
 12268 10ee 06000000 		.4byte	.LVL263
 12269 10f2 0C000000 		.4byte	.LFE131
 12270 10f6 0400     		.2byte	0x4
 12271 10f8 F3       		.byte	0xf3
 12272 10f9 01       		.uleb128 0x1
 12273 10fa 50       		.byte	0x50
 12274 10fb 9F       		.byte	0x9f
 12275 10fc 00000000 		.4byte	0
 12276 1100 00000000 		.4byte	0
 12277              	.LLST132:
 12278 1104 00000000 		.4byte	.LVL264
 12279 1108 06000000 		.4byte	.LVL265
 12280 110c 0100     		.2byte	0x1
 12281 110e 50       		.byte	0x50
 12282 110f 06000000 		.4byte	.LVL265
 12283 1113 0C000000 		.4byte	.LFE132
 12284 1117 0400     		.2byte	0x4
 12285 1119 F3       		.byte	0xf3
 12286 111a 01       		.uleb128 0x1
 12287 111b 50       		.byte	0x50
 12288 111c 9F       		.byte	0x9f
 12289 111d 00000000 		.4byte	0
 12290 1121 00000000 		.4byte	0
 12291              	.LLST133:
 12292 1125 00000000 		.4byte	.LVL266
 12293 1129 06000000 		.4byte	.LVL267
 12294 112d 0100     		.2byte	0x1
 12295 112f 50       		.byte	0x50
 12296 1130 06000000 		.4byte	.LVL267
 12297 1134 0C000000 		.4byte	.LFE133
 12298 1138 0400     		.2byte	0x4
 12299 113a F3       		.byte	0xf3
 12300 113b 01       		.uleb128 0x1
 12301 113c 50       		.byte	0x50
 12302 113d 9F       		.byte	0x9f
ARM GAS  C:\Users\jesse\AppData\Local\Temp\ccuy2FXa.s 			page 261


 12303 113e 00000000 		.4byte	0
 12304 1142 00000000 		.4byte	0
 12305              	.LLST134:
 12306 1146 00000000 		.4byte	.LVL268
 12307 114a 06000000 		.4byte	.LVL269
 12308 114e 0100     		.2byte	0x1
 12309 1150 50       		.byte	0x50
 12310 1151 06000000 		.4byte	.LVL269
 12311 1155 0C000000 		.4byte	.LFE134
 12312 1159 0400     		.2byte	0x4
 12313 115b F3       		.byte	0xf3
 12314 115c 01       		.uleb128 0x1
 12315 115d 50       		.byte	0x50
 12316 115e 9F       		.byte	0x9f
 12317 115f 00000000 		.4byte	0
 12318 1163 00000000 		.4byte	0
 12319              	.LLST135:
 12320 1167 00000000 		.4byte	.LVL270
 12321 116b 06000000 		.4byte	.LVL271
 12322 116f 0100     		.2byte	0x1
 12323 1171 50       		.byte	0x50
 12324 1172 06000000 		.4byte	.LVL271
 12325 1176 0C000000 		.4byte	.LFE135
 12326 117a 0400     		.2byte	0x4
 12327 117c F3       		.byte	0xf3
 12328 117d 01       		.uleb128 0x1
 12329 117e 50       		.byte	0x50
 12330 117f 9F       		.byte	0x9f
 12331 1180 00000000 		.4byte	0
 12332 1184 00000000 		.4byte	0
 12333              	.LLST136:
 12334 1188 00000000 		.4byte	.LVL272
 12335 118c 06000000 		.4byte	.LVL273
 12336 1190 0100     		.2byte	0x1
 12337 1192 50       		.byte	0x50
 12338 1193 06000000 		.4byte	.LVL273
 12339 1197 0C000000 		.4byte	.LFE136
 12340 119b 0400     		.2byte	0x4
 12341 119d F3       		.byte	0xf3
 12342 119e 01       		.uleb128 0x1
 12343 119f 50       		.byte	0x50
 12344 11a0 9F       		.byte	0x9f
 12345 11a1 00000000 		.4byte	0
 12346 11a5 00000000 		.4byte	0
 12347              	.LLST137:
 12348 11a9 00000000 		.4byte	.LVL274
 12349 11ad 06000000 		.4byte	.LVL275
 12350 11b1 0100     		.2byte	0x1
 12351 11b3 50       		.byte	0x50
 12352 11b4 06000000 		.4byte	.LVL275
 12353 11b8 0C000000 		.4byte	.LFE137
 12354 11bc 0400     		.2byte	0x4
 12355 11be F3       		.byte	0xf3
 12356 11bf 01       		.uleb128 0x1
 12357 11c0 50       		.byte	0x50
 12358 11c1 9F       		.byte	0x9f
 12359 11c2 00000000 		.4byte	0
ARM GAS  C:\Users\jesse\AppData\Local\Temp\ccuy2FXa.s 			page 262


 12360 11c6 00000000 		.4byte	0
 12361              	.LLST138:
 12362 11ca 00000000 		.4byte	.LVL276
 12363 11ce 06000000 		.4byte	.LVL277
 12364 11d2 0100     		.2byte	0x1
 12365 11d4 50       		.byte	0x50
 12366 11d5 06000000 		.4byte	.LVL277
 12367 11d9 0C000000 		.4byte	.LFE138
 12368 11dd 0400     		.2byte	0x4
 12369 11df F3       		.byte	0xf3
 12370 11e0 01       		.uleb128 0x1
 12371 11e1 50       		.byte	0x50
 12372 11e2 9F       		.byte	0x9f
 12373 11e3 00000000 		.4byte	0
 12374 11e7 00000000 		.4byte	0
 12375              	.LLST139:
 12376 11eb 00000000 		.4byte	.LVL278
 12377 11ef 06000000 		.4byte	.LVL279
 12378 11f3 0100     		.2byte	0x1
 12379 11f5 50       		.byte	0x50
 12380 11f6 06000000 		.4byte	.LVL279
 12381 11fa 0C000000 		.4byte	.LFE139
 12382 11fe 0400     		.2byte	0x4
 12383 1200 F3       		.byte	0xf3
 12384 1201 01       		.uleb128 0x1
 12385 1202 50       		.byte	0x50
 12386 1203 9F       		.byte	0x9f
 12387 1204 00000000 		.4byte	0
 12388 1208 00000000 		.4byte	0
 12389              	.LLST140:
 12390 120c 00000000 		.4byte	.LVL280
 12391 1210 06000000 		.4byte	.LVL281
 12392 1214 0100     		.2byte	0x1
 12393 1216 50       		.byte	0x50
 12394 1217 06000000 		.4byte	.LVL281
 12395 121b 0C000000 		.4byte	.LFE140
 12396 121f 0400     		.2byte	0x4
 12397 1221 F3       		.byte	0xf3
 12398 1222 01       		.uleb128 0x1
 12399 1223 50       		.byte	0x50
 12400 1224 9F       		.byte	0x9f
 12401 1225 00000000 		.4byte	0
 12402 1229 00000000 		.4byte	0
 12403              	.LLST141:
 12404 122d 00000000 		.4byte	.LVL282
 12405 1231 06000000 		.4byte	.LVL283
 12406 1235 0100     		.2byte	0x1
 12407 1237 50       		.byte	0x50
 12408 1238 06000000 		.4byte	.LVL283
 12409 123c 0C000000 		.4byte	.LFE141
 12410 1240 0400     		.2byte	0x4
 12411 1242 F3       		.byte	0xf3
 12412 1243 01       		.uleb128 0x1
 12413 1244 50       		.byte	0x50
 12414 1245 9F       		.byte	0x9f
 12415 1246 00000000 		.4byte	0
 12416 124a 00000000 		.4byte	0
ARM GAS  C:\Users\jesse\AppData\Local\Temp\ccuy2FXa.s 			page 263


 12417              	.LLST142:
 12418 124e 00000000 		.4byte	.LVL284
 12419 1252 06000000 		.4byte	.LVL285
 12420 1256 0100     		.2byte	0x1
 12421 1258 50       		.byte	0x50
 12422 1259 06000000 		.4byte	.LVL285
 12423 125d 0C000000 		.4byte	.LFE142
 12424 1261 0400     		.2byte	0x4
 12425 1263 F3       		.byte	0xf3
 12426 1264 01       		.uleb128 0x1
 12427 1265 50       		.byte	0x50
 12428 1266 9F       		.byte	0x9f
 12429 1267 00000000 		.4byte	0
 12430 126b 00000000 		.4byte	0
 12431              	.LLST143:
 12432 126f 00000000 		.4byte	.LVL286
 12433 1273 06000000 		.4byte	.LVL287
 12434 1277 0100     		.2byte	0x1
 12435 1279 50       		.byte	0x50
 12436 127a 06000000 		.4byte	.LVL287
 12437 127e 0C000000 		.4byte	.LFE143
 12438 1282 0400     		.2byte	0x4
 12439 1284 F3       		.byte	0xf3
 12440 1285 01       		.uleb128 0x1
 12441 1286 50       		.byte	0x50
 12442 1287 9F       		.byte	0x9f
 12443 1288 00000000 		.4byte	0
 12444 128c 00000000 		.4byte	0
 12445              	.LLST144:
 12446 1290 00000000 		.4byte	.LVL288
 12447 1294 06000000 		.4byte	.LVL289
 12448 1298 0100     		.2byte	0x1
 12449 129a 50       		.byte	0x50
 12450 129b 06000000 		.4byte	.LVL289
 12451 129f 0C000000 		.4byte	.LFE144
 12452 12a3 0400     		.2byte	0x4
 12453 12a5 F3       		.byte	0xf3
 12454 12a6 01       		.uleb128 0x1
 12455 12a7 50       		.byte	0x50
 12456 12a8 9F       		.byte	0x9f
 12457 12a9 00000000 		.4byte	0
 12458 12ad 00000000 		.4byte	0
 12459              	.LLST145:
 12460 12b1 00000000 		.4byte	.LVL290
 12461 12b5 06000000 		.4byte	.LVL291
 12462 12b9 0100     		.2byte	0x1
 12463 12bb 50       		.byte	0x50
 12464 12bc 06000000 		.4byte	.LVL291
 12465 12c0 0C000000 		.4byte	.LFE145
 12466 12c4 0400     		.2byte	0x4
 12467 12c6 F3       		.byte	0xf3
 12468 12c7 01       		.uleb128 0x1
 12469 12c8 50       		.byte	0x50
 12470 12c9 9F       		.byte	0x9f
 12471 12ca 00000000 		.4byte	0
 12472 12ce 00000000 		.4byte	0
 12473              	.LLST146:
ARM GAS  C:\Users\jesse\AppData\Local\Temp\ccuy2FXa.s 			page 264


 12474 12d2 00000000 		.4byte	.LVL292
 12475 12d6 06000000 		.4byte	.LVL293
 12476 12da 0100     		.2byte	0x1
 12477 12dc 50       		.byte	0x50
 12478 12dd 06000000 		.4byte	.LVL293
 12479 12e1 0C000000 		.4byte	.LFE146
 12480 12e5 0400     		.2byte	0x4
 12481 12e7 F3       		.byte	0xf3
 12482 12e8 01       		.uleb128 0x1
 12483 12e9 50       		.byte	0x50
 12484 12ea 9F       		.byte	0x9f
 12485 12eb 00000000 		.4byte	0
 12486 12ef 00000000 		.4byte	0
 12487              	.LLST147:
 12488 12f3 00000000 		.4byte	.LVL294
 12489 12f7 06000000 		.4byte	.LVL295
 12490 12fb 0100     		.2byte	0x1
 12491 12fd 50       		.byte	0x50
 12492 12fe 06000000 		.4byte	.LVL295
 12493 1302 0C000000 		.4byte	.LFE147
 12494 1306 0400     		.2byte	0x4
 12495 1308 F3       		.byte	0xf3
 12496 1309 01       		.uleb128 0x1
 12497 130a 50       		.byte	0x50
 12498 130b 9F       		.byte	0x9f
 12499 130c 00000000 		.4byte	0
 12500 1310 00000000 		.4byte	0
 12501              	.LLST148:
 12502 1314 00000000 		.4byte	.LVL296
 12503 1318 06000000 		.4byte	.LVL297
 12504 131c 0100     		.2byte	0x1
 12505 131e 50       		.byte	0x50
 12506 131f 06000000 		.4byte	.LVL297
 12507 1323 0C000000 		.4byte	.LFE148
 12508 1327 0400     		.2byte	0x4
 12509 1329 F3       		.byte	0xf3
 12510 132a 01       		.uleb128 0x1
 12511 132b 50       		.byte	0x50
 12512 132c 9F       		.byte	0x9f
 12513 132d 00000000 		.4byte	0
 12514 1331 00000000 		.4byte	0
 12515              	.LLST149:
 12516 1335 00000000 		.4byte	.LVL298
 12517 1339 06000000 		.4byte	.LVL299
 12518 133d 0100     		.2byte	0x1
 12519 133f 50       		.byte	0x50
 12520 1340 06000000 		.4byte	.LVL299
 12521 1344 0C000000 		.4byte	.LFE149
 12522 1348 0400     		.2byte	0x4
 12523 134a F3       		.byte	0xf3
 12524 134b 01       		.uleb128 0x1
 12525 134c 50       		.byte	0x50
 12526 134d 9F       		.byte	0x9f
 12527 134e 00000000 		.4byte	0
 12528 1352 00000000 		.4byte	0
 12529              	.LLST150:
 12530 1356 00000000 		.4byte	.LVL300
ARM GAS  C:\Users\jesse\AppData\Local\Temp\ccuy2FXa.s 			page 265


 12531 135a 06000000 		.4byte	.LVL301
 12532 135e 0100     		.2byte	0x1
 12533 1360 50       		.byte	0x50
 12534 1361 06000000 		.4byte	.LVL301
 12535 1365 0C000000 		.4byte	.LFE150
 12536 1369 0400     		.2byte	0x4
 12537 136b F3       		.byte	0xf3
 12538 136c 01       		.uleb128 0x1
 12539 136d 50       		.byte	0x50
 12540 136e 9F       		.byte	0x9f
 12541 136f 00000000 		.4byte	0
 12542 1373 00000000 		.4byte	0
 12543              	.LLST151:
 12544 1377 00000000 		.4byte	.LVL302
 12545 137b 06000000 		.4byte	.LVL303
 12546 137f 0100     		.2byte	0x1
 12547 1381 50       		.byte	0x50
 12548 1382 06000000 		.4byte	.LVL303
 12549 1386 0C000000 		.4byte	.LFE151
 12550 138a 0400     		.2byte	0x4
 12551 138c F3       		.byte	0xf3
 12552 138d 01       		.uleb128 0x1
 12553 138e 50       		.byte	0x50
 12554 138f 9F       		.byte	0x9f
 12555 1390 00000000 		.4byte	0
 12556 1394 00000000 		.4byte	0
 12557              	.LLST152:
 12558 1398 00000000 		.4byte	.LVL304
 12559 139c 06000000 		.4byte	.LVL305
 12560 13a0 0100     		.2byte	0x1
 12561 13a2 50       		.byte	0x50
 12562 13a3 06000000 		.4byte	.LVL305
 12563 13a7 0C000000 		.4byte	.LFE152
 12564 13ab 0400     		.2byte	0x4
 12565 13ad F3       		.byte	0xf3
 12566 13ae 01       		.uleb128 0x1
 12567 13af 50       		.byte	0x50
 12568 13b0 9F       		.byte	0x9f
 12569 13b1 00000000 		.4byte	0
 12570 13b5 00000000 		.4byte	0
 12571              	.LLST153:
 12572 13b9 00000000 		.4byte	.LVL306
 12573 13bd 06000000 		.4byte	.LVL307
 12574 13c1 0100     		.2byte	0x1
 12575 13c3 50       		.byte	0x50
 12576 13c4 06000000 		.4byte	.LVL307
 12577 13c8 0C000000 		.4byte	.LFE153
 12578 13cc 0400     		.2byte	0x4
 12579 13ce F3       		.byte	0xf3
 12580 13cf 01       		.uleb128 0x1
 12581 13d0 50       		.byte	0x50
 12582 13d1 9F       		.byte	0x9f
 12583 13d2 00000000 		.4byte	0
 12584 13d6 00000000 		.4byte	0
 12585              	.LLST154:
 12586 13da 00000000 		.4byte	.LVL308
 12587 13de 06000000 		.4byte	.LVL309
ARM GAS  C:\Users\jesse\AppData\Local\Temp\ccuy2FXa.s 			page 266


 12588 13e2 0100     		.2byte	0x1
 12589 13e4 50       		.byte	0x50
 12590 13e5 06000000 		.4byte	.LVL309
 12591 13e9 0C000000 		.4byte	.LFE154
 12592 13ed 0400     		.2byte	0x4
 12593 13ef F3       		.byte	0xf3
 12594 13f0 01       		.uleb128 0x1
 12595 13f1 50       		.byte	0x50
 12596 13f2 9F       		.byte	0x9f
 12597 13f3 00000000 		.4byte	0
 12598 13f7 00000000 		.4byte	0
 12599              	.LLST155:
 12600 13fb 00000000 		.4byte	.LVL310
 12601 13ff 06000000 		.4byte	.LVL311
 12602 1403 0100     		.2byte	0x1
 12603 1405 50       		.byte	0x50
 12604 1406 06000000 		.4byte	.LVL311
 12605 140a 0C000000 		.4byte	.LFE155
 12606 140e 0400     		.2byte	0x4
 12607 1410 F3       		.byte	0xf3
 12608 1411 01       		.uleb128 0x1
 12609 1412 50       		.byte	0x50
 12610 1413 9F       		.byte	0x9f
 12611 1414 00000000 		.4byte	0
 12612 1418 00000000 		.4byte	0
 12613              	.LLST156:
 12614 141c 00000000 		.4byte	.LVL312
 12615 1420 06000000 		.4byte	.LVL313
 12616 1424 0100     		.2byte	0x1
 12617 1426 50       		.byte	0x50
 12618 1427 06000000 		.4byte	.LVL313
 12619 142b 0C000000 		.4byte	.LFE156
 12620 142f 0400     		.2byte	0x4
 12621 1431 F3       		.byte	0xf3
 12622 1432 01       		.uleb128 0x1
 12623 1433 50       		.byte	0x50
 12624 1434 9F       		.byte	0x9f
 12625 1435 00000000 		.4byte	0
 12626 1439 00000000 		.4byte	0
 12627              	.LLST157:
 12628 143d 00000000 		.4byte	.LVL314
 12629 1441 06000000 		.4byte	.LVL315
 12630 1445 0100     		.2byte	0x1
 12631 1447 50       		.byte	0x50
 12632 1448 06000000 		.4byte	.LVL315
 12633 144c 0C000000 		.4byte	.LFE157
 12634 1450 0400     		.2byte	0x4
 12635 1452 F3       		.byte	0xf3
 12636 1453 01       		.uleb128 0x1
 12637 1454 50       		.byte	0x50
 12638 1455 9F       		.byte	0x9f
 12639 1456 00000000 		.4byte	0
 12640 145a 00000000 		.4byte	0
 12641              	.LLST158:
 12642 145e 00000000 		.4byte	.LVL316
 12643 1462 06000000 		.4byte	.LVL317
 12644 1466 0100     		.2byte	0x1
ARM GAS  C:\Users\jesse\AppData\Local\Temp\ccuy2FXa.s 			page 267


 12645 1468 50       		.byte	0x50
 12646 1469 06000000 		.4byte	.LVL317
 12647 146d 0C000000 		.4byte	.LFE158
 12648 1471 0400     		.2byte	0x4
 12649 1473 F3       		.byte	0xf3
 12650 1474 01       		.uleb128 0x1
 12651 1475 50       		.byte	0x50
 12652 1476 9F       		.byte	0x9f
 12653 1477 00000000 		.4byte	0
 12654 147b 00000000 		.4byte	0
 12655              	.LLST159:
 12656 147f 00000000 		.4byte	.LVL318
 12657 1483 06000000 		.4byte	.LVL319
 12658 1487 0100     		.2byte	0x1
 12659 1489 50       		.byte	0x50
 12660 148a 06000000 		.4byte	.LVL319
 12661 148e 0C000000 		.4byte	.LFE159
 12662 1492 0400     		.2byte	0x4
 12663 1494 F3       		.byte	0xf3
 12664 1495 01       		.uleb128 0x1
 12665 1496 50       		.byte	0x50
 12666 1497 9F       		.byte	0x9f
 12667 1498 00000000 		.4byte	0
 12668 149c 00000000 		.4byte	0
 12669              	.LLST160:
 12670 14a0 00000000 		.4byte	.LVL320
 12671 14a4 06000000 		.4byte	.LVL321
 12672 14a8 0100     		.2byte	0x1
 12673 14aa 50       		.byte	0x50
 12674 14ab 06000000 		.4byte	.LVL321
 12675 14af 0C000000 		.4byte	.LFE160
 12676 14b3 0400     		.2byte	0x4
 12677 14b5 F3       		.byte	0xf3
 12678 14b6 01       		.uleb128 0x1
 12679 14b7 50       		.byte	0x50
 12680 14b8 9F       		.byte	0x9f
 12681 14b9 00000000 		.4byte	0
 12682 14bd 00000000 		.4byte	0
 12683              	.LLST161:
 12684 14c1 00000000 		.4byte	.LVL322
 12685 14c5 06000000 		.4byte	.LVL323
 12686 14c9 0100     		.2byte	0x1
 12687 14cb 50       		.byte	0x50
 12688 14cc 06000000 		.4byte	.LVL323
 12689 14d0 0C000000 		.4byte	.LFE161
 12690 14d4 0400     		.2byte	0x4
 12691 14d6 F3       		.byte	0xf3
 12692 14d7 01       		.uleb128 0x1
 12693 14d8 50       		.byte	0x50
 12694 14d9 9F       		.byte	0x9f
 12695 14da 00000000 		.4byte	0
 12696 14de 00000000 		.4byte	0
 12697              	.LLST162:
 12698 14e2 00000000 		.4byte	.LVL324
 12699 14e6 06000000 		.4byte	.LVL325
 12700 14ea 0100     		.2byte	0x1
 12701 14ec 50       		.byte	0x50
ARM GAS  C:\Users\jesse\AppData\Local\Temp\ccuy2FXa.s 			page 268


 12702 14ed 06000000 		.4byte	.LVL325
 12703 14f1 0C000000 		.4byte	.LFE162
 12704 14f5 0400     		.2byte	0x4
 12705 14f7 F3       		.byte	0xf3
 12706 14f8 01       		.uleb128 0x1
 12707 14f9 50       		.byte	0x50
 12708 14fa 9F       		.byte	0x9f
 12709 14fb 00000000 		.4byte	0
 12710 14ff 00000000 		.4byte	0
 12711              	.LLST163:
 12712 1503 00000000 		.4byte	.LVL326
 12713 1507 06000000 		.4byte	.LVL327
 12714 150b 0100     		.2byte	0x1
 12715 150d 50       		.byte	0x50
 12716 150e 06000000 		.4byte	.LVL327
 12717 1512 0C000000 		.4byte	.LFE163
 12718 1516 0400     		.2byte	0x4
 12719 1518 F3       		.byte	0xf3
 12720 1519 01       		.uleb128 0x1
 12721 151a 50       		.byte	0x50
 12722 151b 9F       		.byte	0x9f
 12723 151c 00000000 		.4byte	0
 12724 1520 00000000 		.4byte	0
 12725              	.LLST164:
 12726 1524 00000000 		.4byte	.LVL328
 12727 1528 06000000 		.4byte	.LVL329
 12728 152c 0100     		.2byte	0x1
 12729 152e 50       		.byte	0x50
 12730 152f 06000000 		.4byte	.LVL329
 12731 1533 0C000000 		.4byte	.LFE164
 12732 1537 0400     		.2byte	0x4
 12733 1539 F3       		.byte	0xf3
 12734 153a 01       		.uleb128 0x1
 12735 153b 50       		.byte	0x50
 12736 153c 9F       		.byte	0x9f
 12737 153d 00000000 		.4byte	0
 12738 1541 00000000 		.4byte	0
 12739              	.LLST165:
 12740 1545 00000000 		.4byte	.LVL330
 12741 1549 06000000 		.4byte	.LVL331
 12742 154d 0100     		.2byte	0x1
 12743 154f 50       		.byte	0x50
 12744 1550 06000000 		.4byte	.LVL331
 12745 1554 0C000000 		.4byte	.LFE165
 12746 1558 0400     		.2byte	0x4
 12747 155a F3       		.byte	0xf3
 12748 155b 01       		.uleb128 0x1
 12749 155c 50       		.byte	0x50
 12750 155d 9F       		.byte	0x9f
 12751 155e 00000000 		.4byte	0
 12752 1562 00000000 		.4byte	0
 12753              	.LLST166:
 12754 1566 00000000 		.4byte	.LVL332
 12755 156a 06000000 		.4byte	.LVL333
 12756 156e 0100     		.2byte	0x1
 12757 1570 50       		.byte	0x50
 12758 1571 06000000 		.4byte	.LVL333
ARM GAS  C:\Users\jesse\AppData\Local\Temp\ccuy2FXa.s 			page 269


 12759 1575 0C000000 		.4byte	.LFE166
 12760 1579 0400     		.2byte	0x4
 12761 157b F3       		.byte	0xf3
 12762 157c 01       		.uleb128 0x1
 12763 157d 50       		.byte	0x50
 12764 157e 9F       		.byte	0x9f
 12765 157f 00000000 		.4byte	0
 12766 1583 00000000 		.4byte	0
 12767              	.LLST167:
 12768 1587 00000000 		.4byte	.LVL334
 12769 158b 06000000 		.4byte	.LVL335
 12770 158f 0100     		.2byte	0x1
 12771 1591 50       		.byte	0x50
 12772 1592 06000000 		.4byte	.LVL335
 12773 1596 0C000000 		.4byte	.LFE167
 12774 159a 0400     		.2byte	0x4
 12775 159c F3       		.byte	0xf3
 12776 159d 01       		.uleb128 0x1
 12777 159e 50       		.byte	0x50
 12778 159f 9F       		.byte	0x9f
 12779 15a0 00000000 		.4byte	0
 12780 15a4 00000000 		.4byte	0
 12781              		.section	.debug_aranges,"",%progbits
 12782 0000 54050000 		.4byte	0x554
 12783 0004 0200     		.2byte	0x2
 12784 0006 00000000 		.4byte	.Ldebug_info0
 12785 000a 04       		.byte	0x4
 12786 000b 00       		.byte	0
 12787 000c 0000     		.2byte	0
 12788 000e 0000     		.2byte	0
 12789 0010 00000000 		.4byte	.LFB0
 12790 0014 0C000000 		.4byte	.LFE0-.LFB0
 12791 0018 00000000 		.4byte	.LFB1
 12792 001c 0C000000 		.4byte	.LFE1-.LFB1
 12793 0020 00000000 		.4byte	.LFB2
 12794 0024 0C000000 		.4byte	.LFE2-.LFB2
 12795 0028 00000000 		.4byte	.LFB3
 12796 002c 0C000000 		.4byte	.LFE3-.LFB3
 12797 0030 00000000 		.4byte	.LFB4
 12798 0034 0C000000 		.4byte	.LFE4-.LFB4
 12799 0038 00000000 		.4byte	.LFB5
 12800 003c 0C000000 		.4byte	.LFE5-.LFB5
 12801 0040 00000000 		.4byte	.LFB6
 12802 0044 0C000000 		.4byte	.LFE6-.LFB6
 12803 0048 00000000 		.4byte	.LFB7
 12804 004c 0C000000 		.4byte	.LFE7-.LFB7
 12805 0050 00000000 		.4byte	.LFB8
 12806 0054 0C000000 		.4byte	.LFE8-.LFB8
 12807 0058 00000000 		.4byte	.LFB9
 12808 005c 0C000000 		.4byte	.LFE9-.LFB9
 12809 0060 00000000 		.4byte	.LFB10
 12810 0064 0C000000 		.4byte	.LFE10-.LFB10
 12811 0068 00000000 		.4byte	.LFB11
 12812 006c 0C000000 		.4byte	.LFE11-.LFB11
 12813 0070 00000000 		.4byte	.LFB12
 12814 0074 0C000000 		.4byte	.LFE12-.LFB12
 12815 0078 00000000 		.4byte	.LFB13
ARM GAS  C:\Users\jesse\AppData\Local\Temp\ccuy2FXa.s 			page 270


 12816 007c 0C000000 		.4byte	.LFE13-.LFB13
 12817 0080 00000000 		.4byte	.LFB14
 12818 0084 0C000000 		.4byte	.LFE14-.LFB14
 12819 0088 00000000 		.4byte	.LFB15
 12820 008c 0C000000 		.4byte	.LFE15-.LFB15
 12821 0090 00000000 		.4byte	.LFB16
 12822 0094 0C000000 		.4byte	.LFE16-.LFB16
 12823 0098 00000000 		.4byte	.LFB17
 12824 009c 0C000000 		.4byte	.LFE17-.LFB17
 12825 00a0 00000000 		.4byte	.LFB18
 12826 00a4 0C000000 		.4byte	.LFE18-.LFB18
 12827 00a8 00000000 		.4byte	.LFB19
 12828 00ac 0C000000 		.4byte	.LFE19-.LFB19
 12829 00b0 00000000 		.4byte	.LFB20
 12830 00b4 0C000000 		.4byte	.LFE20-.LFB20
 12831 00b8 00000000 		.4byte	.LFB21
 12832 00bc 0C000000 		.4byte	.LFE21-.LFB21
 12833 00c0 00000000 		.4byte	.LFB22
 12834 00c4 0C000000 		.4byte	.LFE22-.LFB22
 12835 00c8 00000000 		.4byte	.LFB23
 12836 00cc 0C000000 		.4byte	.LFE23-.LFB23
 12837 00d0 00000000 		.4byte	.LFB24
 12838 00d4 0C000000 		.4byte	.LFE24-.LFB24
 12839 00d8 00000000 		.4byte	.LFB25
 12840 00dc 0C000000 		.4byte	.LFE25-.LFB25
 12841 00e0 00000000 		.4byte	.LFB26
 12842 00e4 0C000000 		.4byte	.LFE26-.LFB26
 12843 00e8 00000000 		.4byte	.LFB27
 12844 00ec 0C000000 		.4byte	.LFE27-.LFB27
 12845 00f0 00000000 		.4byte	.LFB28
 12846 00f4 0C000000 		.4byte	.LFE28-.LFB28
 12847 00f8 00000000 		.4byte	.LFB29
 12848 00fc 0C000000 		.4byte	.LFE29-.LFB29
 12849 0100 00000000 		.4byte	.LFB30
 12850 0104 0C000000 		.4byte	.LFE30-.LFB30
 12851 0108 00000000 		.4byte	.LFB31
 12852 010c 0C000000 		.4byte	.LFE31-.LFB31
 12853 0110 00000000 		.4byte	.LFB32
 12854 0114 0C000000 		.4byte	.LFE32-.LFB32
 12855 0118 00000000 		.4byte	.LFB33
 12856 011c 0C000000 		.4byte	.LFE33-.LFB33
 12857 0120 00000000 		.4byte	.LFB34
 12858 0124 0C000000 		.4byte	.LFE34-.LFB34
 12859 0128 00000000 		.4byte	.LFB35
 12860 012c 0C000000 		.4byte	.LFE35-.LFB35
 12861 0130 00000000 		.4byte	.LFB36
 12862 0134 0C000000 		.4byte	.LFE36-.LFB36
 12863 0138 00000000 		.4byte	.LFB37
 12864 013c 0C000000 		.4byte	.LFE37-.LFB37
 12865 0140 00000000 		.4byte	.LFB38
 12866 0144 0C000000 		.4byte	.LFE38-.LFB38
 12867 0148 00000000 		.4byte	.LFB39
 12868 014c 0C000000 		.4byte	.LFE39-.LFB39
 12869 0150 00000000 		.4byte	.LFB40
 12870 0154 0C000000 		.4byte	.LFE40-.LFB40
 12871 0158 00000000 		.4byte	.LFB41
 12872 015c 0C000000 		.4byte	.LFE41-.LFB41
ARM GAS  C:\Users\jesse\AppData\Local\Temp\ccuy2FXa.s 			page 271


 12873 0160 00000000 		.4byte	.LFB42
 12874 0164 0C000000 		.4byte	.LFE42-.LFB42
 12875 0168 00000000 		.4byte	.LFB43
 12876 016c 0C000000 		.4byte	.LFE43-.LFB43
 12877 0170 00000000 		.4byte	.LFB44
 12878 0174 0C000000 		.4byte	.LFE44-.LFB44
 12879 0178 00000000 		.4byte	.LFB45
 12880 017c 0C000000 		.4byte	.LFE45-.LFB45
 12881 0180 00000000 		.4byte	.LFB46
 12882 0184 0C000000 		.4byte	.LFE46-.LFB46
 12883 0188 00000000 		.4byte	.LFB47
 12884 018c 0C000000 		.4byte	.LFE47-.LFB47
 12885 0190 00000000 		.4byte	.LFB48
 12886 0194 0C000000 		.4byte	.LFE48-.LFB48
 12887 0198 00000000 		.4byte	.LFB49
 12888 019c 0C000000 		.4byte	.LFE49-.LFB49
 12889 01a0 00000000 		.4byte	.LFB50
 12890 01a4 0C000000 		.4byte	.LFE50-.LFB50
 12891 01a8 00000000 		.4byte	.LFB51
 12892 01ac 0C000000 		.4byte	.LFE51-.LFB51
 12893 01b0 00000000 		.4byte	.LFB52
 12894 01b4 0C000000 		.4byte	.LFE52-.LFB52
 12895 01b8 00000000 		.4byte	.LFB53
 12896 01bc 0C000000 		.4byte	.LFE53-.LFB53
 12897 01c0 00000000 		.4byte	.LFB54
 12898 01c4 0C000000 		.4byte	.LFE54-.LFB54
 12899 01c8 00000000 		.4byte	.LFB55
 12900 01cc 0C000000 		.4byte	.LFE55-.LFB55
 12901 01d0 00000000 		.4byte	.LFB56
 12902 01d4 0C000000 		.4byte	.LFE56-.LFB56
 12903 01d8 00000000 		.4byte	.LFB57
 12904 01dc 0C000000 		.4byte	.LFE57-.LFB57
 12905 01e0 00000000 		.4byte	.LFB58
 12906 01e4 0C000000 		.4byte	.LFE58-.LFB58
 12907 01e8 00000000 		.4byte	.LFB59
 12908 01ec 0C000000 		.4byte	.LFE59-.LFB59
 12909 01f0 00000000 		.4byte	.LFB60
 12910 01f4 0C000000 		.4byte	.LFE60-.LFB60
 12911 01f8 00000000 		.4byte	.LFB61
 12912 01fc 0C000000 		.4byte	.LFE61-.LFB61
 12913 0200 00000000 		.4byte	.LFB62
 12914 0204 0C000000 		.4byte	.LFE62-.LFB62
 12915 0208 00000000 		.4byte	.LFB63
 12916 020c 0C000000 		.4byte	.LFE63-.LFB63
 12917 0210 00000000 		.4byte	.LFB64
 12918 0214 0C000000 		.4byte	.LFE64-.LFB64
 12919 0218 00000000 		.4byte	.LFB65
 12920 021c 0C000000 		.4byte	.LFE65-.LFB65
 12921 0220 00000000 		.4byte	.LFB66
 12922 0224 0C000000 		.4byte	.LFE66-.LFB66
 12923 0228 00000000 		.4byte	.LFB67
 12924 022c 0C000000 		.4byte	.LFE67-.LFB67
 12925 0230 00000000 		.4byte	.LFB68
 12926 0234 0C000000 		.4byte	.LFE68-.LFB68
 12927 0238 00000000 		.4byte	.LFB69
 12928 023c 0C000000 		.4byte	.LFE69-.LFB69
 12929 0240 00000000 		.4byte	.LFB70
ARM GAS  C:\Users\jesse\AppData\Local\Temp\ccuy2FXa.s 			page 272


 12930 0244 0C000000 		.4byte	.LFE70-.LFB70
 12931 0248 00000000 		.4byte	.LFB71
 12932 024c 0C000000 		.4byte	.LFE71-.LFB71
 12933 0250 00000000 		.4byte	.LFB72
 12934 0254 0C000000 		.4byte	.LFE72-.LFB72
 12935 0258 00000000 		.4byte	.LFB73
 12936 025c 0C000000 		.4byte	.LFE73-.LFB73
 12937 0260 00000000 		.4byte	.LFB74
 12938 0264 0C000000 		.4byte	.LFE74-.LFB74
 12939 0268 00000000 		.4byte	.LFB75
 12940 026c 0C000000 		.4byte	.LFE75-.LFB75
 12941 0270 00000000 		.4byte	.LFB76
 12942 0274 0C000000 		.4byte	.LFE76-.LFB76
 12943 0278 00000000 		.4byte	.LFB77
 12944 027c 0C000000 		.4byte	.LFE77-.LFB77
 12945 0280 00000000 		.4byte	.LFB78
 12946 0284 0C000000 		.4byte	.LFE78-.LFB78
 12947 0288 00000000 		.4byte	.LFB79
 12948 028c 0C000000 		.4byte	.LFE79-.LFB79
 12949 0290 00000000 		.4byte	.LFB80
 12950 0294 0C000000 		.4byte	.LFE80-.LFB80
 12951 0298 00000000 		.4byte	.LFB81
 12952 029c 0C000000 		.4byte	.LFE81-.LFB81
 12953 02a0 00000000 		.4byte	.LFB82
 12954 02a4 0C000000 		.4byte	.LFE82-.LFB82
 12955 02a8 00000000 		.4byte	.LFB83
 12956 02ac 0C000000 		.4byte	.LFE83-.LFB83
 12957 02b0 00000000 		.4byte	.LFB84
 12958 02b4 0C000000 		.4byte	.LFE84-.LFB84
 12959 02b8 00000000 		.4byte	.LFB85
 12960 02bc 0C000000 		.4byte	.LFE85-.LFB85
 12961 02c0 00000000 		.4byte	.LFB86
 12962 02c4 0C000000 		.4byte	.LFE86-.LFB86
 12963 02c8 00000000 		.4byte	.LFB87
 12964 02cc 0C000000 		.4byte	.LFE87-.LFB87
 12965 02d0 00000000 		.4byte	.LFB88
 12966 02d4 0C000000 		.4byte	.LFE88-.LFB88
 12967 02d8 00000000 		.4byte	.LFB89
 12968 02dc 0C000000 		.4byte	.LFE89-.LFB89
 12969 02e0 00000000 		.4byte	.LFB90
 12970 02e4 0C000000 		.4byte	.LFE90-.LFB90
 12971 02e8 00000000 		.4byte	.LFB91
 12972 02ec 0C000000 		.4byte	.LFE91-.LFB91
 12973 02f0 00000000 		.4byte	.LFB92
 12974 02f4 0C000000 		.4byte	.LFE92-.LFB92
 12975 02f8 00000000 		.4byte	.LFB93
 12976 02fc 0C000000 		.4byte	.LFE93-.LFB93
 12977 0300 00000000 		.4byte	.LFB94
 12978 0304 0C000000 		.4byte	.LFE94-.LFB94
 12979 0308 00000000 		.4byte	.LFB95
 12980 030c 0C000000 		.4byte	.LFE95-.LFB95
 12981 0310 00000000 		.4byte	.LFB96
 12982 0314 0C000000 		.4byte	.LFE96-.LFB96
 12983 0318 00000000 		.4byte	.LFB97
 12984 031c 0C000000 		.4byte	.LFE97-.LFB97
 12985 0320 00000000 		.4byte	.LFB98
 12986 0324 0C000000 		.4byte	.LFE98-.LFB98
ARM GAS  C:\Users\jesse\AppData\Local\Temp\ccuy2FXa.s 			page 273


 12987 0328 00000000 		.4byte	.LFB99
 12988 032c 0C000000 		.4byte	.LFE99-.LFB99
 12989 0330 00000000 		.4byte	.LFB100
 12990 0334 0C000000 		.4byte	.LFE100-.LFB100
 12991 0338 00000000 		.4byte	.LFB101
 12992 033c 0C000000 		.4byte	.LFE101-.LFB101
 12993 0340 00000000 		.4byte	.LFB102
 12994 0344 0C000000 		.4byte	.LFE102-.LFB102
 12995 0348 00000000 		.4byte	.LFB103
 12996 034c 0C000000 		.4byte	.LFE103-.LFB103
 12997 0350 00000000 		.4byte	.LFB104
 12998 0354 0C000000 		.4byte	.LFE104-.LFB104
 12999 0358 00000000 		.4byte	.LFB105
 13000 035c 0C000000 		.4byte	.LFE105-.LFB105
 13001 0360 00000000 		.4byte	.LFB106
 13002 0364 0C000000 		.4byte	.LFE106-.LFB106
 13003 0368 00000000 		.4byte	.LFB107
 13004 036c 0C000000 		.4byte	.LFE107-.LFB107
 13005 0370 00000000 		.4byte	.LFB108
 13006 0374 0C000000 		.4byte	.LFE108-.LFB108
 13007 0378 00000000 		.4byte	.LFB109
 13008 037c 0C000000 		.4byte	.LFE109-.LFB109
 13009 0380 00000000 		.4byte	.LFB110
 13010 0384 0C000000 		.4byte	.LFE110-.LFB110
 13011 0388 00000000 		.4byte	.LFB111
 13012 038c 0C000000 		.4byte	.LFE111-.LFB111
 13013 0390 00000000 		.4byte	.LFB112
 13014 0394 0C000000 		.4byte	.LFE112-.LFB112
 13015 0398 00000000 		.4byte	.LFB113
 13016 039c 0C000000 		.4byte	.LFE113-.LFB113
 13017 03a0 00000000 		.4byte	.LFB114
 13018 03a4 0C000000 		.4byte	.LFE114-.LFB114
 13019 03a8 00000000 		.4byte	.LFB115
 13020 03ac 0C000000 		.4byte	.LFE115-.LFB115
 13021 03b0 00000000 		.4byte	.LFB116
 13022 03b4 0C000000 		.4byte	.LFE116-.LFB116
 13023 03b8 00000000 		.4byte	.LFB117
 13024 03bc 0C000000 		.4byte	.LFE117-.LFB117
 13025 03c0 00000000 		.4byte	.LFB118
 13026 03c4 0C000000 		.4byte	.LFE118-.LFB118
 13027 03c8 00000000 		.4byte	.LFB119
 13028 03cc 0C000000 		.4byte	.LFE119-.LFB119
 13029 03d0 00000000 		.4byte	.LFB120
 13030 03d4 0C000000 		.4byte	.LFE120-.LFB120
 13031 03d8 00000000 		.4byte	.LFB121
 13032 03dc 0C000000 		.4byte	.LFE121-.LFB121
 13033 03e0 00000000 		.4byte	.LFB122
 13034 03e4 0C000000 		.4byte	.LFE122-.LFB122
 13035 03e8 00000000 		.4byte	.LFB123
 13036 03ec 0C000000 		.4byte	.LFE123-.LFB123
 13037 03f0 00000000 		.4byte	.LFB124
 13038 03f4 0C000000 		.4byte	.LFE124-.LFB124
 13039 03f8 00000000 		.4byte	.LFB125
 13040 03fc 0C000000 		.4byte	.LFE125-.LFB125
 13041 0400 00000000 		.4byte	.LFB126
 13042 0404 0C000000 		.4byte	.LFE126-.LFB126
 13043 0408 00000000 		.4byte	.LFB127
ARM GAS  C:\Users\jesse\AppData\Local\Temp\ccuy2FXa.s 			page 274


 13044 040c 0C000000 		.4byte	.LFE127-.LFB127
 13045 0410 00000000 		.4byte	.LFB128
 13046 0414 0C000000 		.4byte	.LFE128-.LFB128
 13047 0418 00000000 		.4byte	.LFB129
 13048 041c 0C000000 		.4byte	.LFE129-.LFB129
 13049 0420 00000000 		.4byte	.LFB130
 13050 0424 0C000000 		.4byte	.LFE130-.LFB130
 13051 0428 00000000 		.4byte	.LFB131
 13052 042c 0C000000 		.4byte	.LFE131-.LFB131
 13053 0430 00000000 		.4byte	.LFB132
 13054 0434 0C000000 		.4byte	.LFE132-.LFB132
 13055 0438 00000000 		.4byte	.LFB133
 13056 043c 0C000000 		.4byte	.LFE133-.LFB133
 13057 0440 00000000 		.4byte	.LFB134
 13058 0444 0C000000 		.4byte	.LFE134-.LFB134
 13059 0448 00000000 		.4byte	.LFB135
 13060 044c 0C000000 		.4byte	.LFE135-.LFB135
 13061 0450 00000000 		.4byte	.LFB136
 13062 0454 0C000000 		.4byte	.LFE136-.LFB136
 13063 0458 00000000 		.4byte	.LFB137
 13064 045c 0C000000 		.4byte	.LFE137-.LFB137
 13065 0460 00000000 		.4byte	.LFB138
 13066 0464 0C000000 		.4byte	.LFE138-.LFB138
 13067 0468 00000000 		.4byte	.LFB139
 13068 046c 0C000000 		.4byte	.LFE139-.LFB139
 13069 0470 00000000 		.4byte	.LFB140
 13070 0474 0C000000 		.4byte	.LFE140-.LFB140
 13071 0478 00000000 		.4byte	.LFB141
 13072 047c 0C000000 		.4byte	.LFE141-.LFB141
 13073 0480 00000000 		.4byte	.LFB142
 13074 0484 0C000000 		.4byte	.LFE142-.LFB142
 13075 0488 00000000 		.4byte	.LFB143
 13076 048c 0C000000 		.4byte	.LFE143-.LFB143
 13077 0490 00000000 		.4byte	.LFB144
 13078 0494 0C000000 		.4byte	.LFE144-.LFB144
 13079 0498 00000000 		.4byte	.LFB145
 13080 049c 0C000000 		.4byte	.LFE145-.LFB145
 13081 04a0 00000000 		.4byte	.LFB146
 13082 04a4 0C000000 		.4byte	.LFE146-.LFB146
 13083 04a8 00000000 		.4byte	.LFB147
 13084 04ac 0C000000 		.4byte	.LFE147-.LFB147
 13085 04b0 00000000 		.4byte	.LFB148
 13086 04b4 0C000000 		.4byte	.LFE148-.LFB148
 13087 04b8 00000000 		.4byte	.LFB149
 13088 04bc 0C000000 		.4byte	.LFE149-.LFB149
 13089 04c0 00000000 		.4byte	.LFB150
 13090 04c4 0C000000 		.4byte	.LFE150-.LFB150
 13091 04c8 00000000 		.4byte	.LFB151
 13092 04cc 0C000000 		.4byte	.LFE151-.LFB151
 13093 04d0 00000000 		.4byte	.LFB152
 13094 04d4 0C000000 		.4byte	.LFE152-.LFB152
 13095 04d8 00000000 		.4byte	.LFB153
 13096 04dc 0C000000 		.4byte	.LFE153-.LFB153
 13097 04e0 00000000 		.4byte	.LFB154
 13098 04e4 0C000000 		.4byte	.LFE154-.LFB154
 13099 04e8 00000000 		.4byte	.LFB155
 13100 04ec 0C000000 		.4byte	.LFE155-.LFB155
ARM GAS  C:\Users\jesse\AppData\Local\Temp\ccuy2FXa.s 			page 275


 13101 04f0 00000000 		.4byte	.LFB156
 13102 04f4 0C000000 		.4byte	.LFE156-.LFB156
 13103 04f8 00000000 		.4byte	.LFB157
 13104 04fc 0C000000 		.4byte	.LFE157-.LFB157
 13105 0500 00000000 		.4byte	.LFB158
 13106 0504 0C000000 		.4byte	.LFE158-.LFB158
 13107 0508 00000000 		.4byte	.LFB159
 13108 050c 0C000000 		.4byte	.LFE159-.LFB159
 13109 0510 00000000 		.4byte	.LFB160
 13110 0514 0C000000 		.4byte	.LFE160-.LFB160
 13111 0518 00000000 		.4byte	.LFB161
 13112 051c 0C000000 		.4byte	.LFE161-.LFB161
 13113 0520 00000000 		.4byte	.LFB162
 13114 0524 0C000000 		.4byte	.LFE162-.LFB162
 13115 0528 00000000 		.4byte	.LFB163
 13116 052c 0C000000 		.4byte	.LFE163-.LFB163
 13117 0530 00000000 		.4byte	.LFB164
 13118 0534 0C000000 		.4byte	.LFE164-.LFB164
 13119 0538 00000000 		.4byte	.LFB165
 13120 053c 0C000000 		.4byte	.LFE165-.LFB165
 13121 0540 00000000 		.4byte	.LFB166
 13122 0544 0C000000 		.4byte	.LFE166-.LFB166
 13123 0548 00000000 		.4byte	.LFB167
 13124 054c 0C000000 		.4byte	.LFE167-.LFB167
 13125 0550 00000000 		.4byte	0
 13126 0554 00000000 		.4byte	0
 13127              		.section	.debug_ranges,"",%progbits
 13128              	.Ldebug_ranges0:
 13129 0000 00000000 		.4byte	.LFB0
 13130 0004 0C000000 		.4byte	.LFE0
 13131 0008 00000000 		.4byte	.LFB1
 13132 000c 0C000000 		.4byte	.LFE1
 13133 0010 00000000 		.4byte	.LFB2
 13134 0014 0C000000 		.4byte	.LFE2
 13135 0018 00000000 		.4byte	.LFB3
 13136 001c 0C000000 		.4byte	.LFE3
 13137 0020 00000000 		.4byte	.LFB4
 13138 0024 0C000000 		.4byte	.LFE4
 13139 0028 00000000 		.4byte	.LFB5
 13140 002c 0C000000 		.4byte	.LFE5
 13141 0030 00000000 		.4byte	.LFB6
 13142 0034 0C000000 		.4byte	.LFE6
 13143 0038 00000000 		.4byte	.LFB7
 13144 003c 0C000000 		.4byte	.LFE7
 13145 0040 00000000 		.4byte	.LFB8
 13146 0044 0C000000 		.4byte	.LFE8
 13147 0048 00000000 		.4byte	.LFB9
 13148 004c 0C000000 		.4byte	.LFE9
 13149 0050 00000000 		.4byte	.LFB10
 13150 0054 0C000000 		.4byte	.LFE10
 13151 0058 00000000 		.4byte	.LFB11
 13152 005c 0C000000 		.4byte	.LFE11
 13153 0060 00000000 		.4byte	.LFB12
 13154 0064 0C000000 		.4byte	.LFE12
 13155 0068 00000000 		.4byte	.LFB13
 13156 006c 0C000000 		.4byte	.LFE13
 13157 0070 00000000 		.4byte	.LFB14
ARM GAS  C:\Users\jesse\AppData\Local\Temp\ccuy2FXa.s 			page 276


 13158 0074 0C000000 		.4byte	.LFE14
 13159 0078 00000000 		.4byte	.LFB15
 13160 007c 0C000000 		.4byte	.LFE15
 13161 0080 00000000 		.4byte	.LFB16
 13162 0084 0C000000 		.4byte	.LFE16
 13163 0088 00000000 		.4byte	.LFB17
 13164 008c 0C000000 		.4byte	.LFE17
 13165 0090 00000000 		.4byte	.LFB18
 13166 0094 0C000000 		.4byte	.LFE18
 13167 0098 00000000 		.4byte	.LFB19
 13168 009c 0C000000 		.4byte	.LFE19
 13169 00a0 00000000 		.4byte	.LFB20
 13170 00a4 0C000000 		.4byte	.LFE20
 13171 00a8 00000000 		.4byte	.LFB21
 13172 00ac 0C000000 		.4byte	.LFE21
 13173 00b0 00000000 		.4byte	.LFB22
 13174 00b4 0C000000 		.4byte	.LFE22
 13175 00b8 00000000 		.4byte	.LFB23
 13176 00bc 0C000000 		.4byte	.LFE23
 13177 00c0 00000000 		.4byte	.LFB24
 13178 00c4 0C000000 		.4byte	.LFE24
 13179 00c8 00000000 		.4byte	.LFB25
 13180 00cc 0C000000 		.4byte	.LFE25
 13181 00d0 00000000 		.4byte	.LFB26
 13182 00d4 0C000000 		.4byte	.LFE26
 13183 00d8 00000000 		.4byte	.LFB27
 13184 00dc 0C000000 		.4byte	.LFE27
 13185 00e0 00000000 		.4byte	.LFB28
 13186 00e4 0C000000 		.4byte	.LFE28
 13187 00e8 00000000 		.4byte	.LFB29
 13188 00ec 0C000000 		.4byte	.LFE29
 13189 00f0 00000000 		.4byte	.LFB30
 13190 00f4 0C000000 		.4byte	.LFE30
 13191 00f8 00000000 		.4byte	.LFB31
 13192 00fc 0C000000 		.4byte	.LFE31
 13193 0100 00000000 		.4byte	.LFB32
 13194 0104 0C000000 		.4byte	.LFE32
 13195 0108 00000000 		.4byte	.LFB33
 13196 010c 0C000000 		.4byte	.LFE33
 13197 0110 00000000 		.4byte	.LFB34
 13198 0114 0C000000 		.4byte	.LFE34
 13199 0118 00000000 		.4byte	.LFB35
 13200 011c 0C000000 		.4byte	.LFE35
 13201 0120 00000000 		.4byte	.LFB36
 13202 0124 0C000000 		.4byte	.LFE36
 13203 0128 00000000 		.4byte	.LFB37
 13204 012c 0C000000 		.4byte	.LFE37
 13205 0130 00000000 		.4byte	.LFB38
 13206 0134 0C000000 		.4byte	.LFE38
 13207 0138 00000000 		.4byte	.LFB39
 13208 013c 0C000000 		.4byte	.LFE39
 13209 0140 00000000 		.4byte	.LFB40
 13210 0144 0C000000 		.4byte	.LFE40
 13211 0148 00000000 		.4byte	.LFB41
 13212 014c 0C000000 		.4byte	.LFE41
 13213 0150 00000000 		.4byte	.LFB42
 13214 0154 0C000000 		.4byte	.LFE42
ARM GAS  C:\Users\jesse\AppData\Local\Temp\ccuy2FXa.s 			page 277


 13215 0158 00000000 		.4byte	.LFB43
 13216 015c 0C000000 		.4byte	.LFE43
 13217 0160 00000000 		.4byte	.LFB44
 13218 0164 0C000000 		.4byte	.LFE44
 13219 0168 00000000 		.4byte	.LFB45
 13220 016c 0C000000 		.4byte	.LFE45
 13221 0170 00000000 		.4byte	.LFB46
 13222 0174 0C000000 		.4byte	.LFE46
 13223 0178 00000000 		.4byte	.LFB47
 13224 017c 0C000000 		.4byte	.LFE47
 13225 0180 00000000 		.4byte	.LFB48
 13226 0184 0C000000 		.4byte	.LFE48
 13227 0188 00000000 		.4byte	.LFB49
 13228 018c 0C000000 		.4byte	.LFE49
 13229 0190 00000000 		.4byte	.LFB50
 13230 0194 0C000000 		.4byte	.LFE50
 13231 0198 00000000 		.4byte	.LFB51
 13232 019c 0C000000 		.4byte	.LFE51
 13233 01a0 00000000 		.4byte	.LFB52
 13234 01a4 0C000000 		.4byte	.LFE52
 13235 01a8 00000000 		.4byte	.LFB53
 13236 01ac 0C000000 		.4byte	.LFE53
 13237 01b0 00000000 		.4byte	.LFB54
 13238 01b4 0C000000 		.4byte	.LFE54
 13239 01b8 00000000 		.4byte	.LFB55
 13240 01bc 0C000000 		.4byte	.LFE55
 13241 01c0 00000000 		.4byte	.LFB56
 13242 01c4 0C000000 		.4byte	.LFE56
 13243 01c8 00000000 		.4byte	.LFB57
 13244 01cc 0C000000 		.4byte	.LFE57
 13245 01d0 00000000 		.4byte	.LFB58
 13246 01d4 0C000000 		.4byte	.LFE58
 13247 01d8 00000000 		.4byte	.LFB59
 13248 01dc 0C000000 		.4byte	.LFE59
 13249 01e0 00000000 		.4byte	.LFB60
 13250 01e4 0C000000 		.4byte	.LFE60
 13251 01e8 00000000 		.4byte	.LFB61
 13252 01ec 0C000000 		.4byte	.LFE61
 13253 01f0 00000000 		.4byte	.LFB62
 13254 01f4 0C000000 		.4byte	.LFE62
 13255 01f8 00000000 		.4byte	.LFB63
 13256 01fc 0C000000 		.4byte	.LFE63
 13257 0200 00000000 		.4byte	.LFB64
 13258 0204 0C000000 		.4byte	.LFE64
 13259 0208 00000000 		.4byte	.LFB65
 13260 020c 0C000000 		.4byte	.LFE65
 13261 0210 00000000 		.4byte	.LFB66
 13262 0214 0C000000 		.4byte	.LFE66
 13263 0218 00000000 		.4byte	.LFB67
 13264 021c 0C000000 		.4byte	.LFE67
 13265 0220 00000000 		.4byte	.LFB68
 13266 0224 0C000000 		.4byte	.LFE68
 13267 0228 00000000 		.4byte	.LFB69
 13268 022c 0C000000 		.4byte	.LFE69
 13269 0230 00000000 		.4byte	.LFB70
 13270 0234 0C000000 		.4byte	.LFE70
 13271 0238 00000000 		.4byte	.LFB71
ARM GAS  C:\Users\jesse\AppData\Local\Temp\ccuy2FXa.s 			page 278


 13272 023c 0C000000 		.4byte	.LFE71
 13273 0240 00000000 		.4byte	.LFB72
 13274 0244 0C000000 		.4byte	.LFE72
 13275 0248 00000000 		.4byte	.LFB73
 13276 024c 0C000000 		.4byte	.LFE73
 13277 0250 00000000 		.4byte	.LFB74
 13278 0254 0C000000 		.4byte	.LFE74
 13279 0258 00000000 		.4byte	.LFB75
 13280 025c 0C000000 		.4byte	.LFE75
 13281 0260 00000000 		.4byte	.LFB76
 13282 0264 0C000000 		.4byte	.LFE76
 13283 0268 00000000 		.4byte	.LFB77
 13284 026c 0C000000 		.4byte	.LFE77
 13285 0270 00000000 		.4byte	.LFB78
 13286 0274 0C000000 		.4byte	.LFE78
 13287 0278 00000000 		.4byte	.LFB79
 13288 027c 0C000000 		.4byte	.LFE79
 13289 0280 00000000 		.4byte	.LFB80
 13290 0284 0C000000 		.4byte	.LFE80
 13291 0288 00000000 		.4byte	.LFB81
 13292 028c 0C000000 		.4byte	.LFE81
 13293 0290 00000000 		.4byte	.LFB82
 13294 0294 0C000000 		.4byte	.LFE82
 13295 0298 00000000 		.4byte	.LFB83
 13296 029c 0C000000 		.4byte	.LFE83
 13297 02a0 00000000 		.4byte	.LFB84
 13298 02a4 0C000000 		.4byte	.LFE84
 13299 02a8 00000000 		.4byte	.LFB85
 13300 02ac 0C000000 		.4byte	.LFE85
 13301 02b0 00000000 		.4byte	.LFB86
 13302 02b4 0C000000 		.4byte	.LFE86
 13303 02b8 00000000 		.4byte	.LFB87
 13304 02bc 0C000000 		.4byte	.LFE87
 13305 02c0 00000000 		.4byte	.LFB88
 13306 02c4 0C000000 		.4byte	.LFE88
 13307 02c8 00000000 		.4byte	.LFB89
 13308 02cc 0C000000 		.4byte	.LFE89
 13309 02d0 00000000 		.4byte	.LFB90
 13310 02d4 0C000000 		.4byte	.LFE90
 13311 02d8 00000000 		.4byte	.LFB91
 13312 02dc 0C000000 		.4byte	.LFE91
 13313 02e0 00000000 		.4byte	.LFB92
 13314 02e4 0C000000 		.4byte	.LFE92
 13315 02e8 00000000 		.4byte	.LFB93
 13316 02ec 0C000000 		.4byte	.LFE93
 13317 02f0 00000000 		.4byte	.LFB94
 13318 02f4 0C000000 		.4byte	.LFE94
 13319 02f8 00000000 		.4byte	.LFB95
 13320 02fc 0C000000 		.4byte	.LFE95
 13321 0300 00000000 		.4byte	.LFB96
 13322 0304 0C000000 		.4byte	.LFE96
 13323 0308 00000000 		.4byte	.LFB97
 13324 030c 0C000000 		.4byte	.LFE97
 13325 0310 00000000 		.4byte	.LFB98
 13326 0314 0C000000 		.4byte	.LFE98
 13327 0318 00000000 		.4byte	.LFB99
 13328 031c 0C000000 		.4byte	.LFE99
ARM GAS  C:\Users\jesse\AppData\Local\Temp\ccuy2FXa.s 			page 279


 13329 0320 00000000 		.4byte	.LFB100
 13330 0324 0C000000 		.4byte	.LFE100
 13331 0328 00000000 		.4byte	.LFB101
 13332 032c 0C000000 		.4byte	.LFE101
 13333 0330 00000000 		.4byte	.LFB102
 13334 0334 0C000000 		.4byte	.LFE102
 13335 0338 00000000 		.4byte	.LFB103
 13336 033c 0C000000 		.4byte	.LFE103
 13337 0340 00000000 		.4byte	.LFB104
 13338 0344 0C000000 		.4byte	.LFE104
 13339 0348 00000000 		.4byte	.LFB105
 13340 034c 0C000000 		.4byte	.LFE105
 13341 0350 00000000 		.4byte	.LFB106
 13342 0354 0C000000 		.4byte	.LFE106
 13343 0358 00000000 		.4byte	.LFB107
 13344 035c 0C000000 		.4byte	.LFE107
 13345 0360 00000000 		.4byte	.LFB108
 13346 0364 0C000000 		.4byte	.LFE108
 13347 0368 00000000 		.4byte	.LFB109
 13348 036c 0C000000 		.4byte	.LFE109
 13349 0370 00000000 		.4byte	.LFB110
 13350 0374 0C000000 		.4byte	.LFE110
 13351 0378 00000000 		.4byte	.LFB111
 13352 037c 0C000000 		.4byte	.LFE111
 13353 0380 00000000 		.4byte	.LFB112
 13354 0384 0C000000 		.4byte	.LFE112
 13355 0388 00000000 		.4byte	.LFB113
 13356 038c 0C000000 		.4byte	.LFE113
 13357 0390 00000000 		.4byte	.LFB114
 13358 0394 0C000000 		.4byte	.LFE114
 13359 0398 00000000 		.4byte	.LFB115
 13360 039c 0C000000 		.4byte	.LFE115
 13361 03a0 00000000 		.4byte	.LFB116
 13362 03a4 0C000000 		.4byte	.LFE116
 13363 03a8 00000000 		.4byte	.LFB117
 13364 03ac 0C000000 		.4byte	.LFE117
 13365 03b0 00000000 		.4byte	.LFB118
 13366 03b4 0C000000 		.4byte	.LFE118
 13367 03b8 00000000 		.4byte	.LFB119
 13368 03bc 0C000000 		.4byte	.LFE119
 13369 03c0 00000000 		.4byte	.LFB120
 13370 03c4 0C000000 		.4byte	.LFE120
 13371 03c8 00000000 		.4byte	.LFB121
 13372 03cc 0C000000 		.4byte	.LFE121
 13373 03d0 00000000 		.4byte	.LFB122
 13374 03d4 0C000000 		.4byte	.LFE122
 13375 03d8 00000000 		.4byte	.LFB123
 13376 03dc 0C000000 		.4byte	.LFE123
 13377 03e0 00000000 		.4byte	.LFB124
 13378 03e4 0C000000 		.4byte	.LFE124
 13379 03e8 00000000 		.4byte	.LFB125
 13380 03ec 0C000000 		.4byte	.LFE125
 13381 03f0 00000000 		.4byte	.LFB126
 13382 03f4 0C000000 		.4byte	.LFE126
 13383 03f8 00000000 		.4byte	.LFB127
 13384 03fc 0C000000 		.4byte	.LFE127
 13385 0400 00000000 		.4byte	.LFB128
ARM GAS  C:\Users\jesse\AppData\Local\Temp\ccuy2FXa.s 			page 280


 13386 0404 0C000000 		.4byte	.LFE128
 13387 0408 00000000 		.4byte	.LFB129
 13388 040c 0C000000 		.4byte	.LFE129
 13389 0410 00000000 		.4byte	.LFB130
 13390 0414 0C000000 		.4byte	.LFE130
 13391 0418 00000000 		.4byte	.LFB131
 13392 041c 0C000000 		.4byte	.LFE131
 13393 0420 00000000 		.4byte	.LFB132
 13394 0424 0C000000 		.4byte	.LFE132
 13395 0428 00000000 		.4byte	.LFB133
 13396 042c 0C000000 		.4byte	.LFE133
 13397 0430 00000000 		.4byte	.LFB134
 13398 0434 0C000000 		.4byte	.LFE134
 13399 0438 00000000 		.4byte	.LFB135
 13400 043c 0C000000 		.4byte	.LFE135
 13401 0440 00000000 		.4byte	.LFB136
 13402 0444 0C000000 		.4byte	.LFE136
 13403 0448 00000000 		.4byte	.LFB137
 13404 044c 0C000000 		.4byte	.LFE137
 13405 0450 00000000 		.4byte	.LFB138
 13406 0454 0C000000 		.4byte	.LFE138
 13407 0458 00000000 		.4byte	.LFB139
 13408 045c 0C000000 		.4byte	.LFE139
 13409 0460 00000000 		.4byte	.LFB140
 13410 0464 0C000000 		.4byte	.LFE140
 13411 0468 00000000 		.4byte	.LFB141
 13412 046c 0C000000 		.4byte	.LFE141
 13413 0470 00000000 		.4byte	.LFB142
 13414 0474 0C000000 		.4byte	.LFE142
 13415 0478 00000000 		.4byte	.LFB143
 13416 047c 0C000000 		.4byte	.LFE143
 13417 0480 00000000 		.4byte	.LFB144
 13418 0484 0C000000 		.4byte	.LFE144
 13419 0488 00000000 		.4byte	.LFB145
 13420 048c 0C000000 		.4byte	.LFE145
 13421 0490 00000000 		.4byte	.LFB146
 13422 0494 0C000000 		.4byte	.LFE146
 13423 0498 00000000 		.4byte	.LFB147
 13424 049c 0C000000 		.4byte	.LFE147
 13425 04a0 00000000 		.4byte	.LFB148
 13426 04a4 0C000000 		.4byte	.LFE148
 13427 04a8 00000000 		.4byte	.LFB149
 13428 04ac 0C000000 		.4byte	.LFE149
 13429 04b0 00000000 		.4byte	.LFB150
 13430 04b4 0C000000 		.4byte	.LFE150
 13431 04b8 00000000 		.4byte	.LFB151
 13432 04bc 0C000000 		.4byte	.LFE151
 13433 04c0 00000000 		.4byte	.LFB152
 13434 04c4 0C000000 		.4byte	.LFE152
 13435 04c8 00000000 		.4byte	.LFB153
 13436 04cc 0C000000 		.4byte	.LFE153
 13437 04d0 00000000 		.4byte	.LFB154
 13438 04d4 0C000000 		.4byte	.LFE154
 13439 04d8 00000000 		.4byte	.LFB155
 13440 04dc 0C000000 		.4byte	.LFE155
 13441 04e0 00000000 		.4byte	.LFB156
 13442 04e4 0C000000 		.4byte	.LFE156
ARM GAS  C:\Users\jesse\AppData\Local\Temp\ccuy2FXa.s 			page 281


 13443 04e8 00000000 		.4byte	.LFB157
 13444 04ec 0C000000 		.4byte	.LFE157
 13445 04f0 00000000 		.4byte	.LFB158
 13446 04f4 0C000000 		.4byte	.LFE158
 13447 04f8 00000000 		.4byte	.LFB159
 13448 04fc 0C000000 		.4byte	.LFE159
 13449 0500 00000000 		.4byte	.LFB160
 13450 0504 0C000000 		.4byte	.LFE160
 13451 0508 00000000 		.4byte	.LFB161
 13452 050c 0C000000 		.4byte	.LFE161
 13453 0510 00000000 		.4byte	.LFB162
 13454 0514 0C000000 		.4byte	.LFE162
 13455 0518 00000000 		.4byte	.LFB163
 13456 051c 0C000000 		.4byte	.LFE163
 13457 0520 00000000 		.4byte	.LFB164
 13458 0524 0C000000 		.4byte	.LFE164
 13459 0528 00000000 		.4byte	.LFB165
 13460 052c 0C000000 		.4byte	.LFE165
 13461 0530 00000000 		.4byte	.LFB166
 13462 0534 0C000000 		.4byte	.LFE166
 13463 0538 00000000 		.4byte	.LFB167
 13464 053c 0C000000 		.4byte	.LFE167
 13465 0540 00000000 		.4byte	0
 13466 0544 00000000 		.4byte	0
 13467              		.section	.debug_line,"",%progbits
 13468              	.Ldebug_line0:
 13469 0000 090D0000 		.section	.debug_str,"MS",%progbits,1
 13469      02003B01 
 13469      00000201 
 13469      FB0E0D00 
 13469      01010101 
 13470              	.LASF160:
 13471 0000 75386732 		.ascii	"u8g2_m_25_25_f\000"
 13471      5F6D5F32 
 13471      355F3235 
 13471      5F6600
 13472              	.LASF76:
 13473 000f 75386732 		.ascii	"u8g2_m_20_4_f\000"
 13473      5F6D5F32 
 13473      305F345F 
 13473      6600
 13474              	.LASF26:
 13475 001d 75386732 		.ascii	"u8g2_m_12_5_1\000"
 13475      5F6D5F31 
 13475      325F355F 
 13475      3100
 13476              	.LASF27:
 13477 002b 75386732 		.ascii	"u8g2_m_12_5_2\000"
 13477      5F6D5F31 
 13477      325F355F 
 13477      3200
 13478              	.LASF133:
 13479 0039 75386732 		.ascii	"u8g2_m_48_17_f\000"
 13479      5F6D5F34 
 13479      385F3137 
 13479      5F6600
 13480              	.LASF115:
ARM GAS  C:\Users\jesse\AppData\Local\Temp\ccuy2FXa.s 			page 282


 13481 0048 75386732 		.ascii	"u8g2_m_30_20_f\000"
 13481      5F6D5F33 
 13481      305F3230 
 13481      5F6600
 13482              	.LASF8:
 13483 0057 756E7369 		.ascii	"unsigned int\000"
 13483      676E6564 
 13483      20696E74 
 13483      00
 13484              	.LASF152:
 13485 0064 75386732 		.ascii	"u8g2_m_20_17_1\000"
 13485      5F6D5F32 
 13485      305F3137 
 13485      5F3100
 13486              	.LASF153:
 13487 0073 75386732 		.ascii	"u8g2_m_20_17_2\000"
 13487      5F6D5F32 
 13487      305F3137 
 13487      5F3200
 13488              	.LASF128:
 13489 0082 75386732 		.ascii	"u8g2_m_17_8_1\000"
 13489      5F6D5F31 
 13489      375F385F 
 13489      3100
 13490              	.LASF53:
 13491 0090 75386732 		.ascii	"u8g2_m_8_6_1\000"
 13491      5F6D5F38 
 13491      5F365F31 
 13491      00
 13492              	.LASF54:
 13493 009d 75386732 		.ascii	"u8g2_m_8_6_2\000"
 13493      5F6D5F38 
 13493      5F365F32 
 13493      00
 13494              	.LASF28:
 13495 00aa 75386732 		.ascii	"u8g2_m_12_5_f\000"
 13495      5F6D5F31 
 13495      325F355F 
 13495      6600
 13496              	.LASF164:
 13497 00b8 75386732 		.ascii	"u8g2_m_8_1_1\000"
 13497      5F6D5F38 
 13497      5F315F31 
 13497      00
 13498              	.LASF165:
 13499 00c5 75386732 		.ascii	"u8g2_m_8_1_2\000"
 13499      5F6D5F38 
 13499      5F315F32 
 13499      00
 13500              	.LASF176:
 13501 00d2 75386732 		.ascii	"u8g2_m_32_7_1\000"
 13501      5F6D5F33 
 13501      325F375F 
 13501      3100
 13502              	.LASF38:
 13503 00e0 75386732 		.ascii	"u8g2_m_10_16_1\000"
 13503      5F6D5F31 
ARM GAS  C:\Users\jesse\AppData\Local\Temp\ccuy2FXa.s 			page 283


 13503      305F3136 
 13503      5F3100
 13504              	.LASF39:
 13505 00ef 75386732 		.ascii	"u8g2_m_10_16_2\000"
 13505      5F6D5F31 
 13505      305F3136 
 13505      5F3200
 13506              	.LASF154:
 13507 00fe 75386732 		.ascii	"u8g2_m_20_17_f\000"
 13507      5F6D5F32 
 13507      305F3137 
 13507      5F6600
 13508              	.LASF55:
 13509 010d 75386732 		.ascii	"u8g2_m_8_6_f\000"
 13509      5F6D5F38 
 13509      5F365F66 
 13509      00
 13510              	.LASF80:
 13511 011a 75386732 		.ascii	"u8g2_m_50_30_1\000"
 13511      5F6D5F35 
 13511      305F3330 
 13511      5F3100
 13512              	.LASF81:
 13513 0129 75386732 		.ascii	"u8g2_m_50_30_2\000"
 13513      5F6D5F35 
 13513      305F3330 
 13513      5F3200
 13514              	.LASF65:
 13515 0138 75386732 		.ascii	"u8g2_m_16_12_1\000"
 13515      5F6D5F31 
 13515      365F3132 
 13515      5F3100
 13516              	.LASF66:
 13517 0147 75386732 		.ascii	"u8g2_m_16_12_2\000"
 13517      5F6D5F31 
 13517      365F3132 
 13517      5F3200
 13518              	.LASF136:
 13519 0156 75386732 		.ascii	"u8g2_m_48_20_f\000"
 13519      5F6D5F34 
 13519      385F3230 
 13519      5F6600
 13520              	.LASF166:
 13521 0165 75386732 		.ascii	"u8g2_m_8_1_f\000"
 13521      5F6D5F38 
 13521      5F315F66 
 13521      00
 13522              	.LASF178:
 13523 0172 75386732 		.ascii	"u8g2_m_32_7_f\000"
 13523      5F6D5F33 
 13523      325F375F 
 13523      6600
 13524              	.LASF40:
 13525 0180 75386732 		.ascii	"u8g2_m_10_16_f\000"
 13525      5F6D5F31 
 13525      305F3136 
 13525      5F6600
ARM GAS  C:\Users\jesse\AppData\Local\Temp\ccuy2FXa.s 			page 284


 13526              	.LASF92:
 13527 018f 75386732 		.ascii	"u8g2_m_24_8_1\000"
 13527      5F6D5F32 
 13527      345F385F 
 13527      3100
 13528              	.LASF93:
 13529 019d 75386732 		.ascii	"u8g2_m_24_8_2\000"
 13529      5F6D5F32 
 13529      345F385F 
 13529      3200
 13530              	.LASF130:
 13531 01ab 75386732 		.ascii	"u8g2_m_17_8_f\000"
 13531      5F6D5F31 
 13531      375F385F 
 13531      6600
 13532              	.LASF149:
 13533 01b9 75386732 		.ascii	"u8g2_m_20_10_1\000"
 13533      5F6D5F32 
 13533      305F3130 
 13533      5F3100
 13534              	.LASF150:
 13535 01c8 75386732 		.ascii	"u8g2_m_20_10_2\000"
 13535      5F6D5F32 
 13535      305F3130 
 13535      5F3200
 13536              	.LASF173:
 13537 01d7 75386732 		.ascii	"u8g2_m_20_2_1\000"
 13537      5F6D5F32 
 13537      305F325F 
 13537      3100
 13538              	.LASF174:
 13539 01e5 75386732 		.ascii	"u8g2_m_20_2_2\000"
 13539      5F6D5F32 
 13539      305F325F 
 13539      3200
 13540              	.LASF138:
 13541 01f3 75386732 		.ascii	"u8g2_m_20_12_2\000"
 13541      5F6D5F32 
 13541      305F3132 
 13541      5F3200
 13542              	.LASF82:
 13543 0202 75386732 		.ascii	"u8g2_m_50_30_f\000"
 13543      5F6D5F35 
 13543      305F3330 
 13543      5F6600
 13544              	.LASF67:
 13545 0211 75386732 		.ascii	"u8g2_m_16_12_f\000"
 13545      5F6D5F31 
 13545      365F3132 
 13545      5F6600
 13546              	.LASF146:
 13547 0220 75386732 		.ascii	"u8g2_m_19_4_1\000"
 13547      5F6D5F31 
 13547      395F345F 
 13547      3100
 13548              	.LASF147:
 13549 022e 75386732 		.ascii	"u8g2_m_19_4_2\000"
ARM GAS  C:\Users\jesse\AppData\Local\Temp\ccuy2FXa.s 			page 285


 13549      5F6D5F31 
 13549      395F345F 
 13549      3200
 13550              	.LASF95:
 13551 023c 75386732 		.ascii	"u8g2_m_30_8_1\000"
 13551      5F6D5F33 
 13551      305F385F 
 13551      3100
 13552              	.LASF96:
 13553 024a 75386732 		.ascii	"u8g2_m_30_8_2\000"
 13553      5F6D5F33 
 13553      305F385F 
 13553      3200
 13554              	.LASF94:
 13555 0258 75386732 		.ascii	"u8g2_m_24_8_f\000"
 13555      5F6D5F32 
 13555      345F385F 
 13555      6600
 13556              	.LASF71:
 13557 0266 75386732 		.ascii	"u8g2_m_12_8_1\000"
 13557      5F6D5F31 
 13557      325F385F 
 13557      3100
 13558              	.LASF72:
 13559 0274 75386732 		.ascii	"u8g2_m_12_8_2\000"
 13559      5F6D5F31 
 13559      325F385F 
 13559      3200
 13560              	.LASF175:
 13561 0282 75386732 		.ascii	"u8g2_m_20_2_f\000"
 13561      5F6D5F32 
 13561      305F325F 
 13561      6600
 13562              	.LASF7:
 13563 0290 6C6F6E67 		.ascii	"long long unsigned int\000"
 13563      206C6F6E 
 13563      6720756E 
 13563      7369676E 
 13563      65642069 
 13564              	.LASF101:
 13565 02a7 75386732 		.ascii	"u8g2_m_30_16_1\000"
 13565      5F6D5F33 
 13565      305F3136 
 13565      5F3100
 13566              	.LASF102:
 13567 02b6 75386732 		.ascii	"u8g2_m_30_16_2\000"
 13567      5F6D5F33 
 13567      305F3136 
 13567      5F3200
 13568              	.LASF13:
 13569 02c5 75386732 		.ascii	"u8g2_m_16_4_1\000"
 13569      5F6D5F31 
 13569      365F345F 
 13569      3100
 13570              	.LASF14:
 13571 02d3 75386732 		.ascii	"u8g2_m_16_4_2\000"
 13571      5F6D5F31 
ARM GAS  C:\Users\jesse\AppData\Local\Temp\ccuy2FXa.s 			page 286


 13571      365F345F 
 13571      3200
 13572              	.LASF148:
 13573 02e1 75386732 		.ascii	"u8g2_m_19_4_f\000"
 13573      5F6D5F31 
 13573      395F345F 
 13573      6600
 13574              	.LASF97:
 13575 02ef 75386732 		.ascii	"u8g2_m_30_8_f\000"
 13575      5F6D5F33 
 13575      305F385F 
 13575      6600
 13576              	.LASF155:
 13577 02fd 75386732 		.ascii	"u8g2_m_22_9_1\000"
 13577      5F6D5F32 
 13577      325F395F 
 13577      3100
 13578              	.LASF156:
 13579 030b 75386732 		.ascii	"u8g2_m_22_9_2\000"
 13579      5F6D5F32 
 13579      325F395F 
 13579      3200
 13580              	.LASF73:
 13581 0319 75386732 		.ascii	"u8g2_m_12_8_f\000"
 13581      5F6D5F31 
 13581      325F385F 
 13581      6600
 13582              	.LASF151:
 13583 0327 75386732 		.ascii	"u8g2_m_20_10_f\000"
 13583      5F6D5F32 
 13583      305F3130 
 13583      5F6600
 13584              	.LASF103:
 13585 0336 75386732 		.ascii	"u8g2_m_30_16_f\000"
 13585      5F6D5F33 
 13585      305F3136 
 13585      5F6600
 13586              	.LASF29:
 13587 0345 75386732 		.ascii	"u8g2_m_8_4_1\000"
 13587      5F6D5F38 
 13587      5F345F31 
 13587      00
 13588              	.LASF30:
 13589 0352 75386732 		.ascii	"u8g2_m_8_4_2\000"
 13589      5F6D5F38 
 13589      5F345F32 
 13589      00
 13590              	.LASF16:
 13591 035f 75386732 		.ascii	"u8g2_m_16_4_f\000"
 13591      5F6D5F31 
 13591      365F345F 
 13591      6600
 13592              	.LASF157:
 13593 036d 75386732 		.ascii	"u8g2_m_22_9_f\000"
 13593      5F6D5F32 
 13593      325F395F 
 13593      6600
ARM GAS  C:\Users\jesse\AppData\Local\Temp\ccuy2FXa.s 			page 287


 13594              	.LASF184:
 13595 037b 433A5C55 		.ascii	"C:\\Users\\jesse\\OneDrive\\Bureaublad\\practice_em"
 13595      73657273 
 13595      5C6A6573 
 13595      73655C4F 
 13595      6E654472 
 13596 03a9 62656464 		.ascii	"bedded\\Practice_EmbeddedProgramming\\Display_count"
 13596      65645C50 
 13596      72616374 
 13596      6963655F 
 13596      456D6265 
 13597 03da 2E637964 		.ascii	".cydsn\000"
 13597      736E00
 13598              	.LASF23:
 13599 03e1 75386732 		.ascii	"u8g2_m_9_5_1\000"
 13599      5F6D5F39 
 13599      5F355F31 
 13599      00
 13600              	.LASF24:
 13601 03ee 75386732 		.ascii	"u8g2_m_9_5_2\000"
 13601      5F6D5F39 
 13601      5F355F32 
 13601      00
 13602              	.LASF31:
 13603 03fb 75386732 		.ascii	"u8g2_m_8_4_f\000"
 13603      5F6D5F38 
 13603      5F345F66 
 13603      00
 13604              	.LASF20:
 13605 0408 75386732 		.ascii	"u8g2_m_255_2_1\000"
 13605      5F6D5F32 
 13605      35355F32 
 13605      5F3100
 13606              	.LASF21:
 13607 0417 75386732 		.ascii	"u8g2_m_255_2_2\000"
 13607      5F6D5F32 
 13607      35355F32 
 13607      5F3200
 13608              	.LASF179:
 13609 0426 75386732 		.ascii	"u8g2_m_48_30_1\000"
 13609      5F6D5F34 
 13609      385F3330 
 13609      5F3100
 13610              	.LASF180:
 13611 0435 75386732 		.ascii	"u8g2_m_48_30_2\000"
 13611      5F6D5F34 
 13611      385F3330 
 13611      5F3200
 13612              	.LASF183:
 13613 0444 2E2E5C2E 		.ascii	"..\\..\\..\\u8g2\\u8g2\\csrc\\u8g2_d_memory.c\000"
 13613      2E5C2E2E 
 13613      5C753867 
 13613      325C7538 
 13613      67325C63 
 13614              	.LASF25:
 13615 046c 75386732 		.ascii	"u8g2_m_9_5_f\000"
 13615      5F6D5F39 
ARM GAS  C:\Users\jesse\AppData\Local\Temp\ccuy2FXa.s 			page 288


 13615      5F355F66 
 13615      00
 13616              	.LASF22:
 13617 0479 75386732 		.ascii	"u8g2_m_255_2_f\000"
 13617      5F6D5F32 
 13617      35355F32 
 13617      5F6600
 13618              	.LASF116:
 13619 0488 75386732 		.ascii	"u8g2_m_32_16_1\000"
 13619      5F6D5F33 
 13619      325F3136 
 13619      5F3100
 13620              	.LASF117:
 13621 0497 75386732 		.ascii	"u8g2_m_32_16_2\000"
 13621      5F6D5F33 
 13621      325F3136 
 13621      5F3200
 13622              	.LASF181:
 13623 04a6 75386732 		.ascii	"u8g2_m_48_30_f\000"
 13623      5F6D5F34 
 13623      385F3330 
 13623      5F6600
 13624              	.LASF177:
 13625 04b5 75386732 		.ascii	"u8g2_m_32_7_2\000"
 13625      5F6D5F33 
 13625      325F375F 
 13625      3200
 13626              	.LASF113:
 13627 04c3 75386732 		.ascii	"u8g2_m_30_20_1\000"
 13627      5F6D5F33 
 13627      305F3230 
 13627      5F3100
 13628              	.LASF114:
 13629 04d2 75386732 		.ascii	"u8g2_m_30_20_2\000"
 13629      5F6D5F33 
 13629      305F3230 
 13629      5F3200
 13630              	.LASF10:
 13631 04e1 75696E74 		.ascii	"uint8_t\000"
 13631      385F7400 
 13632              	.LASF118:
 13633 04e9 75386732 		.ascii	"u8g2_m_32_16_f\000"
 13633      5F6D5F33 
 13633      325F3136 
 13633      5F6600
 13634              	.LASF32:
 13635 04f8 75386732 		.ascii	"u8g2_m_8_16_1\000"
 13635      5F6D5F38 
 13635      5F31365F 
 13635      3100
 13636              	.LASF33:
 13637 0506 75386732 		.ascii	"u8g2_m_8_16_2\000"
 13637      5F6D5F38 
 13637      5F31365F 
 13637      3200
 13638              	.LASF110:
 13639 0514 75386732 		.ascii	"u8g2_m_20_13_1\000"
ARM GAS  C:\Users\jesse\AppData\Local\Temp\ccuy2FXa.s 			page 289


 13639      5F6D5F32 
 13639      305F3133 
 13639      5F3100
 13640              	.LASF111:
 13641 0523 75386732 		.ascii	"u8g2_m_20_13_2\000"
 13641      5F6D5F32 
 13641      305F3133 
 13641      5F3200
 13642              	.LASF129:
 13643 0532 75386732 		.ascii	"u8g2_m_17_8_2\000"
 13643      5F6D5F31 
 13643      375F385F 
 13643      3200
 13644              	.LASF6:
 13645 0540 6C6F6E67 		.ascii	"long long int\000"
 13645      206C6F6E 
 13645      6720696E 
 13645      7400
 13646              	.LASF161:
 13647 054e 75386732 		.ascii	"u8g2_m_37_16_1\000"
 13647      5F6D5F33 
 13647      375F3136 
 13647      5F3100
 13648              	.LASF162:
 13649 055d 75386732 		.ascii	"u8g2_m_37_16_2\000"
 13649      5F6D5F33 
 13649      375F3136 
 13649      5F3200
 13650              	.LASF167:
 13651 056c 75386732 		.ascii	"u8g2_m_4_1_1\000"
 13651      5F6D5F34 
 13651      5F315F31 
 13651      00
 13652              	.LASF168:
 13653 0579 75386732 		.ascii	"u8g2_m_4_1_2\000"
 13653      5F6D5F34 
 13653      5F315F32 
 13653      00
 13654              	.LASF47:
 13655 0586 75386732 		.ascii	"u8g2_m_32_8_1\000"
 13655      5F6D5F33 
 13655      325F385F 
 13655      3100
 13656              	.LASF48:
 13657 0594 75386732 		.ascii	"u8g2_m_32_8_2\000"
 13657      5F6D5F33 
 13657      325F385F 
 13657      3200
 13658              	.LASF34:
 13659 05a2 75386732 		.ascii	"u8g2_m_8_16_f\000"
 13659      5F6D5F38 
 13659      5F31365F 
 13659      6600
 13660              	.LASF107:
 13661 05b0 75386732 		.ascii	"u8g2_m_24_12_1\000"
 13661      5F6D5F32 
 13661      345F3132 
ARM GAS  C:\Users\jesse\AppData\Local\Temp\ccuy2FXa.s 			page 290


 13661      5F3100
 13662              	.LASF108:
 13663 05bf 75386732 		.ascii	"u8g2_m_24_12_2\000"
 13663      5F6D5F32 
 13663      345F3132 
 13663      5F3200
 13664              	.LASF170:
 13665 05ce 75386732 		.ascii	"u8g2_m_1_1_1\000"
 13665      5F6D5F31 
 13665      5F315F31 
 13665      00
 13666              	.LASF171:
 13667 05db 75386732 		.ascii	"u8g2_m_1_1_2\000"
 13667      5F6D5F31 
 13667      5F315F32 
 13667      00
 13668              	.LASF163:
 13669 05e8 75386732 		.ascii	"u8g2_m_37_16_f\000"
 13669      5F6D5F33 
 13669      375F3136 
 13669      5F6600
 13670              	.LASF169:
 13671 05f7 75386732 		.ascii	"u8g2_m_4_1_f\000"
 13671      5F6D5F34 
 13671      5F315F66 
 13671      00
 13672              	.LASF49:
 13673 0604 75386732 		.ascii	"u8g2_m_32_8_f\000"
 13673      5F6D5F33 
 13673      325F385F 
 13673      6600
 13674              	.LASF122:
 13675 0612 75386732 		.ascii	"u8g2_m_20_8_1\000"
 13675      5F6D5F32 
 13675      305F385F 
 13675      3100
 13676              	.LASF123:
 13677 0620 75386732 		.ascii	"u8g2_m_20_8_2\000"
 13677      5F6D5F32 
 13677      305F385F 
 13677      3200
 13678              	.LASF119:
 13679 062e 75386732 		.ascii	"u8g2_m_40_30_1\000"
 13679      5F6D5F34 
 13679      305F3330 
 13679      5F3100
 13680              	.LASF120:
 13681 063d 75386732 		.ascii	"u8g2_m_40_30_2\000"
 13681      5F6D5F34 
 13681      305F3330 
 13681      5F3200
 13682              	.LASF56:
 13683 064c 75386732 		.ascii	"u8g2_m_6_8_1\000"
 13683      5F6D5F36 
 13683      5F385F31 
 13683      00
 13684              	.LASF57:
ARM GAS  C:\Users\jesse\AppData\Local\Temp\ccuy2FXa.s 			page 291


 13685 0659 75386732 		.ascii	"u8g2_m_6_8_2\000"
 13685      5F6D5F36 
 13685      5F385F32 
 13685      00
 13686              	.LASF77:
 13687 0666 75386732 		.ascii	"u8g2_m_24_4_1\000"
 13687      5F6D5F32 
 13687      345F345F 
 13687      3100
 13688              	.LASF78:
 13689 0674 75386732 		.ascii	"u8g2_m_24_4_2\000"
 13689      5F6D5F32 
 13689      345F345F 
 13689      3200
 13690              	.LASF109:
 13691 0682 75386732 		.ascii	"u8g2_m_24_12_f\000"
 13691      5F6D5F32 
 13691      345F3132 
 13691      5F6600
 13692              	.LASF172:
 13693 0691 75386732 		.ascii	"u8g2_m_1_1_f\000"
 13693      5F6D5F31 
 13693      5F315F66 
 13693      00
 13694              	.LASF83:
 13695 069e 75386732 		.ascii	"u8g2_m_18_21_1\000"
 13695      5F6D5F31 
 13695      385F3231 
 13695      5F3100
 13696              	.LASF84:
 13697 06ad 75386732 		.ascii	"u8g2_m_18_21_2\000"
 13697      5F6D5F31 
 13697      385F3231 
 13697      5F3200
 13698              	.LASF140:
 13699 06bc 75386732 		.ascii	"u8g2_m_32_20_1\000"
 13699      5F6D5F33 
 13699      325F3230 
 13699      5F3100
 13700              	.LASF141:
 13701 06cb 75386732 		.ascii	"u8g2_m_32_20_2\000"
 13701      5F6D5F33 
 13701      325F3230 
 13701      5F3200
 13702              	.LASF124:
 13703 06da 75386732 		.ascii	"u8g2_m_20_8_f\000"
 13703      5F6D5F32 
 13703      305F385F 
 13703      6600
 13704              	.LASF11:
 13705 06e8 6C6F6E67 		.ascii	"long double\000"
 13705      20646F75 
 13705      626C6500 
 13706              	.LASF89:
 13707 06f4 75386732 		.ascii	"u8g2_m_12_9_1\000"
 13707      5F6D5F31 
 13707      325F395F 
ARM GAS  C:\Users\jesse\AppData\Local\Temp\ccuy2FXa.s 			page 292


 13707      3100
 13708              	.LASF90:
 13709 0702 75386732 		.ascii	"u8g2_m_12_9_2\000"
 13709      5F6D5F31 
 13709      325F395F 
 13709      3200
 13710              	.LASF121:
 13711 0710 75386732 		.ascii	"u8g2_m_40_30_f\000"
 13711      5F6D5F34 
 13711      305F3330 
 13711      5F6600
 13712              	.LASF58:
 13713 071f 75386732 		.ascii	"u8g2_m_6_8_f\000"
 13713      5F6D5F36 
 13713      5F385F66 
 13713      00
 13714              	.LASF79:
 13715 072c 75386732 		.ascii	"u8g2_m_24_4_f\000"
 13715      5F6D5F32 
 13715      345F345F 
 13715      6600
 13716              	.LASF62:
 13717 073a 75386732 		.ascii	"u8g2_m_12_4_1\000"
 13717      5F6D5F31 
 13717      325F345F 
 13717      3100
 13718              	.LASF63:
 13719 0748 75386732 		.ascii	"u8g2_m_12_4_2\000"
 13719      5F6D5F31 
 13719      325F345F 
 13719      3200
 13720              	.LASF85:
 13721 0756 75386732 		.ascii	"u8g2_m_18_21_f\000"
 13721      5F6D5F31 
 13721      385F3231 
 13721      5F6600
 13722              	.LASF143:
 13723 0765 75386732 		.ascii	"u8g2_m_22_13_1\000"
 13723      5F6D5F32 
 13723      325F3133 
 13723      5F3100
 13724              	.LASF144:
 13725 0774 75386732 		.ascii	"u8g2_m_22_13_2\000"
 13725      5F6D5F32 
 13725      325F3133 
 13725      5F3200
 13726              	.LASF142:
 13727 0783 75386732 		.ascii	"u8g2_m_32_20_f\000"
 13727      5F6D5F33 
 13727      325F3230 
 13727      5F6600
 13728              	.LASF2:
 13729 0792 73686F72 		.ascii	"short int\000"
 13729      7420696E 
 13729      7400
 13730              	.LASF104:
 13731 079c 75386732 		.ascii	"u8g2_m_20_16_1\000"
ARM GAS  C:\Users\jesse\AppData\Local\Temp\ccuy2FXa.s 			page 293


 13731      5F6D5F32 
 13731      305F3136 
 13731      5F3100
 13732              	.LASF105:
 13733 07ab 75386732 		.ascii	"u8g2_m_20_16_2\000"
 13733      5F6D5F32 
 13733      305F3136 
 13733      5F3200
 13734              	.LASF4:
 13735 07ba 6C6F6E67 		.ascii	"long int\000"
 13735      20696E74 
 13735      00
 13736              	.LASF112:
 13737 07c3 75386732 		.ascii	"u8g2_m_20_13_f\000"
 13737      5F6D5F32 
 13737      305F3133 
 13737      5F6600
 13738              	.LASF64:
 13739 07d2 75386732 		.ascii	"u8g2_m_12_4_f\000"
 13739      5F6D5F31 
 13739      325F345F 
 13739      6600
 13740              	.LASF145:
 13741 07e0 75386732 		.ascii	"u8g2_m_22_13_f\000"
 13741      5F6D5F32 
 13741      325F3133 
 13741      5F6600
 13742              	.LASF106:
 13743 07ef 75386732 		.ascii	"u8g2_m_20_16_f\000"
 13743      5F6D5F32 
 13743      305F3136 
 13743      5F6600
 13744              	.LASF41:
 13745 07fe 75386732 		.ascii	"u8g2_m_16_16_1\000"
 13745      5F6D5F31 
 13745      365F3136 
 13745      5F3100
 13746              	.LASF42:
 13747 080d 75386732 		.ascii	"u8g2_m_16_16_2\000"
 13747      5F6D5F31 
 13747      365F3136 
 13747      5F3200
 13748              	.LASF9:
 13749 081c 5F5F7569 		.ascii	"__uint8_t\000"
 13749      6E74385F 
 13749      7400
 13750              	.LASF12:
 13751 0826 73697A65 		.ascii	"sizetype\000"
 13751      74797065 
 13751      00
 13752              	.LASF5:
 13753 082f 6C6F6E67 		.ascii	"long unsigned int\000"
 13753      20756E73 
 13753      69676E65 
 13753      6420696E 
 13753      7400
 13754              	.LASF43:
ARM GAS  C:\Users\jesse\AppData\Local\Temp\ccuy2FXa.s 			page 294


 13755 0841 75386732 		.ascii	"u8g2_m_16_16_f\000"
 13755      5F6D5F31 
 13755      365F3136 
 13755      5F6600
 13756              	.LASF86:
 13757 0850 75386732 		.ascii	"u8g2_m_11_6_1\000"
 13757      5F6D5F31 
 13757      315F365F 
 13757      3100
 13758              	.LASF87:
 13759 085e 75386732 		.ascii	"u8g2_m_11_6_2\000"
 13759      5F6D5F31 
 13759      315F365F 
 13759      3200
 13760              	.LASF137:
 13761 086c 75386732 		.ascii	"u8g2_m_20_12_1\000"
 13761      5F6D5F32 
 13761      305F3132 
 13761      5F3100
 13762              	.LASF15:
 13763 087b 70616765 		.ascii	"page_cnt\000"
 13763      5F636E74 
 13763      00
 13764              	.LASF134:
 13765 0884 75386732 		.ascii	"u8g2_m_48_20_1\000"
 13765      5F6D5F34 
 13765      385F3230 
 13765      5F3100
 13766              	.LASF135:
 13767 0893 75386732 		.ascii	"u8g2_m_48_20_2\000"
 13767      5F6D5F34 
 13767      385F3230 
 13767      5F3200
 13768              	.LASF35:
 13769 08a2 75386732 		.ascii	"u8g2_m_12_12_1\000"
 13769      5F6D5F31 
 13769      325F3132 
 13769      5F3100
 13770              	.LASF36:
 13771 08b1 75386732 		.ascii	"u8g2_m_12_12_2\000"
 13771      5F6D5F31 
 13771      325F3132 
 13771      5F3200
 13772              	.LASF1:
 13773 08c0 756E7369 		.ascii	"unsigned char\000"
 13773      676E6564 
 13773      20636861 
 13773      7200
 13774              	.LASF17:
 13775 08ce 75386732 		.ascii	"u8g2_m_16_8_1\000"
 13775      5F6D5F31 
 13775      365F385F 
 13775      3100
 13776              	.LASF18:
 13777 08dc 75386732 		.ascii	"u8g2_m_16_8_2\000"
 13777      5F6D5F31 
 13777      365F385F 
ARM GAS  C:\Users\jesse\AppData\Local\Temp\ccuy2FXa.s 			page 295


 13777      3200
 13778              	.LASF88:
 13779 08ea 75386732 		.ascii	"u8g2_m_11_6_f\000"
 13779      5F6D5F31 
 13779      315F365F 
 13779      6600
 13780              	.LASF98:
 13781 08f8 75386732 		.ascii	"u8g2_m_30_15_1\000"
 13781      5F6D5F33 
 13781      305F3135 
 13781      5F3100
 13782              	.LASF99:
 13783 0907 75386732 		.ascii	"u8g2_m_30_15_2\000"
 13783      5F6D5F33 
 13783      305F3135 
 13783      5F3200
 13784              	.LASF59:
 13785 0916 75386732 		.ascii	"u8g2_m_12_2_1\000"
 13785      5F6D5F31 
 13785      325F325F 
 13785      3100
 13786              	.LASF60:
 13787 0924 75386732 		.ascii	"u8g2_m_12_2_2\000"
 13787      5F6D5F31 
 13787      325F325F 
 13787      3200
 13788              	.LASF37:
 13789 0932 75386732 		.ascii	"u8g2_m_12_12_f\000"
 13789      5F6D5F31 
 13789      325F3132 
 13789      5F6600
 13790              	.LASF182:
 13791 0941 474E5520 		.ascii	"GNU C11 5.4.1 20160609 (release) [ARM/embedded-5-br"
 13791      43313120 
 13791      352E342E 
 13791      31203230 
 13791      31363036 
 13792 0974 616E6368 		.ascii	"anch revision 237715] -mcpu=cortex-m3 -mthumb -g -O"
 13792      20726576 
 13792      6973696F 
 13792      6E203233 
 13792      37373135 
 13793 09a7 73202D66 		.ascii	"s -ffunction-sections -ffat-lto-objects\000"
 13793      66756E63 
 13793      74696F6E 
 13793      2D736563 
 13793      74696F6E 
 13794              	.LASF44:
 13795 09cf 75386732 		.ascii	"u8g2_m_20_20_1\000"
 13795      5F6D5F32 
 13795      305F3230 
 13795      5F3100
 13796              	.LASF45:
 13797 09de 75386732 		.ascii	"u8g2_m_20_20_2\000"
 13797      5F6D5F32 
 13797      305F3230 
 13797      5F3200
ARM GAS  C:\Users\jesse\AppData\Local\Temp\ccuy2FXa.s 			page 296


 13798              	.LASF50:
 13799 09ed 75386732 		.ascii	"u8g2_m_13_8_1\000"
 13799      5F6D5F31 
 13799      335F385F 
 13799      3100
 13800              	.LASF51:
 13801 09fb 75386732 		.ascii	"u8g2_m_13_8_2\000"
 13801      5F6D5F31 
 13801      335F385F 
 13801      3200
 13802              	.LASF91:
 13803 0a09 75386732 		.ascii	"u8g2_m_12_9_f\000"
 13803      5F6D5F31 
 13803      325F395F 
 13803      6600
 13804              	.LASF19:
 13805 0a17 75386732 		.ascii	"u8g2_m_16_8_f\000"
 13805      5F6D5F31 
 13805      365F385F 
 13805      6600
 13806              	.LASF139:
 13807 0a25 75386732 		.ascii	"u8g2_m_20_12_f\000"
 13807      5F6D5F32 
 13807      305F3132 
 13807      5F6600
 13808              	.LASF100:
 13809 0a34 75386732 		.ascii	"u8g2_m_30_15_f\000"
 13809      5F6D5F33 
 13809      305F3135 
 13809      5F6600
 13810              	.LASF125:
 13811 0a43 75386732 		.ascii	"u8g2_m_17_4_1\000"
 13811      5F6D5F31 
 13811      375F345F 
 13811      3100
 13812              	.LASF126:
 13813 0a51 75386732 		.ascii	"u8g2_m_17_4_2\000"
 13813      5F6D5F31 
 13813      375F345F 
 13813      3200
 13814              	.LASF61:
 13815 0a5f 75386732 		.ascii	"u8g2_m_12_2_f\000"
 13815      5F6D5F31 
 13815      325F325F 
 13815      6600
 13816              	.LASF0:
 13817 0a6d 7369676E 		.ascii	"signed char\000"
 13817      65642063 
 13817      68617200 
 13818              	.LASF3:
 13819 0a79 73686F72 		.ascii	"short unsigned int\000"
 13819      7420756E 
 13819      7369676E 
 13819      65642069 
 13819      6E7400
 13820              	.LASF68:
 13821 0a8c 75386732 		.ascii	"u8g2_m_32_4_1\000"
ARM GAS  C:\Users\jesse\AppData\Local\Temp\ccuy2FXa.s 			page 297


 13821      5F6D5F33 
 13821      325F345F 
 13821      3100
 13822              	.LASF69:
 13823 0a9a 75386732 		.ascii	"u8g2_m_32_4_2\000"
 13823      5F6D5F33 
 13823      325F345F 
 13823      3200
 13824              	.LASF46:
 13825 0aa8 75386732 		.ascii	"u8g2_m_20_20_f\000"
 13825      5F6D5F32 
 13825      305F3230 
 13825      5F6600
 13826              	.LASF52:
 13827 0ab7 75386732 		.ascii	"u8g2_m_13_8_f\000"
 13827      5F6D5F31 
 13827      335F385F 
 13827      6600
 13828              	.LASF158:
 13829 0ac5 75386732 		.ascii	"u8g2_m_25_25_1\000"
 13829      5F6D5F32 
 13829      355F3235 
 13829      5F3100
 13830              	.LASF159:
 13831 0ad4 75386732 		.ascii	"u8g2_m_25_25_2\000"
 13831      5F6D5F32 
 13831      355F3235 
 13831      5F3200
 13832              	.LASF127:
 13833 0ae3 75386732 		.ascii	"u8g2_m_17_4_f\000"
 13833      5F6D5F31 
 13833      375F345F 
 13833      6600
 13834              	.LASF70:
 13835 0af1 75386732 		.ascii	"u8g2_m_32_4_f\000"
 13835      5F6D5F33 
 13835      325F345F 
 13835      6600
 13836              	.LASF74:
 13837 0aff 75386732 		.ascii	"u8g2_m_20_4_1\000"
 13837      5F6D5F32 
 13837      305F345F 
 13837      3100
 13838              	.LASF75:
 13839 0b0d 75386732 		.ascii	"u8g2_m_20_4_2\000"
 13839      5F6D5F32 
 13839      305F345F 
 13839      3200
 13840              	.LASF131:
 13841 0b1b 75386732 		.ascii	"u8g2_m_48_17_1\000"
 13841      5F6D5F34 
 13841      385F3137 
 13841      5F3100
 13842              	.LASF132:
 13843 0b2a 75386732 		.ascii	"u8g2_m_48_17_2\000"
 13843      5F6D5F34 
 13843      385F3137 
ARM GAS  C:\Users\jesse\AppData\Local\Temp\ccuy2FXa.s 			page 298


 13843      5F3200
 13844              		.ident	"GCC: (GNU Tools for ARM Embedded Processors) 5.4.1 20160609 (release) [ARM/embedded-5-bran
