ARM GAS  C:\Users\jesse\AppData\Local\Temp\ccb9A9ti.s 			page 1


   1              		.syntax unified
   2              		.cpu cortex-m3
   3              		.fpu softvfp
   4              		.eabi_attribute 20, 1
   5              		.eabi_attribute 21, 1
   6              		.eabi_attribute 23, 3
   7              		.eabi_attribute 24, 1
   8              		.eabi_attribute 25, 1
   9              		.eabi_attribute 26, 1
  10              		.eabi_attribute 30, 4
  11              		.eabi_attribute 34, 1
  12              		.eabi_attribute 18, 4
  13              		.thumb
  14              		.syntax unified
  15              		.file	"u8g2_selection_list.c"
  16              		.text
  17              	.Ltext0:
  18              		.cfi_sections	.debug_frame
  19              		.section	.text.u8g2_DrawUTF8Line,"ax",%progbits
  20              		.align	1
  21              		.global	u8g2_DrawUTF8Line
  22              		.thumb
  23              		.thumb_func
  24              		.type	u8g2_DrawUTF8Line, %function
  25              	u8g2_DrawUTF8Line:
  26              	.LFB0:
  27              		.file 1 "..\\..\\..\\u8g2\\u8g2\\csrc\\u8g2_selection_list.c"
   1:..\..\..\u8g2\u8g2\csrc/u8g2_selection_list.c **** /*
   2:..\..\..\u8g2\u8g2\csrc/u8g2_selection_list.c **** 
   3:..\..\..\u8g2\u8g2\csrc/u8g2_selection_list.c ****   u8g2_selection_list.c
   4:..\..\..\u8g2\u8g2\csrc/u8g2_selection_list.c ****   
   5:..\..\..\u8g2\u8g2\csrc/u8g2_selection_list.c ****   selection list with scroll option
   6:..\..\..\u8g2\u8g2\csrc/u8g2_selection_list.c ****   
   7:..\..\..\u8g2\u8g2\csrc/u8g2_selection_list.c ****   Universal 8bit Graphics Library (https://github.com/olikraus/u8g2/)
   8:..\..\..\u8g2\u8g2\csrc/u8g2_selection_list.c **** 
   9:..\..\..\u8g2\u8g2\csrc/u8g2_selection_list.c ****   Copyright (c) 2016, olikraus@gmail.com
  10:..\..\..\u8g2\u8g2\csrc/u8g2_selection_list.c ****   All rights reserved.
  11:..\..\..\u8g2\u8g2\csrc/u8g2_selection_list.c **** 
  12:..\..\..\u8g2\u8g2\csrc/u8g2_selection_list.c ****   Redistribution and use in source and binary forms, with or without modification, 
  13:..\..\..\u8g2\u8g2\csrc/u8g2_selection_list.c ****   are permitted provided that the following conditions are met:
  14:..\..\..\u8g2\u8g2\csrc/u8g2_selection_list.c **** 
  15:..\..\..\u8g2\u8g2\csrc/u8g2_selection_list.c ****   * Redistributions of source code must retain the above copyright notice, this list 
  16:..\..\..\u8g2\u8g2\csrc/u8g2_selection_list.c ****     of conditions and the following disclaimer.
  17:..\..\..\u8g2\u8g2\csrc/u8g2_selection_list.c ****     
  18:..\..\..\u8g2\u8g2\csrc/u8g2_selection_list.c ****   * Redistributions in binary form must reproduce the above copyright notice, this 
  19:..\..\..\u8g2\u8g2\csrc/u8g2_selection_list.c ****     list of conditions and the following disclaimer in the documentation and/or other 
  20:..\..\..\u8g2\u8g2\csrc/u8g2_selection_list.c ****     materials provided with the distribution.
  21:..\..\..\u8g2\u8g2\csrc/u8g2_selection_list.c **** 
  22:..\..\..\u8g2\u8g2\csrc/u8g2_selection_list.c ****   THIS SOFTWARE IS PROVIDED BY THE COPYRIGHT HOLDERS AND 
  23:..\..\..\u8g2\u8g2\csrc/u8g2_selection_list.c ****   CONTRIBUTORS "AS IS" AND ANY EXPRESS OR IMPLIED WARRANTIES, 
  24:..\..\..\u8g2\u8g2\csrc/u8g2_selection_list.c ****   INCLUDING, BUT NOT LIMITED TO, THE IMPLIED WARRANTIES OF 
  25:..\..\..\u8g2\u8g2\csrc/u8g2_selection_list.c ****   MERCHANTABILITY AND FITNESS FOR A PARTICULAR PURPOSE ARE 
  26:..\..\..\u8g2\u8g2\csrc/u8g2_selection_list.c ****   DISCLAIMED. IN NO EVENT SHALL THE COPYRIGHT HOLDER OR 
  27:..\..\..\u8g2\u8g2\csrc/u8g2_selection_list.c ****   CONTRIBUTORS BE LIABLE FOR ANY DIRECT, INDIRECT, INCIDENTAL, 
  28:..\..\..\u8g2\u8g2\csrc/u8g2_selection_list.c ****   SPECIAL, EXEMPLARY, OR CONSEQUENTIAL DAMAGES (INCLUDING, BUT 
  29:..\..\..\u8g2\u8g2\csrc/u8g2_selection_list.c ****   NOT LIMITED TO, PROCUREMENT OF SUBSTITUTE GOODS OR SERVICES; 
  30:..\..\..\u8g2\u8g2\csrc/u8g2_selection_list.c ****   LOSS OF USE, DATA, OR PROFITS; OR BUSINESS INTERRUPTION) HOWEVER 
ARM GAS  C:\Users\jesse\AppData\Local\Temp\ccb9A9ti.s 			page 2


  31:..\..\..\u8g2\u8g2\csrc/u8g2_selection_list.c ****   CAUSED AND ON ANY THEORY OF LIABILITY, WHETHER IN CONTRACT, 
  32:..\..\..\u8g2\u8g2\csrc/u8g2_selection_list.c ****   STRICT LIABILITY, OR TORT (INCLUDING NEGLIGENCE OR OTHERWISE) 
  33:..\..\..\u8g2\u8g2\csrc/u8g2_selection_list.c ****   ARISING IN ANY WAY OUT OF THE USE OF THIS SOFTWARE, EVEN IF 
  34:..\..\..\u8g2\u8g2\csrc/u8g2_selection_list.c ****   ADVISED OF THE POSSIBILITY OF SUCH DAMAGE.  
  35:..\..\..\u8g2\u8g2\csrc/u8g2_selection_list.c ****   
  36:..\..\..\u8g2\u8g2\csrc/u8g2_selection_list.c **** */
  37:..\..\..\u8g2\u8g2\csrc/u8g2_selection_list.c **** 
  38:..\..\..\u8g2\u8g2\csrc/u8g2_selection_list.c **** #include "u8g2.h"
  39:..\..\..\u8g2\u8g2\csrc/u8g2_selection_list.c **** 
  40:..\..\..\u8g2\u8g2\csrc/u8g2_selection_list.c **** #define MY_BORDER_SIZE 1
  41:..\..\..\u8g2\u8g2\csrc/u8g2_selection_list.c **** 
  42:..\..\..\u8g2\u8g2\csrc/u8g2_selection_list.c **** 
  43:..\..\..\u8g2\u8g2\csrc/u8g2_selection_list.c **** /*
  44:..\..\..\u8g2\u8g2\csrc/u8g2_selection_list.c ****   Draw a string at x,y
  45:..\..\..\u8g2\u8g2\csrc/u8g2_selection_list.c ****   Center string within w (left adjust if w < pixel len of s)
  46:..\..\..\u8g2\u8g2\csrc/u8g2_selection_list.c ****   
  47:..\..\..\u8g2\u8g2\csrc/u8g2_selection_list.c ****   Side effects:
  48:..\..\..\u8g2\u8g2\csrc/u8g2_selection_list.c ****     u8g2_SetFontDirection(u8g2, 0);
  49:..\..\..\u8g2\u8g2\csrc/u8g2_selection_list.c ****     u8g2_SetFontPosBaseline(u8g2);
  50:..\..\..\u8g2\u8g2\csrc/u8g2_selection_list.c **** 
  51:..\..\..\u8g2\u8g2\csrc/u8g2_selection_list.c **** */
  52:..\..\..\u8g2\u8g2\csrc/u8g2_selection_list.c **** void u8g2_DrawUTF8Line(u8g2_t *u8g2, u8g2_uint_t x, u8g2_uint_t y, u8g2_uint_t w, const char *s, ui
  53:..\..\..\u8g2\u8g2\csrc/u8g2_selection_list.c **** {
  28              		.loc 1 53 0
  29              		.cfi_startproc
  30              		@ args = 12, pretend = 0, frame = 16
  31              		@ frame_needed = 0, uses_anonymous_args = 0
  32              	.LVL0:
  33 0000 2DE9F04F 		push	{r4, r5, r6, r7, r8, r9, r10, fp, lr}
  34              		.cfi_def_cfa_offset 36
  35              		.cfi_offset 4, -36
  36              		.cfi_offset 5, -32
  37              		.cfi_offset 6, -28
  38              		.cfi_offset 7, -24
  39              		.cfi_offset 8, -20
  40              		.cfi_offset 9, -16
  41              		.cfi_offset 10, -12
  42              		.cfi_offset 11, -8
  43              		.cfi_offset 14, -4
  44 0004 0446     		mov	r4, r0
  45 0006 87B0     		sub	sp, sp, #28
  46              		.cfi_def_cfa_offset 64
  47              		.loc 1 53 0
  48 0008 1E46     		mov	r6, r3
  49 000a 109B     		ldr	r3, [sp, #64]
  50              	.LVL1:
  51 000c 8846     		mov	r8, r1
  52 000e 0393     		str	r3, [sp, #12]
  53 0010 9DF84830 		ldrb	r3, [sp, #72]	@ zero_extendqisi2
  54:..\..\..\u8g2\u8g2\csrc/u8g2_selection_list.c ****   u8g2_uint_t d, str_width;
  55:..\..\..\u8g2\u8g2\csrc/u8g2_selection_list.c ****   u8g2_uint_t fx, fy, fw, fh;
  56:..\..\..\u8g2\u8g2\csrc/u8g2_selection_list.c **** 
  57:..\..\..\u8g2\u8g2\csrc/u8g2_selection_list.c ****   /* only horizontal strings are supported, so force this here */
  58:..\..\..\u8g2\u8g2\csrc/u8g2_selection_list.c ****   u8g2_SetFontDirection(u8g2, 0);
  54              		.loc 1 58 0
  55 0014 0021     		movs	r1, #0
  56              	.LVL2:
ARM GAS  C:\Users\jesse\AppData\Local\Temp\ccb9A9ti.s 			page 3


  53:..\..\..\u8g2\u8g2\csrc/u8g2_selection_list.c ****   u8g2_uint_t d, str_width;
  57              		.loc 1 53 0
  58 0016 1746     		mov	r7, r2
  59 0018 0493     		str	r3, [sp, #16]
  60 001a 9DF84490 		ldrb	r9, [sp, #68]	@ zero_extendqisi2
  61              		.loc 1 58 0
  62 001e FFF7FEFF 		bl	u8g2_SetFontDirection
  63              	.LVL3:
  59:..\..\..\u8g2\u8g2\csrc/u8g2_selection_list.c **** 
  60:..\..\..\u8g2\u8g2\csrc/u8g2_selection_list.c ****   /* revert y position back to baseline ref */
  61:..\..\..\u8g2\u8g2\csrc/u8g2_selection_list.c ****   y += u8g2->font_calc_vref(u8g2);   
  64              		.loc 1 61 0
  65 0022 E36D     		ldr	r3, [r4, #92]
  66 0024 2046     		mov	r0, r4
  67 0026 9847     		blx	r3
  68              	.LVL4:
  69 0028 3844     		add	r0, r0, r7
  70 002a 87B2     		uxth	r7, r0
  71              	.LVL5:
  62:..\..\..\u8g2\u8g2\csrc/u8g2_selection_list.c **** 
  63:..\..\..\u8g2\u8g2\csrc/u8g2_selection_list.c ****   /* calculate the width of the string in pixel */
  64:..\..\..\u8g2\u8g2\csrc/u8g2_selection_list.c ****   str_width = u8g2_GetUTF8Width(u8g2, s);
  72              		.loc 1 64 0
  73 002c 0399     		ldr	r1, [sp, #12]
  74 002e 2046     		mov	r0, r4
  75 0030 FFF7FEFF 		bl	u8g2_GetUTF8Width
  76              	.LVL6:
  77 0034 0546     		mov	r5, r0
  78              	.LVL7:
  65:..\..\..\u8g2\u8g2\csrc/u8g2_selection_list.c **** 
  66:..\..\..\u8g2\u8g2\csrc/u8g2_selection_list.c ****   /* calculate delta d within the box */
  67:..\..\..\u8g2\u8g2\csrc/u8g2_selection_list.c ****   d = 0;
  68:..\..\..\u8g2\u8g2\csrc/u8g2_selection_list.c ****   if ( str_width < w )
  79              		.loc 1 68 0
  80 0036 B042     		cmp	r0, r6
  81              	.LVL8:
  69:..\..\..\u8g2\u8g2\csrc/u8g2_selection_list.c ****   {
  70:..\..\..\u8g2\u8g2\csrc/u8g2_selection_list.c ****     d = w;
  71:..\..\..\u8g2\u8g2\csrc/u8g2_selection_list.c ****     d -=str_width;
  82              		.loc 1 71 0
  83 0038 38BF     		it	cc
  84 003a 351A     		subcc	r5, r6, r0
  85              	.LVL9:
  72:..\..\..\u8g2\u8g2\csrc/u8g2_selection_list.c ****     d /= 2;
  73:..\..\..\u8g2\u8g2\csrc/u8g2_selection_list.c ****   }
  74:..\..\..\u8g2\u8g2\csrc/u8g2_selection_list.c ****   else
  75:..\..\..\u8g2\u8g2\csrc/u8g2_selection_list.c ****   {
  76:..\..\..\u8g2\u8g2\csrc/u8g2_selection_list.c ****     w = str_width;
  77:..\..\..\u8g2\u8g2\csrc/u8g2_selection_list.c ****   }
  78:..\..\..\u8g2\u8g2\csrc/u8g2_selection_list.c **** 
  79:..\..\..\u8g2\u8g2\csrc/u8g2_selection_list.c ****   /* caluclate text box */
  80:..\..\..\u8g2\u8g2\csrc/u8g2_selection_list.c ****   fx = x;
  81:..\..\..\u8g2\u8g2\csrc/u8g2_selection_list.c ****   fy = y - u8g2_GetAscent(u8g2) ;
  86              		.loc 1 81 0
  87 003c 94F98E30 		ldrsb	r3, [r4, #142]
  72:..\..\..\u8g2\u8g2\csrc/u8g2_selection_list.c ****     d /= 2;
  88              		.loc 1 72 0
ARM GAS  C:\Users\jesse\AppData\Local\Temp\ccb9A9ti.s 			page 4


  89 0040 3CBF     		itt	cc
  90 0042 C5F34E0B 		ubfxcc	fp, r5, #1, #15
  91              	.LVL10:
  92 0046 3546     		movcc	r5, r6
  82:..\..\..\u8g2\u8g2\csrc/u8g2_selection_list.c ****   fw = w;
  83:..\..\..\u8g2\u8g2\csrc/u8g2_selection_list.c ****   fh = u8g2_GetAscent(u8g2) - u8g2_GetDescent(u8g2) ;
  93              		.loc 1 83 0
  94 0048 94F98F60 		ldrsb	r6, [r4, #143]
  84:..\..\..\u8g2\u8g2\csrc/u8g2_selection_list.c **** 
  85:..\..\..\u8g2\u8g2\csrc/u8g2_selection_list.c ****   /* draw the box, if inverted */
  86:..\..\..\u8g2\u8g2\csrc/u8g2_selection_list.c ****   u8g2_SetDrawColor(u8g2, 1);
  95              		.loc 1 86 0
  96 004c 4FF00101 		mov	r1, #1
  97 0050 2046     		mov	r0, r4
  98              	.LVL11:
  81:..\..\..\u8g2\u8g2\csrc/u8g2_selection_list.c ****   fw = w;
  99              		.loc 1 81 0
 100 0052 C3EB070A 		rsb	r10, r3, r7
  83:..\..\..\u8g2\u8g2\csrc/u8g2_selection_list.c **** 
 101              		.loc 1 83 0
 102 0056 A3EB0606 		sub	r6, r3, r6
  67:..\..\..\u8g2\u8g2\csrc/u8g2_selection_list.c ****   if ( str_width < w )
 103              		.loc 1 67 0
 104 005a 28BF     		it	cs
 105 005c 4FF0000B 		movcs	fp, #0
 106              	.LVL12:
 107              		.loc 1 86 0
 108 0060 FFF7FEFF 		bl	u8g2_SetDrawColor
 109              	.LVL13:
  87:..\..\..\u8g2\u8g2\csrc/u8g2_selection_list.c ****   if ( is_invert )
 110              		.loc 1 87 0
 111 0064 049B     		ldr	r3, [sp, #16]
  81:..\..\..\u8g2\u8g2\csrc/u8g2_selection_list.c ****   fw = w;
 112              		.loc 1 81 0
 113 0066 1FFA8AFA 		uxth	r10, r10
 114              	.LVL14:
  83:..\..\..\u8g2\u8g2\csrc/u8g2_selection_list.c **** 
 115              		.loc 1 83 0
 116 006a B6B2     		uxth	r6, r6
 117              	.LVL15:
 118              		.loc 1 87 0
 119 006c 33B1     		cbz	r3, .L3
  88:..\..\..\u8g2\u8g2\csrc/u8g2_selection_list.c ****   {
  89:..\..\..\u8g2\u8g2\csrc/u8g2_selection_list.c ****     u8g2_DrawBox(u8g2, fx, fy, fw, fh);
 120              		.loc 1 89 0
 121 006e 0096     		str	r6, [sp]
 122 0070 2B46     		mov	r3, r5
 123 0072 5246     		mov	r2, r10
 124 0074 4146     		mov	r1, r8
 125 0076 2046     		mov	r0, r4
 126 0078 FFF7FEFF 		bl	u8g2_DrawBox
 127              	.LVL16:
 128              	.L3:
 129 007c 09F10103 		add	r3, r9, #1
 130 0080 0593     		str	r3, [sp, #20]
  67:..\..\..\u8g2\u8g2\csrc/u8g2_selection_list.c ****   if ( str_width < w )
 131              		.loc 1 67 0
ARM GAS  C:\Users\jesse\AppData\Local\Temp\ccb9A9ti.s 			page 5


 132 0082 4FF00009 		mov	r9, #0
 133              	.LVL17:
 134              	.L4:
  90:..\..\..\u8g2\u8g2\csrc/u8g2_selection_list.c ****   }
  91:..\..\..\u8g2\u8g2\csrc/u8g2_selection_list.c **** 
  92:..\..\..\u8g2\u8g2\csrc/u8g2_selection_list.c ****   /* draw the frame */
  93:..\..\..\u8g2\u8g2\csrc/u8g2_selection_list.c ****   while( border_size > 0 )
 135              		.loc 1 93 0
 136 0086 059B     		ldr	r3, [sp, #20]
 137 0088 09F10109 		add	r9, r9, #1
 138              	.LVL18:
 139 008c 9945     		cmp	r9, r3
 140 008e 12D0     		beq	.L14
 141 0090 1FFA89F1 		uxth	r1, r9
 142              	.LVL19:
 143 0094 4800     		lsls	r0, r1, #1
 144 0096 80B2     		uxth	r0, r0
 145              	.LVL20:
  94:..\..\..\u8g2\u8g2\csrc/u8g2_selection_list.c ****   {
  95:..\..\..\u8g2\u8g2\csrc/u8g2_selection_list.c ****     fx--;
  96:..\..\..\u8g2\u8g2\csrc/u8g2_selection_list.c ****     fy--;
  97:..\..\..\u8g2\u8g2\csrc/u8g2_selection_list.c ****     fw +=2;
  98:..\..\..\u8g2\u8g2\csrc/u8g2_selection_list.c ****     fh +=2;
  99:..\..\..\u8g2\u8g2\csrc/u8g2_selection_list.c ****     u8g2_DrawFrame(u8g2, fx, fy, fw, fh );
 146              		.loc 1 99 0
 147 0098 2B18     		adds	r3, r5, r0
 148 009a 3044     		add	r0, r0, r6
 149              	.LVL21:
 150 009c C1EB0A02 		rsb	r2, r1, r10
 151 00a0 80B2     		uxth	r0, r0
 152 00a2 C1EB0801 		rsb	r1, r1, r8
 153              	.LVL22:
 154 00a6 0090     		str	r0, [sp]
 155 00a8 9BB2     		uxth	r3, r3
 156 00aa 92B2     		uxth	r2, r2
 157 00ac 89B2     		uxth	r1, r1
 158 00ae 2046     		mov	r0, r4
 159 00b0 FFF7FEFF 		bl	u8g2_DrawFrame
 160              	.LVL23:
 161 00b4 E7E7     		b	.L4
 162              	.LVL24:
 163              	.L14:
 100:..\..\..\u8g2\u8g2\csrc/u8g2_selection_list.c ****     border_size--;
 101:..\..\..\u8g2\u8g2\csrc/u8g2_selection_list.c ****   }
 102:..\..\..\u8g2\u8g2\csrc/u8g2_selection_list.c **** 
 103:..\..\..\u8g2\u8g2\csrc/u8g2_selection_list.c ****   if ( is_invert )
 164              		.loc 1 103 0
 165 00b6 049B     		ldr	r3, [sp, #16]
 166 00b8 0BB1     		cbz	r3, .L6
 104:..\..\..\u8g2\u8g2\csrc/u8g2_selection_list.c ****   {
 105:..\..\..\u8g2\u8g2\csrc/u8g2_selection_list.c ****     u8g2_SetDrawColor(u8g2, 0);
 167              		.loc 1 105 0
 168 00ba 0021     		movs	r1, #0
 169 00bc 00E0     		b	.L12
 170              	.L6:
 106:..\..\..\u8g2\u8g2\csrc/u8g2_selection_list.c ****   }
 107:..\..\..\u8g2\u8g2\csrc/u8g2_selection_list.c ****   else
ARM GAS  C:\Users\jesse\AppData\Local\Temp\ccb9A9ti.s 			page 6


 108:..\..\..\u8g2\u8g2\csrc/u8g2_selection_list.c ****   {
 109:..\..\..\u8g2\u8g2\csrc/u8g2_selection_list.c ****     u8g2_SetDrawColor(u8g2, 1);
 171              		.loc 1 109 0
 172 00be 0121     		movs	r1, #1
 173              	.L12:
 174 00c0 2046     		mov	r0, r4
 175 00c2 FFF7FEFF 		bl	u8g2_SetDrawColor
 176              	.LVL25:
 110:..\..\..\u8g2\u8g2\csrc/u8g2_selection_list.c ****   }
 111:..\..\..\u8g2\u8g2\csrc/u8g2_selection_list.c **** 
 112:..\..\..\u8g2\u8g2\csrc/u8g2_selection_list.c ****   /* draw the text */
 113:..\..\..\u8g2\u8g2\csrc/u8g2_selection_list.c ****   u8g2_DrawUTF8(u8g2, x+d, y, s);
 177              		.loc 1 113 0
 178 00c6 0BEB0801 		add	r1, fp, r8
 179 00ca 039B     		ldr	r3, [sp, #12]
 180 00cc 3A46     		mov	r2, r7
 181 00ce 89B2     		uxth	r1, r1
 182 00d0 2046     		mov	r0, r4
 183 00d2 FFF7FEFF 		bl	u8g2_DrawUTF8
 184              	.LVL26:
 114:..\..\..\u8g2\u8g2\csrc/u8g2_selection_list.c **** 
 115:..\..\..\u8g2\u8g2\csrc/u8g2_selection_list.c ****   /* revert draw color */
 116:..\..\..\u8g2\u8g2\csrc/u8g2_selection_list.c ****   u8g2_SetDrawColor(u8g2, 1);
 185              		.loc 1 116 0
 186 00d6 2046     		mov	r0, r4
 187 00d8 0121     		movs	r1, #1
 117:..\..\..\u8g2\u8g2\csrc/u8g2_selection_list.c **** 
 118:..\..\..\u8g2\u8g2\csrc/u8g2_selection_list.c **** }
 188              		.loc 1 118 0
 189 00da 07B0     		add	sp, sp, #28
 190              		.cfi_def_cfa_offset 36
 191              		@ sp needed
 192 00dc BDE8F04F 		pop	{r4, r5, r6, r7, r8, r9, r10, fp, lr}
 193              		.cfi_restore 14
 194              		.cfi_restore 11
 195              		.cfi_restore 10
 196              		.cfi_restore 9
 197              		.cfi_restore 8
 198              		.cfi_restore 7
 199              		.cfi_restore 6
 200              		.cfi_restore 5
 201              		.cfi_restore 4
 202              		.cfi_def_cfa_offset 0
 203              	.LVL27:
 116:..\..\..\u8g2\u8g2\csrc/u8g2_selection_list.c **** 
 204              		.loc 1 116 0
 205 00e0 FFF7FEBF 		b	u8g2_SetDrawColor
 206              	.LVL28:
 207              		.cfi_endproc
 208              	.LFE0:
 209              		.size	u8g2_DrawUTF8Line, .-u8g2_DrawUTF8Line
 210              		.section	.text.u8g2_draw_selection_list_line.isra.0,"ax",%progbits
 211              		.align	1
 212              		.thumb
 213              		.thumb_func
 214              		.type	u8g2_draw_selection_list_line.isra.0, %function
 215              	u8g2_draw_selection_list_line.isra.0:
ARM GAS  C:\Users\jesse\AppData\Local\Temp\ccb9A9ti.s 			page 7


 216              	.LFB5:
 119:..\..\..\u8g2\u8g2\csrc/u8g2_selection_list.c **** 
 120:..\..\..\u8g2\u8g2\csrc/u8g2_selection_list.c **** 
 121:..\..\..\u8g2\u8g2\csrc/u8g2_selection_list.c **** /*
 122:..\..\..\u8g2\u8g2\csrc/u8g2_selection_list.c ****   draw several lines at position x,y.
 123:..\..\..\u8g2\u8g2\csrc/u8g2_selection_list.c ****   lines are stored in s and must be separated with '\n'.
 124:..\..\..\u8g2\u8g2\csrc/u8g2_selection_list.c ****   lines can be centered with respect to "w"
 125:..\..\..\u8g2\u8g2\csrc/u8g2_selection_list.c ****   if s == NULL nothing is drawn and 0 is returned
 126:..\..\..\u8g2\u8g2\csrc/u8g2_selection_list.c ****   returns the number of lines in s multiplied with line_height
 127:..\..\..\u8g2\u8g2\csrc/u8g2_selection_list.c **** */
 128:..\..\..\u8g2\u8g2\csrc/u8g2_selection_list.c **** u8g2_uint_t u8g2_DrawUTF8Lines(u8g2_t *u8g2, u8g2_uint_t x, u8g2_uint_t y, u8g2_uint_t w, u8g2_uint
 129:..\..\..\u8g2\u8g2\csrc/u8g2_selection_list.c **** {
 130:..\..\..\u8g2\u8g2\csrc/u8g2_selection_list.c ****   uint8_t i;
 131:..\..\..\u8g2\u8g2\csrc/u8g2_selection_list.c ****   uint8_t cnt;
 132:..\..\..\u8g2\u8g2\csrc/u8g2_selection_list.c ****   u8g2_uint_t yy = 0;
 133:..\..\..\u8g2\u8g2\csrc/u8g2_selection_list.c ****   cnt = u8x8_GetStringLineCnt(s);
 134:..\..\..\u8g2\u8g2\csrc/u8g2_selection_list.c ****   //printf("str=%s\n", s);
 135:..\..\..\u8g2\u8g2\csrc/u8g2_selection_list.c ****   //printf("cnt=%d, y=%d, line_height=%d\n", cnt, y, line_height);
 136:..\..\..\u8g2\u8g2\csrc/u8g2_selection_list.c ****   for( i = 0; i < cnt; i++ )
 137:..\..\..\u8g2\u8g2\csrc/u8g2_selection_list.c ****   {
 138:..\..\..\u8g2\u8g2\csrc/u8g2_selection_list.c ****     //printf("  i=%d, y=%d, line_height=%d\n", i, y, line_height);
 139:..\..\..\u8g2\u8g2\csrc/u8g2_selection_list.c ****     u8g2_DrawUTF8Line(u8g2, x, y, w, u8x8_GetStringLineStart(i, s), 0, 0);
 140:..\..\..\u8g2\u8g2\csrc/u8g2_selection_list.c ****     y+=line_height;
 141:..\..\..\u8g2\u8g2\csrc/u8g2_selection_list.c ****     yy+=line_height;
 142:..\..\..\u8g2\u8g2\csrc/u8g2_selection_list.c ****   }
 143:..\..\..\u8g2\u8g2\csrc/u8g2_selection_list.c ****   return yy;
 144:..\..\..\u8g2\u8g2\csrc/u8g2_selection_list.c **** }
 145:..\..\..\u8g2\u8g2\csrc/u8g2_selection_list.c **** 
 146:..\..\..\u8g2\u8g2\csrc/u8g2_selection_list.c **** /*
 147:..\..\..\u8g2\u8g2\csrc/u8g2_selection_list.c ****   selection list with string line
 148:..\..\..\u8g2\u8g2\csrc/u8g2_selection_list.c ****   returns line height
 149:..\..\..\u8g2\u8g2\csrc/u8g2_selection_list.c **** */
 150:..\..\..\u8g2\u8g2\csrc/u8g2_selection_list.c **** static u8g2_uint_t u8g2_draw_selection_list_line(u8g2_t *u8g2, u8sl_t *u8sl, u8g2_uint_t y, uint8_t
 151:..\..\..\u8g2\u8g2\csrc/u8g2_selection_list.c **** static u8g2_uint_t u8g2_draw_selection_list_line(u8g2_t *u8g2, u8sl_t *u8sl, u8g2_uint_t y, uint8_t
 217              		.loc 1 151 0
 218              		.cfi_startproc
 219              		@ args = 4, pretend = 0, frame = 0
 220              		@ frame_needed = 0, uses_anonymous_args = 0
 221              	.LVL29:
 222 0000 F0B5     		push	{r4, r5, r6, r7, lr}
 223              		.cfi_def_cfa_offset 20
 224              		.cfi_offset 4, -20
 225              		.cfi_offset 5, -16
 226              		.cfi_offset 6, -12
 227              		.cfi_offset 7, -8
 228              		.cfi_offset 14, -4
 229 0002 1646     		mov	r6, r2
 152:..\..\..\u8g2\u8g2\csrc/u8g2_selection_list.c **** {
 153:..\..\..\u8g2\u8g2\csrc/u8g2_selection_list.c ****   //u8g2_uint_t yy;
 154:..\..\..\u8g2\u8g2\csrc/u8g2_selection_list.c ****   uint8_t border_size = 0;
 155:..\..\..\u8g2\u8g2\csrc/u8g2_selection_list.c ****   uint8_t is_invert = 0;
 156:..\..\..\u8g2\u8g2\csrc/u8g2_selection_list.c **** 	
 157:..\..\..\u8g2\u8g2\csrc/u8g2_selection_list.c ****   u8g2_uint_t line_height = u8g2_GetAscent(u8g2) - u8g2_GetDescent(u8g2)+MY_BORDER_SIZE;
 230              		.loc 1 157 0
 231 0004 90F98E40 		ldrsb	r4, [r0, #142]
 232 0008 90F98F20 		ldrsb	r2, [r0, #143]
 233              	.LVL30:
ARM GAS  C:\Users\jesse\AppData\Local\Temp\ccb9A9ti.s 			page 8


 151:..\..\..\u8g2\u8g2\csrc/u8g2_selection_list.c **** {
 234              		.loc 1 151 0
 235 000c 85B0     		sub	sp, sp, #20
 236              		.cfi_def_cfa_offset 40
 237              		.loc 1 157 0
 238 000e A41A     		subs	r4, r4, r2
 154:..\..\..\u8g2\u8g2\csrc/u8g2_selection_list.c ****   uint8_t is_invert = 0;
 239              		.loc 1 154 0
 240 0010 5A1A     		subs	r2, r3, r1
 241 0012 5742     		rsbs	r7, r2, #0
 151:..\..\..\u8g2\u8g2\csrc/u8g2_selection_list.c **** {
 242              		.loc 1 151 0
 243 0014 0546     		mov	r5, r0
 158:..\..\..\u8g2\u8g2\csrc/u8g2_selection_list.c **** 
 159:..\..\..\u8g2\u8g2\csrc/u8g2_selection_list.c ****   /* calculate offset from display upper border */
 160:..\..\..\u8g2\u8g2\csrc/u8g2_selection_list.c ****   //yy = idx;
 161:..\..\..\u8g2\u8g2\csrc/u8g2_selection_list.c ****   //yy -= u8sl->first_pos;
 162:..\..\..\u8g2\u8g2\csrc/u8g2_selection_list.c ****   //yy *= line_height;
 163:..\..\..\u8g2\u8g2\csrc/u8g2_selection_list.c ****   //yy += y;
 164:..\..\..\u8g2\u8g2\csrc/u8g2_selection_list.c **** 
 165:..\..\..\u8g2\u8g2\csrc/u8g2_selection_list.c ****   /* check whether this is the current cursor line */
 166:..\..\..\u8g2\u8g2\csrc/u8g2_selection_list.c ****   if ( idx == u8sl->current_pos )
 167:..\..\..\u8g2\u8g2\csrc/u8g2_selection_list.c ****   {
 168:..\..\..\u8g2\u8g2\csrc/u8g2_selection_list.c ****     border_size = MY_BORDER_SIZE;
 169:..\..\..\u8g2\u8g2\csrc/u8g2_selection_list.c ****     is_invert = 1;
 170:..\..\..\u8g2\u8g2\csrc/u8g2_selection_list.c ****   }
 171:..\..\..\u8g2\u8g2\csrc/u8g2_selection_list.c **** 
 172:..\..\..\u8g2\u8g2\csrc/u8g2_selection_list.c ****   /* get the line from the array */
 173:..\..\..\u8g2\u8g2\csrc/u8g2_selection_list.c ****   s = u8x8_GetStringLineStart(idx, s);
 244              		.loc 1 173 0
 245 0016 0A99     		ldr	r1, [sp, #40]
 246 0018 1846     		mov	r0, r3
 247              	.LVL31:
 154:..\..\..\u8g2\u8g2\csrc/u8g2_selection_list.c ****   uint8_t is_invert = 0;
 248              		.loc 1 154 0
 249 001a 5741     		adcs	r7, r7, r2
 250              		.loc 1 173 0
 251 001c FFF7FEFF 		bl	u8x8_GetStringLineStart
 252              	.LVL32:
 174:..\..\..\u8g2\u8g2\csrc/u8g2_selection_list.c **** 
 175:..\..\..\u8g2\u8g2\csrc/u8g2_selection_list.c ****   /* draw the line */
 176:..\..\..\u8g2\u8g2\csrc/u8g2_selection_list.c ****   if ( s == NULL )
 177:..\..\..\u8g2\u8g2\csrc/u8g2_selection_list.c ****     s = "";
 253              		.loc 1 177 0
 254 0020 0A4B     		ldr	r3, .L17
 157:..\..\..\u8g2\u8g2\csrc/u8g2_selection_list.c **** 
 255              		.loc 1 157 0
 256 0022 0134     		adds	r4, r4, #1
 257              		.loc 1 177 0
 258 0024 0028     		cmp	r0, #0
 259 0026 08BF     		it	eq
 260 0028 1846     		moveq	r0, r3
 178:..\..\..\u8g2\u8g2\csrc/u8g2_selection_list.c ****   u8g2_DrawUTF8Line(u8g2, MY_BORDER_SIZE, y, u8g2_GetDisplayWidth(u8g2)-2*MY_BORDER_SIZE, s, border
 261              		.loc 1 178 0
 262 002a B5F84430 		ldrh	r3, [r5, #68]
 263 002e 8DE88100 		stmia	sp, {r0, r7}
 264 0032 023B     		subs	r3, r3, #2
ARM GAS  C:\Users\jesse\AppData\Local\Temp\ccb9A9ti.s 			page 9


 265 0034 2846     		mov	r0, r5
 157:..\..\..\u8g2\u8g2\csrc/u8g2_selection_list.c **** 
 266              		.loc 1 157 0
 267 0036 A4B2     		uxth	r4, r4
 268              	.LVL33:
 269              		.loc 1 178 0
 270 0038 0297     		str	r7, [sp, #8]
 271 003a 9BB2     		uxth	r3, r3
 272 003c 3246     		mov	r2, r6
 273 003e 0121     		movs	r1, #1
 274 0040 FFF7FEFF 		bl	u8g2_DrawUTF8Line
 275              	.LVL34:
 179:..\..\..\u8g2\u8g2\csrc/u8g2_selection_list.c ****   return line_height;
 180:..\..\..\u8g2\u8g2\csrc/u8g2_selection_list.c **** }
 276              		.loc 1 180 0
 277 0044 2046     		mov	r0, r4
 278 0046 05B0     		add	sp, sp, #20
 279              		.cfi_def_cfa_offset 20
 280              		@ sp needed
 281 0048 F0BD     		pop	{r4, r5, r6, r7, pc}
 282              	.LVL35:
 283              	.L18:
 284 004a 00BF     		.align	2
 285              	.L17:
 286 004c 00000000 		.word	.LC0
 287              		.cfi_endproc
 288              	.LFE5:
 289              		.size	u8g2_draw_selection_list_line.isra.0, .-u8g2_draw_selection_list_line.isra.0
 290              		.section	.text.u8g2_DrawUTF8Lines,"ax",%progbits
 291              		.align	1
 292              		.global	u8g2_DrawUTF8Lines
 293              		.thumb
 294              		.thumb_func
 295              		.type	u8g2_DrawUTF8Lines, %function
 296              	u8g2_DrawUTF8Lines:
 297              	.LFB1:
 129:..\..\..\u8g2\u8g2\csrc/u8g2_selection_list.c ****   uint8_t i;
 298              		.loc 1 129 0
 299              		.cfi_startproc
 300              		@ args = 8, pretend = 0, frame = 0
 301              		@ frame_needed = 0, uses_anonymous_args = 0
 302              	.LVL36:
 303 0000 2DE9F04F 		push	{r4, r5, r6, r7, r8, r9, r10, fp, lr}
 304              		.cfi_def_cfa_offset 36
 305              		.cfi_offset 4, -36
 306              		.cfi_offset 5, -32
 307              		.cfi_offset 6, -28
 308              		.cfi_offset 7, -24
 309              		.cfi_offset 8, -20
 310              		.cfi_offset 9, -16
 311              		.cfi_offset 10, -12
 312              		.cfi_offset 11, -8
 313              		.cfi_offset 14, -4
 314 0004 85B0     		sub	sp, sp, #20
 315              		.cfi_def_cfa_offset 56
 129:..\..\..\u8g2\u8g2\csrc/u8g2_selection_list.c ****   uint8_t i;
 316              		.loc 1 129 0
ARM GAS  C:\Users\jesse\AppData\Local\Temp\ccb9A9ti.s 			page 10


 317 0006 8146     		mov	r9, r0
 133:..\..\..\u8g2\u8g2\csrc/u8g2_selection_list.c ****   //printf("str=%s\n", s);
 318              		.loc 1 133 0
 319 0008 0F98     		ldr	r0, [sp, #60]
 320              	.LVL37:
 129:..\..\..\u8g2\u8g2\csrc/u8g2_selection_list.c ****   uint8_t i;
 321              		.loc 1 129 0
 322 000a 8A46     		mov	r10, r1
 323 000c 1446     		mov	r4, r2
 324 000e 9B46     		mov	fp, r3
 325 0010 BDF83870 		ldrh	r7, [sp, #56]
 133:..\..\..\u8g2\u8g2\csrc/u8g2_selection_list.c ****   //printf("str=%s\n", s);
 326              		.loc 1 133 0
 327 0014 FFF7FEFF 		bl	u8x8_GetStringLineCnt
 328              	.LVL38:
 136:..\..\..\u8g2\u8g2\csrc/u8g2_selection_list.c ****   {
 329              		.loc 1 136 0
 330 0018 0026     		movs	r6, #0
 133:..\..\..\u8g2\u8g2\csrc/u8g2_selection_list.c ****   //printf("str=%s\n", s);
 331              		.loc 1 133 0
 332 001a 0546     		mov	r5, r0
 333              	.LVL39:
 139:..\..\..\u8g2\u8g2\csrc/u8g2_selection_list.c ****     y+=line_height;
 334              		.loc 1 139 0
 335 001c B046     		mov	r8, r6
 336              	.LVL40:
 337              	.L20:
 338 001e F0B2     		uxtb	r0, r6
 339              	.LVL41:
 136:..\..\..\u8g2\u8g2\csrc/u8g2_selection_list.c ****   {
 340              		.loc 1 136 0 discriminator 1
 341 0020 A842     		cmp	r0, r5
 342 0022 10D2     		bcs	.L22
 139:..\..\..\u8g2\u8g2\csrc/u8g2_selection_list.c ****     y+=line_height;
 343              		.loc 1 139 0 discriminator 3
 344 0024 0F99     		ldr	r1, [sp, #60]
 345 0026 FFF7FEFF 		bl	u8x8_GetStringLineStart
 346              	.LVL42:
 347 002a 2246     		mov	r2, r4
 348 002c 8DE80101 		stmia	sp, {r0, r8}
 349 0030 CDF80880 		str	r8, [sp, #8]
 350 0034 5B46     		mov	r3, fp
 351 0036 5146     		mov	r1, r10
 352 0038 4846     		mov	r0, r9
 140:..\..\..\u8g2\u8g2\csrc/u8g2_selection_list.c ****     yy+=line_height;
 353              		.loc 1 140 0 discriminator 3
 354 003a 3C44     		add	r4, r4, r7
 355              	.LVL43:
 139:..\..\..\u8g2\u8g2\csrc/u8g2_selection_list.c ****     y+=line_height;
 356              		.loc 1 139 0 discriminator 3
 357 003c FFF7FEFF 		bl	u8g2_DrawUTF8Line
 358              	.LVL44:
 140:..\..\..\u8g2\u8g2\csrc/u8g2_selection_list.c ****     yy+=line_height;
 359              		.loc 1 140 0 discriminator 3
 360 0040 A4B2     		uxth	r4, r4
 361              	.LVL45:
 362 0042 0136     		adds	r6, r6, #1
ARM GAS  C:\Users\jesse\AppData\Local\Temp\ccb9A9ti.s 			page 11


 363              	.LVL46:
 364 0044 EBE7     		b	.L20
 365              	.LVL47:
 366              	.L22:
 143:..\..\..\u8g2\u8g2\csrc/u8g2_selection_list.c **** }
 367              		.loc 1 143 0
 368 0046 05FB07F0 		mul	r0, r5, r7
 369              	.LVL48:
 144:..\..\..\u8g2\u8g2\csrc/u8g2_selection_list.c **** 
 370              		.loc 1 144 0
 371 004a 80B2     		uxth	r0, r0
 372 004c 05B0     		add	sp, sp, #20
 373              		.cfi_def_cfa_offset 36
 374              		@ sp needed
 375 004e BDE8F08F 		pop	{r4, r5, r6, r7, r8, r9, r10, fp, pc}
 376              		.cfi_endproc
 377              	.LFE1:
 378              		.size	u8g2_DrawUTF8Lines, .-u8g2_DrawUTF8Lines
 379              		.section	.text.u8g2_DrawSelectionList,"ax",%progbits
 380              		.align	1
 381              		.global	u8g2_DrawSelectionList
 382              		.thumb
 383              		.thumb_func
 384              		.type	u8g2_DrawSelectionList, %function
 385              	u8g2_DrawSelectionList:
 386              	.LFB3:
 181:..\..\..\u8g2\u8g2\csrc/u8g2_selection_list.c **** 
 182:..\..\..\u8g2\u8g2\csrc/u8g2_selection_list.c **** void u8g2_DrawSelectionList(u8g2_t *u8g2, u8sl_t *u8sl, u8g2_uint_t y, const char *s)
 183:..\..\..\u8g2\u8g2\csrc/u8g2_selection_list.c **** {
 387              		.loc 1 183 0
 388              		.cfi_startproc
 389              		@ args = 0, pretend = 0, frame = 0
 390              		@ frame_needed = 0, uses_anonymous_args = 0
 391              	.LVL49:
 392 0000 2DE9F341 		push	{r0, r1, r4, r5, r6, r7, r8, lr}
 393              		.cfi_def_cfa_offset 32
 394              		.cfi_offset 4, -24
 395              		.cfi_offset 5, -20
 396              		.cfi_offset 6, -16
 397              		.cfi_offset 7, -12
 398              		.cfi_offset 8, -8
 399              		.cfi_offset 14, -4
 400              		.loc 1 183 0
 401 0004 0746     		mov	r7, r0
 402 0006 0D46     		mov	r5, r1
 403 0008 1446     		mov	r4, r2
 404 000a 9846     		mov	r8, r3
 184:..\..\..\u8g2\u8g2\csrc/u8g2_selection_list.c ****   uint8_t i;
 185:..\..\..\u8g2\u8g2\csrc/u8g2_selection_list.c ****   for( i = 0; i < u8sl->visible; i++ )
 405              		.loc 1 185 0
 406 000c 0026     		movs	r6, #0
 407              	.LVL50:
 408              	.L24:
 409              		.loc 1 185 0 is_stmt 0 discriminator 1
 410 000e 2B78     		ldrb	r3, [r5]	@ zero_extendqisi2
 411 0010 F2B2     		uxtb	r2, r6
 412              	.LVL51:
ARM GAS  C:\Users\jesse\AppData\Local\Temp\ccb9A9ti.s 			page 12


 413 0012 9342     		cmp	r3, r2
 414 0014 06F10106 		add	r6, r6, #1
 415 0018 0CD9     		bls	.L26
 186:..\..\..\u8g2\u8g2\csrc/u8g2_selection_list.c ****   {
 187:..\..\..\u8g2\u8g2\csrc/u8g2_selection_list.c ****     y += u8g2_draw_selection_list_line(u8g2, u8sl, y, i+u8sl->first_pos, s);
 416              		.loc 1 187 0 is_stmt 1 discriminator 3
 417 001a AB78     		ldrb	r3, [r5, #2]	@ zero_extendqisi2
 418 001c E978     		ldrb	r1, [r5, #3]	@ zero_extendqisi2
 419 001e 1344     		add	r3, r3, r2
 420 0020 CDF80080 		str	r8, [sp]
 421 0024 2246     		mov	r2, r4
 422              	.LVL52:
 423 0026 DBB2     		uxtb	r3, r3
 424 0028 3846     		mov	r0, r7
 425 002a FFF7FEFF 		bl	u8g2_draw_selection_list_line.isra.0
 426              	.LVL53:
 427 002e 2044     		add	r0, r0, r4
 428 0030 84B2     		uxth	r4, r0
 429              	.LVL54:
 430 0032 ECE7     		b	.L24
 431              	.LVL55:
 432              	.L26:
 188:..\..\..\u8g2\u8g2\csrc/u8g2_selection_list.c ****   }
 189:..\..\..\u8g2\u8g2\csrc/u8g2_selection_list.c **** }
 433              		.loc 1 189 0
 434 0034 02B0     		add	sp, sp, #8
 435              		.cfi_def_cfa_offset 24
 436              		@ sp needed
 437 0036 BDE8F081 		pop	{r4, r5, r6, r7, r8, pc}
 438              		.cfi_endproc
 439              	.LFE3:
 440              		.size	u8g2_DrawSelectionList, .-u8g2_DrawSelectionList
 441              		.section	.text.u8g2_UserInterfaceSelectionList,"ax",%progbits
 442              		.align	1
 443              		.global	u8g2_UserInterfaceSelectionList
 444              		.thumb
 445              		.thumb_func
 446              		.type	u8g2_UserInterfaceSelectionList, %function
 447              	u8g2_UserInterfaceSelectionList:
 448              	.LFB4:
 190:..\..\..\u8g2\u8g2\csrc/u8g2_selection_list.c **** 
 191:..\..\..\u8g2\u8g2\csrc/u8g2_selection_list.c **** 
 192:..\..\..\u8g2\u8g2\csrc/u8g2_selection_list.c **** /*
 193:..\..\..\u8g2\u8g2\csrc/u8g2_selection_list.c ****   title: 		NULL for no title, valid str for title line. Can contain mutliple lines, separated by '\
 194:..\..\..\u8g2\u8g2\csrc/u8g2_selection_list.c ****   start_pos: 	default position for the cursor, first line is 1.
 195:..\..\..\u8g2\u8g2\csrc/u8g2_selection_list.c ****   sl:			string list (list of strings separated by \n)
 196:..\..\..\u8g2\u8g2\csrc/u8g2_selection_list.c ****   returns 0 if user has pressed the home key
 197:..\..\..\u8g2\u8g2\csrc/u8g2_selection_list.c ****   returns the selected line if user has pressed the select key
 198:..\..\..\u8g2\u8g2\csrc/u8g2_selection_list.c ****   side effects:
 199:..\..\..\u8g2\u8g2\csrc/u8g2_selection_list.c ****     u8g2_SetFontDirection(u8g2, 0);
 200:..\..\..\u8g2\u8g2\csrc/u8g2_selection_list.c ****     u8g2_SetFontPosBaseline(u8g2);
 201:..\..\..\u8g2\u8g2\csrc/u8g2_selection_list.c **** 	
 202:..\..\..\u8g2\u8g2\csrc/u8g2_selection_list.c **** */
 203:..\..\..\u8g2\u8g2\csrc/u8g2_selection_list.c **** uint8_t u8g2_UserInterfaceSelectionList(u8g2_t *u8g2, const char *title, uint8_t start_pos, const c
 204:..\..\..\u8g2\u8g2\csrc/u8g2_selection_list.c **** {
 449              		.loc 1 204 0
 450              		.cfi_startproc
ARM GAS  C:\Users\jesse\AppData\Local\Temp\ccb9A9ti.s 			page 13


 451              		@ args = 0, pretend = 0, frame = 8
 452              		@ frame_needed = 0, uses_anonymous_args = 0
 453              	.LVL56:
 454 0000 2DE9F043 		push	{r4, r5, r6, r7, r8, r9, lr}
 455              		.cfi_def_cfa_offset 28
 456              		.cfi_offset 4, -28
 457              		.cfi_offset 5, -24
 458              		.cfi_offset 6, -20
 459              		.cfi_offset 7, -16
 460              		.cfi_offset 8, -12
 461              		.cfi_offset 9, -8
 462              		.cfi_offset 14, -4
 463 0004 9946     		mov	r9, r3
 205:..\..\..\u8g2\u8g2\csrc/u8g2_selection_list.c ****   u8sl_t u8sl;
 206:..\..\..\u8g2\u8g2\csrc/u8g2_selection_list.c ****   u8g2_uint_t yy;
 207:..\..\..\u8g2\u8g2\csrc/u8g2_selection_list.c **** 
 208:..\..\..\u8g2\u8g2\csrc/u8g2_selection_list.c ****   uint8_t event;
 209:..\..\..\u8g2\u8g2\csrc/u8g2_selection_list.c **** 
 210:..\..\..\u8g2\u8g2\csrc/u8g2_selection_list.c ****   u8g2_uint_t line_height = u8g2_GetAscent(u8g2) - u8g2_GetDescent(u8g2)+MY_BORDER_SIZE;
 464              		.loc 1 210 0
 465 0006 90F98F60 		ldrsb	r6, [r0, #143]
 466 000a 90F98E30 		ldrsb	r3, [r0, #142]
 467              	.LVL57:
 204:..\..\..\u8g2\u8g2\csrc/u8g2_selection_list.c ****   u8sl_t u8sl;
 468              		.loc 1 204 0
 469 000e 85B0     		sub	sp, sp, #20
 470              		.cfi_def_cfa_offset 48
 204:..\..\..\u8g2\u8g2\csrc/u8g2_selection_list.c ****   u8sl_t u8sl;
 471              		.loc 1 204 0
 472 0010 0446     		mov	r4, r0
 211:..\..\..\u8g2\u8g2\csrc/u8g2_selection_list.c **** 
 212:..\..\..\u8g2\u8g2\csrc/u8g2_selection_list.c ****   uint8_t title_lines = u8x8_GetStringLineCnt(title);
 473              		.loc 1 212 0
 474 0012 0846     		mov	r0, r1
 475              	.LVL58:
 210:..\..\..\u8g2\u8g2\csrc/u8g2_selection_list.c **** 
 476              		.loc 1 210 0
 477 0014 9E1B     		subs	r6, r3, r6
 204:..\..\..\u8g2\u8g2\csrc/u8g2_selection_list.c ****   u8sl_t u8sl;
 478              		.loc 1 204 0
 479 0016 8846     		mov	r8, r1
 480 0018 1546     		mov	r5, r2
 481              		.loc 1 212 0
 482 001a FFF7FEFF 		bl	u8x8_GetStringLineCnt
 483              	.LVL59:
 210:..\..\..\u8g2\u8g2\csrc/u8g2_selection_list.c **** 
 484              		.loc 1 210 0
 485 001e 0136     		adds	r6, r6, #1
 486 0020 B6B2     		uxth	r6, r6
 487              	.LVL60:
 488              		.loc 1 212 0
 489 0022 0746     		mov	r7, r0
 490              	.LVL61:
 213:..\..\..\u8g2\u8g2\csrc/u8g2_selection_list.c ****   uint8_t display_lines;
 214:..\..\..\u8g2\u8g2\csrc/u8g2_selection_list.c **** 
 215:..\..\..\u8g2\u8g2\csrc/u8g2_selection_list.c ****   
 216:..\..\..\u8g2\u8g2\csrc/u8g2_selection_list.c ****   if ( start_pos > 0 )	/* issue 112 */
ARM GAS  C:\Users\jesse\AppData\Local\Temp\ccb9A9ti.s 			page 14


 491              		.loc 1 216 0
 492 0024 0DB1     		cbz	r5, .L28
 217:..\..\..\u8g2\u8g2\csrc/u8g2_selection_list.c ****     start_pos--;		/* issue 112 */
 493              		.loc 1 217 0
 494 0026 013D     		subs	r5, r5, #1
 495 0028 EDB2     		uxtb	r5, r5
 496              	.LVL62:
 497              	.L28:
 498 002a B4F84630 		ldrh	r3, [r4, #70]
 218:..\..\..\u8g2\u8g2\csrc/u8g2_selection_list.c **** 
 219:..\..\..\u8g2\u8g2\csrc/u8g2_selection_list.c **** 
 220:..\..\..\u8g2\u8g2\csrc/u8g2_selection_list.c ****   if ( title_lines > 0 )
 499              		.loc 1 220 0
 500 002e 27B1     		cbz	r7, .L29
 501              	.LVL63:
 221:..\..\..\u8g2\u8g2\csrc/u8g2_selection_list.c ****   {
 222:..\..\..\u8g2\u8g2\csrc/u8g2_selection_list.c **** 	display_lines = (u8g2_GetDisplayHeight(u8g2)-3) / line_height;
 223:..\..\..\u8g2\u8g2\csrc/u8g2_selection_list.c **** 	u8sl.visible = display_lines;
 224:..\..\..\u8g2\u8g2\csrc/u8g2_selection_list.c **** 	u8sl.visible -= title_lines;
 502              		.loc 1 224 0
 503 0030 033B     		subs	r3, r3, #3
 504 0032 93FBF6F3 		sdiv	r3, r3, r6
 505 0036 DB1B     		subs	r3, r3, r7
 506 0038 01E0     		b	.L57
 507              	.LVL64:
 508              	.L29:
 225:..\..\..\u8g2\u8g2\csrc/u8g2_selection_list.c ****   }
 226:..\..\..\u8g2\u8g2\csrc/u8g2_selection_list.c ****   else
 227:..\..\..\u8g2\u8g2\csrc/u8g2_selection_list.c ****   {
 228:..\..\..\u8g2\u8g2\csrc/u8g2_selection_list.c **** 	display_lines = u8g2_GetDisplayHeight(u8g2) / line_height;
 229:..\..\..\u8g2\u8g2\csrc/u8g2_selection_list.c **** 	u8sl.visible = display_lines;
 509              		.loc 1 229 0
 510 003a B3FBF6F3 		udiv	r3, r3, r6
 511              	.LVL65:
 512              	.L57:
 230:..\..\..\u8g2\u8g2\csrc/u8g2_selection_list.c ****   }
 231:..\..\..\u8g2\u8g2\csrc/u8g2_selection_list.c **** 
 232:..\..\..\u8g2\u8g2\csrc/u8g2_selection_list.c ****   u8sl.total = u8x8_GetStringLineCnt(sl);
 513              		.loc 1 232 0
 514 003e 4846     		mov	r0, r9
 229:..\..\..\u8g2\u8g2\csrc/u8g2_selection_list.c ****   }
 515              		.loc 1 229 0
 516 0040 8DF80830 		strb	r3, [sp, #8]
 517              		.loc 1 232 0
 518 0044 FFF7FEFF 		bl	u8x8_GetStringLineCnt
 519              	.LVL66:
 233:..\..\..\u8g2\u8g2\csrc/u8g2_selection_list.c ****   u8sl.first_pos = 0;
 234:..\..\..\u8g2\u8g2\csrc/u8g2_selection_list.c ****   u8sl.current_pos = start_pos;
 235:..\..\..\u8g2\u8g2\csrc/u8g2_selection_list.c **** 
 236:..\..\..\u8g2\u8g2\csrc/u8g2_selection_list.c ****   if ( u8sl.current_pos >= u8sl.total )
 520              		.loc 1 236 0
 521 0048 8542     		cmp	r5, r0
 232:..\..\..\u8g2\u8g2\csrc/u8g2_selection_list.c ****   u8sl.first_pos = 0;
 522              		.loc 1 232 0
 523 004a 8DF80900 		strb	r0, [sp, #9]
 237:..\..\..\u8g2\u8g2\csrc/u8g2_selection_list.c ****     u8sl.current_pos = u8sl.total-1;
 524              		.loc 1 237 0
ARM GAS  C:\Users\jesse\AppData\Local\Temp\ccb9A9ti.s 			page 15


 525 004e 24BF     		itt	cs
 526 0050 00F1FF30 		addcs	r0, r0, #-1
 527 0054 8DF80B00 		strbcs	r0, [sp, #11]
 233:..\..\..\u8g2\u8g2\csrc/u8g2_selection_list.c ****   u8sl.first_pos = 0;
 528              		.loc 1 233 0
 529 0058 4FF00003 		mov	r3, #0
 234:..\..\..\u8g2\u8g2\csrc/u8g2_selection_list.c **** 
 530              		.loc 1 234 0
 531 005c 38BF     		it	cc
 532 005e 8DF80B50 		strbcc	r5, [sp, #11]
 233:..\..\..\u8g2\u8g2\csrc/u8g2_selection_list.c ****   u8sl.current_pos = start_pos;
 533              		.loc 1 233 0
 534 0062 8DF80A30 		strb	r3, [sp, #10]
 238:..\..\..\u8g2\u8g2\csrc/u8g2_selection_list.c ****   if ( u8sl.first_pos+u8sl.visible <= u8sl.current_pos )
 535              		.loc 1 238 0
 536 0066 9DF80820 		ldrb	r2, [sp, #8]	@ zero_extendqisi2
 537 006a 9DF80B30 		ldrb	r3, [sp, #11]	@ zero_extendqisi2
 239:..\..\..\u8g2\u8g2\csrc/u8g2_selection_list.c ****     u8sl.first_pos = u8sl.current_pos-u8sl.visible+1;
 240:..\..\..\u8g2\u8g2\csrc/u8g2_selection_list.c **** 
 241:..\..\..\u8g2\u8g2\csrc/u8g2_selection_list.c ****   u8g2_SetFontPosBaseline(u8g2);
 538              		.loc 1 241 0
 539 006e 2046     		mov	r0, r4
 238:..\..\..\u8g2\u8g2\csrc/u8g2_selection_list.c ****   if ( u8sl.first_pos+u8sl.visible <= u8sl.current_pos )
 540              		.loc 1 238 0
 541 0070 9A42     		cmp	r2, r3
 239:..\..\..\u8g2\u8g2\csrc/u8g2_selection_list.c ****     u8sl.first_pos = u8sl.current_pos-u8sl.visible+1;
 542              		.loc 1 239 0
 543 0072 DEBF     		ittt	le
 544 0074 0133     		addle	r3, r3, #1
 545 0076 9B1A     		suble	r3, r3, r2
 546 0078 8DF80A30 		strble	r3, [sp, #10]
 547              		.loc 1 241 0
 548 007c FFF7FEFF 		bl	u8g2_SetFontPosBaseline
 549              	.LVL67:
 550              	.L34:
 242:..\..\..\u8g2\u8g2\csrc/u8g2_selection_list.c ****   
 243:..\..\..\u8g2\u8g2\csrc/u8g2_selection_list.c ****   for(;;)
 244:..\..\..\u8g2\u8g2\csrc/u8g2_selection_list.c ****   {
 245:..\..\..\u8g2\u8g2\csrc/u8g2_selection_list.c ****       u8g2_FirstPage(u8g2);
 551              		.loc 1 245 0
 552 0080 2046     		mov	r0, r4
 553 0082 FFF7FEFF 		bl	u8g2_FirstPage
 554              	.LVL68:
 555              	.L36:
 246:..\..\..\u8g2\u8g2\csrc/u8g2_selection_list.c ****       do
 247:..\..\..\u8g2\u8g2\csrc/u8g2_selection_list.c ****       {
 248:..\..\..\u8g2\u8g2\csrc/u8g2_selection_list.c ****         yy = u8g2_GetAscent(u8g2);
 556              		.loc 1 248 0
 557 0086 94F98E50 		ldrsb	r5, [r4, #142]
 558 008a ADB2     		uxth	r5, r5
 559              	.LVL69:
 249:..\..\..\u8g2\u8g2\csrc/u8g2_selection_list.c ****         if ( title_lines > 0 )
 560              		.loc 1 249 0
 561 008c CFB1     		cbz	r7, .L35
 250:..\..\..\u8g2\u8g2\csrc/u8g2_selection_list.c ****         {
 251:..\..\..\u8g2\u8g2\csrc/u8g2_selection_list.c ****           yy += u8g2_DrawUTF8Lines(u8g2, 0, yy, u8g2_GetDisplayWidth(u8g2), line_height, title);
 562              		.loc 1 251 0
ARM GAS  C:\Users\jesse\AppData\Local\Temp\ccb9A9ti.s 			page 16


 563 008e 2A46     		mov	r2, r5
 564 0090 B4F84430 		ldrh	r3, [r4, #68]
 565 0094 0021     		movs	r1, #0
 566 0096 8DE84001 		stmia	sp, {r6, r8}
 567 009a 2046     		mov	r0, r4
 568 009c FFF7FEFF 		bl	u8g2_DrawUTF8Lines
 569              	.LVL70:
 252:..\..\..\u8g2\u8g2\csrc/u8g2_selection_list.c **** 		
 253:..\..\..\u8g2\u8g2\csrc/u8g2_selection_list.c **** 	  u8g2_DrawHLine(u8g2, 0, yy-line_height- u8g2_GetDescent(u8g2) + 1, u8g2_GetDisplayWidth(u8g2));
 570              		.loc 1 253 0
 571 00a0 94F98F20 		ldrsb	r2, [r4, #143]
 251:..\..\..\u8g2\u8g2\csrc/u8g2_selection_list.c **** 		
 572              		.loc 1 251 0
 573 00a4 2844     		add	r0, r0, r5
 574              		.loc 1 253 0
 575 00a6 C2F10102 		rsb	r2, r2, #1
 251:..\..\..\u8g2\u8g2\csrc/u8g2_selection_list.c **** 		
 576              		.loc 1 251 0
 577 00aa 85B2     		uxth	r5, r0
 578              	.LVL71:
 579              		.loc 1 253 0
 580 00ac 921B     		subs	r2, r2, r6
 581 00ae 2A44     		add	r2, r2, r5
 582 00b0 B4F84430 		ldrh	r3, [r4, #68]
 583 00b4 92B2     		uxth	r2, r2
 584 00b6 0021     		movs	r1, #0
 585 00b8 2046     		mov	r0, r4
 586 00ba FFF7FEFF 		bl	u8g2_DrawHLine
 587              	.LVL72:
 254:..\..\..\u8g2\u8g2\csrc/u8g2_selection_list.c **** 		
 255:..\..\..\u8g2\u8g2\csrc/u8g2_selection_list.c **** 	  yy += 3;
 588              		.loc 1 255 0
 589 00be 0335     		adds	r5, r5, #3
 590              	.LVL73:
 591 00c0 ADB2     		uxth	r5, r5
 592              	.LVL74:
 593              	.L35:
 256:..\..\..\u8g2\u8g2\csrc/u8g2_selection_list.c ****         }
 257:..\..\..\u8g2\u8g2\csrc/u8g2_selection_list.c ****         u8g2_DrawSelectionList(u8g2, &u8sl, yy, sl);
 594              		.loc 1 257 0
 595 00c2 2A46     		mov	r2, r5
 596 00c4 4B46     		mov	r3, r9
 597 00c6 02A9     		add	r1, sp, #8
 598 00c8 2046     		mov	r0, r4
 599 00ca FFF7FEFF 		bl	u8g2_DrawSelectionList
 600              	.LVL75:
 258:..\..\..\u8g2\u8g2\csrc/u8g2_selection_list.c ****       } while( u8g2_NextPage(u8g2) );
 601              		.loc 1 258 0
 602 00ce 2046     		mov	r0, r4
 603 00d0 FFF7FEFF 		bl	u8g2_NextPage
 604              	.LVL76:
 605 00d4 0546     		mov	r5, r0
 606              	.LVL77:
 607 00d6 0028     		cmp	r0, #0
 608 00d8 D5D1     		bne	.L36
 609              	.L42:
 259:..\..\..\u8g2\u8g2\csrc/u8g2_selection_list.c ****       
ARM GAS  C:\Users\jesse\AppData\Local\Temp\ccb9A9ti.s 			page 17


 260:..\..\..\u8g2\u8g2\csrc/u8g2_selection_list.c **** #ifdef U8G2_REF_MAN_PIC
 261:..\..\..\u8g2\u8g2\csrc/u8g2_selection_list.c ****       return 0;
 262:..\..\..\u8g2\u8g2\csrc/u8g2_selection_list.c **** #endif
 263:..\..\..\u8g2\u8g2\csrc/u8g2_selection_list.c **** 
 264:..\..\..\u8g2\u8g2\csrc/u8g2_selection_list.c **** 
 265:..\..\..\u8g2\u8g2\csrc/u8g2_selection_list.c ****       for(;;)
 266:..\..\..\u8g2\u8g2\csrc/u8g2_selection_list.c ****       {
 267:..\..\..\u8g2\u8g2\csrc/u8g2_selection_list.c ****         event = u8x8_GetMenuEvent(u8g2_GetU8x8(u8g2));
 610              		.loc 1 267 0
 611 00da 2046     		mov	r0, r4
 612 00dc FFF7FEFF 		bl	u8x8_GetMenuEvent
 613              	.LVL78:
 268:..\..\..\u8g2\u8g2\csrc/u8g2_selection_list.c ****         if ( event == U8X8_MSG_GPIO_MENU_SELECT )
 614              		.loc 1 268 0
 615 00e0 5028     		cmp	r0, #80
 616 00e2 04D1     		bne	.L37
 269:..\..\..\u8g2\u8g2\csrc/u8g2_selection_list.c ****           return u8sl.current_pos+1;		/* +1, issue 112 */
 617              		.loc 1 269 0
 618 00e4 9DF80B50 		ldrb	r5, [sp, #11]	@ zero_extendqisi2
 619 00e8 0135     		adds	r5, r5, #1
 620 00ea EDB2     		uxtb	r5, r5
 621 00ec 11E0     		b	.L38
 622              	.L37:
 270:..\..\..\u8g2\u8g2\csrc/u8g2_selection_list.c ****         else if ( event == U8X8_MSG_GPIO_MENU_HOME )
 623              		.loc 1 270 0
 624 00ee 5328     		cmp	r0, #83
 625 00f0 0FD0     		beq	.L38
 271:..\..\..\u8g2\u8g2\csrc/u8g2_selection_list.c ****           return 0;				/* issue 112: return 0 instead of start_pos */
 272:..\..\..\u8g2\u8g2\csrc/u8g2_selection_list.c ****         else if ( event == U8X8_MSG_GPIO_MENU_NEXT || event == U8X8_MSG_GPIO_MENU_DOWN )
 626              		.loc 1 272 0
 627 00f2 00F0FB03 		and	r3, r0, #251
 628 00f6 512B     		cmp	r3, #81
 629 00f8 03D1     		bne	.L39
 273:..\..\..\u8g2\u8g2\csrc/u8g2_selection_list.c ****         {
 274:..\..\..\u8g2\u8g2\csrc/u8g2_selection_list.c ****           u8sl_Next(&u8sl);
 630              		.loc 1 274 0
 631 00fa 02A8     		add	r0, sp, #8
 632              	.LVL79:
 633 00fc FFF7FEFF 		bl	u8sl_Next
 634              	.LVL80:
 275:..\..\..\u8g2\u8g2\csrc/u8g2_selection_list.c ****           break;
 635              		.loc 1 275 0
 636 0100 BEE7     		b	.L34
 637              	.LVL81:
 638              	.L39:
 276:..\..\..\u8g2\u8g2\csrc/u8g2_selection_list.c ****         }
 277:..\..\..\u8g2\u8g2\csrc/u8g2_selection_list.c ****         else if ( event == U8X8_MSG_GPIO_MENU_PREV || event == U8X8_MSG_GPIO_MENU_UP )
 639              		.loc 1 277 0
 640 0102 5228     		cmp	r0, #82
 641 0104 01D0     		beq	.L41
 642              		.loc 1 277 0 is_stmt 0 discriminator 1
 643 0106 5428     		cmp	r0, #84
 644 0108 E7D1     		bne	.L42
 645              	.L41:
 278:..\..\..\u8g2\u8g2\csrc/u8g2_selection_list.c ****         {
 279:..\..\..\u8g2\u8g2\csrc/u8g2_selection_list.c ****           u8sl_Prev(&u8sl);
 646              		.loc 1 279 0 is_stmt 1
ARM GAS  C:\Users\jesse\AppData\Local\Temp\ccb9A9ti.s 			page 18


 647 010a 02A8     		add	r0, sp, #8
 648              	.LVL82:
 649 010c FFF7FEFF 		bl	u8sl_Prev
 650              	.LVL83:
 280:..\..\..\u8g2\u8g2\csrc/u8g2_selection_list.c ****           break;
 651              		.loc 1 280 0
 652 0110 B6E7     		b	.L34
 653              	.LVL84:
 654              	.L38:
 281:..\..\..\u8g2\u8g2\csrc/u8g2_selection_list.c ****         }
 282:..\..\..\u8g2\u8g2\csrc/u8g2_selection_list.c ****       }
 283:..\..\..\u8g2\u8g2\csrc/u8g2_selection_list.c ****   }
 284:..\..\..\u8g2\u8g2\csrc/u8g2_selection_list.c **** }
 655              		.loc 1 284 0
 656 0112 2846     		mov	r0, r5
 657              	.LVL85:
 658 0114 05B0     		add	sp, sp, #20
 659              		.cfi_def_cfa_offset 28
 660              		@ sp needed
 661 0116 BDE8F083 		pop	{r4, r5, r6, r7, r8, r9, pc}
 662              		.cfi_endproc
 663              	.LFE4:
 664              		.size	u8g2_UserInterfaceSelectionList, .-u8g2_UserInterfaceSelectionList
 665              		.section	.rodata.str1.1,"aMS",%progbits,1
 666              	.LC0:
 667 0000 00       		.ascii	"\000"
 668              		.text
 669              	.Letext0:
 670              		.file 2 "c:\\program files (x86)\\cypress\\psoc creator\\4.4\\psoc creator\\import\\gnu\\arm\\5.4.
 671              		.file 3 "c:\\program files (x86)\\cypress\\psoc creator\\4.4\\psoc creator\\import\\gnu\\arm\\5.4.
 672              		.file 4 "..\\..\\..\\u8g2\\u8g2\\csrc\\u8x8.h"
 673              		.file 5 "..\\..\\..\\u8g2\\u8g2\\csrc\\u8g2.h"