ARM GAS  C:\Users\jesse\AppData\Local\Temp\cck22udk.s 			page 1


   1              		.syntax unified
   2              		.cpu cortex-m3
   3              		.fpu softvfp
   4              		.eabi_attribute 20, 1
   5              		.eabi_attribute 21, 1
   6              		.eabi_attribute 23, 3
   7              		.eabi_attribute 24, 1
   8              		.eabi_attribute 25, 1
   9              		.eabi_attribute 26, 1
  10              		.eabi_attribute 30, 4
  11              		.eabi_attribute 34, 1
  12              		.eabi_attribute 18, 4
  13              		.thumb
  14              		.syntax unified
  15              		.file	"u8g2_polygon.c"
  16              		.text
  17              	.Ltext0:
  18              		.cfi_sections	.debug_frame
  19              		.section	.text.pge_Next,"ax",%progbits
  20              		.align	1
  21              		.thumb
  22              		.thumb_func
  23              		.type	pge_Next, %function
  24              	pge_Next:
  25              	.LFB0:
  26              		.file 1 "..\\..\\..\\u8g2\\u8g2\\csrc\\u8g2_polygon.c"
   1:..\..\..\u8g2\u8g2\csrc/u8g2_polygon.c **** /*
   2:..\..\..\u8g2\u8g2\csrc/u8g2_polygon.c **** 
   3:..\..\..\u8g2\u8g2\csrc/u8g2_polygon.c ****   u8g22_polygon.c
   4:..\..\..\u8g2\u8g2\csrc/u8g2_polygon.c **** 
   5:..\..\..\u8g2\u8g2\csrc/u8g2_polygon.c **** */	
   6:..\..\..\u8g2\u8g2\csrc/u8g2_polygon.c **** 
   7:..\..\..\u8g2\u8g2\csrc/u8g2_polygon.c **** 
   8:..\..\..\u8g2\u8g2\csrc/u8g2_polygon.c **** #include "u8g2.h"
   9:..\..\..\u8g2\u8g2\csrc/u8g2_polygon.c **** 
  10:..\..\..\u8g2\u8g2\csrc/u8g2_polygon.c **** 
  11:..\..\..\u8g2\u8g2\csrc/u8g2_polygon.c **** 
  12:..\..\..\u8g2\u8g2\csrc/u8g2_polygon.c **** 
  13:..\..\..\u8g2\u8g2\csrc/u8g2_polygon.c **** /*===========================================*/
  14:..\..\..\u8g2\u8g2\csrc/u8g2_polygon.c **** /* local definitions */
  15:..\..\..\u8g2\u8g2\csrc/u8g2_polygon.c **** 
  16:..\..\..\u8g2\u8g2\csrc/u8g2_polygon.c **** typedef int16_t pg_word_t;
  17:..\..\..\u8g2\u8g2\csrc/u8g2_polygon.c **** 
  18:..\..\..\u8g2\u8g2\csrc/u8g2_polygon.c **** 
  19:..\..\..\u8g2\u8g2\csrc/u8g2_polygon.c **** struct pg_point_struct
  20:..\..\..\u8g2\u8g2\csrc/u8g2_polygon.c **** {
  21:..\..\..\u8g2\u8g2\csrc/u8g2_polygon.c ****   pg_word_t x;
  22:..\..\..\u8g2\u8g2\csrc/u8g2_polygon.c ****   pg_word_t y;
  23:..\..\..\u8g2\u8g2\csrc/u8g2_polygon.c **** };
  24:..\..\..\u8g2\u8g2\csrc/u8g2_polygon.c **** 
  25:..\..\..\u8g2\u8g2\csrc/u8g2_polygon.c **** typedef struct _pg_struct pg_struct;	/* forward declaration */
  26:..\..\..\u8g2\u8g2\csrc/u8g2_polygon.c **** 
  27:..\..\..\u8g2\u8g2\csrc/u8g2_polygon.c **** struct pg_edge_struct
  28:..\..\..\u8g2\u8g2\csrc/u8g2_polygon.c **** {
  29:..\..\..\u8g2\u8g2\csrc/u8g2_polygon.c ****   pg_word_t x_direction;	/* 1, if x2 is greater than x1, -1 otherwise */
  30:..\..\..\u8g2\u8g2\csrc/u8g2_polygon.c ****   pg_word_t height;
  31:..\..\..\u8g2\u8g2\csrc/u8g2_polygon.c ****   pg_word_t current_x_offset;
ARM GAS  C:\Users\jesse\AppData\Local\Temp\cck22udk.s 			page 2


  32:..\..\..\u8g2\u8g2\csrc/u8g2_polygon.c ****   pg_word_t error_offset;
  33:..\..\..\u8g2\u8g2\csrc/u8g2_polygon.c ****   
  34:..\..\..\u8g2\u8g2\csrc/u8g2_polygon.c ****   /* --- line loop --- */
  35:..\..\..\u8g2\u8g2\csrc/u8g2_polygon.c ****   pg_word_t current_y;
  36:..\..\..\u8g2\u8g2\csrc/u8g2_polygon.c ****   pg_word_t max_y;
  37:..\..\..\u8g2\u8g2\csrc/u8g2_polygon.c ****   pg_word_t current_x;
  38:..\..\..\u8g2\u8g2\csrc/u8g2_polygon.c ****   pg_word_t error;
  39:..\..\..\u8g2\u8g2\csrc/u8g2_polygon.c **** 
  40:..\..\..\u8g2\u8g2\csrc/u8g2_polygon.c ****   /* --- outer loop --- */
  41:..\..\..\u8g2\u8g2\csrc/u8g2_polygon.c ****   uint8_t (*next_idx_fn)(pg_struct *pg, uint8_t i);
  42:..\..\..\u8g2\u8g2\csrc/u8g2_polygon.c ****   uint8_t curr_idx;
  43:..\..\..\u8g2\u8g2\csrc/u8g2_polygon.c **** };
  44:..\..\..\u8g2\u8g2\csrc/u8g2_polygon.c **** 
  45:..\..\..\u8g2\u8g2\csrc/u8g2_polygon.c **** /* maximum number of points in the polygon */
  46:..\..\..\u8g2\u8g2\csrc/u8g2_polygon.c **** /* can be redefined, but highest possible value is 254 */
  47:..\..\..\u8g2\u8g2\csrc/u8g2_polygon.c **** #define PG_MAX_POINTS 6
  48:..\..\..\u8g2\u8g2\csrc/u8g2_polygon.c **** 
  49:..\..\..\u8g2\u8g2\csrc/u8g2_polygon.c **** /* index numbers for the pge structures below */
  50:..\..\..\u8g2\u8g2\csrc/u8g2_polygon.c **** #define PG_LEFT 0
  51:..\..\..\u8g2\u8g2\csrc/u8g2_polygon.c **** #define PG_RIGHT 1
  52:..\..\..\u8g2\u8g2\csrc/u8g2_polygon.c **** 
  53:..\..\..\u8g2\u8g2\csrc/u8g2_polygon.c **** 
  54:..\..\..\u8g2\u8g2\csrc/u8g2_polygon.c **** struct _pg_struct
  55:..\..\..\u8g2\u8g2\csrc/u8g2_polygon.c **** {
  56:..\..\..\u8g2\u8g2\csrc/u8g2_polygon.c ****   struct pg_point_struct list[PG_MAX_POINTS];
  57:..\..\..\u8g2\u8g2\csrc/u8g2_polygon.c ****   uint8_t cnt;
  58:..\..\..\u8g2\u8g2\csrc/u8g2_polygon.c ****   uint8_t is_min_y_not_flat;
  59:..\..\..\u8g2\u8g2\csrc/u8g2_polygon.c ****   pg_word_t total_scan_line_cnt;
  60:..\..\..\u8g2\u8g2\csrc/u8g2_polygon.c ****   struct pg_edge_struct pge[2];	/* left and right line draw structures */
  61:..\..\..\u8g2\u8g2\csrc/u8g2_polygon.c **** };
  62:..\..\..\u8g2\u8g2\csrc/u8g2_polygon.c **** 
  63:..\..\..\u8g2\u8g2\csrc/u8g2_polygon.c **** 
  64:..\..\..\u8g2\u8g2\csrc/u8g2_polygon.c **** /*===========================================*/
  65:..\..\..\u8g2\u8g2\csrc/u8g2_polygon.c **** /* procedures, which should not be inlined (save as much flash ROM as possible */
  66:..\..\..\u8g2\u8g2\csrc/u8g2_polygon.c **** 
  67:..\..\..\u8g2\u8g2\csrc/u8g2_polygon.c **** #define PG_NOINLINE U8G2_NOINLINE
  68:..\..\..\u8g2\u8g2\csrc/u8g2_polygon.c **** 
  69:..\..\..\u8g2\u8g2\csrc/u8g2_polygon.c **** static uint8_t pge_Next(struct pg_edge_struct *pge) PG_NOINLINE;
  70:..\..\..\u8g2\u8g2\csrc/u8g2_polygon.c **** static uint8_t pg_inc(pg_struct *pg, uint8_t i) PG_NOINLINE;
  71:..\..\..\u8g2\u8g2\csrc/u8g2_polygon.c **** static uint8_t pg_dec(pg_struct *pg, uint8_t i) PG_NOINLINE;
  72:..\..\..\u8g2\u8g2\csrc/u8g2_polygon.c **** static void pg_expand_min_y(pg_struct *pg, pg_word_t min_y, uint8_t pge_idx) PG_NOINLINE;
  73:..\..\..\u8g2\u8g2\csrc/u8g2_polygon.c **** static void pg_line_init(pg_struct * const pg, uint8_t pge_index) PG_NOINLINE;
  74:..\..\..\u8g2\u8g2\csrc/u8g2_polygon.c **** 
  75:..\..\..\u8g2\u8g2\csrc/u8g2_polygon.c **** /*===========================================*/
  76:..\..\..\u8g2\u8g2\csrc/u8g2_polygon.c **** /* line draw algorithm */
  77:..\..\..\u8g2\u8g2\csrc/u8g2_polygon.c **** 
  78:..\..\..\u8g2\u8g2\csrc/u8g2_polygon.c **** static uint8_t pge_Next(struct pg_edge_struct *pge)
  79:..\..\..\u8g2\u8g2\csrc/u8g2_polygon.c **** {
  27              		.loc 1 79 0
  28              		.cfi_startproc
  29              		@ args = 0, pretend = 0, frame = 0
  30              		@ frame_needed = 0, uses_anonymous_args = 0
  31              	.LVL0:
  80:..\..\..\u8g2\u8g2\csrc/u8g2_polygon.c ****   if ( pge->current_y >= pge->max_y )
  32              		.loc 1 80 0
  33 0000 B0F90810 		ldrsh	r1, [r0, #8]
  34 0004 B0F90A30 		ldrsh	r3, [r0, #10]
ARM GAS  C:\Users\jesse\AppData\Local\Temp\cck22udk.s 			page 3


  79:..\..\..\u8g2\u8g2\csrc/u8g2_polygon.c ****   if ( pge->current_y >= pge->max_y )
  35              		.loc 1 79 0
  36 0008 10B5     		push	{r4, lr}
  37              		.cfi_def_cfa_offset 8
  38              		.cfi_offset 4, -8
  39              		.cfi_offset 14, -4
  40              		.loc 1 80 0
  41 000a 8B42     		cmp	r3, r1
  42 000c 16DD     		ble	.L4
  81:..\..\..\u8g2\u8g2\csrc/u8g2_polygon.c ****     return 0;
  82:..\..\..\u8g2\u8g2\csrc/u8g2_polygon.c ****   
  83:..\..\..\u8g2\u8g2\csrc/u8g2_polygon.c ****   pge->current_x += pge->current_x_offset;
  43              		.loc 1 83 0
  44 000e 8289     		ldrh	r2, [r0, #12]
  45 0010 8388     		ldrh	r3, [r0, #4]
  84:..\..\..\u8g2\u8g2\csrc/u8g2_polygon.c ****   pge->error += pge->error_offset;
  46              		.loc 1 84 0
  47 0012 C489     		ldrh	r4, [r0, #14]
  83:..\..\..\u8g2\u8g2\csrc/u8g2_polygon.c ****   pge->error += pge->error_offset;
  48              		.loc 1 83 0
  49 0014 1A44     		add	r2, r2, r3
  50              		.loc 1 84 0
  51 0016 C388     		ldrh	r3, [r0, #6]
  83:..\..\..\u8g2\u8g2\csrc/u8g2_polygon.c ****   pge->error += pge->error_offset;
  52              		.loc 1 83 0
  53 0018 92B2     		uxth	r2, r2
  54              		.loc 1 84 0
  55 001a 2344     		add	r3, r3, r4
  56 001c 9BB2     		uxth	r3, r3
  57 001e 1CB2     		sxth	r4, r3
  85:..\..\..\u8g2\u8g2\csrc/u8g2_polygon.c ****   if ( pge->error > 0 )
  58              		.loc 1 85 0
  59 0020 002C     		cmp	r4, #0
  83:..\..\..\u8g2\u8g2\csrc/u8g2_polygon.c ****   pge->error += pge->error_offset;
  60              		.loc 1 83 0
  61 0022 8281     		strh	r2, [r0, #12]	@ movhi
  84:..\..\..\u8g2\u8g2\csrc/u8g2_polygon.c ****   pge->error += pge->error_offset;
  62              		.loc 1 84 0
  63 0024 C481     		strh	r4, [r0, #14]	@ movhi
  64              		.loc 1 85 0
  65 0026 05DD     		ble	.L3
  86:..\..\..\u8g2\u8g2\csrc/u8g2_polygon.c ****   {
  87:..\..\..\u8g2\u8g2\csrc/u8g2_polygon.c ****     pge->current_x += pge->x_direction;
  66              		.loc 1 87 0
  67 0028 0488     		ldrh	r4, [r0]
  68 002a 2244     		add	r2, r2, r4
  69 002c 8281     		strh	r2, [r0, #12]	@ movhi
  88:..\..\..\u8g2\u8g2\csrc/u8g2_polygon.c ****     pge->error -= pge->height;
  70              		.loc 1 88 0
  71 002e 4288     		ldrh	r2, [r0, #2]
  72 0030 9B1A     		subs	r3, r3, r2
  73 0032 C381     		strh	r3, [r0, #14]	@ movhi
  74              	.L3:
  89:..\..\..\u8g2\u8g2\csrc/u8g2_polygon.c ****   }  
  90:..\..\..\u8g2\u8g2\csrc/u8g2_polygon.c ****   
  91:..\..\..\u8g2\u8g2\csrc/u8g2_polygon.c ****   pge->current_y++;
  75              		.loc 1 91 0
ARM GAS  C:\Users\jesse\AppData\Local\Temp\cck22udk.s 			page 4


  76 0034 0131     		adds	r1, r1, #1
  77 0036 0181     		strh	r1, [r0, #8]	@ movhi
  92:..\..\..\u8g2\u8g2\csrc/u8g2_polygon.c ****   return 1;
  78              		.loc 1 92 0
  79 0038 0120     		movs	r0, #1
  80              	.LVL1:
  81 003a 10BD     		pop	{r4, pc}
  82              	.LVL2:
  83              	.L4:
  81:..\..\..\u8g2\u8g2\csrc/u8g2_polygon.c ****   
  84              		.loc 1 81 0
  85 003c 0020     		movs	r0, #0
  86              	.LVL3:
  93:..\..\..\u8g2\u8g2\csrc/u8g2_polygon.c **** }
  87              		.loc 1 93 0
  88 003e 10BD     		pop	{r4, pc}
  89              		.cfi_endproc
  90              	.LFE0:
  91              		.size	pge_Next, .-pge_Next
  92              		.section	.text.pg_inc,"ax",%progbits
  93              		.align	1
  94              		.thumb
  95              		.thumb_func
  96              		.type	pg_inc, %function
  97              	pg_inc:
  98              	.LFB2:
  94:..\..\..\u8g2\u8g2\csrc/u8g2_polygon.c **** 
  95:..\..\..\u8g2\u8g2\csrc/u8g2_polygon.c **** /* assumes y2 > y1 */
  96:..\..\..\u8g2\u8g2\csrc/u8g2_polygon.c **** static void pge_Init(struct pg_edge_struct *pge, pg_word_t x1, pg_word_t y1, pg_word_t x2, pg_word_
  97:..\..\..\u8g2\u8g2\csrc/u8g2_polygon.c **** {
  98:..\..\..\u8g2\u8g2\csrc/u8g2_polygon.c ****   pg_word_t dx = x2 - x1;
  99:..\..\..\u8g2\u8g2\csrc/u8g2_polygon.c ****   pg_word_t width;
 100:..\..\..\u8g2\u8g2\csrc/u8g2_polygon.c **** 
 101:..\..\..\u8g2\u8g2\csrc/u8g2_polygon.c ****   pge->height = y2 - y1;
 102:..\..\..\u8g2\u8g2\csrc/u8g2_polygon.c ****   pge->max_y = y2;
 103:..\..\..\u8g2\u8g2\csrc/u8g2_polygon.c ****   pge->current_y = y1;
 104:..\..\..\u8g2\u8g2\csrc/u8g2_polygon.c ****   pge->current_x = x1;
 105:..\..\..\u8g2\u8g2\csrc/u8g2_polygon.c **** 
 106:..\..\..\u8g2\u8g2\csrc/u8g2_polygon.c ****   if ( dx >= 0 )
 107:..\..\..\u8g2\u8g2\csrc/u8g2_polygon.c ****   {
 108:..\..\..\u8g2\u8g2\csrc/u8g2_polygon.c ****     pge->x_direction = 1;
 109:..\..\..\u8g2\u8g2\csrc/u8g2_polygon.c ****     width = dx;
 110:..\..\..\u8g2\u8g2\csrc/u8g2_polygon.c ****     pge->error = 0;
 111:..\..\..\u8g2\u8g2\csrc/u8g2_polygon.c ****   }
 112:..\..\..\u8g2\u8g2\csrc/u8g2_polygon.c ****   else
 113:..\..\..\u8g2\u8g2\csrc/u8g2_polygon.c ****   {
 114:..\..\..\u8g2\u8g2\csrc/u8g2_polygon.c ****     pge->x_direction = -1;
 115:..\..\..\u8g2\u8g2\csrc/u8g2_polygon.c ****     width = -dx;
 116:..\..\..\u8g2\u8g2\csrc/u8g2_polygon.c ****     pge->error = 1 - pge->height;
 117:..\..\..\u8g2\u8g2\csrc/u8g2_polygon.c ****   }
 118:..\..\..\u8g2\u8g2\csrc/u8g2_polygon.c ****   
 119:..\..\..\u8g2\u8g2\csrc/u8g2_polygon.c ****   pge->current_x_offset = dx / pge->height;
 120:..\..\..\u8g2\u8g2\csrc/u8g2_polygon.c ****   pge->error_offset = width % pge->height;
 121:..\..\..\u8g2\u8g2\csrc/u8g2_polygon.c **** }
 122:..\..\..\u8g2\u8g2\csrc/u8g2_polygon.c **** 
 123:..\..\..\u8g2\u8g2\csrc/u8g2_polygon.c **** /*===========================================*/
 124:..\..\..\u8g2\u8g2\csrc/u8g2_polygon.c **** /* convex polygon algorithm */
ARM GAS  C:\Users\jesse\AppData\Local\Temp\cck22udk.s 			page 5


 125:..\..\..\u8g2\u8g2\csrc/u8g2_polygon.c **** 
 126:..\..\..\u8g2\u8g2\csrc/u8g2_polygon.c **** static uint8_t pg_inc(pg_struct *pg, uint8_t i)
 127:..\..\..\u8g2\u8g2\csrc/u8g2_polygon.c **** {
  99              		.loc 1 127 0
 100              		.cfi_startproc
 101              		@ args = 0, pretend = 0, frame = 0
 102              		@ frame_needed = 0, uses_anonymous_args = 0
 103              		@ link register save eliminated.
 104              	.LVL4:
 128:..\..\..\u8g2\u8g2\csrc/u8g2_polygon.c ****     i++;
 129:..\..\..\u8g2\u8g2\csrc/u8g2_polygon.c ****     if ( i >= pg->cnt )
 105              		.loc 1 129 0
 106 0000 007E     		ldrb	r0, [r0, #24]	@ zero_extendqisi2
 107              	.LVL5:
 128:..\..\..\u8g2\u8g2\csrc/u8g2_polygon.c ****     i++;
 108              		.loc 1 128 0
 109 0002 0131     		adds	r1, r1, #1
 110              	.LVL6:
 111 0004 C9B2     		uxtb	r1, r1
 112              	.LVL7:
 130:..\..\..\u8g2\u8g2\csrc/u8g2_polygon.c ****       i = 0;
 131:..\..\..\u8g2\u8g2\csrc/u8g2_polygon.c ****     return i;
 132:..\..\..\u8g2\u8g2\csrc/u8g2_polygon.c **** }
 113              		.loc 1 132 0
 114 0006 8842     		cmp	r0, r1
 115 0008 8CBF     		ite	hi
 116 000a 0846     		movhi	r0, r1
 117 000c 0020     		movls	r0, #0
 118              	.LVL8:
 119 000e 7047     		bx	lr
 120              		.cfi_endproc
 121              	.LFE2:
 122              		.size	pg_inc, .-pg_inc
 123              		.section	.text.pg_dec,"ax",%progbits
 124              		.align	1
 125              		.thumb
 126              		.thumb_func
 127              		.type	pg_dec, %function
 128              	pg_dec:
 129              	.LFB3:
 133:..\..\..\u8g2\u8g2\csrc/u8g2_polygon.c **** 
 134:..\..\..\u8g2\u8g2\csrc/u8g2_polygon.c **** static uint8_t pg_dec(pg_struct *pg, uint8_t i)
 135:..\..\..\u8g2\u8g2\csrc/u8g2_polygon.c **** {
 130              		.loc 1 135 0
 131              		.cfi_startproc
 132              		@ args = 0, pretend = 0, frame = 0
 133              		@ frame_needed = 0, uses_anonymous_args = 0
 134              		@ link register save eliminated.
 135              	.LVL9:
 136:..\..\..\u8g2\u8g2\csrc/u8g2_polygon.c ****     i--;
 137:..\..\..\u8g2\u8g2\csrc/u8g2_polygon.c ****     if ( i >= pg->cnt )
 136              		.loc 1 137 0
 137 0000 037E     		ldrb	r3, [r0, #24]	@ zero_extendqisi2
 136:..\..\..\u8g2\u8g2\csrc/u8g2_polygon.c ****     i--;
 138              		.loc 1 136 0
 139 0002 0139     		subs	r1, r1, #1
 140              	.LVL10:
ARM GAS  C:\Users\jesse\AppData\Local\Temp\cck22udk.s 			page 6


 141 0004 C9B2     		uxtb	r1, r1
 142              	.LVL11:
 143              		.loc 1 137 0
 144 0006 9942     		cmp	r1, r3
 138:..\..\..\u8g2\u8g2\csrc/u8g2_polygon.c ****       i = pg->cnt-1;
 145              		.loc 1 138 0
 146 0008 24BF     		itt	cs
 147 000a 03F1FF31 		addcs	r1, r3, #-1
 148              	.LVL12:
 149 000e C9B2     		uxtbcs	r1, r1
 150              	.LVL13:
 139:..\..\..\u8g2\u8g2\csrc/u8g2_polygon.c ****     return i;
 140:..\..\..\u8g2\u8g2\csrc/u8g2_polygon.c **** }
 151              		.loc 1 140 0
 152 0010 0846     		mov	r0, r1
 153              	.LVL14:
 154 0012 7047     		bx	lr
 155              		.cfi_endproc
 156              	.LFE3:
 157              		.size	pg_dec, .-pg_dec
 158              		.section	.text.pg_line_init.constprop.4,"ax",%progbits
 159              		.align	1
 160              		.thumb
 161              		.thumb_func
 162              		.type	pg_line_init.constprop.4, %function
 163              	pg_line_init.constprop.4:
 164              	.LFB20:
 141:..\..\..\u8g2\u8g2\csrc/u8g2_polygon.c **** 
 142:..\..\..\u8g2\u8g2\csrc/u8g2_polygon.c **** static void pg_expand_min_y(pg_struct *pg, pg_word_t min_y, uint8_t pge_idx)
 143:..\..\..\u8g2\u8g2\csrc/u8g2_polygon.c **** {
 144:..\..\..\u8g2\u8g2\csrc/u8g2_polygon.c ****   uint8_t i = pg->pge[pge_idx].curr_idx;
 145:..\..\..\u8g2\u8g2\csrc/u8g2_polygon.c ****   for(;;)
 146:..\..\..\u8g2\u8g2\csrc/u8g2_polygon.c ****   {
 147:..\..\..\u8g2\u8g2\csrc/u8g2_polygon.c ****     i = pg->pge[pge_idx].next_idx_fn(pg, i);
 148:..\..\..\u8g2\u8g2\csrc/u8g2_polygon.c ****     if ( pg->list[i].y != min_y )
 149:..\..\..\u8g2\u8g2\csrc/u8g2_polygon.c ****       break;	
 150:..\..\..\u8g2\u8g2\csrc/u8g2_polygon.c ****     pg->pge[pge_idx].curr_idx = i;
 151:..\..\..\u8g2\u8g2\csrc/u8g2_polygon.c ****   }
 152:..\..\..\u8g2\u8g2\csrc/u8g2_polygon.c **** }
 153:..\..\..\u8g2\u8g2\csrc/u8g2_polygon.c **** 
 154:..\..\..\u8g2\u8g2\csrc/u8g2_polygon.c **** static uint8_t pg_prepare(pg_struct *pg)
 155:..\..\..\u8g2\u8g2\csrc/u8g2_polygon.c **** {
 156:..\..\..\u8g2\u8g2\csrc/u8g2_polygon.c ****   pg_word_t max_y;
 157:..\..\..\u8g2\u8g2\csrc/u8g2_polygon.c ****   pg_word_t min_y;
 158:..\..\..\u8g2\u8g2\csrc/u8g2_polygon.c ****   uint8_t i;
 159:..\..\..\u8g2\u8g2\csrc/u8g2_polygon.c **** 
 160:..\..\..\u8g2\u8g2\csrc/u8g2_polygon.c ****   /* setup the next index procedures */
 161:..\..\..\u8g2\u8g2\csrc/u8g2_polygon.c ****   pg->pge[PG_RIGHT].next_idx_fn = pg_inc;
 162:..\..\..\u8g2\u8g2\csrc/u8g2_polygon.c ****   pg->pge[PG_LEFT].next_idx_fn = pg_dec;
 163:..\..\..\u8g2\u8g2\csrc/u8g2_polygon.c ****   
 164:..\..\..\u8g2\u8g2\csrc/u8g2_polygon.c ****   /* search for highest and lowest point */
 165:..\..\..\u8g2\u8g2\csrc/u8g2_polygon.c ****   max_y = pg->list[0].y;
 166:..\..\..\u8g2\u8g2\csrc/u8g2_polygon.c ****   min_y = pg->list[0].y;
 167:..\..\..\u8g2\u8g2\csrc/u8g2_polygon.c ****   pg->pge[PG_LEFT].curr_idx = 0;
 168:..\..\..\u8g2\u8g2\csrc/u8g2_polygon.c ****   for( i = 1; i < pg->cnt; i++ )
 169:..\..\..\u8g2\u8g2\csrc/u8g2_polygon.c ****   {
 170:..\..\..\u8g2\u8g2\csrc/u8g2_polygon.c ****     if ( max_y < pg->list[i].y )
ARM GAS  C:\Users\jesse\AppData\Local\Temp\cck22udk.s 			page 7


 171:..\..\..\u8g2\u8g2\csrc/u8g2_polygon.c ****     {
 172:..\..\..\u8g2\u8g2\csrc/u8g2_polygon.c ****       max_y = pg->list[i].y;
 173:..\..\..\u8g2\u8g2\csrc/u8g2_polygon.c ****     }
 174:..\..\..\u8g2\u8g2\csrc/u8g2_polygon.c ****     if ( min_y > pg->list[i].y )
 175:..\..\..\u8g2\u8g2\csrc/u8g2_polygon.c ****     {
 176:..\..\..\u8g2\u8g2\csrc/u8g2_polygon.c ****       pg->pge[PG_LEFT].curr_idx = i;
 177:..\..\..\u8g2\u8g2\csrc/u8g2_polygon.c ****       min_y = pg->list[i].y;
 178:..\..\..\u8g2\u8g2\csrc/u8g2_polygon.c ****     }
 179:..\..\..\u8g2\u8g2\csrc/u8g2_polygon.c ****   }
 180:..\..\..\u8g2\u8g2\csrc/u8g2_polygon.c **** 
 181:..\..\..\u8g2\u8g2\csrc/u8g2_polygon.c ****   /* calculate total number of scan lines */
 182:..\..\..\u8g2\u8g2\csrc/u8g2_polygon.c ****   pg->total_scan_line_cnt = max_y;
 183:..\..\..\u8g2\u8g2\csrc/u8g2_polygon.c ****   pg->total_scan_line_cnt -= min_y;
 184:..\..\..\u8g2\u8g2\csrc/u8g2_polygon.c ****   
 185:..\..\..\u8g2\u8g2\csrc/u8g2_polygon.c ****   /* exit if polygon height is zero */
 186:..\..\..\u8g2\u8g2\csrc/u8g2_polygon.c ****   if ( pg->total_scan_line_cnt == 0 )
 187:..\..\..\u8g2\u8g2\csrc/u8g2_polygon.c ****     return 0;
 188:..\..\..\u8g2\u8g2\csrc/u8g2_polygon.c ****   
 189:..\..\..\u8g2\u8g2\csrc/u8g2_polygon.c ****   /* if the minimum y side is flat, try to find the lowest and highest x points */
 190:..\..\..\u8g2\u8g2\csrc/u8g2_polygon.c ****   pg->pge[PG_RIGHT].curr_idx = pg->pge[PG_LEFT].curr_idx;  
 191:..\..\..\u8g2\u8g2\csrc/u8g2_polygon.c ****   pg_expand_min_y(pg, min_y, PG_RIGHT);
 192:..\..\..\u8g2\u8g2\csrc/u8g2_polygon.c ****   pg_expand_min_y(pg, min_y, PG_LEFT);
 193:..\..\..\u8g2\u8g2\csrc/u8g2_polygon.c ****   
 194:..\..\..\u8g2\u8g2\csrc/u8g2_polygon.c ****   /* check if the min side is really flat (depends on the x values) */
 195:..\..\..\u8g2\u8g2\csrc/u8g2_polygon.c ****   pg->is_min_y_not_flat = 1;
 196:..\..\..\u8g2\u8g2\csrc/u8g2_polygon.c ****   if ( pg->list[pg->pge[PG_LEFT].curr_idx].x != pg->list[pg->pge[PG_RIGHT].curr_idx].x )
 197:..\..\..\u8g2\u8g2\csrc/u8g2_polygon.c ****   {
 198:..\..\..\u8g2\u8g2\csrc/u8g2_polygon.c ****     pg->is_min_y_not_flat = 0;
 199:..\..\..\u8g2\u8g2\csrc/u8g2_polygon.c ****   }
 200:..\..\..\u8g2\u8g2\csrc/u8g2_polygon.c ****   else
 201:..\..\..\u8g2\u8g2\csrc/u8g2_polygon.c ****   {
 202:..\..\..\u8g2\u8g2\csrc/u8g2_polygon.c ****     pg->total_scan_line_cnt--;
 203:..\..\..\u8g2\u8g2\csrc/u8g2_polygon.c ****     if ( pg->total_scan_line_cnt == 0 )
 204:..\..\..\u8g2\u8g2\csrc/u8g2_polygon.c ****       return 0;
 205:..\..\..\u8g2\u8g2\csrc/u8g2_polygon.c ****   }
 206:..\..\..\u8g2\u8g2\csrc/u8g2_polygon.c **** 
 207:..\..\..\u8g2\u8g2\csrc/u8g2_polygon.c ****   return 1;
 208:..\..\..\u8g2\u8g2\csrc/u8g2_polygon.c **** }
 209:..\..\..\u8g2\u8g2\csrc/u8g2_polygon.c **** 
 210:..\..\..\u8g2\u8g2\csrc/u8g2_polygon.c **** static void pg_hline(pg_struct *pg, u8g2_t *u8g2)
 211:..\..\..\u8g2\u8g2\csrc/u8g2_polygon.c **** {
 212:..\..\..\u8g2\u8g2\csrc/u8g2_polygon.c ****   pg_word_t x1, x2, y;
 213:..\..\..\u8g2\u8g2\csrc/u8g2_polygon.c ****   x1 = pg->pge[PG_LEFT].current_x;
 214:..\..\..\u8g2\u8g2\csrc/u8g2_polygon.c ****   x2 = pg->pge[PG_RIGHT].current_x;
 215:..\..\..\u8g2\u8g2\csrc/u8g2_polygon.c ****   y = pg->pge[PG_RIGHT].current_y;
 216:..\..\..\u8g2\u8g2\csrc/u8g2_polygon.c ****   
 217:..\..\..\u8g2\u8g2\csrc/u8g2_polygon.c ****   if ( y < 0 )
 218:..\..\..\u8g2\u8g2\csrc/u8g2_polygon.c ****     return;
 219:..\..\..\u8g2\u8g2\csrc/u8g2_polygon.c ****   if ( y >= u8g2_GetDisplayHeight(u8g2) )  // does not work for 256x64 display???
 220:..\..\..\u8g2\u8g2\csrc/u8g2_polygon.c ****     return;
 221:..\..\..\u8g2\u8g2\csrc/u8g2_polygon.c ****   if ( x1 < x2 )
 222:..\..\..\u8g2\u8g2\csrc/u8g2_polygon.c ****   {
 223:..\..\..\u8g2\u8g2\csrc/u8g2_polygon.c ****     if ( x2 < 0 )
 224:..\..\..\u8g2\u8g2\csrc/u8g2_polygon.c ****       return;
 225:..\..\..\u8g2\u8g2\csrc/u8g2_polygon.c ****     if ( x1 >= u8g2_GetDisplayWidth(u8g2) )
 226:..\..\..\u8g2\u8g2\csrc/u8g2_polygon.c ****       return;
 227:..\..\..\u8g2\u8g2\csrc/u8g2_polygon.c ****     if ( x1 < 0 )
ARM GAS  C:\Users\jesse\AppData\Local\Temp\cck22udk.s 			page 8


 228:..\..\..\u8g2\u8g2\csrc/u8g2_polygon.c ****       x1 = 0;
 229:..\..\..\u8g2\u8g2\csrc/u8g2_polygon.c ****     if ( x2 >= u8g2_GetDisplayWidth(u8g2) )
 230:..\..\..\u8g2\u8g2\csrc/u8g2_polygon.c ****       x2 = u8g2_GetDisplayWidth(u8g2);
 231:..\..\..\u8g2\u8g2\csrc/u8g2_polygon.c ****     u8g2_DrawHLine(u8g2, x1, y, x2 - x1);
 232:..\..\..\u8g2\u8g2\csrc/u8g2_polygon.c ****   }
 233:..\..\..\u8g2\u8g2\csrc/u8g2_polygon.c ****   else
 234:..\..\..\u8g2\u8g2\csrc/u8g2_polygon.c ****   {
 235:..\..\..\u8g2\u8g2\csrc/u8g2_polygon.c ****     if ( x1 < 0 )
 236:..\..\..\u8g2\u8g2\csrc/u8g2_polygon.c ****       return;
 237:..\..\..\u8g2\u8g2\csrc/u8g2_polygon.c ****     if ( x2 >= u8g2_GetDisplayWidth(u8g2) )
 238:..\..\..\u8g2\u8g2\csrc/u8g2_polygon.c ****       return;
 239:..\..\..\u8g2\u8g2\csrc/u8g2_polygon.c ****     if ( x2 < 0 )
 240:..\..\..\u8g2\u8g2\csrc/u8g2_polygon.c ****       x1 = 0;
 241:..\..\..\u8g2\u8g2\csrc/u8g2_polygon.c ****     if ( x1 >= u8g2_GetDisplayWidth(u8g2) )
 242:..\..\..\u8g2\u8g2\csrc/u8g2_polygon.c ****       x1 = u8g2_GetDisplayWidth(u8g2);
 243:..\..\..\u8g2\u8g2\csrc/u8g2_polygon.c ****     u8g2_DrawHLine(u8g2, x2, y, x1 - x2);
 244:..\..\..\u8g2\u8g2\csrc/u8g2_polygon.c ****   }
 245:..\..\..\u8g2\u8g2\csrc/u8g2_polygon.c **** }
 246:..\..\..\u8g2\u8g2\csrc/u8g2_polygon.c **** 
 247:..\..\..\u8g2\u8g2\csrc/u8g2_polygon.c **** static void pg_line_init(pg_struct * const pg, uint8_t pge_index)
 165              		.loc 1 247 0
 166              		.cfi_startproc
 167              		@ args = 0, pretend = 0, frame = 0
 168              		@ frame_needed = 0, uses_anonymous_args = 0
 169              	.LVL15:
 170 0000 2DE9F843 		push	{r3, r4, r5, r6, r7, r8, r9, lr}
 171              		.cfi_def_cfa_offset 32
 172              		.cfi_offset 3, -32
 173              		.cfi_offset 4, -28
 174              		.cfi_offset 5, -24
 175              		.cfi_offset 6, -20
 176              		.cfi_offset 7, -16
 177              		.cfi_offset 8, -12
 178              		.cfi_offset 9, -8
 179              		.cfi_offset 14, -4
 248:..\..\..\u8g2\u8g2\csrc/u8g2_polygon.c **** {
 249:..\..\..\u8g2\u8g2\csrc/u8g2_polygon.c ****   struct pg_edge_struct  *pge = pg->pge+pge_index;
 180              		.loc 1 249 0
 181 0004 1825     		movs	r5, #24
 182 0006 4543     		muls	r5, r0, r5
 183 0008 1D4E     		ldr	r6, .L13
 184 000a AC19     		adds	r4, r5, r6
 185              	.LVL16:
 250:..\..\..\u8g2\u8g2\csrc/u8g2_polygon.c ****   uint8_t idx;  
 251:..\..\..\u8g2\u8g2\csrc/u8g2_polygon.c ****   pg_word_t x1;
 252:..\..\..\u8g2\u8g2\csrc/u8g2_polygon.c ****   pg_word_t y1;
 253:..\..\..\u8g2\u8g2\csrc/u8g2_polygon.c ****   pg_word_t x2;
 254:..\..\..\u8g2\u8g2\csrc/u8g2_polygon.c ****   pg_word_t y2;
 255:..\..\..\u8g2\u8g2\csrc/u8g2_polygon.c **** 
 256:..\..\..\u8g2\u8g2\csrc/u8g2_polygon.c ****   idx = pge->curr_idx;  
 186              		.loc 1 256 0
 187 000c 217D     		ldrb	r1, [r4, #20]	@ zero_extendqisi2
 188              	.LVL17:
 257:..\..\..\u8g2\u8g2\csrc/u8g2_polygon.c ****   y1 = pg->list[idx].y;
 189              		.loc 1 257 0
 190 000e A6F11C09 		sub	r9, r6, #28
 191 0012 09EB8103 		add	r3, r9, r1, lsl #2
ARM GAS  C:\Users\jesse\AppData\Local\Temp\cck22udk.s 			page 9


 192 0016 B3F90280 		ldrsh	r8, [r3, #2]
 193              	.LVL18:
 258:..\..\..\u8g2\u8g2\csrc/u8g2_polygon.c ****   x1 = pg->list[idx].x;
 259:..\..\..\u8g2\u8g2\csrc/u8g2_polygon.c ****   idx = pge->next_idx_fn(pg, idx);
 194              		.loc 1 259 0
 195 001a 4846     		mov	r0, r9
 196              	.LVL19:
 197 001c 2369     		ldr	r3, [r4, #16]
 258:..\..\..\u8g2\u8g2\csrc/u8g2_polygon.c ****   x1 = pg->list[idx].x;
 198              		.loc 1 258 0
 199 001e 39F92170 		ldrsh	r7, [r9, r1, lsl #2]
 200              	.LVL20:
 201              		.loc 1 259 0
 202 0022 9847     		blx	r3
 203              	.LVL21:
 260:..\..\..\u8g2\u8g2\csrc/u8g2_polygon.c ****   y2 = pg->list[idx].y;
 204              		.loc 1 260 0
 205 0024 09EB8003 		add	r3, r9, r0, lsl #2
 206 0028 B3F902E0 		ldrsh	lr, [r3, #2]
 207              	.LVL22:
 261:..\..\..\u8g2\u8g2\csrc/u8g2_polygon.c ****   x2 = pg->list[idx].x; 
 208              		.loc 1 261 0
 209 002c 39F92030 		ldrsh	r3, [r9, r0, lsl #2]
 210              	.LVL23:
 211              	.LBB16:
 212              	.LBB17:
 101:..\..\..\u8g2\u8g2\csrc/u8g2_polygon.c ****   pge->max_y = y2;
 213              		.loc 1 101 0
 214 0030 C8EB0E02 		rsb	r2, r8, lr
  98:..\..\..\u8g2\u8g2\csrc/u8g2_polygon.c ****   pg_word_t width;
 215              		.loc 1 98 0
 216 0034 DB1B     		subs	r3, r3, r7
 217              	.LVL24:
 218 0036 9BB2     		uxth	r3, r3
 219 0038 19B2     		sxth	r1, r3
 101:..\..\..\u8g2\u8g2\csrc/u8g2_polygon.c ****   pge->max_y = y2;
 220              		.loc 1 101 0
 221 003a 92B2     		uxth	r2, r2
 222              	.LBE17:
 223              	.LBE16:
 262:..\..\..\u8g2\u8g2\csrc/u8g2_polygon.c ****   pge->curr_idx = idx;
 224              		.loc 1 262 0
 225 003c 2075     		strb	r0, [r4, #20]
 226              	.LVL25:
 227              	.LBB19:
 228              	.LBB18:
 106:..\..\..\u8g2\u8g2\csrc/u8g2_polygon.c ****   {
 229              		.loc 1 106 0
 230 003e 0029     		cmp	r1, #0
 101:..\..\..\u8g2\u8g2\csrc/u8g2_polygon.c ****   pge->max_y = y2;
 231              		.loc 1 101 0
 232 0040 10B2     		sxth	r0, r2
 233              	.LVL26:
 234 0042 6080     		strh	r0, [r4, #2]	@ movhi
 102:..\..\..\u8g2\u8g2\csrc/u8g2_polygon.c ****   pge->current_y = y1;
 235              		.loc 1 102 0
 236 0044 A4F80AE0 		strh	lr, [r4, #10]	@ movhi
ARM GAS  C:\Users\jesse\AppData\Local\Temp\cck22udk.s 			page 10


 103:..\..\..\u8g2\u8g2\csrc/u8g2_polygon.c ****   pge->current_x = x1;
 237              		.loc 1 103 0
 238 0048 A4F80880 		strh	r8, [r4, #8]	@ movhi
 104:..\..\..\u8g2\u8g2\csrc/u8g2_polygon.c **** 
 239              		.loc 1 104 0
 240 004c A781     		strh	r7, [r4, #12]	@ movhi
 106:..\..\..\u8g2\u8g2\csrc/u8g2_polygon.c ****   {
 241              		.loc 1 106 0
 242 004e 05DB     		blt	.L11
 108:..\..\..\u8g2\u8g2\csrc/u8g2_polygon.c ****     width = dx;
 243              		.loc 1 108 0
 244 0050 0123     		movs	r3, #1
 245 0052 AB53     		strh	r3, [r5, r6]	@ movhi
 246              	.LVL27:
 110:..\..\..\u8g2\u8g2\csrc/u8g2_polygon.c ****   }
 247              		.loc 1 110 0
 248 0054 0023     		movs	r3, #0
 249 0056 E381     		strh	r3, [r4, #14]	@ movhi
 250 0058 0B46     		mov	r3, r1
 251 005a 07E0     		b	.L12
 252              	.LVL28:
 253              	.L11:
 114:..\..\..\u8g2\u8g2\csrc/u8g2_polygon.c ****     width = -dx;
 254              		.loc 1 114 0
 255 005c 4FF6FF77 		movw	r7, #65535
 256              	.LVL29:
 115:..\..\..\u8g2\u8g2\csrc/u8g2_polygon.c ****     pge->error = 1 - pge->height;
 257              		.loc 1 115 0
 258 0060 5B42     		negs	r3, r3
 116:..\..\..\u8g2\u8g2\csrc/u8g2_polygon.c ****   }
 259              		.loc 1 116 0
 260 0062 C2F10102 		rsb	r2, r2, #1
 114:..\..\..\u8g2\u8g2\csrc/u8g2_polygon.c ****     width = -dx;
 261              		.loc 1 114 0
 262 0066 AF53     		strh	r7, [r5, r6]	@ movhi
 263              	.LVL30:
 115:..\..\..\u8g2\u8g2\csrc/u8g2_polygon.c ****     pge->error = 1 - pge->height;
 264              		.loc 1 115 0
 265 0068 1BB2     		sxth	r3, r3
 266              	.LVL31:
 116:..\..\..\u8g2\u8g2\csrc/u8g2_polygon.c ****   }
 267              		.loc 1 116 0
 268 006a E281     		strh	r2, [r4, #14]	@ movhi
 269              	.LVL32:
 270              	.L12:
 120:..\..\..\u8g2\u8g2\csrc/u8g2_polygon.c **** }
 271              		.loc 1 120 0
 272 006c 93FBF0F2 		sdiv	r2, r3, r0
 119:..\..\..\u8g2\u8g2\csrc/u8g2_polygon.c ****   pge->error_offset = width % pge->height;
 273              		.loc 1 119 0
 274 0070 91FBF0F1 		sdiv	r1, r1, r0
 275              	.LVL33:
 120:..\..\..\u8g2\u8g2\csrc/u8g2_polygon.c **** }
 276              		.loc 1 120 0
 277 0074 00FB1233 		mls	r3, r0, r2, r3
 278              	.LVL34:
 119:..\..\..\u8g2\u8g2\csrc/u8g2_polygon.c ****   pge->error_offset = width % pge->height;
ARM GAS  C:\Users\jesse\AppData\Local\Temp\cck22udk.s 			page 11


 279              		.loc 1 119 0
 280 0078 A180     		strh	r1, [r4, #4]	@ movhi
 120:..\..\..\u8g2\u8g2\csrc/u8g2_polygon.c **** }
 281              		.loc 1 120 0
 282 007a E380     		strh	r3, [r4, #6]	@ movhi
 283              	.LVL35:
 284 007c BDE8F883 		pop	{r3, r4, r5, r6, r7, r8, r9, pc}
 285              	.LVL36:
 286              	.L14:
 287              		.align	2
 288              	.L13:
 289 0080 1C000000 		.word	u8g2_pg+28
 290              	.LBE18:
 291              	.LBE19:
 292              		.cfi_endproc
 293              	.LFE20:
 294              		.size	pg_line_init.constprop.4, .-pg_line_init.constprop.4
 295              		.section	.text.pg_expand_min_y.constprop.7,"ax",%progbits
 296              		.align	1
 297              		.thumb
 298              		.thumb_func
 299              		.type	pg_expand_min_y.constprop.7, %function
 300              	pg_expand_min_y.constprop.7:
 301              	.LFB17:
 142:..\..\..\u8g2\u8g2\csrc/u8g2_polygon.c **** {
 302              		.loc 1 142 0
 303              		.cfi_startproc
 304              		@ args = 0, pretend = 0, frame = 0
 305              		@ frame_needed = 0, uses_anonymous_args = 0
 306              	.LVL37:
 144:..\..\..\u8g2\u8g2\csrc/u8g2_polygon.c ****   for(;;)
 307              		.loc 1 144 0
 308 0000 0B4B     		ldr	r3, .L18
 142:..\..\..\u8g2\u8g2\csrc/u8g2_polygon.c **** {
 309              		.loc 1 142 0
 310 0002 70B5     		push	{r4, r5, r6, lr}
 311              		.cfi_def_cfa_offset 16
 312              		.cfi_offset 4, -16
 313              		.cfi_offset 5, -12
 314              		.cfi_offset 6, -8
 315              		.cfi_offset 14, -4
 142:..\..\..\u8g2\u8g2\csrc/u8g2_polygon.c **** {
 316              		.loc 1 142 0
 317 0004 0646     		mov	r6, r0
 318 0006 1D46     		mov	r5, r3
 144:..\..\..\u8g2\u8g2\csrc/u8g2_polygon.c ****   for(;;)
 319              		.loc 1 144 0
 320 0008 1824     		movs	r4, #24
 321 000a 04FB0134 		mla	r4, r4, r1, r3
 322 000e 94F83010 		ldrb	r1, [r4, #48]	@ zero_extendqisi2
 323              	.LVL38:
 324              	.L17:
 147:..\..\..\u8g2\u8g2\csrc/u8g2_polygon.c ****     if ( pg->list[i].y != min_y )
 325              		.loc 1 147 0
 326 0012 E36A     		ldr	r3, [r4, #44]
 327 0014 0648     		ldr	r0, .L18
 328 0016 9847     		blx	r3
ARM GAS  C:\Users\jesse\AppData\Local\Temp\cck22udk.s 			page 12


 329              	.LVL39:
 148:..\..\..\u8g2\u8g2\csrc/u8g2_polygon.c ****       break;	
 330              		.loc 1 148 0
 331 0018 05EB8003 		add	r3, r5, r0, lsl #2
 332 001c B3F90230 		ldrsh	r3, [r3, #2]
 147:..\..\..\u8g2\u8g2\csrc/u8g2_polygon.c ****     if ( pg->list[i].y != min_y )
 333              		.loc 1 147 0
 334 0020 0146     		mov	r1, r0
 335              	.LVL40:
 148:..\..\..\u8g2\u8g2\csrc/u8g2_polygon.c ****       break;	
 336              		.loc 1 148 0
 337 0022 B342     		cmp	r3, r6
 338 0024 02D1     		bne	.L15
 150:..\..\..\u8g2\u8g2\csrc/u8g2_polygon.c ****   }
 339              		.loc 1 150 0
 340 0026 84F83000 		strb	r0, [r4, #48]
 341 002a F2E7     		b	.L17
 342              	.L15:
 343 002c 70BD     		pop	{r4, r5, r6, pc}
 344              	.L19:
 345 002e 00BF     		.align	2
 346              	.L18:
 347 0030 00000000 		.word	u8g2_pg
 348              		.cfi_endproc
 349              	.LFE17:
 350              		.size	pg_expand_min_y.constprop.7, .-pg_expand_min_y.constprop.7
 351              		.section	.text.u8g2_ClearPolygonXY,"ax",%progbits
 352              		.align	1
 353              		.global	u8g2_ClearPolygonXY
 354              		.thumb
 355              		.thumb_func
 356              		.type	u8g2_ClearPolygonXY, %function
 357              	u8g2_ClearPolygonXY:
 358              	.LFB12:
 263:..\..\..\u8g2\u8g2\csrc/u8g2_polygon.c ****   
 264:..\..\..\u8g2\u8g2\csrc/u8g2_polygon.c ****   pge_Init(pge, x1, y1, x2, y2);
 265:..\..\..\u8g2\u8g2\csrc/u8g2_polygon.c **** }
 266:..\..\..\u8g2\u8g2\csrc/u8g2_polygon.c **** 
 267:..\..\..\u8g2\u8g2\csrc/u8g2_polygon.c **** static void pg_exec(pg_struct *pg, u8g2_t *u8g2)
 268:..\..\..\u8g2\u8g2\csrc/u8g2_polygon.c **** {
 269:..\..\..\u8g2\u8g2\csrc/u8g2_polygon.c ****   pg_word_t i = pg->total_scan_line_cnt;
 270:..\..\..\u8g2\u8g2\csrc/u8g2_polygon.c **** 
 271:..\..\..\u8g2\u8g2\csrc/u8g2_polygon.c ****   /* first line is skipped if the min y line is not flat */
 272:..\..\..\u8g2\u8g2\csrc/u8g2_polygon.c ****   pg_line_init(pg, PG_LEFT);		
 273:..\..\..\u8g2\u8g2\csrc/u8g2_polygon.c ****   pg_line_init(pg, PG_RIGHT);
 274:..\..\..\u8g2\u8g2\csrc/u8g2_polygon.c ****   
 275:..\..\..\u8g2\u8g2\csrc/u8g2_polygon.c ****   if ( pg->is_min_y_not_flat != 0 )
 276:..\..\..\u8g2\u8g2\csrc/u8g2_polygon.c ****   {
 277:..\..\..\u8g2\u8g2\csrc/u8g2_polygon.c ****     pge_Next(&(pg->pge[PG_LEFT])); 
 278:..\..\..\u8g2\u8g2\csrc/u8g2_polygon.c ****     pge_Next(&(pg->pge[PG_RIGHT]));
 279:..\..\..\u8g2\u8g2\csrc/u8g2_polygon.c ****   }
 280:..\..\..\u8g2\u8g2\csrc/u8g2_polygon.c **** 
 281:..\..\..\u8g2\u8g2\csrc/u8g2_polygon.c ****   do
 282:..\..\..\u8g2\u8g2\csrc/u8g2_polygon.c ****   {
 283:..\..\..\u8g2\u8g2\csrc/u8g2_polygon.c ****     pg_hline(pg, u8g2);
 284:..\..\..\u8g2\u8g2\csrc/u8g2_polygon.c ****     while ( pge_Next(&(pg->pge[PG_LEFT])) == 0 )
 285:..\..\..\u8g2\u8g2\csrc/u8g2_polygon.c ****     {
ARM GAS  C:\Users\jesse\AppData\Local\Temp\cck22udk.s 			page 13


 286:..\..\..\u8g2\u8g2\csrc/u8g2_polygon.c ****       pg_line_init(pg, PG_LEFT);
 287:..\..\..\u8g2\u8g2\csrc/u8g2_polygon.c ****     }
 288:..\..\..\u8g2\u8g2\csrc/u8g2_polygon.c ****     while ( pge_Next(&(pg->pge[PG_RIGHT])) == 0 )
 289:..\..\..\u8g2\u8g2\csrc/u8g2_polygon.c ****     {
 290:..\..\..\u8g2\u8g2\csrc/u8g2_polygon.c ****       pg_line_init(pg, PG_RIGHT);
 291:..\..\..\u8g2\u8g2\csrc/u8g2_polygon.c ****     }
 292:..\..\..\u8g2\u8g2\csrc/u8g2_polygon.c ****     i--;
 293:..\..\..\u8g2\u8g2\csrc/u8g2_polygon.c ****   } while( i > 0 );
 294:..\..\..\u8g2\u8g2\csrc/u8g2_polygon.c **** }
 295:..\..\..\u8g2\u8g2\csrc/u8g2_polygon.c **** 
 296:..\..\..\u8g2\u8g2\csrc/u8g2_polygon.c **** /*===========================================*/
 297:..\..\..\u8g2\u8g2\csrc/u8g2_polygon.c **** /* API procedures */
 298:..\..\..\u8g2\u8g2\csrc/u8g2_polygon.c **** 
 299:..\..\..\u8g2\u8g2\csrc/u8g2_polygon.c **** static void pg_ClearPolygonXY(pg_struct *pg)
 300:..\..\..\u8g2\u8g2\csrc/u8g2_polygon.c **** {
 301:..\..\..\u8g2\u8g2\csrc/u8g2_polygon.c ****   pg->cnt = 0;
 302:..\..\..\u8g2\u8g2\csrc/u8g2_polygon.c **** }
 303:..\..\..\u8g2\u8g2\csrc/u8g2_polygon.c **** 
 304:..\..\..\u8g2\u8g2\csrc/u8g2_polygon.c **** static void pg_AddPolygonXY(pg_struct *pg, int16_t x, int16_t y)
 305:..\..\..\u8g2\u8g2\csrc/u8g2_polygon.c **** {
 306:..\..\..\u8g2\u8g2\csrc/u8g2_polygon.c ****   if ( pg->cnt < PG_MAX_POINTS )
 307:..\..\..\u8g2\u8g2\csrc/u8g2_polygon.c ****   {
 308:..\..\..\u8g2\u8g2\csrc/u8g2_polygon.c ****     pg->list[pg->cnt].x = x;
 309:..\..\..\u8g2\u8g2\csrc/u8g2_polygon.c ****     pg->list[pg->cnt].y = y;
 310:..\..\..\u8g2\u8g2\csrc/u8g2_polygon.c ****     pg->cnt++;
 311:..\..\..\u8g2\u8g2\csrc/u8g2_polygon.c ****   }
 312:..\..\..\u8g2\u8g2\csrc/u8g2_polygon.c **** }
 313:..\..\..\u8g2\u8g2\csrc/u8g2_polygon.c **** 
 314:..\..\..\u8g2\u8g2\csrc/u8g2_polygon.c **** static void pg_DrawPolygon(pg_struct *pg, u8g2_t *u8g2)
 315:..\..\..\u8g2\u8g2\csrc/u8g2_polygon.c **** {
 316:..\..\..\u8g2\u8g2\csrc/u8g2_polygon.c ****   if ( pg_prepare(pg) == 0 )
 317:..\..\..\u8g2\u8g2\csrc/u8g2_polygon.c ****     return;
 318:..\..\..\u8g2\u8g2\csrc/u8g2_polygon.c ****   pg_exec(pg, u8g2);
 319:..\..\..\u8g2\u8g2\csrc/u8g2_polygon.c **** }
 320:..\..\..\u8g2\u8g2\csrc/u8g2_polygon.c **** 
 321:..\..\..\u8g2\u8g2\csrc/u8g2_polygon.c **** pg_struct u8g2_pg;
 322:..\..\..\u8g2\u8g2\csrc/u8g2_polygon.c **** 
 323:..\..\..\u8g2\u8g2\csrc/u8g2_polygon.c **** void u8g2_ClearPolygonXY(void)
 324:..\..\..\u8g2\u8g2\csrc/u8g2_polygon.c **** {
 359              		.loc 1 324 0
 360              		.cfi_startproc
 361              		@ args = 0, pretend = 0, frame = 0
 362              		@ frame_needed = 0, uses_anonymous_args = 0
 363              		@ link register save eliminated.
 364              	.LVL41:
 365              	.LBB20:
 366              	.LBB21:
 301:..\..\..\u8g2\u8g2\csrc/u8g2_polygon.c **** }
 367              		.loc 1 301 0
 368 0000 014B     		ldr	r3, .L21
 369 0002 0022     		movs	r2, #0
 370 0004 1A76     		strb	r2, [r3, #24]
 371 0006 7047     		bx	lr
 372              	.L22:
 373              		.align	2
 374              	.L21:
 375 0008 00000000 		.word	u8g2_pg
ARM GAS  C:\Users\jesse\AppData\Local\Temp\cck22udk.s 			page 14


 376              	.LBE21:
 377              	.LBE20:
 378              		.cfi_endproc
 379              	.LFE12:
 380              		.size	u8g2_ClearPolygonXY, .-u8g2_ClearPolygonXY
 381              		.section	.text.u8g2_AddPolygonXY,"ax",%progbits
 382              		.align	1
 383              		.global	u8g2_AddPolygonXY
 384              		.thumb
 385              		.thumb_func
 386              		.type	u8g2_AddPolygonXY, %function
 387              	u8g2_AddPolygonXY:
 388              	.LFB13:
 325:..\..\..\u8g2\u8g2\csrc/u8g2_polygon.c ****   pg_ClearPolygonXY(&u8g2_pg);
 326:..\..\..\u8g2\u8g2\csrc/u8g2_polygon.c **** }
 327:..\..\..\u8g2\u8g2\csrc/u8g2_polygon.c **** 
 328:..\..\..\u8g2\u8g2\csrc/u8g2_polygon.c **** void u8g2_AddPolygonXY(U8X8_UNUSED u8g2_t *u8g2, int16_t x, int16_t y)
 329:..\..\..\u8g2\u8g2\csrc/u8g2_polygon.c **** {
 389              		.loc 1 329 0
 390              		.cfi_startproc
 391              		@ args = 0, pretend = 0, frame = 0
 392              		@ frame_needed = 0, uses_anonymous_args = 0
 393              		@ link register save eliminated.
 394              	.LVL42:
 395              	.LBB24:
 396              	.LBB25:
 306:..\..\..\u8g2\u8g2\csrc/u8g2_polygon.c ****   {
 397              		.loc 1 306 0
 398 0000 0548     		ldr	r0, .L25
 399              	.LVL43:
 400 0002 037E     		ldrb	r3, [r0, #24]	@ zero_extendqisi2
 401 0004 052B     		cmp	r3, #5
 402 0006 06D8     		bhi	.L23
 308:..\..\..\u8g2\u8g2\csrc/u8g2_polygon.c ****     pg->list[pg->cnt].y = y;
 403              		.loc 1 308 0
 404 0008 20F82310 		strh	r1, [r0, r3, lsl #2]	@ movhi
 309:..\..\..\u8g2\u8g2\csrc/u8g2_polygon.c ****     pg->cnt++;
 405              		.loc 1 309 0
 406 000c 00EB8301 		add	r1, r0, r3, lsl #2
 407              	.LVL44:
 310:..\..\..\u8g2\u8g2\csrc/u8g2_polygon.c ****   }
 408              		.loc 1 310 0
 409 0010 0133     		adds	r3, r3, #1
 309:..\..\..\u8g2\u8g2\csrc/u8g2_polygon.c ****     pg->cnt++;
 410              		.loc 1 309 0
 411 0012 4A80     		strh	r2, [r1, #2]	@ movhi
 310:..\..\..\u8g2\u8g2\csrc/u8g2_polygon.c ****   }
 412              		.loc 1 310 0
 413 0014 0376     		strb	r3, [r0, #24]
 414              	.LVL45:
 415              	.L23:
 416 0016 7047     		bx	lr
 417              	.L26:
 418              		.align	2
 419              	.L25:
 420 0018 00000000 		.word	u8g2_pg
 421              	.LBE25:
ARM GAS  C:\Users\jesse\AppData\Local\Temp\cck22udk.s 			page 15


 422              	.LBE24:
 423              		.cfi_endproc
 424              	.LFE13:
 425              		.size	u8g2_AddPolygonXY, .-u8g2_AddPolygonXY
 426              		.section	.text.u8g2_DrawPolygon,"ax",%progbits
 427              		.align	1
 428              		.global	u8g2_DrawPolygon
 429              		.thumb
 430              		.thumb_func
 431              		.type	u8g2_DrawPolygon, %function
 432              	u8g2_DrawPolygon:
 433              	.LFB14:
 330:..\..\..\u8g2\u8g2\csrc/u8g2_polygon.c ****   pg_AddPolygonXY(&u8g2_pg, x, y);
 331:..\..\..\u8g2\u8g2\csrc/u8g2_polygon.c **** }
 332:..\..\..\u8g2\u8g2\csrc/u8g2_polygon.c **** 
 333:..\..\..\u8g2\u8g2\csrc/u8g2_polygon.c **** void u8g2_DrawPolygon(u8g2_t *u8g2)
 334:..\..\..\u8g2\u8g2\csrc/u8g2_polygon.c **** {
 434              		.loc 1 334 0
 435              		.cfi_startproc
 436              		@ args = 0, pretend = 0, frame = 0
 437              		@ frame_needed = 0, uses_anonymous_args = 0
 438              	.LVL46:
 439 0000 F8B5     		push	{r3, r4, r5, r6, r7, lr}
 440              		.cfi_def_cfa_offset 24
 441              		.cfi_offset 3, -24
 442              		.cfi_offset 4, -20
 443              		.cfi_offset 5, -16
 444              		.cfi_offset 6, -12
 445              		.cfi_offset 7, -8
 446              		.cfi_offset 14, -4
 447              	.LBB34:
 448              	.LBB35:
 449              	.LBB36:
 161:..\..\..\u8g2\u8g2\csrc/u8g2_polygon.c ****   pg->pge[PG_LEFT].next_idx_fn = pg_dec;
 450              		.loc 1 161 0
 451 0002 514A     		ldr	r2, .L62
 452 0004 514B     		ldr	r3, .L62+4
 167:..\..\..\u8g2\u8g2\csrc/u8g2_polygon.c ****   for( i = 1; i < pg->cnt; i++ )
 453              		.loc 1 167 0
 454 0006 0021     		movs	r1, #0
 161:..\..\..\u8g2\u8g2\csrc/u8g2_polygon.c ****   pg->pge[PG_LEFT].next_idx_fn = pg_dec;
 455              		.loc 1 161 0
 456 0008 5A64     		str	r2, [r3, #68]
 162:..\..\..\u8g2\u8g2\csrc/u8g2_polygon.c ****   
 457              		.loc 1 162 0
 458 000a 514A     		ldr	r2, .L62+8
 168:..\..\..\u8g2\u8g2\csrc/u8g2_polygon.c ****   {
 459              		.loc 1 168 0
 460 000c 8E46     		mov	lr, r1
 162:..\..\..\u8g2\u8g2\csrc/u8g2_polygon.c ****   
 461              		.loc 1 162 0
 462 000e DA62     		str	r2, [r3, #44]
 165:..\..\..\u8g2\u8g2\csrc/u8g2_polygon.c ****   min_y = pg->list[0].y;
 463              		.loc 1 165 0
 464 0010 B3F90220 		ldrsh	r2, [r3, #2]
 465 0014 1E46     		mov	r6, r3
 166:..\..\..\u8g2\u8g2\csrc/u8g2_polygon.c ****   pg->pge[PG_LEFT].curr_idx = 0;
ARM GAS  C:\Users\jesse\AppData\Local\Temp\cck22udk.s 			page 16


 466              		.loc 1 166 0
 467 0016 1746     		mov	r7, r2
 168:..\..\..\u8g2\u8g2\csrc/u8g2_polygon.c ****   {
 468              		.loc 1 168 0
 469 0018 93F818C0 		ldrb	ip, [r3, #24]	@ zero_extendqisi2
 470              	.LBE36:
 471              	.LBE35:
 472              	.LBE34:
 473              		.loc 1 334 0
 474 001c 0546     		mov	r5, r0
 475              	.LVL47:
 476              	.LBB43:
 477              	.LBB38:
 478              	.LBB37:
 167:..\..\..\u8g2\u8g2\csrc/u8g2_polygon.c ****   for( i = 1; i < pg->cnt; i++ )
 479              		.loc 1 167 0
 480 001e 83F83010 		strb	r1, [r3, #48]
 481              	.LVL48:
 168:..\..\..\u8g2\u8g2\csrc/u8g2_polygon.c ****   {
 482              		.loc 1 168 0
 483 0022 0120     		movs	r0, #1
 484              	.LVL49:
 485              	.L28:
 486 0024 6045     		cmp	r0, ip
 487 0026 10D2     		bcs	.L60
 170:..\..\..\u8g2\u8g2\csrc/u8g2_polygon.c ****     {
 488              		.loc 1 170 0
 489 0028 B3F90640 		ldrsh	r4, [r3, #6]
 490 002c 0433     		adds	r3, r3, #4
 491 002e A242     		cmp	r2, r4
 492 0030 B8BF     		it	lt
 493 0032 2246     		movlt	r2, r4
 494              	.LVL50:
 174:..\..\..\u8g2\u8g2\csrc/u8g2_polygon.c ****     {
 495              		.loc 1 174 0
 496 0034 BC42     		cmp	r4, r7
 497 0036 ACBF     		ite	ge
 498 0038 3C46     		movge	r4, r7
 499 003a 8646     		movlt	lr, r0
 168:..\..\..\u8g2\u8g2\csrc/u8g2_polygon.c ****   {
 500              		.loc 1 168 0
 501 003c 00F10100 		add	r0, r0, #1
 502              	.LVL51:
 174:..\..\..\u8g2\u8g2\csrc/u8g2_polygon.c ****     {
 503              		.loc 1 174 0
 504 0040 B8BF     		it	lt
 505 0042 0121     		movlt	r1, #1
 506              	.LVL52:
 168:..\..\..\u8g2\u8g2\csrc/u8g2_polygon.c ****   {
 507              		.loc 1 168 0
 508 0044 C0B2     		uxtb	r0, r0
 509              	.LVL53:
 510 0046 2746     		mov	r7, r4
 511 0048 ECE7     		b	.L28
 512              	.LVL54:
 513              	.L60:
 514 004a 09B1     		cbz	r1, .L31
ARM GAS  C:\Users\jesse\AppData\Local\Temp\cck22udk.s 			page 17


 515 004c 86F830E0 		strb	lr, [r6, #48]
 516              	.L31:
 183:..\..\..\u8g2\u8g2\csrc/u8g2_polygon.c ****   
 517              		.loc 1 183 0
 518 0050 D21B     		subs	r2, r2, r7
 519              	.LVL55:
 520 0052 12B2     		sxth	r2, r2
 521 0054 3D4C     		ldr	r4, .L62+4
 522 0056 7283     		strh	r2, [r6, #26]	@ movhi
 186:..\..\..\u8g2\u8g2\csrc/u8g2_polygon.c ****     return 0;
 523              		.loc 1 186 0
 524 0058 002A     		cmp	r2, #0
 525 005a 74D0     		beq	.L27
 190:..\..\..\u8g2\u8g2\csrc/u8g2_polygon.c ****   pg_expand_min_y(pg, min_y, PG_RIGHT);
 526              		.loc 1 190 0
 527 005c 94F83030 		ldrb	r3, [r4, #48]	@ zero_extendqisi2
 191:..\..\..\u8g2\u8g2\csrc/u8g2_polygon.c ****   pg_expand_min_y(pg, min_y, PG_LEFT);
 528              		.loc 1 191 0
 529 0060 0121     		movs	r1, #1
 190:..\..\..\u8g2\u8g2\csrc/u8g2_polygon.c ****   pg_expand_min_y(pg, min_y, PG_RIGHT);
 530              		.loc 1 190 0
 531 0062 84F84830 		strb	r3, [r4, #72]
 191:..\..\..\u8g2\u8g2\csrc/u8g2_polygon.c ****   pg_expand_min_y(pg, min_y, PG_LEFT);
 532              		.loc 1 191 0
 533 0066 3846     		mov	r0, r7
 534              	.LVL56:
 535 0068 FFF7FEFF 		bl	pg_expand_min_y.constprop.7
 536              	.LVL57:
 192:..\..\..\u8g2\u8g2\csrc/u8g2_polygon.c ****   
 537              		.loc 1 192 0
 538 006c 0021     		movs	r1, #0
 539 006e 3846     		mov	r0, r7
 540 0070 FFF7FEFF 		bl	pg_expand_min_y.constprop.7
 541              	.LVL58:
 195:..\..\..\u8g2\u8g2\csrc/u8g2_polygon.c ****   if ( pg->list[pg->pge[PG_LEFT].curr_idx].x != pg->list[pg->pge[PG_RIGHT].curr_idx].x )
 542              		.loc 1 195 0
 543 0074 0123     		movs	r3, #1
 544 0076 6376     		strb	r3, [r4, #25]
 196:..\..\..\u8g2\u8g2\csrc/u8g2_polygon.c ****   {
 545              		.loc 1 196 0
 546 0078 94F83020 		ldrb	r2, [r4, #48]	@ zero_extendqisi2
 547 007c 94F84830 		ldrb	r3, [r4, #72]	@ zero_extendqisi2
 548 0080 34F92220 		ldrsh	r2, [r4, r2, lsl #2]
 549 0084 34F92330 		ldrsh	r3, [r4, r3, lsl #2]
 550 0088 9A42     		cmp	r2, r3
 551 008a 02D0     		beq	.L33
 198:..\..\..\u8g2\u8g2\csrc/u8g2_polygon.c ****   }
 552              		.loc 1 198 0
 553 008c 0023     		movs	r3, #0
 554 008e 6376     		strb	r3, [r4, #25]
 555 0090 05E0     		b	.L34
 556              	.L33:
 202:..\..\..\u8g2\u8g2\csrc/u8g2_polygon.c ****     if ( pg->total_scan_line_cnt == 0 )
 557              		.loc 1 202 0
 558 0092 638B     		ldrh	r3, [r4, #26]
 559 0094 013B     		subs	r3, r3, #1
 560 0096 1BB2     		sxth	r3, r3
ARM GAS  C:\Users\jesse\AppData\Local\Temp\cck22udk.s 			page 18


 561 0098 6383     		strh	r3, [r4, #26]	@ movhi
 203:..\..\..\u8g2\u8g2\csrc/u8g2_polygon.c ****       return 0;
 562              		.loc 1 203 0
 563 009a 03B9     		cbnz	r3, .L34
 564 009c F8BD     		pop	{r3, r4, r5, r6, r7, pc}
 565              	.LVL59:
 566              	.L34:
 567              	.LBE37:
 568              	.LBE38:
 569              	.LBB39:
 570              	.LBB40:
 272:..\..\..\u8g2\u8g2\csrc/u8g2_polygon.c ****   pg_line_init(pg, PG_RIGHT);
 571              		.loc 1 272 0
 572 009e 0020     		movs	r0, #0
 269:..\..\..\u8g2\u8g2\csrc/u8g2_polygon.c **** 
 573              		.loc 1 269 0
 574 00a0 B6F91A40 		ldrsh	r4, [r6, #26]
 575              	.LVL60:
 272:..\..\..\u8g2\u8g2\csrc/u8g2_polygon.c ****   pg_line_init(pg, PG_RIGHT);
 576              		.loc 1 272 0
 577 00a4 FFF7FEFF 		bl	pg_line_init.constprop.4
 578              	.LVL61:
 273:..\..\..\u8g2\u8g2\csrc/u8g2_polygon.c ****   
 579              		.loc 1 273 0
 580 00a8 0120     		movs	r0, #1
 581 00aa FFF7FEFF 		bl	pg_line_init.constprop.4
 582              	.LVL62:
 275:..\..\..\u8g2\u8g2\csrc/u8g2_polygon.c ****   {
 583              		.loc 1 275 0
 584 00ae 737E     		ldrb	r3, [r6, #25]	@ zero_extendqisi2
 585 00b0 2BB1     		cbz	r3, .L47
 277:..\..\..\u8g2\u8g2\csrc/u8g2_polygon.c ****     pge_Next(&(pg->pge[PG_RIGHT]));
 586              		.loc 1 277 0
 587 00b2 2848     		ldr	r0, .L62+12
 588 00b4 FFF7FEFF 		bl	pge_Next
 589              	.LVL63:
 278:..\..\..\u8g2\u8g2\csrc/u8g2_polygon.c ****   }
 590              		.loc 1 278 0
 591 00b8 2748     		ldr	r0, .L62+16
 592 00ba FFF7FEFF 		bl	pge_Next
 593              	.LVL64:
 594              	.L47:
 595              	.LBB41:
 596              	.LBB42:
 215:..\..\..\u8g2\u8g2\csrc/u8g2_polygon.c ****   
 597              		.loc 1 215 0
 598 00be 234F     		ldr	r7, .L62+4
 599              	.L44:
 600              	.LVL65:
 601 00c0 B6F93C20 		ldrsh	r2, [r6, #60]
 602              	.LVL66:
 217:..\..\..\u8g2\u8g2\csrc/u8g2_polygon.c ****     return;
 603              		.loc 1 217 0
 604 00c4 002A     		cmp	r2, #0
 605 00c6 2ADB     		blt	.L40
 219:..\..\..\u8g2\u8g2\csrc/u8g2_polygon.c ****     return;
 606              		.loc 1 219 0
ARM GAS  C:\Users\jesse\AppData\Local\Temp\cck22udk.s 			page 19


 607 00c8 B5F84630 		ldrh	r3, [r5, #70]
 608 00cc 9A42     		cmp	r2, r3
 609 00ce 26DA     		bge	.L40
 213:..\..\..\u8g2\u8g2\csrc/u8g2_polygon.c ****   x2 = pg->pge[PG_RIGHT].current_x;
 610              		.loc 1 213 0
 611 00d0 B7F92830 		ldrsh	r3, [r7, #40]
 214:..\..\..\u8g2\u8g2\csrc/u8g2_polygon.c ****   y = pg->pge[PG_RIGHT].current_y;
 612              		.loc 1 214 0
 613 00d4 B7F94000 		ldrsh	r0, [r7, #64]
 221:..\..\..\u8g2\u8g2\csrc/u8g2_polygon.c ****   {
 614              		.loc 1 221 0
 615 00d8 8342     		cmp	r3, r0
 616 00da 0DDA     		bge	.L36
 223:..\..\..\u8g2\u8g2\csrc/u8g2_polygon.c ****       return;
 617              		.loc 1 223 0
 618 00dc 0028     		cmp	r0, #0
 619 00de 1EDB     		blt	.L40
 225:..\..\..\u8g2\u8g2\csrc/u8g2_polygon.c ****       return;
 620              		.loc 1 225 0
 621 00e0 B5F84410 		ldrh	r1, [r5, #68]
 622 00e4 8B42     		cmp	r3, r1
 623 00e6 1ADA     		bge	.L40
 624 00e8 23EAE373 		bic	r3, r3, r3, asr #31
 625              	.LVL67:
 229:..\..\..\u8g2\u8g2\csrc/u8g2_polygon.c ****       x2 = u8g2_GetDisplayWidth(u8g2);
 626              		.loc 1 229 0
 627 00ec 8142     		cmp	r1, r0
 230:..\..\..\u8g2\u8g2\csrc/u8g2_polygon.c ****     u8g2_DrawHLine(u8g2, x1, y, x2 - x1);
 628              		.loc 1 230 0
 629 00ee D8BF     		it	le
 630 00f0 08B2     		sxthle	r0, r1
 631              	.LVL68:
 231:..\..\..\u8g2\u8g2\csrc/u8g2_polygon.c ****   }
 632              		.loc 1 231 0
 633 00f2 99B2     		uxth	r1, r3
 634 00f4 431A     		subs	r3, r0, r1
 635              	.LVL69:
 636 00f6 0DE0     		b	.L59
 637              	.LVL70:
 638              	.L36:
 235:..\..\..\u8g2\u8g2\csrc/u8g2_polygon.c ****       return;
 639              		.loc 1 235 0
 640 00f8 002B     		cmp	r3, #0
 641 00fa 10DB     		blt	.L40
 237:..\..\..\u8g2\u8g2\csrc/u8g2_polygon.c ****       return;
 642              		.loc 1 237 0
 643 00fc B5F84410 		ldrh	r1, [r5, #68]
 644 0100 8842     		cmp	r0, r1
 645 0102 0CDA     		bge	.L40
 240:..\..\..\u8g2\u8g2\csrc/u8g2_polygon.c ****     if ( x1 >= u8g2_GetDisplayWidth(u8g2) )
 646              		.loc 1 240 0
 647 0104 0028     		cmp	r0, #0
 648 0106 B8BF     		it	lt
 649 0108 0023     		movlt	r3, #0
 650              	.LVL71:
 241:..\..\..\u8g2\u8g2\csrc/u8g2_polygon.c ****       x1 = u8g2_GetDisplayWidth(u8g2);
 651              		.loc 1 241 0
ARM GAS  C:\Users\jesse\AppData\Local\Temp\cck22udk.s 			page 20


 652 010a 9942     		cmp	r1, r3
 242:..\..\..\u8g2\u8g2\csrc/u8g2_polygon.c ****     u8g2_DrawHLine(u8g2, x2, y, x1 - x2);
 653              		.loc 1 242 0
 654 010c D8BF     		it	le
 655 010e 0BB2     		sxthle	r3, r1
 656              	.LVL72:
 243:..\..\..\u8g2\u8g2\csrc/u8g2_polygon.c ****   }
 657              		.loc 1 243 0
 658 0110 81B2     		uxth	r1, r0
 659 0112 5B1A     		subs	r3, r3, r1
 660              	.LVL73:
 661              	.L59:
 662 0114 9BB2     		uxth	r3, r3
 663 0116 92B2     		uxth	r2, r2
 664 0118 2846     		mov	r0, r5
 665 011a FFF7FEFF 		bl	u8g2_DrawHLine
 666              	.LVL74:
 667              	.L40:
 668              	.LBE42:
 669              	.LBE41:
 284:..\..\..\u8g2\u8g2\csrc/u8g2_polygon.c ****     {
 670              		.loc 1 284 0
 671 011e 0D48     		ldr	r0, .L62+12
 672 0120 FFF7FEFF 		bl	pge_Next
 673              	.LVL75:
 674 0124 10B9     		cbnz	r0, .L42
 286:..\..\..\u8g2\u8g2\csrc/u8g2_polygon.c ****     }
 675              		.loc 1 286 0
 676 0126 FFF7FEFF 		bl	pg_line_init.constprop.4
 677              	.LVL76:
 678 012a F8E7     		b	.L40
 679              	.L42:
 288:..\..\..\u8g2\u8g2\csrc/u8g2_polygon.c ****     {
 680              		.loc 1 288 0
 681 012c 0A48     		ldr	r0, .L62+16
 682 012e FFF7FEFF 		bl	pge_Next
 683              	.LVL77:
 684 0132 18B9     		cbnz	r0, .L61
 290:..\..\..\u8g2\u8g2\csrc/u8g2_polygon.c ****     }
 685              		.loc 1 290 0
 686 0134 0120     		movs	r0, #1
 687 0136 FFF7FEFF 		bl	pg_line_init.constprop.4
 688              	.LVL78:
 689 013a F7E7     		b	.L42
 690              	.L61:
 691 013c 013C     		subs	r4, r4, #1
 692              	.LVL79:
 693 013e 24B2     		sxth	r4, r4
 694              	.LVL80:
 293:..\..\..\u8g2\u8g2\csrc/u8g2_polygon.c **** }
 695              		.loc 1 293 0
 696 0140 002C     		cmp	r4, #0
 697 0142 BDDC     		bgt	.L44
 698 0144 F8BD     		pop	{r3, r4, r5, r6, r7, pc}
 699              	.LVL81:
 700              	.L27:
 701 0146 F8BD     		pop	{r3, r4, r5, r6, r7, pc}
ARM GAS  C:\Users\jesse\AppData\Local\Temp\cck22udk.s 			page 21


 702              	.LVL82:
 703              	.L63:
 704              		.align	2
 705              	.L62:
 706 0148 00000000 		.word	pg_inc
 707 014c 00000000 		.word	u8g2_pg
 708 0150 00000000 		.word	pg_dec
 709 0154 1C000000 		.word	u8g2_pg+28
 710 0158 34000000 		.word	u8g2_pg+52
 711              	.LBE40:
 712              	.LBE39:
 713              	.LBE43:
 714              		.cfi_endproc
 715              	.LFE14:
 716              		.size	u8g2_DrawPolygon, .-u8g2_DrawPolygon
 717              		.section	.text.u8g2_DrawTriangle,"ax",%progbits
 718              		.align	1
 719              		.global	u8g2_DrawTriangle
 720              		.thumb
 721              		.thumb_func
 722              		.type	u8g2_DrawTriangle, %function
 723              	u8g2_DrawTriangle:
 724              	.LFB15:
 335:..\..\..\u8g2\u8g2\csrc/u8g2_polygon.c ****   pg_DrawPolygon(&u8g2_pg, u8g2);
 336:..\..\..\u8g2\u8g2\csrc/u8g2_polygon.c **** }
 337:..\..\..\u8g2\u8g2\csrc/u8g2_polygon.c **** 
 338:..\..\..\u8g2\u8g2\csrc/u8g2_polygon.c **** void u8g2_DrawTriangle(u8g2_t *u8g2, int16_t x0, int16_t y0, int16_t x1, int16_t y1, int16_t x2, in
 339:..\..\..\u8g2\u8g2\csrc/u8g2_polygon.c **** {
 725              		.loc 1 339 0
 726              		.cfi_startproc
 727              		@ args = 12, pretend = 0, frame = 0
 728              		@ frame_needed = 0, uses_anonymous_args = 0
 729              		@ link register save eliminated.
 730              	.LVL83:
 731 0000 F0B4     		push	{r4, r5, r6, r7}
 732              		.cfi_def_cfa_offset 16
 733              		.cfi_offset 4, -16
 734              		.cfi_offset 5, -12
 735              		.cfi_offset 6, -8
 736              		.cfi_offset 7, -4
 737              	.LBB59:
 738              	.LBB60:
 739              	.LBB61:
 308:..\..\..\u8g2\u8g2\csrc/u8g2_polygon.c ****     pg->list[pg->cnt].y = y;
 740              		.loc 1 308 0
 741 0002 094C     		ldr	r4, .L65
 742              	.LBE61:
 743              	.LBE60:
 744              	.LBE59:
 745              		.loc 1 339 0
 746 0004 BDF91070 		ldrsh	r7, [sp, #16]
 747 0008 BDF91460 		ldrsh	r6, [sp, #20]
 748 000c BDF91850 		ldrsh	r5, [sp, #24]
 749              	.LBB64:
 750              	.LBB65:
 751              	.LBB66:
 308:..\..\..\u8g2\u8g2\csrc/u8g2_polygon.c ****     pg->list[pg->cnt].y = y;
ARM GAS  C:\Users\jesse\AppData\Local\Temp\cck22udk.s 			page 22


 752              		.loc 1 308 0
 753 0010 A380     		strh	r3, [r4, #4]	@ movhi
 754              	.LBE66:
 755              	.LBE65:
 756              	.LBE64:
 757              	.LBB69:
 758              	.LBB70:
 759              	.LBB71:
 310:..\..\..\u8g2\u8g2\csrc/u8g2_polygon.c ****   }
 760              		.loc 1 310 0
 761 0012 0323     		movs	r3, #3
 762              	.LVL84:
 763              	.LBE71:
 764              	.LBE70:
 765              	.LBE69:
 766              	.LBB74:
 767              	.LBB63:
 768              	.LBB62:
 308:..\..\..\u8g2\u8g2\csrc/u8g2_polygon.c ****     pg->list[pg->cnt].y = y;
 769              		.loc 1 308 0
 770 0014 2180     		strh	r1, [r4]	@ movhi
 309:..\..\..\u8g2\u8g2\csrc/u8g2_polygon.c ****     pg->cnt++;
 771              		.loc 1 309 0
 772 0016 6280     		strh	r2, [r4, #2]	@ movhi
 773              	.LVL85:
 774              	.LBE62:
 775              	.LBE63:
 776              	.LBE74:
 777              	.LBB75:
 778              	.LBB68:
 779              	.LBB67:
 780 0018 E780     		strh	r7, [r4, #6]	@ movhi
 781              	.LVL86:
 782              	.LBE67:
 783              	.LBE68:
 784              	.LBE75:
 785              	.LBB76:
 786              	.LBB73:
 787              	.LBB72:
 308:..\..\..\u8g2\u8g2\csrc/u8g2_polygon.c ****     pg->list[pg->cnt].y = y;
 788              		.loc 1 308 0
 789 001a 2681     		strh	r6, [r4, #8]	@ movhi
 309:..\..\..\u8g2\u8g2\csrc/u8g2_polygon.c ****     pg->cnt++;
 790              		.loc 1 309 0
 791 001c 6581     		strh	r5, [r4, #10]	@ movhi
 310:..\..\..\u8g2\u8g2\csrc/u8g2_polygon.c ****   }
 792              		.loc 1 310 0
 793 001e 2376     		strb	r3, [r4, #24]
 794              	.LVL87:
 795              	.LBE72:
 796              	.LBE73:
 797              	.LBE76:
 340:..\..\..\u8g2\u8g2\csrc/u8g2_polygon.c ****   u8g2_ClearPolygonXY();
 341:..\..\..\u8g2\u8g2\csrc/u8g2_polygon.c ****   u8g2_AddPolygonXY(u8g2, x0, y0);
 342:..\..\..\u8g2\u8g2\csrc/u8g2_polygon.c ****   u8g2_AddPolygonXY(u8g2, x1, y1);
 343:..\..\..\u8g2\u8g2\csrc/u8g2_polygon.c ****   u8g2_AddPolygonXY(u8g2, x2, y2);
 344:..\..\..\u8g2\u8g2\csrc/u8g2_polygon.c ****   u8g2_DrawPolygon(u8g2);
ARM GAS  C:\Users\jesse\AppData\Local\Temp\cck22udk.s 			page 23


 345:..\..\..\u8g2\u8g2\csrc/u8g2_polygon.c **** }
 798              		.loc 1 345 0
 799 0020 F0BC     		pop	{r4, r5, r6, r7}
 800              		.cfi_restore 7
 801              		.cfi_restore 6
 802              		.cfi_restore 5
 803              		.cfi_restore 4
 804              		.cfi_def_cfa_offset 0
 805              	.LVL88:
 344:..\..\..\u8g2\u8g2\csrc/u8g2_polygon.c **** }
 806              		.loc 1 344 0
 807 0022 FFF7FEBF 		b	u8g2_DrawPolygon
 808              	.LVL89:
 809              	.L66:
 810 0026 00BF     		.align	2
 811              	.L65:
 812 0028 00000000 		.word	u8g2_pg
 813              		.cfi_endproc
 814              	.LFE15:
 815              		.size	u8g2_DrawTriangle, .-u8g2_DrawTriangle
 816              		.comm	u8g2_pg,76,4
 817              		.text
 818              	.Letext0:
 819              		.file 2 "c:\\program files (x86)\\cypress\\psoc creator\\4.4\\psoc creator\\import\\gnu\\arm\\5.4.
 820              		.file 3 "c:\\program files (x86)\\cypress\\psoc creator\\4.4\\psoc creator\\import\\gnu\\arm\\5.4.
 821              		.file 4 "..\\..\\..\\u8g2\\u8g2\\csrc\\u8x8.h"
 822              		.file 5 "..\\..\\..\\u8g2\\u8g2\\csrc\\u8g2.h"