ARM GAS  C:\Users\jesse\AppData\Local\Temp\ccXvBXW6.s 			page 1


   1              		.syntax unified
   2              		.cpu cortex-m3
   3              		.fpu softvfp
   4              		.eabi_attribute 20, 1
   5              		.eabi_attribute 21, 1
   6              		.eabi_attribute 23, 3
   7              		.eabi_attribute 24, 1
   8              		.eabi_attribute 25, 1
   9              		.eabi_attribute 26, 1
  10              		.eabi_attribute 30, 4
  11              		.eabi_attribute 34, 1
  12              		.eabi_attribute 18, 4
  13              		.thumb
  14              		.syntax unified
  15              		.file	"u8g2_circle.c"
  16              		.text
  17              	.Ltext0:
  18              		.cfi_sections	.debug_frame
  19              		.section	.text.u8g2_draw_circle_section,"ax",%progbits
  20              		.align	1
  21              		.thumb
  22              		.thumb_func
  23              		.type	u8g2_draw_circle_section, %function
  24              	u8g2_draw_circle_section:
  25              	.LFB0:
  26              		.file 1 "..\\..\\..\\u8g2\\u8g2\\csrc\\u8g2_circle.c"
   1:..\..\..\u8g2\u8g2\csrc/u8g2_circle.c **** /*
   2:..\..\..\u8g2\u8g2\csrc/u8g2_circle.c **** 
   3:..\..\..\u8g2\u8g2\csrc/u8g2_circle.c ****   u8g2_circle.c
   4:..\..\..\u8g2\u8g2\csrc/u8g2_circle.c **** 
   5:..\..\..\u8g2\u8g2\csrc/u8g2_circle.c ****   Universal 8bit Graphics Library (https://github.com/olikraus/u8g2/)
   6:..\..\..\u8g2\u8g2\csrc/u8g2_circle.c **** 
   7:..\..\..\u8g2\u8g2\csrc/u8g2_circle.c ****   Copyright (c) 2016, olikraus@gmail.com
   8:..\..\..\u8g2\u8g2\csrc/u8g2_circle.c ****   All rights reserved.
   9:..\..\..\u8g2\u8g2\csrc/u8g2_circle.c **** 
  10:..\..\..\u8g2\u8g2\csrc/u8g2_circle.c ****   Redistribution and use in source and binary forms, with or without modification, 
  11:..\..\..\u8g2\u8g2\csrc/u8g2_circle.c ****   are permitted provided that the following conditions are met:
  12:..\..\..\u8g2\u8g2\csrc/u8g2_circle.c **** 
  13:..\..\..\u8g2\u8g2\csrc/u8g2_circle.c ****   * Redistributions of source code must retain the above copyright notice, this list 
  14:..\..\..\u8g2\u8g2\csrc/u8g2_circle.c ****     of conditions and the following disclaimer.
  15:..\..\..\u8g2\u8g2\csrc/u8g2_circle.c ****     
  16:..\..\..\u8g2\u8g2\csrc/u8g2_circle.c ****   * Redistributions in binary form must reproduce the above copyright notice, this 
  17:..\..\..\u8g2\u8g2\csrc/u8g2_circle.c ****     list of conditions and the following disclaimer in the documentation and/or other 
  18:..\..\..\u8g2\u8g2\csrc/u8g2_circle.c ****     materials provided with the distribution.
  19:..\..\..\u8g2\u8g2\csrc/u8g2_circle.c **** 
  20:..\..\..\u8g2\u8g2\csrc/u8g2_circle.c ****   THIS SOFTWARE IS PROVIDED BY THE COPYRIGHT HOLDERS AND 
  21:..\..\..\u8g2\u8g2\csrc/u8g2_circle.c ****   CONTRIBUTORS "AS IS" AND ANY EXPRESS OR IMPLIED WARRANTIES, 
  22:..\..\..\u8g2\u8g2\csrc/u8g2_circle.c ****   INCLUDING, BUT NOT LIMITED TO, THE IMPLIED WARRANTIES OF 
  23:..\..\..\u8g2\u8g2\csrc/u8g2_circle.c ****   MERCHANTABILITY AND FITNESS FOR A PARTICULAR PURPOSE ARE 
  24:..\..\..\u8g2\u8g2\csrc/u8g2_circle.c ****   DISCLAIMED. IN NO EVENT SHALL THE COPYRIGHT HOLDER OR 
  25:..\..\..\u8g2\u8g2\csrc/u8g2_circle.c ****   CONTRIBUTORS BE LIABLE FOR ANY DIRECT, INDIRECT, INCIDENTAL, 
  26:..\..\..\u8g2\u8g2\csrc/u8g2_circle.c ****   SPECIAL, EXEMPLARY, OR CONSEQUENTIAL DAMAGES (INCLUDING, BUT 
  27:..\..\..\u8g2\u8g2\csrc/u8g2_circle.c ****   NOT LIMITED TO, PROCUREMENT OF SUBSTITUTE GOODS OR SERVICES; 
  28:..\..\..\u8g2\u8g2\csrc/u8g2_circle.c ****   LOSS OF USE, DATA, OR PROFITS; OR BUSINESS INTERRUPTION) HOWEVER 
  29:..\..\..\u8g2\u8g2\csrc/u8g2_circle.c ****   CAUSED AND ON ANY THEORY OF LIABILITY, WHETHER IN CONTRACT, 
  30:..\..\..\u8g2\u8g2\csrc/u8g2_circle.c ****   STRICT LIABILITY, OR TORT (INCLUDING NEGLIGENCE OR OTHERWISE) 
  31:..\..\..\u8g2\u8g2\csrc/u8g2_circle.c ****   ARISING IN ANY WAY OUT OF THE USE OF THIS SOFTWARE, EVEN IF 
ARM GAS  C:\Users\jesse\AppData\Local\Temp\ccXvBXW6.s 			page 2


  32:..\..\..\u8g2\u8g2\csrc/u8g2_circle.c ****   ADVISED OF THE POSSIBILITY OF SUCH DAMAGE.  
  33:..\..\..\u8g2\u8g2\csrc/u8g2_circle.c **** 
  34:..\..\..\u8g2\u8g2\csrc/u8g2_circle.c **** */
  35:..\..\..\u8g2\u8g2\csrc/u8g2_circle.c **** 
  36:..\..\..\u8g2\u8g2\csrc/u8g2_circle.c **** #include "u8g2.h"
  37:..\..\..\u8g2\u8g2\csrc/u8g2_circle.c **** 
  38:..\..\..\u8g2\u8g2\csrc/u8g2_circle.c **** /*==============================================*/
  39:..\..\..\u8g2\u8g2\csrc/u8g2_circle.c **** /* Circle */
  40:..\..\..\u8g2\u8g2\csrc/u8g2_circle.c **** 
  41:..\..\..\u8g2\u8g2\csrc/u8g2_circle.c **** static void u8g2_draw_circle_section(u8g2_t *u8g2, u8g2_uint_t x, u8g2_uint_t y, u8g2_uint_t x0, u8
  42:..\..\..\u8g2\u8g2\csrc/u8g2_circle.c **** 
  43:..\..\..\u8g2\u8g2\csrc/u8g2_circle.c **** static void u8g2_draw_circle_section(u8g2_t *u8g2, u8g2_uint_t x, u8g2_uint_t y, u8g2_uint_t x0, u8
  44:..\..\..\u8g2\u8g2\csrc/u8g2_circle.c **** {
  27              		.loc 1 44 0
  28              		.cfi_startproc
  29              		@ args = 8, pretend = 0, frame = 0
  30              		@ frame_needed = 0, uses_anonymous_args = 0
  31              	.LVL0:
  32 0000 2DE9F843 		push	{r3, r4, r5, r6, r7, r8, r9, lr}
  33              		.cfi_def_cfa_offset 32
  34              		.cfi_offset 3, -32
  35              		.cfi_offset 4, -28
  36              		.cfi_offset 5, -24
  37              		.cfi_offset 6, -20
  38              		.cfi_offset 7, -16
  39              		.cfi_offset 8, -12
  40              		.cfi_offset 9, -8
  41              		.cfi_offset 14, -4
  42              		.loc 1 44 0
  43 0004 9DF82490 		ldrb	r9, [sp, #36]	@ zero_extendqisi2
  44 0008 8046     		mov	r8, r0
  45:..\..\..\u8g2\u8g2\csrc/u8g2_circle.c ****     /* upper right */
  46:..\..\..\u8g2\u8g2\csrc/u8g2_circle.c ****     if ( option & U8G2_DRAW_UPPER_RIGHT )
  45              		.loc 1 46 0
  46 000a 19F0010F 		tst	r9, #1
  44:..\..\..\u8g2\u8g2\csrc/u8g2_circle.c ****     /* upper right */
  47              		.loc 1 44 0
  48 000e 0F46     		mov	r7, r1
  49 0010 1646     		mov	r6, r2
  50 0012 1C46     		mov	r4, r3
  51 0014 BDF82050 		ldrh	r5, [sp, #32]
  52              		.loc 1 46 0
  53 0018 0CD0     		beq	.L2
  47:..\..\..\u8g2\u8g2\csrc/u8g2_circle.c ****     {
  48:..\..\..\u8g2\u8g2\csrc/u8g2_circle.c ****       u8g2_DrawPixel(u8g2, x0 + x, y0 - y);
  54              		.loc 1 48 0
  55 001a 5918     		adds	r1, r3, r1
  56              	.LVL1:
  57 001c AA1A     		subs	r2, r5, r2
  58              	.LVL2:
  59 001e 92B2     		uxth	r2, r2
  60 0020 89B2     		uxth	r1, r1
  61 0022 FFF7FEFF 		bl	u8g2_DrawPixel
  62              	.LVL3:
  49:..\..\..\u8g2\u8g2\csrc/u8g2_circle.c ****       u8g2_DrawPixel(u8g2, x0 + y, y0 - x);
  63              		.loc 1 49 0
  64 0026 EA1B     		subs	r2, r5, r7
ARM GAS  C:\Users\jesse\AppData\Local\Temp\ccXvBXW6.s 			page 3


  65 0028 A119     		adds	r1, r4, r6
  66 002a 92B2     		uxth	r2, r2
  67 002c 89B2     		uxth	r1, r1
  68 002e 4046     		mov	r0, r8
  69 0030 FFF7FEFF 		bl	u8g2_DrawPixel
  70              	.LVL4:
  71              	.L2:
  50:..\..\..\u8g2\u8g2\csrc/u8g2_circle.c ****     }
  51:..\..\..\u8g2\u8g2\csrc/u8g2_circle.c ****     
  52:..\..\..\u8g2\u8g2\csrc/u8g2_circle.c ****     /* upper left */
  53:..\..\..\u8g2\u8g2\csrc/u8g2_circle.c ****     if ( option & U8G2_DRAW_UPPER_LEFT )
  72              		.loc 1 53 0
  73 0034 19F0020F 		tst	r9, #2
  74 0038 0DD0     		beq	.L3
  54:..\..\..\u8g2\u8g2\csrc/u8g2_circle.c ****     {
  55:..\..\..\u8g2\u8g2\csrc/u8g2_circle.c ****       u8g2_DrawPixel(u8g2, x0 - x, y0 - y);
  75              		.loc 1 55 0
  76 003a AA1B     		subs	r2, r5, r6
  77 003c E11B     		subs	r1, r4, r7
  78 003e 92B2     		uxth	r2, r2
  79 0040 89B2     		uxth	r1, r1
  80 0042 4046     		mov	r0, r8
  81 0044 FFF7FEFF 		bl	u8g2_DrawPixel
  82              	.LVL5:
  56:..\..\..\u8g2\u8g2\csrc/u8g2_circle.c ****       u8g2_DrawPixel(u8g2, x0 - y, y0 - x);
  83              		.loc 1 56 0
  84 0048 EA1B     		subs	r2, r5, r7
  85 004a A11B     		subs	r1, r4, r6
  86 004c 92B2     		uxth	r2, r2
  87 004e 89B2     		uxth	r1, r1
  88 0050 4046     		mov	r0, r8
  89 0052 FFF7FEFF 		bl	u8g2_DrawPixel
  90              	.LVL6:
  91              	.L3:
  57:..\..\..\u8g2\u8g2\csrc/u8g2_circle.c ****     }
  58:..\..\..\u8g2\u8g2\csrc/u8g2_circle.c ****     
  59:..\..\..\u8g2\u8g2\csrc/u8g2_circle.c ****     /* lower right */
  60:..\..\..\u8g2\u8g2\csrc/u8g2_circle.c ****     if ( option & U8G2_DRAW_LOWER_RIGHT )
  92              		.loc 1 60 0
  93 0056 19F0080F 		tst	r9, #8
  94 005a 0DD0     		beq	.L4
  61:..\..\..\u8g2\u8g2\csrc/u8g2_circle.c ****     {
  62:..\..\..\u8g2\u8g2\csrc/u8g2_circle.c ****       u8g2_DrawPixel(u8g2, x0 + x, y0 + y);
  95              		.loc 1 62 0
  96 005c AA19     		adds	r2, r5, r6
  97 005e E119     		adds	r1, r4, r7
  98 0060 92B2     		uxth	r2, r2
  99 0062 89B2     		uxth	r1, r1
 100 0064 4046     		mov	r0, r8
 101 0066 FFF7FEFF 		bl	u8g2_DrawPixel
 102              	.LVL7:
  63:..\..\..\u8g2\u8g2\csrc/u8g2_circle.c ****       u8g2_DrawPixel(u8g2, x0 + y, y0 + x);
 103              		.loc 1 63 0
 104 006a 7A19     		adds	r2, r7, r5
 105 006c A119     		adds	r1, r4, r6
 106 006e 92B2     		uxth	r2, r2
 107 0070 89B2     		uxth	r1, r1
ARM GAS  C:\Users\jesse\AppData\Local\Temp\ccXvBXW6.s 			page 4


 108 0072 4046     		mov	r0, r8
 109 0074 FFF7FEFF 		bl	u8g2_DrawPixel
 110              	.LVL8:
 111              	.L4:
  64:..\..\..\u8g2\u8g2\csrc/u8g2_circle.c ****     }
  65:..\..\..\u8g2\u8g2\csrc/u8g2_circle.c ****     
  66:..\..\..\u8g2\u8g2\csrc/u8g2_circle.c ****     /* lower left */
  67:..\..\..\u8g2\u8g2\csrc/u8g2_circle.c ****     if ( option & U8G2_DRAW_LOWER_LEFT )
 112              		.loc 1 67 0
 113 0078 19F0040F 		tst	r9, #4
 114 007c 0FD0     		beq	.L1
  68:..\..\..\u8g2\u8g2\csrc/u8g2_circle.c ****     {
  69:..\..\..\u8g2\u8g2\csrc/u8g2_circle.c ****       u8g2_DrawPixel(u8g2, x0 - x, y0 + y);
 115              		.loc 1 69 0
 116 007e AA19     		adds	r2, r5, r6
 117 0080 E11B     		subs	r1, r4, r7
 118 0082 4046     		mov	r0, r8
 119 0084 92B2     		uxth	r2, r2
 120 0086 89B2     		uxth	r1, r1
 121 0088 FFF7FEFF 		bl	u8g2_DrawPixel
 122              	.LVL9:
  70:..\..\..\u8g2\u8g2\csrc/u8g2_circle.c ****       u8g2_DrawPixel(u8g2, x0 - y, y0 + x);
 123              		.loc 1 70 0
 124 008c 7A19     		adds	r2, r7, r5
 125 008e A11B     		subs	r1, r4, r6
 126 0090 4046     		mov	r0, r8
  71:..\..\..\u8g2\u8g2\csrc/u8g2_circle.c ****     }
  72:..\..\..\u8g2\u8g2\csrc/u8g2_circle.c **** }
 127              		.loc 1 72 0
 128 0092 BDE8F843 		pop	{r3, r4, r5, r6, r7, r8, r9, lr}
 129              		.cfi_remember_state
 130              		.cfi_restore 14
 131              		.cfi_restore 9
 132              		.cfi_restore 8
 133              		.cfi_restore 7
 134              		.cfi_restore 6
 135              		.cfi_restore 5
 136              		.cfi_restore 4
 137              		.cfi_restore 3
 138              		.cfi_def_cfa_offset 0
 139              	.LVL10:
  70:..\..\..\u8g2\u8g2\csrc/u8g2_circle.c ****       u8g2_DrawPixel(u8g2, x0 - y, y0 + x);
 140              		.loc 1 70 0
 141 0096 92B2     		uxth	r2, r2
 142 0098 89B2     		uxth	r1, r1
 143 009a FFF7FEBF 		b	u8g2_DrawPixel
 144              	.LVL11:
 145              	.L1:
 146              		.cfi_restore_state
 147 009e BDE8F883 		pop	{r3, r4, r5, r6, r7, r8, r9, pc}
 148              		.cfi_endproc
 149              	.LFE0:
 150              		.size	u8g2_draw_circle_section, .-u8g2_draw_circle_section
 151              		.section	.text.u8g2_draw_ellipse_section,"ax",%progbits
 152              		.align	1
 153              		.thumb
 154              		.thumb_func
ARM GAS  C:\Users\jesse\AppData\Local\Temp\ccXvBXW6.s 			page 5


 155              		.type	u8g2_draw_ellipse_section, %function
 156              	u8g2_draw_ellipse_section:
 157              	.LFB6:
  73:..\..\..\u8g2\u8g2\csrc/u8g2_circle.c **** 
  74:..\..\..\u8g2\u8g2\csrc/u8g2_circle.c **** static void u8g2_draw_circle(u8g2_t *u8g2, u8g2_uint_t x0, u8g2_uint_t y0, u8g2_uint_t rad, uint8_t
  75:..\..\..\u8g2\u8g2\csrc/u8g2_circle.c **** {
  76:..\..\..\u8g2\u8g2\csrc/u8g2_circle.c ****     u8g2_int_t f;
  77:..\..\..\u8g2\u8g2\csrc/u8g2_circle.c ****     u8g2_int_t ddF_x;
  78:..\..\..\u8g2\u8g2\csrc/u8g2_circle.c ****     u8g2_int_t ddF_y;
  79:..\..\..\u8g2\u8g2\csrc/u8g2_circle.c ****     u8g2_uint_t x;
  80:..\..\..\u8g2\u8g2\csrc/u8g2_circle.c ****     u8g2_uint_t y;
  81:..\..\..\u8g2\u8g2\csrc/u8g2_circle.c **** 
  82:..\..\..\u8g2\u8g2\csrc/u8g2_circle.c ****     f = 1;
  83:..\..\..\u8g2\u8g2\csrc/u8g2_circle.c ****     f -= rad;
  84:..\..\..\u8g2\u8g2\csrc/u8g2_circle.c ****     ddF_x = 1;
  85:..\..\..\u8g2\u8g2\csrc/u8g2_circle.c ****     ddF_y = 0;
  86:..\..\..\u8g2\u8g2\csrc/u8g2_circle.c ****     ddF_y -= rad;
  87:..\..\..\u8g2\u8g2\csrc/u8g2_circle.c ****     ddF_y *= 2;
  88:..\..\..\u8g2\u8g2\csrc/u8g2_circle.c ****     x = 0;
  89:..\..\..\u8g2\u8g2\csrc/u8g2_circle.c ****     y = rad;
  90:..\..\..\u8g2\u8g2\csrc/u8g2_circle.c **** 
  91:..\..\..\u8g2\u8g2\csrc/u8g2_circle.c ****     u8g2_draw_circle_section(u8g2, x, y, x0, y0, option);
  92:..\..\..\u8g2\u8g2\csrc/u8g2_circle.c ****     
  93:..\..\..\u8g2\u8g2\csrc/u8g2_circle.c ****     while ( x < y )
  94:..\..\..\u8g2\u8g2\csrc/u8g2_circle.c ****     {
  95:..\..\..\u8g2\u8g2\csrc/u8g2_circle.c ****       if (f >= 0) 
  96:..\..\..\u8g2\u8g2\csrc/u8g2_circle.c ****       {
  97:..\..\..\u8g2\u8g2\csrc/u8g2_circle.c ****         y--;
  98:..\..\..\u8g2\u8g2\csrc/u8g2_circle.c ****         ddF_y += 2;
  99:..\..\..\u8g2\u8g2\csrc/u8g2_circle.c ****         f += ddF_y;
 100:..\..\..\u8g2\u8g2\csrc/u8g2_circle.c ****       }
 101:..\..\..\u8g2\u8g2\csrc/u8g2_circle.c ****       x++;
 102:..\..\..\u8g2\u8g2\csrc/u8g2_circle.c ****       ddF_x += 2;
 103:..\..\..\u8g2\u8g2\csrc/u8g2_circle.c ****       f += ddF_x;
 104:..\..\..\u8g2\u8g2\csrc/u8g2_circle.c **** 
 105:..\..\..\u8g2\u8g2\csrc/u8g2_circle.c ****       u8g2_draw_circle_section(u8g2, x, y, x0, y0, option);    
 106:..\..\..\u8g2\u8g2\csrc/u8g2_circle.c ****     }
 107:..\..\..\u8g2\u8g2\csrc/u8g2_circle.c **** }
 108:..\..\..\u8g2\u8g2\csrc/u8g2_circle.c **** 
 109:..\..\..\u8g2\u8g2\csrc/u8g2_circle.c **** void u8g2_DrawCircle(u8g2_t *u8g2, u8g2_uint_t x0, u8g2_uint_t y0, u8g2_uint_t rad, uint8_t option)
 110:..\..\..\u8g2\u8g2\csrc/u8g2_circle.c **** {
 111:..\..\..\u8g2\u8g2\csrc/u8g2_circle.c ****   /* check for bounding box */
 112:..\..\..\u8g2\u8g2\csrc/u8g2_circle.c **** #ifdef U8G2_WITH_INTERSECTION
 113:..\..\..\u8g2\u8g2\csrc/u8g2_circle.c ****   {
 114:..\..\..\u8g2\u8g2\csrc/u8g2_circle.c ****     if ( u8g2_IsIntersection(u8g2, x0-rad, y0-rad, x0+rad+1, y0+rad+1) == 0 ) 
 115:..\..\..\u8g2\u8g2\csrc/u8g2_circle.c ****       return;
 116:..\..\..\u8g2\u8g2\csrc/u8g2_circle.c ****   }
 117:..\..\..\u8g2\u8g2\csrc/u8g2_circle.c **** #endif /* U8G2_WITH_INTERSECTION */
 118:..\..\..\u8g2\u8g2\csrc/u8g2_circle.c ****   
 119:..\..\..\u8g2\u8g2\csrc/u8g2_circle.c ****   
 120:..\..\..\u8g2\u8g2\csrc/u8g2_circle.c ****   /* draw circle */
 121:..\..\..\u8g2\u8g2\csrc/u8g2_circle.c ****   u8g2_draw_circle(u8g2, x0, y0, rad, option);
 122:..\..\..\u8g2\u8g2\csrc/u8g2_circle.c **** }
 123:..\..\..\u8g2\u8g2\csrc/u8g2_circle.c **** 
 124:..\..\..\u8g2\u8g2\csrc/u8g2_circle.c **** /*==============================================*/
 125:..\..\..\u8g2\u8g2\csrc/u8g2_circle.c **** /* Disk */
 126:..\..\..\u8g2\u8g2\csrc/u8g2_circle.c **** 
ARM GAS  C:\Users\jesse\AppData\Local\Temp\ccXvBXW6.s 			page 6


 127:..\..\..\u8g2\u8g2\csrc/u8g2_circle.c **** static void u8g2_draw_disc_section(u8g2_t *u8g2, u8g2_uint_t x, u8g2_uint_t y, u8g2_uint_t x0, u8g2
 128:..\..\..\u8g2\u8g2\csrc/u8g2_circle.c **** 
 129:..\..\..\u8g2\u8g2\csrc/u8g2_circle.c **** static void u8g2_draw_disc_section(u8g2_t *u8g2, u8g2_uint_t x, u8g2_uint_t y, u8g2_uint_t x0, u8g2
 130:..\..\..\u8g2\u8g2\csrc/u8g2_circle.c **** {
 131:..\..\..\u8g2\u8g2\csrc/u8g2_circle.c ****     /* upper right */
 132:..\..\..\u8g2\u8g2\csrc/u8g2_circle.c ****     if ( option & U8G2_DRAW_UPPER_RIGHT )
 133:..\..\..\u8g2\u8g2\csrc/u8g2_circle.c ****     {
 134:..\..\..\u8g2\u8g2\csrc/u8g2_circle.c ****       u8g2_DrawVLine(u8g2, x0+x, y0-y, y+1);
 135:..\..\..\u8g2\u8g2\csrc/u8g2_circle.c ****       u8g2_DrawVLine(u8g2, x0+y, y0-x, x+1);
 136:..\..\..\u8g2\u8g2\csrc/u8g2_circle.c ****     }
 137:..\..\..\u8g2\u8g2\csrc/u8g2_circle.c ****     
 138:..\..\..\u8g2\u8g2\csrc/u8g2_circle.c ****     /* upper left */
 139:..\..\..\u8g2\u8g2\csrc/u8g2_circle.c ****     if ( option & U8G2_DRAW_UPPER_LEFT )
 140:..\..\..\u8g2\u8g2\csrc/u8g2_circle.c ****     {
 141:..\..\..\u8g2\u8g2\csrc/u8g2_circle.c ****       u8g2_DrawVLine(u8g2, x0-x, y0-y, y+1);
 142:..\..\..\u8g2\u8g2\csrc/u8g2_circle.c ****       u8g2_DrawVLine(u8g2, x0-y, y0-x, x+1);
 143:..\..\..\u8g2\u8g2\csrc/u8g2_circle.c ****     }
 144:..\..\..\u8g2\u8g2\csrc/u8g2_circle.c ****     
 145:..\..\..\u8g2\u8g2\csrc/u8g2_circle.c ****     /* lower right */
 146:..\..\..\u8g2\u8g2\csrc/u8g2_circle.c ****     if ( option & U8G2_DRAW_LOWER_RIGHT )
 147:..\..\..\u8g2\u8g2\csrc/u8g2_circle.c ****     {
 148:..\..\..\u8g2\u8g2\csrc/u8g2_circle.c ****       u8g2_DrawVLine(u8g2, x0+x, y0, y+1);
 149:..\..\..\u8g2\u8g2\csrc/u8g2_circle.c ****       u8g2_DrawVLine(u8g2, x0+y, y0, x+1);
 150:..\..\..\u8g2\u8g2\csrc/u8g2_circle.c ****     }
 151:..\..\..\u8g2\u8g2\csrc/u8g2_circle.c ****     
 152:..\..\..\u8g2\u8g2\csrc/u8g2_circle.c ****     /* lower left */
 153:..\..\..\u8g2\u8g2\csrc/u8g2_circle.c ****     if ( option & U8G2_DRAW_LOWER_LEFT )
 154:..\..\..\u8g2\u8g2\csrc/u8g2_circle.c ****     {
 155:..\..\..\u8g2\u8g2\csrc/u8g2_circle.c ****       u8g2_DrawVLine(u8g2, x0-x, y0, y+1);
 156:..\..\..\u8g2\u8g2\csrc/u8g2_circle.c ****       u8g2_DrawVLine(u8g2, x0-y, y0, x+1);
 157:..\..\..\u8g2\u8g2\csrc/u8g2_circle.c ****     }
 158:..\..\..\u8g2\u8g2\csrc/u8g2_circle.c **** }
 159:..\..\..\u8g2\u8g2\csrc/u8g2_circle.c **** 
 160:..\..\..\u8g2\u8g2\csrc/u8g2_circle.c **** static void u8g2_draw_disc(u8g2_t *u8g2, u8g2_uint_t x0, u8g2_uint_t y0, u8g2_uint_t rad, uint8_t o
 161:..\..\..\u8g2\u8g2\csrc/u8g2_circle.c **** {
 162:..\..\..\u8g2\u8g2\csrc/u8g2_circle.c ****   u8g2_int_t f;
 163:..\..\..\u8g2\u8g2\csrc/u8g2_circle.c ****   u8g2_int_t ddF_x;
 164:..\..\..\u8g2\u8g2\csrc/u8g2_circle.c ****   u8g2_int_t ddF_y;
 165:..\..\..\u8g2\u8g2\csrc/u8g2_circle.c ****   u8g2_uint_t x;
 166:..\..\..\u8g2\u8g2\csrc/u8g2_circle.c ****   u8g2_uint_t y;
 167:..\..\..\u8g2\u8g2\csrc/u8g2_circle.c **** 
 168:..\..\..\u8g2\u8g2\csrc/u8g2_circle.c ****   f = 1;
 169:..\..\..\u8g2\u8g2\csrc/u8g2_circle.c ****   f -= rad;
 170:..\..\..\u8g2\u8g2\csrc/u8g2_circle.c ****   ddF_x = 1;
 171:..\..\..\u8g2\u8g2\csrc/u8g2_circle.c ****   ddF_y = 0;
 172:..\..\..\u8g2\u8g2\csrc/u8g2_circle.c ****   ddF_y -= rad;
 173:..\..\..\u8g2\u8g2\csrc/u8g2_circle.c ****   ddF_y *= 2;
 174:..\..\..\u8g2\u8g2\csrc/u8g2_circle.c ****   x = 0;
 175:..\..\..\u8g2\u8g2\csrc/u8g2_circle.c ****   y = rad;
 176:..\..\..\u8g2\u8g2\csrc/u8g2_circle.c **** 
 177:..\..\..\u8g2\u8g2\csrc/u8g2_circle.c ****   u8g2_draw_disc_section(u8g2, x, y, x0, y0, option);
 178:..\..\..\u8g2\u8g2\csrc/u8g2_circle.c ****   
 179:..\..\..\u8g2\u8g2\csrc/u8g2_circle.c ****   while ( x < y )
 180:..\..\..\u8g2\u8g2\csrc/u8g2_circle.c ****   {
 181:..\..\..\u8g2\u8g2\csrc/u8g2_circle.c ****     if (f >= 0) 
 182:..\..\..\u8g2\u8g2\csrc/u8g2_circle.c ****     {
 183:..\..\..\u8g2\u8g2\csrc/u8g2_circle.c ****       y--;
ARM GAS  C:\Users\jesse\AppData\Local\Temp\ccXvBXW6.s 			page 7


 184:..\..\..\u8g2\u8g2\csrc/u8g2_circle.c ****       ddF_y += 2;
 185:..\..\..\u8g2\u8g2\csrc/u8g2_circle.c ****       f += ddF_y;
 186:..\..\..\u8g2\u8g2\csrc/u8g2_circle.c ****     }
 187:..\..\..\u8g2\u8g2\csrc/u8g2_circle.c ****     x++;
 188:..\..\..\u8g2\u8g2\csrc/u8g2_circle.c ****     ddF_x += 2;
 189:..\..\..\u8g2\u8g2\csrc/u8g2_circle.c ****     f += ddF_x;
 190:..\..\..\u8g2\u8g2\csrc/u8g2_circle.c **** 
 191:..\..\..\u8g2\u8g2\csrc/u8g2_circle.c ****     u8g2_draw_disc_section(u8g2, x, y, x0, y0, option);    
 192:..\..\..\u8g2\u8g2\csrc/u8g2_circle.c ****   }
 193:..\..\..\u8g2\u8g2\csrc/u8g2_circle.c **** }
 194:..\..\..\u8g2\u8g2\csrc/u8g2_circle.c **** 
 195:..\..\..\u8g2\u8g2\csrc/u8g2_circle.c **** void u8g2_DrawDisc(u8g2_t *u8g2, u8g2_uint_t x0, u8g2_uint_t y0, u8g2_uint_t rad, uint8_t option)
 196:..\..\..\u8g2\u8g2\csrc/u8g2_circle.c **** {
 197:..\..\..\u8g2\u8g2\csrc/u8g2_circle.c ****   /* check for bounding box */
 198:..\..\..\u8g2\u8g2\csrc/u8g2_circle.c **** #ifdef U8G2_WITH_INTERSECTION
 199:..\..\..\u8g2\u8g2\csrc/u8g2_circle.c ****   {
 200:..\..\..\u8g2\u8g2\csrc/u8g2_circle.c ****     if ( u8g2_IsIntersection(u8g2, x0-rad, y0-rad, x0+rad+1, y0+rad+1) == 0 ) 
 201:..\..\..\u8g2\u8g2\csrc/u8g2_circle.c ****       return;
 202:..\..\..\u8g2\u8g2\csrc/u8g2_circle.c ****   }
 203:..\..\..\u8g2\u8g2\csrc/u8g2_circle.c **** #endif /* U8G2_WITH_INTERSECTION */
 204:..\..\..\u8g2\u8g2\csrc/u8g2_circle.c ****   
 205:..\..\..\u8g2\u8g2\csrc/u8g2_circle.c ****   /* draw disc */
 206:..\..\..\u8g2\u8g2\csrc/u8g2_circle.c ****   u8g2_draw_disc(u8g2, x0, y0, rad, option);
 207:..\..\..\u8g2\u8g2\csrc/u8g2_circle.c **** }
 208:..\..\..\u8g2\u8g2\csrc/u8g2_circle.c **** 
 209:..\..\..\u8g2\u8g2\csrc/u8g2_circle.c **** /*==============================================*/
 210:..\..\..\u8g2\u8g2\csrc/u8g2_circle.c **** /* Ellipse */
 211:..\..\..\u8g2\u8g2\csrc/u8g2_circle.c **** 
 212:..\..\..\u8g2\u8g2\csrc/u8g2_circle.c **** /*
 213:..\..\..\u8g2\u8g2\csrc/u8g2_circle.c ****   Source: 
 214:..\..\..\u8g2\u8g2\csrc/u8g2_circle.c ****     Foley, Computer Graphics, p 90
 215:..\..\..\u8g2\u8g2\csrc/u8g2_circle.c **** */
 216:..\..\..\u8g2\u8g2\csrc/u8g2_circle.c **** static void u8g2_draw_ellipse_section(u8g2_t *u8g2, u8g2_uint_t x, u8g2_uint_t y, u8g2_uint_t x0, u
 217:..\..\..\u8g2\u8g2\csrc/u8g2_circle.c **** static void u8g2_draw_ellipse_section(u8g2_t *u8g2, u8g2_uint_t x, u8g2_uint_t y, u8g2_uint_t x0, u
 218:..\..\..\u8g2\u8g2\csrc/u8g2_circle.c **** {
 158              		.loc 1 218 0
 159              		.cfi_startproc
 160              		@ args = 8, pretend = 0, frame = 0
 161              		@ frame_needed = 0, uses_anonymous_args = 0
 162              	.LVL12:
 163 0000 2DE9F843 		push	{r3, r4, r5, r6, r7, r8, r9, lr}
 164              		.cfi_def_cfa_offset 32
 165              		.cfi_offset 3, -32
 166              		.cfi_offset 4, -28
 167              		.cfi_offset 5, -24
 168              		.cfi_offset 6, -20
 169              		.cfi_offset 7, -16
 170              		.cfi_offset 8, -12
 171              		.cfi_offset 9, -8
 172              		.cfi_offset 14, -4
 173              		.loc 1 218 0
 174 0004 9DF82480 		ldrb	r8, [sp, #36]	@ zero_extendqisi2
 175 0008 8146     		mov	r9, r0
 219:..\..\..\u8g2\u8g2\csrc/u8g2_circle.c ****     /* upper right */
 220:..\..\..\u8g2\u8g2\csrc/u8g2_circle.c ****     if ( option & U8G2_DRAW_UPPER_RIGHT )
 176              		.loc 1 220 0
 177 000a 18F0010F 		tst	r8, #1
ARM GAS  C:\Users\jesse\AppData\Local\Temp\ccXvBXW6.s 			page 8


 218:..\..\..\u8g2\u8g2\csrc/u8g2_circle.c ****     /* upper right */
 178              		.loc 1 218 0
 179 000e 0E46     		mov	r6, r1
 180 0010 1546     		mov	r5, r2
 181 0012 1C46     		mov	r4, r3
 182 0014 BDF82070 		ldrh	r7, [sp, #32]
 183              		.loc 1 220 0
 184 0018 05D0     		beq	.L17
 221:..\..\..\u8g2\u8g2\csrc/u8g2_circle.c ****     {
 222:..\..\..\u8g2\u8g2\csrc/u8g2_circle.c ****       u8g2_DrawPixel(u8g2, x0 + x, y0 - y);
 185              		.loc 1 222 0
 186 001a BA1A     		subs	r2, r7, r2
 187              	.LVL13:
 188 001c 5918     		adds	r1, r3, r1
 189              	.LVL14:
 190 001e 92B2     		uxth	r2, r2
 191 0020 89B2     		uxth	r1, r1
 192 0022 FFF7FEFF 		bl	u8g2_DrawPixel
 193              	.LVL15:
 194              	.L17:
 223:..\..\..\u8g2\u8g2\csrc/u8g2_circle.c ****     }
 224:..\..\..\u8g2\u8g2\csrc/u8g2_circle.c ****     
 225:..\..\..\u8g2\u8g2\csrc/u8g2_circle.c ****     /* upper left */
 226:..\..\..\u8g2\u8g2\csrc/u8g2_circle.c ****     if ( option & U8G2_DRAW_UPPER_LEFT )
 195              		.loc 1 226 0
 196 0026 18F0020F 		tst	r8, #2
 197 002a 06D0     		beq	.L18
 227:..\..\..\u8g2\u8g2\csrc/u8g2_circle.c ****     {
 228:..\..\..\u8g2\u8g2\csrc/u8g2_circle.c ****       u8g2_DrawPixel(u8g2, x0 - x, y0 - y);
 198              		.loc 1 228 0
 199 002c 7A1B     		subs	r2, r7, r5
 200 002e A11B     		subs	r1, r4, r6
 201 0030 92B2     		uxth	r2, r2
 202 0032 89B2     		uxth	r1, r1
 203 0034 4846     		mov	r0, r9
 204 0036 FFF7FEFF 		bl	u8g2_DrawPixel
 205              	.LVL16:
 206              	.L18:
 229:..\..\..\u8g2\u8g2\csrc/u8g2_circle.c ****     }
 230:..\..\..\u8g2\u8g2\csrc/u8g2_circle.c ****     
 231:..\..\..\u8g2\u8g2\csrc/u8g2_circle.c ****     /* lower right */
 232:..\..\..\u8g2\u8g2\csrc/u8g2_circle.c ****     if ( option & U8G2_DRAW_LOWER_RIGHT )
 207              		.loc 1 232 0
 208 003a 18F0080F 		tst	r8, #8
 209 003e 06D0     		beq	.L19
 233:..\..\..\u8g2\u8g2\csrc/u8g2_circle.c ****     {
 234:..\..\..\u8g2\u8g2\csrc/u8g2_circle.c ****       u8g2_DrawPixel(u8g2, x0 + x, y0 + y);
 210              		.loc 1 234 0
 211 0040 7A19     		adds	r2, r7, r5
 212 0042 A119     		adds	r1, r4, r6
 213 0044 92B2     		uxth	r2, r2
 214 0046 89B2     		uxth	r1, r1
 215 0048 4846     		mov	r0, r9
 216 004a FFF7FEFF 		bl	u8g2_DrawPixel
 217              	.LVL17:
 218              	.L19:
 235:..\..\..\u8g2\u8g2\csrc/u8g2_circle.c ****     }
ARM GAS  C:\Users\jesse\AppData\Local\Temp\ccXvBXW6.s 			page 9


 236:..\..\..\u8g2\u8g2\csrc/u8g2_circle.c ****     
 237:..\..\..\u8g2\u8g2\csrc/u8g2_circle.c ****     /* lower left */
 238:..\..\..\u8g2\u8g2\csrc/u8g2_circle.c ****     if ( option & U8G2_DRAW_LOWER_LEFT )
 219              		.loc 1 238 0
 220 004e 18F0040F 		tst	r8, #4
 221 0052 08D0     		beq	.L16
 239:..\..\..\u8g2\u8g2\csrc/u8g2_circle.c ****     {
 240:..\..\..\u8g2\u8g2\csrc/u8g2_circle.c ****       u8g2_DrawPixel(u8g2, x0 - x, y0 + y);
 222              		.loc 1 240 0
 223 0054 7A19     		adds	r2, r7, r5
 224 0056 A11B     		subs	r1, r4, r6
 225 0058 4846     		mov	r0, r9
 241:..\..\..\u8g2\u8g2\csrc/u8g2_circle.c ****     }
 242:..\..\..\u8g2\u8g2\csrc/u8g2_circle.c **** }
 226              		.loc 1 242 0
 227 005a BDE8F843 		pop	{r3, r4, r5, r6, r7, r8, r9, lr}
 228              		.cfi_remember_state
 229              		.cfi_restore 14
 230              		.cfi_restore 9
 231              		.cfi_restore 8
 232              		.cfi_restore 7
 233              		.cfi_restore 6
 234              		.cfi_restore 5
 235              		.cfi_restore 4
 236              		.cfi_restore 3
 237              		.cfi_def_cfa_offset 0
 238              	.LVL18:
 240:..\..\..\u8g2\u8g2\csrc/u8g2_circle.c ****     }
 239              		.loc 1 240 0
 240 005e 92B2     		uxth	r2, r2
 241 0060 89B2     		uxth	r1, r1
 242 0062 FFF7FEBF 		b	u8g2_DrawPixel
 243              	.LVL19:
 244              	.L16:
 245              		.cfi_restore_state
 246 0066 BDE8F883 		pop	{r3, r4, r5, r6, r7, r8, r9, pc}
 247              		.cfi_endproc
 248              	.LFE6:
 249              		.size	u8g2_draw_ellipse_section, .-u8g2_draw_ellipse_section
 250              		.section	.text.u8g2_draw_disc_section,"ax",%progbits
 251              		.align	1
 252              		.thumb
 253              		.thumb_func
 254              		.type	u8g2_draw_disc_section, %function
 255              	u8g2_draw_disc_section:
 256              	.LFB3:
 130:..\..\..\u8g2\u8g2\csrc/u8g2_circle.c ****     /* upper right */
 257              		.loc 1 130 0
 258              		.cfi_startproc
 259              		@ args = 8, pretend = 0, frame = 0
 260              		@ frame_needed = 0, uses_anonymous_args = 0
 261              	.LVL20:
 262 0000 2DE9F047 		push	{r4, r5, r6, r7, r8, r9, r10, lr}
 263              		.cfi_def_cfa_offset 32
 264              		.cfi_offset 4, -32
 265              		.cfi_offset 5, -28
 266              		.cfi_offset 6, -24
ARM GAS  C:\Users\jesse\AppData\Local\Temp\ccXvBXW6.s 			page 10


 267              		.cfi_offset 7, -20
 268              		.cfi_offset 8, -16
 269              		.cfi_offset 9, -12
 270              		.cfi_offset 10, -8
 271              		.cfi_offset 14, -4
 130:..\..\..\u8g2\u8g2\csrc/u8g2_circle.c ****     /* upper right */
 272              		.loc 1 130 0
 273 0004 9DF82490 		ldrb	r9, [sp, #36]	@ zero_extendqisi2
 274 0008 8046     		mov	r8, r0
 132:..\..\..\u8g2\u8g2\csrc/u8g2_circle.c ****     {
 275              		.loc 1 132 0
 276 000a 19F0010F 		tst	r9, #1
 130:..\..\..\u8g2\u8g2\csrc/u8g2_circle.c ****     /* upper right */
 277              		.loc 1 130 0
 278 000e 0C46     		mov	r4, r1
 279 0010 1646     		mov	r6, r2
 280 0012 1D46     		mov	r5, r3
 281 0014 BDF82070 		ldrh	r7, [sp, #32]
 132:..\..\..\u8g2\u8g2\csrc/u8g2_circle.c ****     {
 282              		.loc 1 132 0
 283 0018 10D0     		beq	.L31
 134:..\..\..\u8g2\u8g2\csrc/u8g2_circle.c ****       u8g2_DrawVLine(u8g2, x0+y, y0-x, x+1);
 284              		.loc 1 134 0
 285 001a 531C     		adds	r3, r2, #1
 286              	.LVL21:
 287 001c 6918     		adds	r1, r5, r1
 288              	.LVL22:
 289 001e BA1A     		subs	r2, r7, r2
 290              	.LVL23:
 291 0020 9BB2     		uxth	r3, r3
 292 0022 92B2     		uxth	r2, r2
 293 0024 89B2     		uxth	r1, r1
 294 0026 FFF7FEFF 		bl	u8g2_DrawVLine
 295              	.LVL24:
 135:..\..\..\u8g2\u8g2\csrc/u8g2_circle.c ****     }
 296              		.loc 1 135 0
 297 002a 631C     		adds	r3, r4, #1
 298 002c 3A1B     		subs	r2, r7, r4
 299 002e A919     		adds	r1, r5, r6
 300 0030 9BB2     		uxth	r3, r3
 301 0032 92B2     		uxth	r2, r2
 302 0034 89B2     		uxth	r1, r1
 303 0036 4046     		mov	r0, r8
 304 0038 FFF7FEFF 		bl	u8g2_DrawVLine
 305              	.LVL25:
 306              	.L31:
 139:..\..\..\u8g2\u8g2\csrc/u8g2_circle.c ****     {
 307              		.loc 1 139 0
 308 003c 19F0020F 		tst	r9, #2
 309 0040 11D0     		beq	.L32
 141:..\..\..\u8g2\u8g2\csrc/u8g2_circle.c ****       u8g2_DrawVLine(u8g2, x0-y, y0-x, x+1);
 310              		.loc 1 141 0
 311 0042 731C     		adds	r3, r6, #1
 312 0044 BA1B     		subs	r2, r7, r6
 313 0046 291B     		subs	r1, r5, r4
 314 0048 9BB2     		uxth	r3, r3
 315 004a 92B2     		uxth	r2, r2
ARM GAS  C:\Users\jesse\AppData\Local\Temp\ccXvBXW6.s 			page 11


 316 004c 89B2     		uxth	r1, r1
 317 004e 4046     		mov	r0, r8
 318 0050 FFF7FEFF 		bl	u8g2_DrawVLine
 319              	.LVL26:
 142:..\..\..\u8g2\u8g2\csrc/u8g2_circle.c ****     }
 320              		.loc 1 142 0
 321 0054 631C     		adds	r3, r4, #1
 322 0056 3A1B     		subs	r2, r7, r4
 323 0058 A91B     		subs	r1, r5, r6
 324 005a 9BB2     		uxth	r3, r3
 325 005c 92B2     		uxth	r2, r2
 326 005e 89B2     		uxth	r1, r1
 327 0060 4046     		mov	r0, r8
 328 0062 FFF7FEFF 		bl	u8g2_DrawVLine
 329              	.LVL27:
 330              	.L32:
 146:..\..\..\u8g2\u8g2\csrc/u8g2_circle.c ****     {
 331              		.loc 1 146 0
 332 0066 19F0080F 		tst	r9, #8
 333 006a 0FD0     		beq	.L33
 148:..\..\..\u8g2\u8g2\csrc/u8g2_circle.c ****       u8g2_DrawVLine(u8g2, x0+y, y0, x+1);
 334              		.loc 1 148 0
 335 006c 731C     		adds	r3, r6, #1
 336 006e 2919     		adds	r1, r5, r4
 337 0070 9BB2     		uxth	r3, r3
 338 0072 3A46     		mov	r2, r7
 339 0074 89B2     		uxth	r1, r1
 340 0076 4046     		mov	r0, r8
 341 0078 FFF7FEFF 		bl	u8g2_DrawVLine
 342              	.LVL28:
 149:..\..\..\u8g2\u8g2\csrc/u8g2_circle.c ****     }
 343              		.loc 1 149 0
 344 007c 631C     		adds	r3, r4, #1
 345 007e A919     		adds	r1, r5, r6
 346 0080 9BB2     		uxth	r3, r3
 347 0082 3A46     		mov	r2, r7
 348 0084 89B2     		uxth	r1, r1
 349 0086 4046     		mov	r0, r8
 350 0088 FFF7FEFF 		bl	u8g2_DrawVLine
 351              	.LVL29:
 352              	.L33:
 153:..\..\..\u8g2\u8g2\csrc/u8g2_circle.c ****     {
 353              		.loc 1 153 0
 354 008c 19F0040F 		tst	r9, #4
 355 0090 11D0     		beq	.L30
 155:..\..\..\u8g2\u8g2\csrc/u8g2_circle.c ****       u8g2_DrawVLine(u8g2, x0-y, y0, x+1);
 356              		.loc 1 155 0
 357 0092 731C     		adds	r3, r6, #1
 358 0094 291B     		subs	r1, r5, r4
 359 0096 3A46     		mov	r2, r7
 360 0098 4046     		mov	r0, r8
 361 009a 9BB2     		uxth	r3, r3
 362 009c 89B2     		uxth	r1, r1
 363 009e FFF7FEFF 		bl	u8g2_DrawVLine
 364              	.LVL30:
 156:..\..\..\u8g2\u8g2\csrc/u8g2_circle.c ****     }
 365              		.loc 1 156 0
ARM GAS  C:\Users\jesse\AppData\Local\Temp\ccXvBXW6.s 			page 12


 366 00a2 631C     		adds	r3, r4, #1
 367 00a4 A91B     		subs	r1, r5, r6
 368 00a6 3A46     		mov	r2, r7
 369 00a8 4046     		mov	r0, r8
 158:..\..\..\u8g2\u8g2\csrc/u8g2_circle.c **** 
 370              		.loc 1 158 0
 371 00aa BDE8F047 		pop	{r4, r5, r6, r7, r8, r9, r10, lr}
 372              		.cfi_remember_state
 373              		.cfi_restore 14
 374              		.cfi_restore 10
 375              		.cfi_restore 9
 376              		.cfi_restore 8
 377              		.cfi_restore 7
 378              		.cfi_restore 6
 379              		.cfi_restore 5
 380              		.cfi_restore 4
 381              		.cfi_def_cfa_offset 0
 382              	.LVL31:
 156:..\..\..\u8g2\u8g2\csrc/u8g2_circle.c ****     }
 383              		.loc 1 156 0
 384 00ae 9BB2     		uxth	r3, r3
 385 00b0 89B2     		uxth	r1, r1
 386 00b2 FFF7FEBF 		b	u8g2_DrawVLine
 387              	.LVL32:
 388              	.L30:
 389              		.cfi_restore_state
 390 00b6 BDE8F087 		pop	{r4, r5, r6, r7, r8, r9, r10, pc}
 391              		.cfi_endproc
 392              	.LFE3:
 393              		.size	u8g2_draw_disc_section, .-u8g2_draw_disc_section
 394              		.section	.text.u8g2_draw_filled_ellipse_section,"ax",%progbits
 395              		.align	1
 396              		.thumb
 397              		.thumb_func
 398              		.type	u8g2_draw_filled_ellipse_section, %function
 399              	u8g2_draw_filled_ellipse_section:
 400              	.LFB9:
 243:..\..\..\u8g2\u8g2\csrc/u8g2_circle.c **** 
 244:..\..\..\u8g2\u8g2\csrc/u8g2_circle.c **** static void u8g2_draw_ellipse(u8g2_t *u8g2, u8g2_uint_t x0, u8g2_uint_t y0, u8g2_uint_t rx, u8g2_ui
 245:..\..\..\u8g2\u8g2\csrc/u8g2_circle.c **** {
 246:..\..\..\u8g2\u8g2\csrc/u8g2_circle.c ****   u8g2_uint_t x, y;
 247:..\..\..\u8g2\u8g2\csrc/u8g2_circle.c ****   u8g2_long_t xchg, ychg;
 248:..\..\..\u8g2\u8g2\csrc/u8g2_circle.c ****   u8g2_long_t err;
 249:..\..\..\u8g2\u8g2\csrc/u8g2_circle.c ****   u8g2_long_t rxrx2;
 250:..\..\..\u8g2\u8g2\csrc/u8g2_circle.c ****   u8g2_long_t ryry2;
 251:..\..\..\u8g2\u8g2\csrc/u8g2_circle.c ****   u8g2_long_t stopx, stopy;
 252:..\..\..\u8g2\u8g2\csrc/u8g2_circle.c ****   
 253:..\..\..\u8g2\u8g2\csrc/u8g2_circle.c ****   rxrx2 = rx;
 254:..\..\..\u8g2\u8g2\csrc/u8g2_circle.c ****   rxrx2 *= rx;
 255:..\..\..\u8g2\u8g2\csrc/u8g2_circle.c ****   rxrx2 *= 2;
 256:..\..\..\u8g2\u8g2\csrc/u8g2_circle.c ****   
 257:..\..\..\u8g2\u8g2\csrc/u8g2_circle.c ****   ryry2 = ry;
 258:..\..\..\u8g2\u8g2\csrc/u8g2_circle.c ****   ryry2 *= ry;
 259:..\..\..\u8g2\u8g2\csrc/u8g2_circle.c ****   ryry2 *= 2;
 260:..\..\..\u8g2\u8g2\csrc/u8g2_circle.c ****   
 261:..\..\..\u8g2\u8g2\csrc/u8g2_circle.c ****   x = rx;
 262:..\..\..\u8g2\u8g2\csrc/u8g2_circle.c ****   y = 0;
ARM GAS  C:\Users\jesse\AppData\Local\Temp\ccXvBXW6.s 			page 13


 263:..\..\..\u8g2\u8g2\csrc/u8g2_circle.c ****   
 264:..\..\..\u8g2\u8g2\csrc/u8g2_circle.c ****   xchg = 1;
 265:..\..\..\u8g2\u8g2\csrc/u8g2_circle.c ****   xchg -= rx;
 266:..\..\..\u8g2\u8g2\csrc/u8g2_circle.c ****   xchg -= rx;
 267:..\..\..\u8g2\u8g2\csrc/u8g2_circle.c ****   xchg *= ry;
 268:..\..\..\u8g2\u8g2\csrc/u8g2_circle.c ****   xchg *= ry;
 269:..\..\..\u8g2\u8g2\csrc/u8g2_circle.c ****   
 270:..\..\..\u8g2\u8g2\csrc/u8g2_circle.c ****   ychg = rx;
 271:..\..\..\u8g2\u8g2\csrc/u8g2_circle.c ****   ychg *= rx;
 272:..\..\..\u8g2\u8g2\csrc/u8g2_circle.c ****   
 273:..\..\..\u8g2\u8g2\csrc/u8g2_circle.c ****   err = 0;
 274:..\..\..\u8g2\u8g2\csrc/u8g2_circle.c ****   
 275:..\..\..\u8g2\u8g2\csrc/u8g2_circle.c ****   stopx = ryry2;
 276:..\..\..\u8g2\u8g2\csrc/u8g2_circle.c ****   stopx *= rx;
 277:..\..\..\u8g2\u8g2\csrc/u8g2_circle.c ****   stopy = 0;
 278:..\..\..\u8g2\u8g2\csrc/u8g2_circle.c ****   
 279:..\..\..\u8g2\u8g2\csrc/u8g2_circle.c ****   while( stopx >= stopy )
 280:..\..\..\u8g2\u8g2\csrc/u8g2_circle.c ****   {
 281:..\..\..\u8g2\u8g2\csrc/u8g2_circle.c ****     u8g2_draw_ellipse_section(u8g2, x, y, x0, y0, option);
 282:..\..\..\u8g2\u8g2\csrc/u8g2_circle.c ****     y++;
 283:..\..\..\u8g2\u8g2\csrc/u8g2_circle.c ****     stopy += rxrx2;
 284:..\..\..\u8g2\u8g2\csrc/u8g2_circle.c ****     err += ychg;
 285:..\..\..\u8g2\u8g2\csrc/u8g2_circle.c ****     ychg += rxrx2;
 286:..\..\..\u8g2\u8g2\csrc/u8g2_circle.c ****     if ( 2*err+xchg > 0 )
 287:..\..\..\u8g2\u8g2\csrc/u8g2_circle.c ****     {
 288:..\..\..\u8g2\u8g2\csrc/u8g2_circle.c ****       x--;
 289:..\..\..\u8g2\u8g2\csrc/u8g2_circle.c ****       stopx -= ryry2;
 290:..\..\..\u8g2\u8g2\csrc/u8g2_circle.c ****       err += xchg;
 291:..\..\..\u8g2\u8g2\csrc/u8g2_circle.c ****       xchg += ryry2;      
 292:..\..\..\u8g2\u8g2\csrc/u8g2_circle.c ****     }
 293:..\..\..\u8g2\u8g2\csrc/u8g2_circle.c ****   }
 294:..\..\..\u8g2\u8g2\csrc/u8g2_circle.c **** 
 295:..\..\..\u8g2\u8g2\csrc/u8g2_circle.c ****   x = 0;
 296:..\..\..\u8g2\u8g2\csrc/u8g2_circle.c ****   y = ry;
 297:..\..\..\u8g2\u8g2\csrc/u8g2_circle.c ****   
 298:..\..\..\u8g2\u8g2\csrc/u8g2_circle.c ****   xchg = ry;
 299:..\..\..\u8g2\u8g2\csrc/u8g2_circle.c ****   xchg *= ry;
 300:..\..\..\u8g2\u8g2\csrc/u8g2_circle.c ****   
 301:..\..\..\u8g2\u8g2\csrc/u8g2_circle.c ****   ychg = 1;
 302:..\..\..\u8g2\u8g2\csrc/u8g2_circle.c ****   ychg -= ry;
 303:..\..\..\u8g2\u8g2\csrc/u8g2_circle.c ****   ychg -= ry;
 304:..\..\..\u8g2\u8g2\csrc/u8g2_circle.c ****   ychg *= rx;
 305:..\..\..\u8g2\u8g2\csrc/u8g2_circle.c ****   ychg *= rx;
 306:..\..\..\u8g2\u8g2\csrc/u8g2_circle.c ****   
 307:..\..\..\u8g2\u8g2\csrc/u8g2_circle.c ****   err = 0;
 308:..\..\..\u8g2\u8g2\csrc/u8g2_circle.c ****   
 309:..\..\..\u8g2\u8g2\csrc/u8g2_circle.c ****   stopx = 0;
 310:..\..\..\u8g2\u8g2\csrc/u8g2_circle.c **** 
 311:..\..\..\u8g2\u8g2\csrc/u8g2_circle.c ****   stopy = rxrx2;
 312:..\..\..\u8g2\u8g2\csrc/u8g2_circle.c ****   stopy *= ry;
 313:..\..\..\u8g2\u8g2\csrc/u8g2_circle.c ****   
 314:..\..\..\u8g2\u8g2\csrc/u8g2_circle.c **** 
 315:..\..\..\u8g2\u8g2\csrc/u8g2_circle.c ****   while( stopx <= stopy )
 316:..\..\..\u8g2\u8g2\csrc/u8g2_circle.c ****   {
 317:..\..\..\u8g2\u8g2\csrc/u8g2_circle.c ****     u8g2_draw_ellipse_section(u8g2, x, y, x0, y0, option);
 318:..\..\..\u8g2\u8g2\csrc/u8g2_circle.c ****     x++;
 319:..\..\..\u8g2\u8g2\csrc/u8g2_circle.c ****     stopx += ryry2;
ARM GAS  C:\Users\jesse\AppData\Local\Temp\ccXvBXW6.s 			page 14


 320:..\..\..\u8g2\u8g2\csrc/u8g2_circle.c ****     err += xchg;
 321:..\..\..\u8g2\u8g2\csrc/u8g2_circle.c ****     xchg += ryry2;
 322:..\..\..\u8g2\u8g2\csrc/u8g2_circle.c ****     if ( 2*err+ychg > 0 )
 323:..\..\..\u8g2\u8g2\csrc/u8g2_circle.c ****     {
 324:..\..\..\u8g2\u8g2\csrc/u8g2_circle.c ****       y--;
 325:..\..\..\u8g2\u8g2\csrc/u8g2_circle.c ****       stopy -= rxrx2;
 326:..\..\..\u8g2\u8g2\csrc/u8g2_circle.c ****       err += ychg;
 327:..\..\..\u8g2\u8g2\csrc/u8g2_circle.c ****       ychg += rxrx2;
 328:..\..\..\u8g2\u8g2\csrc/u8g2_circle.c ****     }
 329:..\..\..\u8g2\u8g2\csrc/u8g2_circle.c ****   }
 330:..\..\..\u8g2\u8g2\csrc/u8g2_circle.c ****   
 331:..\..\..\u8g2\u8g2\csrc/u8g2_circle.c **** }
 332:..\..\..\u8g2\u8g2\csrc/u8g2_circle.c **** 
 333:..\..\..\u8g2\u8g2\csrc/u8g2_circle.c **** void u8g2_DrawEllipse(u8g2_t *u8g2, u8g2_uint_t x0, u8g2_uint_t y0, u8g2_uint_t rx, u8g2_uint_t ry,
 334:..\..\..\u8g2\u8g2\csrc/u8g2_circle.c **** {
 335:..\..\..\u8g2\u8g2\csrc/u8g2_circle.c ****   /* check for bounding box */
 336:..\..\..\u8g2\u8g2\csrc/u8g2_circle.c **** #ifdef U8G2_WITH_INTERSECTION
 337:..\..\..\u8g2\u8g2\csrc/u8g2_circle.c ****   {
 338:..\..\..\u8g2\u8g2\csrc/u8g2_circle.c ****     if ( u8g2_IsIntersection(u8g2, x0-rx, y0-ry, x0+rx+1, y0+ry+1) == 0 ) 
 339:..\..\..\u8g2\u8g2\csrc/u8g2_circle.c ****       return;
 340:..\..\..\u8g2\u8g2\csrc/u8g2_circle.c ****   }
 341:..\..\..\u8g2\u8g2\csrc/u8g2_circle.c **** #endif /* U8G2_WITH_INTERSECTION */
 342:..\..\..\u8g2\u8g2\csrc/u8g2_circle.c ****   
 343:..\..\..\u8g2\u8g2\csrc/u8g2_circle.c ****   u8g2_draw_ellipse(u8g2, x0, y0, rx, ry, option);
 344:..\..\..\u8g2\u8g2\csrc/u8g2_circle.c **** }
 345:..\..\..\u8g2\u8g2\csrc/u8g2_circle.c **** 
 346:..\..\..\u8g2\u8g2\csrc/u8g2_circle.c **** /*==============================================*/
 347:..\..\..\u8g2\u8g2\csrc/u8g2_circle.c **** /* Filled Ellipse */
 348:..\..\..\u8g2\u8g2\csrc/u8g2_circle.c **** 
 349:..\..\..\u8g2\u8g2\csrc/u8g2_circle.c **** static void u8g2_draw_filled_ellipse_section(u8g2_t *u8g2, u8g2_uint_t x, u8g2_uint_t y, u8g2_uint_
 350:..\..\..\u8g2\u8g2\csrc/u8g2_circle.c **** static void u8g2_draw_filled_ellipse_section(u8g2_t *u8g2, u8g2_uint_t x, u8g2_uint_t y, u8g2_uint_
 351:..\..\..\u8g2\u8g2\csrc/u8g2_circle.c **** {
 401              		.loc 1 351 0
 402              		.cfi_startproc
 403              		@ args = 8, pretend = 0, frame = 0
 404              		@ frame_needed = 0, uses_anonymous_args = 0
 405              	.LVL33:
 406 0000 2DE9F047 		push	{r4, r5, r6, r7, r8, r9, r10, lr}
 407              		.cfi_def_cfa_offset 32
 408              		.cfi_offset 4, -32
 409              		.cfi_offset 5, -28
 410              		.cfi_offset 6, -24
 411              		.cfi_offset 7, -20
 412              		.cfi_offset 8, -16
 413              		.cfi_offset 9, -12
 414              		.cfi_offset 10, -8
 415              		.cfi_offset 14, -4
 416              		.loc 1 351 0
 417 0004 9DF82480 		ldrb	r8, [sp, #36]	@ zero_extendqisi2
 418 0008 8146     		mov	r9, r0
 352:..\..\..\u8g2\u8g2\csrc/u8g2_circle.c ****     /* upper right */
 353:..\..\..\u8g2\u8g2\csrc/u8g2_circle.c ****     if ( option & U8G2_DRAW_UPPER_RIGHT )
 419              		.loc 1 353 0
 420 000a 18F0010F 		tst	r8, #1
 351:..\..\..\u8g2\u8g2\csrc/u8g2_circle.c ****     /* upper right */
 421              		.loc 1 351 0
 422 000e 0F46     		mov	r7, r1
ARM GAS  C:\Users\jesse\AppData\Local\Temp\ccXvBXW6.s 			page 15


 423 0010 1446     		mov	r4, r2
 424 0012 1D46     		mov	r5, r3
 425 0014 BDF82060 		ldrh	r6, [sp, #32]
 426              		.loc 1 353 0
 427 0018 07D0     		beq	.L45
 354:..\..\..\u8g2\u8g2\csrc/u8g2_circle.c ****     {
 355:..\..\..\u8g2\u8g2\csrc/u8g2_circle.c ****       u8g2_DrawVLine(u8g2, x0+x, y0-y, y+1);
 428              		.loc 1 355 0
 429 001a 531C     		adds	r3, r2, #1
 430              	.LVL34:
 431 001c 6918     		adds	r1, r5, r1
 432              	.LVL35:
 433 001e B21A     		subs	r2, r6, r2
 434              	.LVL36:
 435 0020 9BB2     		uxth	r3, r3
 436 0022 92B2     		uxth	r2, r2
 437 0024 89B2     		uxth	r1, r1
 438 0026 FFF7FEFF 		bl	u8g2_DrawVLine
 439              	.LVL37:
 440              	.L45:
 356:..\..\..\u8g2\u8g2\csrc/u8g2_circle.c ****     }
 357:..\..\..\u8g2\u8g2\csrc/u8g2_circle.c ****     
 358:..\..\..\u8g2\u8g2\csrc/u8g2_circle.c ****     /* upper left */
 359:..\..\..\u8g2\u8g2\csrc/u8g2_circle.c ****     if ( option & U8G2_DRAW_UPPER_LEFT )
 441              		.loc 1 359 0
 442 002a 18F0020F 		tst	r8, #2
 443 002e 08D0     		beq	.L46
 360:..\..\..\u8g2\u8g2\csrc/u8g2_circle.c ****     {
 361:..\..\..\u8g2\u8g2\csrc/u8g2_circle.c ****       u8g2_DrawVLine(u8g2, x0-x, y0-y, y+1);
 444              		.loc 1 361 0
 445 0030 631C     		adds	r3, r4, #1
 446 0032 321B     		subs	r2, r6, r4
 447 0034 E91B     		subs	r1, r5, r7
 448 0036 9BB2     		uxth	r3, r3
 449 0038 92B2     		uxth	r2, r2
 450 003a 89B2     		uxth	r1, r1
 451 003c 4846     		mov	r0, r9
 452 003e FFF7FEFF 		bl	u8g2_DrawVLine
 453              	.LVL38:
 454              	.L46:
 362:..\..\..\u8g2\u8g2\csrc/u8g2_circle.c ****     }
 363:..\..\..\u8g2\u8g2\csrc/u8g2_circle.c ****     
 364:..\..\..\u8g2\u8g2\csrc/u8g2_circle.c ****     /* lower right */
 365:..\..\..\u8g2\u8g2\csrc/u8g2_circle.c ****     if ( option & U8G2_DRAW_LOWER_RIGHT )
 455              		.loc 1 365 0
 456 0042 18F0080F 		tst	r8, #8
 457 0046 07D0     		beq	.L47
 366:..\..\..\u8g2\u8g2\csrc/u8g2_circle.c ****     {
 367:..\..\..\u8g2\u8g2\csrc/u8g2_circle.c ****       u8g2_DrawVLine(u8g2, x0+x, y0, y+1);
 458              		.loc 1 367 0
 459 0048 631C     		adds	r3, r4, #1
 460 004a E919     		adds	r1, r5, r7
 461 004c 9BB2     		uxth	r3, r3
 462 004e 3246     		mov	r2, r6
 463 0050 89B2     		uxth	r1, r1
 464 0052 4846     		mov	r0, r9
 465 0054 FFF7FEFF 		bl	u8g2_DrawVLine
ARM GAS  C:\Users\jesse\AppData\Local\Temp\ccXvBXW6.s 			page 16


 466              	.LVL39:
 467              	.L47:
 368:..\..\..\u8g2\u8g2\csrc/u8g2_circle.c ****     }
 369:..\..\..\u8g2\u8g2\csrc/u8g2_circle.c ****     
 370:..\..\..\u8g2\u8g2\csrc/u8g2_circle.c ****     /* lower left */
 371:..\..\..\u8g2\u8g2\csrc/u8g2_circle.c ****     if ( option & U8G2_DRAW_LOWER_LEFT )
 468              		.loc 1 371 0
 469 0058 18F0040F 		tst	r8, #4
 470 005c 09D0     		beq	.L44
 372:..\..\..\u8g2\u8g2\csrc/u8g2_circle.c ****     {
 373:..\..\..\u8g2\u8g2\csrc/u8g2_circle.c ****       u8g2_DrawVLine(u8g2, x0-x, y0, y+1);
 471              		.loc 1 373 0
 472 005e 631C     		adds	r3, r4, #1
 473 0060 E91B     		subs	r1, r5, r7
 474 0062 3246     		mov	r2, r6
 475 0064 4846     		mov	r0, r9
 374:..\..\..\u8g2\u8g2\csrc/u8g2_circle.c ****     }
 375:..\..\..\u8g2\u8g2\csrc/u8g2_circle.c **** }
 476              		.loc 1 375 0
 477 0066 BDE8F047 		pop	{r4, r5, r6, r7, r8, r9, r10, lr}
 478              		.cfi_remember_state
 479              		.cfi_restore 14
 480              		.cfi_restore 10
 481              		.cfi_restore 9
 482              		.cfi_restore 8
 483              		.cfi_restore 7
 484              		.cfi_restore 6
 485              		.cfi_restore 5
 486              		.cfi_restore 4
 487              		.cfi_def_cfa_offset 0
 488              	.LVL40:
 373:..\..\..\u8g2\u8g2\csrc/u8g2_circle.c ****     }
 489              		.loc 1 373 0
 490 006a 9BB2     		uxth	r3, r3
 491 006c 89B2     		uxth	r1, r1
 492 006e FFF7FEBF 		b	u8g2_DrawVLine
 493              	.LVL41:
 494              	.L44:
 495              		.cfi_restore_state
 496 0072 BDE8F087 		pop	{r4, r5, r6, r7, r8, r9, r10, pc}
 497              		.cfi_endproc
 498              	.LFE9:
 499              		.size	u8g2_draw_filled_ellipse_section, .-u8g2_draw_filled_ellipse_section
 500              		.section	.text.u8g2_DrawCircle,"ax",%progbits
 501              		.align	1
 502              		.global	u8g2_DrawCircle
 503              		.thumb
 504              		.thumb_func
 505              		.type	u8g2_DrawCircle, %function
 506              	u8g2_DrawCircle:
 507              	.LFB2:
 110:..\..\..\u8g2\u8g2\csrc/u8g2_circle.c ****   /* check for bounding box */
 508              		.loc 1 110 0
 509              		.cfi_startproc
 510              		@ args = 4, pretend = 0, frame = 0
 511              		@ frame_needed = 0, uses_anonymous_args = 0
 512              	.LVL42:
ARM GAS  C:\Users\jesse\AppData\Local\Temp\ccXvBXW6.s 			page 17


 513 0000 2DE9F74F 		push	{r0, r1, r2, r4, r5, r6, r7, r8, r9, r10, fp, lr}
 514              		.cfi_def_cfa_offset 48
 515              		.cfi_offset 4, -36
 516              		.cfi_offset 5, -32
 517              		.cfi_offset 6, -28
 518              		.cfi_offset 7, -24
 519              		.cfi_offset 8, -20
 520              		.cfi_offset 9, -16
 521              		.cfi_offset 10, -12
 522              		.cfi_offset 11, -8
 523              		.cfi_offset 14, -4
 110:..\..\..\u8g2\u8g2\csrc/u8g2_circle.c ****   /* check for bounding box */
 524              		.loc 1 110 0
 525 0004 9146     		mov	r9, r2
 526 0006 1C46     		mov	r4, r3
 114:..\..\..\u8g2\u8g2\csrc/u8g2_circle.c ****       return;
 527              		.loc 1 114 0
 528 0008 09F10105 		add	r5, r9, #1
 529 000c 0133     		adds	r3, r3, #1
 530              	.LVL43:
 531 000e 2544     		add	r5, r5, r4
 532 0010 0B44     		add	r3, r3, r1
 110:..\..\..\u8g2\u8g2\csrc/u8g2_circle.c ****   /* check for bounding box */
 533              		.loc 1 110 0
 534 0012 8846     		mov	r8, r1
 114:..\..\..\u8g2\u8g2\csrc/u8g2_circle.c ****       return;
 535              		.loc 1 114 0
 536 0014 121B     		subs	r2, r2, r4
 537              	.LVL44:
 538 0016 091B     		subs	r1, r1, r4
 539              	.LVL45:
 540 0018 ADB2     		uxth	r5, r5
 541 001a 0095     		str	r5, [sp]
 542 001c 9BB2     		uxth	r3, r3
 543 001e 92B2     		uxth	r2, r2
 544 0020 89B2     		uxth	r1, r1
 110:..\..\..\u8g2\u8g2\csrc/u8g2_circle.c ****   /* check for bounding box */
 545              		.loc 1 110 0
 546 0022 8246     		mov	r10, r0
 547 0024 9DF830B0 		ldrb	fp, [sp, #48]	@ zero_extendqisi2
 114:..\..\..\u8g2\u8g2\csrc/u8g2_circle.c ****       return;
 548              		.loc 1 114 0
 549 0028 FFF7FEFF 		bl	u8g2_IsIntersection
 550              	.LVL46:
 551 002c 40B3     		cbz	r0, .L58
 552              	.LVL47:
 553              	.LBB4:
 554              	.LBB5:
  91:..\..\..\u8g2\u8g2\csrc/u8g2_circle.c ****     
 555              		.loc 1 91 0
 556 002e 8DE8000A 		stmia	sp, {r9, fp}
 557 0032 4346     		mov	r3, r8
 558 0034 2246     		mov	r2, r4
 559 0036 0021     		movs	r1, #0
 560 0038 5046     		mov	r0, r10
 561 003a FFF7FEFF 		bl	u8g2_draw_circle_section
 562              	.LVL48:
ARM GAS  C:\Users\jesse\AppData\Local\Temp\ccXvBXW6.s 			page 18


  87:..\..\..\u8g2\u8g2\csrc/u8g2_circle.c ****     x = 0;
 563              		.loc 1 87 0
 564 003e 6742     		negs	r7, r4
  83:..\..\..\u8g2\u8g2\csrc/u8g2_circle.c ****     ddF_x = 1;
 565              		.loc 1 83 0
 566 0040 C4F10105 		rsb	r5, r4, #1
  87:..\..\..\u8g2\u8g2\csrc/u8g2_circle.c ****     x = 0;
 567              		.loc 1 87 0
 568 0044 7F00     		lsls	r7, r7, #1
  83:..\..\..\u8g2\u8g2\csrc/u8g2_circle.c ****     ddF_x = 1;
 569              		.loc 1 83 0
 570 0046 2DB2     		sxth	r5, r5
 571              	.LVL49:
  87:..\..\..\u8g2\u8g2\csrc/u8g2_circle.c ****     x = 0;
 572              		.loc 1 87 0
 573 0048 3FB2     		sxth	r7, r7
 574              	.LVL50:
  88:..\..\..\u8g2\u8g2\csrc/u8g2_circle.c ****     y = rad;
 575              		.loc 1 88 0
 576 004a 0026     		movs	r6, #0
 577              	.LVL51:
 578              	.L60:
  93:..\..\..\u8g2\u8g2\csrc/u8g2_circle.c ****     {
 579              		.loc 1 93 0
 580 004c B442     		cmp	r4, r6
 581 004e 17D9     		bls	.L58
  95:..\..\..\u8g2\u8g2\csrc/u8g2_circle.c ****       {
 582              		.loc 1 95 0
 583 0050 002D     		cmp	r5, #0
 584 0052 06DB     		blt	.L61
  98:..\..\..\u8g2\u8g2\csrc/u8g2_circle.c ****         f += ddF_y;
 585              		.loc 1 98 0
 586 0054 0237     		adds	r7, r7, #2
 587              	.LVL52:
 588 0056 BBB2     		uxth	r3, r7
  97:..\..\..\u8g2\u8g2\csrc/u8g2_circle.c ****         ddF_y += 2;
 589              		.loc 1 97 0
 590 0058 013C     		subs	r4, r4, #1
 591              	.LVL53:
  99:..\..\..\u8g2\u8g2\csrc/u8g2_circle.c ****       }
 592              		.loc 1 99 0
 593 005a 1D44     		add	r5, r5, r3
 594              	.LVL54:
  97:..\..\..\u8g2\u8g2\csrc/u8g2_circle.c ****         ddF_y += 2;
 595              		.loc 1 97 0
 596 005c A4B2     		uxth	r4, r4
 597              	.LVL55:
  98:..\..\..\u8g2\u8g2\csrc/u8g2_circle.c ****         f += ddF_y;
 598              		.loc 1 98 0
 599 005e 1FB2     		sxth	r7, r3
 600              	.LVL56:
  99:..\..\..\u8g2\u8g2\csrc/u8g2_circle.c ****       }
 601              		.loc 1 99 0
 602 0060 2DB2     		sxth	r5, r5
 603              	.LVL57:
 604              	.L61:
 101:..\..\..\u8g2\u8g2\csrc/u8g2_circle.c ****       ddF_x += 2;
ARM GAS  C:\Users\jesse\AppData\Local\Temp\ccXvBXW6.s 			page 19


 605              		.loc 1 101 0
 606 0062 0136     		adds	r6, r6, #1
 607              	.LVL58:
 608 0064 B6B2     		uxth	r6, r6
 609              	.LVL59:
 103:..\..\..\u8g2\u8g2\csrc/u8g2_circle.c **** 
 610              		.loc 1 103 0
 611 0066 05EB4605 		add	r5, r5, r6, lsl #1
 612              	.LVL60:
 613 006a 0135     		adds	r5, r5, #1
 105:..\..\..\u8g2\u8g2\csrc/u8g2_circle.c ****     }
 614              		.loc 1 105 0
 615 006c 8DE8000A 		stmia	sp, {r9, fp}
 616 0070 4346     		mov	r3, r8
 617 0072 2246     		mov	r2, r4
 618 0074 3146     		mov	r1, r6
 619 0076 5046     		mov	r0, r10
 103:..\..\..\u8g2\u8g2\csrc/u8g2_circle.c **** 
 620              		.loc 1 103 0
 621 0078 2DB2     		sxth	r5, r5
 622              	.LVL61:
 105:..\..\..\u8g2\u8g2\csrc/u8g2_circle.c ****     }
 623              		.loc 1 105 0
 624 007a FFF7FEFF 		bl	u8g2_draw_circle_section
 625              	.LVL62:
 626 007e E5E7     		b	.L60
 627              	.LVL63:
 628              	.L58:
 629              	.LBE5:
 630              	.LBE4:
 122:..\..\..\u8g2\u8g2\csrc/u8g2_circle.c **** 
 631              		.loc 1 122 0
 632 0080 03B0     		add	sp, sp, #12
 633              		.cfi_def_cfa_offset 36
 634              		@ sp needed
 635 0082 BDE8F08F 		pop	{r4, r5, r6, r7, r8, r9, r10, fp, pc}
 636              		.cfi_endproc
 637              	.LFE2:
 638              		.size	u8g2_DrawCircle, .-u8g2_DrawCircle
 639              		.section	.text.u8g2_DrawDisc,"ax",%progbits
 640              		.align	1
 641              		.global	u8g2_DrawDisc
 642              		.thumb
 643              		.thumb_func
 644              		.type	u8g2_DrawDisc, %function
 645              	u8g2_DrawDisc:
 646              	.LFB5:
 196:..\..\..\u8g2\u8g2\csrc/u8g2_circle.c ****   /* check for bounding box */
 647              		.loc 1 196 0
 648              		.cfi_startproc
 649              		@ args = 4, pretend = 0, frame = 0
 650              		@ frame_needed = 0, uses_anonymous_args = 0
 651              	.LVL64:
 652 0000 2DE9F74F 		push	{r0, r1, r2, r4, r5, r6, r7, r8, r9, r10, fp, lr}
 653              		.cfi_def_cfa_offset 48
 654              		.cfi_offset 4, -36
 655              		.cfi_offset 5, -32
ARM GAS  C:\Users\jesse\AppData\Local\Temp\ccXvBXW6.s 			page 20


 656              		.cfi_offset 6, -28
 657              		.cfi_offset 7, -24
 658              		.cfi_offset 8, -20
 659              		.cfi_offset 9, -16
 660              		.cfi_offset 10, -12
 661              		.cfi_offset 11, -8
 662              		.cfi_offset 14, -4
 196:..\..\..\u8g2\u8g2\csrc/u8g2_circle.c ****   /* check for bounding box */
 663              		.loc 1 196 0
 664 0004 9146     		mov	r9, r2
 665 0006 1C46     		mov	r4, r3
 200:..\..\..\u8g2\u8g2\csrc/u8g2_circle.c ****       return;
 666              		.loc 1 200 0
 667 0008 09F10105 		add	r5, r9, #1
 668 000c 0133     		adds	r3, r3, #1
 669              	.LVL65:
 670 000e 2544     		add	r5, r5, r4
 671 0010 0B44     		add	r3, r3, r1
 196:..\..\..\u8g2\u8g2\csrc/u8g2_circle.c ****   /* check for bounding box */
 672              		.loc 1 196 0
 673 0012 8846     		mov	r8, r1
 200:..\..\..\u8g2\u8g2\csrc/u8g2_circle.c ****       return;
 674              		.loc 1 200 0
 675 0014 121B     		subs	r2, r2, r4
 676              	.LVL66:
 677 0016 091B     		subs	r1, r1, r4
 678              	.LVL67:
 679 0018 ADB2     		uxth	r5, r5
 680 001a 0095     		str	r5, [sp]
 681 001c 9BB2     		uxth	r3, r3
 682 001e 92B2     		uxth	r2, r2
 683 0020 89B2     		uxth	r1, r1
 196:..\..\..\u8g2\u8g2\csrc/u8g2_circle.c ****   /* check for bounding box */
 684              		.loc 1 196 0
 685 0022 8246     		mov	r10, r0
 686 0024 9DF830B0 		ldrb	fp, [sp, #48]	@ zero_extendqisi2
 200:..\..\..\u8g2\u8g2\csrc/u8g2_circle.c ****       return;
 687              		.loc 1 200 0
 688 0028 FFF7FEFF 		bl	u8g2_IsIntersection
 689              	.LVL68:
 690 002c 40B3     		cbz	r0, .L64
 691              	.LVL69:
 692              	.LBB8:
 693              	.LBB9:
 177:..\..\..\u8g2\u8g2\csrc/u8g2_circle.c ****   
 694              		.loc 1 177 0
 695 002e 8DE8000A 		stmia	sp, {r9, fp}
 696 0032 4346     		mov	r3, r8
 697 0034 2246     		mov	r2, r4
 698 0036 0021     		movs	r1, #0
 699 0038 5046     		mov	r0, r10
 700 003a FFF7FEFF 		bl	u8g2_draw_disc_section
 701              	.LVL70:
 173:..\..\..\u8g2\u8g2\csrc/u8g2_circle.c ****   x = 0;
 702              		.loc 1 173 0
 703 003e 6742     		negs	r7, r4
 169:..\..\..\u8g2\u8g2\csrc/u8g2_circle.c ****   ddF_x = 1;
ARM GAS  C:\Users\jesse\AppData\Local\Temp\ccXvBXW6.s 			page 21


 704              		.loc 1 169 0
 705 0040 C4F10105 		rsb	r5, r4, #1
 173:..\..\..\u8g2\u8g2\csrc/u8g2_circle.c ****   x = 0;
 706              		.loc 1 173 0
 707 0044 7F00     		lsls	r7, r7, #1
 169:..\..\..\u8g2\u8g2\csrc/u8g2_circle.c ****   ddF_x = 1;
 708              		.loc 1 169 0
 709 0046 2DB2     		sxth	r5, r5
 710              	.LVL71:
 173:..\..\..\u8g2\u8g2\csrc/u8g2_circle.c ****   x = 0;
 711              		.loc 1 173 0
 712 0048 3FB2     		sxth	r7, r7
 713              	.LVL72:
 174:..\..\..\u8g2\u8g2\csrc/u8g2_circle.c ****   y = rad;
 714              		.loc 1 174 0
 715 004a 0026     		movs	r6, #0
 716              	.LVL73:
 717              	.L66:
 179:..\..\..\u8g2\u8g2\csrc/u8g2_circle.c ****   {
 718              		.loc 1 179 0
 719 004c B442     		cmp	r4, r6
 720 004e 17D9     		bls	.L64
 181:..\..\..\u8g2\u8g2\csrc/u8g2_circle.c ****     {
 721              		.loc 1 181 0
 722 0050 002D     		cmp	r5, #0
 723 0052 06DB     		blt	.L67
 184:..\..\..\u8g2\u8g2\csrc/u8g2_circle.c ****       f += ddF_y;
 724              		.loc 1 184 0
 725 0054 0237     		adds	r7, r7, #2
 726              	.LVL74:
 727 0056 BBB2     		uxth	r3, r7
 183:..\..\..\u8g2\u8g2\csrc/u8g2_circle.c ****       ddF_y += 2;
 728              		.loc 1 183 0
 729 0058 013C     		subs	r4, r4, #1
 730              	.LVL75:
 185:..\..\..\u8g2\u8g2\csrc/u8g2_circle.c ****     }
 731              		.loc 1 185 0
 732 005a 1D44     		add	r5, r5, r3
 733              	.LVL76:
 183:..\..\..\u8g2\u8g2\csrc/u8g2_circle.c ****       ddF_y += 2;
 734              		.loc 1 183 0
 735 005c A4B2     		uxth	r4, r4
 736              	.LVL77:
 184:..\..\..\u8g2\u8g2\csrc/u8g2_circle.c ****       f += ddF_y;
 737              		.loc 1 184 0
 738 005e 1FB2     		sxth	r7, r3
 739              	.LVL78:
 185:..\..\..\u8g2\u8g2\csrc/u8g2_circle.c ****     }
 740              		.loc 1 185 0
 741 0060 2DB2     		sxth	r5, r5
 742              	.LVL79:
 743              	.L67:
 187:..\..\..\u8g2\u8g2\csrc/u8g2_circle.c ****     ddF_x += 2;
 744              		.loc 1 187 0
 745 0062 0136     		adds	r6, r6, #1
 746              	.LVL80:
 747 0064 B6B2     		uxth	r6, r6
ARM GAS  C:\Users\jesse\AppData\Local\Temp\ccXvBXW6.s 			page 22


 748              	.LVL81:
 189:..\..\..\u8g2\u8g2\csrc/u8g2_circle.c **** 
 749              		.loc 1 189 0
 750 0066 05EB4605 		add	r5, r5, r6, lsl #1
 751              	.LVL82:
 752 006a 0135     		adds	r5, r5, #1
 191:..\..\..\u8g2\u8g2\csrc/u8g2_circle.c ****   }
 753              		.loc 1 191 0
 754 006c 8DE8000A 		stmia	sp, {r9, fp}
 755 0070 4346     		mov	r3, r8
 756 0072 2246     		mov	r2, r4
 757 0074 3146     		mov	r1, r6
 758 0076 5046     		mov	r0, r10
 189:..\..\..\u8g2\u8g2\csrc/u8g2_circle.c **** 
 759              		.loc 1 189 0
 760 0078 2DB2     		sxth	r5, r5
 761              	.LVL83:
 191:..\..\..\u8g2\u8g2\csrc/u8g2_circle.c ****   }
 762              		.loc 1 191 0
 763 007a FFF7FEFF 		bl	u8g2_draw_disc_section
 764              	.LVL84:
 765 007e E5E7     		b	.L66
 766              	.LVL85:
 767              	.L64:
 768              	.LBE9:
 769              	.LBE8:
 207:..\..\..\u8g2\u8g2\csrc/u8g2_circle.c **** 
 770              		.loc 1 207 0
 771 0080 03B0     		add	sp, sp, #12
 772              		.cfi_def_cfa_offset 36
 773              		@ sp needed
 774 0082 BDE8F08F 		pop	{r4, r5, r6, r7, r8, r9, r10, fp, pc}
 775              		.cfi_endproc
 776              	.LFE5:
 777              		.size	u8g2_DrawDisc, .-u8g2_DrawDisc
 778              		.section	.text.u8g2_DrawEllipse,"ax",%progbits
 779              		.align	1
 780              		.global	u8g2_DrawEllipse
 781              		.thumb
 782              		.thumb_func
 783              		.type	u8g2_DrawEllipse, %function
 784              	u8g2_DrawEllipse:
 785              	.LFB8:
 334:..\..\..\u8g2\u8g2\csrc/u8g2_circle.c ****   /* check for bounding box */
 786              		.loc 1 334 0
 787              		.cfi_startproc
 788              		@ args = 8, pretend = 0, frame = 40
 789              		@ frame_needed = 0, uses_anonymous_args = 0
 790              	.LVL86:
 791 0000 2DE9F04F 		push	{r4, r5, r6, r7, r8, r9, r10, fp, lr}
 792              		.cfi_def_cfa_offset 36
 793              		.cfi_offset 4, -36
 794              		.cfi_offset 5, -32
 795              		.cfi_offset 6, -28
 796              		.cfi_offset 7, -24
 797              		.cfi_offset 8, -20
 798              		.cfi_offset 9, -16
ARM GAS  C:\Users\jesse\AppData\Local\Temp\ccXvBXW6.s 			page 23


 799              		.cfi_offset 10, -12
 800              		.cfi_offset 11, -8
 801              		.cfi_offset 14, -4
 802 0004 1D46     		mov	r5, r3
 803 0006 8DB0     		sub	sp, sp, #52
 804              		.cfi_def_cfa_offset 88
 334:..\..\..\u8g2\u8g2\csrc/u8g2_circle.c ****   /* check for bounding box */
 805              		.loc 1 334 0
 806 0008 0592     		str	r2, [sp, #20]
 807 000a BDF85840 		ldrh	r4, [sp, #88]
 808 000e 9DF85C30 		ldrb	r3, [sp, #92]	@ zero_extendqisi2
 809              	.LVL87:
 338:..\..\..\u8g2\u8g2\csrc/u8g2_circle.c ****       return;
 810              		.loc 1 338 0
 811 0012 059F     		ldr	r7, [sp, #20]
 812 0014 059A     		ldr	r2, [sp, #20]
 813              	.LVL88:
 814 0016 661C     		adds	r6, r4, #1
 334:..\..\..\u8g2\u8g2\csrc/u8g2_circle.c ****   /* check for bounding box */
 815              		.loc 1 334 0
 816 0018 0A93     		str	r3, [sp, #40]
 338:..\..\..\u8g2\u8g2\csrc/u8g2_circle.c ****       return;
 817              		.loc 1 338 0
 818 001a 3E44     		add	r6, r6, r7
 819 001c 6B1C     		adds	r3, r5, #1
 820 001e 0B44     		add	r3, r3, r1
 334:..\..\..\u8g2\u8g2\csrc/u8g2_circle.c ****   /* check for bounding box */
 821              		.loc 1 334 0
 822 0020 0491     		str	r1, [sp, #16]
 338:..\..\..\u8g2\u8g2\csrc/u8g2_circle.c ****       return;
 823              		.loc 1 338 0
 824 0022 121B     		subs	r2, r2, r4
 825 0024 491B     		subs	r1, r1, r5
 826              	.LVL89:
 827 0026 B6B2     		uxth	r6, r6
 828 0028 0096     		str	r6, [sp]
 829 002a 9BB2     		uxth	r3, r3
 830 002c 92B2     		uxth	r2, r2
 831 002e 89B2     		uxth	r1, r1
 334:..\..\..\u8g2\u8g2\csrc/u8g2_circle.c ****   /* check for bounding box */
 832              		.loc 1 334 0
 833 0030 0990     		str	r0, [sp, #36]
 338:..\..\..\u8g2\u8g2\csrc/u8g2_circle.c ****       return;
 834              		.loc 1 338 0
 835 0032 FFF7FEFF 		bl	u8g2_IsIntersection
 836              	.LVL90:
 837 0036 0028     		cmp	r0, #0
 838 0038 5FD0     		beq	.L70
 839              	.LVL91:
 840              	.LBB12:
 841              	.LBB13:
 276:..\..\..\u8g2\u8g2\csrc/u8g2_circle.c ****   stopy = 0;
 842              		.loc 1 276 0
 843 003a 0026     		movs	r6, #0
 277:..\..\..\u8g2\u8g2\csrc/u8g2_circle.c ****   
 844              		.loc 1 277 0
 845 003c B046     		mov	r8, r6
ARM GAS  C:\Users\jesse\AppData\Local\Temp\ccXvBXW6.s 			page 24


 273:..\..\..\u8g2\u8g2\csrc/u8g2_circle.c ****   
 846              		.loc 1 273 0
 847 003e 3746     		mov	r7, r6
 254:..\..\..\u8g2\u8g2\csrc/u8g2_circle.c ****   rxrx2 *= 2;
 848              		.loc 1 254 0
 849 0040 05FB05F3 		mul	r3, r5, r5
 265:..\..\..\u8g2\u8g2\csrc/u8g2_circle.c ****   xchg -= rx;
 850              		.loc 1 265 0
 851 0044 C5F1010B 		rsb	fp, r5, #1
 254:..\..\..\u8g2\u8g2\csrc/u8g2_circle.c ****   rxrx2 *= 2;
 852              		.loc 1 254 0
 853 0048 0793     		str	r3, [sp, #28]
 255:..\..\..\u8g2\u8g2\csrc/u8g2_circle.c ****   
 854              		.loc 1 255 0
 855 004a 4FEA4309 		lsl	r9, r3, #1
 266:..\..\..\u8g2\u8g2\csrc/u8g2_circle.c ****   xchg *= ry;
 856              		.loc 1 266 0
 857 004e C5EB0B0B 		rsb	fp, r5, fp
 258:..\..\..\u8g2\u8g2\csrc/u8g2_circle.c ****   ryry2 *= 2;
 858              		.loc 1 258 0
 859 0052 04FB04F3 		mul	r3, r4, r4
 267:..\..\..\u8g2\u8g2\csrc/u8g2_circle.c ****   xchg *= ry;
 860              		.loc 1 267 0
 861 0056 0BFB04FB 		mul	fp, fp, r4
 258:..\..\..\u8g2\u8g2\csrc/u8g2_circle.c ****   ryry2 *= 2;
 862              		.loc 1 258 0
 863 005a 0893     		str	r3, [sp, #32]
 259:..\..\..\u8g2\u8g2\csrc/u8g2_circle.c ****   
 864              		.loc 1 259 0
 865 005c 5B00     		lsls	r3, r3, #1
 268:..\..\..\u8g2\u8g2\csrc/u8g2_circle.c ****   
 866              		.loc 1 268 0
 867 005e 0BFB04FB 		mul	fp, fp, r4
 276:..\..\..\u8g2\u8g2\csrc/u8g2_circle.c ****   stopy = 0;
 868              		.loc 1 276 0
 869 0062 03FB05FA 		mul	r10, r3, r5
 253:..\..\..\u8g2\u8g2\csrc/u8g2_circle.c ****   rxrx2 *= rx;
 870              		.loc 1 253 0
 871 0066 0695     		str	r5, [sp, #24]
 872              	.LVL92:
 259:..\..\..\u8g2\u8g2\csrc/u8g2_circle.c ****   
 873              		.loc 1 259 0
 874 0068 0393     		str	r3, [sp, #12]
 875              	.LVL93:
 876              	.L72:
 877 006a 079B     		ldr	r3, [sp, #28]
 279:..\..\..\u8g2\u8g2\csrc/u8g2_circle.c ****   {
 878              		.loc 1 279 0
 879 006c D045     		cmp	r8, r10
 880 006e 4344     		add	r3, r3, r8
 881 0070 0B93     		str	r3, [sp, #44]
 882 0072 B2B2     		uxth	r2, r6
 883              	.LVL94:
 884 0074 18DC     		bgt	.L79
 281:..\..\..\u8g2\u8g2\csrc/u8g2_circle.c ****     y++;
 885              		.loc 1 281 0
 886 0076 0A9B     		ldr	r3, [sp, #40]
ARM GAS  C:\Users\jesse\AppData\Local\Temp\ccXvBXW6.s 			page 25


 887              	.LVL95:
 888 0078 2946     		mov	r1, r5
 889 007a 0193     		str	r3, [sp, #4]
 890 007c 059B     		ldr	r3, [sp, #20]
 891 007e 0998     		ldr	r0, [sp, #36]
 892 0080 0093     		str	r3, [sp]
 893 0082 049B     		ldr	r3, [sp, #16]
 894 0084 FFF7FEFF 		bl	u8g2_draw_ellipse_section
 895              	.LVL96:
 284:..\..\..\u8g2\u8g2\csrc/u8g2_circle.c ****     ychg += rxrx2;
 896              		.loc 1 284 0
 897 0088 0B9B     		ldr	r3, [sp, #44]
 283:..\..\..\u8g2\u8g2\csrc/u8g2_circle.c ****     err += ychg;
 898              		.loc 1 283 0
 899 008a C844     		add	r8, r8, r9
 900              	.LVL97:
 284:..\..\..\u8g2\u8g2\csrc/u8g2_circle.c ****     ychg += rxrx2;
 901              		.loc 1 284 0
 902 008c 1F44     		add	r7, r7, r3
 903              	.LVL98:
 286:..\..\..\u8g2\u8g2\csrc/u8g2_circle.c ****     {
 904              		.loc 1 286 0
 905 008e 0BEB4703 		add	r3, fp, r7, lsl #1
 906 0092 002B     		cmp	r3, #0
 907 0094 06DD     		ble	.L73
 289:..\..\..\u8g2\u8g2\csrc/u8g2_circle.c ****       err += xchg;
 908              		.loc 1 289 0
 909 0096 039A     		ldr	r2, [sp, #12]
 288:..\..\..\u8g2\u8g2\csrc/u8g2_circle.c ****       stopx -= ryry2;
 910              		.loc 1 288 0
 911 0098 013D     		subs	r5, r5, #1
 912              	.LVL99:
 913 009a ADB2     		uxth	r5, r5
 914              	.LVL100:
 289:..\..\..\u8g2\u8g2\csrc/u8g2_circle.c ****       err += xchg;
 915              		.loc 1 289 0
 916 009c C2EB0A0A 		rsb	r10, r2, r10
 917              	.LVL101:
 290:..\..\..\u8g2\u8g2\csrc/u8g2_circle.c ****       xchg += ryry2;      
 918              		.loc 1 290 0
 919 00a0 DF1B     		subs	r7, r3, r7
 920              	.LVL102:
 291:..\..\..\u8g2\u8g2\csrc/u8g2_circle.c ****     }
 921              		.loc 1 291 0
 922 00a2 9344     		add	fp, fp, r2
 923              	.LVL103:
 924              	.L73:
 925 00a4 0136     		adds	r6, r6, #1
 926              	.LVL104:
 927 00a6 E0E7     		b	.L72
 928              	.LVL105:
 929              	.L79:
 312:..\..\..\u8g2\u8g2\csrc/u8g2_circle.c ****   
 930              		.loc 1 312 0
 931 00a8 0026     		movs	r6, #0
 309:..\..\..\u8g2\u8g2\csrc/u8g2_circle.c **** 
 932              		.loc 1 309 0
ARM GAS  C:\Users\jesse\AppData\Local\Temp\ccXvBXW6.s 			page 26


 933 00aa B046     		mov	r8, r6
 934              	.LVL106:
 307:..\..\..\u8g2\u8g2\csrc/u8g2_circle.c ****   
 935              		.loc 1 307 0
 936 00ac 3746     		mov	r7, r6
 937              	.LVL107:
 304:..\..\..\u8g2\u8g2\csrc/u8g2_circle.c ****   ychg *= rx;
 938              		.loc 1 304 0
 939 00ae 069B     		ldr	r3, [sp, #24]
 302:..\..\..\u8g2\u8g2\csrc/u8g2_circle.c ****   ychg -= ry;
 940              		.loc 1 302 0
 941 00b0 C4F10105 		rsb	r5, r4, #1
 942              	.LVL108:
 303:..\..\..\u8g2\u8g2\csrc/u8g2_circle.c ****   ychg *= rx;
 943              		.loc 1 303 0
 944 00b4 2D1B     		subs	r5, r5, r4
 945              	.LVL109:
 304:..\..\..\u8g2\u8g2\csrc/u8g2_circle.c ****   ychg *= rx;
 946              		.loc 1 304 0
 947 00b6 5D43     		muls	r5, r3, r5
 948              	.LVL110:
 312:..\..\..\u8g2\u8g2\csrc/u8g2_circle.c ****   
 949              		.loc 1 312 0
 950 00b8 04FB09FA 		mul	r10, r4, r9
 951              	.LVL111:
 305:..\..\..\u8g2\u8g2\csrc/u8g2_circle.c ****   
 952              		.loc 1 305 0
 953 00bc 5D43     		muls	r5, r3, r5
 954              	.LVL112:
 955              	.L75:
 956 00be 089B     		ldr	r3, [sp, #32]
 315:..\..\..\u8g2\u8g2\csrc/u8g2_circle.c ****   {
 957              		.loc 1 315 0
 958 00c0 D045     		cmp	r8, r10
 959 00c2 08EB030B 		add	fp, r8, r3
 960 00c6 B1B2     		uxth	r1, r6
 961              	.LVL113:
 962 00c8 17DC     		bgt	.L70
 317:..\..\..\u8g2\u8g2\csrc/u8g2_circle.c ****     x++;
 963              		.loc 1 317 0
 964 00ca 0A9B     		ldr	r3, [sp, #40]
 965 00cc 2246     		mov	r2, r4
 966 00ce 0193     		str	r3, [sp, #4]
 967 00d0 059B     		ldr	r3, [sp, #20]
 968 00d2 0998     		ldr	r0, [sp, #36]
 969 00d4 0093     		str	r3, [sp]
 970 00d6 049B     		ldr	r3, [sp, #16]
 971 00d8 FFF7FEFF 		bl	u8g2_draw_ellipse_section
 972              	.LVL114:
 319:..\..\..\u8g2\u8g2\csrc/u8g2_circle.c ****     err += xchg;
 973              		.loc 1 319 0
 974 00dc 039B     		ldr	r3, [sp, #12]
 320:..\..\..\u8g2\u8g2\csrc/u8g2_circle.c ****     xchg += ryry2;
 975              		.loc 1 320 0
 976 00de 5F44     		add	r7, r7, fp
 977              	.LVL115:
 319:..\..\..\u8g2\u8g2\csrc/u8g2_circle.c ****     err += xchg;
ARM GAS  C:\Users\jesse\AppData\Local\Temp\ccXvBXW6.s 			page 27


 978              		.loc 1 319 0
 979 00e0 9844     		add	r8, r8, r3
 980              	.LVL116:
 322:..\..\..\u8g2\u8g2\csrc/u8g2_circle.c ****     {
 981              		.loc 1 322 0
 982 00e2 05EB4703 		add	r3, r5, r7, lsl #1
 983 00e6 002B     		cmp	r3, #0
 984 00e8 05DD     		ble	.L76
 324:..\..\..\u8g2\u8g2\csrc/u8g2_circle.c ****       stopy -= rxrx2;
 985              		.loc 1 324 0
 986 00ea 013C     		subs	r4, r4, #1
 987              	.LVL117:
 988 00ec A4B2     		uxth	r4, r4
 989              	.LVL118:
 325:..\..\..\u8g2\u8g2\csrc/u8g2_circle.c ****       err += ychg;
 990              		.loc 1 325 0
 991 00ee C9EB0A0A 		rsb	r10, r9, r10
 992              	.LVL119:
 326:..\..\..\u8g2\u8g2\csrc/u8g2_circle.c ****       ychg += rxrx2;
 993              		.loc 1 326 0
 994 00f2 DF1B     		subs	r7, r3, r7
 995              	.LVL120:
 327:..\..\..\u8g2\u8g2\csrc/u8g2_circle.c ****     }
 996              		.loc 1 327 0
 997 00f4 4D44     		add	r5, r5, r9
 998              	.LVL121:
 999              	.L76:
 1000 00f6 0136     		adds	r6, r6, #1
 1001              	.LVL122:
 1002 00f8 E1E7     		b	.L75
 1003              	.LVL123:
 1004              	.L70:
 1005              	.LBE13:
 1006              	.LBE12:
 344:..\..\..\u8g2\u8g2\csrc/u8g2_circle.c **** 
 1007              		.loc 1 344 0
 1008 00fa 0DB0     		add	sp, sp, #52
 1009              		.cfi_def_cfa_offset 36
 1010              		@ sp needed
 1011 00fc BDE8F08F 		pop	{r4, r5, r6, r7, r8, r9, r10, fp, pc}
 1012              		.cfi_endproc
 1013              	.LFE8:
 1014              		.size	u8g2_DrawEllipse, .-u8g2_DrawEllipse
 1015              		.section	.text.u8g2_DrawFilledEllipse,"ax",%progbits
 1016              		.align	1
 1017              		.global	u8g2_DrawFilledEllipse
 1018              		.thumb
 1019              		.thumb_func
 1020              		.type	u8g2_DrawFilledEllipse, %function
 1021              	u8g2_DrawFilledEllipse:
 1022              	.LFB11:
 376:..\..\..\u8g2\u8g2\csrc/u8g2_circle.c **** 
 377:..\..\..\u8g2\u8g2\csrc/u8g2_circle.c **** static void u8g2_draw_filled_ellipse(u8g2_t *u8g2, u8g2_uint_t x0, u8g2_uint_t y0, u8g2_uint_t rx, 
 378:..\..\..\u8g2\u8g2\csrc/u8g2_circle.c **** {
 379:..\..\..\u8g2\u8g2\csrc/u8g2_circle.c ****   u8g2_uint_t x, y;
 380:..\..\..\u8g2\u8g2\csrc/u8g2_circle.c ****   u8g2_long_t xchg, ychg;
 381:..\..\..\u8g2\u8g2\csrc/u8g2_circle.c ****   u8g2_long_t err;
ARM GAS  C:\Users\jesse\AppData\Local\Temp\ccXvBXW6.s 			page 28


 382:..\..\..\u8g2\u8g2\csrc/u8g2_circle.c ****   u8g2_long_t rxrx2;
 383:..\..\..\u8g2\u8g2\csrc/u8g2_circle.c ****   u8g2_long_t ryry2;
 384:..\..\..\u8g2\u8g2\csrc/u8g2_circle.c ****   u8g2_long_t stopx, stopy;
 385:..\..\..\u8g2\u8g2\csrc/u8g2_circle.c ****   
 386:..\..\..\u8g2\u8g2\csrc/u8g2_circle.c ****   rxrx2 = rx;
 387:..\..\..\u8g2\u8g2\csrc/u8g2_circle.c ****   rxrx2 *= rx;
 388:..\..\..\u8g2\u8g2\csrc/u8g2_circle.c ****   rxrx2 *= 2;
 389:..\..\..\u8g2\u8g2\csrc/u8g2_circle.c ****   
 390:..\..\..\u8g2\u8g2\csrc/u8g2_circle.c ****   ryry2 = ry;
 391:..\..\..\u8g2\u8g2\csrc/u8g2_circle.c ****   ryry2 *= ry;
 392:..\..\..\u8g2\u8g2\csrc/u8g2_circle.c ****   ryry2 *= 2;
 393:..\..\..\u8g2\u8g2\csrc/u8g2_circle.c ****   
 394:..\..\..\u8g2\u8g2\csrc/u8g2_circle.c ****   x = rx;
 395:..\..\..\u8g2\u8g2\csrc/u8g2_circle.c ****   y = 0;
 396:..\..\..\u8g2\u8g2\csrc/u8g2_circle.c ****   
 397:..\..\..\u8g2\u8g2\csrc/u8g2_circle.c ****   xchg = 1;
 398:..\..\..\u8g2\u8g2\csrc/u8g2_circle.c ****   xchg -= rx;
 399:..\..\..\u8g2\u8g2\csrc/u8g2_circle.c ****   xchg -= rx;
 400:..\..\..\u8g2\u8g2\csrc/u8g2_circle.c ****   xchg *= ry;
 401:..\..\..\u8g2\u8g2\csrc/u8g2_circle.c ****   xchg *= ry;
 402:..\..\..\u8g2\u8g2\csrc/u8g2_circle.c ****   
 403:..\..\..\u8g2\u8g2\csrc/u8g2_circle.c ****   ychg = rx;
 404:..\..\..\u8g2\u8g2\csrc/u8g2_circle.c ****   ychg *= rx;
 405:..\..\..\u8g2\u8g2\csrc/u8g2_circle.c ****   
 406:..\..\..\u8g2\u8g2\csrc/u8g2_circle.c ****   err = 0;
 407:..\..\..\u8g2\u8g2\csrc/u8g2_circle.c ****   
 408:..\..\..\u8g2\u8g2\csrc/u8g2_circle.c ****   stopx = ryry2;
 409:..\..\..\u8g2\u8g2\csrc/u8g2_circle.c ****   stopx *= rx;
 410:..\..\..\u8g2\u8g2\csrc/u8g2_circle.c ****   stopy = 0;
 411:..\..\..\u8g2\u8g2\csrc/u8g2_circle.c ****   
 412:..\..\..\u8g2\u8g2\csrc/u8g2_circle.c ****   while( stopx >= stopy )
 413:..\..\..\u8g2\u8g2\csrc/u8g2_circle.c ****   {
 414:..\..\..\u8g2\u8g2\csrc/u8g2_circle.c ****     u8g2_draw_filled_ellipse_section(u8g2, x, y, x0, y0, option);
 415:..\..\..\u8g2\u8g2\csrc/u8g2_circle.c ****     y++;
 416:..\..\..\u8g2\u8g2\csrc/u8g2_circle.c ****     stopy += rxrx2;
 417:..\..\..\u8g2\u8g2\csrc/u8g2_circle.c ****     err += ychg;
 418:..\..\..\u8g2\u8g2\csrc/u8g2_circle.c ****     ychg += rxrx2;
 419:..\..\..\u8g2\u8g2\csrc/u8g2_circle.c ****     if ( 2*err+xchg > 0 )
 420:..\..\..\u8g2\u8g2\csrc/u8g2_circle.c ****     {
 421:..\..\..\u8g2\u8g2\csrc/u8g2_circle.c ****       x--;
 422:..\..\..\u8g2\u8g2\csrc/u8g2_circle.c ****       stopx -= ryry2;
 423:..\..\..\u8g2\u8g2\csrc/u8g2_circle.c ****       err += xchg;
 424:..\..\..\u8g2\u8g2\csrc/u8g2_circle.c ****       xchg += ryry2;      
 425:..\..\..\u8g2\u8g2\csrc/u8g2_circle.c ****     }
 426:..\..\..\u8g2\u8g2\csrc/u8g2_circle.c ****   }
 427:..\..\..\u8g2\u8g2\csrc/u8g2_circle.c **** 
 428:..\..\..\u8g2\u8g2\csrc/u8g2_circle.c ****   x = 0;
 429:..\..\..\u8g2\u8g2\csrc/u8g2_circle.c ****   y = ry;
 430:..\..\..\u8g2\u8g2\csrc/u8g2_circle.c ****   
 431:..\..\..\u8g2\u8g2\csrc/u8g2_circle.c ****   xchg = ry;
 432:..\..\..\u8g2\u8g2\csrc/u8g2_circle.c ****   xchg *= ry;
 433:..\..\..\u8g2\u8g2\csrc/u8g2_circle.c ****   
 434:..\..\..\u8g2\u8g2\csrc/u8g2_circle.c ****   ychg = 1;
 435:..\..\..\u8g2\u8g2\csrc/u8g2_circle.c ****   ychg -= ry;
 436:..\..\..\u8g2\u8g2\csrc/u8g2_circle.c ****   ychg -= ry;
 437:..\..\..\u8g2\u8g2\csrc/u8g2_circle.c ****   ychg *= rx;
 438:..\..\..\u8g2\u8g2\csrc/u8g2_circle.c ****   ychg *= rx;
ARM GAS  C:\Users\jesse\AppData\Local\Temp\ccXvBXW6.s 			page 29


 439:..\..\..\u8g2\u8g2\csrc/u8g2_circle.c ****   
 440:..\..\..\u8g2\u8g2\csrc/u8g2_circle.c ****   err = 0;
 441:..\..\..\u8g2\u8g2\csrc/u8g2_circle.c ****   
 442:..\..\..\u8g2\u8g2\csrc/u8g2_circle.c ****   stopx = 0;
 443:..\..\..\u8g2\u8g2\csrc/u8g2_circle.c **** 
 444:..\..\..\u8g2\u8g2\csrc/u8g2_circle.c ****   stopy = rxrx2;
 445:..\..\..\u8g2\u8g2\csrc/u8g2_circle.c ****   stopy *= ry;
 446:..\..\..\u8g2\u8g2\csrc/u8g2_circle.c ****   
 447:..\..\..\u8g2\u8g2\csrc/u8g2_circle.c **** 
 448:..\..\..\u8g2\u8g2\csrc/u8g2_circle.c ****   while( stopx <= stopy )
 449:..\..\..\u8g2\u8g2\csrc/u8g2_circle.c ****   {
 450:..\..\..\u8g2\u8g2\csrc/u8g2_circle.c ****     u8g2_draw_filled_ellipse_section(u8g2, x, y, x0, y0, option);
 451:..\..\..\u8g2\u8g2\csrc/u8g2_circle.c ****     x++;
 452:..\..\..\u8g2\u8g2\csrc/u8g2_circle.c ****     stopx += ryry2;
 453:..\..\..\u8g2\u8g2\csrc/u8g2_circle.c ****     err += xchg;
 454:..\..\..\u8g2\u8g2\csrc/u8g2_circle.c ****     xchg += ryry2;
 455:..\..\..\u8g2\u8g2\csrc/u8g2_circle.c ****     if ( 2*err+ychg > 0 )
 456:..\..\..\u8g2\u8g2\csrc/u8g2_circle.c ****     {
 457:..\..\..\u8g2\u8g2\csrc/u8g2_circle.c ****       y--;
 458:..\..\..\u8g2\u8g2\csrc/u8g2_circle.c ****       stopy -= rxrx2;
 459:..\..\..\u8g2\u8g2\csrc/u8g2_circle.c ****       err += ychg;
 460:..\..\..\u8g2\u8g2\csrc/u8g2_circle.c ****       ychg += rxrx2;
 461:..\..\..\u8g2\u8g2\csrc/u8g2_circle.c ****     }
 462:..\..\..\u8g2\u8g2\csrc/u8g2_circle.c ****   }
 463:..\..\..\u8g2\u8g2\csrc/u8g2_circle.c ****   
 464:..\..\..\u8g2\u8g2\csrc/u8g2_circle.c **** }
 465:..\..\..\u8g2\u8g2\csrc/u8g2_circle.c **** 
 466:..\..\..\u8g2\u8g2\csrc/u8g2_circle.c **** void u8g2_DrawFilledEllipse(u8g2_t *u8g2, u8g2_uint_t x0, u8g2_uint_t y0, u8g2_uint_t rx, u8g2_uint
 467:..\..\..\u8g2\u8g2\csrc/u8g2_circle.c **** {
 1023              		.loc 1 467 0
 1024              		.cfi_startproc
 1025              		@ args = 8, pretend = 0, frame = 40
 1026              		@ frame_needed = 0, uses_anonymous_args = 0
 1027              	.LVL124:
 1028 0000 2DE9F04F 		push	{r4, r5, r6, r7, r8, r9, r10, fp, lr}
 1029              		.cfi_def_cfa_offset 36
 1030              		.cfi_offset 4, -36
 1031              		.cfi_offset 5, -32
 1032              		.cfi_offset 6, -28
 1033              		.cfi_offset 7, -24
 1034              		.cfi_offset 8, -20
 1035              		.cfi_offset 9, -16
 1036              		.cfi_offset 10, -12
 1037              		.cfi_offset 11, -8
 1038              		.cfi_offset 14, -4
 1039 0004 1D46     		mov	r5, r3
 1040 0006 8DB0     		sub	sp, sp, #52
 1041              		.cfi_def_cfa_offset 88
 1042              		.loc 1 467 0
 1043 0008 0592     		str	r2, [sp, #20]
 1044 000a BDF85840 		ldrh	r4, [sp, #88]
 1045 000e 9DF85C30 		ldrb	r3, [sp, #92]	@ zero_extendqisi2
 1046              	.LVL125:
 468:..\..\..\u8g2\u8g2\csrc/u8g2_circle.c ****   /* check for bounding box */
 469:..\..\..\u8g2\u8g2\csrc/u8g2_circle.c **** #ifdef U8G2_WITH_INTERSECTION
 470:..\..\..\u8g2\u8g2\csrc/u8g2_circle.c ****   {
 471:..\..\..\u8g2\u8g2\csrc/u8g2_circle.c ****     if ( u8g2_IsIntersection(u8g2, x0-rx, y0-ry, x0+rx+1, y0+ry+1) == 0 ) 
ARM GAS  C:\Users\jesse\AppData\Local\Temp\ccXvBXW6.s 			page 30


 1047              		.loc 1 471 0
 1048 0012 059F     		ldr	r7, [sp, #20]
 1049 0014 059A     		ldr	r2, [sp, #20]
 1050              	.LVL126:
 1051 0016 661C     		adds	r6, r4, #1
 467:..\..\..\u8g2\u8g2\csrc/u8g2_circle.c ****   /* check for bounding box */
 1052              		.loc 1 467 0
 1053 0018 0A93     		str	r3, [sp, #40]
 1054              		.loc 1 471 0
 1055 001a 3E44     		add	r6, r6, r7
 1056 001c 6B1C     		adds	r3, r5, #1
 1057 001e 0B44     		add	r3, r3, r1
 467:..\..\..\u8g2\u8g2\csrc/u8g2_circle.c ****   /* check for bounding box */
 1058              		.loc 1 467 0
 1059 0020 0491     		str	r1, [sp, #16]
 1060              		.loc 1 471 0
 1061 0022 121B     		subs	r2, r2, r4
 1062 0024 491B     		subs	r1, r1, r5
 1063              	.LVL127:
 1064 0026 B6B2     		uxth	r6, r6
 1065 0028 0096     		str	r6, [sp]
 1066 002a 9BB2     		uxth	r3, r3
 1067 002c 92B2     		uxth	r2, r2
 1068 002e 89B2     		uxth	r1, r1
 467:..\..\..\u8g2\u8g2\csrc/u8g2_circle.c ****   /* check for bounding box */
 1069              		.loc 1 467 0
 1070 0030 0990     		str	r0, [sp, #36]
 1071              		.loc 1 471 0
 1072 0032 FFF7FEFF 		bl	u8g2_IsIntersection
 1073              	.LVL128:
 1074 0036 0028     		cmp	r0, #0
 1075 0038 5FD0     		beq	.L80
 1076              	.LVL129:
 1077              	.LBB16:
 1078              	.LBB17:
 409:..\..\..\u8g2\u8g2\csrc/u8g2_circle.c ****   stopy = 0;
 1079              		.loc 1 409 0
 1080 003a 0026     		movs	r6, #0
 410:..\..\..\u8g2\u8g2\csrc/u8g2_circle.c ****   
 1081              		.loc 1 410 0
 1082 003c B046     		mov	r8, r6
 406:..\..\..\u8g2\u8g2\csrc/u8g2_circle.c ****   
 1083              		.loc 1 406 0
 1084 003e 3746     		mov	r7, r6
 387:..\..\..\u8g2\u8g2\csrc/u8g2_circle.c ****   rxrx2 *= 2;
 1085              		.loc 1 387 0
 1086 0040 05FB05F3 		mul	r3, r5, r5
 398:..\..\..\u8g2\u8g2\csrc/u8g2_circle.c ****   xchg -= rx;
 1087              		.loc 1 398 0
 1088 0044 C5F1010B 		rsb	fp, r5, #1
 387:..\..\..\u8g2\u8g2\csrc/u8g2_circle.c ****   rxrx2 *= 2;
 1089              		.loc 1 387 0
 1090 0048 0793     		str	r3, [sp, #28]
 388:..\..\..\u8g2\u8g2\csrc/u8g2_circle.c ****   
 1091              		.loc 1 388 0
 1092 004a 4FEA4309 		lsl	r9, r3, #1
 399:..\..\..\u8g2\u8g2\csrc/u8g2_circle.c ****   xchg *= ry;
ARM GAS  C:\Users\jesse\AppData\Local\Temp\ccXvBXW6.s 			page 31


 1093              		.loc 1 399 0
 1094 004e C5EB0B0B 		rsb	fp, r5, fp
 391:..\..\..\u8g2\u8g2\csrc/u8g2_circle.c ****   ryry2 *= 2;
 1095              		.loc 1 391 0
 1096 0052 04FB04F3 		mul	r3, r4, r4
 400:..\..\..\u8g2\u8g2\csrc/u8g2_circle.c ****   xchg *= ry;
 1097              		.loc 1 400 0
 1098 0056 0BFB04FB 		mul	fp, fp, r4
 391:..\..\..\u8g2\u8g2\csrc/u8g2_circle.c ****   ryry2 *= 2;
 1099              		.loc 1 391 0
 1100 005a 0893     		str	r3, [sp, #32]
 392:..\..\..\u8g2\u8g2\csrc/u8g2_circle.c ****   
 1101              		.loc 1 392 0
 1102 005c 5B00     		lsls	r3, r3, #1
 401:..\..\..\u8g2\u8g2\csrc/u8g2_circle.c ****   
 1103              		.loc 1 401 0
 1104 005e 0BFB04FB 		mul	fp, fp, r4
 409:..\..\..\u8g2\u8g2\csrc/u8g2_circle.c ****   stopy = 0;
 1105              		.loc 1 409 0
 1106 0062 03FB05FA 		mul	r10, r3, r5
 386:..\..\..\u8g2\u8g2\csrc/u8g2_circle.c ****   rxrx2 *= rx;
 1107              		.loc 1 386 0
 1108 0066 0695     		str	r5, [sp, #24]
 1109              	.LVL130:
 392:..\..\..\u8g2\u8g2\csrc/u8g2_circle.c ****   
 1110              		.loc 1 392 0
 1111 0068 0393     		str	r3, [sp, #12]
 1112              	.LVL131:
 1113              	.L82:
 1114 006a 079B     		ldr	r3, [sp, #28]
 412:..\..\..\u8g2\u8g2\csrc/u8g2_circle.c ****   {
 1115              		.loc 1 412 0
 1116 006c D045     		cmp	r8, r10
 1117 006e 4344     		add	r3, r3, r8
 1118 0070 0B93     		str	r3, [sp, #44]
 1119 0072 B2B2     		uxth	r2, r6
 1120              	.LVL132:
 1121 0074 18DC     		bgt	.L89
 414:..\..\..\u8g2\u8g2\csrc/u8g2_circle.c ****     y++;
 1122              		.loc 1 414 0
 1123 0076 0A9B     		ldr	r3, [sp, #40]
 1124              	.LVL133:
 1125 0078 2946     		mov	r1, r5
 1126 007a 0193     		str	r3, [sp, #4]
 1127 007c 059B     		ldr	r3, [sp, #20]
 1128 007e 0998     		ldr	r0, [sp, #36]
 1129 0080 0093     		str	r3, [sp]
 1130 0082 049B     		ldr	r3, [sp, #16]
 1131 0084 FFF7FEFF 		bl	u8g2_draw_filled_ellipse_section
 1132              	.LVL134:
 417:..\..\..\u8g2\u8g2\csrc/u8g2_circle.c ****     ychg += rxrx2;
 1133              		.loc 1 417 0
 1134 0088 0B9B     		ldr	r3, [sp, #44]
 416:..\..\..\u8g2\u8g2\csrc/u8g2_circle.c ****     err += ychg;
 1135              		.loc 1 416 0
 1136 008a C844     		add	r8, r8, r9
 1137              	.LVL135:
ARM GAS  C:\Users\jesse\AppData\Local\Temp\ccXvBXW6.s 			page 32


 417:..\..\..\u8g2\u8g2\csrc/u8g2_circle.c ****     ychg += rxrx2;
 1138              		.loc 1 417 0
 1139 008c 1F44     		add	r7, r7, r3
 1140              	.LVL136:
 419:..\..\..\u8g2\u8g2\csrc/u8g2_circle.c ****     {
 1141              		.loc 1 419 0
 1142 008e 0BEB4703 		add	r3, fp, r7, lsl #1
 1143 0092 002B     		cmp	r3, #0
 1144 0094 06DD     		ble	.L83
 422:..\..\..\u8g2\u8g2\csrc/u8g2_circle.c ****       err += xchg;
 1145              		.loc 1 422 0
 1146 0096 039A     		ldr	r2, [sp, #12]
 421:..\..\..\u8g2\u8g2\csrc/u8g2_circle.c ****       stopx -= ryry2;
 1147              		.loc 1 421 0
 1148 0098 013D     		subs	r5, r5, #1
 1149              	.LVL137:
 1150 009a ADB2     		uxth	r5, r5
 1151              	.LVL138:
 422:..\..\..\u8g2\u8g2\csrc/u8g2_circle.c ****       err += xchg;
 1152              		.loc 1 422 0
 1153 009c C2EB0A0A 		rsb	r10, r2, r10
 1154              	.LVL139:
 423:..\..\..\u8g2\u8g2\csrc/u8g2_circle.c ****       xchg += ryry2;      
 1155              		.loc 1 423 0
 1156 00a0 DF1B     		subs	r7, r3, r7
 1157              	.LVL140:
 424:..\..\..\u8g2\u8g2\csrc/u8g2_circle.c ****     }
 1158              		.loc 1 424 0
 1159 00a2 9344     		add	fp, fp, r2
 1160              	.LVL141:
 1161              	.L83:
 1162 00a4 0136     		adds	r6, r6, #1
 1163              	.LVL142:
 1164 00a6 E0E7     		b	.L82
 1165              	.LVL143:
 1166              	.L89:
 445:..\..\..\u8g2\u8g2\csrc/u8g2_circle.c ****   
 1167              		.loc 1 445 0
 1168 00a8 0026     		movs	r6, #0
 442:..\..\..\u8g2\u8g2\csrc/u8g2_circle.c **** 
 1169              		.loc 1 442 0
 1170 00aa B046     		mov	r8, r6
 1171              	.LVL144:
 440:..\..\..\u8g2\u8g2\csrc/u8g2_circle.c ****   
 1172              		.loc 1 440 0
 1173 00ac 3746     		mov	r7, r6
 1174              	.LVL145:
 437:..\..\..\u8g2\u8g2\csrc/u8g2_circle.c ****   ychg *= rx;
 1175              		.loc 1 437 0
 1176 00ae 069B     		ldr	r3, [sp, #24]
 435:..\..\..\u8g2\u8g2\csrc/u8g2_circle.c ****   ychg -= ry;
 1177              		.loc 1 435 0
 1178 00b0 C4F10105 		rsb	r5, r4, #1
 1179              	.LVL146:
 436:..\..\..\u8g2\u8g2\csrc/u8g2_circle.c ****   ychg *= rx;
 1180              		.loc 1 436 0
 1181 00b4 2D1B     		subs	r5, r5, r4
ARM GAS  C:\Users\jesse\AppData\Local\Temp\ccXvBXW6.s 			page 33


 1182              	.LVL147:
 437:..\..\..\u8g2\u8g2\csrc/u8g2_circle.c ****   ychg *= rx;
 1183              		.loc 1 437 0
 1184 00b6 5D43     		muls	r5, r3, r5
 1185              	.LVL148:
 445:..\..\..\u8g2\u8g2\csrc/u8g2_circle.c ****   
 1186              		.loc 1 445 0
 1187 00b8 04FB09FA 		mul	r10, r4, r9
 1188              	.LVL149:
 438:..\..\..\u8g2\u8g2\csrc/u8g2_circle.c ****   
 1189              		.loc 1 438 0
 1190 00bc 5D43     		muls	r5, r3, r5
 1191              	.LVL150:
 1192              	.L85:
 1193 00be 089B     		ldr	r3, [sp, #32]
 448:..\..\..\u8g2\u8g2\csrc/u8g2_circle.c ****   {
 1194              		.loc 1 448 0
 1195 00c0 D045     		cmp	r8, r10
 1196 00c2 08EB030B 		add	fp, r8, r3
 1197 00c6 B1B2     		uxth	r1, r6
 1198              	.LVL151:
 1199 00c8 17DC     		bgt	.L80
 450:..\..\..\u8g2\u8g2\csrc/u8g2_circle.c ****     x++;
 1200              		.loc 1 450 0
 1201 00ca 0A9B     		ldr	r3, [sp, #40]
 1202 00cc 2246     		mov	r2, r4
 1203 00ce 0193     		str	r3, [sp, #4]
 1204 00d0 059B     		ldr	r3, [sp, #20]
 1205 00d2 0998     		ldr	r0, [sp, #36]
 1206 00d4 0093     		str	r3, [sp]
 1207 00d6 049B     		ldr	r3, [sp, #16]
 1208 00d8 FFF7FEFF 		bl	u8g2_draw_filled_ellipse_section
 1209              	.LVL152:
 452:..\..\..\u8g2\u8g2\csrc/u8g2_circle.c ****     err += xchg;
 1210              		.loc 1 452 0
 1211 00dc 039B     		ldr	r3, [sp, #12]
 453:..\..\..\u8g2\u8g2\csrc/u8g2_circle.c ****     xchg += ryry2;
 1212              		.loc 1 453 0
 1213 00de 5F44     		add	r7, r7, fp
 1214              	.LVL153:
 452:..\..\..\u8g2\u8g2\csrc/u8g2_circle.c ****     err += xchg;
 1215              		.loc 1 452 0
 1216 00e0 9844     		add	r8, r8, r3
 1217              	.LVL154:
 455:..\..\..\u8g2\u8g2\csrc/u8g2_circle.c ****     {
 1218              		.loc 1 455 0
 1219 00e2 05EB4703 		add	r3, r5, r7, lsl #1
 1220 00e6 002B     		cmp	r3, #0
 1221 00e8 05DD     		ble	.L86
 457:..\..\..\u8g2\u8g2\csrc/u8g2_circle.c ****       stopy -= rxrx2;
 1222              		.loc 1 457 0
 1223 00ea 013C     		subs	r4, r4, #1
 1224              	.LVL155:
 1225 00ec A4B2     		uxth	r4, r4
 1226              	.LVL156:
 458:..\..\..\u8g2\u8g2\csrc/u8g2_circle.c ****       err += ychg;
 1227              		.loc 1 458 0
ARM GAS  C:\Users\jesse\AppData\Local\Temp\ccXvBXW6.s 			page 34


 1228 00ee C9EB0A0A 		rsb	r10, r9, r10
 1229              	.LVL157:
 459:..\..\..\u8g2\u8g2\csrc/u8g2_circle.c ****       ychg += rxrx2;
 1230              		.loc 1 459 0
 1231 00f2 DF1B     		subs	r7, r3, r7
 1232              	.LVL158:
 460:..\..\..\u8g2\u8g2\csrc/u8g2_circle.c ****     }
 1233              		.loc 1 460 0
 1234 00f4 4D44     		add	r5, r5, r9
 1235              	.LVL159:
 1236              	.L86:
 1237 00f6 0136     		adds	r6, r6, #1
 1238              	.LVL160:
 1239 00f8 E1E7     		b	.L85
 1240              	.LVL161:
 1241              	.L80:
 1242              	.LBE17:
 1243              	.LBE16:
 472:..\..\..\u8g2\u8g2\csrc/u8g2_circle.c ****       return;
 473:..\..\..\u8g2\u8g2\csrc/u8g2_circle.c ****   }
 474:..\..\..\u8g2\u8g2\csrc/u8g2_circle.c **** #endif /* U8G2_WITH_INTERSECTION */
 475:..\..\..\u8g2\u8g2\csrc/u8g2_circle.c ****   
 476:..\..\..\u8g2\u8g2\csrc/u8g2_circle.c ****   u8g2_draw_filled_ellipse(u8g2, x0, y0, rx, ry, option);
 477:..\..\..\u8g2\u8g2\csrc/u8g2_circle.c **** }
 1244              		.loc 1 477 0
 1245 00fa 0DB0     		add	sp, sp, #52
 1246              		.cfi_def_cfa_offset 36
 1247              		@ sp needed
 1248 00fc BDE8F08F 		pop	{r4, r5, r6, r7, r8, r9, r10, fp, pc}
 1249              		.cfi_endproc
 1250              	.LFE11:
 1251              		.size	u8g2_DrawFilledEllipse, .-u8g2_DrawFilledEllipse
 1252              		.text
 1253              	.Letext0:
 1254              		.file 2 "c:\\program files (x86)\\cypress\\psoc creator\\4.4\\psoc creator\\import\\gnu\\arm\\5.4.
 1255              		.file 3 "c:\\program files (x86)\\cypress\\psoc creator\\4.4\\psoc creator\\import\\gnu\\arm\\5.4.
 1256              		.file 4 "..\\..\\..\\u8g2\\u8g2\\csrc\\u8x8.h"
 1257              		.file 5 "..\\..\\..\\u8g2\\u8g2\\csrc\\u8g2.h"