ARM GAS  C:\Users\jesse\AppData\Local\Temp\ccuy2FXa.s 			page 1


   1              		.syntax unified
   2              		.cpu cortex-m3
   3              		.fpu softvfp
   4              		.eabi_attribute 20, 1
   5              		.eabi_attribute 21, 1
   6              		.eabi_attribute 23, 3
   7              		.eabi_attribute 24, 1
   8              		.eabi_attribute 25, 1
   9              		.eabi_attribute 26, 1
  10              		.eabi_attribute 30, 4
  11              		.eabi_attribute 34, 1
  12              		.eabi_attribute 18, 4
  13              		.thumb
  14              		.syntax unified
  15              		.file	"u8g2_d_memory.c"
  16              		.text
  17              	.Ltext0:
  18              		.cfi_sections	.debug_frame
  19              		.section	.text.u8g2_m_16_4_1,"ax",%progbits
  20              		.align	1
  21              		.global	u8g2_m_16_4_1
  22              		.thumb
  23              		.thumb_func
  24              		.type	u8g2_m_16_4_1, %function
  25              	u8g2_m_16_4_1:
  26              	.LFB0:
  27              		.file 1 "..\\..\\..\\u8g2\\u8g2\\csrc\\u8g2_d_memory.c"
   1:..\..\..\u8g2\u8g2\csrc/u8g2_d_memory.c **** /* u8g2_d_memory.c */
   2:..\..\..\u8g2\u8g2\csrc/u8g2_d_memory.c **** /* generated code, codebuild, u8g2 project */
   3:..\..\..\u8g2\u8g2\csrc/u8g2_d_memory.c **** 
   4:..\..\..\u8g2\u8g2\csrc/u8g2_d_memory.c **** #include "u8g2.h"
   5:..\..\..\u8g2\u8g2\csrc/u8g2_d_memory.c **** 
   6:..\..\..\u8g2\u8g2\csrc/u8g2_d_memory.c **** uint8_t *u8g2_m_16_4_1(uint8_t *page_cnt)
   7:..\..\..\u8g2\u8g2\csrc/u8g2_d_memory.c **** {
  28              		.loc 1 7 0
  29              		.cfi_startproc
  30              		@ args = 0, pretend = 0, frame = 0
  31              		@ frame_needed = 0, uses_anonymous_args = 0
  32              		@ link register save eliminated.
  33              	.LVL0:
   8:..\..\..\u8g2\u8g2\csrc/u8g2_d_memory.c ****   #ifdef U8G2_USE_DYNAMIC_ALLOC
   9:..\..\..\u8g2\u8g2\csrc/u8g2_d_memory.c ****   *page_cnt = 1;
  10:..\..\..\u8g2\u8g2\csrc/u8g2_d_memory.c ****   return 0;
  11:..\..\..\u8g2\u8g2\csrc/u8g2_d_memory.c ****   #else
  12:..\..\..\u8g2\u8g2\csrc/u8g2_d_memory.c ****   static uint8_t buf[128];
  13:..\..\..\u8g2\u8g2\csrc/u8g2_d_memory.c ****   *page_cnt = 1;
  34              		.loc 1 13 0
  35 0000 0123     		movs	r3, #1
  36 0002 0370     		strb	r3, [r0]
  14:..\..\..\u8g2\u8g2\csrc/u8g2_d_memory.c ****   return buf;
  15:..\..\..\u8g2\u8g2\csrc/u8g2_d_memory.c ****   #endif
  16:..\..\..\u8g2\u8g2\csrc/u8g2_d_memory.c **** }
  37              		.loc 1 16 0
  38 0004 0048     		ldr	r0, .L2
  39              	.LVL1:
  40 0006 7047     		bx	lr
  41              	.L3:
ARM GAS  C:\Users\jesse\AppData\Local\Temp\ccuy2FXa.s 			page 2


  42              		.align	2
  43              	.L2:
  44 0008 00000000 		.word	.LANCHOR0
  45              		.cfi_endproc
  46              	.LFE0:
  47              		.size	u8g2_m_16_4_1, .-u8g2_m_16_4_1
  48              		.section	.text.u8g2_m_16_4_2,"ax",%progbits
  49              		.align	1
  50              		.global	u8g2_m_16_4_2
  51              		.thumb
  52              		.thumb_func
  53              		.type	u8g2_m_16_4_2, %function
  54              	u8g2_m_16_4_2:
  55              	.LFB1:
  17:..\..\..\u8g2\u8g2\csrc/u8g2_d_memory.c **** uint8_t *u8g2_m_16_4_2(uint8_t *page_cnt)
  18:..\..\..\u8g2\u8g2\csrc/u8g2_d_memory.c **** {
  56              		.loc 1 18 0
  57              		.cfi_startproc
  58              		@ args = 0, pretend = 0, frame = 0
  59              		@ frame_needed = 0, uses_anonymous_args = 0
  60              		@ link register save eliminated.
  61              	.LVL2:
  19:..\..\..\u8g2\u8g2\csrc/u8g2_d_memory.c ****   #ifdef U8G2_USE_DYNAMIC_ALLOC
  20:..\..\..\u8g2\u8g2\csrc/u8g2_d_memory.c ****   *page_cnt = 2;
  21:..\..\..\u8g2\u8g2\csrc/u8g2_d_memory.c ****   return 0;
  22:..\..\..\u8g2\u8g2\csrc/u8g2_d_memory.c ****   #else
  23:..\..\..\u8g2\u8g2\csrc/u8g2_d_memory.c ****   static uint8_t buf[256];
  24:..\..\..\u8g2\u8g2\csrc/u8g2_d_memory.c ****   *page_cnt = 2;
  62              		.loc 1 24 0
  63 0000 0223     		movs	r3, #2
  64 0002 0370     		strb	r3, [r0]
  25:..\..\..\u8g2\u8g2\csrc/u8g2_d_memory.c ****   return buf;
  26:..\..\..\u8g2\u8g2\csrc/u8g2_d_memory.c ****   #endif
  27:..\..\..\u8g2\u8g2\csrc/u8g2_d_memory.c **** }
  65              		.loc 1 27 0
  66 0004 0048     		ldr	r0, .L5
  67              	.LVL3:
  68 0006 7047     		bx	lr
  69              	.L6:
  70              		.align	2
  71              	.L5:
  72 0008 80000000 		.word	.LANCHOR0+128
  73              		.cfi_endproc
  74              	.LFE1:
  75              		.size	u8g2_m_16_4_2, .-u8g2_m_16_4_2
  76              		.section	.text.u8g2_m_16_4_f,"ax",%progbits
  77              		.align	1
  78              		.global	u8g2_m_16_4_f
  79              		.thumb
  80              		.thumb_func
  81              		.type	u8g2_m_16_4_f, %function
  82              	u8g2_m_16_4_f:
  83              	.LFB2:
  28:..\..\..\u8g2\u8g2\csrc/u8g2_d_memory.c **** uint8_t *u8g2_m_16_4_f(uint8_t *page_cnt)
  29:..\..\..\u8g2\u8g2\csrc/u8g2_d_memory.c **** {
  84              		.loc 1 29 0
  85              		.cfi_startproc
ARM GAS  C:\Users\jesse\AppData\Local\Temp\ccuy2FXa.s 			page 3


  86              		@ args = 0, pretend = 0, frame = 0
  87              		@ frame_needed = 0, uses_anonymous_args = 0
  88              		@ link register save eliminated.
  89              	.LVL4:
  30:..\..\..\u8g2\u8g2\csrc/u8g2_d_memory.c ****   #ifdef U8G2_USE_DYNAMIC_ALLOC
  31:..\..\..\u8g2\u8g2\csrc/u8g2_d_memory.c ****   *page_cnt = 4;
  32:..\..\..\u8g2\u8g2\csrc/u8g2_d_memory.c ****   return 0;
  33:..\..\..\u8g2\u8g2\csrc/u8g2_d_memory.c ****   #else
  34:..\..\..\u8g2\u8g2\csrc/u8g2_d_memory.c ****   static uint8_t buf[512];
  35:..\..\..\u8g2\u8g2\csrc/u8g2_d_memory.c ****   *page_cnt = 4;
  90              		.loc 1 35 0
  91 0000 0423     		movs	r3, #4
  92 0002 0370     		strb	r3, [r0]
  36:..\..\..\u8g2\u8g2\csrc/u8g2_d_memory.c ****   return buf;
  37:..\..\..\u8g2\u8g2\csrc/u8g2_d_memory.c ****   #endif
  38:..\..\..\u8g2\u8g2\csrc/u8g2_d_memory.c **** }
  93              		.loc 1 38 0
  94 0004 0048     		ldr	r0, .L8
  95              	.LVL5:
  96 0006 7047     		bx	lr
  97              	.L9:
  98              		.align	2
  99              	.L8:
 100 0008 80010000 		.word	.LANCHOR0+384
 101              		.cfi_endproc
 102              	.LFE2:
 103              		.size	u8g2_m_16_4_f, .-u8g2_m_16_4_f
 104              		.section	.text.u8g2_m_16_8_1,"ax",%progbits
 105              		.align	1
 106              		.global	u8g2_m_16_8_1
 107              		.thumb
 108              		.thumb_func
 109              		.type	u8g2_m_16_8_1, %function
 110              	u8g2_m_16_8_1:
 111              	.LFB3:
  39:..\..\..\u8g2\u8g2\csrc/u8g2_d_memory.c **** uint8_t *u8g2_m_16_8_1(uint8_t *page_cnt)
  40:..\..\..\u8g2\u8g2\csrc/u8g2_d_memory.c **** {
 112              		.loc 1 40 0
 113              		.cfi_startproc
 114              		@ args = 0, pretend = 0, frame = 0
 115              		@ frame_needed = 0, uses_anonymous_args = 0
 116              		@ link register save eliminated.
 117              	.LVL6:
  41:..\..\..\u8g2\u8g2\csrc/u8g2_d_memory.c ****   #ifdef U8G2_USE_DYNAMIC_ALLOC
  42:..\..\..\u8g2\u8g2\csrc/u8g2_d_memory.c ****   *page_cnt = 1;
  43:..\..\..\u8g2\u8g2\csrc/u8g2_d_memory.c ****   return 0;
  44:..\..\..\u8g2\u8g2\csrc/u8g2_d_memory.c ****   #else
  45:..\..\..\u8g2\u8g2\csrc/u8g2_d_memory.c ****   static uint8_t buf[128];
  46:..\..\..\u8g2\u8g2\csrc/u8g2_d_memory.c ****   *page_cnt = 1;
 118              		.loc 1 46 0
 119 0000 0123     		movs	r3, #1
 120 0002 0370     		strb	r3, [r0]
  47:..\..\..\u8g2\u8g2\csrc/u8g2_d_memory.c ****   return buf;
  48:..\..\..\u8g2\u8g2\csrc/u8g2_d_memory.c ****   #endif
  49:..\..\..\u8g2\u8g2\csrc/u8g2_d_memory.c **** }
 121              		.loc 1 49 0
 122 0004 0048     		ldr	r0, .L11
ARM GAS  C:\Users\jesse\AppData\Local\Temp\ccuy2FXa.s 			page 4


 123              	.LVL7:
 124 0006 7047     		bx	lr
 125              	.L12:
 126              		.align	2
 127              	.L11:
 128 0008 80030000 		.word	.LANCHOR0+896
 129              		.cfi_endproc
 130              	.LFE3:
 131              		.size	u8g2_m_16_8_1, .-u8g2_m_16_8_1
 132              		.section	.text.u8g2_m_16_8_2,"ax",%progbits
 133              		.align	1
 134              		.global	u8g2_m_16_8_2
 135              		.thumb
 136              		.thumb_func
 137              		.type	u8g2_m_16_8_2, %function
 138              	u8g2_m_16_8_2:
 139              	.LFB4:
  50:..\..\..\u8g2\u8g2\csrc/u8g2_d_memory.c **** uint8_t *u8g2_m_16_8_2(uint8_t *page_cnt)
  51:..\..\..\u8g2\u8g2\csrc/u8g2_d_memory.c **** {
 140              		.loc 1 51 0
 141              		.cfi_startproc
 142              		@ args = 0, pretend = 0, frame = 0
 143              		@ frame_needed = 0, uses_anonymous_args = 0
 144              		@ link register save eliminated.
 145              	.LVL8:
  52:..\..\..\u8g2\u8g2\csrc/u8g2_d_memory.c ****   #ifdef U8G2_USE_DYNAMIC_ALLOC
  53:..\..\..\u8g2\u8g2\csrc/u8g2_d_memory.c ****   *page_cnt = 2;
  54:..\..\..\u8g2\u8g2\csrc/u8g2_d_memory.c ****   return 0;
  55:..\..\..\u8g2\u8g2\csrc/u8g2_d_memory.c ****   #else
  56:..\..\..\u8g2\u8g2\csrc/u8g2_d_memory.c ****   static uint8_t buf[256];
  57:..\..\..\u8g2\u8g2\csrc/u8g2_d_memory.c ****   *page_cnt = 2;
 146              		.loc 1 57 0
 147 0000 0223     		movs	r3, #2
 148 0002 0370     		strb	r3, [r0]
  58:..\..\..\u8g2\u8g2\csrc/u8g2_d_memory.c ****   return buf;
  59:..\..\..\u8g2\u8g2\csrc/u8g2_d_memory.c ****   #endif
  60:..\..\..\u8g2\u8g2\csrc/u8g2_d_memory.c **** }
 149              		.loc 1 60 0
 150 0004 0048     		ldr	r0, .L14
 151              	.LVL9:
 152 0006 7047     		bx	lr
 153              	.L15:
 154              		.align	2
 155              	.L14:
 156 0008 00040000 		.word	.LANCHOR0+1024
 157              		.cfi_endproc
 158              	.LFE4:
 159              		.size	u8g2_m_16_8_2, .-u8g2_m_16_8_2
 160              		.section	.text.u8g2_m_16_8_f,"ax",%progbits
 161              		.align	1
 162              		.global	u8g2_m_16_8_f
 163              		.thumb
 164              		.thumb_func
 165              		.type	u8g2_m_16_8_f, %function
 166              	u8g2_m_16_8_f:
 167              	.LFB5:
  61:..\..\..\u8g2\u8g2\csrc/u8g2_d_memory.c **** uint8_t *u8g2_m_16_8_f(uint8_t *page_cnt)
ARM GAS  C:\Users\jesse\AppData\Local\Temp\ccuy2FXa.s 			page 5


  62:..\..\..\u8g2\u8g2\csrc/u8g2_d_memory.c **** {
 168              		.loc 1 62 0
 169              		.cfi_startproc
 170              		@ args = 0, pretend = 0, frame = 0
 171              		@ frame_needed = 0, uses_anonymous_args = 0
 172              		@ link register save eliminated.
 173              	.LVL10:
  63:..\..\..\u8g2\u8g2\csrc/u8g2_d_memory.c ****   #ifdef U8G2_USE_DYNAMIC_ALLOC
  64:..\..\..\u8g2\u8g2\csrc/u8g2_d_memory.c ****   *page_cnt = 8;
  65:..\..\..\u8g2\u8g2\csrc/u8g2_d_memory.c ****   return 0;
  66:..\..\..\u8g2\u8g2\csrc/u8g2_d_memory.c ****   #else
  67:..\..\..\u8g2\u8g2\csrc/u8g2_d_memory.c ****   static uint8_t buf[1024];
  68:..\..\..\u8g2\u8g2\csrc/u8g2_d_memory.c ****   *page_cnt = 8;
 174              		.loc 1 68 0
 175 0000 0823     		movs	r3, #8
 176 0002 0370     		strb	r3, [r0]
  69:..\..\..\u8g2\u8g2\csrc/u8g2_d_memory.c ****   return buf;
  70:..\..\..\u8g2\u8g2\csrc/u8g2_d_memory.c ****   #endif
  71:..\..\..\u8g2\u8g2\csrc/u8g2_d_memory.c **** }
 177              		.loc 1 71 0
 178 0004 0048     		ldr	r0, .L17
 179              	.LVL11:
 180 0006 7047     		bx	lr
 181              	.L18:
 182              		.align	2
 183              	.L17:
 184 0008 00050000 		.word	.LANCHOR0+1280
 185              		.cfi_endproc
 186              	.LFE5:
 187              		.size	u8g2_m_16_8_f, .-u8g2_m_16_8_f
 188              		.section	.text.u8g2_m_255_2_1,"ax",%progbits
 189              		.align	1
 190              		.global	u8g2_m_255_2_1
 191              		.thumb
 192              		.thumb_func
 193              		.type	u8g2_m_255_2_1, %function
 194              	u8g2_m_255_2_1:
 195              	.LFB6:
  72:..\..\..\u8g2\u8g2\csrc/u8g2_d_memory.c **** uint8_t *u8g2_m_255_2_1(uint8_t *page_cnt)
  73:..\..\..\u8g2\u8g2\csrc/u8g2_d_memory.c **** {
 196              		.loc 1 73 0
 197              		.cfi_startproc
 198              		@ args = 0, pretend = 0, frame = 0
 199              		@ frame_needed = 0, uses_anonymous_args = 0
 200              		@ link register save eliminated.
 201              	.LVL12:
  74:..\..\..\u8g2\u8g2\csrc/u8g2_d_memory.c ****   #ifdef U8G2_USE_DYNAMIC_ALLOC
  75:..\..\..\u8g2\u8g2\csrc/u8g2_d_memory.c ****   *page_cnt = 1;
  76:..\..\..\u8g2\u8g2\csrc/u8g2_d_memory.c ****   return 0;
  77:..\..\..\u8g2\u8g2\csrc/u8g2_d_memory.c ****   #else
  78:..\..\..\u8g2\u8g2\csrc/u8g2_d_memory.c ****   static uint8_t buf[2040];
  79:..\..\..\u8g2\u8g2\csrc/u8g2_d_memory.c ****   *page_cnt = 1;
 202              		.loc 1 79 0
 203 0000 0123     		movs	r3, #1
 204 0002 0370     		strb	r3, [r0]
  80:..\..\..\u8g2\u8g2\csrc/u8g2_d_memory.c ****   return buf;
  81:..\..\..\u8g2\u8g2\csrc/u8g2_d_memory.c ****   #endif
ARM GAS  C:\Users\jesse\AppData\Local\Temp\ccuy2FXa.s 			page 6


  82:..\..\..\u8g2\u8g2\csrc/u8g2_d_memory.c **** }
 205              		.loc 1 82 0
 206 0004 0048     		ldr	r0, .L20
 207              	.LVL13:
 208 0006 7047     		bx	lr
 209              	.L21:
 210              		.align	2
 211              	.L20:
 212 0008 00090000 		.word	.LANCHOR0+2304
 213              		.cfi_endproc
 214              	.LFE6:
 215              		.size	u8g2_m_255_2_1, .-u8g2_m_255_2_1
 216              		.section	.text.u8g2_m_255_2_2,"ax",%progbits
 217              		.align	1
 218              		.global	u8g2_m_255_2_2
 219              		.thumb
 220              		.thumb_func
 221              		.type	u8g2_m_255_2_2, %function
 222              	u8g2_m_255_2_2:
 223              	.LFB7:
  83:..\..\..\u8g2\u8g2\csrc/u8g2_d_memory.c **** uint8_t *u8g2_m_255_2_2(uint8_t *page_cnt)
  84:..\..\..\u8g2\u8g2\csrc/u8g2_d_memory.c **** {
 224              		.loc 1 84 0
 225              		.cfi_startproc
 226              		@ args = 0, pretend = 0, frame = 0
 227              		@ frame_needed = 0, uses_anonymous_args = 0
 228              		@ link register save eliminated.
 229              	.LVL14:
  85:..\..\..\u8g2\u8g2\csrc/u8g2_d_memory.c ****   #ifdef U8G2_USE_DYNAMIC_ALLOC
  86:..\..\..\u8g2\u8g2\csrc/u8g2_d_memory.c ****   *page_cnt = 2;
  87:..\..\..\u8g2\u8g2\csrc/u8g2_d_memory.c ****   return 0;
  88:..\..\..\u8g2\u8g2\csrc/u8g2_d_memory.c ****   #else
  89:..\..\..\u8g2\u8g2\csrc/u8g2_d_memory.c ****   static uint8_t buf[4080];
  90:..\..\..\u8g2\u8g2\csrc/u8g2_d_memory.c ****   *page_cnt = 2;
 230              		.loc 1 90 0
 231 0000 0223     		movs	r3, #2
 232 0002 0370     		strb	r3, [r0]
  91:..\..\..\u8g2\u8g2\csrc/u8g2_d_memory.c ****   return buf;
  92:..\..\..\u8g2\u8g2\csrc/u8g2_d_memory.c ****   #endif
  93:..\..\..\u8g2\u8g2\csrc/u8g2_d_memory.c **** }
 233              		.loc 1 93 0
 234 0004 0048     		ldr	r0, .L23
 235              	.LVL15:
 236 0006 7047     		bx	lr
 237              	.L24:
 238              		.align	2
 239              	.L23:
 240 0008 F8100000 		.word	.LANCHOR1
 241              		.cfi_endproc
 242              	.LFE7:
 243              		.size	u8g2_m_255_2_2, .-u8g2_m_255_2_2
 244              		.section	.text.u8g2_m_255_2_f,"ax",%progbits
 245              		.align	1
 246              		.global	u8g2_m_255_2_f
 247              		.thumb
 248              		.thumb_func
 249              		.type	u8g2_m_255_2_f, %function
ARM GAS  C:\Users\jesse\AppData\Local\Temp\ccuy2FXa.s 			page 7


 250              	u8g2_m_255_2_f:
 251              	.LFB8:
  94:..\..\..\u8g2\u8g2\csrc/u8g2_d_memory.c **** uint8_t *u8g2_m_255_2_f(uint8_t *page_cnt)
  95:..\..\..\u8g2\u8g2\csrc/u8g2_d_memory.c **** {
 252              		.loc 1 95 0
 253              		.cfi_startproc
 254              		@ args = 0, pretend = 0, frame = 0
 255              		@ frame_needed = 0, uses_anonymous_args = 0
 256              		@ link register save eliminated.
 257              	.LVL16:
  96:..\..\..\u8g2\u8g2\csrc/u8g2_d_memory.c ****   #ifdef U8G2_USE_DYNAMIC_ALLOC
  97:..\..\..\u8g2\u8g2\csrc/u8g2_d_memory.c ****   *page_cnt = 2;
  98:..\..\..\u8g2\u8g2\csrc/u8g2_d_memory.c ****   return 0;
  99:..\..\..\u8g2\u8g2\csrc/u8g2_d_memory.c ****   #else
 100:..\..\..\u8g2\u8g2\csrc/u8g2_d_memory.c ****   static uint8_t buf[4080];
 101:..\..\..\u8g2\u8g2\csrc/u8g2_d_memory.c ****   *page_cnt = 2;
 258              		.loc 1 101 0
 259 0000 0223     		movs	r3, #2
 260 0002 0370     		strb	r3, [r0]
 102:..\..\..\u8g2\u8g2\csrc/u8g2_d_memory.c ****   return buf;
 103:..\..\..\u8g2\u8g2\csrc/u8g2_d_memory.c ****   #endif
 104:..\..\..\u8g2\u8g2\csrc/u8g2_d_memory.c **** }
 261              		.loc 1 104 0
 262 0004 0048     		ldr	r0, .L26
 263              	.LVL17:
 264 0006 7047     		bx	lr
 265              	.L27:
 266              		.align	2
 267              	.L26:
 268 0008 E8200000 		.word	.LANCHOR1+4080
 269              		.cfi_endproc
 270              	.LFE8:
 271              		.size	u8g2_m_255_2_f, .-u8g2_m_255_2_f
 272              		.section	.text.u8g2_m_9_5_1,"ax",%progbits
 273              		.align	1
 274              		.global	u8g2_m_9_5_1
 275              		.thumb
 276              		.thumb_func
 277              		.type	u8g2_m_9_5_1, %function
 278              	u8g2_m_9_5_1:
 279              	.LFB9:
 105:..\..\..\u8g2\u8g2\csrc/u8g2_d_memory.c **** uint8_t *u8g2_m_9_5_1(uint8_t *page_cnt)
 106:..\..\..\u8g2\u8g2\csrc/u8g2_d_memory.c **** {
 280              		.loc 1 106 0
 281              		.cfi_startproc
 282              		@ args = 0, pretend = 0, frame = 0
 283              		@ frame_needed = 0, uses_anonymous_args = 0
 284              		@ link register save eliminated.
 285              	.LVL18:
 107:..\..\..\u8g2\u8g2\csrc/u8g2_d_memory.c ****   #ifdef U8G2_USE_DYNAMIC_ALLOC
 108:..\..\..\u8g2\u8g2\csrc/u8g2_d_memory.c ****   *page_cnt = 1;
 109:..\..\..\u8g2\u8g2\csrc/u8g2_d_memory.c ****   return 0;
 110:..\..\..\u8g2\u8g2\csrc/u8g2_d_memory.c ****   #else
 111:..\..\..\u8g2\u8g2\csrc/u8g2_d_memory.c ****   static uint8_t buf[72];
 112:..\..\..\u8g2\u8g2\csrc/u8g2_d_memory.c ****   *page_cnt = 1;
 286              		.loc 1 112 0
 287 0000 0123     		movs	r3, #1
ARM GAS  C:\Users\jesse\AppData\Local\Temp\ccuy2FXa.s 			page 8


 288 0002 0370     		strb	r3, [r0]
 113:..\..\..\u8g2\u8g2\csrc/u8g2_d_memory.c ****   return buf;
 114:..\..\..\u8g2\u8g2\csrc/u8g2_d_memory.c ****   #endif
 115:..\..\..\u8g2\u8g2\csrc/u8g2_d_memory.c **** }
 289              		.loc 1 115 0
 290 0004 0048     		ldr	r0, .L29
 291              	.LVL19:
 292 0006 7047     		bx	lr
 293              	.L30:
 294              		.align	2
 295              	.L29:
 296 0008 D8300000 		.word	.LANCHOR2+3816
 297              		.cfi_endproc
 298              	.LFE9:
 299              		.size	u8g2_m_9_5_1, .-u8g2_m_9_5_1
 300              		.section	.text.u8g2_m_9_5_2,"ax",%progbits
 301              		.align	1
 302              		.global	u8g2_m_9_5_2
 303              		.thumb
 304              		.thumb_func
 305              		.type	u8g2_m_9_5_2, %function
 306              	u8g2_m_9_5_2:
 307              	.LFB10:
 116:..\..\..\u8g2\u8g2\csrc/u8g2_d_memory.c **** uint8_t *u8g2_m_9_5_2(uint8_t *page_cnt)
 117:..\..\..\u8g2\u8g2\csrc/u8g2_d_memory.c **** {
 308              		.loc 1 117 0
 309              		.cfi_startproc
 310              		@ args = 0, pretend = 0, frame = 0
 311              		@ frame_needed = 0, uses_anonymous_args = 0
 312              		@ link register save eliminated.
 313              	.LVL20:
 118:..\..\..\u8g2\u8g2\csrc/u8g2_d_memory.c ****   #ifdef U8G2_USE_DYNAMIC_ALLOC
 119:..\..\..\u8g2\u8g2\csrc/u8g2_d_memory.c ****   *page_cnt = 2;
 120:..\..\..\u8g2\u8g2\csrc/u8g2_d_memory.c ****   return 0;
 121:..\..\..\u8g2\u8g2\csrc/u8g2_d_memory.c ****   #else
 122:..\..\..\u8g2\u8g2\csrc/u8g2_d_memory.c ****   static uint8_t buf[144];
 123:..\..\..\u8g2\u8g2\csrc/u8g2_d_memory.c ****   *page_cnt = 2;
 314              		.loc 1 123 0
 315 0000 0223     		movs	r3, #2
 316 0002 0370     		strb	r3, [r0]
 124:..\..\..\u8g2\u8g2\csrc/u8g2_d_memory.c ****   return buf;
 125:..\..\..\u8g2\u8g2\csrc/u8g2_d_memory.c ****   #endif
 126:..\..\..\u8g2\u8g2\csrc/u8g2_d_memory.c **** }
 317              		.loc 1 126 0
 318 0004 0048     		ldr	r0, .L32
 319              	.LVL21:
 320 0006 7047     		bx	lr
 321              	.L33:
 322              		.align	2
 323              	.L32:
 324 0008 20310000 		.word	.LANCHOR2+3888
 325              		.cfi_endproc
 326              	.LFE10:
 327              		.size	u8g2_m_9_5_2, .-u8g2_m_9_5_2
 328              		.section	.text.u8g2_m_9_5_f,"ax",%progbits
 329              		.align	1
 330              		.global	u8g2_m_9_5_f
ARM GAS  C:\Users\jesse\AppData\Local\Temp\ccuy2FXa.s 			page 9


 331              		.thumb
 332              		.thumb_func
 333              		.type	u8g2_m_9_5_f, %function
 334              	u8g2_m_9_5_f:
 335              	.LFB11:
 127:..\..\..\u8g2\u8g2\csrc/u8g2_d_memory.c **** uint8_t *u8g2_m_9_5_f(uint8_t *page_cnt)
 128:..\..\..\u8g2\u8g2\csrc/u8g2_d_memory.c **** {
 336              		.loc 1 128 0
 337              		.cfi_startproc
 338              		@ args = 0, pretend = 0, frame = 0
 339              		@ frame_needed = 0, uses_anonymous_args = 0
 340              		@ link register save eliminated.
 341              	.LVL22:
 129:..\..\..\u8g2\u8g2\csrc/u8g2_d_memory.c ****   #ifdef U8G2_USE_DYNAMIC_ALLOC
 130:..\..\..\u8g2\u8g2\csrc/u8g2_d_memory.c ****   *page_cnt = 5;
 131:..\..\..\u8g2\u8g2\csrc/u8g2_d_memory.c ****   return 0;
 132:..\..\..\u8g2\u8g2\csrc/u8g2_d_memory.c ****   #else
 133:..\..\..\u8g2\u8g2\csrc/u8g2_d_memory.c ****   static uint8_t buf[360];
 134:..\..\..\u8g2\u8g2\csrc/u8g2_d_memory.c ****   *page_cnt = 5;
 342              		.loc 1 134 0
 343 0000 0523     		movs	r3, #5
 344 0002 0370     		strb	r3, [r0]
 135:..\..\..\u8g2\u8g2\csrc/u8g2_d_memory.c ****   return buf;
 136:..\..\..\u8g2\u8g2\csrc/u8g2_d_memory.c ****   #endif
 137:..\..\..\u8g2\u8g2\csrc/u8g2_d_memory.c **** }
 345              		.loc 1 137 0
 346 0004 0048     		ldr	r0, .L35
 347              	.LVL23:
 348 0006 7047     		bx	lr
 349              	.L36:
 350              		.align	2
 351              	.L35:
 352 0008 B0310000 		.word	.LANCHOR2+4032
 353              		.cfi_endproc
 354              	.LFE11:
 355              		.size	u8g2_m_9_5_f, .-u8g2_m_9_5_f
 356              		.section	.text.u8g2_m_12_5_1,"ax",%progbits
 357              		.align	1
 358              		.global	u8g2_m_12_5_1
 359              		.thumb
 360              		.thumb_func
 361              		.type	u8g2_m_12_5_1, %function
 362              	u8g2_m_12_5_1:
 363              	.LFB12:
 138:..\..\..\u8g2\u8g2\csrc/u8g2_d_memory.c **** uint8_t *u8g2_m_12_5_1(uint8_t *page_cnt)
 139:..\..\..\u8g2\u8g2\csrc/u8g2_d_memory.c **** {
 364              		.loc 1 139 0
 365              		.cfi_startproc
 366              		@ args = 0, pretend = 0, frame = 0
 367              		@ frame_needed = 0, uses_anonymous_args = 0
 368              		@ link register save eliminated.
 369              	.LVL24:
 140:..\..\..\u8g2\u8g2\csrc/u8g2_d_memory.c ****   #ifdef U8G2_USE_DYNAMIC_ALLOC
 141:..\..\..\u8g2\u8g2\csrc/u8g2_d_memory.c ****   *page_cnt = 1;
 142:..\..\..\u8g2\u8g2\csrc/u8g2_d_memory.c ****   return 0;
 143:..\..\..\u8g2\u8g2\csrc/u8g2_d_memory.c ****   #else
 144:..\..\..\u8g2\u8g2\csrc/u8g2_d_memory.c ****   static uint8_t buf[96];
ARM GAS  C:\Users\jesse\AppData\Local\Temp\ccuy2FXa.s 			page 10


 145:..\..\..\u8g2\u8g2\csrc/u8g2_d_memory.c ****   *page_cnt = 1;
 370              		.loc 1 145 0
 371 0000 0123     		movs	r3, #1
 372 0002 0370     		strb	r3, [r0]
 146:..\..\..\u8g2\u8g2\csrc/u8g2_d_memory.c ****   return buf;
 147:..\..\..\u8g2\u8g2\csrc/u8g2_d_memory.c ****   #endif
 148:..\..\..\u8g2\u8g2\csrc/u8g2_d_memory.c **** }
 373              		.loc 1 148 0
 374 0004 0048     		ldr	r0, .L38
 375              	.LVL25:
 376 0006 7047     		bx	lr
 377              	.L39:
 378              		.align	2
 379              	.L38:
 380 0008 18330000 		.word	.LANCHOR3+48
 381              		.cfi_endproc
 382              	.LFE12:
 383              		.size	u8g2_m_12_5_1, .-u8g2_m_12_5_1
 384              		.section	.text.u8g2_m_12_5_2,"ax",%progbits
 385              		.align	1
 386              		.global	u8g2_m_12_5_2
 387              		.thumb
 388              		.thumb_func
 389              		.type	u8g2_m_12_5_2, %function
 390              	u8g2_m_12_5_2:
 391              	.LFB13:
 149:..\..\..\u8g2\u8g2\csrc/u8g2_d_memory.c **** uint8_t *u8g2_m_12_5_2(uint8_t *page_cnt)
 150:..\..\..\u8g2\u8g2\csrc/u8g2_d_memory.c **** {
 392              		.loc 1 150 0
 393              		.cfi_startproc
 394              		@ args = 0, pretend = 0, frame = 0
 395              		@ frame_needed = 0, uses_anonymous_args = 0
 396              		@ link register save eliminated.
 397              	.LVL26:
 151:..\..\..\u8g2\u8g2\csrc/u8g2_d_memory.c ****   #ifdef U8G2_USE_DYNAMIC_ALLOC
 152:..\..\..\u8g2\u8g2\csrc/u8g2_d_memory.c ****   *page_cnt = 2;
 153:..\..\..\u8g2\u8g2\csrc/u8g2_d_memory.c ****   return 0;
 154:..\..\..\u8g2\u8g2\csrc/u8g2_d_memory.c ****   #else
 155:..\..\..\u8g2\u8g2\csrc/u8g2_d_memory.c ****   static uint8_t buf[192];
 156:..\..\..\u8g2\u8g2\csrc/u8g2_d_memory.c ****   *page_cnt = 2;
 398              		.loc 1 156 0
 399 0000 0223     		movs	r3, #2
 400 0002 0370     		strb	r3, [r0]
 157:..\..\..\u8g2\u8g2\csrc/u8g2_d_memory.c ****   return buf;
 158:..\..\..\u8g2\u8g2\csrc/u8g2_d_memory.c ****   #endif
 159:..\..\..\u8g2\u8g2\csrc/u8g2_d_memory.c **** }
 401              		.loc 1 159 0
 402 0004 0048     		ldr	r0, .L41
 403              	.LVL27:
 404 0006 7047     		bx	lr
 405              	.L42:
 406              		.align	2
 407              	.L41:
 408 0008 78330000 		.word	.LANCHOR3+144
 409              		.cfi_endproc
 410              	.LFE13:
 411              		.size	u8g2_m_12_5_2, .-u8g2_m_12_5_2
ARM GAS  C:\Users\jesse\AppData\Local\Temp\ccuy2FXa.s 			page 11


 412              		.section	.text.u8g2_m_12_5_f,"ax",%progbits
 413              		.align	1
 414              		.global	u8g2_m_12_5_f
 415              		.thumb
 416              		.thumb_func
 417              		.type	u8g2_m_12_5_f, %function
 418              	u8g2_m_12_5_f:
 419              	.LFB14:
 160:..\..\..\u8g2\u8g2\csrc/u8g2_d_memory.c **** uint8_t *u8g2_m_12_5_f(uint8_t *page_cnt)
 161:..\..\..\u8g2\u8g2\csrc/u8g2_d_memory.c **** {
 420              		.loc 1 161 0
 421              		.cfi_startproc
 422              		@ args = 0, pretend = 0, frame = 0
 423              		@ frame_needed = 0, uses_anonymous_args = 0
 424              		@ link register save eliminated.
 425              	.LVL28:
 162:..\..\..\u8g2\u8g2\csrc/u8g2_d_memory.c ****   #ifdef U8G2_USE_DYNAMIC_ALLOC
 163:..\..\..\u8g2\u8g2\csrc/u8g2_d_memory.c ****   *page_cnt = 5;
 164:..\..\..\u8g2\u8g2\csrc/u8g2_d_memory.c ****   return 0;
 165:..\..\..\u8g2\u8g2\csrc/u8g2_d_memory.c ****   #else
 166:..\..\..\u8g2\u8g2\csrc/u8g2_d_memory.c ****   static uint8_t buf[480];
 167:..\..\..\u8g2\u8g2\csrc/u8g2_d_memory.c ****   *page_cnt = 5;
 426              		.loc 1 167 0
 427 0000 0523     		movs	r3, #5
 428 0002 0370     		strb	r3, [r0]
 168:..\..\..\u8g2\u8g2\csrc/u8g2_d_memory.c ****   return buf;
 169:..\..\..\u8g2\u8g2\csrc/u8g2_d_memory.c ****   #endif
 170:..\..\..\u8g2\u8g2\csrc/u8g2_d_memory.c **** }
 429              		.loc 1 170 0
 430 0004 0048     		ldr	r0, .L44
 431              	.LVL29:
 432 0006 7047     		bx	lr
 433              	.L45:
 434              		.align	2
 435              	.L44:
 436 0008 38340000 		.word	.LANCHOR3+336
 437              		.cfi_endproc
 438              	.LFE14:
 439              		.size	u8g2_m_12_5_f, .-u8g2_m_12_5_f
 440              		.section	.text.u8g2_m_8_4_1,"ax",%progbits
 441              		.align	1
 442              		.global	u8g2_m_8_4_1
 443              		.thumb
 444              		.thumb_func
 445              		.type	u8g2_m_8_4_1, %function
 446              	u8g2_m_8_4_1:
 447              	.LFB15:
 171:..\..\..\u8g2\u8g2\csrc/u8g2_d_memory.c **** uint8_t *u8g2_m_8_4_1(uint8_t *page_cnt)
 172:..\..\..\u8g2\u8g2\csrc/u8g2_d_memory.c **** {
 448              		.loc 1 172 0
 449              		.cfi_startproc
 450              		@ args = 0, pretend = 0, frame = 0
 451              		@ frame_needed = 0, uses_anonymous_args = 0
 452              		@ link register save eliminated.
 453              	.LVL30:
 173:..\..\..\u8g2\u8g2\csrc/u8g2_d_memory.c ****   #ifdef U8G2_USE_DYNAMIC_ALLOC
 174:..\..\..\u8g2\u8g2\csrc/u8g2_d_memory.c ****   *page_cnt = 1;
ARM GAS  C:\Users\jesse\AppData\Local\Temp\ccuy2FXa.s 			page 12


 175:..\..\..\u8g2\u8g2\csrc/u8g2_d_memory.c ****   return 0;
 176:..\..\..\u8g2\u8g2\csrc/u8g2_d_memory.c ****   #else
 177:..\..\..\u8g2\u8g2\csrc/u8g2_d_memory.c ****   static uint8_t buf[64];
 178:..\..\..\u8g2\u8g2\csrc/u8g2_d_memory.c ****   *page_cnt = 1;
 454              		.loc 1 178 0
 455 0000 0123     		movs	r3, #1
 456 0002 0370     		strb	r3, [r0]
 179:..\..\..\u8g2\u8g2\csrc/u8g2_d_memory.c ****   return buf;
 180:..\..\..\u8g2\u8g2\csrc/u8g2_d_memory.c ****   #endif
 181:..\..\..\u8g2\u8g2\csrc/u8g2_d_memory.c **** }
 457              		.loc 1 181 0
 458 0004 0048     		ldr	r0, .L47
 459              	.LVL31:
 460 0006 7047     		bx	lr
 461              	.L48:
 462              		.align	2
 463              	.L47:
 464 0008 18360000 		.word	.LANCHOR3+816
 465              		.cfi_endproc
 466              	.LFE15:
 467              		.size	u8g2_m_8_4_1, .-u8g2_m_8_4_1
 468              		.section	.text.u8g2_m_8_4_2,"ax",%progbits
 469              		.align	1
 470              		.global	u8g2_m_8_4_2
 471              		.thumb
 472              		.thumb_func
 473              		.type	u8g2_m_8_4_2, %function
 474              	u8g2_m_8_4_2:
 475              	.LFB16:
 182:..\..\..\u8g2\u8g2\csrc/u8g2_d_memory.c **** uint8_t *u8g2_m_8_4_2(uint8_t *page_cnt)
 183:..\..\..\u8g2\u8g2\csrc/u8g2_d_memory.c **** {
 476              		.loc 1 183 0
 477              		.cfi_startproc
 478              		@ args = 0, pretend = 0, frame = 0
 479              		@ frame_needed = 0, uses_anonymous_args = 0
 480              		@ link register save eliminated.
 481              	.LVL32:
 184:..\..\..\u8g2\u8g2\csrc/u8g2_d_memory.c ****   #ifdef U8G2_USE_DYNAMIC_ALLOC
 185:..\..\..\u8g2\u8g2\csrc/u8g2_d_memory.c ****   *page_cnt = 2;
 186:..\..\..\u8g2\u8g2\csrc/u8g2_d_memory.c ****   return 0;
 187:..\..\..\u8g2\u8g2\csrc/u8g2_d_memory.c ****   #else
 188:..\..\..\u8g2\u8g2\csrc/u8g2_d_memory.c ****   static uint8_t buf[128];
 189:..\..\..\u8g2\u8g2\csrc/u8g2_d_memory.c ****   *page_cnt = 2;
 482              		.loc 1 189 0
 483 0000 0223     		movs	r3, #2
 484 0002 0370     		strb	r3, [r0]
 190:..\..\..\u8g2\u8g2\csrc/u8g2_d_memory.c ****   return buf;
 191:..\..\..\u8g2\u8g2\csrc/u8g2_d_memory.c ****   #endif
 192:..\..\..\u8g2\u8g2\csrc/u8g2_d_memory.c **** }
 485              		.loc 1 192 0
 486 0004 0048     		ldr	r0, .L50
 487              	.LVL33:
 488 0006 7047     		bx	lr
 489              	.L51:
 490              		.align	2
 491              	.L50:
 492 0008 58360000 		.word	.LANCHOR3+880
ARM GAS  C:\Users\jesse\AppData\Local\Temp\ccuy2FXa.s 			page 13


 493              		.cfi_endproc
 494              	.LFE16:
 495              		.size	u8g2_m_8_4_2, .-u8g2_m_8_4_2
 496              		.section	.text.u8g2_m_8_4_f,"ax",%progbits
 497              		.align	1
 498              		.global	u8g2_m_8_4_f
 499              		.thumb
 500              		.thumb_func
 501              		.type	u8g2_m_8_4_f, %function
 502              	u8g2_m_8_4_f:
 503              	.LFB17:
 193:..\..\..\u8g2\u8g2\csrc/u8g2_d_memory.c **** uint8_t *u8g2_m_8_4_f(uint8_t *page_cnt)
 194:..\..\..\u8g2\u8g2\csrc/u8g2_d_memory.c **** {
 504              		.loc 1 194 0
 505              		.cfi_startproc
 506              		@ args = 0, pretend = 0, frame = 0
 507              		@ frame_needed = 0, uses_anonymous_args = 0
 508              		@ link register save eliminated.
 509              	.LVL34:
 195:..\..\..\u8g2\u8g2\csrc/u8g2_d_memory.c ****   #ifdef U8G2_USE_DYNAMIC_ALLOC
 196:..\..\..\u8g2\u8g2\csrc/u8g2_d_memory.c ****   *page_cnt = 4;
 197:..\..\..\u8g2\u8g2\csrc/u8g2_d_memory.c ****   return 0;
 198:..\..\..\u8g2\u8g2\csrc/u8g2_d_memory.c ****   #else
 199:..\..\..\u8g2\u8g2\csrc/u8g2_d_memory.c ****   static uint8_t buf[256];
 200:..\..\..\u8g2\u8g2\csrc/u8g2_d_memory.c ****   *page_cnt = 4;
 510              		.loc 1 200 0
 511 0000 0423     		movs	r3, #4
 512 0002 0370     		strb	r3, [r0]
 201:..\..\..\u8g2\u8g2\csrc/u8g2_d_memory.c ****   return buf;
 202:..\..\..\u8g2\u8g2\csrc/u8g2_d_memory.c ****   #endif
 203:..\..\..\u8g2\u8g2\csrc/u8g2_d_memory.c **** }
 513              		.loc 1 203 0
 514 0004 0048     		ldr	r0, .L53
 515              	.LVL35:
 516 0006 7047     		bx	lr
 517              	.L54:
 518              		.align	2
 519              	.L53:
 520 0008 D8360000 		.word	.LANCHOR3+1008
 521              		.cfi_endproc
 522              	.LFE17:
 523              		.size	u8g2_m_8_4_f, .-u8g2_m_8_4_f
 524              		.section	.text.u8g2_m_8_16_1,"ax",%progbits
 525              		.align	1
 526              		.global	u8g2_m_8_16_1
 527              		.thumb
 528              		.thumb_func
 529              		.type	u8g2_m_8_16_1, %function
 530              	u8g2_m_8_16_1:
 531              	.LFB18:
 204:..\..\..\u8g2\u8g2\csrc/u8g2_d_memory.c **** uint8_t *u8g2_m_8_16_1(uint8_t *page_cnt)
 205:..\..\..\u8g2\u8g2\csrc/u8g2_d_memory.c **** {
 532              		.loc 1 205 0
 533              		.cfi_startproc
 534              		@ args = 0, pretend = 0, frame = 0
 535              		@ frame_needed = 0, uses_anonymous_args = 0
 536              		@ link register save eliminated.
ARM GAS  C:\Users\jesse\AppData\Local\Temp\ccuy2FXa.s 			page 14


 537              	.LVL36:
 206:..\..\..\u8g2\u8g2\csrc/u8g2_d_memory.c ****   #ifdef U8G2_USE_DYNAMIC_ALLOC
 207:..\..\..\u8g2\u8g2\csrc/u8g2_d_memory.c ****   *page_cnt = 1;
 208:..\..\..\u8g2\u8g2\csrc/u8g2_d_memory.c ****   return 0;
 209:..\..\..\u8g2\u8g2\csrc/u8g2_d_memory.c ****   #else
 210:..\..\..\u8g2\u8g2\csrc/u8g2_d_memory.c ****   static uint8_t buf[64];
 211:..\..\..\u8g2\u8g2\csrc/u8g2_d_memory.c ****   *page_cnt = 1;
 538              		.loc 1 211 0
 539 0000 0123     		movs	r3, #1
 540 0002 0370     		strb	r3, [r0]
 212:..\..\..\u8g2\u8g2\csrc/u8g2_d_memory.c ****   return buf;
 213:..\..\..\u8g2\u8g2\csrc/u8g2_d_memory.c ****   #endif
 214:..\..\..\u8g2\u8g2\csrc/u8g2_d_memory.c **** }
 541              		.loc 1 214 0
 542 0004 0048     		ldr	r0, .L56
 543              	.LVL37:
 544 0006 7047     		bx	lr
 545              	.L57:
 546              		.align	2
 547              	.L56:
 548 0008 D8370000 		.word	.LANCHOR3+1264
 549              		.cfi_endproc
 550              	.LFE18:
 551              		.size	u8g2_m_8_16_1, .-u8g2_m_8_16_1
 552              		.section	.text.u8g2_m_8_16_2,"ax",%progbits
 553              		.align	1
 554              		.global	u8g2_m_8_16_2
 555              		.thumb
 556              		.thumb_func
 557              		.type	u8g2_m_8_16_2, %function
 558              	u8g2_m_8_16_2:
 559              	.LFB19:
 215:..\..\..\u8g2\u8g2\csrc/u8g2_d_memory.c **** uint8_t *u8g2_m_8_16_2(uint8_t *page_cnt)
 216:..\..\..\u8g2\u8g2\csrc/u8g2_d_memory.c **** {
 560              		.loc 1 216 0
 561              		.cfi_startproc
 562              		@ args = 0, pretend = 0, frame = 0
 563              		@ frame_needed = 0, uses_anonymous_args = 0
 564              		@ link register save eliminated.
 565              	.LVL38:
 217:..\..\..\u8g2\u8g2\csrc/u8g2_d_memory.c ****   #ifdef U8G2_USE_DYNAMIC_ALLOC
 218:..\..\..\u8g2\u8g2\csrc/u8g2_d_memory.c ****   *page_cnt = 2;
 219:..\..\..\u8g2\u8g2\csrc/u8g2_d_memory.c ****   return 0;
 220:..\..\..\u8g2\u8g2\csrc/u8g2_d_memory.c ****   #else
 221:..\..\..\u8g2\u8g2\csrc/u8g2_d_memory.c ****   static uint8_t buf[128];
 222:..\..\..\u8g2\u8g2\csrc/u8g2_d_memory.c ****   *page_cnt = 2;
 566              		.loc 1 222 0
 567 0000 0223     		movs	r3, #2
 568 0002 0370     		strb	r3, [r0]
 223:..\..\..\u8g2\u8g2\csrc/u8g2_d_memory.c ****   return buf;
 224:..\..\..\u8g2\u8g2\csrc/u8g2_d_memory.c ****   #endif
 225:..\..\..\u8g2\u8g2\csrc/u8g2_d_memory.c **** }
 569              		.loc 1 225 0
 570 0004 0048     		ldr	r0, .L59
 571              	.LVL39:
 572 0006 7047     		bx	lr
 573              	.L60:
ARM GAS  C:\Users\jesse\AppData\Local\Temp\ccuy2FXa.s 			page 15


 574              		.align	2
 575              	.L59:
 576 0008 18380000 		.word	.LANCHOR3+1328
 577              		.cfi_endproc
 578              	.LFE19:
 579              		.size	u8g2_m_8_16_2, .-u8g2_m_8_16_2
 580              		.section	.text.u8g2_m_8_16_f,"ax",%progbits
 581              		.align	1
 582              		.global	u8g2_m_8_16_f
 583              		.thumb
 584              		.thumb_func
 585              		.type	u8g2_m_8_16_f, %function
 586              	u8g2_m_8_16_f:
 587              	.LFB20:
 226:..\..\..\u8g2\u8g2\csrc/u8g2_d_memory.c **** uint8_t *u8g2_m_8_16_f(uint8_t *page_cnt)
 227:..\..\..\u8g2\u8g2\csrc/u8g2_d_memory.c **** {
 588              		.loc 1 227 0
 589              		.cfi_startproc
 590              		@ args = 0, pretend = 0, frame = 0
 591              		@ frame_needed = 0, uses_anonymous_args = 0
 592              		@ link register save eliminated.
 593              	.LVL40:
 228:..\..\..\u8g2\u8g2\csrc/u8g2_d_memory.c ****   #ifdef U8G2_USE_DYNAMIC_ALLOC
 229:..\..\..\u8g2\u8g2\csrc/u8g2_d_memory.c ****   *page_cnt = 16;
 230:..\..\..\u8g2\u8g2\csrc/u8g2_d_memory.c ****   return 0;
 231:..\..\..\u8g2\u8g2\csrc/u8g2_d_memory.c ****   #else
 232:..\..\..\u8g2\u8g2\csrc/u8g2_d_memory.c ****   static uint8_t buf[1024];
 233:..\..\..\u8g2\u8g2\csrc/u8g2_d_memory.c ****   *page_cnt = 16;
 594              		.loc 1 233 0
 595 0000 1023     		movs	r3, #16
 596 0002 0370     		strb	r3, [r0]
 234:..\..\..\u8g2\u8g2\csrc/u8g2_d_memory.c ****   return buf;
 235:..\..\..\u8g2\u8g2\csrc/u8g2_d_memory.c ****   #endif
 236:..\..\..\u8g2\u8g2\csrc/u8g2_d_memory.c **** }
 597              		.loc 1 236 0
 598 0004 0048     		ldr	r0, .L62
 599              	.LVL41:
 600 0006 7047     		bx	lr
 601              	.L63:
 602              		.align	2
 603              	.L62:
 604 0008 98380000 		.word	.LANCHOR3+1456
 605              		.cfi_endproc
 606              	.LFE20:
 607              		.size	u8g2_m_8_16_f, .-u8g2_m_8_16_f
 608              		.section	.text.u8g2_m_12_12_1,"ax",%progbits
 609              		.align	1
 610              		.global	u8g2_m_12_12_1
 611              		.thumb
 612              		.thumb_func
 613              		.type	u8g2_m_12_12_1, %function
 614              	u8g2_m_12_12_1:
 615              	.LFB21:
 237:..\..\..\u8g2\u8g2\csrc/u8g2_d_memory.c **** uint8_t *u8g2_m_12_12_1(uint8_t *page_cnt)
 238:..\..\..\u8g2\u8g2\csrc/u8g2_d_memory.c **** {
 616              		.loc 1 238 0
 617              		.cfi_startproc
ARM GAS  C:\Users\jesse\AppData\Local\Temp\ccuy2FXa.s 			page 16


 618              		@ args = 0, pretend = 0, frame = 0
 619              		@ frame_needed = 0, uses_anonymous_args = 0
 620              		@ link register save eliminated.
 621              	.LVL42:
 239:..\..\..\u8g2\u8g2\csrc/u8g2_d_memory.c ****   #ifdef U8G2_USE_DYNAMIC_ALLOC
 240:..\..\..\u8g2\u8g2\csrc/u8g2_d_memory.c ****   *page_cnt = 1;
 241:..\..\..\u8g2\u8g2\csrc/u8g2_d_memory.c ****   return 0;
 242:..\..\..\u8g2\u8g2\csrc/u8g2_d_memory.c ****   #else
 243:..\..\..\u8g2\u8g2\csrc/u8g2_d_memory.c ****   static uint8_t buf[96];
 244:..\..\..\u8g2\u8g2\csrc/u8g2_d_memory.c ****   *page_cnt = 1;
 622              		.loc 1 244 0
 623 0000 0123     		movs	r3, #1
 624 0002 0370     		strb	r3, [r0]
 245:..\..\..\u8g2\u8g2\csrc/u8g2_d_memory.c ****   return buf;
 246:..\..\..\u8g2\u8g2\csrc/u8g2_d_memory.c ****   #endif
 247:..\..\..\u8g2\u8g2\csrc/u8g2_d_memory.c **** }
 625              		.loc 1 247 0
 626 0004 0048     		ldr	r0, .L65
 627              	.LVL43:
 628 0006 7047     		bx	lr
 629              	.L66:
 630              		.align	2
 631              	.L65:
 632 0008 983C0000 		.word	.LANCHOR3+2480
 633              		.cfi_endproc
 634              	.LFE21:
 635              		.size	u8g2_m_12_12_1, .-u8g2_m_12_12_1
 636              		.section	.text.u8g2_m_12_12_2,"ax",%progbits
 637              		.align	1
 638              		.global	u8g2_m_12_12_2
 639              		.thumb
 640              		.thumb_func
 641              		.type	u8g2_m_12_12_2, %function
 642              	u8g2_m_12_12_2:
 643              	.LFB22:
 248:..\..\..\u8g2\u8g2\csrc/u8g2_d_memory.c **** uint8_t *u8g2_m_12_12_2(uint8_t *page_cnt)
 249:..\..\..\u8g2\u8g2\csrc/u8g2_d_memory.c **** {
 644              		.loc 1 249 0
 645              		.cfi_startproc
 646              		@ args = 0, pretend = 0, frame = 0
 647              		@ frame_needed = 0, uses_anonymous_args = 0
 648              		@ link register save eliminated.
 649              	.LVL44:
 250:..\..\..\u8g2\u8g2\csrc/u8g2_d_memory.c ****   #ifdef U8G2_USE_DYNAMIC_ALLOC
 251:..\..\..\u8g2\u8g2\csrc/u8g2_d_memory.c ****   *page_cnt = 2;
 252:..\..\..\u8g2\u8g2\csrc/u8g2_d_memory.c ****   return 0;
 253:..\..\..\u8g2\u8g2\csrc/u8g2_d_memory.c ****   #else
 254:..\..\..\u8g2\u8g2\csrc/u8g2_d_memory.c ****   static uint8_t buf[192];
 255:..\..\..\u8g2\u8g2\csrc/u8g2_d_memory.c ****   *page_cnt = 2;
 650              		.loc 1 255 0
 651 0000 0223     		movs	r3, #2
 652 0002 0370     		strb	r3, [r0]
 256:..\..\..\u8g2\u8g2\csrc/u8g2_d_memory.c ****   return buf;
 257:..\..\..\u8g2\u8g2\csrc/u8g2_d_memory.c ****   #endif
 258:..\..\..\u8g2\u8g2\csrc/u8g2_d_memory.c **** }
 653              		.loc 1 258 0
 654 0004 0048     		ldr	r0, .L68
ARM GAS  C:\Users\jesse\AppData\Local\Temp\ccuy2FXa.s 			page 17


 655              	.LVL45:
 656 0006 7047     		bx	lr
 657              	.L69:
 658              		.align	2
 659              	.L68:
 660 0008 F83C0000 		.word	.LANCHOR3+2576
 661              		.cfi_endproc
 662              	.LFE22:
 663              		.size	u8g2_m_12_12_2, .-u8g2_m_12_12_2
 664              		.section	.text.u8g2_m_12_12_f,"ax",%progbits
 665              		.align	1
 666              		.global	u8g2_m_12_12_f
 667              		.thumb
 668              		.thumb_func
 669              		.type	u8g2_m_12_12_f, %function
 670              	u8g2_m_12_12_f:
 671              	.LFB23:
 259:..\..\..\u8g2\u8g2\csrc/u8g2_d_memory.c **** uint8_t *u8g2_m_12_12_f(uint8_t *page_cnt)
 260:..\..\..\u8g2\u8g2\csrc/u8g2_d_memory.c **** {
 672              		.loc 1 260 0
 673              		.cfi_startproc
 674              		@ args = 0, pretend = 0, frame = 0
 675              		@ frame_needed = 0, uses_anonymous_args = 0
 676              		@ link register save eliminated.
 677              	.LVL46:
 261:..\..\..\u8g2\u8g2\csrc/u8g2_d_memory.c ****   #ifdef U8G2_USE_DYNAMIC_ALLOC
 262:..\..\..\u8g2\u8g2\csrc/u8g2_d_memory.c ****   *page_cnt = 12;
 263:..\..\..\u8g2\u8g2\csrc/u8g2_d_memory.c ****   return 0;
 264:..\..\..\u8g2\u8g2\csrc/u8g2_d_memory.c ****   #else
 265:..\..\..\u8g2\u8g2\csrc/u8g2_d_memory.c ****   static uint8_t buf[1152];
 266:..\..\..\u8g2\u8g2\csrc/u8g2_d_memory.c ****   *page_cnt = 12;
 678              		.loc 1 266 0
 679 0000 0C23     		movs	r3, #12
 680 0002 0370     		strb	r3, [r0]
 267:..\..\..\u8g2\u8g2\csrc/u8g2_d_memory.c ****   return buf;
 268:..\..\..\u8g2\u8g2\csrc/u8g2_d_memory.c ****   #endif
 269:..\..\..\u8g2\u8g2\csrc/u8g2_d_memory.c **** }
 681              		.loc 1 269 0
 682 0004 0048     		ldr	r0, .L71
 683              	.LVL47:
 684 0006 7047     		bx	lr
 685              	.L72:
 686              		.align	2
 687              	.L71:
 688 0008 B83D0000 		.word	.LANCHOR3+2768
 689              		.cfi_endproc
 690              	.LFE23:
 691              		.size	u8g2_m_12_12_f, .-u8g2_m_12_12_f
 692              		.section	.text.u8g2_m_10_16_1,"ax",%progbits
 693              		.align	1
 694              		.global	u8g2_m_10_16_1
 695              		.thumb
 696              		.thumb_func
 697              		.type	u8g2_m_10_16_1, %function
 698              	u8g2_m_10_16_1:
 699              	.LFB24:
 270:..\..\..\u8g2\u8g2\csrc/u8g2_d_memory.c **** uint8_t *u8g2_m_10_16_1(uint8_t *page_cnt)
ARM GAS  C:\Users\jesse\AppData\Local\Temp\ccuy2FXa.s 			page 18


 271:..\..\..\u8g2\u8g2\csrc/u8g2_d_memory.c **** {
 700              		.loc 1 271 0
 701              		.cfi_startproc
 702              		@ args = 0, pretend = 0, frame = 0
 703              		@ frame_needed = 0, uses_anonymous_args = 0
 704              		@ link register save eliminated.
 705              	.LVL48:
 272:..\..\..\u8g2\u8g2\csrc/u8g2_d_memory.c ****   #ifdef U8G2_USE_DYNAMIC_ALLOC
 273:..\..\..\u8g2\u8g2\csrc/u8g2_d_memory.c ****   *page_cnt = 1;
 274:..\..\..\u8g2\u8g2\csrc/u8g2_d_memory.c ****   return 0;
 275:..\..\..\u8g2\u8g2\csrc/u8g2_d_memory.c ****   #else
 276:..\..\..\u8g2\u8g2\csrc/u8g2_d_memory.c ****   static uint8_t buf[80];
 277:..\..\..\u8g2\u8g2\csrc/u8g2_d_memory.c ****   *page_cnt = 1;
 706              		.loc 1 277 0
 707 0000 0123     		movs	r3, #1
 708 0002 0370     		strb	r3, [r0]
 278:..\..\..\u8g2\u8g2\csrc/u8g2_d_memory.c ****   return buf;
 279:..\..\..\u8g2\u8g2\csrc/u8g2_d_memory.c ****   #endif
 280:..\..\..\u8g2\u8g2\csrc/u8g2_d_memory.c **** }
 709              		.loc 1 280 0
 710 0004 0048     		ldr	r0, .L74
 711              	.LVL49:
 712 0006 7047     		bx	lr
 713              	.L75:
 714              		.align	2
 715              	.L74:
 716 0008 38420000 		.word	.LANCHOR3+3920
 717              		.cfi_endproc
 718              	.LFE24:
 719              		.size	u8g2_m_10_16_1, .-u8g2_m_10_16_1
 720              		.section	.text.u8g2_m_10_16_2,"ax",%progbits
 721              		.align	1
 722              		.global	u8g2_m_10_16_2
 723              		.thumb
 724              		.thumb_func
 725              		.type	u8g2_m_10_16_2, %function
 726              	u8g2_m_10_16_2:
 727              	.LFB25:
 281:..\..\..\u8g2\u8g2\csrc/u8g2_d_memory.c **** uint8_t *u8g2_m_10_16_2(uint8_t *page_cnt)
 282:..\..\..\u8g2\u8g2\csrc/u8g2_d_memory.c **** {
 728              		.loc 1 282 0
 729              		.cfi_startproc
 730              		@ args = 0, pretend = 0, frame = 0
 731              		@ frame_needed = 0, uses_anonymous_args = 0
 732              		@ link register save eliminated.
 733              	.LVL50:
 283:..\..\..\u8g2\u8g2\csrc/u8g2_d_memory.c ****   #ifdef U8G2_USE_DYNAMIC_ALLOC
 284:..\..\..\u8g2\u8g2\csrc/u8g2_d_memory.c ****   *page_cnt = 2;
 285:..\..\..\u8g2\u8g2\csrc/u8g2_d_memory.c ****   return 0;
 286:..\..\..\u8g2\u8g2\csrc/u8g2_d_memory.c ****   #else
 287:..\..\..\u8g2\u8g2\csrc/u8g2_d_memory.c ****   static uint8_t buf[160];
 288:..\..\..\u8g2\u8g2\csrc/u8g2_d_memory.c ****   *page_cnt = 2;
 734              		.loc 1 288 0
 735 0000 0223     		movs	r3, #2
 736 0002 0370     		strb	r3, [r0]
 289:..\..\..\u8g2\u8g2\csrc/u8g2_d_memory.c ****   return buf;
 290:..\..\..\u8g2\u8g2\csrc/u8g2_d_memory.c ****   #endif
ARM GAS  C:\Users\jesse\AppData\Local\Temp\ccuy2FXa.s 			page 19


 291:..\..\..\u8g2\u8g2\csrc/u8g2_d_memory.c **** }
 737              		.loc 1 291 0
 738 0004 0048     		ldr	r0, .L77
 739              	.LVL51:
 740 0006 7047     		bx	lr
 741              	.L78:
 742              		.align	2
 743              	.L77:
 744 0008 88420000 		.word	.LANCHOR3+4000
 745              		.cfi_endproc
 746              	.LFE25:
 747              		.size	u8g2_m_10_16_2, .-u8g2_m_10_16_2
 748              		.section	.text.u8g2_m_10_16_f,"ax",%progbits
 749              		.align	1
 750              		.global	u8g2_m_10_16_f
 751              		.thumb
 752              		.thumb_func
 753              		.type	u8g2_m_10_16_f, %function
 754              	u8g2_m_10_16_f:
 755              	.LFB26:
 292:..\..\..\u8g2\u8g2\csrc/u8g2_d_memory.c **** uint8_t *u8g2_m_10_16_f(uint8_t *page_cnt)
 293:..\..\..\u8g2\u8g2\csrc/u8g2_d_memory.c **** {
 756              		.loc 1 293 0
 757              		.cfi_startproc
 758              		@ args = 0, pretend = 0, frame = 0
 759              		@ frame_needed = 0, uses_anonymous_args = 0
 760              		@ link register save eliminated.
 761              	.LVL52:
 294:..\..\..\u8g2\u8g2\csrc/u8g2_d_memory.c ****   #ifdef U8G2_USE_DYNAMIC_ALLOC
 295:..\..\..\u8g2\u8g2\csrc/u8g2_d_memory.c ****   *page_cnt = 16;
 296:..\..\..\u8g2\u8g2\csrc/u8g2_d_memory.c ****   return 0;
 297:..\..\..\u8g2\u8g2\csrc/u8g2_d_memory.c ****   #else
 298:..\..\..\u8g2\u8g2\csrc/u8g2_d_memory.c ****   static uint8_t buf[1280];
 299:..\..\..\u8g2\u8g2\csrc/u8g2_d_memory.c ****   *page_cnt = 16;
 762              		.loc 1 299 0
 763 0000 1023     		movs	r3, #16
 764 0002 0370     		strb	r3, [r0]
 300:..\..\..\u8g2\u8g2\csrc/u8g2_d_memory.c ****   return buf;
 301:..\..\..\u8g2\u8g2\csrc/u8g2_d_memory.c ****   #endif
 302:..\..\..\u8g2\u8g2\csrc/u8g2_d_memory.c **** }
 765              		.loc 1 302 0
 766 0004 0048     		ldr	r0, .L80
 767              	.LVL53:
 768 0006 7047     		bx	lr
 769              	.L81:
 770              		.align	2
 771              	.L80:
 772 0008 28430000 		.word	.LANCHOR4-184
 773              		.cfi_endproc
 774              	.LFE26:
 775              		.size	u8g2_m_10_16_f, .-u8g2_m_10_16_f
 776              		.section	.text.u8g2_m_16_16_1,"ax",%progbits
 777              		.align	1
 778              		.global	u8g2_m_16_16_1
 779              		.thumb
 780              		.thumb_func
 781              		.type	u8g2_m_16_16_1, %function
ARM GAS  C:\Users\jesse\AppData\Local\Temp\ccuy2FXa.s 			page 20


 782              	u8g2_m_16_16_1:
 783              	.LFB27:
 303:..\..\..\u8g2\u8g2\csrc/u8g2_d_memory.c **** uint8_t *u8g2_m_16_16_1(uint8_t *page_cnt)
 304:..\..\..\u8g2\u8g2\csrc/u8g2_d_memory.c **** {
 784              		.loc 1 304 0
 785              		.cfi_startproc
 786              		@ args = 0, pretend = 0, frame = 0
 787              		@ frame_needed = 0, uses_anonymous_args = 0
 788              		@ link register save eliminated.
 789              	.LVL54:
 305:..\..\..\u8g2\u8g2\csrc/u8g2_d_memory.c ****   #ifdef U8G2_USE_DYNAMIC_ALLOC
 306:..\..\..\u8g2\u8g2\csrc/u8g2_d_memory.c ****   *page_cnt = 1;
 307:..\..\..\u8g2\u8g2\csrc/u8g2_d_memory.c ****   return 0;
 308:..\..\..\u8g2\u8g2\csrc/u8g2_d_memory.c ****   #else
 309:..\..\..\u8g2\u8g2\csrc/u8g2_d_memory.c ****   static uint8_t buf[128];
 310:..\..\..\u8g2\u8g2\csrc/u8g2_d_memory.c ****   *page_cnt = 1;
 790              		.loc 1 310 0
 791 0000 0123     		movs	r3, #1
 792 0002 0370     		strb	r3, [r0]
 311:..\..\..\u8g2\u8g2\csrc/u8g2_d_memory.c ****   return buf;
 312:..\..\..\u8g2\u8g2\csrc/u8g2_d_memory.c ****   #endif
 313:..\..\..\u8g2\u8g2\csrc/u8g2_d_memory.c **** }
 793              		.loc 1 313 0
 794 0004 0048     		ldr	r0, .L83
 795              	.LVL55:
 796 0006 7047     		bx	lr
 797              	.L84:
 798              		.align	2
 799              	.L83:
 800 0008 28480000 		.word	.LANCHOR4+1096
 801              		.cfi_endproc
 802              	.LFE27:
 803              		.size	u8g2_m_16_16_1, .-u8g2_m_16_16_1
 804              		.section	.text.u8g2_m_16_16_2,"ax",%progbits
 805              		.align	1
 806              		.global	u8g2_m_16_16_2
 807              		.thumb
 808              		.thumb_func
 809              		.type	u8g2_m_16_16_2, %function
 810              	u8g2_m_16_16_2:
 811              	.LFB28:
 314:..\..\..\u8g2\u8g2\csrc/u8g2_d_memory.c **** uint8_t *u8g2_m_16_16_2(uint8_t *page_cnt)
 315:..\..\..\u8g2\u8g2\csrc/u8g2_d_memory.c **** {
 812              		.loc 1 315 0
 813              		.cfi_startproc
 814              		@ args = 0, pretend = 0, frame = 0
 815              		@ frame_needed = 0, uses_anonymous_args = 0
 816              		@ link register save eliminated.
 817              	.LVL56:
 316:..\..\..\u8g2\u8g2\csrc/u8g2_d_memory.c ****   #ifdef U8G2_USE_DYNAMIC_ALLOC
 317:..\..\..\u8g2\u8g2\csrc/u8g2_d_memory.c ****   *page_cnt = 2;
 318:..\..\..\u8g2\u8g2\csrc/u8g2_d_memory.c ****   return 0;
 319:..\..\..\u8g2\u8g2\csrc/u8g2_d_memory.c ****   #else
 320:..\..\..\u8g2\u8g2\csrc/u8g2_d_memory.c ****   static uint8_t buf[256];
 321:..\..\..\u8g2\u8g2\csrc/u8g2_d_memory.c ****   *page_cnt = 2;
 818              		.loc 1 321 0
 819 0000 0223     		movs	r3, #2
ARM GAS  C:\Users\jesse\AppData\Local\Temp\ccuy2FXa.s 			page 21


 820 0002 0370     		strb	r3, [r0]
 322:..\..\..\u8g2\u8g2\csrc/u8g2_d_memory.c ****   return buf;
 323:..\..\..\u8g2\u8g2\csrc/u8g2_d_memory.c ****   #endif
 324:..\..\..\u8g2\u8g2\csrc/u8g2_d_memory.c **** }
 821              		.loc 1 324 0
 822 0004 0048     		ldr	r0, .L86
 823              	.LVL57:
 824 0006 7047     		bx	lr
 825              	.L87:
 826              		.align	2
 827              	.L86:
 828 0008 A8480000 		.word	.LANCHOR4+1224
 829              		.cfi_endproc
 830              	.LFE28:
 831              		.size	u8g2_m_16_16_2, .-u8g2_m_16_16_2
 832              		.section	.text.u8g2_m_16_16_f,"ax",%progbits
 833              		.align	1
 834              		.global	u8g2_m_16_16_f
 835              		.thumb
 836              		.thumb_func
 837              		.type	u8g2_m_16_16_f, %function
 838              	u8g2_m_16_16_f:
 839              	.LFB29:
 325:..\..\..\u8g2\u8g2\csrc/u8g2_d_memory.c **** uint8_t *u8g2_m_16_16_f(uint8_t *page_cnt)
 326:..\..\..\u8g2\u8g2\csrc/u8g2_d_memory.c **** {
 840              		.loc 1 326 0
 841              		.cfi_startproc
 842              		@ args = 0, pretend = 0, frame = 0
 843              		@ frame_needed = 0, uses_anonymous_args = 0
 844              		@ link register save eliminated.
 845              	.LVL58:
 327:..\..\..\u8g2\u8g2\csrc/u8g2_d_memory.c ****   #ifdef U8G2_USE_DYNAMIC_ALLOC
 328:..\..\..\u8g2\u8g2\csrc/u8g2_d_memory.c ****   *page_cnt = 16;
 329:..\..\..\u8g2\u8g2\csrc/u8g2_d_memory.c ****   return 0;
 330:..\..\..\u8g2\u8g2\csrc/u8g2_d_memory.c ****   #else
 331:..\..\..\u8g2\u8g2\csrc/u8g2_d_memory.c ****   static uint8_t buf[2048];
 332:..\..\..\u8g2\u8g2\csrc/u8g2_d_memory.c ****   *page_cnt = 16;
 846              		.loc 1 332 0
 847 0000 1023     		movs	r3, #16
 848 0002 0370     		strb	r3, [r0]
 333:..\..\..\u8g2\u8g2\csrc/u8g2_d_memory.c ****   return buf;
 334:..\..\..\u8g2\u8g2\csrc/u8g2_d_memory.c ****   #endif
 335:..\..\..\u8g2\u8g2\csrc/u8g2_d_memory.c **** }
 849              		.loc 1 335 0
 850 0004 0048     		ldr	r0, .L89
 851              	.LVL59:
 852 0006 7047     		bx	lr
 853              	.L90:
 854              		.align	2
 855              	.L89:
 856 0008 A8490000 		.word	.LANCHOR4+1480
 857              		.cfi_endproc
 858              	.LFE29:
 859              		.size	u8g2_m_16_16_f, .-u8g2_m_16_16_f
 860              		.section	.text.u8g2_m_20_20_1,"ax",%progbits
 861              		.align	1
 862              		.global	u8g2_m_20_20_1
ARM GAS  C:\Users\jesse\AppData\Local\Temp\ccuy2FXa.s 			page 22


 863              		.thumb
 864              		.thumb_func
 865              		.type	u8g2_m_20_20_1, %function
 866              	u8g2_m_20_20_1:
 867              	.LFB30:
 336:..\..\..\u8g2\u8g2\csrc/u8g2_d_memory.c **** uint8_t *u8g2_m_20_20_1(uint8_t *page_cnt)
 337:..\..\..\u8g2\u8g2\csrc/u8g2_d_memory.c **** {
 868              		.loc 1 337 0
 869              		.cfi_startproc
 870              		@ args = 0, pretend = 0, frame = 0
 871              		@ frame_needed = 0, uses_anonymous_args = 0
 872              		@ link register save eliminated.
 873              	.LVL60:
 338:..\..\..\u8g2\u8g2\csrc/u8g2_d_memory.c ****   #ifdef U8G2_USE_DYNAMIC_ALLOC
 339:..\..\..\u8g2\u8g2\csrc/u8g2_d_memory.c ****   *page_cnt = 1;
 340:..\..\..\u8g2\u8g2\csrc/u8g2_d_memory.c ****   return 0;
 341:..\..\..\u8g2\u8g2\csrc/u8g2_d_memory.c ****   #else
 342:..\..\..\u8g2\u8g2\csrc/u8g2_d_memory.c ****   static uint8_t buf[160];
 343:..\..\..\u8g2\u8g2\csrc/u8g2_d_memory.c ****   *page_cnt = 1;
 874              		.loc 1 343 0
 875 0000 0123     		movs	r3, #1
 876 0002 0370     		strb	r3, [r0]
 344:..\..\..\u8g2\u8g2\csrc/u8g2_d_memory.c ****   return buf;
 345:..\..\..\u8g2\u8g2\csrc/u8g2_d_memory.c ****   #endif
 346:..\..\..\u8g2\u8g2\csrc/u8g2_d_memory.c **** }
 877              		.loc 1 346 0
 878 0004 0048     		ldr	r0, .L92
 879              	.LVL61:
 880 0006 7047     		bx	lr
 881              	.L93:
 882              		.align	2
 883              	.L92:
 884 0008 A8510000 		.word	.LANCHOR4+3528
 885              		.cfi_endproc
 886              	.LFE30:
 887              		.size	u8g2_m_20_20_1, .-u8g2_m_20_20_1
 888              		.section	.text.u8g2_m_20_20_2,"ax",%progbits
 889              		.align	1
 890              		.global	u8g2_m_20_20_2
 891              		.thumb
 892              		.thumb_func
 893              		.type	u8g2_m_20_20_2, %function
 894              	u8g2_m_20_20_2:
 895              	.LFB31:
 347:..\..\..\u8g2\u8g2\csrc/u8g2_d_memory.c **** uint8_t *u8g2_m_20_20_2(uint8_t *page_cnt)
 348:..\..\..\u8g2\u8g2\csrc/u8g2_d_memory.c **** {
 896              		.loc 1 348 0
 897              		.cfi_startproc
 898              		@ args = 0, pretend = 0, frame = 0
 899              		@ frame_needed = 0, uses_anonymous_args = 0
 900              		@ link register save eliminated.
 901              	.LVL62:
 349:..\..\..\u8g2\u8g2\csrc/u8g2_d_memory.c ****   #ifdef U8G2_USE_DYNAMIC_ALLOC
 350:..\..\..\u8g2\u8g2\csrc/u8g2_d_memory.c ****   *page_cnt = 2;
 351:..\..\..\u8g2\u8g2\csrc/u8g2_d_memory.c ****   return 0;
 352:..\..\..\u8g2\u8g2\csrc/u8g2_d_memory.c ****   #else
 353:..\..\..\u8g2\u8g2\csrc/u8g2_d_memory.c ****   static uint8_t buf[320];
ARM GAS  C:\Users\jesse\AppData\Local\Temp\ccuy2FXa.s 			page 23


 354:..\..\..\u8g2\u8g2\csrc/u8g2_d_memory.c ****   *page_cnt = 2;
 902              		.loc 1 354 0
 903 0000 0223     		movs	r3, #2
 904 0002 0370     		strb	r3, [r0]
 355:..\..\..\u8g2\u8g2\csrc/u8g2_d_memory.c ****   return buf;
 356:..\..\..\u8g2\u8g2\csrc/u8g2_d_memory.c ****   #endif
 357:..\..\..\u8g2\u8g2\csrc/u8g2_d_memory.c **** }
 905              		.loc 1 357 0
 906 0004 0048     		ldr	r0, .L95
 907              	.LVL63:
 908 0006 7047     		bx	lr
 909              	.L96:
 910              		.align	2
 911              	.L95:
 912 0008 48520000 		.word	.LANCHOR4+3688
 913              		.cfi_endproc
 914              	.LFE31:
 915              		.size	u8g2_m_20_20_2, .-u8g2_m_20_20_2
 916              		.section	.text.u8g2_m_20_20_f,"ax",%progbits
 917              		.align	1
 918              		.global	u8g2_m_20_20_f
 919              		.thumb
 920              		.thumb_func
 921              		.type	u8g2_m_20_20_f, %function
 922              	u8g2_m_20_20_f:
 923              	.LFB32:
 358:..\..\..\u8g2\u8g2\csrc/u8g2_d_memory.c **** uint8_t *u8g2_m_20_20_f(uint8_t *page_cnt)
 359:..\..\..\u8g2\u8g2\csrc/u8g2_d_memory.c **** {
 924              		.loc 1 359 0
 925              		.cfi_startproc
 926              		@ args = 0, pretend = 0, frame = 0
 927              		@ frame_needed = 0, uses_anonymous_args = 0
 928              		@ link register save eliminated.
 929              	.LVL64:
 360:..\..\..\u8g2\u8g2\csrc/u8g2_d_memory.c ****   #ifdef U8G2_USE_DYNAMIC_ALLOC
 361:..\..\..\u8g2\u8g2\csrc/u8g2_d_memory.c ****   *page_cnt = 20;
 362:..\..\..\u8g2\u8g2\csrc/u8g2_d_memory.c ****   return 0;
 363:..\..\..\u8g2\u8g2\csrc/u8g2_d_memory.c ****   #else
 364:..\..\..\u8g2\u8g2\csrc/u8g2_d_memory.c ****   static uint8_t buf[3200];
 365:..\..\..\u8g2\u8g2\csrc/u8g2_d_memory.c ****   *page_cnt = 20;
 930              		.loc 1 365 0
 931 0000 1423     		movs	r3, #20
 932 0002 0370     		strb	r3, [r0]
 366:..\..\..\u8g2\u8g2\csrc/u8g2_d_memory.c ****   return buf;
 367:..\..\..\u8g2\u8g2\csrc/u8g2_d_memory.c ****   #endif
 368:..\..\..\u8g2\u8g2\csrc/u8g2_d_memory.c **** }
 933              		.loc 1 368 0
 934 0004 0048     		ldr	r0, .L98
 935              	.LVL65:
 936 0006 7047     		bx	lr
 937              	.L99:
 938              		.align	2
 939              	.L98:
 940 0008 88530000 		.word	.LANCHOR4+4008
 941              		.cfi_endproc
 942              	.LFE32:
 943              		.size	u8g2_m_20_20_f, .-u8g2_m_20_20_f
ARM GAS  C:\Users\jesse\AppData\Local\Temp\ccuy2FXa.s 			page 24


 944              		.section	.text.u8g2_m_32_8_1,"ax",%progbits
 945              		.align	1
 946              		.global	u8g2_m_32_8_1
 947              		.thumb
 948              		.thumb_func
 949              		.type	u8g2_m_32_8_1, %function
 950              	u8g2_m_32_8_1:
 951              	.LFB33:
 369:..\..\..\u8g2\u8g2\csrc/u8g2_d_memory.c **** uint8_t *u8g2_m_32_8_1(uint8_t *page_cnt)
 370:..\..\..\u8g2\u8g2\csrc/u8g2_d_memory.c **** {
 952              		.loc 1 370 0
 953              		.cfi_startproc
 954              		@ args = 0, pretend = 0, frame = 0
 955              		@ frame_needed = 0, uses_anonymous_args = 0
 956              		@ link register save eliminated.
 957              	.LVL66:
 371:..\..\..\u8g2\u8g2\csrc/u8g2_d_memory.c ****   #ifdef U8G2_USE_DYNAMIC_ALLOC
 372:..\..\..\u8g2\u8g2\csrc/u8g2_d_memory.c ****   *page_cnt = 1;
 373:..\..\..\u8g2\u8g2\csrc/u8g2_d_memory.c ****   return 0;
 374:..\..\..\u8g2\u8g2\csrc/u8g2_d_memory.c ****   #else
 375:..\..\..\u8g2\u8g2\csrc/u8g2_d_memory.c ****   static uint8_t buf[256];
 376:..\..\..\u8g2\u8g2\csrc/u8g2_d_memory.c ****   *page_cnt = 1;
 958              		.loc 1 376 0
 959 0000 0123     		movs	r3, #1
 960 0002 0370     		strb	r3, [r0]
 377:..\..\..\u8g2\u8g2\csrc/u8g2_d_memory.c ****   return buf;
 378:..\..\..\u8g2\u8g2\csrc/u8g2_d_memory.c ****   #endif
 379:..\..\..\u8g2\u8g2\csrc/u8g2_d_memory.c **** }
 961              		.loc 1 379 0
 962 0004 0048     		ldr	r0, .L101
 963              	.LVL67:
 964 0006 7047     		bx	lr
 965              	.L102:
 966              		.align	2
 967              	.L101:
 968 0008 08600000 		.word	.LANCHOR5+2864
 969              		.cfi_endproc
 970              	.LFE33:
 971              		.size	u8g2_m_32_8_1, .-u8g2_m_32_8_1
 972              		.section	.text.u8g2_m_32_8_2,"ax",%progbits
 973              		.align	1
 974              		.global	u8g2_m_32_8_2
 975              		.thumb
 976              		.thumb_func
 977              		.type	u8g2_m_32_8_2, %function
 978              	u8g2_m_32_8_2:
 979              	.LFB34:
 380:..\..\..\u8g2\u8g2\csrc/u8g2_d_memory.c **** uint8_t *u8g2_m_32_8_2(uint8_t *page_cnt)
 381:..\..\..\u8g2\u8g2\csrc/u8g2_d_memory.c **** {
 980              		.loc 1 381 0
 981              		.cfi_startproc
 982              		@ args = 0, pretend = 0, frame = 0
 983              		@ frame_needed = 0, uses_anonymous_args = 0
 984              		@ link register save eliminated.
 985              	.LVL68:
 382:..\..\..\u8g2\u8g2\csrc/u8g2_d_memory.c ****   #ifdef U8G2_USE_DYNAMIC_ALLOC
 383:..\..\..\u8g2\u8g2\csrc/u8g2_d_memory.c ****   *page_cnt = 2;
ARM GAS  C:\Users\jesse\AppData\Local\Temp\ccuy2FXa.s 			page 25


 384:..\..\..\u8g2\u8g2\csrc/u8g2_d_memory.c ****   return 0;
 385:..\..\..\u8g2\u8g2\csrc/u8g2_d_memory.c ****   #else
 386:..\..\..\u8g2\u8g2\csrc/u8g2_d_memory.c ****   static uint8_t buf[512];
 387:..\..\..\u8g2\u8g2\csrc/u8g2_d_memory.c ****   *page_cnt = 2;
 986              		.loc 1 387 0
 987 0000 0223     		movs	r3, #2
 988 0002 0370     		strb	r3, [r0]
 388:..\..\..\u8g2\u8g2\csrc/u8g2_d_memory.c ****   return buf;
 389:..\..\..\u8g2\u8g2\csrc/u8g2_d_memory.c ****   #endif
 390:..\..\..\u8g2\u8g2\csrc/u8g2_d_memory.c **** }
 989              		.loc 1 390 0
 990 0004 0048     		ldr	r0, .L104
 991              	.LVL69:
 992 0006 7047     		bx	lr
 993              	.L105:
 994              		.align	2
 995              	.L104:
 996 0008 08610000 		.word	.LANCHOR5+3120
 997              		.cfi_endproc
 998              	.LFE34:
 999              		.size	u8g2_m_32_8_2, .-u8g2_m_32_8_2
 1000              		.section	.text.u8g2_m_32_8_f,"ax",%progbits
 1001              		.align	1
 1002              		.global	u8g2_m_32_8_f
 1003              		.thumb
 1004              		.thumb_func
 1005              		.type	u8g2_m_32_8_f, %function
 1006              	u8g2_m_32_8_f:
 1007              	.LFB35:
 391:..\..\..\u8g2\u8g2\csrc/u8g2_d_memory.c **** uint8_t *u8g2_m_32_8_f(uint8_t *page_cnt)
 392:..\..\..\u8g2\u8g2\csrc/u8g2_d_memory.c **** {
 1008              		.loc 1 392 0
 1009              		.cfi_startproc
 1010              		@ args = 0, pretend = 0, frame = 0
 1011              		@ frame_needed = 0, uses_anonymous_args = 0
 1012              		@ link register save eliminated.
 1013              	.LVL70:
 393:..\..\..\u8g2\u8g2\csrc/u8g2_d_memory.c ****   #ifdef U8G2_USE_DYNAMIC_ALLOC
 394:..\..\..\u8g2\u8g2\csrc/u8g2_d_memory.c ****   *page_cnt = 8;
 395:..\..\..\u8g2\u8g2\csrc/u8g2_d_memory.c ****   return 0;
 396:..\..\..\u8g2\u8g2\csrc/u8g2_d_memory.c ****   #else
 397:..\..\..\u8g2\u8g2\csrc/u8g2_d_memory.c ****   static uint8_t buf[2048];
 398:..\..\..\u8g2\u8g2\csrc/u8g2_d_memory.c ****   *page_cnt = 8;
 1014              		.loc 1 398 0
 1015 0000 0823     		movs	r3, #8
 1016 0002 0370     		strb	r3, [r0]
 399:..\..\..\u8g2\u8g2\csrc/u8g2_d_memory.c ****   return buf;
 400:..\..\..\u8g2\u8g2\csrc/u8g2_d_memory.c ****   #endif
 401:..\..\..\u8g2\u8g2\csrc/u8g2_d_memory.c **** }
 1017              		.loc 1 401 0
 1018 0004 0048     		ldr	r0, .L107
 1019              	.LVL71:
 1020 0006 7047     		bx	lr
 1021              	.L108:
 1022              		.align	2
 1023              	.L107:
 1024 0008 08630000 		.word	.LANCHOR5+3632
ARM GAS  C:\Users\jesse\AppData\Local\Temp\ccuy2FXa.s 			page 26


 1025              		.cfi_endproc
 1026              	.LFE35:
 1027              		.size	u8g2_m_32_8_f, .-u8g2_m_32_8_f
 1028              		.section	.text.u8g2_m_13_8_1,"ax",%progbits
 1029              		.align	1
 1030              		.global	u8g2_m_13_8_1
 1031              		.thumb
 1032              		.thumb_func
 1033              		.type	u8g2_m_13_8_1, %function
 1034              	u8g2_m_13_8_1:
 1035              	.LFB36:
 402:..\..\..\u8g2\u8g2\csrc/u8g2_d_memory.c **** uint8_t *u8g2_m_13_8_1(uint8_t *page_cnt)
 403:..\..\..\u8g2\u8g2\csrc/u8g2_d_memory.c **** {
 1036              		.loc 1 403 0
 1037              		.cfi_startproc
 1038              		@ args = 0, pretend = 0, frame = 0
 1039              		@ frame_needed = 0, uses_anonymous_args = 0
 1040              		@ link register save eliminated.
 1041              	.LVL72:
 404:..\..\..\u8g2\u8g2\csrc/u8g2_d_memory.c ****   #ifdef U8G2_USE_DYNAMIC_ALLOC
 405:..\..\..\u8g2\u8g2\csrc/u8g2_d_memory.c ****   *page_cnt = 1;
 406:..\..\..\u8g2\u8g2\csrc/u8g2_d_memory.c ****   return 0;
 407:..\..\..\u8g2\u8g2\csrc/u8g2_d_memory.c ****   #else
 408:..\..\..\u8g2\u8g2\csrc/u8g2_d_memory.c ****   static uint8_t buf[104];
 409:..\..\..\u8g2\u8g2\csrc/u8g2_d_memory.c ****   *page_cnt = 1;
 1042              		.loc 1 409 0
 1043 0000 0123     		movs	r3, #1
 1044 0002 0370     		strb	r3, [r0]
 410:..\..\..\u8g2\u8g2\csrc/u8g2_d_memory.c ****   return buf;
 411:..\..\..\u8g2\u8g2\csrc/u8g2_d_memory.c ****   #endif
 412:..\..\..\u8g2\u8g2\csrc/u8g2_d_memory.c **** }
 1045              		.loc 1 412 0
 1046 0004 0048     		ldr	r0, .L110
 1047              	.LVL73:
 1048 0006 7047     		bx	lr
 1049              	.L111:
 1050              		.align	2
 1051              	.L110:
 1052 0008 086B0000 		.word	.LANCHOR6+1336
 1053              		.cfi_endproc
 1054              	.LFE36:
 1055              		.size	u8g2_m_13_8_1, .-u8g2_m_13_8_1
 1056              		.section	.text.u8g2_m_13_8_2,"ax",%progbits
 1057              		.align	1
 1058              		.global	u8g2_m_13_8_2
 1059              		.thumb
 1060              		.thumb_func
 1061              		.type	u8g2_m_13_8_2, %function
 1062              	u8g2_m_13_8_2:
 1063              	.LFB37:
 413:..\..\..\u8g2\u8g2\csrc/u8g2_d_memory.c **** uint8_t *u8g2_m_13_8_2(uint8_t *page_cnt)
 414:..\..\..\u8g2\u8g2\csrc/u8g2_d_memory.c **** {
 1064              		.loc 1 414 0
 1065              		.cfi_startproc
 1066              		@ args = 0, pretend = 0, frame = 0
 1067              		@ frame_needed = 0, uses_anonymous_args = 0
 1068              		@ link register save eliminated.
ARM GAS  C:\Users\jesse\AppData\Local\Temp\ccuy2FXa.s 			page 27


 1069              	.LVL74:
 415:..\..\..\u8g2\u8g2\csrc/u8g2_d_memory.c ****   #ifdef U8G2_USE_DYNAMIC_ALLOC
 416:..\..\..\u8g2\u8g2\csrc/u8g2_d_memory.c ****   *page_cnt = 2;
 417:..\..\..\u8g2\u8g2\csrc/u8g2_d_memory.c ****   return 0;
 418:..\..\..\u8g2\u8g2\csrc/u8g2_d_memory.c ****   #else
 419:..\..\..\u8g2\u8g2\csrc/u8g2_d_memory.c ****   static uint8_t buf[208];
 420:..\..\..\u8g2\u8g2\csrc/u8g2_d_memory.c ****   *page_cnt = 2;
 1070              		.loc 1 420 0
 1071 0000 0223     		movs	r3, #2
 1072 0002 0370     		strb	r3, [r0]
 421:..\..\..\u8g2\u8g2\csrc/u8g2_d_memory.c ****   return buf;
 422:..\..\..\u8g2\u8g2\csrc/u8g2_d_memory.c ****   #endif
 423:..\..\..\u8g2\u8g2\csrc/u8g2_d_memory.c **** }
 1073              		.loc 1 423 0
 1074 0004 0048     		ldr	r0, .L113
 1075              	.LVL75:
 1076 0006 7047     		bx	lr
 1077              	.L114:
 1078              		.align	2
 1079              	.L113:
 1080 0008 706B0000 		.word	.LANCHOR6+1440
 1081              		.cfi_endproc
 1082              	.LFE37:
 1083              		.size	u8g2_m_13_8_2, .-u8g2_m_13_8_2
 1084              		.section	.text.u8g2_m_13_8_f,"ax",%progbits
 1085              		.align	1
 1086              		.global	u8g2_m_13_8_f
 1087              		.thumb
 1088              		.thumb_func
 1089              		.type	u8g2_m_13_8_f, %function
 1090              	u8g2_m_13_8_f:
 1091              	.LFB38:
 424:..\..\..\u8g2\u8g2\csrc/u8g2_d_memory.c **** uint8_t *u8g2_m_13_8_f(uint8_t *page_cnt)
 425:..\..\..\u8g2\u8g2\csrc/u8g2_d_memory.c **** {
 1092              		.loc 1 425 0
 1093              		.cfi_startproc
 1094              		@ args = 0, pretend = 0, frame = 0
 1095              		@ frame_needed = 0, uses_anonymous_args = 0
 1096              		@ link register save eliminated.
 1097              	.LVL76:
 426:..\..\..\u8g2\u8g2\csrc/u8g2_d_memory.c ****   #ifdef U8G2_USE_DYNAMIC_ALLOC
 427:..\..\..\u8g2\u8g2\csrc/u8g2_d_memory.c ****   *page_cnt = 8;
 428:..\..\..\u8g2\u8g2\csrc/u8g2_d_memory.c ****   return 0;
 429:..\..\..\u8g2\u8g2\csrc/u8g2_d_memory.c ****   #else
 430:..\..\..\u8g2\u8g2\csrc/u8g2_d_memory.c ****   static uint8_t buf[832];
 431:..\..\..\u8g2\u8g2\csrc/u8g2_d_memory.c ****   *page_cnt = 8;
 1098              		.loc 1 431 0
 1099 0000 0823     		movs	r3, #8
 1100 0002 0370     		strb	r3, [r0]
 432:..\..\..\u8g2\u8g2\csrc/u8g2_d_memory.c ****   return buf;
 433:..\..\..\u8g2\u8g2\csrc/u8g2_d_memory.c ****   #endif
 434:..\..\..\u8g2\u8g2\csrc/u8g2_d_memory.c **** }
 1101              		.loc 1 434 0
 1102 0004 0048     		ldr	r0, .L116
 1103              	.LVL77:
 1104 0006 7047     		bx	lr
 1105              	.L117:
ARM GAS  C:\Users\jesse\AppData\Local\Temp\ccuy2FXa.s 			page 28


 1106              		.align	2
 1107              	.L116:
 1108 0008 406C0000 		.word	.LANCHOR6+1648
 1109              		.cfi_endproc
 1110              	.LFE38:
 1111              		.size	u8g2_m_13_8_f, .-u8g2_m_13_8_f
 1112              		.section	.text.u8g2_m_8_6_1,"ax",%progbits
 1113              		.align	1
 1114              		.global	u8g2_m_8_6_1
 1115              		.thumb
 1116              		.thumb_func
 1117              		.type	u8g2_m_8_6_1, %function
 1118              	u8g2_m_8_6_1:
 1119              	.LFB39:
 435:..\..\..\u8g2\u8g2\csrc/u8g2_d_memory.c **** uint8_t *u8g2_m_8_6_1(uint8_t *page_cnt)
 436:..\..\..\u8g2\u8g2\csrc/u8g2_d_memory.c **** {
 1120              		.loc 1 436 0
 1121              		.cfi_startproc
 1122              		@ args = 0, pretend = 0, frame = 0
 1123              		@ frame_needed = 0, uses_anonymous_args = 0
 1124              		@ link register save eliminated.
 1125              	.LVL78:
 437:..\..\..\u8g2\u8g2\csrc/u8g2_d_memory.c ****   #ifdef U8G2_USE_DYNAMIC_ALLOC
 438:..\..\..\u8g2\u8g2\csrc/u8g2_d_memory.c ****   *page_cnt = 1;
 439:..\..\..\u8g2\u8g2\csrc/u8g2_d_memory.c ****   return 0;
 440:..\..\..\u8g2\u8g2\csrc/u8g2_d_memory.c ****   #else
 441:..\..\..\u8g2\u8g2\csrc/u8g2_d_memory.c ****   static uint8_t buf[64];
 442:..\..\..\u8g2\u8g2\csrc/u8g2_d_memory.c ****   *page_cnt = 1;
 1126              		.loc 1 442 0
 1127 0000 0123     		movs	r3, #1
 1128 0002 0370     		strb	r3, [r0]
 443:..\..\..\u8g2\u8g2\csrc/u8g2_d_memory.c ****   return buf;
 444:..\..\..\u8g2\u8g2\csrc/u8g2_d_memory.c ****   #endif
 445:..\..\..\u8g2\u8g2\csrc/u8g2_d_memory.c **** }
 1129              		.loc 1 445 0
 1130 0004 0048     		ldr	r0, .L119
 1131              	.LVL79:
 1132 0006 7047     		bx	lr
 1133              	.L120:
 1134              		.align	2
 1135              	.L119:
 1136 0008 806F0000 		.word	.LANCHOR6+2480
 1137              		.cfi_endproc
 1138              	.LFE39:
 1139              		.size	u8g2_m_8_6_1, .-u8g2_m_8_6_1
 1140              		.section	.text.u8g2_m_8_6_2,"ax",%progbits
 1141              		.align	1
 1142              		.global	u8g2_m_8_6_2
 1143              		.thumb
 1144              		.thumb_func
 1145              		.type	u8g2_m_8_6_2, %function
 1146              	u8g2_m_8_6_2:
 1147              	.LFB40:
 446:..\..\..\u8g2\u8g2\csrc/u8g2_d_memory.c **** uint8_t *u8g2_m_8_6_2(uint8_t *page_cnt)
 447:..\..\..\u8g2\u8g2\csrc/u8g2_d_memory.c **** {
 1148              		.loc 1 447 0
 1149              		.cfi_startproc
ARM GAS  C:\Users\jesse\AppData\Local\Temp\ccuy2FXa.s 			page 29


 1150              		@ args = 0, pretend = 0, frame = 0
 1151              		@ frame_needed = 0, uses_anonymous_args = 0
 1152              		@ link register save eliminated.
 1153              	.LVL80:
 448:..\..\..\u8g2\u8g2\csrc/u8g2_d_memory.c ****   #ifdef U8G2_USE_DYNAMIC_ALLOC
 449:..\..\..\u8g2\u8g2\csrc/u8g2_d_memory.c ****   *page_cnt = 2;
 450:..\..\..\u8g2\u8g2\csrc/u8g2_d_memory.c ****   return 0;
 451:..\..\..\u8g2\u8g2\csrc/u8g2_d_memory.c ****   #else
 452:..\..\..\u8g2\u8g2\csrc/u8g2_d_memory.c ****   static uint8_t buf[128];
 453:..\..\..\u8g2\u8g2\csrc/u8g2_d_memory.c ****   *page_cnt = 2;
 1154              		.loc 1 453 0
 1155 0000 0223     		movs	r3, #2
 1156 0002 0370     		strb	r3, [r0]
 454:..\..\..\u8g2\u8g2\csrc/u8g2_d_memory.c ****   return buf;
 455:..\..\..\u8g2\u8g2\csrc/u8g2_d_memory.c ****   #endif
 456:..\..\..\u8g2\u8g2\csrc/u8g2_d_memory.c **** }
 1157              		.loc 1 456 0
 1158 0004 0048     		ldr	r0, .L122
 1159              	.LVL81:
 1160 0006 7047     		bx	lr
 1161              	.L123:
 1162              		.align	2
 1163              	.L122:
 1164 0008 C06F0000 		.word	.LANCHOR6+2544
 1165              		.cfi_endproc
 1166              	.LFE40:
 1167              		.size	u8g2_m_8_6_2, .-u8g2_m_8_6_2
 1168              		.section	.text.u8g2_m_8_6_f,"ax",%progbits
 1169              		.align	1
 1170              		.global	u8g2_m_8_6_f
 1171              		.thumb
 1172              		.thumb_func
 1173              		.type	u8g2_m_8_6_f, %function
 1174              	u8g2_m_8_6_f:
 1175              	.LFB41:
 457:..\..\..\u8g2\u8g2\csrc/u8g2_d_memory.c **** uint8_t *u8g2_m_8_6_f(uint8_t *page_cnt)
 458:..\..\..\u8g2\u8g2\csrc/u8g2_d_memory.c **** {
 1176              		.loc 1 458 0
 1177              		.cfi_startproc
 1178              		@ args = 0, pretend = 0, frame = 0
 1179              		@ frame_needed = 0, uses_anonymous_args = 0
 1180              		@ link register save eliminated.
 1181              	.LVL82:
 459:..\..\..\u8g2\u8g2\csrc/u8g2_d_memory.c ****   #ifdef U8G2_USE_DYNAMIC_ALLOC
 460:..\..\..\u8g2\u8g2\csrc/u8g2_d_memory.c ****   *page_cnt = 6;
 461:..\..\..\u8g2\u8g2\csrc/u8g2_d_memory.c ****   return 0;
 462:..\..\..\u8g2\u8g2\csrc/u8g2_d_memory.c ****   #else
 463:..\..\..\u8g2\u8g2\csrc/u8g2_d_memory.c ****   static uint8_t buf[384];
 464:..\..\..\u8g2\u8g2\csrc/u8g2_d_memory.c ****   *page_cnt = 6;
 1182              		.loc 1 464 0
 1183 0000 0623     		movs	r3, #6
 1184 0002 0370     		strb	r3, [r0]
 465:..\..\..\u8g2\u8g2\csrc/u8g2_d_memory.c ****   return buf;
 466:..\..\..\u8g2\u8g2\csrc/u8g2_d_memory.c ****   #endif
 467:..\..\..\u8g2\u8g2\csrc/u8g2_d_memory.c **** }
 1185              		.loc 1 467 0
 1186 0004 0048     		ldr	r0, .L125
ARM GAS  C:\Users\jesse\AppData\Local\Temp\ccuy2FXa.s 			page 30


 1187              	.LVL83:
 1188 0006 7047     		bx	lr
 1189              	.L126:
 1190              		.align	2
 1191              	.L125:
 1192 0008 40700000 		.word	.LANCHOR6+2672
 1193              		.cfi_endproc
 1194              	.LFE41:
 1195              		.size	u8g2_m_8_6_f, .-u8g2_m_8_6_f
 1196              		.section	.text.u8g2_m_6_8_1,"ax",%progbits
 1197              		.align	1
 1198              		.global	u8g2_m_6_8_1
 1199              		.thumb
 1200              		.thumb_func
 1201              		.type	u8g2_m_6_8_1, %function
 1202              	u8g2_m_6_8_1:
 1203              	.LFB42:
 468:..\..\..\u8g2\u8g2\csrc/u8g2_d_memory.c **** uint8_t *u8g2_m_6_8_1(uint8_t *page_cnt)
 469:..\..\..\u8g2\u8g2\csrc/u8g2_d_memory.c **** {
 1204              		.loc 1 469 0
 1205              		.cfi_startproc
 1206              		@ args = 0, pretend = 0, frame = 0
 1207              		@ frame_needed = 0, uses_anonymous_args = 0
 1208              		@ link register save eliminated.
 1209              	.LVL84:
 470:..\..\..\u8g2\u8g2\csrc/u8g2_d_memory.c ****   #ifdef U8G2_USE_DYNAMIC_ALLOC
 471:..\..\..\u8g2\u8g2\csrc/u8g2_d_memory.c ****   *page_cnt = 1;
 472:..\..\..\u8g2\u8g2\csrc/u8g2_d_memory.c ****   return 0;
 473:..\..\..\u8g2\u8g2\csrc/u8g2_d_memory.c ****   #else
 474:..\..\..\u8g2\u8g2\csrc/u8g2_d_memory.c ****   static uint8_t buf[48];
 475:..\..\..\u8g2\u8g2\csrc/u8g2_d_memory.c ****   *page_cnt = 1;
 1210              		.loc 1 475 0
 1211 0000 0123     		movs	r3, #1
 1212 0002 0370     		strb	r3, [r0]
 476:..\..\..\u8g2\u8g2\csrc/u8g2_d_memory.c ****   return buf;
 477:..\..\..\u8g2\u8g2\csrc/u8g2_d_memory.c ****   #endif
 478:..\..\..\u8g2\u8g2\csrc/u8g2_d_memory.c **** }
 1213              		.loc 1 478 0
 1214 0004 0048     		ldr	r0, .L128
 1215              	.LVL85:
 1216 0006 7047     		bx	lr
 1217              	.L129:
 1218              		.align	2
 1219              	.L128:
 1220 0008 C0710000 		.word	.LANCHOR6+3056
 1221              		.cfi_endproc
 1222              	.LFE42:
 1223              		.size	u8g2_m_6_8_1, .-u8g2_m_6_8_1
 1224              		.section	.text.u8g2_m_6_8_2,"ax",%progbits
 1225              		.align	1
 1226              		.global	u8g2_m_6_8_2
 1227              		.thumb
 1228              		.thumb_func
 1229              		.type	u8g2_m_6_8_2, %function
 1230              	u8g2_m_6_8_2:
 1231              	.LFB43:
 479:..\..\..\u8g2\u8g2\csrc/u8g2_d_memory.c **** uint8_t *u8g2_m_6_8_2(uint8_t *page_cnt)
ARM GAS  C:\Users\jesse\AppData\Local\Temp\ccuy2FXa.s 			page 31


 480:..\..\..\u8g2\u8g2\csrc/u8g2_d_memory.c **** {
 1232              		.loc 1 480 0
 1233              		.cfi_startproc
 1234              		@ args = 0, pretend = 0, frame = 0
 1235              		@ frame_needed = 0, uses_anonymous_args = 0
 1236              		@ link register save eliminated.
 1237              	.LVL86:
 481:..\..\..\u8g2\u8g2\csrc/u8g2_d_memory.c ****   #ifdef U8G2_USE_DYNAMIC_ALLOC
 482:..\..\..\u8g2\u8g2\csrc/u8g2_d_memory.c ****   *page_cnt = 2;
 483:..\..\..\u8g2\u8g2\csrc/u8g2_d_memory.c ****   return 0;
 484:..\..\..\u8g2\u8g2\csrc/u8g2_d_memory.c ****   #else
 485:..\..\..\u8g2\u8g2\csrc/u8g2_d_memory.c ****   static uint8_t buf[96];
 486:..\..\..\u8g2\u8g2\csrc/u8g2_d_memory.c ****   *page_cnt = 2;
 1238              		.loc 1 486 0
 1239 0000 0223     		movs	r3, #2
 1240 0002 0370     		strb	r3, [r0]
 487:..\..\..\u8g2\u8g2\csrc/u8g2_d_memory.c ****   return buf;
 488:..\..\..\u8g2\u8g2\csrc/u8g2_d_memory.c ****   #endif
 489:..\..\..\u8g2\u8g2\csrc/u8g2_d_memory.c **** }
 1241              		.loc 1 489 0
 1242 0004 0048     		ldr	r0, .L131
 1243              	.LVL87:
 1244 0006 7047     		bx	lr
 1245              	.L132:
 1246              		.align	2
 1247              	.L131:
 1248 0008 F0710000 		.word	.LANCHOR6+3104
 1249              		.cfi_endproc
 1250              	.LFE43:
 1251              		.size	u8g2_m_6_8_2, .-u8g2_m_6_8_2
 1252              		.section	.text.u8g2_m_6_8_f,"ax",%progbits
 1253              		.align	1
 1254              		.global	u8g2_m_6_8_f
 1255              		.thumb
 1256              		.thumb_func
 1257              		.type	u8g2_m_6_8_f, %function
 1258              	u8g2_m_6_8_f:
 1259              	.LFB44:
 490:..\..\..\u8g2\u8g2\csrc/u8g2_d_memory.c **** uint8_t *u8g2_m_6_8_f(uint8_t *page_cnt)
 491:..\..\..\u8g2\u8g2\csrc/u8g2_d_memory.c **** {
 1260              		.loc 1 491 0
 1261              		.cfi_startproc
 1262              		@ args = 0, pretend = 0, frame = 0
 1263              		@ frame_needed = 0, uses_anonymous_args = 0
 1264              		@ link register save eliminated.
 1265              	.LVL88:
 492:..\..\..\u8g2\u8g2\csrc/u8g2_d_memory.c ****   #ifdef U8G2_USE_DYNAMIC_ALLOC
 493:..\..\..\u8g2\u8g2\csrc/u8g2_d_memory.c ****   *page_cnt = 8;
 494:..\..\..\u8g2\u8g2\csrc/u8g2_d_memory.c ****   return 0;
 495:..\..\..\u8g2\u8g2\csrc/u8g2_d_memory.c ****   #else
 496:..\..\..\u8g2\u8g2\csrc/u8g2_d_memory.c ****   static uint8_t buf[384];
 497:..\..\..\u8g2\u8g2\csrc/u8g2_d_memory.c ****   *page_cnt = 8;
 1266              		.loc 1 497 0
 1267 0000 0823     		movs	r3, #8
 1268 0002 0370     		strb	r3, [r0]
 498:..\..\..\u8g2\u8g2\csrc/u8g2_d_memory.c ****   return buf;
 499:..\..\..\u8g2\u8g2\csrc/u8g2_d_memory.c ****   #endif
ARM GAS  C:\Users\jesse\AppData\Local\Temp\ccuy2FXa.s 			page 32


 500:..\..\..\u8g2\u8g2\csrc/u8g2_d_memory.c **** }
 1269              		.loc 1 500 0
 1270 0004 0048     		ldr	r0, .L134
 1271              	.LVL89:
 1272 0006 7047     		bx	lr
 1273              	.L135:
 1274              		.align	2
 1275              	.L134:
 1276 0008 50720000 		.word	.LANCHOR6+3200
 1277              		.cfi_endproc
 1278              	.LFE44:
 1279              		.size	u8g2_m_6_8_f, .-u8g2_m_6_8_f
 1280              		.section	.text.u8g2_m_12_2_1,"ax",%progbits
 1281              		.align	1
 1282              		.global	u8g2_m_12_2_1
 1283              		.thumb
 1284              		.thumb_func
 1285              		.type	u8g2_m_12_2_1, %function
 1286              	u8g2_m_12_2_1:
 1287              	.LFB45:
 501:..\..\..\u8g2\u8g2\csrc/u8g2_d_memory.c **** uint8_t *u8g2_m_12_2_1(uint8_t *page_cnt)
 502:..\..\..\u8g2\u8g2\csrc/u8g2_d_memory.c **** {
 1288              		.loc 1 502 0
 1289              		.cfi_startproc
 1290              		@ args = 0, pretend = 0, frame = 0
 1291              		@ frame_needed = 0, uses_anonymous_args = 0
 1292              		@ link register save eliminated.
 1293              	.LVL90:
 503:..\..\..\u8g2\u8g2\csrc/u8g2_d_memory.c ****   #ifdef U8G2_USE_DYNAMIC_ALLOC
 504:..\..\..\u8g2\u8g2\csrc/u8g2_d_memory.c ****   *page_cnt = 1;
 505:..\..\..\u8g2\u8g2\csrc/u8g2_d_memory.c ****   return 0;
 506:..\..\..\u8g2\u8g2\csrc/u8g2_d_memory.c ****   #else
 507:..\..\..\u8g2\u8g2\csrc/u8g2_d_memory.c ****   static uint8_t buf[96];
 508:..\..\..\u8g2\u8g2\csrc/u8g2_d_memory.c ****   *page_cnt = 1;
 1294              		.loc 1 508 0
 1295 0000 0123     		movs	r3, #1
 1296 0002 0370     		strb	r3, [r0]
 509:..\..\..\u8g2\u8g2\csrc/u8g2_d_memory.c ****   return buf;
 510:..\..\..\u8g2\u8g2\csrc/u8g2_d_memory.c ****   #endif
 511:..\..\..\u8g2\u8g2\csrc/u8g2_d_memory.c **** }
 1297              		.loc 1 511 0
 1298 0004 0048     		ldr	r0, .L137
 1299              	.LVL91:
 1300 0006 7047     		bx	lr
 1301              	.L138:
 1302              		.align	2
 1303              	.L137:
 1304 0008 D0730000 		.word	.LANCHOR6+3584
 1305              		.cfi_endproc
 1306              	.LFE45:
 1307              		.size	u8g2_m_12_2_1, .-u8g2_m_12_2_1
 1308              		.section	.text.u8g2_m_12_2_2,"ax",%progbits
 1309              		.align	1
 1310              		.global	u8g2_m_12_2_2
 1311              		.thumb
 1312              		.thumb_func
 1313              		.type	u8g2_m_12_2_2, %function
ARM GAS  C:\Users\jesse\AppData\Local\Temp\ccuy2FXa.s 			page 33


 1314              	u8g2_m_12_2_2:
 1315              	.LFB46:
 512:..\..\..\u8g2\u8g2\csrc/u8g2_d_memory.c **** uint8_t *u8g2_m_12_2_2(uint8_t *page_cnt)
 513:..\..\..\u8g2\u8g2\csrc/u8g2_d_memory.c **** {
 1316              		.loc 1 513 0
 1317              		.cfi_startproc
 1318              		@ args = 0, pretend = 0, frame = 0
 1319              		@ frame_needed = 0, uses_anonymous_args = 0
 1320              		@ link register save eliminated.
 1321              	.LVL92:
 514:..\..\..\u8g2\u8g2\csrc/u8g2_d_memory.c ****   #ifdef U8G2_USE_DYNAMIC_ALLOC
 515:..\..\..\u8g2\u8g2\csrc/u8g2_d_memory.c ****   *page_cnt = 2;
 516:..\..\..\u8g2\u8g2\csrc/u8g2_d_memory.c ****   return 0;
 517:..\..\..\u8g2\u8g2\csrc/u8g2_d_memory.c ****   #else
 518:..\..\..\u8g2\u8g2\csrc/u8g2_d_memory.c ****   static uint8_t buf[192];
 519:..\..\..\u8g2\u8g2\csrc/u8g2_d_memory.c ****   *page_cnt = 2;
 1322              		.loc 1 519 0
 1323 0000 0223     		movs	r3, #2
 1324 0002 0370     		strb	r3, [r0]
 520:..\..\..\u8g2\u8g2\csrc/u8g2_d_memory.c ****   return buf;
 521:..\..\..\u8g2\u8g2\csrc/u8g2_d_memory.c ****   #endif
 522:..\..\..\u8g2\u8g2\csrc/u8g2_d_memory.c **** }
 1325              		.loc 1 522 0
 1326 0004 0048     		ldr	r0, .L140
 1327              	.LVL93:
 1328 0006 7047     		bx	lr
 1329              	.L141:
 1330              		.align	2
 1331              	.L140:
 1332 0008 30740000 		.word	.LANCHOR6+3680
 1333              		.cfi_endproc
 1334              	.LFE46:
 1335              		.size	u8g2_m_12_2_2, .-u8g2_m_12_2_2
 1336              		.section	.text.u8g2_m_12_2_f,"ax",%progbits
 1337              		.align	1
 1338              		.global	u8g2_m_12_2_f
 1339              		.thumb
 1340              		.thumb_func
 1341              		.type	u8g2_m_12_2_f, %function
 1342              	u8g2_m_12_2_f:
 1343              	.LFB47:
 523:..\..\..\u8g2\u8g2\csrc/u8g2_d_memory.c **** uint8_t *u8g2_m_12_2_f(uint8_t *page_cnt)
 524:..\..\..\u8g2\u8g2\csrc/u8g2_d_memory.c **** {
 1344              		.loc 1 524 0
 1345              		.cfi_startproc
 1346              		@ args = 0, pretend = 0, frame = 0
 1347              		@ frame_needed = 0, uses_anonymous_args = 0
 1348              		@ link register save eliminated.
 1349              	.LVL94:
 525:..\..\..\u8g2\u8g2\csrc/u8g2_d_memory.c ****   #ifdef U8G2_USE_DYNAMIC_ALLOC
 526:..\..\..\u8g2\u8g2\csrc/u8g2_d_memory.c ****   *page_cnt = 2;
 527:..\..\..\u8g2\u8g2\csrc/u8g2_d_memory.c ****   return 0;
 528:..\..\..\u8g2\u8g2\csrc/u8g2_d_memory.c ****   #else
 529:..\..\..\u8g2\u8g2\csrc/u8g2_d_memory.c ****   static uint8_t buf[192];
 530:..\..\..\u8g2\u8g2\csrc/u8g2_d_memory.c ****   *page_cnt = 2;
 1350              		.loc 1 530 0
 1351 0000 0223     		movs	r3, #2
ARM GAS  C:\Users\jesse\AppData\Local\Temp\ccuy2FXa.s 			page 34


 1352 0002 0370     		strb	r3, [r0]
 531:..\..\..\u8g2\u8g2\csrc/u8g2_d_memory.c ****   return buf;
 532:..\..\..\u8g2\u8g2\csrc/u8g2_d_memory.c ****   #endif
 533:..\..\..\u8g2\u8g2\csrc/u8g2_d_memory.c **** }
 1353              		.loc 1 533 0
 1354 0004 0048     		ldr	r0, .L143
 1355              	.LVL95:
 1356 0006 7047     		bx	lr
 1357              	.L144:
 1358              		.align	2
 1359              	.L143:
 1360 0008 F0740000 		.word	.LANCHOR6+3872
 1361              		.cfi_endproc
 1362              	.LFE47:
 1363              		.size	u8g2_m_12_2_f, .-u8g2_m_12_2_f
 1364              		.section	.text.u8g2_m_12_4_1,"ax",%progbits
 1365              		.align	1
 1366              		.global	u8g2_m_12_4_1
 1367              		.thumb
 1368              		.thumb_func
 1369              		.type	u8g2_m_12_4_1, %function
 1370              	u8g2_m_12_4_1:
 1371              	.LFB48:
 534:..\..\..\u8g2\u8g2\csrc/u8g2_d_memory.c **** uint8_t *u8g2_m_12_4_1(uint8_t *page_cnt)
 535:..\..\..\u8g2\u8g2\csrc/u8g2_d_memory.c **** {
 1372              		.loc 1 535 0
 1373              		.cfi_startproc
 1374              		@ args = 0, pretend = 0, frame = 0
 1375              		@ frame_needed = 0, uses_anonymous_args = 0
 1376              		@ link register save eliminated.
 1377              	.LVL96:
 536:..\..\..\u8g2\u8g2\csrc/u8g2_d_memory.c ****   #ifdef U8G2_USE_DYNAMIC_ALLOC
 537:..\..\..\u8g2\u8g2\csrc/u8g2_d_memory.c ****   *page_cnt = 1;
 538:..\..\..\u8g2\u8g2\csrc/u8g2_d_memory.c ****   return 0;
 539:..\..\..\u8g2\u8g2\csrc/u8g2_d_memory.c ****   #else
 540:..\..\..\u8g2\u8g2\csrc/u8g2_d_memory.c ****   static uint8_t buf[96];
 541:..\..\..\u8g2\u8g2\csrc/u8g2_d_memory.c ****   *page_cnt = 1;
 1378              		.loc 1 541 0
 1379 0000 0123     		movs	r3, #1
 1380 0002 0370     		strb	r3, [r0]
 542:..\..\..\u8g2\u8g2\csrc/u8g2_d_memory.c ****   return buf;
 543:..\..\..\u8g2\u8g2\csrc/u8g2_d_memory.c ****   #endif
 544:..\..\..\u8g2\u8g2\csrc/u8g2_d_memory.c **** }
 1381              		.loc 1 544 0
 1382 0004 0048     		ldr	r0, .L146
 1383              	.LVL97:
 1384 0006 7047     		bx	lr
 1385              	.L147:
 1386              		.align	2
 1387              	.L146:
 1388 0008 B0750000 		.word	.LANCHOR6+4064
 1389              		.cfi_endproc
 1390              	.LFE48:
 1391              		.size	u8g2_m_12_4_1, .-u8g2_m_12_4_1
 1392              		.section	.text.u8g2_m_12_4_2,"ax",%progbits
 1393              		.align	1
 1394              		.global	u8g2_m_12_4_2
ARM GAS  C:\Users\jesse\AppData\Local\Temp\ccuy2FXa.s 			page 35


 1395              		.thumb
 1396              		.thumb_func
 1397              		.type	u8g2_m_12_4_2, %function
 1398              	u8g2_m_12_4_2:
 1399              	.LFB49:
 545:..\..\..\u8g2\u8g2\csrc/u8g2_d_memory.c **** uint8_t *u8g2_m_12_4_2(uint8_t *page_cnt)
 546:..\..\..\u8g2\u8g2\csrc/u8g2_d_memory.c **** {
 1400              		.loc 1 546 0
 1401              		.cfi_startproc
 1402              		@ args = 0, pretend = 0, frame = 0
 1403              		@ frame_needed = 0, uses_anonymous_args = 0
 1404              		@ link register save eliminated.
 1405              	.LVL98:
 547:..\..\..\u8g2\u8g2\csrc/u8g2_d_memory.c ****   #ifdef U8G2_USE_DYNAMIC_ALLOC
 548:..\..\..\u8g2\u8g2\csrc/u8g2_d_memory.c ****   *page_cnt = 2;
 549:..\..\..\u8g2\u8g2\csrc/u8g2_d_memory.c ****   return 0;
 550:..\..\..\u8g2\u8g2\csrc/u8g2_d_memory.c ****   #else
 551:..\..\..\u8g2\u8g2\csrc/u8g2_d_memory.c ****   static uint8_t buf[192];
 552:..\..\..\u8g2\u8g2\csrc/u8g2_d_memory.c ****   *page_cnt = 2;
 1406              		.loc 1 552 0
 1407 0000 0223     		movs	r3, #2
 1408 0002 0370     		strb	r3, [r0]
 553:..\..\..\u8g2\u8g2\csrc/u8g2_d_memory.c ****   return buf;
 554:..\..\..\u8g2\u8g2\csrc/u8g2_d_memory.c ****   #endif
 555:..\..\..\u8g2\u8g2\csrc/u8g2_d_memory.c **** }
 1409              		.loc 1 555 0
 1410 0004 0048     		ldr	r0, .L149
 1411              	.LVL99:
 1412 0006 7047     		bx	lr
 1413              	.L150:
 1414              		.align	2
 1415              	.L149:
 1416 0008 10760000 		.word	.LANCHOR7-184
 1417              		.cfi_endproc
 1418              	.LFE49:
 1419              		.size	u8g2_m_12_4_2, .-u8g2_m_12_4_2
 1420              		.section	.text.u8g2_m_12_4_f,"ax",%progbits
 1421              		.align	1
 1422              		.global	u8g2_m_12_4_f
 1423              		.thumb
 1424              		.thumb_func
 1425              		.type	u8g2_m_12_4_f, %function
 1426              	u8g2_m_12_4_f:
 1427              	.LFB50:
 556:..\..\..\u8g2\u8g2\csrc/u8g2_d_memory.c **** uint8_t *u8g2_m_12_4_f(uint8_t *page_cnt)
 557:..\..\..\u8g2\u8g2\csrc/u8g2_d_memory.c **** {
 1428              		.loc 1 557 0
 1429              		.cfi_startproc
 1430              		@ args = 0, pretend = 0, frame = 0
 1431              		@ frame_needed = 0, uses_anonymous_args = 0
 1432              		@ link register save eliminated.
 1433              	.LVL100:
 558:..\..\..\u8g2\u8g2\csrc/u8g2_d_memory.c ****   #ifdef U8G2_USE_DYNAMIC_ALLOC
 559:..\..\..\u8g2\u8g2\csrc/u8g2_d_memory.c ****   *page_cnt = 4;
 560:..\..\..\u8g2\u8g2\csrc/u8g2_d_memory.c ****   return 0;
 561:..\..\..\u8g2\u8g2\csrc/u8g2_d_memory.c ****   #else
 562:..\..\..\u8g2\u8g2\csrc/u8g2_d_memory.c ****   static uint8_t buf[384];
ARM GAS  C:\Users\jesse\AppData\Local\Temp\ccuy2FXa.s 			page 36


 563:..\..\..\u8g2\u8g2\csrc/u8g2_d_memory.c ****   *page_cnt = 4;
 1434              		.loc 1 563 0
 1435 0000 0423     		movs	r3, #4
 1436 0002 0370     		strb	r3, [r0]
 564:..\..\..\u8g2\u8g2\csrc/u8g2_d_memory.c ****   return buf;
 565:..\..\..\u8g2\u8g2\csrc/u8g2_d_memory.c ****   #endif
 566:..\..\..\u8g2\u8g2\csrc/u8g2_d_memory.c **** }
 1437              		.loc 1 566 0
 1438 0004 0048     		ldr	r0, .L152
 1439              	.LVL101:
 1440 0006 7047     		bx	lr
 1441              	.L153:
 1442              		.align	2
 1443              	.L152:
 1444 0008 D0760000 		.word	.LANCHOR7+8
 1445              		.cfi_endproc
 1446              	.LFE50:
 1447              		.size	u8g2_m_12_4_f, .-u8g2_m_12_4_f
 1448              		.section	.text.u8g2_m_16_12_1,"ax",%progbits
 1449              		.align	1
 1450              		.global	u8g2_m_16_12_1
 1451              		.thumb
 1452              		.thumb_func
 1453              		.type	u8g2_m_16_12_1, %function
 1454              	u8g2_m_16_12_1:
 1455              	.LFB51:
 567:..\..\..\u8g2\u8g2\csrc/u8g2_d_memory.c **** uint8_t *u8g2_m_16_12_1(uint8_t *page_cnt)
 568:..\..\..\u8g2\u8g2\csrc/u8g2_d_memory.c **** {
 1456              		.loc 1 568 0
 1457              		.cfi_startproc
 1458              		@ args = 0, pretend = 0, frame = 0
 1459              		@ frame_needed = 0, uses_anonymous_args = 0
 1460              		@ link register save eliminated.
 1461              	.LVL102:
 569:..\..\..\u8g2\u8g2\csrc/u8g2_d_memory.c ****   #ifdef U8G2_USE_DYNAMIC_ALLOC
 570:..\..\..\u8g2\u8g2\csrc/u8g2_d_memory.c ****   *page_cnt = 1;
 571:..\..\..\u8g2\u8g2\csrc/u8g2_d_memory.c ****   return 0;
 572:..\..\..\u8g2\u8g2\csrc/u8g2_d_memory.c ****   #else
 573:..\..\..\u8g2\u8g2\csrc/u8g2_d_memory.c ****   static uint8_t buf[128];
 574:..\..\..\u8g2\u8g2\csrc/u8g2_d_memory.c ****   *page_cnt = 1;
 1462              		.loc 1 574 0
 1463 0000 0123     		movs	r3, #1
 1464 0002 0370     		strb	r3, [r0]
 575:..\..\..\u8g2\u8g2\csrc/u8g2_d_memory.c ****   return buf;
 576:..\..\..\u8g2\u8g2\csrc/u8g2_d_memory.c ****   #endif
 577:..\..\..\u8g2\u8g2\csrc/u8g2_d_memory.c **** }
 1465              		.loc 1 577 0
 1466 0004 0048     		ldr	r0, .L155
 1467              	.LVL103:
 1468 0006 7047     		bx	lr
 1469              	.L156:
 1470              		.align	2
 1471              	.L155:
 1472 0008 50780000 		.word	.LANCHOR7+392
 1473              		.cfi_endproc
 1474              	.LFE51:
 1475              		.size	u8g2_m_16_12_1, .-u8g2_m_16_12_1
ARM GAS  C:\Users\jesse\AppData\Local\Temp\ccuy2FXa.s 			page 37


 1476              		.section	.text.u8g2_m_16_12_2,"ax",%progbits
 1477              		.align	1
 1478              		.global	u8g2_m_16_12_2
 1479              		.thumb
 1480              		.thumb_func
 1481              		.type	u8g2_m_16_12_2, %function
 1482              	u8g2_m_16_12_2:
 1483              	.LFB52:
 578:..\..\..\u8g2\u8g2\csrc/u8g2_d_memory.c **** uint8_t *u8g2_m_16_12_2(uint8_t *page_cnt)
 579:..\..\..\u8g2\u8g2\csrc/u8g2_d_memory.c **** {
 1484              		.loc 1 579 0
 1485              		.cfi_startproc
 1486              		@ args = 0, pretend = 0, frame = 0
 1487              		@ frame_needed = 0, uses_anonymous_args = 0
 1488              		@ link register save eliminated.
 1489              	.LVL104:
 580:..\..\..\u8g2\u8g2\csrc/u8g2_d_memory.c ****   #ifdef U8G2_USE_DYNAMIC_ALLOC
 581:..\..\..\u8g2\u8g2\csrc/u8g2_d_memory.c ****   *page_cnt = 2;
 582:..\..\..\u8g2\u8g2\csrc/u8g2_d_memory.c ****   return 0;
 583:..\..\..\u8g2\u8g2\csrc/u8g2_d_memory.c ****   #else
 584:..\..\..\u8g2\u8g2\csrc/u8g2_d_memory.c ****   static uint8_t buf[256];
 585:..\..\..\u8g2\u8g2\csrc/u8g2_d_memory.c ****   *page_cnt = 2;
 1490              		.loc 1 585 0
 1491 0000 0223     		movs	r3, #2
 1492 0002 0370     		strb	r3, [r0]
 586:..\..\..\u8g2\u8g2\csrc/u8g2_d_memory.c ****   return buf;
 587:..\..\..\u8g2\u8g2\csrc/u8g2_d_memory.c ****   #endif
 588:..\..\..\u8g2\u8g2\csrc/u8g2_d_memory.c **** }
 1493              		.loc 1 588 0
 1494 0004 0048     		ldr	r0, .L158
 1495              	.LVL105:
 1496 0006 7047     		bx	lr
 1497              	.L159:
 1498              		.align	2
 1499              	.L158:
 1500 0008 D0780000 		.word	.LANCHOR7+520
 1501              		.cfi_endproc
 1502              	.LFE52:
 1503              		.size	u8g2_m_16_12_2, .-u8g2_m_16_12_2
 1504              		.section	.text.u8g2_m_16_12_f,"ax",%progbits
 1505              		.align	1
 1506              		.global	u8g2_m_16_12_f
 1507              		.thumb
 1508              		.thumb_func
 1509              		.type	u8g2_m_16_12_f, %function
 1510              	u8g2_m_16_12_f:
 1511              	.LFB53:
 589:..\..\..\u8g2\u8g2\csrc/u8g2_d_memory.c **** uint8_t *u8g2_m_16_12_f(uint8_t *page_cnt)
 590:..\..\..\u8g2\u8g2\csrc/u8g2_d_memory.c **** {
 1512              		.loc 1 590 0
 1513              		.cfi_startproc
 1514              		@ args = 0, pretend = 0, frame = 0
 1515              		@ frame_needed = 0, uses_anonymous_args = 0
 1516              		@ link register save eliminated.
 1517              	.LVL106:
 591:..\..\..\u8g2\u8g2\csrc/u8g2_d_memory.c ****   #ifdef U8G2_USE_DYNAMIC_ALLOC
 592:..\..\..\u8g2\u8g2\csrc/u8g2_d_memory.c ****   *page_cnt = 12;
ARM GAS  C:\Users\jesse\AppData\Local\Temp\ccuy2FXa.s 			page 38


 593:..\..\..\u8g2\u8g2\csrc/u8g2_d_memory.c ****   return 0;
 594:..\..\..\u8g2\u8g2\csrc/u8g2_d_memory.c ****   #else
 595:..\..\..\u8g2\u8g2\csrc/u8g2_d_memory.c ****   static uint8_t buf[1536];
 596:..\..\..\u8g2\u8g2\csrc/u8g2_d_memory.c ****   *page_cnt = 12;
 1518              		.loc 1 596 0
 1519 0000 0C23     		movs	r3, #12
 1520 0002 0370     		strb	r3, [r0]
 597:..\..\..\u8g2\u8g2\csrc/u8g2_d_memory.c ****   return buf;
 598:..\..\..\u8g2\u8g2\csrc/u8g2_d_memory.c ****   #endif
 599:..\..\..\u8g2\u8g2\csrc/u8g2_d_memory.c **** }
 1521              		.loc 1 599 0
 1522 0004 0048     		ldr	r0, .L161
 1523              	.LVL107:
 1524 0006 7047     		bx	lr
 1525              	.L162:
 1526              		.align	2
 1527              	.L161:
 1528 0008 D0790000 		.word	.LANCHOR7+776
 1529              		.cfi_endproc
 1530              	.LFE53:
 1531              		.size	u8g2_m_16_12_f, .-u8g2_m_16_12_f
 1532              		.section	.text.u8g2_m_32_4_1,"ax",%progbits
 1533              		.align	1
 1534              		.global	u8g2_m_32_4_1
 1535              		.thumb
 1536              		.thumb_func
 1537              		.type	u8g2_m_32_4_1, %function
 1538              	u8g2_m_32_4_1:
 1539              	.LFB54:
 600:..\..\..\u8g2\u8g2\csrc/u8g2_d_memory.c **** uint8_t *u8g2_m_32_4_1(uint8_t *page_cnt)
 601:..\..\..\u8g2\u8g2\csrc/u8g2_d_memory.c **** {
 1540              		.loc 1 601 0
 1541              		.cfi_startproc
 1542              		@ args = 0, pretend = 0, frame = 0
 1543              		@ frame_needed = 0, uses_anonymous_args = 0
 1544              		@ link register save eliminated.
 1545              	.LVL108:
 602:..\..\..\u8g2\u8g2\csrc/u8g2_d_memory.c ****   #ifdef U8G2_USE_DYNAMIC_ALLOC
 603:..\..\..\u8g2\u8g2\csrc/u8g2_d_memory.c ****   *page_cnt = 1;
 604:..\..\..\u8g2\u8g2\csrc/u8g2_d_memory.c ****   return 0;
 605:..\..\..\u8g2\u8g2\csrc/u8g2_d_memory.c ****   #else
 606:..\..\..\u8g2\u8g2\csrc/u8g2_d_memory.c ****   static uint8_t buf[256];
 607:..\..\..\u8g2\u8g2\csrc/u8g2_d_memory.c ****   *page_cnt = 1;
 1546              		.loc 1 607 0
 1547 0000 0123     		movs	r3, #1
 1548 0002 0370     		strb	r3, [r0]
 608:..\..\..\u8g2\u8g2\csrc/u8g2_d_memory.c ****   return buf;
 609:..\..\..\u8g2\u8g2\csrc/u8g2_d_memory.c ****   #endif
 610:..\..\..\u8g2\u8g2\csrc/u8g2_d_memory.c **** }
 1549              		.loc 1 610 0
 1550 0004 0048     		ldr	r0, .L164
 1551              	.LVL109:
 1552 0006 7047     		bx	lr
 1553              	.L165:
 1554              		.align	2
 1555              	.L164:
 1556 0008 D07F0000 		.word	.LANCHOR7+2312
ARM GAS  C:\Users\jesse\AppData\Local\Temp\ccuy2FXa.s 			page 39


 1557              		.cfi_endproc
 1558              	.LFE54:
 1559              		.size	u8g2_m_32_4_1, .-u8g2_m_32_4_1
 1560              		.section	.text.u8g2_m_32_4_2,"ax",%progbits
 1561              		.align	1
 1562              		.global	u8g2_m_32_4_2
 1563              		.thumb
 1564              		.thumb_func
 1565              		.type	u8g2_m_32_4_2, %function
 1566              	u8g2_m_32_4_2:
 1567              	.LFB55:
 611:..\..\..\u8g2\u8g2\csrc/u8g2_d_memory.c **** uint8_t *u8g2_m_32_4_2(uint8_t *page_cnt)
 612:..\..\..\u8g2\u8g2\csrc/u8g2_d_memory.c **** {
 1568              		.loc 1 612 0
 1569              		.cfi_startproc
 1570              		@ args = 0, pretend = 0, frame = 0
 1571              		@ frame_needed = 0, uses_anonymous_args = 0
 1572              		@ link register save eliminated.
 1573              	.LVL110:
 613:..\..\..\u8g2\u8g2\csrc/u8g2_d_memory.c ****   #ifdef U8G2_USE_DYNAMIC_ALLOC
 614:..\..\..\u8g2\u8g2\csrc/u8g2_d_memory.c ****   *page_cnt = 2;
 615:..\..\..\u8g2\u8g2\csrc/u8g2_d_memory.c ****   return 0;
 616:..\..\..\u8g2\u8g2\csrc/u8g2_d_memory.c ****   #else
 617:..\..\..\u8g2\u8g2\csrc/u8g2_d_memory.c ****   static uint8_t buf[512];
 618:..\..\..\u8g2\u8g2\csrc/u8g2_d_memory.c ****   *page_cnt = 2;
 1574              		.loc 1 618 0
 1575 0000 0223     		movs	r3, #2
 1576 0002 0370     		strb	r3, [r0]
 619:..\..\..\u8g2\u8g2\csrc/u8g2_d_memory.c ****   return buf;
 620:..\..\..\u8g2\u8g2\csrc/u8g2_d_memory.c ****   #endif
 621:..\..\..\u8g2\u8g2\csrc/u8g2_d_memory.c **** }
 1577              		.loc 1 621 0
 1578 0004 0048     		ldr	r0, .L167
 1579              	.LVL111:
 1580 0006 7047     		bx	lr
 1581              	.L168:
 1582              		.align	2
 1583              	.L167:
 1584 0008 D0800000 		.word	.LANCHOR7+2568
 1585              		.cfi_endproc
 1586              	.LFE55:
 1587              		.size	u8g2_m_32_4_2, .-u8g2_m_32_4_2
 1588              		.section	.text.u8g2_m_32_4_f,"ax",%progbits
 1589              		.align	1
 1590              		.global	u8g2_m_32_4_f
 1591              		.thumb
 1592              		.thumb_func
 1593              		.type	u8g2_m_32_4_f, %function
 1594              	u8g2_m_32_4_f:
 1595              	.LFB56:
 622:..\..\..\u8g2\u8g2\csrc/u8g2_d_memory.c **** uint8_t *u8g2_m_32_4_f(uint8_t *page_cnt)
 623:..\..\..\u8g2\u8g2\csrc/u8g2_d_memory.c **** {
 1596              		.loc 1 623 0
 1597              		.cfi_startproc
 1598              		@ args = 0, pretend = 0, frame = 0
 1599              		@ frame_needed = 0, uses_anonymous_args = 0
 1600              		@ link register save eliminated.
ARM GAS  C:\Users\jesse\AppData\Local\Temp\ccuy2FXa.s 			page 40


 1601              	.LVL112:
 624:..\..\..\u8g2\u8g2\csrc/u8g2_d_memory.c ****   #ifdef U8G2_USE_DYNAMIC_ALLOC
 625:..\..\..\u8g2\u8g2\csrc/u8g2_d_memory.c ****   *page_cnt = 4;
 626:..\..\..\u8g2\u8g2\csrc/u8g2_d_memory.c ****   return 0;
 627:..\..\..\u8g2\u8g2\csrc/u8g2_d_memory.c ****   #else
 628:..\..\..\u8g2\u8g2\csrc/u8g2_d_memory.c ****   static uint8_t buf[1024];
 629:..\..\..\u8g2\u8g2\csrc/u8g2_d_memory.c ****   *page_cnt = 4;
 1602              		.loc 1 629 0
 1603 0000 0423     		movs	r3, #4
 1604 0002 0370     		strb	r3, [r0]
 630:..\..\..\u8g2\u8g2\csrc/u8g2_d_memory.c ****   return buf;
 631:..\..\..\u8g2\u8g2\csrc/u8g2_d_memory.c ****   #endif
 632:..\..\..\u8g2\u8g2\csrc/u8g2_d_memory.c **** }
 1605              		.loc 1 632 0
 1606 0004 0048     		ldr	r0, .L170
 1607              	.LVL113:
 1608 0006 7047     		bx	lr
 1609              	.L171:
 1610              		.align	2
 1611              	.L170:
 1612 0008 D0820000 		.word	.LANCHOR7+3080
 1613              		.cfi_endproc
 1614              	.LFE56:
 1615              		.size	u8g2_m_32_4_f, .-u8g2_m_32_4_f
 1616              		.section	.text.u8g2_m_12_8_1,"ax",%progbits
 1617              		.align	1
 1618              		.global	u8g2_m_12_8_1
 1619              		.thumb
 1620              		.thumb_func
 1621              		.type	u8g2_m_12_8_1, %function
 1622              	u8g2_m_12_8_1:
 1623              	.LFB57:
 633:..\..\..\u8g2\u8g2\csrc/u8g2_d_memory.c **** uint8_t *u8g2_m_12_8_1(uint8_t *page_cnt)
 634:..\..\..\u8g2\u8g2\csrc/u8g2_d_memory.c **** {
 1624              		.loc 1 634 0
 1625              		.cfi_startproc
 1626              		@ args = 0, pretend = 0, frame = 0
 1627              		@ frame_needed = 0, uses_anonymous_args = 0
 1628              		@ link register save eliminated.
 1629              	.LVL114:
 635:..\..\..\u8g2\u8g2\csrc/u8g2_d_memory.c ****   #ifdef U8G2_USE_DYNAMIC_ALLOC
 636:..\..\..\u8g2\u8g2\csrc/u8g2_d_memory.c ****   *page_cnt = 1;
 637:..\..\..\u8g2\u8g2\csrc/u8g2_d_memory.c ****   return 0;
 638:..\..\..\u8g2\u8g2\csrc/u8g2_d_memory.c ****   #else
 639:..\..\..\u8g2\u8g2\csrc/u8g2_d_memory.c ****   static uint8_t buf[96];
 640:..\..\..\u8g2\u8g2\csrc/u8g2_d_memory.c ****   *page_cnt = 1;
 1630              		.loc 1 640 0
 1631 0000 0123     		movs	r3, #1
 1632 0002 0370     		strb	r3, [r0]
 641:..\..\..\u8g2\u8g2\csrc/u8g2_d_memory.c ****   return buf;
 642:..\..\..\u8g2\u8g2\csrc/u8g2_d_memory.c ****   #endif
 643:..\..\..\u8g2\u8g2\csrc/u8g2_d_memory.c **** }
 1633              		.loc 1 643 0
 1634 0004 0048     		ldr	r0, .L173
 1635              	.LVL115:
 1636 0006 7047     		bx	lr
 1637              	.L174:
ARM GAS  C:\Users\jesse\AppData\Local\Temp\ccuy2FXa.s 			page 41


 1638              		.align	2
 1639              	.L173:
 1640 0008 D0860000 		.word	.LANCHOR8-240
 1641              		.cfi_endproc
 1642              	.LFE57:
 1643              		.size	u8g2_m_12_8_1, .-u8g2_m_12_8_1
 1644              		.section	.text.u8g2_m_12_8_2,"ax",%progbits
 1645              		.align	1
 1646              		.global	u8g2_m_12_8_2
 1647              		.thumb
 1648              		.thumb_func
 1649              		.type	u8g2_m_12_8_2, %function
 1650              	u8g2_m_12_8_2:
 1651              	.LFB58:
 644:..\..\..\u8g2\u8g2\csrc/u8g2_d_memory.c **** uint8_t *u8g2_m_12_8_2(uint8_t *page_cnt)
 645:..\..\..\u8g2\u8g2\csrc/u8g2_d_memory.c **** {
 1652              		.loc 1 645 0
 1653              		.cfi_startproc
 1654              		@ args = 0, pretend = 0, frame = 0
 1655              		@ frame_needed = 0, uses_anonymous_args = 0
 1656              		@ link register save eliminated.
 1657              	.LVL116:
 646:..\..\..\u8g2\u8g2\csrc/u8g2_d_memory.c ****   #ifdef U8G2_USE_DYNAMIC_ALLOC
 647:..\..\..\u8g2\u8g2\csrc/u8g2_d_memory.c ****   *page_cnt = 2;
 648:..\..\..\u8g2\u8g2\csrc/u8g2_d_memory.c ****   return 0;
 649:..\..\..\u8g2\u8g2\csrc/u8g2_d_memory.c ****   #else
 650:..\..\..\u8g2\u8g2\csrc/u8g2_d_memory.c ****   static uint8_t buf[192];
 651:..\..\..\u8g2\u8g2\csrc/u8g2_d_memory.c ****   *page_cnt = 2;
 1658              		.loc 1 651 0
 1659 0000 0223     		movs	r3, #2
 1660 0002 0370     		strb	r3, [r0]
 652:..\..\..\u8g2\u8g2\csrc/u8g2_d_memory.c ****   return buf;
 653:..\..\..\u8g2\u8g2\csrc/u8g2_d_memory.c ****   #endif
 654:..\..\..\u8g2\u8g2\csrc/u8g2_d_memory.c **** }
 1661              		.loc 1 654 0
 1662 0004 0048     		ldr	r0, .L176
 1663              	.LVL117:
 1664 0006 7047     		bx	lr
 1665              	.L177:
 1666              		.align	2
 1667              	.L176:
 1668 0008 30870000 		.word	.LANCHOR8-144
 1669              		.cfi_endproc
 1670              	.LFE58:
 1671              		.size	u8g2_m_12_8_2, .-u8g2_m_12_8_2
 1672              		.section	.text.u8g2_m_12_8_f,"ax",%progbits
 1673              		.align	1
 1674              		.global	u8g2_m_12_8_f
 1675              		.thumb
 1676              		.thumb_func
 1677              		.type	u8g2_m_12_8_f, %function
 1678              	u8g2_m_12_8_f:
 1679              	.LFB59:
 655:..\..\..\u8g2\u8g2\csrc/u8g2_d_memory.c **** uint8_t *u8g2_m_12_8_f(uint8_t *page_cnt)
 656:..\..\..\u8g2\u8g2\csrc/u8g2_d_memory.c **** {
 1680              		.loc 1 656 0
 1681              		.cfi_startproc
ARM GAS  C:\Users\jesse\AppData\Local\Temp\ccuy2FXa.s 			page 42


 1682              		@ args = 0, pretend = 0, frame = 0
 1683              		@ frame_needed = 0, uses_anonymous_args = 0
 1684              		@ link register save eliminated.
 1685              	.LVL118:
 657:..\..\..\u8g2\u8g2\csrc/u8g2_d_memory.c ****   #ifdef U8G2_USE_DYNAMIC_ALLOC
 658:..\..\..\u8g2\u8g2\csrc/u8g2_d_memory.c ****   *page_cnt = 8;
 659:..\..\..\u8g2\u8g2\csrc/u8g2_d_memory.c ****   return 0;
 660:..\..\..\u8g2\u8g2\csrc/u8g2_d_memory.c ****   #else
 661:..\..\..\u8g2\u8g2\csrc/u8g2_d_memory.c ****   static uint8_t buf[768];
 662:..\..\..\u8g2\u8g2\csrc/u8g2_d_memory.c ****   *page_cnt = 8;
 1686              		.loc 1 662 0
 1687 0000 0823     		movs	r3, #8
 1688 0002 0370     		strb	r3, [r0]
 663:..\..\..\u8g2\u8g2\csrc/u8g2_d_memory.c ****   return buf;
 664:..\..\..\u8g2\u8g2\csrc/u8g2_d_memory.c ****   #endif
 665:..\..\..\u8g2\u8g2\csrc/u8g2_d_memory.c **** }
 1689              		.loc 1 665 0
 1690 0004 0048     		ldr	r0, .L179
 1691              	.LVL119:
 1692 0006 7047     		bx	lr
 1693              	.L180:
 1694              		.align	2
 1695              	.L179:
 1696 0008 F0870000 		.word	.LANCHOR8+48
 1697              		.cfi_endproc
 1698              	.LFE59:
 1699              		.size	u8g2_m_12_8_f, .-u8g2_m_12_8_f
 1700              		.section	.text.u8g2_m_20_4_1,"ax",%progbits
 1701              		.align	1
 1702              		.global	u8g2_m_20_4_1
 1703              		.thumb
 1704              		.thumb_func
 1705              		.type	u8g2_m_20_4_1, %function
 1706              	u8g2_m_20_4_1:
 1707              	.LFB60:
 666:..\..\..\u8g2\u8g2\csrc/u8g2_d_memory.c **** uint8_t *u8g2_m_20_4_1(uint8_t *page_cnt)
 667:..\..\..\u8g2\u8g2\csrc/u8g2_d_memory.c **** {
 1708              		.loc 1 667 0
 1709              		.cfi_startproc
 1710              		@ args = 0, pretend = 0, frame = 0
 1711              		@ frame_needed = 0, uses_anonymous_args = 0
 1712              		@ link register save eliminated.
 1713              	.LVL120:
 668:..\..\..\u8g2\u8g2\csrc/u8g2_d_memory.c ****   #ifdef U8G2_USE_DYNAMIC_ALLOC
 669:..\..\..\u8g2\u8g2\csrc/u8g2_d_memory.c ****   *page_cnt = 1;
 670:..\..\..\u8g2\u8g2\csrc/u8g2_d_memory.c ****   return 0;
 671:..\..\..\u8g2\u8g2\csrc/u8g2_d_memory.c ****   #else
 672:..\..\..\u8g2\u8g2\csrc/u8g2_d_memory.c ****   static uint8_t buf[160];
 673:..\..\..\u8g2\u8g2\csrc/u8g2_d_memory.c ****   *page_cnt = 1;
 1714              		.loc 1 673 0
 1715 0000 0123     		movs	r3, #1
 1716 0002 0370     		strb	r3, [r0]
 674:..\..\..\u8g2\u8g2\csrc/u8g2_d_memory.c ****   return buf;
 675:..\..\..\u8g2\u8g2\csrc/u8g2_d_memory.c ****   #endif
 676:..\..\..\u8g2\u8g2\csrc/u8g2_d_memory.c **** }
 1717              		.loc 1 676 0
 1718 0004 0048     		ldr	r0, .L182
ARM GAS  C:\Users\jesse\AppData\Local\Temp\ccuy2FXa.s 			page 43


 1719              	.LVL121:
 1720 0006 7047     		bx	lr
 1721              	.L183:
 1722              		.align	2
 1723              	.L182:
 1724 0008 F08A0000 		.word	.LANCHOR8+816
 1725              		.cfi_endproc
 1726              	.LFE60:
 1727              		.size	u8g2_m_20_4_1, .-u8g2_m_20_4_1
 1728              		.section	.text.u8g2_m_20_4_2,"ax",%progbits
 1729              		.align	1
 1730              		.global	u8g2_m_20_4_2
 1731              		.thumb
 1732              		.thumb_func
 1733              		.type	u8g2_m_20_4_2, %function
 1734              	u8g2_m_20_4_2:
 1735              	.LFB61:
 677:..\..\..\u8g2\u8g2\csrc/u8g2_d_memory.c **** uint8_t *u8g2_m_20_4_2(uint8_t *page_cnt)
 678:..\..\..\u8g2\u8g2\csrc/u8g2_d_memory.c **** {
 1736              		.loc 1 678 0
 1737              		.cfi_startproc
 1738              		@ args = 0, pretend = 0, frame = 0
 1739              		@ frame_needed = 0, uses_anonymous_args = 0
 1740              		@ link register save eliminated.
 1741              	.LVL122:
 679:..\..\..\u8g2\u8g2\csrc/u8g2_d_memory.c ****   #ifdef U8G2_USE_DYNAMIC_ALLOC
 680:..\..\..\u8g2\u8g2\csrc/u8g2_d_memory.c ****   *page_cnt = 2;
 681:..\..\..\u8g2\u8g2\csrc/u8g2_d_memory.c ****   return 0;
 682:..\..\..\u8g2\u8g2\csrc/u8g2_d_memory.c ****   #else
 683:..\..\..\u8g2\u8g2\csrc/u8g2_d_memory.c ****   static uint8_t buf[320];
 684:..\..\..\u8g2\u8g2\csrc/u8g2_d_memory.c ****   *page_cnt = 2;
 1742              		.loc 1 684 0
 1743 0000 0223     		movs	r3, #2
 1744 0002 0370     		strb	r3, [r0]
 685:..\..\..\u8g2\u8g2\csrc/u8g2_d_memory.c ****   return buf;
 686:..\..\..\u8g2\u8g2\csrc/u8g2_d_memory.c ****   #endif
 687:..\..\..\u8g2\u8g2\csrc/u8g2_d_memory.c **** }
 1745              		.loc 1 687 0
 1746 0004 0048     		ldr	r0, .L185
 1747              	.LVL123:
 1748 0006 7047     		bx	lr
 1749              	.L186:
 1750              		.align	2
 1751              	.L185:
 1752 0008 908B0000 		.word	.LANCHOR8+976
 1753              		.cfi_endproc
 1754              	.LFE61:
 1755              		.size	u8g2_m_20_4_2, .-u8g2_m_20_4_2
 1756              		.section	.text.u8g2_m_20_4_f,"ax",%progbits
 1757              		.align	1
 1758              		.global	u8g2_m_20_4_f
 1759              		.thumb
 1760              		.thumb_func
 1761              		.type	u8g2_m_20_4_f, %function
 1762              	u8g2_m_20_4_f:
 1763              	.LFB62:
 688:..\..\..\u8g2\u8g2\csrc/u8g2_d_memory.c **** uint8_t *u8g2_m_20_4_f(uint8_t *page_cnt)
ARM GAS  C:\Users\jesse\AppData\Local\Temp\ccuy2FXa.s 			page 44


 689:..\..\..\u8g2\u8g2\csrc/u8g2_d_memory.c **** {
 1764              		.loc 1 689 0
 1765              		.cfi_startproc
 1766              		@ args = 0, pretend = 0, frame = 0
 1767              		@ frame_needed = 0, uses_anonymous_args = 0
 1768              		@ link register save eliminated.
 1769              	.LVL124:
 690:..\..\..\u8g2\u8g2\csrc/u8g2_d_memory.c ****   #ifdef U8G2_USE_DYNAMIC_ALLOC
 691:..\..\..\u8g2\u8g2\csrc/u8g2_d_memory.c ****   *page_cnt = 4;
 692:..\..\..\u8g2\u8g2\csrc/u8g2_d_memory.c ****   return 0;
 693:..\..\..\u8g2\u8g2\csrc/u8g2_d_memory.c ****   #else
 694:..\..\..\u8g2\u8g2\csrc/u8g2_d_memory.c ****   static uint8_t buf[640];
 695:..\..\..\u8g2\u8g2\csrc/u8g2_d_memory.c ****   *page_cnt = 4;
 1770              		.loc 1 695 0
 1771 0000 0423     		movs	r3, #4
 1772 0002 0370     		strb	r3, [r0]
 696:..\..\..\u8g2\u8g2\csrc/u8g2_d_memory.c ****   return buf;
 697:..\..\..\u8g2\u8g2\csrc/u8g2_d_memory.c ****   #endif
 698:..\..\..\u8g2\u8g2\csrc/u8g2_d_memory.c **** }
 1773              		.loc 1 698 0
 1774 0004 0048     		ldr	r0, .L188
 1775              	.LVL125:
 1776 0006 7047     		bx	lr
 1777              	.L189:
 1778              		.align	2
 1779              	.L188:
 1780 0008 D08C0000 		.word	.LANCHOR8+1296
 1781              		.cfi_endproc
 1782              	.LFE62:
 1783              		.size	u8g2_m_20_4_f, .-u8g2_m_20_4_f
 1784              		.section	.text.u8g2_m_24_4_1,"ax",%progbits
 1785              		.align	1
 1786              		.global	u8g2_m_24_4_1
 1787              		.thumb
 1788              		.thumb_func
 1789              		.type	u8g2_m_24_4_1, %function
 1790              	u8g2_m_24_4_1:
 1791              	.LFB63:
 699:..\..\..\u8g2\u8g2\csrc/u8g2_d_memory.c **** uint8_t *u8g2_m_24_4_1(uint8_t *page_cnt)
 700:..\..\..\u8g2\u8g2\csrc/u8g2_d_memory.c **** {
 1792              		.loc 1 700 0
 1793              		.cfi_startproc
 1794              		@ args = 0, pretend = 0, frame = 0
 1795              		@ frame_needed = 0, uses_anonymous_args = 0
 1796              		@ link register save eliminated.
 1797              	.LVL126:
 701:..\..\..\u8g2\u8g2\csrc/u8g2_d_memory.c ****   #ifdef U8G2_USE_DYNAMIC_ALLOC
 702:..\..\..\u8g2\u8g2\csrc/u8g2_d_memory.c ****   *page_cnt = 1;
 703:..\..\..\u8g2\u8g2\csrc/u8g2_d_memory.c ****   return 0;
 704:..\..\..\u8g2\u8g2\csrc/u8g2_d_memory.c ****   #else
 705:..\..\..\u8g2\u8g2\csrc/u8g2_d_memory.c ****   static uint8_t buf[192];
 706:..\..\..\u8g2\u8g2\csrc/u8g2_d_memory.c ****   *page_cnt = 1;
 1798              		.loc 1 706 0
 1799 0000 0123     		movs	r3, #1
 1800 0002 0370     		strb	r3, [r0]
 707:..\..\..\u8g2\u8g2\csrc/u8g2_d_memory.c ****   return buf;
 708:..\..\..\u8g2\u8g2\csrc/u8g2_d_memory.c ****   #endif
ARM GAS  C:\Users\jesse\AppData\Local\Temp\ccuy2FXa.s 			page 45


 709:..\..\..\u8g2\u8g2\csrc/u8g2_d_memory.c **** }
 1801              		.loc 1 709 0
 1802 0004 0048     		ldr	r0, .L191
 1803              	.LVL127:
 1804 0006 7047     		bx	lr
 1805              	.L192:
 1806              		.align	2
 1807              	.L191:
 1808 0008 508F0000 		.word	.LANCHOR8+1936
 1809              		.cfi_endproc
 1810              	.LFE63:
 1811              		.size	u8g2_m_24_4_1, .-u8g2_m_24_4_1
 1812              		.section	.text.u8g2_m_24_4_2,"ax",%progbits
 1813              		.align	1
 1814              		.global	u8g2_m_24_4_2
 1815              		.thumb
 1816              		.thumb_func
 1817              		.type	u8g2_m_24_4_2, %function
 1818              	u8g2_m_24_4_2:
 1819              	.LFB64:
 710:..\..\..\u8g2\u8g2\csrc/u8g2_d_memory.c **** uint8_t *u8g2_m_24_4_2(uint8_t *page_cnt)
 711:..\..\..\u8g2\u8g2\csrc/u8g2_d_memory.c **** {
 1820              		.loc 1 711 0
 1821              		.cfi_startproc
 1822              		@ args = 0, pretend = 0, frame = 0
 1823              		@ frame_needed = 0, uses_anonymous_args = 0
 1824              		@ link register save eliminated.
 1825              	.LVL128:
 712:..\..\..\u8g2\u8g2\csrc/u8g2_d_memory.c ****   #ifdef U8G2_USE_DYNAMIC_ALLOC
 713:..\..\..\u8g2\u8g2\csrc/u8g2_d_memory.c ****   *page_cnt = 2;
 714:..\..\..\u8g2\u8g2\csrc/u8g2_d_memory.c ****   return 0;
 715:..\..\..\u8g2\u8g2\csrc/u8g2_d_memory.c ****   #else
 716:..\..\..\u8g2\u8g2\csrc/u8g2_d_memory.c ****   static uint8_t buf[384];
 717:..\..\..\u8g2\u8g2\csrc/u8g2_d_memory.c ****   *page_cnt = 2;
 1826              		.loc 1 717 0
 1827 0000 0223     		movs	r3, #2
 1828 0002 0370     		strb	r3, [r0]
 718:..\..\..\u8g2\u8g2\csrc/u8g2_d_memory.c ****   return buf;
 719:..\..\..\u8g2\u8g2\csrc/u8g2_d_memory.c ****   #endif
 720:..\..\..\u8g2\u8g2\csrc/u8g2_d_memory.c **** }
 1829              		.loc 1 720 0
 1830 0004 0048     		ldr	r0, .L194
 1831              	.LVL129:
 1832 0006 7047     		bx	lr
 1833              	.L195:
 1834              		.align	2
 1835              	.L194:
 1836 0008 10900000 		.word	.LANCHOR8+2128
 1837              		.cfi_endproc
 1838              	.LFE64:
 1839              		.size	u8g2_m_24_4_2, .-u8g2_m_24_4_2
 1840              		.section	.text.u8g2_m_24_4_f,"ax",%progbits
 1841              		.align	1
 1842              		.global	u8g2_m_24_4_f
 1843              		.thumb
 1844              		.thumb_func
 1845              		.type	u8g2_m_24_4_f, %function
ARM GAS  C:\Users\jesse\AppData\Local\Temp\ccuy2FXa.s 			page 46


 1846              	u8g2_m_24_4_f:
 1847              	.LFB65:
 721:..\..\..\u8g2\u8g2\csrc/u8g2_d_memory.c **** uint8_t *u8g2_m_24_4_f(uint8_t *page_cnt)
 722:..\..\..\u8g2\u8g2\csrc/u8g2_d_memory.c **** {
 1848              		.loc 1 722 0
 1849              		.cfi_startproc
 1850              		@ args = 0, pretend = 0, frame = 0
 1851              		@ frame_needed = 0, uses_anonymous_args = 0
 1852              		@ link register save eliminated.
 1853              	.LVL130:
 723:..\..\..\u8g2\u8g2\csrc/u8g2_d_memory.c ****   #ifdef U8G2_USE_DYNAMIC_ALLOC
 724:..\..\..\u8g2\u8g2\csrc/u8g2_d_memory.c ****   *page_cnt = 4;
 725:..\..\..\u8g2\u8g2\csrc/u8g2_d_memory.c ****   return 0;
 726:..\..\..\u8g2\u8g2\csrc/u8g2_d_memory.c ****   #else
 727:..\..\..\u8g2\u8g2\csrc/u8g2_d_memory.c ****   static uint8_t buf[768];
 728:..\..\..\u8g2\u8g2\csrc/u8g2_d_memory.c ****   *page_cnt = 4;
 1854              		.loc 1 728 0
 1855 0000 0423     		movs	r3, #4
 1856 0002 0370     		strb	r3, [r0]
 729:..\..\..\u8g2\u8g2\csrc/u8g2_d_memory.c ****   return buf;
 730:..\..\..\u8g2\u8g2\csrc/u8g2_d_memory.c ****   #endif
 731:..\..\..\u8g2\u8g2\csrc/u8g2_d_memory.c **** }
 1857              		.loc 1 731 0
 1858 0004 0048     		ldr	r0, .L197
 1859              	.LVL131:
 1860 0006 7047     		bx	lr
 1861              	.L198:
 1862              		.align	2
 1863              	.L197:
 1864 0008 90910000 		.word	.LANCHOR8+2512
 1865              		.cfi_endproc
 1866              	.LFE65:
 1867              		.size	u8g2_m_24_4_f, .-u8g2_m_24_4_f
 1868              		.section	.text.u8g2_m_50_30_1,"ax",%progbits
 1869              		.align	1
 1870              		.global	u8g2_m_50_30_1
 1871              		.thumb
 1872              		.thumb_func
 1873              		.type	u8g2_m_50_30_1, %function
 1874              	u8g2_m_50_30_1:
 1875              	.LFB66:
 732:..\..\..\u8g2\u8g2\csrc/u8g2_d_memory.c **** uint8_t *u8g2_m_50_30_1(uint8_t *page_cnt)
 733:..\..\..\u8g2\u8g2\csrc/u8g2_d_memory.c **** {
 1876              		.loc 1 733 0
 1877              		.cfi_startproc
 1878              		@ args = 0, pretend = 0, frame = 0
 1879              		@ frame_needed = 0, uses_anonymous_args = 0
 1880              		@ link register save eliminated.
 1881              	.LVL132:
 734:..\..\..\u8g2\u8g2\csrc/u8g2_d_memory.c ****   #ifdef U8G2_USE_DYNAMIC_ALLOC
 735:..\..\..\u8g2\u8g2\csrc/u8g2_d_memory.c ****   *page_cnt = 1;
 736:..\..\..\u8g2\u8g2\csrc/u8g2_d_memory.c ****   return 0;
 737:..\..\..\u8g2\u8g2\csrc/u8g2_d_memory.c ****   #else
 738:..\..\..\u8g2\u8g2\csrc/u8g2_d_memory.c ****   static uint8_t buf[400];
 739:..\..\..\u8g2\u8g2\csrc/u8g2_d_memory.c ****   *page_cnt = 1;
 1882              		.loc 1 739 0
 1883 0000 0123     		movs	r3, #1
ARM GAS  C:\Users\jesse\AppData\Local\Temp\ccuy2FXa.s 			page 47


 1884 0002 0370     		strb	r3, [r0]
 740:..\..\..\u8g2\u8g2\csrc/u8g2_d_memory.c ****   return buf;
 741:..\..\..\u8g2\u8g2\csrc/u8g2_d_memory.c ****   #endif
 742:..\..\..\u8g2\u8g2\csrc/u8g2_d_memory.c **** }
 1885              		.loc 1 742 0
 1886 0004 0048     		ldr	r0, .L200
 1887              	.LVL133:
 1888 0006 7047     		bx	lr
 1889              	.L201:
 1890              		.align	2
 1891              	.L200:
 1892 0008 90940000 		.word	.LANCHOR8+3280
 1893              		.cfi_endproc
 1894              	.LFE66:
 1895              		.size	u8g2_m_50_30_1, .-u8g2_m_50_30_1
 1896              		.section	.text.u8g2_m_50_30_2,"ax",%progbits
 1897              		.align	1
 1898              		.global	u8g2_m_50_30_2
 1899              		.thumb
 1900              		.thumb_func
 1901              		.type	u8g2_m_50_30_2, %function
 1902              	u8g2_m_50_30_2:
 1903              	.LFB67:
 743:..\..\..\u8g2\u8g2\csrc/u8g2_d_memory.c **** uint8_t *u8g2_m_50_30_2(uint8_t *page_cnt)
 744:..\..\..\u8g2\u8g2\csrc/u8g2_d_memory.c **** {
 1904              		.loc 1 744 0
 1905              		.cfi_startproc
 1906              		@ args = 0, pretend = 0, frame = 0
 1907              		@ frame_needed = 0, uses_anonymous_args = 0
 1908              		@ link register save eliminated.
 1909              	.LVL134:
 745:..\..\..\u8g2\u8g2\csrc/u8g2_d_memory.c ****   #ifdef U8G2_USE_DYNAMIC_ALLOC
 746:..\..\..\u8g2\u8g2\csrc/u8g2_d_memory.c ****   *page_cnt = 2;
 747:..\..\..\u8g2\u8g2\csrc/u8g2_d_memory.c ****   return 0;
 748:..\..\..\u8g2\u8g2\csrc/u8g2_d_memory.c ****   #else
 749:..\..\..\u8g2\u8g2\csrc/u8g2_d_memory.c ****   static uint8_t buf[800];
 750:..\..\..\u8g2\u8g2\csrc/u8g2_d_memory.c ****   *page_cnt = 2;
 1910              		.loc 1 750 0
 1911 0000 0223     		movs	r3, #2
 1912 0002 0370     		strb	r3, [r0]
 751:..\..\..\u8g2\u8g2\csrc/u8g2_d_memory.c ****   return buf;
 752:..\..\..\u8g2\u8g2\csrc/u8g2_d_memory.c ****   #endif
 753:..\..\..\u8g2\u8g2\csrc/u8g2_d_memory.c **** }
 1913              		.loc 1 753 0
 1914 0004 0048     		ldr	r0, .L203
 1915              	.LVL135:
 1916 0006 7047     		bx	lr
 1917              	.L204:
 1918              		.align	2
 1919              	.L203:
 1920 0008 20960000 		.word	.LANCHOR8+3680
 1921              		.cfi_endproc
 1922              	.LFE67:
 1923              		.size	u8g2_m_50_30_2, .-u8g2_m_50_30_2
 1924              		.section	.text.u8g2_m_50_30_f,"ax",%progbits
 1925              		.align	1
 1926              		.global	u8g2_m_50_30_f
ARM GAS  C:\Users\jesse\AppData\Local\Temp\ccuy2FXa.s 			page 48


 1927              		.thumb
 1928              		.thumb_func
 1929              		.type	u8g2_m_50_30_f, %function
 1930              	u8g2_m_50_30_f:
 1931              	.LFB68:
 754:..\..\..\u8g2\u8g2\csrc/u8g2_d_memory.c **** uint8_t *u8g2_m_50_30_f(uint8_t *page_cnt)
 755:..\..\..\u8g2\u8g2\csrc/u8g2_d_memory.c **** {
 1932              		.loc 1 755 0
 1933              		.cfi_startproc
 1934              		@ args = 0, pretend = 0, frame = 0
 1935              		@ frame_needed = 0, uses_anonymous_args = 0
 1936              		@ link register save eliminated.
 1937              	.LVL136:
 756:..\..\..\u8g2\u8g2\csrc/u8g2_d_memory.c ****   #ifdef U8G2_USE_DYNAMIC_ALLOC
 757:..\..\..\u8g2\u8g2\csrc/u8g2_d_memory.c ****   *page_cnt = 30;
 758:..\..\..\u8g2\u8g2\csrc/u8g2_d_memory.c ****   return 0;
 759:..\..\..\u8g2\u8g2\csrc/u8g2_d_memory.c ****   #else
 760:..\..\..\u8g2\u8g2\csrc/u8g2_d_memory.c ****   static uint8_t buf[12000];
 761:..\..\..\u8g2\u8g2\csrc/u8g2_d_memory.c ****   *page_cnt = 30;
 1938              		.loc 1 761 0
 1939 0000 1E23     		movs	r3, #30
 1940 0002 0370     		strb	r3, [r0]
 762:..\..\..\u8g2\u8g2\csrc/u8g2_d_memory.c ****   return buf;
 763:..\..\..\u8g2\u8g2\csrc/u8g2_d_memory.c ****   #endif
 764:..\..\..\u8g2\u8g2\csrc/u8g2_d_memory.c **** }
 1941              		.loc 1 764 0
 1942 0004 0048     		ldr	r0, .L206
 1943              	.LVL137:
 1944 0006 7047     		bx	lr
 1945              	.L207:
 1946              		.align	2
 1947              	.L206:
 1948 0008 40990000 		.word	.LANCHOR9+136
 1949              		.cfi_endproc
 1950              	.LFE68:
 1951              		.size	u8g2_m_50_30_f, .-u8g2_m_50_30_f
 1952              		.section	.text.u8g2_m_18_21_1,"ax",%progbits
 1953              		.align	1
 1954              		.global	u8g2_m_18_21_1
 1955              		.thumb
 1956              		.thumb_func
 1957              		.type	u8g2_m_18_21_1, %function
 1958              	u8g2_m_18_21_1:
 1959              	.LFB69:
 765:..\..\..\u8g2\u8g2\csrc/u8g2_d_memory.c **** uint8_t *u8g2_m_18_21_1(uint8_t *page_cnt)
 766:..\..\..\u8g2\u8g2\csrc/u8g2_d_memory.c **** {
 1960              		.loc 1 766 0
 1961              		.cfi_startproc
 1962              		@ args = 0, pretend = 0, frame = 0
 1963              		@ frame_needed = 0, uses_anonymous_args = 0
 1964              		@ link register save eliminated.
 1965              	.LVL138:
 767:..\..\..\u8g2\u8g2\csrc/u8g2_d_memory.c ****   #ifdef U8G2_USE_DYNAMIC_ALLOC
 768:..\..\..\u8g2\u8g2\csrc/u8g2_d_memory.c ****   *page_cnt = 1;
 769:..\..\..\u8g2\u8g2\csrc/u8g2_d_memory.c ****   return 0;
 770:..\..\..\u8g2\u8g2\csrc/u8g2_d_memory.c ****   #else
 771:..\..\..\u8g2\u8g2\csrc/u8g2_d_memory.c ****   static uint8_t buf[144];
ARM GAS  C:\Users\jesse\AppData\Local\Temp\ccuy2FXa.s 			page 49


 772:..\..\..\u8g2\u8g2\csrc/u8g2_d_memory.c ****   *page_cnt = 1;
 1966              		.loc 1 772 0
 1967 0000 0123     		movs	r3, #1
 1968 0002 0370     		strb	r3, [r0]
 773:..\..\..\u8g2\u8g2\csrc/u8g2_d_memory.c ****   return buf;
 774:..\..\..\u8g2\u8g2\csrc/u8g2_d_memory.c ****   #endif
 775:..\..\..\u8g2\u8g2\csrc/u8g2_d_memory.c **** }
 1969              		.loc 1 775 0
 1970 0004 0048     		ldr	r0, .L209
 1971              	.LVL139:
 1972 0006 7047     		bx	lr
 1973              	.L210:
 1974              		.align	2
 1975              	.L209:
 1976 0008 20C80000 		.word	.LANCHOR10+3448
 1977              		.cfi_endproc
 1978              	.LFE69:
 1979              		.size	u8g2_m_18_21_1, .-u8g2_m_18_21_1
 1980              		.section	.text.u8g2_m_18_21_2,"ax",%progbits
 1981              		.align	1
 1982              		.global	u8g2_m_18_21_2
 1983              		.thumb
 1984              		.thumb_func
 1985              		.type	u8g2_m_18_21_2, %function
 1986              	u8g2_m_18_21_2:
 1987              	.LFB70:
 776:..\..\..\u8g2\u8g2\csrc/u8g2_d_memory.c **** uint8_t *u8g2_m_18_21_2(uint8_t *page_cnt)
 777:..\..\..\u8g2\u8g2\csrc/u8g2_d_memory.c **** {
 1988              		.loc 1 777 0
 1989              		.cfi_startproc
 1990              		@ args = 0, pretend = 0, frame = 0
 1991              		@ frame_needed = 0, uses_anonymous_args = 0
 1992              		@ link register save eliminated.
 1993              	.LVL140:
 778:..\..\..\u8g2\u8g2\csrc/u8g2_d_memory.c ****   #ifdef U8G2_USE_DYNAMIC_ALLOC
 779:..\..\..\u8g2\u8g2\csrc/u8g2_d_memory.c ****   *page_cnt = 2;
 780:..\..\..\u8g2\u8g2\csrc/u8g2_d_memory.c ****   return 0;
 781:..\..\..\u8g2\u8g2\csrc/u8g2_d_memory.c ****   #else
 782:..\..\..\u8g2\u8g2\csrc/u8g2_d_memory.c ****   static uint8_t buf[288];
 783:..\..\..\u8g2\u8g2\csrc/u8g2_d_memory.c ****   *page_cnt = 2;
 1994              		.loc 1 783 0
 1995 0000 0223     		movs	r3, #2
 1996 0002 0370     		strb	r3, [r0]
 784:..\..\..\u8g2\u8g2\csrc/u8g2_d_memory.c ****   return buf;
 785:..\..\..\u8g2\u8g2\csrc/u8g2_d_memory.c ****   #endif
 786:..\..\..\u8g2\u8g2\csrc/u8g2_d_memory.c **** }
 1997              		.loc 1 786 0
 1998 0004 0048     		ldr	r0, .L212
 1999              	.LVL141:
 2000 0006 7047     		bx	lr
 2001              	.L213:
 2002              		.align	2
 2003              	.L212:
 2004 0008 B0C80000 		.word	.LANCHOR10+3592
 2005              		.cfi_endproc
 2006              	.LFE70:
 2007              		.size	u8g2_m_18_21_2, .-u8g2_m_18_21_2
ARM GAS  C:\Users\jesse\AppData\Local\Temp\ccuy2FXa.s 			page 50


 2008              		.section	.text.u8g2_m_18_21_f,"ax",%progbits
 2009              		.align	1
 2010              		.global	u8g2_m_18_21_f
 2011              		.thumb
 2012              		.thumb_func
 2013              		.type	u8g2_m_18_21_f, %function
 2014              	u8g2_m_18_21_f:
 2015              	.LFB71:
 787:..\..\..\u8g2\u8g2\csrc/u8g2_d_memory.c **** uint8_t *u8g2_m_18_21_f(uint8_t *page_cnt)
 788:..\..\..\u8g2\u8g2\csrc/u8g2_d_memory.c **** {
 2016              		.loc 1 788 0
 2017              		.cfi_startproc
 2018              		@ args = 0, pretend = 0, frame = 0
 2019              		@ frame_needed = 0, uses_anonymous_args = 0
 2020              		@ link register save eliminated.
 2021              	.LVL142:
 789:..\..\..\u8g2\u8g2\csrc/u8g2_d_memory.c ****   #ifdef U8G2_USE_DYNAMIC_ALLOC
 790:..\..\..\u8g2\u8g2\csrc/u8g2_d_memory.c ****   *page_cnt = 21;
 791:..\..\..\u8g2\u8g2\csrc/u8g2_d_memory.c ****   return 0;
 792:..\..\..\u8g2\u8g2\csrc/u8g2_d_memory.c ****   #else
 793:..\..\..\u8g2\u8g2\csrc/u8g2_d_memory.c ****   static uint8_t buf[3024];
 794:..\..\..\u8g2\u8g2\csrc/u8g2_d_memory.c ****   *page_cnt = 21;
 2022              		.loc 1 794 0
 2023 0000 1523     		movs	r3, #21
 2024 0002 0370     		strb	r3, [r0]
 795:..\..\..\u8g2\u8g2\csrc/u8g2_d_memory.c ****   return buf;
 796:..\..\..\u8g2\u8g2\csrc/u8g2_d_memory.c ****   #endif
 797:..\..\..\u8g2\u8g2\csrc/u8g2_d_memory.c **** }
 2025              		.loc 1 797 0
 2026 0004 0048     		ldr	r0, .L215
 2027              	.LVL143:
 2028 0006 7047     		bx	lr
 2029              	.L216:
 2030              		.align	2
 2031              	.L215:
 2032 0008 D0C90000 		.word	.LANCHOR10+3880
 2033              		.cfi_endproc
 2034              	.LFE71:
 2035              		.size	u8g2_m_18_21_f, .-u8g2_m_18_21_f
 2036              		.section	.text.u8g2_m_11_6_1,"ax",%progbits
 2037              		.align	1
 2038              		.global	u8g2_m_11_6_1
 2039              		.thumb
 2040              		.thumb_func
 2041              		.type	u8g2_m_11_6_1, %function
 2042              	u8g2_m_11_6_1:
 2043              	.LFB72:
 798:..\..\..\u8g2\u8g2\csrc/u8g2_d_memory.c **** uint8_t *u8g2_m_11_6_1(uint8_t *page_cnt)
 799:..\..\..\u8g2\u8g2\csrc/u8g2_d_memory.c **** {
 2044              		.loc 1 799 0
 2045              		.cfi_startproc
 2046              		@ args = 0, pretend = 0, frame = 0
 2047              		@ frame_needed = 0, uses_anonymous_args = 0
 2048              		@ link register save eliminated.
 2049              	.LVL144:
 800:..\..\..\u8g2\u8g2\csrc/u8g2_d_memory.c ****   #ifdef U8G2_USE_DYNAMIC_ALLOC
 801:..\..\..\u8g2\u8g2\csrc/u8g2_d_memory.c ****   *page_cnt = 1;
ARM GAS  C:\Users\jesse\AppData\Local\Temp\ccuy2FXa.s 			page 51


 802:..\..\..\u8g2\u8g2\csrc/u8g2_d_memory.c ****   return 0;
 803:..\..\..\u8g2\u8g2\csrc/u8g2_d_memory.c ****   #else
 804:..\..\..\u8g2\u8g2\csrc/u8g2_d_memory.c ****   static uint8_t buf[88];
 805:..\..\..\u8g2\u8g2\csrc/u8g2_d_memory.c ****   *page_cnt = 1;
 2050              		.loc 1 805 0
 2051 0000 0123     		movs	r3, #1
 2052 0002 0370     		strb	r3, [r0]
 806:..\..\..\u8g2\u8g2\csrc/u8g2_d_memory.c ****   return buf;
 807:..\..\..\u8g2\u8g2\csrc/u8g2_d_memory.c ****   #endif
 808:..\..\..\u8g2\u8g2\csrc/u8g2_d_memory.c **** }
 2053              		.loc 1 808 0
 2054 0004 0048     		ldr	r0, .L218
 2055              	.LVL145:
 2056 0006 7047     		bx	lr
 2057              	.L219:
 2058              		.align	2
 2059              	.L218:
 2060 0008 A0D50000 		.word	.LANCHOR11+2560
 2061              		.cfi_endproc
 2062              	.LFE72:
 2063              		.size	u8g2_m_11_6_1, .-u8g2_m_11_6_1
 2064              		.section	.text.u8g2_m_11_6_2,"ax",%progbits
 2065              		.align	1
 2066              		.global	u8g2_m_11_6_2
 2067              		.thumb
 2068              		.thumb_func
 2069              		.type	u8g2_m_11_6_2, %function
 2070              	u8g2_m_11_6_2:
 2071              	.LFB73:
 809:..\..\..\u8g2\u8g2\csrc/u8g2_d_memory.c **** uint8_t *u8g2_m_11_6_2(uint8_t *page_cnt)
 810:..\..\..\u8g2\u8g2\csrc/u8g2_d_memory.c **** {
 2072              		.loc 1 810 0
 2073              		.cfi_startproc
 2074              		@ args = 0, pretend = 0, frame = 0
 2075              		@ frame_needed = 0, uses_anonymous_args = 0
 2076              		@ link register save eliminated.
 2077              	.LVL146:
 811:..\..\..\u8g2\u8g2\csrc/u8g2_d_memory.c ****   #ifdef U8G2_USE_DYNAMIC_ALLOC
 812:..\..\..\u8g2\u8g2\csrc/u8g2_d_memory.c ****   *page_cnt = 2;
 813:..\..\..\u8g2\u8g2\csrc/u8g2_d_memory.c ****   return 0;
 814:..\..\..\u8g2\u8g2\csrc/u8g2_d_memory.c ****   #else
 815:..\..\..\u8g2\u8g2\csrc/u8g2_d_memory.c ****   static uint8_t buf[176];
 816:..\..\..\u8g2\u8g2\csrc/u8g2_d_memory.c ****   *page_cnt = 2;
 2078              		.loc 1 816 0
 2079 0000 0223     		movs	r3, #2
 2080 0002 0370     		strb	r3, [r0]
 817:..\..\..\u8g2\u8g2\csrc/u8g2_d_memory.c ****   return buf;
 818:..\..\..\u8g2\u8g2\csrc/u8g2_d_memory.c ****   #endif
 819:..\..\..\u8g2\u8g2\csrc/u8g2_d_memory.c **** }
 2081              		.loc 1 819 0
 2082 0004 0048     		ldr	r0, .L221
 2083              	.LVL147:
 2084 0006 7047     		bx	lr
 2085              	.L222:
 2086              		.align	2
 2087              	.L221:
 2088 0008 F8D50000 		.word	.LANCHOR11+2648
ARM GAS  C:\Users\jesse\AppData\Local\Temp\ccuy2FXa.s 			page 52


 2089              		.cfi_endproc
 2090              	.LFE73:
 2091              		.size	u8g2_m_11_6_2, .-u8g2_m_11_6_2
 2092              		.section	.text.u8g2_m_11_6_f,"ax",%progbits
 2093              		.align	1
 2094              		.global	u8g2_m_11_6_f
 2095              		.thumb
 2096              		.thumb_func
 2097              		.type	u8g2_m_11_6_f, %function
 2098              	u8g2_m_11_6_f:
 2099              	.LFB74:
 820:..\..\..\u8g2\u8g2\csrc/u8g2_d_memory.c **** uint8_t *u8g2_m_11_6_f(uint8_t *page_cnt)
 821:..\..\..\u8g2\u8g2\csrc/u8g2_d_memory.c **** {
 2100              		.loc 1 821 0
 2101              		.cfi_startproc
 2102              		@ args = 0, pretend = 0, frame = 0
 2103              		@ frame_needed = 0, uses_anonymous_args = 0
 2104              		@ link register save eliminated.
 2105              	.LVL148:
 822:..\..\..\u8g2\u8g2\csrc/u8g2_d_memory.c ****   #ifdef U8G2_USE_DYNAMIC_ALLOC
 823:..\..\..\u8g2\u8g2\csrc/u8g2_d_memory.c ****   *page_cnt = 6;
 824:..\..\..\u8g2\u8g2\csrc/u8g2_d_memory.c ****   return 0;
 825:..\..\..\u8g2\u8g2\csrc/u8g2_d_memory.c ****   #else
 826:..\..\..\u8g2\u8g2\csrc/u8g2_d_memory.c ****   static uint8_t buf[528];
 827:..\..\..\u8g2\u8g2\csrc/u8g2_d_memory.c ****   *page_cnt = 6;
 2106              		.loc 1 827 0
 2107 0000 0623     		movs	r3, #6
 2108 0002 0370     		strb	r3, [r0]
 828:..\..\..\u8g2\u8g2\csrc/u8g2_d_memory.c ****   return buf;
 829:..\..\..\u8g2\u8g2\csrc/u8g2_d_memory.c ****   #endif
 830:..\..\..\u8g2\u8g2\csrc/u8g2_d_memory.c **** }
 2109              		.loc 1 830 0
 2110 0004 0048     		ldr	r0, .L224
 2111              	.LVL149:
 2112 0006 7047     		bx	lr
 2113              	.L225:
 2114              		.align	2
 2115              	.L224:
 2116 0008 A8D60000 		.word	.LANCHOR11+2824
 2117              		.cfi_endproc
 2118              	.LFE74:
 2119              		.size	u8g2_m_11_6_f, .-u8g2_m_11_6_f
 2120              		.section	.text.u8g2_m_12_9_1,"ax",%progbits
 2121              		.align	1
 2122              		.global	u8g2_m_12_9_1
 2123              		.thumb
 2124              		.thumb_func
 2125              		.type	u8g2_m_12_9_1, %function
 2126              	u8g2_m_12_9_1:
 2127              	.LFB75:
 831:..\..\..\u8g2\u8g2\csrc/u8g2_d_memory.c **** uint8_t *u8g2_m_12_9_1(uint8_t *page_cnt)
 832:..\..\..\u8g2\u8g2\csrc/u8g2_d_memory.c **** {
 2128              		.loc 1 832 0
 2129              		.cfi_startproc
 2130              		@ args = 0, pretend = 0, frame = 0
 2131              		@ frame_needed = 0, uses_anonymous_args = 0
 2132              		@ link register save eliminated.
ARM GAS  C:\Users\jesse\AppData\Local\Temp\ccuy2FXa.s 			page 53


 2133              	.LVL150:
 833:..\..\..\u8g2\u8g2\csrc/u8g2_d_memory.c ****   #ifdef U8G2_USE_DYNAMIC_ALLOC
 834:..\..\..\u8g2\u8g2\csrc/u8g2_d_memory.c ****   *page_cnt = 1;
 835:..\..\..\u8g2\u8g2\csrc/u8g2_d_memory.c ****   return 0;
 836:..\..\..\u8g2\u8g2\csrc/u8g2_d_memory.c ****   #else
 837:..\..\..\u8g2\u8g2\csrc/u8g2_d_memory.c ****   static uint8_t buf[96];
 838:..\..\..\u8g2\u8g2\csrc/u8g2_d_memory.c ****   *page_cnt = 1;
 2134              		.loc 1 838 0
 2135 0000 0123     		movs	r3, #1
 2136 0002 0370     		strb	r3, [r0]
 839:..\..\..\u8g2\u8g2\csrc/u8g2_d_memory.c ****   return buf;
 840:..\..\..\u8g2\u8g2\csrc/u8g2_d_memory.c ****   #endif
 841:..\..\..\u8g2\u8g2\csrc/u8g2_d_memory.c **** }
 2137              		.loc 1 841 0
 2138 0004 0048     		ldr	r0, .L227
 2139              	.LVL151:
 2140 0006 7047     		bx	lr
 2141              	.L228:
 2142              		.align	2
 2143              	.L227:
 2144 0008 B8D80000 		.word	.LANCHOR11+3352
 2145              		.cfi_endproc
 2146              	.LFE75:
 2147              		.size	u8g2_m_12_9_1, .-u8g2_m_12_9_1
 2148              		.section	.text.u8g2_m_12_9_2,"ax",%progbits
 2149              		.align	1
 2150              		.global	u8g2_m_12_9_2
 2151              		.thumb
 2152              		.thumb_func
 2153              		.type	u8g2_m_12_9_2, %function
 2154              	u8g2_m_12_9_2:
 2155              	.LFB76:
 842:..\..\..\u8g2\u8g2\csrc/u8g2_d_memory.c **** uint8_t *u8g2_m_12_9_2(uint8_t *page_cnt)
 843:..\..\..\u8g2\u8g2\csrc/u8g2_d_memory.c **** {
 2156              		.loc 1 843 0
 2157              		.cfi_startproc
 2158              		@ args = 0, pretend = 0, frame = 0
 2159              		@ frame_needed = 0, uses_anonymous_args = 0
 2160              		@ link register save eliminated.
 2161              	.LVL152:
 844:..\..\..\u8g2\u8g2\csrc/u8g2_d_memory.c ****   #ifdef U8G2_USE_DYNAMIC_ALLOC
 845:..\..\..\u8g2\u8g2\csrc/u8g2_d_memory.c ****   *page_cnt = 2;
 846:..\..\..\u8g2\u8g2\csrc/u8g2_d_memory.c ****   return 0;
 847:..\..\..\u8g2\u8g2\csrc/u8g2_d_memory.c ****   #else
 848:..\..\..\u8g2\u8g2\csrc/u8g2_d_memory.c ****   static uint8_t buf[192];
 849:..\..\..\u8g2\u8g2\csrc/u8g2_d_memory.c ****   *page_cnt = 2;
 2162              		.loc 1 849 0
 2163 0000 0223     		movs	r3, #2
 2164 0002 0370     		strb	r3, [r0]
 850:..\..\..\u8g2\u8g2\csrc/u8g2_d_memory.c ****   return buf;
 851:..\..\..\u8g2\u8g2\csrc/u8g2_d_memory.c ****   #endif
 852:..\..\..\u8g2\u8g2\csrc/u8g2_d_memory.c **** }
 2165              		.loc 1 852 0
 2166 0004 0048     		ldr	r0, .L230
 2167              	.LVL153:
 2168 0006 7047     		bx	lr
 2169              	.L231:
ARM GAS  C:\Users\jesse\AppData\Local\Temp\ccuy2FXa.s 			page 54


 2170              		.align	2
 2171              	.L230:
 2172 0008 18D90000 		.word	.LANCHOR11+3448
 2173              		.cfi_endproc
 2174              	.LFE76:
 2175              		.size	u8g2_m_12_9_2, .-u8g2_m_12_9_2
 2176              		.section	.text.u8g2_m_12_9_f,"ax",%progbits
 2177              		.align	1
 2178              		.global	u8g2_m_12_9_f
 2179              		.thumb
 2180              		.thumb_func
 2181              		.type	u8g2_m_12_9_f, %function
 2182              	u8g2_m_12_9_f:
 2183              	.LFB77:
 853:..\..\..\u8g2\u8g2\csrc/u8g2_d_memory.c **** uint8_t *u8g2_m_12_9_f(uint8_t *page_cnt)
 854:..\..\..\u8g2\u8g2\csrc/u8g2_d_memory.c **** {
 2184              		.loc 1 854 0
 2185              		.cfi_startproc
 2186              		@ args = 0, pretend = 0, frame = 0
 2187              		@ frame_needed = 0, uses_anonymous_args = 0
 2188              		@ link register save eliminated.
 2189              	.LVL154:
 855:..\..\..\u8g2\u8g2\csrc/u8g2_d_memory.c ****   #ifdef U8G2_USE_DYNAMIC_ALLOC
 856:..\..\..\u8g2\u8g2\csrc/u8g2_d_memory.c ****   *page_cnt = 9;
 857:..\..\..\u8g2\u8g2\csrc/u8g2_d_memory.c ****   return 0;
 858:..\..\..\u8g2\u8g2\csrc/u8g2_d_memory.c ****   #else
 859:..\..\..\u8g2\u8g2\csrc/u8g2_d_memory.c ****   static uint8_t buf[864];
 860:..\..\..\u8g2\u8g2\csrc/u8g2_d_memory.c ****   *page_cnt = 9;
 2190              		.loc 1 860 0
 2191 0000 0923     		movs	r3, #9
 2192 0002 0370     		strb	r3, [r0]
 861:..\..\..\u8g2\u8g2\csrc/u8g2_d_memory.c ****   return buf;
 862:..\..\..\u8g2\u8g2\csrc/u8g2_d_memory.c ****   #endif
 863:..\..\..\u8g2\u8g2\csrc/u8g2_d_memory.c **** }
 2193              		.loc 1 863 0
 2194 0004 0048     		ldr	r0, .L233
 2195              	.LVL155:
 2196 0006 7047     		bx	lr
 2197              	.L234:
 2198              		.align	2
 2199              	.L233:
 2200 0008 D8D90000 		.word	.LANCHOR11+3640
 2201              		.cfi_endproc
 2202              	.LFE77:
 2203              		.size	u8g2_m_12_9_f, .-u8g2_m_12_9_f
 2204              		.section	.text.u8g2_m_24_8_1,"ax",%progbits
 2205              		.align	1
 2206              		.global	u8g2_m_24_8_1
 2207              		.thumb
 2208              		.thumb_func
 2209              		.type	u8g2_m_24_8_1, %function
 2210              	u8g2_m_24_8_1:
 2211              	.LFB78:
 864:..\..\..\u8g2\u8g2\csrc/u8g2_d_memory.c **** uint8_t *u8g2_m_24_8_1(uint8_t *page_cnt)
 865:..\..\..\u8g2\u8g2\csrc/u8g2_d_memory.c **** {
 2212              		.loc 1 865 0
 2213              		.cfi_startproc
ARM GAS  C:\Users\jesse\AppData\Local\Temp\ccuy2FXa.s 			page 55


 2214              		@ args = 0, pretend = 0, frame = 0
 2215              		@ frame_needed = 0, uses_anonymous_args = 0
 2216              		@ link register save eliminated.
 2217              	.LVL156:
 866:..\..\..\u8g2\u8g2\csrc/u8g2_d_memory.c ****   #ifdef U8G2_USE_DYNAMIC_ALLOC
 867:..\..\..\u8g2\u8g2\csrc/u8g2_d_memory.c ****   *page_cnt = 1;
 868:..\..\..\u8g2\u8g2\csrc/u8g2_d_memory.c ****   return 0;
 869:..\..\..\u8g2\u8g2\csrc/u8g2_d_memory.c ****   #else
 870:..\..\..\u8g2\u8g2\csrc/u8g2_d_memory.c ****   static uint8_t buf[192];
 871:..\..\..\u8g2\u8g2\csrc/u8g2_d_memory.c ****   *page_cnt = 1;
 2218              		.loc 1 871 0
 2219 0000 0123     		movs	r3, #1
 2220 0002 0370     		strb	r3, [r0]
 872:..\..\..\u8g2\u8g2\csrc/u8g2_d_memory.c ****   return buf;
 873:..\..\..\u8g2\u8g2\csrc/u8g2_d_memory.c ****   #endif
 874:..\..\..\u8g2\u8g2\csrc/u8g2_d_memory.c **** }
 2221              		.loc 1 874 0
 2222 0004 0048     		ldr	r0, .L236
 2223              	.LVL157:
 2224 0006 7047     		bx	lr
 2225              	.L237:
 2226              		.align	2
 2227              	.L236:
 2228 0008 38DD0000 		.word	.LANCHOR12+160
 2229              		.cfi_endproc
 2230              	.LFE78:
 2231              		.size	u8g2_m_24_8_1, .-u8g2_m_24_8_1
 2232              		.section	.text.u8g2_m_24_8_2,"ax",%progbits
 2233              		.align	1
 2234              		.global	u8g2_m_24_8_2
 2235              		.thumb
 2236              		.thumb_func
 2237              		.type	u8g2_m_24_8_2, %function
 2238              	u8g2_m_24_8_2:
 2239              	.LFB79:
 875:..\..\..\u8g2\u8g2\csrc/u8g2_d_memory.c **** uint8_t *u8g2_m_24_8_2(uint8_t *page_cnt)
 876:..\..\..\u8g2\u8g2\csrc/u8g2_d_memory.c **** {
 2240              		.loc 1 876 0
 2241              		.cfi_startproc
 2242              		@ args = 0, pretend = 0, frame = 0
 2243              		@ frame_needed = 0, uses_anonymous_args = 0
 2244              		@ link register save eliminated.
 2245              	.LVL158:
 877:..\..\..\u8g2\u8g2\csrc/u8g2_d_memory.c ****   #ifdef U8G2_USE_DYNAMIC_ALLOC
 878:..\..\..\u8g2\u8g2\csrc/u8g2_d_memory.c ****   *page_cnt = 2;
 879:..\..\..\u8g2\u8g2\csrc/u8g2_d_memory.c ****   return 0;
 880:..\..\..\u8g2\u8g2\csrc/u8g2_d_memory.c ****   #else
 881:..\..\..\u8g2\u8g2\csrc/u8g2_d_memory.c ****   static uint8_t buf[384];
 882:..\..\..\u8g2\u8g2\csrc/u8g2_d_memory.c ****   *page_cnt = 2;
 2246              		.loc 1 882 0
 2247 0000 0223     		movs	r3, #2
 2248 0002 0370     		strb	r3, [r0]
 883:..\..\..\u8g2\u8g2\csrc/u8g2_d_memory.c ****   return buf;
 884:..\..\..\u8g2\u8g2\csrc/u8g2_d_memory.c ****   #endif
 885:..\..\..\u8g2\u8g2\csrc/u8g2_d_memory.c **** }
 2249              		.loc 1 885 0
 2250 0004 0048     		ldr	r0, .L239
ARM GAS  C:\Users\jesse\AppData\Local\Temp\ccuy2FXa.s 			page 56


 2251              	.LVL159:
 2252 0006 7047     		bx	lr
 2253              	.L240:
 2254              		.align	2
 2255              	.L239:
 2256 0008 F8DD0000 		.word	.LANCHOR12+352
 2257              		.cfi_endproc
 2258              	.LFE79:
 2259              		.size	u8g2_m_24_8_2, .-u8g2_m_24_8_2
 2260              		.section	.text.u8g2_m_24_8_f,"ax",%progbits
 2261              		.align	1
 2262              		.global	u8g2_m_24_8_f
 2263              		.thumb
 2264              		.thumb_func
 2265              		.type	u8g2_m_24_8_f, %function
 2266              	u8g2_m_24_8_f:
 2267              	.LFB80:
 886:..\..\..\u8g2\u8g2\csrc/u8g2_d_memory.c **** uint8_t *u8g2_m_24_8_f(uint8_t *page_cnt)
 887:..\..\..\u8g2\u8g2\csrc/u8g2_d_memory.c **** {
 2268              		.loc 1 887 0
 2269              		.cfi_startproc
 2270              		@ args = 0, pretend = 0, frame = 0
 2271              		@ frame_needed = 0, uses_anonymous_args = 0
 2272              		@ link register save eliminated.
 2273              	.LVL160:
 888:..\..\..\u8g2\u8g2\csrc/u8g2_d_memory.c ****   #ifdef U8G2_USE_DYNAMIC_ALLOC
 889:..\..\..\u8g2\u8g2\csrc/u8g2_d_memory.c ****   *page_cnt = 8;
 890:..\..\..\u8g2\u8g2\csrc/u8g2_d_memory.c ****   return 0;
 891:..\..\..\u8g2\u8g2\csrc/u8g2_d_memory.c ****   #else
 892:..\..\..\u8g2\u8g2\csrc/u8g2_d_memory.c ****   static uint8_t buf[1536];
 893:..\..\..\u8g2\u8g2\csrc/u8g2_d_memory.c ****   *page_cnt = 8;
 2274              		.loc 1 893 0
 2275 0000 0823     		movs	r3, #8
 2276 0002 0370     		strb	r3, [r0]
 894:..\..\..\u8g2\u8g2\csrc/u8g2_d_memory.c ****   return buf;
 895:..\..\..\u8g2\u8g2\csrc/u8g2_d_memory.c ****   #endif
 896:..\..\..\u8g2\u8g2\csrc/u8g2_d_memory.c **** }
 2277              		.loc 1 896 0
 2278 0004 0048     		ldr	r0, .L242
 2279              	.LVL161:
 2280 0006 7047     		bx	lr
 2281              	.L243:
 2282              		.align	2
 2283              	.L242:
 2284 0008 78DF0000 		.word	.LANCHOR12+736
 2285              		.cfi_endproc
 2286              	.LFE80:
 2287              		.size	u8g2_m_24_8_f, .-u8g2_m_24_8_f
 2288              		.section	.text.u8g2_m_30_8_1,"ax",%progbits
 2289              		.align	1
 2290              		.global	u8g2_m_30_8_1
 2291              		.thumb
 2292              		.thumb_func
 2293              		.type	u8g2_m_30_8_1, %function
 2294              	u8g2_m_30_8_1:
 2295              	.LFB81:
 897:..\..\..\u8g2\u8g2\csrc/u8g2_d_memory.c **** uint8_t *u8g2_m_30_8_1(uint8_t *page_cnt)
ARM GAS  C:\Users\jesse\AppData\Local\Temp\ccuy2FXa.s 			page 57


 898:..\..\..\u8g2\u8g2\csrc/u8g2_d_memory.c **** {
 2296              		.loc 1 898 0
 2297              		.cfi_startproc
 2298              		@ args = 0, pretend = 0, frame = 0
 2299              		@ frame_needed = 0, uses_anonymous_args = 0
 2300              		@ link register save eliminated.
 2301              	.LVL162:
 899:..\..\..\u8g2\u8g2\csrc/u8g2_d_memory.c ****   #ifdef U8G2_USE_DYNAMIC_ALLOC
 900:..\..\..\u8g2\u8g2\csrc/u8g2_d_memory.c ****   *page_cnt = 1;
 901:..\..\..\u8g2\u8g2\csrc/u8g2_d_memory.c ****   return 0;
 902:..\..\..\u8g2\u8g2\csrc/u8g2_d_memory.c ****   #else
 903:..\..\..\u8g2\u8g2\csrc/u8g2_d_memory.c ****   static uint8_t buf[240];
 904:..\..\..\u8g2\u8g2\csrc/u8g2_d_memory.c ****   *page_cnt = 1;
 2302              		.loc 1 904 0
 2303 0000 0123     		movs	r3, #1
 2304 0002 0370     		strb	r3, [r0]
 905:..\..\..\u8g2\u8g2\csrc/u8g2_d_memory.c ****   return buf;
 906:..\..\..\u8g2\u8g2\csrc/u8g2_d_memory.c ****   #endif
 907:..\..\..\u8g2\u8g2\csrc/u8g2_d_memory.c **** }
 2305              		.loc 1 907 0
 2306 0004 0048     		ldr	r0, .L245
 2307              	.LVL163:
 2308 0006 7047     		bx	lr
 2309              	.L246:
 2310              		.align	2
 2311              	.L245:
 2312 0008 78E50000 		.word	.LANCHOR12+2272
 2313              		.cfi_endproc
 2314              	.LFE81:
 2315              		.size	u8g2_m_30_8_1, .-u8g2_m_30_8_1
 2316              		.section	.text.u8g2_m_30_8_2,"ax",%progbits
 2317              		.align	1
 2318              		.global	u8g2_m_30_8_2
 2319              		.thumb
 2320              		.thumb_func
 2321              		.type	u8g2_m_30_8_2, %function
 2322              	u8g2_m_30_8_2:
 2323              	.LFB82:
 908:..\..\..\u8g2\u8g2\csrc/u8g2_d_memory.c **** uint8_t *u8g2_m_30_8_2(uint8_t *page_cnt)
 909:..\..\..\u8g2\u8g2\csrc/u8g2_d_memory.c **** {
 2324              		.loc 1 909 0
 2325              		.cfi_startproc
 2326              		@ args = 0, pretend = 0, frame = 0
 2327              		@ frame_needed = 0, uses_anonymous_args = 0
 2328              		@ link register save eliminated.
 2329              	.LVL164:
 910:..\..\..\u8g2\u8g2\csrc/u8g2_d_memory.c ****   #ifdef U8G2_USE_DYNAMIC_ALLOC
 911:..\..\..\u8g2\u8g2\csrc/u8g2_d_memory.c ****   *page_cnt = 2;
 912:..\..\..\u8g2\u8g2\csrc/u8g2_d_memory.c ****   return 0;
 913:..\..\..\u8g2\u8g2\csrc/u8g2_d_memory.c ****   #else
 914:..\..\..\u8g2\u8g2\csrc/u8g2_d_memory.c ****   static uint8_t buf[480];
 915:..\..\..\u8g2\u8g2\csrc/u8g2_d_memory.c ****   *page_cnt = 2;
 2330              		.loc 1 915 0
 2331 0000 0223     		movs	r3, #2
 2332 0002 0370     		strb	r3, [r0]
 916:..\..\..\u8g2\u8g2\csrc/u8g2_d_memory.c ****   return buf;
 917:..\..\..\u8g2\u8g2\csrc/u8g2_d_memory.c ****   #endif
ARM GAS  C:\Users\jesse\AppData\Local\Temp\ccuy2FXa.s 			page 58


 918:..\..\..\u8g2\u8g2\csrc/u8g2_d_memory.c **** }
 2333              		.loc 1 918 0
 2334 0004 0048     		ldr	r0, .L248
 2335              	.LVL165:
 2336 0006 7047     		bx	lr
 2337              	.L249:
 2338              		.align	2
 2339              	.L248:
 2340 0008 68E60000 		.word	.LANCHOR12+2512
 2341              		.cfi_endproc
 2342              	.LFE82:
 2343              		.size	u8g2_m_30_8_2, .-u8g2_m_30_8_2
 2344              		.section	.text.u8g2_m_30_8_f,"ax",%progbits
 2345              		.align	1
 2346              		.global	u8g2_m_30_8_f
 2347              		.thumb
 2348              		.thumb_func
 2349              		.type	u8g2_m_30_8_f, %function
 2350              	u8g2_m_30_8_f:
 2351              	.LFB83:
 919:..\..\..\u8g2\u8g2\csrc/u8g2_d_memory.c **** uint8_t *u8g2_m_30_8_f(uint8_t *page_cnt)
 920:..\..\..\u8g2\u8g2\csrc/u8g2_d_memory.c **** {
 2352              		.loc 1 920 0
 2353              		.cfi_startproc
 2354              		@ args = 0, pretend = 0, frame = 0
 2355              		@ frame_needed = 0, uses_anonymous_args = 0
 2356              		@ link register save eliminated.
 2357              	.LVL166:
 921:..\..\..\u8g2\u8g2\csrc/u8g2_d_memory.c ****   #ifdef U8G2_USE_DYNAMIC_ALLOC
 922:..\..\..\u8g2\u8g2\csrc/u8g2_d_memory.c ****   *page_cnt = 8;
 923:..\..\..\u8g2\u8g2\csrc/u8g2_d_memory.c ****   return 0;
 924:..\..\..\u8g2\u8g2\csrc/u8g2_d_memory.c ****   #else
 925:..\..\..\u8g2\u8g2\csrc/u8g2_d_memory.c ****   static uint8_t buf[1920];
 926:..\..\..\u8g2\u8g2\csrc/u8g2_d_memory.c ****   *page_cnt = 8;
 2358              		.loc 1 926 0
 2359 0000 0823     		movs	r3, #8
 2360 0002 0370     		strb	r3, [r0]
 927:..\..\..\u8g2\u8g2\csrc/u8g2_d_memory.c ****   return buf;
 928:..\..\..\u8g2\u8g2\csrc/u8g2_d_memory.c ****   #endif
 929:..\..\..\u8g2\u8g2\csrc/u8g2_d_memory.c **** }
 2361              		.loc 1 929 0
 2362 0004 0048     		ldr	r0, .L251
 2363              	.LVL167:
 2364 0006 7047     		bx	lr
 2365              	.L252:
 2366              		.align	2
 2367              	.L251:
 2368 0008 48E80000 		.word	.LANCHOR12+2992
 2369              		.cfi_endproc
 2370              	.LFE83:
 2371              		.size	u8g2_m_30_8_f, .-u8g2_m_30_8_f
 2372              		.section	.text.u8g2_m_30_15_1,"ax",%progbits
 2373              		.align	1
 2374              		.global	u8g2_m_30_15_1
 2375              		.thumb
 2376              		.thumb_func
 2377              		.type	u8g2_m_30_15_1, %function
ARM GAS  C:\Users\jesse\AppData\Local\Temp\ccuy2FXa.s 			page 59


 2378              	u8g2_m_30_15_1:
 2379              	.LFB84:
 930:..\..\..\u8g2\u8g2\csrc/u8g2_d_memory.c **** uint8_t *u8g2_m_30_15_1(uint8_t *page_cnt)
 931:..\..\..\u8g2\u8g2\csrc/u8g2_d_memory.c **** {
 2380              		.loc 1 931 0
 2381              		.cfi_startproc
 2382              		@ args = 0, pretend = 0, frame = 0
 2383              		@ frame_needed = 0, uses_anonymous_args = 0
 2384              		@ link register save eliminated.
 2385              	.LVL168:
 932:..\..\..\u8g2\u8g2\csrc/u8g2_d_memory.c ****   #ifdef U8G2_USE_DYNAMIC_ALLOC
 933:..\..\..\u8g2\u8g2\csrc/u8g2_d_memory.c ****   *page_cnt = 1;
 934:..\..\..\u8g2\u8g2\csrc/u8g2_d_memory.c ****   return 0;
 935:..\..\..\u8g2\u8g2\csrc/u8g2_d_memory.c ****   #else
 936:..\..\..\u8g2\u8g2\csrc/u8g2_d_memory.c ****   static uint8_t buf[240];
 937:..\..\..\u8g2\u8g2\csrc/u8g2_d_memory.c ****   *page_cnt = 1;
 2386              		.loc 1 937 0
 2387 0000 0123     		movs	r3, #1
 2388 0002 0370     		strb	r3, [r0]
 938:..\..\..\u8g2\u8g2\csrc/u8g2_d_memory.c ****   return buf;
 939:..\..\..\u8g2\u8g2\csrc/u8g2_d_memory.c ****   #endif
 940:..\..\..\u8g2\u8g2\csrc/u8g2_d_memory.c **** }
 2389              		.loc 1 940 0
 2390 0004 0048     		ldr	r0, .L254
 2391              	.LVL169:
 2392 0006 7047     		bx	lr
 2393              	.L255:
 2394              		.align	2
 2395              	.L254:
 2396 0008 C8EF0000 		.word	.LANCHOR13+568
 2397              		.cfi_endproc
 2398              	.LFE84:
 2399              		.size	u8g2_m_30_15_1, .-u8g2_m_30_15_1
 2400              		.section	.text.u8g2_m_30_15_2,"ax",%progbits
 2401              		.align	1
 2402              		.global	u8g2_m_30_15_2
 2403              		.thumb
 2404              		.thumb_func
 2405              		.type	u8g2_m_30_15_2, %function
 2406              	u8g2_m_30_15_2:
 2407              	.LFB85:
 941:..\..\..\u8g2\u8g2\csrc/u8g2_d_memory.c **** uint8_t *u8g2_m_30_15_2(uint8_t *page_cnt)
 942:..\..\..\u8g2\u8g2\csrc/u8g2_d_memory.c **** {
 2408              		.loc 1 942 0
 2409              		.cfi_startproc
 2410              		@ args = 0, pretend = 0, frame = 0
 2411              		@ frame_needed = 0, uses_anonymous_args = 0
 2412              		@ link register save eliminated.
 2413              	.LVL170:
 943:..\..\..\u8g2\u8g2\csrc/u8g2_d_memory.c ****   #ifdef U8G2_USE_DYNAMIC_ALLOC
 944:..\..\..\u8g2\u8g2\csrc/u8g2_d_memory.c ****   *page_cnt = 2;
 945:..\..\..\u8g2\u8g2\csrc/u8g2_d_memory.c ****   return 0;
 946:..\..\..\u8g2\u8g2\csrc/u8g2_d_memory.c ****   #else
 947:..\..\..\u8g2\u8g2\csrc/u8g2_d_memory.c ****   static uint8_t buf[480];
 948:..\..\..\u8g2\u8g2\csrc/u8g2_d_memory.c ****   *page_cnt = 2;
 2414              		.loc 1 948 0
 2415 0000 0223     		movs	r3, #2
ARM GAS  C:\Users\jesse\AppData\Local\Temp\ccuy2FXa.s 			page 60


 2416 0002 0370     		strb	r3, [r0]
 949:..\..\..\u8g2\u8g2\csrc/u8g2_d_memory.c ****   return buf;
 950:..\..\..\u8g2\u8g2\csrc/u8g2_d_memory.c ****   #endif
 951:..\..\..\u8g2\u8g2\csrc/u8g2_d_memory.c **** }
 2417              		.loc 1 951 0
 2418 0004 0048     		ldr	r0, .L257
 2419              	.LVL171:
 2420 0006 7047     		bx	lr
 2421              	.L258:
 2422              		.align	2
 2423              	.L257:
 2424 0008 B8F00000 		.word	.LANCHOR13+808
 2425              		.cfi_endproc
 2426              	.LFE85:
 2427              		.size	u8g2_m_30_15_2, .-u8g2_m_30_15_2
 2428              		.section	.text.u8g2_m_30_15_f,"ax",%progbits
 2429              		.align	1
 2430              		.global	u8g2_m_30_15_f
 2431              		.thumb
 2432              		.thumb_func
 2433              		.type	u8g2_m_30_15_f, %function
 2434              	u8g2_m_30_15_f:
 2435              	.LFB86:
 952:..\..\..\u8g2\u8g2\csrc/u8g2_d_memory.c **** uint8_t *u8g2_m_30_15_f(uint8_t *page_cnt)
 953:..\..\..\u8g2\u8g2\csrc/u8g2_d_memory.c **** {
 2436              		.loc 1 953 0
 2437              		.cfi_startproc
 2438              		@ args = 0, pretend = 0, frame = 0
 2439              		@ frame_needed = 0, uses_anonymous_args = 0
 2440              		@ link register save eliminated.
 2441              	.LVL172:
 954:..\..\..\u8g2\u8g2\csrc/u8g2_d_memory.c ****   #ifdef U8G2_USE_DYNAMIC_ALLOC
 955:..\..\..\u8g2\u8g2\csrc/u8g2_d_memory.c ****   *page_cnt = 15;
 956:..\..\..\u8g2\u8g2\csrc/u8g2_d_memory.c ****   return 0;
 957:..\..\..\u8g2\u8g2\csrc/u8g2_d_memory.c ****   #else
 958:..\..\..\u8g2\u8g2\csrc/u8g2_d_memory.c ****   static uint8_t buf[3600];
 959:..\..\..\u8g2\u8g2\csrc/u8g2_d_memory.c ****   *page_cnt = 15;
 2442              		.loc 1 959 0
 2443 0000 0F23     		movs	r3, #15
 2444 0002 0370     		strb	r3, [r0]
 960:..\..\..\u8g2\u8g2\csrc/u8g2_d_memory.c ****   return buf;
 961:..\..\..\u8g2\u8g2\csrc/u8g2_d_memory.c ****   #endif
 962:..\..\..\u8g2\u8g2\csrc/u8g2_d_memory.c **** }
 2445              		.loc 1 962 0
 2446 0004 0048     		ldr	r0, .L260
 2447              	.LVL173:
 2448 0006 7047     		bx	lr
 2449              	.L261:
 2450              		.align	2
 2451              	.L260:
 2452 0008 98F20000 		.word	.LANCHOR13+1288
 2453              		.cfi_endproc
 2454              	.LFE86:
 2455              		.size	u8g2_m_30_15_f, .-u8g2_m_30_15_f
 2456              		.section	.text.u8g2_m_30_16_1,"ax",%progbits
 2457              		.align	1
 2458              		.global	u8g2_m_30_16_1
ARM GAS  C:\Users\jesse\AppData\Local\Temp\ccuy2FXa.s 			page 61


 2459              		.thumb
 2460              		.thumb_func
 2461              		.type	u8g2_m_30_16_1, %function
 2462              	u8g2_m_30_16_1:
 2463              	.LFB87:
 963:..\..\..\u8g2\u8g2\csrc/u8g2_d_memory.c **** uint8_t *u8g2_m_30_16_1(uint8_t *page_cnt)
 964:..\..\..\u8g2\u8g2\csrc/u8g2_d_memory.c **** {
 2464              		.loc 1 964 0
 2465              		.cfi_startproc
 2466              		@ args = 0, pretend = 0, frame = 0
 2467              		@ frame_needed = 0, uses_anonymous_args = 0
 2468              		@ link register save eliminated.
 2469              	.LVL174:
 965:..\..\..\u8g2\u8g2\csrc/u8g2_d_memory.c ****   #ifdef U8G2_USE_DYNAMIC_ALLOC
 966:..\..\..\u8g2\u8g2\csrc/u8g2_d_memory.c ****   *page_cnt = 1;
 967:..\..\..\u8g2\u8g2\csrc/u8g2_d_memory.c ****   return 0;
 968:..\..\..\u8g2\u8g2\csrc/u8g2_d_memory.c ****   #else
 969:..\..\..\u8g2\u8g2\csrc/u8g2_d_memory.c ****   static uint8_t buf[240];
 970:..\..\..\u8g2\u8g2\csrc/u8g2_d_memory.c ****   *page_cnt = 1;
 2470              		.loc 1 970 0
 2471 0000 0123     		movs	r3, #1
 2472 0002 0370     		strb	r3, [r0]
 971:..\..\..\u8g2\u8g2\csrc/u8g2_d_memory.c ****   return buf;
 972:..\..\..\u8g2\u8g2\csrc/u8g2_d_memory.c ****   #endif
 973:..\..\..\u8g2\u8g2\csrc/u8g2_d_memory.c **** }
 2473              		.loc 1 973 0
 2474 0004 0048     		ldr	r0, .L263
 2475              	.LVL175:
 2476 0006 7047     		bx	lr
 2477              	.L264:
 2478              		.align	2
 2479              	.L263:
 2480 0008 A8000100 		.word	.LANCHOR14+544
 2481              		.cfi_endproc
 2482              	.LFE87:
 2483              		.size	u8g2_m_30_16_1, .-u8g2_m_30_16_1
 2484              		.section	.text.u8g2_m_30_16_2,"ax",%progbits
 2485              		.align	1
 2486              		.global	u8g2_m_30_16_2
 2487              		.thumb
 2488              		.thumb_func
 2489              		.type	u8g2_m_30_16_2, %function
 2490              	u8g2_m_30_16_2:
 2491              	.LFB88:
 974:..\..\..\u8g2\u8g2\csrc/u8g2_d_memory.c **** uint8_t *u8g2_m_30_16_2(uint8_t *page_cnt)
 975:..\..\..\u8g2\u8g2\csrc/u8g2_d_memory.c **** {
 2492              		.loc 1 975 0
 2493              		.cfi_startproc
 2494              		@ args = 0, pretend = 0, frame = 0
 2495              		@ frame_needed = 0, uses_anonymous_args = 0
 2496              		@ link register save eliminated.
 2497              	.LVL176:
 976:..\..\..\u8g2\u8g2\csrc/u8g2_d_memory.c ****   #ifdef U8G2_USE_DYNAMIC_ALLOC
 977:..\..\..\u8g2\u8g2\csrc/u8g2_d_memory.c ****   *page_cnt = 2;
 978:..\..\..\u8g2\u8g2\csrc/u8g2_d_memory.c ****   return 0;
 979:..\..\..\u8g2\u8g2\csrc/u8g2_d_memory.c ****   #else
 980:..\..\..\u8g2\u8g2\csrc/u8g2_d_memory.c ****   static uint8_t buf[480];
ARM GAS  C:\Users\jesse\AppData\Local\Temp\ccuy2FXa.s 			page 62


 981:..\..\..\u8g2\u8g2\csrc/u8g2_d_memory.c ****   *page_cnt = 2;
 2498              		.loc 1 981 0
 2499 0000 0223     		movs	r3, #2
 2500 0002 0370     		strb	r3, [r0]
 982:..\..\..\u8g2\u8g2\csrc/u8g2_d_memory.c ****   return buf;
 983:..\..\..\u8g2\u8g2\csrc/u8g2_d_memory.c ****   #endif
 984:..\..\..\u8g2\u8g2\csrc/u8g2_d_memory.c **** }
 2501              		.loc 1 984 0
 2502 0004 0048     		ldr	r0, .L266
 2503              	.LVL177:
 2504 0006 7047     		bx	lr
 2505              	.L267:
 2506              		.align	2
 2507              	.L266:
 2508 0008 98010100 		.word	.LANCHOR14+784
 2509              		.cfi_endproc
 2510              	.LFE88:
 2511              		.size	u8g2_m_30_16_2, .-u8g2_m_30_16_2
 2512              		.section	.text.u8g2_m_30_16_f,"ax",%progbits
 2513              		.align	1
 2514              		.global	u8g2_m_30_16_f
 2515              		.thumb
 2516              		.thumb_func
 2517              		.type	u8g2_m_30_16_f, %function
 2518              	u8g2_m_30_16_f:
 2519              	.LFB89:
 985:..\..\..\u8g2\u8g2\csrc/u8g2_d_memory.c **** uint8_t *u8g2_m_30_16_f(uint8_t *page_cnt)
 986:..\..\..\u8g2\u8g2\csrc/u8g2_d_memory.c **** {
 2520              		.loc 1 986 0
 2521              		.cfi_startproc
 2522              		@ args = 0, pretend = 0, frame = 0
 2523              		@ frame_needed = 0, uses_anonymous_args = 0
 2524              		@ link register save eliminated.
 2525              	.LVL178:
 987:..\..\..\u8g2\u8g2\csrc/u8g2_d_memory.c ****   #ifdef U8G2_USE_DYNAMIC_ALLOC
 988:..\..\..\u8g2\u8g2\csrc/u8g2_d_memory.c ****   *page_cnt = 16;
 989:..\..\..\u8g2\u8g2\csrc/u8g2_d_memory.c ****   return 0;
 990:..\..\..\u8g2\u8g2\csrc/u8g2_d_memory.c ****   #else
 991:..\..\..\u8g2\u8g2\csrc/u8g2_d_memory.c ****   static uint8_t buf[3840];
 992:..\..\..\u8g2\u8g2\csrc/u8g2_d_memory.c ****   *page_cnt = 16;
 2526              		.loc 1 992 0
 2527 0000 1023     		movs	r3, #16
 2528 0002 0370     		strb	r3, [r0]
 993:..\..\..\u8g2\u8g2\csrc/u8g2_d_memory.c ****   return buf;
 994:..\..\..\u8g2\u8g2\csrc/u8g2_d_memory.c ****   #endif
 995:..\..\..\u8g2\u8g2\csrc/u8g2_d_memory.c **** }
 2529              		.loc 1 995 0
 2530 0004 0048     		ldr	r0, .L269
 2531              	.LVL179:
 2532 0006 7047     		bx	lr
 2533              	.L270:
 2534              		.align	2
 2535              	.L269:
 2536 0008 78030100 		.word	.LANCHOR14+1264
 2537              		.cfi_endproc
 2538              	.LFE89:
 2539              		.size	u8g2_m_30_16_f, .-u8g2_m_30_16_f
ARM GAS  C:\Users\jesse\AppData\Local\Temp\ccuy2FXa.s 			page 63


 2540              		.section	.text.u8g2_m_20_16_1,"ax",%progbits
 2541              		.align	1
 2542              		.global	u8g2_m_20_16_1
 2543              		.thumb
 2544              		.thumb_func
 2545              		.type	u8g2_m_20_16_1, %function
 2546              	u8g2_m_20_16_1:
 2547              	.LFB90:
 996:..\..\..\u8g2\u8g2\csrc/u8g2_d_memory.c **** uint8_t *u8g2_m_20_16_1(uint8_t *page_cnt)
 997:..\..\..\u8g2\u8g2\csrc/u8g2_d_memory.c **** {
 2548              		.loc 1 997 0
 2549              		.cfi_startproc
 2550              		@ args = 0, pretend = 0, frame = 0
 2551              		@ frame_needed = 0, uses_anonymous_args = 0
 2552              		@ link register save eliminated.
 2553              	.LVL180:
 998:..\..\..\u8g2\u8g2\csrc/u8g2_d_memory.c ****   #ifdef U8G2_USE_DYNAMIC_ALLOC
 999:..\..\..\u8g2\u8g2\csrc/u8g2_d_memory.c ****   *page_cnt = 1;
1000:..\..\..\u8g2\u8g2\csrc/u8g2_d_memory.c ****   return 0;
1001:..\..\..\u8g2\u8g2\csrc/u8g2_d_memory.c ****   #else
1002:..\..\..\u8g2\u8g2\csrc/u8g2_d_memory.c ****   static uint8_t buf[160];
1003:..\..\..\u8g2\u8g2\csrc/u8g2_d_memory.c ****   *page_cnt = 1;
 2554              		.loc 1 1003 0
 2555 0000 0123     		movs	r3, #1
 2556 0002 0370     		strb	r3, [r0]
1004:..\..\..\u8g2\u8g2\csrc/u8g2_d_memory.c ****   return buf;
1005:..\..\..\u8g2\u8g2\csrc/u8g2_d_memory.c ****   #endif
1006:..\..\..\u8g2\u8g2\csrc/u8g2_d_memory.c **** }
 2557              		.loc 1 1006 0
 2558 0004 0048     		ldr	r0, .L272
 2559              	.LVL181:
 2560 0006 7047     		bx	lr
 2561              	.L273:
 2562              		.align	2
 2563              	.L272:
 2564 0008 78120100 		.word	.LANCHOR15+760
 2565              		.cfi_endproc
 2566              	.LFE90:
 2567              		.size	u8g2_m_20_16_1, .-u8g2_m_20_16_1
 2568              		.section	.text.u8g2_m_20_16_2,"ax",%progbits
 2569              		.align	1
 2570              		.global	u8g2_m_20_16_2
 2571              		.thumb
 2572              		.thumb_func
 2573              		.type	u8g2_m_20_16_2, %function
 2574              	u8g2_m_20_16_2:
 2575              	.LFB91:
1007:..\..\..\u8g2\u8g2\csrc/u8g2_d_memory.c **** uint8_t *u8g2_m_20_16_2(uint8_t *page_cnt)
1008:..\..\..\u8g2\u8g2\csrc/u8g2_d_memory.c **** {
 2576              		.loc 1 1008 0
 2577              		.cfi_startproc
 2578              		@ args = 0, pretend = 0, frame = 0
 2579              		@ frame_needed = 0, uses_anonymous_args = 0
 2580              		@ link register save eliminated.
 2581              	.LVL182:
1009:..\..\..\u8g2\u8g2\csrc/u8g2_d_memory.c ****   #ifdef U8G2_USE_DYNAMIC_ALLOC
1010:..\..\..\u8g2\u8g2\csrc/u8g2_d_memory.c ****   *page_cnt = 2;
ARM GAS  C:\Users\jesse\AppData\Local\Temp\ccuy2FXa.s 			page 64


1011:..\..\..\u8g2\u8g2\csrc/u8g2_d_memory.c ****   return 0;
1012:..\..\..\u8g2\u8g2\csrc/u8g2_d_memory.c ****   #else
1013:..\..\..\u8g2\u8g2\csrc/u8g2_d_memory.c ****   static uint8_t buf[320];
1014:..\..\..\u8g2\u8g2\csrc/u8g2_d_memory.c ****   *page_cnt = 2;
 2582              		.loc 1 1014 0
 2583 0000 0223     		movs	r3, #2
 2584 0002 0370     		strb	r3, [r0]
1015:..\..\..\u8g2\u8g2\csrc/u8g2_d_memory.c ****   return buf;
1016:..\..\..\u8g2\u8g2\csrc/u8g2_d_memory.c ****   #endif
1017:..\..\..\u8g2\u8g2\csrc/u8g2_d_memory.c **** }
 2585              		.loc 1 1017 0
 2586 0004 0048     		ldr	r0, .L275
 2587              	.LVL183:
 2588 0006 7047     		bx	lr
 2589              	.L276:
 2590              		.align	2
 2591              	.L275:
 2592 0008 18130100 		.word	.LANCHOR15+920
 2593              		.cfi_endproc
 2594              	.LFE91:
 2595              		.size	u8g2_m_20_16_2, .-u8g2_m_20_16_2
 2596              		.section	.text.u8g2_m_20_16_f,"ax",%progbits
 2597              		.align	1
 2598              		.global	u8g2_m_20_16_f
 2599              		.thumb
 2600              		.thumb_func
 2601              		.type	u8g2_m_20_16_f, %function
 2602              	u8g2_m_20_16_f:
 2603              	.LFB92:
1018:..\..\..\u8g2\u8g2\csrc/u8g2_d_memory.c **** uint8_t *u8g2_m_20_16_f(uint8_t *page_cnt)
1019:..\..\..\u8g2\u8g2\csrc/u8g2_d_memory.c **** {
 2604              		.loc 1 1019 0
 2605              		.cfi_startproc
 2606              		@ args = 0, pretend = 0, frame = 0
 2607              		@ frame_needed = 0, uses_anonymous_args = 0
 2608              		@ link register save eliminated.
 2609              	.LVL184:
1020:..\..\..\u8g2\u8g2\csrc/u8g2_d_memory.c ****   #ifdef U8G2_USE_DYNAMIC_ALLOC
1021:..\..\..\u8g2\u8g2\csrc/u8g2_d_memory.c ****   *page_cnt = 16;
1022:..\..\..\u8g2\u8g2\csrc/u8g2_d_memory.c ****   return 0;
1023:..\..\..\u8g2\u8g2\csrc/u8g2_d_memory.c ****   #else
1024:..\..\..\u8g2\u8g2\csrc/u8g2_d_memory.c ****   static uint8_t buf[2560];
1025:..\..\..\u8g2\u8g2\csrc/u8g2_d_memory.c ****   *page_cnt = 16;
 2610              		.loc 1 1025 0
 2611 0000 1023     		movs	r3, #16
 2612 0002 0370     		strb	r3, [r0]
1026:..\..\..\u8g2\u8g2\csrc/u8g2_d_memory.c ****   return buf;
1027:..\..\..\u8g2\u8g2\csrc/u8g2_d_memory.c ****   #endif
1028:..\..\..\u8g2\u8g2\csrc/u8g2_d_memory.c **** }
 2613              		.loc 1 1028 0
 2614 0004 0048     		ldr	r0, .L278
 2615              	.LVL185:
 2616 0006 7047     		bx	lr
 2617              	.L279:
 2618              		.align	2
 2619              	.L278:
 2620 0008 58140100 		.word	.LANCHOR15+1240
ARM GAS  C:\Users\jesse\AppData\Local\Temp\ccuy2FXa.s 			page 65


 2621              		.cfi_endproc
 2622              	.LFE92:
 2623              		.size	u8g2_m_20_16_f, .-u8g2_m_20_16_f
 2624              		.section	.text.u8g2_m_24_12_1,"ax",%progbits
 2625              		.align	1
 2626              		.global	u8g2_m_24_12_1
 2627              		.thumb
 2628              		.thumb_func
 2629              		.type	u8g2_m_24_12_1, %function
 2630              	u8g2_m_24_12_1:
 2631              	.LFB93:
1029:..\..\..\u8g2\u8g2\csrc/u8g2_d_memory.c **** uint8_t *u8g2_m_24_12_1(uint8_t *page_cnt)
1030:..\..\..\u8g2\u8g2\csrc/u8g2_d_memory.c **** {
 2632              		.loc 1 1030 0
 2633              		.cfi_startproc
 2634              		@ args = 0, pretend = 0, frame = 0
 2635              		@ frame_needed = 0, uses_anonymous_args = 0
 2636              		@ link register save eliminated.
 2637              	.LVL186:
1031:..\..\..\u8g2\u8g2\csrc/u8g2_d_memory.c ****   #ifdef U8G2_USE_DYNAMIC_ALLOC
1032:..\..\..\u8g2\u8g2\csrc/u8g2_d_memory.c ****   *page_cnt = 1;
1033:..\..\..\u8g2\u8g2\csrc/u8g2_d_memory.c ****   return 0;
1034:..\..\..\u8g2\u8g2\csrc/u8g2_d_memory.c ****   #else
1035:..\..\..\u8g2\u8g2\csrc/u8g2_d_memory.c ****   static uint8_t buf[192];
1036:..\..\..\u8g2\u8g2\csrc/u8g2_d_memory.c ****   *page_cnt = 1;
 2638              		.loc 1 1036 0
 2639 0000 0123     		movs	r3, #1
 2640 0002 0370     		strb	r3, [r0]
1037:..\..\..\u8g2\u8g2\csrc/u8g2_d_memory.c ****   return buf;
1038:..\..\..\u8g2\u8g2\csrc/u8g2_d_memory.c ****   #endif
1039:..\..\..\u8g2\u8g2\csrc/u8g2_d_memory.c **** }
 2641              		.loc 1 1039 0
 2642 0004 0048     		ldr	r0, .L281
 2643              	.LVL187:
 2644 0006 7047     		bx	lr
 2645              	.L282:
 2646              		.align	2
 2647              	.L281:
 2648 0008 581E0100 		.word	.LANCHOR15+3800
 2649              		.cfi_endproc
 2650              	.LFE93:
 2651              		.size	u8g2_m_24_12_1, .-u8g2_m_24_12_1
 2652              		.section	.text.u8g2_m_24_12_2,"ax",%progbits
 2653              		.align	1
 2654              		.global	u8g2_m_24_12_2
 2655              		.thumb
 2656              		.thumb_func
 2657              		.type	u8g2_m_24_12_2, %function
 2658              	u8g2_m_24_12_2:
 2659              	.LFB94:
1040:..\..\..\u8g2\u8g2\csrc/u8g2_d_memory.c **** uint8_t *u8g2_m_24_12_2(uint8_t *page_cnt)
1041:..\..\..\u8g2\u8g2\csrc/u8g2_d_memory.c **** {
 2660              		.loc 1 1041 0
 2661              		.cfi_startproc
 2662              		@ args = 0, pretend = 0, frame = 0
 2663              		@ frame_needed = 0, uses_anonymous_args = 0
 2664              		@ link register save eliminated.
ARM GAS  C:\Users\jesse\AppData\Local\Temp\ccuy2FXa.s 			page 66


 2665              	.LVL188:
1042:..\..\..\u8g2\u8g2\csrc/u8g2_d_memory.c ****   #ifdef U8G2_USE_DYNAMIC_ALLOC
1043:..\..\..\u8g2\u8g2\csrc/u8g2_d_memory.c ****   *page_cnt = 2;
1044:..\..\..\u8g2\u8g2\csrc/u8g2_d_memory.c ****   return 0;
1045:..\..\..\u8g2\u8g2\csrc/u8g2_d_memory.c ****   #else
1046:..\..\..\u8g2\u8g2\csrc/u8g2_d_memory.c ****   static uint8_t buf[384];
1047:..\..\..\u8g2\u8g2\csrc/u8g2_d_memory.c ****   *page_cnt = 2;
 2666              		.loc 1 1047 0
 2667 0000 0223     		movs	r3, #2
 2668 0002 0370     		strb	r3, [r0]
1048:..\..\..\u8g2\u8g2\csrc/u8g2_d_memory.c ****   return buf;
1049:..\..\..\u8g2\u8g2\csrc/u8g2_d_memory.c ****   #endif
1050:..\..\..\u8g2\u8g2\csrc/u8g2_d_memory.c **** }
 2669              		.loc 1 1050 0
 2670 0004 0048     		ldr	r0, .L284
 2671              	.LVL189:
 2672 0006 7047     		bx	lr
 2673              	.L285:
 2674              		.align	2
 2675              	.L284:
 2676 0008 181F0100 		.word	.LANCHOR15+3992
 2677              		.cfi_endproc
 2678              	.LFE94:
 2679              		.size	u8g2_m_24_12_2, .-u8g2_m_24_12_2
 2680              		.section	.text.u8g2_m_24_12_f,"ax",%progbits
 2681              		.align	1
 2682              		.global	u8g2_m_24_12_f
 2683              		.thumb
 2684              		.thumb_func
 2685              		.type	u8g2_m_24_12_f, %function
 2686              	u8g2_m_24_12_f:
 2687              	.LFB95:
1051:..\..\..\u8g2\u8g2\csrc/u8g2_d_memory.c **** uint8_t *u8g2_m_24_12_f(uint8_t *page_cnt)
1052:..\..\..\u8g2\u8g2\csrc/u8g2_d_memory.c **** {
 2688              		.loc 1 1052 0
 2689              		.cfi_startproc
 2690              		@ args = 0, pretend = 0, frame = 0
 2691              		@ frame_needed = 0, uses_anonymous_args = 0
 2692              		@ link register save eliminated.
 2693              	.LVL190:
1053:..\..\..\u8g2\u8g2\csrc/u8g2_d_memory.c ****   #ifdef U8G2_USE_DYNAMIC_ALLOC
1054:..\..\..\u8g2\u8g2\csrc/u8g2_d_memory.c ****   *page_cnt = 12;
1055:..\..\..\u8g2\u8g2\csrc/u8g2_d_memory.c ****   return 0;
1056:..\..\..\u8g2\u8g2\csrc/u8g2_d_memory.c ****   #else
1057:..\..\..\u8g2\u8g2\csrc/u8g2_d_memory.c ****   static uint8_t buf[2304];
1058:..\..\..\u8g2\u8g2\csrc/u8g2_d_memory.c ****   *page_cnt = 12;
 2694              		.loc 1 1058 0
 2695 0000 0C23     		movs	r3, #12
 2696 0002 0370     		strb	r3, [r0]
1059:..\..\..\u8g2\u8g2\csrc/u8g2_d_memory.c ****   return buf;
1060:..\..\..\u8g2\u8g2\csrc/u8g2_d_memory.c ****   #endif
1061:..\..\..\u8g2\u8g2\csrc/u8g2_d_memory.c **** }
 2697              		.loc 1 1061 0
 2698 0004 0048     		ldr	r0, .L287
 2699              	.LVL191:
 2700 0006 7047     		bx	lr
 2701              	.L288:
ARM GAS  C:\Users\jesse\AppData\Local\Temp\ccuy2FXa.s 			page 67


 2702              		.align	2
 2703              	.L287:
 2704 0008 98200100 		.word	.LANCHOR16+32
 2705              		.cfi_endproc
 2706              	.LFE95:
 2707              		.size	u8g2_m_24_12_f, .-u8g2_m_24_12_f
 2708              		.section	.text.u8g2_m_20_13_1,"ax",%progbits
 2709              		.align	1
 2710              		.global	u8g2_m_20_13_1
 2711              		.thumb
 2712              		.thumb_func
 2713              		.type	u8g2_m_20_13_1, %function
 2714              	u8g2_m_20_13_1:
 2715              	.LFB96:
1062:..\..\..\u8g2\u8g2\csrc/u8g2_d_memory.c **** uint8_t *u8g2_m_20_13_1(uint8_t *page_cnt)
1063:..\..\..\u8g2\u8g2\csrc/u8g2_d_memory.c **** {
 2716              		.loc 1 1063 0
 2717              		.cfi_startproc
 2718              		@ args = 0, pretend = 0, frame = 0
 2719              		@ frame_needed = 0, uses_anonymous_args = 0
 2720              		@ link register save eliminated.
 2721              	.LVL192:
1064:..\..\..\u8g2\u8g2\csrc/u8g2_d_memory.c ****   #ifdef U8G2_USE_DYNAMIC_ALLOC
1065:..\..\..\u8g2\u8g2\csrc/u8g2_d_memory.c ****   *page_cnt = 1;
1066:..\..\..\u8g2\u8g2\csrc/u8g2_d_memory.c ****   return 0;
1067:..\..\..\u8g2\u8g2\csrc/u8g2_d_memory.c ****   #else
1068:..\..\..\u8g2\u8g2\csrc/u8g2_d_memory.c ****   static uint8_t buf[160];
1069:..\..\..\u8g2\u8g2\csrc/u8g2_d_memory.c ****   *page_cnt = 1;
 2722              		.loc 1 1069 0
 2723 0000 0123     		movs	r3, #1
 2724 0002 0370     		strb	r3, [r0]
1070:..\..\..\u8g2\u8g2\csrc/u8g2_d_memory.c ****   return buf;
1071:..\..\..\u8g2\u8g2\csrc/u8g2_d_memory.c ****   #endif
1072:..\..\..\u8g2\u8g2\csrc/u8g2_d_memory.c **** }
 2725              		.loc 1 1072 0
 2726 0004 0048     		ldr	r0, .L290
 2727              	.LVL193:
 2728 0006 7047     		bx	lr
 2729              	.L291:
 2730              		.align	2
 2731              	.L290:
 2732 0008 98290100 		.word	.LANCHOR16+2336
 2733              		.cfi_endproc
 2734              	.LFE96:
 2735              		.size	u8g2_m_20_13_1, .-u8g2_m_20_13_1
 2736              		.section	.text.u8g2_m_20_13_2,"ax",%progbits
 2737              		.align	1
 2738              		.global	u8g2_m_20_13_2
 2739              		.thumb
 2740              		.thumb_func
 2741              		.type	u8g2_m_20_13_2, %function
 2742              	u8g2_m_20_13_2:
 2743              	.LFB97:
1073:..\..\..\u8g2\u8g2\csrc/u8g2_d_memory.c **** uint8_t *u8g2_m_20_13_2(uint8_t *page_cnt)
1074:..\..\..\u8g2\u8g2\csrc/u8g2_d_memory.c **** {
 2744              		.loc 1 1074 0
 2745              		.cfi_startproc
ARM GAS  C:\Users\jesse\AppData\Local\Temp\ccuy2FXa.s 			page 68


 2746              		@ args = 0, pretend = 0, frame = 0
 2747              		@ frame_needed = 0, uses_anonymous_args = 0
 2748              		@ link register save eliminated.
 2749              	.LVL194:
1075:..\..\..\u8g2\u8g2\csrc/u8g2_d_memory.c ****   #ifdef U8G2_USE_DYNAMIC_ALLOC
1076:..\..\..\u8g2\u8g2\csrc/u8g2_d_memory.c ****   *page_cnt = 2;
1077:..\..\..\u8g2\u8g2\csrc/u8g2_d_memory.c ****   return 0;
1078:..\..\..\u8g2\u8g2\csrc/u8g2_d_memory.c ****   #else
1079:..\..\..\u8g2\u8g2\csrc/u8g2_d_memory.c ****   static uint8_t buf[320];
1080:..\..\..\u8g2\u8g2\csrc/u8g2_d_memory.c ****   *page_cnt = 2;
 2750              		.loc 1 1080 0
 2751 0000 0223     		movs	r3, #2
 2752 0002 0370     		strb	r3, [r0]
1081:..\..\..\u8g2\u8g2\csrc/u8g2_d_memory.c ****   return buf;
1082:..\..\..\u8g2\u8g2\csrc/u8g2_d_memory.c ****   #endif
1083:..\..\..\u8g2\u8g2\csrc/u8g2_d_memory.c **** }
 2753              		.loc 1 1083 0
 2754 0004 0048     		ldr	r0, .L293
 2755              	.LVL195:
 2756 0006 7047     		bx	lr
 2757              	.L294:
 2758              		.align	2
 2759              	.L293:
 2760 0008 382A0100 		.word	.LANCHOR16+2496
 2761              		.cfi_endproc
 2762              	.LFE97:
 2763              		.size	u8g2_m_20_13_2, .-u8g2_m_20_13_2
 2764              		.section	.text.u8g2_m_20_13_f,"ax",%progbits
 2765              		.align	1
 2766              		.global	u8g2_m_20_13_f
 2767              		.thumb
 2768              		.thumb_func
 2769              		.type	u8g2_m_20_13_f, %function
 2770              	u8g2_m_20_13_f:
 2771              	.LFB98:
1084:..\..\..\u8g2\u8g2\csrc/u8g2_d_memory.c **** uint8_t *u8g2_m_20_13_f(uint8_t *page_cnt)
1085:..\..\..\u8g2\u8g2\csrc/u8g2_d_memory.c **** {
 2772              		.loc 1 1085 0
 2773              		.cfi_startproc
 2774              		@ args = 0, pretend = 0, frame = 0
 2775              		@ frame_needed = 0, uses_anonymous_args = 0
 2776              		@ link register save eliminated.
 2777              	.LVL196:
1086:..\..\..\u8g2\u8g2\csrc/u8g2_d_memory.c ****   #ifdef U8G2_USE_DYNAMIC_ALLOC
1087:..\..\..\u8g2\u8g2\csrc/u8g2_d_memory.c ****   *page_cnt = 13;
1088:..\..\..\u8g2\u8g2\csrc/u8g2_d_memory.c ****   return 0;
1089:..\..\..\u8g2\u8g2\csrc/u8g2_d_memory.c ****   #else
1090:..\..\..\u8g2\u8g2\csrc/u8g2_d_memory.c ****   static uint8_t buf[2080];
1091:..\..\..\u8g2\u8g2\csrc/u8g2_d_memory.c ****   *page_cnt = 13;
 2778              		.loc 1 1091 0
 2779 0000 0D23     		movs	r3, #13
 2780 0002 0370     		strb	r3, [r0]
1092:..\..\..\u8g2\u8g2\csrc/u8g2_d_memory.c ****   return buf;
1093:..\..\..\u8g2\u8g2\csrc/u8g2_d_memory.c ****   #endif
1094:..\..\..\u8g2\u8g2\csrc/u8g2_d_memory.c **** }
 2781              		.loc 1 1094 0
 2782 0004 0048     		ldr	r0, .L296
ARM GAS  C:\Users\jesse\AppData\Local\Temp\ccuy2FXa.s 			page 69


 2783              	.LVL197:
 2784 0006 7047     		bx	lr
 2785              	.L297:
 2786              		.align	2
 2787              	.L296:
 2788 0008 782B0100 		.word	.LANCHOR16+2816
 2789              		.cfi_endproc
 2790              	.LFE98:
 2791              		.size	u8g2_m_20_13_f, .-u8g2_m_20_13_f
 2792              		.section	.text.u8g2_m_30_20_1,"ax",%progbits
 2793              		.align	1
 2794              		.global	u8g2_m_30_20_1
 2795              		.thumb
 2796              		.thumb_func
 2797              		.type	u8g2_m_30_20_1, %function
 2798              	u8g2_m_30_20_1:
 2799              	.LFB99:
1095:..\..\..\u8g2\u8g2\csrc/u8g2_d_memory.c **** uint8_t *u8g2_m_30_20_1(uint8_t *page_cnt)
1096:..\..\..\u8g2\u8g2\csrc/u8g2_d_memory.c **** {
 2800              		.loc 1 1096 0
 2801              		.cfi_startproc
 2802              		@ args = 0, pretend = 0, frame = 0
 2803              		@ frame_needed = 0, uses_anonymous_args = 0
 2804              		@ link register save eliminated.
 2805              	.LVL198:
1097:..\..\..\u8g2\u8g2\csrc/u8g2_d_memory.c ****   #ifdef U8G2_USE_DYNAMIC_ALLOC
1098:..\..\..\u8g2\u8g2\csrc/u8g2_d_memory.c ****   *page_cnt = 1;
1099:..\..\..\u8g2\u8g2\csrc/u8g2_d_memory.c ****   return 0;
1100:..\..\..\u8g2\u8g2\csrc/u8g2_d_memory.c ****   #else
1101:..\..\..\u8g2\u8g2\csrc/u8g2_d_memory.c ****   static uint8_t buf[240];
1102:..\..\..\u8g2\u8g2\csrc/u8g2_d_memory.c ****   *page_cnt = 1;
 2806              		.loc 1 1102 0
 2807 0000 0123     		movs	r3, #1
 2808 0002 0370     		strb	r3, [r0]
1103:..\..\..\u8g2\u8g2\csrc/u8g2_d_memory.c ****   return buf;
1104:..\..\..\u8g2\u8g2\csrc/u8g2_d_memory.c ****   #endif
1105:..\..\..\u8g2\u8g2\csrc/u8g2_d_memory.c **** }
 2809              		.loc 1 1105 0
 2810 0004 0048     		ldr	r0, .L299
 2811              	.LVL199:
 2812 0006 7047     		bx	lr
 2813              	.L300:
 2814              		.align	2
 2815              	.L299:
 2816 0008 98330100 		.word	.LANCHOR17+552
 2817              		.cfi_endproc
 2818              	.LFE99:
 2819              		.size	u8g2_m_30_20_1, .-u8g2_m_30_20_1
 2820              		.section	.text.u8g2_m_30_20_2,"ax",%progbits
 2821              		.align	1
 2822              		.global	u8g2_m_30_20_2
 2823              		.thumb
 2824              		.thumb_func
 2825              		.type	u8g2_m_30_20_2, %function
 2826              	u8g2_m_30_20_2:
 2827              	.LFB100:
1106:..\..\..\u8g2\u8g2\csrc/u8g2_d_memory.c **** uint8_t *u8g2_m_30_20_2(uint8_t *page_cnt)
ARM GAS  C:\Users\jesse\AppData\Local\Temp\ccuy2FXa.s 			page 70


1107:..\..\..\u8g2\u8g2\csrc/u8g2_d_memory.c **** {
 2828              		.loc 1 1107 0
 2829              		.cfi_startproc
 2830              		@ args = 0, pretend = 0, frame = 0
 2831              		@ frame_needed = 0, uses_anonymous_args = 0
 2832              		@ link register save eliminated.
 2833              	.LVL200:
1108:..\..\..\u8g2\u8g2\csrc/u8g2_d_memory.c ****   #ifdef U8G2_USE_DYNAMIC_ALLOC
1109:..\..\..\u8g2\u8g2\csrc/u8g2_d_memory.c ****   *page_cnt = 2;
1110:..\..\..\u8g2\u8g2\csrc/u8g2_d_memory.c ****   return 0;
1111:..\..\..\u8g2\u8g2\csrc/u8g2_d_memory.c ****   #else
1112:..\..\..\u8g2\u8g2\csrc/u8g2_d_memory.c ****   static uint8_t buf[480];
1113:..\..\..\u8g2\u8g2\csrc/u8g2_d_memory.c ****   *page_cnt = 2;
 2834              		.loc 1 1113 0
 2835 0000 0223     		movs	r3, #2
 2836 0002 0370     		strb	r3, [r0]
1114:..\..\..\u8g2\u8g2\csrc/u8g2_d_memory.c ****   return buf;
1115:..\..\..\u8g2\u8g2\csrc/u8g2_d_memory.c ****   #endif
1116:..\..\..\u8g2\u8g2\csrc/u8g2_d_memory.c **** }
 2837              		.loc 1 1116 0
 2838 0004 0048     		ldr	r0, .L302
 2839              	.LVL201:
 2840 0006 7047     		bx	lr
 2841              	.L303:
 2842              		.align	2
 2843              	.L302:
 2844 0008 88340100 		.word	.LANCHOR17+792
 2845              		.cfi_endproc
 2846              	.LFE100:
 2847              		.size	u8g2_m_30_20_2, .-u8g2_m_30_20_2
 2848              		.section	.text.u8g2_m_30_20_f,"ax",%progbits
 2849              		.align	1
 2850              		.global	u8g2_m_30_20_f
 2851              		.thumb
 2852              		.thumb_func
 2853              		.type	u8g2_m_30_20_f, %function
 2854              	u8g2_m_30_20_f:
 2855              	.LFB101:
1117:..\..\..\u8g2\u8g2\csrc/u8g2_d_memory.c **** uint8_t *u8g2_m_30_20_f(uint8_t *page_cnt)
1118:..\..\..\u8g2\u8g2\csrc/u8g2_d_memory.c **** {
 2856              		.loc 1 1118 0
 2857              		.cfi_startproc
 2858              		@ args = 0, pretend = 0, frame = 0
 2859              		@ frame_needed = 0, uses_anonymous_args = 0
 2860              		@ link register save eliminated.
 2861              	.LVL202:
1119:..\..\..\u8g2\u8g2\csrc/u8g2_d_memory.c ****   #ifdef U8G2_USE_DYNAMIC_ALLOC
1120:..\..\..\u8g2\u8g2\csrc/u8g2_d_memory.c ****   *page_cnt = 20;
1121:..\..\..\u8g2\u8g2\csrc/u8g2_d_memory.c ****   return 0;
1122:..\..\..\u8g2\u8g2\csrc/u8g2_d_memory.c ****   #else
1123:..\..\..\u8g2\u8g2\csrc/u8g2_d_memory.c ****   static uint8_t buf[4800];
1124:..\..\..\u8g2\u8g2\csrc/u8g2_d_memory.c ****   *page_cnt = 20;
 2862              		.loc 1 1124 0
 2863 0000 1423     		movs	r3, #20
 2864 0002 0370     		strb	r3, [r0]
1125:..\..\..\u8g2\u8g2\csrc/u8g2_d_memory.c ****   return buf;
1126:..\..\..\u8g2\u8g2\csrc/u8g2_d_memory.c ****   #endif
ARM GAS  C:\Users\jesse\AppData\Local\Temp\ccuy2FXa.s 			page 71


1127:..\..\..\u8g2\u8g2\csrc/u8g2_d_memory.c **** }
 2865              		.loc 1 1127 0
 2866 0004 0048     		ldr	r0, .L305
 2867              	.LVL203:
 2868 0006 7047     		bx	lr
 2869              	.L306:
 2870              		.align	2
 2871              	.L305:
 2872 0008 68360100 		.word	.LANCHOR17+1272
 2873              		.cfi_endproc
 2874              	.LFE101:
 2875              		.size	u8g2_m_30_20_f, .-u8g2_m_30_20_f
 2876              		.section	.text.u8g2_m_32_16_1,"ax",%progbits
 2877              		.align	1
 2878              		.global	u8g2_m_32_16_1
 2879              		.thumb
 2880              		.thumb_func
 2881              		.type	u8g2_m_32_16_1, %function
 2882              	u8g2_m_32_16_1:
 2883              	.LFB102:
1128:..\..\..\u8g2\u8g2\csrc/u8g2_d_memory.c **** uint8_t *u8g2_m_32_16_1(uint8_t *page_cnt)
1129:..\..\..\u8g2\u8g2\csrc/u8g2_d_memory.c **** {
 2884              		.loc 1 1129 0
 2885              		.cfi_startproc
 2886              		@ args = 0, pretend = 0, frame = 0
 2887              		@ frame_needed = 0, uses_anonymous_args = 0
 2888              		@ link register save eliminated.
 2889              	.LVL204:
1130:..\..\..\u8g2\u8g2\csrc/u8g2_d_memory.c ****   #ifdef U8G2_USE_DYNAMIC_ALLOC
1131:..\..\..\u8g2\u8g2\csrc/u8g2_d_memory.c ****   *page_cnt = 1;
1132:..\..\..\u8g2\u8g2\csrc/u8g2_d_memory.c ****   return 0;
1133:..\..\..\u8g2\u8g2\csrc/u8g2_d_memory.c ****   #else
1134:..\..\..\u8g2\u8g2\csrc/u8g2_d_memory.c ****   static uint8_t buf[256];
1135:..\..\..\u8g2\u8g2\csrc/u8g2_d_memory.c ****   *page_cnt = 1;
 2890              		.loc 1 1135 0
 2891 0000 0123     		movs	r3, #1
 2892 0002 0370     		strb	r3, [r0]
1136:..\..\..\u8g2\u8g2\csrc/u8g2_d_memory.c ****   return buf;
1137:..\..\..\u8g2\u8g2\csrc/u8g2_d_memory.c ****   #endif
1138:..\..\..\u8g2\u8g2\csrc/u8g2_d_memory.c **** }
 2893              		.loc 1 1138 0
 2894 0004 0048     		ldr	r0, .L308
 2895              	.LVL205:
 2896 0006 7047     		bx	lr
 2897              	.L309:
 2898              		.align	2
 2899              	.L308:
 2900 0008 28490100 		.word	.LANCHOR18+1728
 2901              		.cfi_endproc
 2902              	.LFE102:
 2903              		.size	u8g2_m_32_16_1, .-u8g2_m_32_16_1
 2904              		.section	.text.u8g2_m_32_16_2,"ax",%progbits
 2905              		.align	1
 2906              		.global	u8g2_m_32_16_2
 2907              		.thumb
 2908              		.thumb_func
 2909              		.type	u8g2_m_32_16_2, %function
ARM GAS  C:\Users\jesse\AppData\Local\Temp\ccuy2FXa.s 			page 72


 2910              	u8g2_m_32_16_2:
 2911              	.LFB103:
1139:..\..\..\u8g2\u8g2\csrc/u8g2_d_memory.c **** uint8_t *u8g2_m_32_16_2(uint8_t *page_cnt)
1140:..\..\..\u8g2\u8g2\csrc/u8g2_d_memory.c **** {
 2912              		.loc 1 1140 0
 2913              		.cfi_startproc
 2914              		@ args = 0, pretend = 0, frame = 0
 2915              		@ frame_needed = 0, uses_anonymous_args = 0
 2916              		@ link register save eliminated.
 2917              	.LVL206:
1141:..\..\..\u8g2\u8g2\csrc/u8g2_d_memory.c ****   #ifdef U8G2_USE_DYNAMIC_ALLOC
1142:..\..\..\u8g2\u8g2\csrc/u8g2_d_memory.c ****   *page_cnt = 2;
1143:..\..\..\u8g2\u8g2\csrc/u8g2_d_memory.c ****   return 0;
1144:..\..\..\u8g2\u8g2\csrc/u8g2_d_memory.c ****   #else
1145:..\..\..\u8g2\u8g2\csrc/u8g2_d_memory.c ****   static uint8_t buf[512];
1146:..\..\..\u8g2\u8g2\csrc/u8g2_d_memory.c ****   *page_cnt = 2;
 2918              		.loc 1 1146 0
 2919 0000 0223     		movs	r3, #2
 2920 0002 0370     		strb	r3, [r0]
1147:..\..\..\u8g2\u8g2\csrc/u8g2_d_memory.c ****   return buf;
1148:..\..\..\u8g2\u8g2\csrc/u8g2_d_memory.c ****   #endif
1149:..\..\..\u8g2\u8g2\csrc/u8g2_d_memory.c **** }
 2921              		.loc 1 1149 0
 2922 0004 0048     		ldr	r0, .L311
 2923              	.LVL207:
 2924 0006 7047     		bx	lr
 2925              	.L312:
 2926              		.align	2
 2927              	.L311:
 2928 0008 284A0100 		.word	.LANCHOR18+1984
 2929              		.cfi_endproc
 2930              	.LFE103:
 2931              		.size	u8g2_m_32_16_2, .-u8g2_m_32_16_2
 2932              		.section	.text.u8g2_m_32_16_f,"ax",%progbits
 2933              		.align	1
 2934              		.global	u8g2_m_32_16_f
 2935              		.thumb
 2936              		.thumb_func
 2937              		.type	u8g2_m_32_16_f, %function
 2938              	u8g2_m_32_16_f:
 2939              	.LFB104:
1150:..\..\..\u8g2\u8g2\csrc/u8g2_d_memory.c **** uint8_t *u8g2_m_32_16_f(uint8_t *page_cnt)
1151:..\..\..\u8g2\u8g2\csrc/u8g2_d_memory.c **** {
 2940              		.loc 1 1151 0
 2941              		.cfi_startproc
 2942              		@ args = 0, pretend = 0, frame = 0
 2943              		@ frame_needed = 0, uses_anonymous_args = 0
 2944              		@ link register save eliminated.
 2945              	.LVL208:
1152:..\..\..\u8g2\u8g2\csrc/u8g2_d_memory.c ****   #ifdef U8G2_USE_DYNAMIC_ALLOC
1153:..\..\..\u8g2\u8g2\csrc/u8g2_d_memory.c ****   *page_cnt = 16;
1154:..\..\..\u8g2\u8g2\csrc/u8g2_d_memory.c ****   return 0;
1155:..\..\..\u8g2\u8g2\csrc/u8g2_d_memory.c ****   #else
1156:..\..\..\u8g2\u8g2\csrc/u8g2_d_memory.c ****   static uint8_t buf[4096];
1157:..\..\..\u8g2\u8g2\csrc/u8g2_d_memory.c ****   *page_cnt = 16;
 2946              		.loc 1 1157 0
 2947 0000 1023     		movs	r3, #16
ARM GAS  C:\Users\jesse\AppData\Local\Temp\ccuy2FXa.s 			page 73


 2948 0002 0370     		strb	r3, [r0]
1158:..\..\..\u8g2\u8g2\csrc/u8g2_d_memory.c ****   return buf;
1159:..\..\..\u8g2\u8g2\csrc/u8g2_d_memory.c ****   #endif
1160:..\..\..\u8g2\u8g2\csrc/u8g2_d_memory.c **** }
 2949              		.loc 1 1160 0
 2950 0004 0048     		ldr	r0, .L314
 2951              	.LVL209:
 2952 0006 7047     		bx	lr
 2953              	.L315:
 2954              		.align	2
 2955              	.L314:
 2956 0008 284C0100 		.word	.LANCHOR18+2496
 2957              		.cfi_endproc
 2958              	.LFE104:
 2959              		.size	u8g2_m_32_16_f, .-u8g2_m_32_16_f
 2960              		.section	.text.u8g2_m_40_30_1,"ax",%progbits
 2961              		.align	1
 2962              		.global	u8g2_m_40_30_1
 2963              		.thumb
 2964              		.thumb_func
 2965              		.type	u8g2_m_40_30_1, %function
 2966              	u8g2_m_40_30_1:
 2967              	.LFB105:
1161:..\..\..\u8g2\u8g2\csrc/u8g2_d_memory.c **** uint8_t *u8g2_m_40_30_1(uint8_t *page_cnt)
1162:..\..\..\u8g2\u8g2\csrc/u8g2_d_memory.c **** {
 2968              		.loc 1 1162 0
 2969              		.cfi_startproc
 2970              		@ args = 0, pretend = 0, frame = 0
 2971              		@ frame_needed = 0, uses_anonymous_args = 0
 2972              		@ link register save eliminated.
 2973              	.LVL210:
1163:..\..\..\u8g2\u8g2\csrc/u8g2_d_memory.c ****   #ifdef U8G2_USE_DYNAMIC_ALLOC
1164:..\..\..\u8g2\u8g2\csrc/u8g2_d_memory.c ****   *page_cnt = 1;
1165:..\..\..\u8g2\u8g2\csrc/u8g2_d_memory.c ****   return 0;
1166:..\..\..\u8g2\u8g2\csrc/u8g2_d_memory.c ****   #else
1167:..\..\..\u8g2\u8g2\csrc/u8g2_d_memory.c ****   static uint8_t buf[320];
1168:..\..\..\u8g2\u8g2\csrc/u8g2_d_memory.c ****   *page_cnt = 1;
 2974              		.loc 1 1168 0
 2975 0000 0123     		movs	r3, #1
 2976 0002 0370     		strb	r3, [r0]
1169:..\..\..\u8g2\u8g2\csrc/u8g2_d_memory.c ****   return buf;
1170:..\..\..\u8g2\u8g2\csrc/u8g2_d_memory.c ****   #endif
1171:..\..\..\u8g2\u8g2\csrc/u8g2_d_memory.c **** }
 2977              		.loc 1 1171 0
 2978 0004 0048     		ldr	r0, .L317
 2979              	.LVL211:
 2980 0006 7047     		bx	lr
 2981              	.L318:
 2982              		.align	2
 2983              	.L317:
 2984 0008 285C0100 		.word	.LANCHOR19+2248
 2985              		.cfi_endproc
 2986              	.LFE105:
 2987              		.size	u8g2_m_40_30_1, .-u8g2_m_40_30_1
 2988              		.section	.text.u8g2_m_40_30_2,"ax",%progbits
 2989              		.align	1
 2990              		.global	u8g2_m_40_30_2
ARM GAS  C:\Users\jesse\AppData\Local\Temp\ccuy2FXa.s 			page 74


 2991              		.thumb
 2992              		.thumb_func
 2993              		.type	u8g2_m_40_30_2, %function
 2994              	u8g2_m_40_30_2:
 2995              	.LFB106:
1172:..\..\..\u8g2\u8g2\csrc/u8g2_d_memory.c **** uint8_t *u8g2_m_40_30_2(uint8_t *page_cnt)
1173:..\..\..\u8g2\u8g2\csrc/u8g2_d_memory.c **** {
 2996              		.loc 1 1173 0
 2997              		.cfi_startproc
 2998              		@ args = 0, pretend = 0, frame = 0
 2999              		@ frame_needed = 0, uses_anonymous_args = 0
 3000              		@ link register save eliminated.
 3001              	.LVL212:
1174:..\..\..\u8g2\u8g2\csrc/u8g2_d_memory.c ****   #ifdef U8G2_USE_DYNAMIC_ALLOC
1175:..\..\..\u8g2\u8g2\csrc/u8g2_d_memory.c ****   *page_cnt = 2;
1176:..\..\..\u8g2\u8g2\csrc/u8g2_d_memory.c ****   return 0;
1177:..\..\..\u8g2\u8g2\csrc/u8g2_d_memory.c ****   #else
1178:..\..\..\u8g2\u8g2\csrc/u8g2_d_memory.c ****   static uint8_t buf[640];
1179:..\..\..\u8g2\u8g2\csrc/u8g2_d_memory.c ****   *page_cnt = 2;
 3002              		.loc 1 1179 0
 3003 0000 0223     		movs	r3, #2
 3004 0002 0370     		strb	r3, [r0]
1180:..\..\..\u8g2\u8g2\csrc/u8g2_d_memory.c ****   return buf;
1181:..\..\..\u8g2\u8g2\csrc/u8g2_d_memory.c ****   #endif
1182:..\..\..\u8g2\u8g2\csrc/u8g2_d_memory.c **** }
 3005              		.loc 1 1182 0
 3006 0004 0048     		ldr	r0, .L320
 3007              	.LVL213:
 3008 0006 7047     		bx	lr
 3009              	.L321:
 3010              		.align	2
 3011              	.L320:
 3012 0008 685D0100 		.word	.LANCHOR19+2568
 3013              		.cfi_endproc
 3014              	.LFE106:
 3015              		.size	u8g2_m_40_30_2, .-u8g2_m_40_30_2
 3016              		.section	.text.u8g2_m_40_30_f,"ax",%progbits
 3017              		.align	1
 3018              		.global	u8g2_m_40_30_f
 3019              		.thumb
 3020              		.thumb_func
 3021              		.type	u8g2_m_40_30_f, %function
 3022              	u8g2_m_40_30_f:
 3023              	.LFB107:
1183:..\..\..\u8g2\u8g2\csrc/u8g2_d_memory.c **** uint8_t *u8g2_m_40_30_f(uint8_t *page_cnt)
1184:..\..\..\u8g2\u8g2\csrc/u8g2_d_memory.c **** {
 3024              		.loc 1 1184 0
 3025              		.cfi_startproc
 3026              		@ args = 0, pretend = 0, frame = 0
 3027              		@ frame_needed = 0, uses_anonymous_args = 0
 3028              		@ link register save eliminated.
 3029              	.LVL214:
1185:..\..\..\u8g2\u8g2\csrc/u8g2_d_memory.c ****   #ifdef U8G2_USE_DYNAMIC_ALLOC
1186:..\..\..\u8g2\u8g2\csrc/u8g2_d_memory.c ****   *page_cnt = 30;
1187:..\..\..\u8g2\u8g2\csrc/u8g2_d_memory.c ****   return 0;
1188:..\..\..\u8g2\u8g2\csrc/u8g2_d_memory.c ****   #else
1189:..\..\..\u8g2\u8g2\csrc/u8g2_d_memory.c ****   static uint8_t buf[9600];
ARM GAS  C:\Users\jesse\AppData\Local\Temp\ccuy2FXa.s 			page 75


1190:..\..\..\u8g2\u8g2\csrc/u8g2_d_memory.c ****   *page_cnt = 30;
 3030              		.loc 1 1190 0
 3031 0000 1E23     		movs	r3, #30
 3032 0002 0370     		strb	r3, [r0]
1191:..\..\..\u8g2\u8g2\csrc/u8g2_d_memory.c ****   return buf;
1192:..\..\..\u8g2\u8g2\csrc/u8g2_d_memory.c ****   #endif
1193:..\..\..\u8g2\u8g2\csrc/u8g2_d_memory.c **** }
 3033              		.loc 1 1193 0
 3034 0004 0048     		ldr	r0, .L323
 3035              	.LVL215:
 3036 0006 7047     		bx	lr
 3037              	.L324:
 3038              		.align	2
 3039              	.L323:
 3040 0008 E85F0100 		.word	.LANCHOR19+3208
 3041              		.cfi_endproc
 3042              	.LFE107:
 3043              		.size	u8g2_m_40_30_f, .-u8g2_m_40_30_f
 3044              		.section	.text.u8g2_m_20_8_1,"ax",%progbits
 3045              		.align	1
 3046              		.global	u8g2_m_20_8_1
 3047              		.thumb
 3048              		.thumb_func
 3049              		.type	u8g2_m_20_8_1, %function
 3050              	u8g2_m_20_8_1:
 3051              	.LFB108:
1194:..\..\..\u8g2\u8g2\csrc/u8g2_d_memory.c **** uint8_t *u8g2_m_20_8_1(uint8_t *page_cnt)
1195:..\..\..\u8g2\u8g2\csrc/u8g2_d_memory.c **** {
 3052              		.loc 1 1195 0
 3053              		.cfi_startproc
 3054              		@ args = 0, pretend = 0, frame = 0
 3055              		@ frame_needed = 0, uses_anonymous_args = 0
 3056              		@ link register save eliminated.
 3057              	.LVL216:
1196:..\..\..\u8g2\u8g2\csrc/u8g2_d_memory.c ****   #ifdef U8G2_USE_DYNAMIC_ALLOC
1197:..\..\..\u8g2\u8g2\csrc/u8g2_d_memory.c ****   *page_cnt = 1;
1198:..\..\..\u8g2\u8g2\csrc/u8g2_d_memory.c ****   return 0;
1199:..\..\..\u8g2\u8g2\csrc/u8g2_d_memory.c ****   #else
1200:..\..\..\u8g2\u8g2\csrc/u8g2_d_memory.c ****   static uint8_t buf[160];
1201:..\..\..\u8g2\u8g2\csrc/u8g2_d_memory.c ****   *page_cnt = 1;
 3058              		.loc 1 1201 0
 3059 0000 0123     		movs	r3, #1
 3060 0002 0370     		strb	r3, [r0]
1202:..\..\..\u8g2\u8g2\csrc/u8g2_d_memory.c ****   return buf;
1203:..\..\..\u8g2\u8g2\csrc/u8g2_d_memory.c ****   #endif
1204:..\..\..\u8g2\u8g2\csrc/u8g2_d_memory.c **** }
 3061              		.loc 1 1204 0
 3062 0004 0048     		ldr	r0, .L326
 3063              	.LVL217:
 3064 0006 7047     		bx	lr
 3065              	.L327:
 3066              		.align	2
 3067              	.L326:
 3068 0008 68850100 		.word	.LANCHOR20-224
 3069              		.cfi_endproc
 3070              	.LFE108:
 3071              		.size	u8g2_m_20_8_1, .-u8g2_m_20_8_1
ARM GAS  C:\Users\jesse\AppData\Local\Temp\ccuy2FXa.s 			page 76


 3072              		.section	.text.u8g2_m_20_8_2,"ax",%progbits
 3073              		.align	1
 3074              		.global	u8g2_m_20_8_2
 3075              		.thumb
 3076              		.thumb_func
 3077              		.type	u8g2_m_20_8_2, %function
 3078              	u8g2_m_20_8_2:
 3079              	.LFB109:
1205:..\..\..\u8g2\u8g2\csrc/u8g2_d_memory.c **** uint8_t *u8g2_m_20_8_2(uint8_t *page_cnt)
1206:..\..\..\u8g2\u8g2\csrc/u8g2_d_memory.c **** {
 3080              		.loc 1 1206 0
 3081              		.cfi_startproc
 3082              		@ args = 0, pretend = 0, frame = 0
 3083              		@ frame_needed = 0, uses_anonymous_args = 0
 3084              		@ link register save eliminated.
 3085              	.LVL218:
1207:..\..\..\u8g2\u8g2\csrc/u8g2_d_memory.c ****   #ifdef U8G2_USE_DYNAMIC_ALLOC
1208:..\..\..\u8g2\u8g2\csrc/u8g2_d_memory.c ****   *page_cnt = 2;
1209:..\..\..\u8g2\u8g2\csrc/u8g2_d_memory.c ****   return 0;
1210:..\..\..\u8g2\u8g2\csrc/u8g2_d_memory.c ****   #else
1211:..\..\..\u8g2\u8g2\csrc/u8g2_d_memory.c ****   static uint8_t buf[320];
1212:..\..\..\u8g2\u8g2\csrc/u8g2_d_memory.c ****   *page_cnt = 2;
 3086              		.loc 1 1212 0
 3087 0000 0223     		movs	r3, #2
 3088 0002 0370     		strb	r3, [r0]
1213:..\..\..\u8g2\u8g2\csrc/u8g2_d_memory.c ****   return buf;
1214:..\..\..\u8g2\u8g2\csrc/u8g2_d_memory.c ****   #endif
1215:..\..\..\u8g2\u8g2\csrc/u8g2_d_memory.c **** }
 3089              		.loc 1 1215 0
 3090 0004 0048     		ldr	r0, .L329
 3091              	.LVL219:
 3092 0006 7047     		bx	lr
 3093              	.L330:
 3094              		.align	2
 3095              	.L329:
 3096 0008 08860100 		.word	.LANCHOR20-64
 3097              		.cfi_endproc
 3098              	.LFE109:
 3099              		.size	u8g2_m_20_8_2, .-u8g2_m_20_8_2
 3100              		.section	.text.u8g2_m_20_8_f,"ax",%progbits
 3101              		.align	1
 3102              		.global	u8g2_m_20_8_f
 3103              		.thumb
 3104              		.thumb_func
 3105              		.type	u8g2_m_20_8_f, %function
 3106              	u8g2_m_20_8_f:
 3107              	.LFB110:
1216:..\..\..\u8g2\u8g2\csrc/u8g2_d_memory.c **** uint8_t *u8g2_m_20_8_f(uint8_t *page_cnt)
1217:..\..\..\u8g2\u8g2\csrc/u8g2_d_memory.c **** {
 3108              		.loc 1 1217 0
 3109              		.cfi_startproc
 3110              		@ args = 0, pretend = 0, frame = 0
 3111              		@ frame_needed = 0, uses_anonymous_args = 0
 3112              		@ link register save eliminated.
 3113              	.LVL220:
1218:..\..\..\u8g2\u8g2\csrc/u8g2_d_memory.c ****   #ifdef U8G2_USE_DYNAMIC_ALLOC
1219:..\..\..\u8g2\u8g2\csrc/u8g2_d_memory.c ****   *page_cnt = 8;
ARM GAS  C:\Users\jesse\AppData\Local\Temp\ccuy2FXa.s 			page 77


1220:..\..\..\u8g2\u8g2\csrc/u8g2_d_memory.c ****   return 0;
1221:..\..\..\u8g2\u8g2\csrc/u8g2_d_memory.c ****   #else
1222:..\..\..\u8g2\u8g2\csrc/u8g2_d_memory.c ****   static uint8_t buf[1280];
1223:..\..\..\u8g2\u8g2\csrc/u8g2_d_memory.c ****   *page_cnt = 8;
 3114              		.loc 1 1223 0
 3115 0000 0823     		movs	r3, #8
 3116 0002 0370     		strb	r3, [r0]
1224:..\..\..\u8g2\u8g2\csrc/u8g2_d_memory.c ****   return buf;
1225:..\..\..\u8g2\u8g2\csrc/u8g2_d_memory.c ****   #endif
1226:..\..\..\u8g2\u8g2\csrc/u8g2_d_memory.c **** }
 3117              		.loc 1 1226 0
 3118 0004 0048     		ldr	r0, .L332
 3119              	.LVL221:
 3120 0006 7047     		bx	lr
 3121              	.L333:
 3122              		.align	2
 3123              	.L332:
 3124 0008 48870100 		.word	.LANCHOR20+256
 3125              		.cfi_endproc
 3126              	.LFE110:
 3127              		.size	u8g2_m_20_8_f, .-u8g2_m_20_8_f
 3128              		.section	.text.u8g2_m_17_4_1,"ax",%progbits
 3129              		.align	1
 3130              		.global	u8g2_m_17_4_1
 3131              		.thumb
 3132              		.thumb_func
 3133              		.type	u8g2_m_17_4_1, %function
 3134              	u8g2_m_17_4_1:
 3135              	.LFB111:
1227:..\..\..\u8g2\u8g2\csrc/u8g2_d_memory.c **** uint8_t *u8g2_m_17_4_1(uint8_t *page_cnt)
1228:..\..\..\u8g2\u8g2\csrc/u8g2_d_memory.c **** {
 3136              		.loc 1 1228 0
 3137              		.cfi_startproc
 3138              		@ args = 0, pretend = 0, frame = 0
 3139              		@ frame_needed = 0, uses_anonymous_args = 0
 3140              		@ link register save eliminated.
 3141              	.LVL222:
1229:..\..\..\u8g2\u8g2\csrc/u8g2_d_memory.c ****   #ifdef U8G2_USE_DYNAMIC_ALLOC
1230:..\..\..\u8g2\u8g2\csrc/u8g2_d_memory.c ****   *page_cnt = 1;
1231:..\..\..\u8g2\u8g2\csrc/u8g2_d_memory.c ****   return 0;
1232:..\..\..\u8g2\u8g2\csrc/u8g2_d_memory.c ****   #else
1233:..\..\..\u8g2\u8g2\csrc/u8g2_d_memory.c ****   static uint8_t buf[136];
1234:..\..\..\u8g2\u8g2\csrc/u8g2_d_memory.c ****   *page_cnt = 1;
 3142              		.loc 1 1234 0
 3143 0000 0123     		movs	r3, #1
 3144 0002 0370     		strb	r3, [r0]
1235:..\..\..\u8g2\u8g2\csrc/u8g2_d_memory.c ****   return buf;
1236:..\..\..\u8g2\u8g2\csrc/u8g2_d_memory.c ****   #endif
1237:..\..\..\u8g2\u8g2\csrc/u8g2_d_memory.c **** }
 3145              		.loc 1 1237 0
 3146 0004 0048     		ldr	r0, .L335
 3147              	.LVL223:
 3148 0006 7047     		bx	lr
 3149              	.L336:
 3150              		.align	2
 3151              	.L335:
 3152 0008 488C0100 		.word	.LANCHOR20+1536
ARM GAS  C:\Users\jesse\AppData\Local\Temp\ccuy2FXa.s 			page 78


 3153              		.cfi_endproc
 3154              	.LFE111:
 3155              		.size	u8g2_m_17_4_1, .-u8g2_m_17_4_1
 3156              		.section	.text.u8g2_m_17_4_2,"ax",%progbits
 3157              		.align	1
 3158              		.global	u8g2_m_17_4_2
 3159              		.thumb
 3160              		.thumb_func
 3161              		.type	u8g2_m_17_4_2, %function
 3162              	u8g2_m_17_4_2:
 3163              	.LFB112:
1238:..\..\..\u8g2\u8g2\csrc/u8g2_d_memory.c **** uint8_t *u8g2_m_17_4_2(uint8_t *page_cnt)
1239:..\..\..\u8g2\u8g2\csrc/u8g2_d_memory.c **** {
 3164              		.loc 1 1239 0
 3165              		.cfi_startproc
 3166              		@ args = 0, pretend = 0, frame = 0
 3167              		@ frame_needed = 0, uses_anonymous_args = 0
 3168              		@ link register save eliminated.
 3169              	.LVL224:
1240:..\..\..\u8g2\u8g2\csrc/u8g2_d_memory.c ****   #ifdef U8G2_USE_DYNAMIC_ALLOC
1241:..\..\..\u8g2\u8g2\csrc/u8g2_d_memory.c ****   *page_cnt = 2;
1242:..\..\..\u8g2\u8g2\csrc/u8g2_d_memory.c ****   return 0;
1243:..\..\..\u8g2\u8g2\csrc/u8g2_d_memory.c ****   #else
1244:..\..\..\u8g2\u8g2\csrc/u8g2_d_memory.c ****   static uint8_t buf[272];
1245:..\..\..\u8g2\u8g2\csrc/u8g2_d_memory.c ****   *page_cnt = 2;
 3170              		.loc 1 1245 0
 3171 0000 0223     		movs	r3, #2
 3172 0002 0370     		strb	r3, [r0]
1246:..\..\..\u8g2\u8g2\csrc/u8g2_d_memory.c ****   return buf;
1247:..\..\..\u8g2\u8g2\csrc/u8g2_d_memory.c ****   #endif
1248:..\..\..\u8g2\u8g2\csrc/u8g2_d_memory.c **** }
 3173              		.loc 1 1248 0
 3174 0004 0048     		ldr	r0, .L338
 3175              	.LVL225:
 3176 0006 7047     		bx	lr
 3177              	.L339:
 3178              		.align	2
 3179              	.L338:
 3180 0008 D08C0100 		.word	.LANCHOR20+1672
 3181              		.cfi_endproc
 3182              	.LFE112:
 3183              		.size	u8g2_m_17_4_2, .-u8g2_m_17_4_2
 3184              		.section	.text.u8g2_m_17_4_f,"ax",%progbits
 3185              		.align	1
 3186              		.global	u8g2_m_17_4_f
 3187              		.thumb
 3188              		.thumb_func
 3189              		.type	u8g2_m_17_4_f, %function
 3190              	u8g2_m_17_4_f:
 3191              	.LFB113:
1249:..\..\..\u8g2\u8g2\csrc/u8g2_d_memory.c **** uint8_t *u8g2_m_17_4_f(uint8_t *page_cnt)
1250:..\..\..\u8g2\u8g2\csrc/u8g2_d_memory.c **** {
 3192              		.loc 1 1250 0
 3193              		.cfi_startproc
 3194              		@ args = 0, pretend = 0, frame = 0
 3195              		@ frame_needed = 0, uses_anonymous_args = 0
 3196              		@ link register save eliminated.
ARM GAS  C:\Users\jesse\AppData\Local\Temp\ccuy2FXa.s 			page 79


 3197              	.LVL226:
1251:..\..\..\u8g2\u8g2\csrc/u8g2_d_memory.c ****   #ifdef U8G2_USE_DYNAMIC_ALLOC
1252:..\..\..\u8g2\u8g2\csrc/u8g2_d_memory.c ****   *page_cnt = 4;
1253:..\..\..\u8g2\u8g2\csrc/u8g2_d_memory.c ****   return 0;
1254:..\..\..\u8g2\u8g2\csrc/u8g2_d_memory.c ****   #else
1255:..\..\..\u8g2\u8g2\csrc/u8g2_d_memory.c ****   static uint8_t buf[544];
1256:..\..\..\u8g2\u8g2\csrc/u8g2_d_memory.c ****   *page_cnt = 4;
 3198              		.loc 1 1256 0
 3199 0000 0423     		movs	r3, #4
 3200 0002 0370     		strb	r3, [r0]
1257:..\..\..\u8g2\u8g2\csrc/u8g2_d_memory.c ****   return buf;
1258:..\..\..\u8g2\u8g2\csrc/u8g2_d_memory.c ****   #endif
1259:..\..\..\u8g2\u8g2\csrc/u8g2_d_memory.c **** }
 3201              		.loc 1 1259 0
 3202 0004 0048     		ldr	r0, .L341
 3203              	.LVL227:
 3204 0006 7047     		bx	lr
 3205              	.L342:
 3206              		.align	2
 3207              	.L341:
 3208 0008 E08D0100 		.word	.LANCHOR20+1944
 3209              		.cfi_endproc
 3210              	.LFE113:
 3211              		.size	u8g2_m_17_4_f, .-u8g2_m_17_4_f
 3212              		.section	.text.u8g2_m_17_8_1,"ax",%progbits
 3213              		.align	1
 3214              		.global	u8g2_m_17_8_1
 3215              		.thumb
 3216              		.thumb_func
 3217              		.type	u8g2_m_17_8_1, %function
 3218              	u8g2_m_17_8_1:
 3219              	.LFB114:
1260:..\..\..\u8g2\u8g2\csrc/u8g2_d_memory.c **** uint8_t *u8g2_m_17_8_1(uint8_t *page_cnt)
1261:..\..\..\u8g2\u8g2\csrc/u8g2_d_memory.c **** {
 3220              		.loc 1 1261 0
 3221              		.cfi_startproc
 3222              		@ args = 0, pretend = 0, frame = 0
 3223              		@ frame_needed = 0, uses_anonymous_args = 0
 3224              		@ link register save eliminated.
 3225              	.LVL228:
1262:..\..\..\u8g2\u8g2\csrc/u8g2_d_memory.c ****   #ifdef U8G2_USE_DYNAMIC_ALLOC
1263:..\..\..\u8g2\u8g2\csrc/u8g2_d_memory.c ****   *page_cnt = 1;
1264:..\..\..\u8g2\u8g2\csrc/u8g2_d_memory.c ****   return 0;
1265:..\..\..\u8g2\u8g2\csrc/u8g2_d_memory.c ****   #else
1266:..\..\..\u8g2\u8g2\csrc/u8g2_d_memory.c ****   static uint8_t buf[136];
1267:..\..\..\u8g2\u8g2\csrc/u8g2_d_memory.c ****   *page_cnt = 1;
 3226              		.loc 1 1267 0
 3227 0000 0123     		movs	r3, #1
 3228 0002 0370     		strb	r3, [r0]
1268:..\..\..\u8g2\u8g2\csrc/u8g2_d_memory.c ****   return buf;
1269:..\..\..\u8g2\u8g2\csrc/u8g2_d_memory.c ****   #endif
1270:..\..\..\u8g2\u8g2\csrc/u8g2_d_memory.c **** }
 3229              		.loc 1 1270 0
 3230 0004 0048     		ldr	r0, .L344
 3231              	.LVL229:
 3232 0006 7047     		bx	lr
 3233              	.L345:
ARM GAS  C:\Users\jesse\AppData\Local\Temp\ccuy2FXa.s 			page 80


 3234              		.align	2
 3235              	.L344:
 3236 0008 00900100 		.word	.LANCHOR20+2488
 3237              		.cfi_endproc
 3238              	.LFE114:
 3239              		.size	u8g2_m_17_8_1, .-u8g2_m_17_8_1
 3240              		.section	.text.u8g2_m_17_8_2,"ax",%progbits
 3241              		.align	1
 3242              		.global	u8g2_m_17_8_2
 3243              		.thumb
 3244              		.thumb_func
 3245              		.type	u8g2_m_17_8_2, %function
 3246              	u8g2_m_17_8_2:
 3247              	.LFB115:
1271:..\..\..\u8g2\u8g2\csrc/u8g2_d_memory.c **** uint8_t *u8g2_m_17_8_2(uint8_t *page_cnt)
1272:..\..\..\u8g2\u8g2\csrc/u8g2_d_memory.c **** {
 3248              		.loc 1 1272 0
 3249              		.cfi_startproc
 3250              		@ args = 0, pretend = 0, frame = 0
 3251              		@ frame_needed = 0, uses_anonymous_args = 0
 3252              		@ link register save eliminated.
 3253              	.LVL230:
1273:..\..\..\u8g2\u8g2\csrc/u8g2_d_memory.c ****   #ifdef U8G2_USE_DYNAMIC_ALLOC
1274:..\..\..\u8g2\u8g2\csrc/u8g2_d_memory.c ****   *page_cnt = 2;
1275:..\..\..\u8g2\u8g2\csrc/u8g2_d_memory.c ****   return 0;
1276:..\..\..\u8g2\u8g2\csrc/u8g2_d_memory.c ****   #else
1277:..\..\..\u8g2\u8g2\csrc/u8g2_d_memory.c ****   static uint8_t buf[272];
1278:..\..\..\u8g2\u8g2\csrc/u8g2_d_memory.c ****   *page_cnt = 2;
 3254              		.loc 1 1278 0
 3255 0000 0223     		movs	r3, #2
 3256 0002 0370     		strb	r3, [r0]
1279:..\..\..\u8g2\u8g2\csrc/u8g2_d_memory.c ****   return buf;
1280:..\..\..\u8g2\u8g2\csrc/u8g2_d_memory.c ****   #endif
1281:..\..\..\u8g2\u8g2\csrc/u8g2_d_memory.c **** }
 3257              		.loc 1 1281 0
 3258 0004 0048     		ldr	r0, .L347
 3259              	.LVL231:
 3260 0006 7047     		bx	lr
 3261              	.L348:
 3262              		.align	2
 3263              	.L347:
 3264 0008 88900100 		.word	.LANCHOR20+2624
 3265              		.cfi_endproc
 3266              	.LFE115:
 3267              		.size	u8g2_m_17_8_2, .-u8g2_m_17_8_2
 3268              		.section	.text.u8g2_m_17_8_f,"ax",%progbits
 3269              		.align	1
 3270              		.global	u8g2_m_17_8_f
 3271              		.thumb
 3272              		.thumb_func
 3273              		.type	u8g2_m_17_8_f, %function
 3274              	u8g2_m_17_8_f:
 3275              	.LFB116:
1282:..\..\..\u8g2\u8g2\csrc/u8g2_d_memory.c **** uint8_t *u8g2_m_17_8_f(uint8_t *page_cnt)
1283:..\..\..\u8g2\u8g2\csrc/u8g2_d_memory.c **** {
 3276              		.loc 1 1283 0
 3277              		.cfi_startproc
ARM GAS  C:\Users\jesse\AppData\Local\Temp\ccuy2FXa.s 			page 81


 3278              		@ args = 0, pretend = 0, frame = 0
 3279              		@ frame_needed = 0, uses_anonymous_args = 0
 3280              		@ link register save eliminated.
 3281              	.LVL232:
1284:..\..\..\u8g2\u8g2\csrc/u8g2_d_memory.c ****   #ifdef U8G2_USE_DYNAMIC_ALLOC
1285:..\..\..\u8g2\u8g2\csrc/u8g2_d_memory.c ****   *page_cnt = 8;
1286:..\..\..\u8g2\u8g2\csrc/u8g2_d_memory.c ****   return 0;
1287:..\..\..\u8g2\u8g2\csrc/u8g2_d_memory.c ****   #else
1288:..\..\..\u8g2\u8g2\csrc/u8g2_d_memory.c ****   static uint8_t buf[1088];
1289:..\..\..\u8g2\u8g2\csrc/u8g2_d_memory.c ****   *page_cnt = 8;
 3282              		.loc 1 1289 0
 3283 0000 0823     		movs	r3, #8
 3284 0002 0370     		strb	r3, [r0]
1290:..\..\..\u8g2\u8g2\csrc/u8g2_d_memory.c ****   return buf;
1291:..\..\..\u8g2\u8g2\csrc/u8g2_d_memory.c ****   #endif
1292:..\..\..\u8g2\u8g2\csrc/u8g2_d_memory.c **** }
 3285              		.loc 1 1292 0
 3286 0004 0048     		ldr	r0, .L350
 3287              	.LVL233:
 3288 0006 7047     		bx	lr
 3289              	.L351:
 3290              		.align	2
 3291              	.L350:
 3292 0008 98910100 		.word	.LANCHOR20+2896
 3293              		.cfi_endproc
 3294              	.LFE116:
 3295              		.size	u8g2_m_17_8_f, .-u8g2_m_17_8_f
 3296              		.section	.text.u8g2_m_48_17_1,"ax",%progbits
 3297              		.align	1
 3298              		.global	u8g2_m_48_17_1
 3299              		.thumb
 3300              		.thumb_func
 3301              		.type	u8g2_m_48_17_1, %function
 3302              	u8g2_m_48_17_1:
 3303              	.LFB117:
1293:..\..\..\u8g2\u8g2\csrc/u8g2_d_memory.c **** uint8_t *u8g2_m_48_17_1(uint8_t *page_cnt)
1294:..\..\..\u8g2\u8g2\csrc/u8g2_d_memory.c **** {
 3304              		.loc 1 1294 0
 3305              		.cfi_startproc
 3306              		@ args = 0, pretend = 0, frame = 0
 3307              		@ frame_needed = 0, uses_anonymous_args = 0
 3308              		@ link register save eliminated.
 3309              	.LVL234:
1295:..\..\..\u8g2\u8g2\csrc/u8g2_d_memory.c ****   #ifdef U8G2_USE_DYNAMIC_ALLOC
1296:..\..\..\u8g2\u8g2\csrc/u8g2_d_memory.c ****   *page_cnt = 1;
1297:..\..\..\u8g2\u8g2\csrc/u8g2_d_memory.c ****   return 0;
1298:..\..\..\u8g2\u8g2\csrc/u8g2_d_memory.c ****   #else
1299:..\..\..\u8g2\u8g2\csrc/u8g2_d_memory.c ****   static uint8_t buf[384];
1300:..\..\..\u8g2\u8g2\csrc/u8g2_d_memory.c ****   *page_cnt = 1;
 3310              		.loc 1 1300 0
 3311 0000 0123     		movs	r3, #1
 3312 0002 0370     		strb	r3, [r0]
1301:..\..\..\u8g2\u8g2\csrc/u8g2_d_memory.c ****   return buf;
1302:..\..\..\u8g2\u8g2\csrc/u8g2_d_memory.c ****   #endif
1303:..\..\..\u8g2\u8g2\csrc/u8g2_d_memory.c **** }
 3313              		.loc 1 1303 0
 3314 0004 0048     		ldr	r0, .L353
ARM GAS  C:\Users\jesse\AppData\Local\Temp\ccuy2FXa.s 			page 82


 3315              	.LVL235:
 3316 0006 7047     		bx	lr
 3317              	.L354:
 3318              		.align	2
 3319              	.L353:
 3320 0008 D8950100 		.word	.LANCHOR20+3984
 3321              		.cfi_endproc
 3322              	.LFE117:
 3323              		.size	u8g2_m_48_17_1, .-u8g2_m_48_17_1
 3324              		.section	.text.u8g2_m_48_17_2,"ax",%progbits
 3325              		.align	1
 3326              		.global	u8g2_m_48_17_2
 3327              		.thumb
 3328              		.thumb_func
 3329              		.type	u8g2_m_48_17_2, %function
 3330              	u8g2_m_48_17_2:
 3331              	.LFB118:
1304:..\..\..\u8g2\u8g2\csrc/u8g2_d_memory.c **** uint8_t *u8g2_m_48_17_2(uint8_t *page_cnt)
1305:..\..\..\u8g2\u8g2\csrc/u8g2_d_memory.c **** {
 3332              		.loc 1 1305 0
 3333              		.cfi_startproc
 3334              		@ args = 0, pretend = 0, frame = 0
 3335              		@ frame_needed = 0, uses_anonymous_args = 0
 3336              		@ link register save eliminated.
 3337              	.LVL236:
1306:..\..\..\u8g2\u8g2\csrc/u8g2_d_memory.c ****   #ifdef U8G2_USE_DYNAMIC_ALLOC
1307:..\..\..\u8g2\u8g2\csrc/u8g2_d_memory.c ****   *page_cnt = 2;
1308:..\..\..\u8g2\u8g2\csrc/u8g2_d_memory.c ****   return 0;
1309:..\..\..\u8g2\u8g2\csrc/u8g2_d_memory.c ****   #else
1310:..\..\..\u8g2\u8g2\csrc/u8g2_d_memory.c ****   static uint8_t buf[768];
1311:..\..\..\u8g2\u8g2\csrc/u8g2_d_memory.c ****   *page_cnt = 2;
 3338              		.loc 1 1311 0
 3339 0000 0223     		movs	r3, #2
 3340 0002 0370     		strb	r3, [r0]
1312:..\..\..\u8g2\u8g2\csrc/u8g2_d_memory.c ****   return buf;
1313:..\..\..\u8g2\u8g2\csrc/u8g2_d_memory.c ****   #endif
1314:..\..\..\u8g2\u8g2\csrc/u8g2_d_memory.c **** }
 3341              		.loc 1 1314 0
 3342 0004 0048     		ldr	r0, .L356
 3343              	.LVL237:
 3344 0006 7047     		bx	lr
 3345              	.L357:
 3346              		.align	2
 3347              	.L356:
 3348 0008 58970100 		.word	.LANCHOR21+24
 3349              		.cfi_endproc
 3350              	.LFE118:
 3351              		.size	u8g2_m_48_17_2, .-u8g2_m_48_17_2
 3352              		.section	.text.u8g2_m_48_17_f,"ax",%progbits
 3353              		.align	1
 3354              		.global	u8g2_m_48_17_f
 3355              		.thumb
 3356              		.thumb_func
 3357              		.type	u8g2_m_48_17_f, %function
 3358              	u8g2_m_48_17_f:
 3359              	.LFB119:
1315:..\..\..\u8g2\u8g2\csrc/u8g2_d_memory.c **** uint8_t *u8g2_m_48_17_f(uint8_t *page_cnt)
ARM GAS  C:\Users\jesse\AppData\Local\Temp\ccuy2FXa.s 			page 83


1316:..\..\..\u8g2\u8g2\csrc/u8g2_d_memory.c **** {
 3360              		.loc 1 1316 0
 3361              		.cfi_startproc
 3362              		@ args = 0, pretend = 0, frame = 0
 3363              		@ frame_needed = 0, uses_anonymous_args = 0
 3364              		@ link register save eliminated.
 3365              	.LVL238:
1317:..\..\..\u8g2\u8g2\csrc/u8g2_d_memory.c ****   #ifdef U8G2_USE_DYNAMIC_ALLOC
1318:..\..\..\u8g2\u8g2\csrc/u8g2_d_memory.c ****   *page_cnt = 17;
1319:..\..\..\u8g2\u8g2\csrc/u8g2_d_memory.c ****   return 0;
1320:..\..\..\u8g2\u8g2\csrc/u8g2_d_memory.c ****   #else
1321:..\..\..\u8g2\u8g2\csrc/u8g2_d_memory.c ****   static uint8_t buf[6528];
1322:..\..\..\u8g2\u8g2\csrc/u8g2_d_memory.c ****   *page_cnt = 17;
 3366              		.loc 1 1322 0
 3367 0000 1123     		movs	r3, #17
 3368 0002 0370     		strb	r3, [r0]
1323:..\..\..\u8g2\u8g2\csrc/u8g2_d_memory.c ****   return buf;
1324:..\..\..\u8g2\u8g2\csrc/u8g2_d_memory.c ****   #endif
1325:..\..\..\u8g2\u8g2\csrc/u8g2_d_memory.c **** }
 3369              		.loc 1 1325 0
 3370 0004 0048     		ldr	r0, .L359
 3371              	.LVL239:
 3372 0006 7047     		bx	lr
 3373              	.L360:
 3374              		.align	2
 3375              	.L359:
 3376 0008 589A0100 		.word	.LANCHOR21+792
 3377              		.cfi_endproc
 3378              	.LFE119:
 3379              		.size	u8g2_m_48_17_f, .-u8g2_m_48_17_f
 3380              		.section	.text.u8g2_m_48_20_1,"ax",%progbits
 3381              		.align	1
 3382              		.global	u8g2_m_48_20_1
 3383              		.thumb
 3384              		.thumb_func
 3385              		.type	u8g2_m_48_20_1, %function
 3386              	u8g2_m_48_20_1:
 3387              	.LFB120:
1326:..\..\..\u8g2\u8g2\csrc/u8g2_d_memory.c **** uint8_t *u8g2_m_48_20_1(uint8_t *page_cnt)
1327:..\..\..\u8g2\u8g2\csrc/u8g2_d_memory.c **** {
 3388              		.loc 1 1327 0
 3389              		.cfi_startproc
 3390              		@ args = 0, pretend = 0, frame = 0
 3391              		@ frame_needed = 0, uses_anonymous_args = 0
 3392              		@ link register save eliminated.
 3393              	.LVL240:
1328:..\..\..\u8g2\u8g2\csrc/u8g2_d_memory.c ****   #ifdef U8G2_USE_DYNAMIC_ALLOC
1329:..\..\..\u8g2\u8g2\csrc/u8g2_d_memory.c ****   *page_cnt = 1;
1330:..\..\..\u8g2\u8g2\csrc/u8g2_d_memory.c ****   return 0;
1331:..\..\..\u8g2\u8g2\csrc/u8g2_d_memory.c ****   #else
1332:..\..\..\u8g2\u8g2\csrc/u8g2_d_memory.c ****   static uint8_t buf[384];
1333:..\..\..\u8g2\u8g2\csrc/u8g2_d_memory.c ****   *page_cnt = 1;
 3394              		.loc 1 1333 0
 3395 0000 0123     		movs	r3, #1
 3396 0002 0370     		strb	r3, [r0]
1334:..\..\..\u8g2\u8g2\csrc/u8g2_d_memory.c ****   return buf;
1335:..\..\..\u8g2\u8g2\csrc/u8g2_d_memory.c ****   #endif
ARM GAS  C:\Users\jesse\AppData\Local\Temp\ccuy2FXa.s 			page 84


1336:..\..\..\u8g2\u8g2\csrc/u8g2_d_memory.c **** }
 3397              		.loc 1 1336 0
 3398 0004 0048     		ldr	r0, .L362
 3399              	.LVL241:
 3400 0006 7047     		bx	lr
 3401              	.L363:
 3402              		.align	2
 3403              	.L362:
 3404 0008 D8B30100 		.word	.LANCHOR22+2976
 3405              		.cfi_endproc
 3406              	.LFE120:
 3407              		.size	u8g2_m_48_20_1, .-u8g2_m_48_20_1
 3408              		.section	.text.u8g2_m_48_20_2,"ax",%progbits
 3409              		.align	1
 3410              		.global	u8g2_m_48_20_2
 3411              		.thumb
 3412              		.thumb_func
 3413              		.type	u8g2_m_48_20_2, %function
 3414              	u8g2_m_48_20_2:
 3415              	.LFB121:
1337:..\..\..\u8g2\u8g2\csrc/u8g2_d_memory.c **** uint8_t *u8g2_m_48_20_2(uint8_t *page_cnt)
1338:..\..\..\u8g2\u8g2\csrc/u8g2_d_memory.c **** {
 3416              		.loc 1 1338 0
 3417              		.cfi_startproc
 3418              		@ args = 0, pretend = 0, frame = 0
 3419              		@ frame_needed = 0, uses_anonymous_args = 0
 3420              		@ link register save eliminated.
 3421              	.LVL242:
1339:..\..\..\u8g2\u8g2\csrc/u8g2_d_memory.c ****   #ifdef U8G2_USE_DYNAMIC_ALLOC
1340:..\..\..\u8g2\u8g2\csrc/u8g2_d_memory.c ****   *page_cnt = 2;
1341:..\..\..\u8g2\u8g2\csrc/u8g2_d_memory.c ****   return 0;
1342:..\..\..\u8g2\u8g2\csrc/u8g2_d_memory.c ****   #else
1343:..\..\..\u8g2\u8g2\csrc/u8g2_d_memory.c ****   static uint8_t buf[768];
1344:..\..\..\u8g2\u8g2\csrc/u8g2_d_memory.c ****   *page_cnt = 2;
 3422              		.loc 1 1344 0
 3423 0000 0223     		movs	r3, #2
 3424 0002 0370     		strb	r3, [r0]
1345:..\..\..\u8g2\u8g2\csrc/u8g2_d_memory.c ****   return buf;
1346:..\..\..\u8g2\u8g2\csrc/u8g2_d_memory.c ****   #endif
1347:..\..\..\u8g2\u8g2\csrc/u8g2_d_memory.c **** }
 3425              		.loc 1 1347 0
 3426 0004 0048     		ldr	r0, .L365
 3427              	.LVL243:
 3428 0006 7047     		bx	lr
 3429              	.L366:
 3430              		.align	2
 3431              	.L365:
 3432 0008 58B50100 		.word	.LANCHOR22+3360
 3433              		.cfi_endproc
 3434              	.LFE121:
 3435              		.size	u8g2_m_48_20_2, .-u8g2_m_48_20_2
 3436              		.section	.text.u8g2_m_48_20_f,"ax",%progbits
 3437              		.align	1
 3438              		.global	u8g2_m_48_20_f
 3439              		.thumb
 3440              		.thumb_func
 3441              		.type	u8g2_m_48_20_f, %function
ARM GAS  C:\Users\jesse\AppData\Local\Temp\ccuy2FXa.s 			page 85


 3442              	u8g2_m_48_20_f:
 3443              	.LFB122:
1348:..\..\..\u8g2\u8g2\csrc/u8g2_d_memory.c **** uint8_t *u8g2_m_48_20_f(uint8_t *page_cnt)
1349:..\..\..\u8g2\u8g2\csrc/u8g2_d_memory.c **** {
 3444              		.loc 1 1349 0
 3445              		.cfi_startproc
 3446              		@ args = 0, pretend = 0, frame = 0
 3447              		@ frame_needed = 0, uses_anonymous_args = 0
 3448              		@ link register save eliminated.
 3449              	.LVL244:
1350:..\..\..\u8g2\u8g2\csrc/u8g2_d_memory.c ****   #ifdef U8G2_USE_DYNAMIC_ALLOC
1351:..\..\..\u8g2\u8g2\csrc/u8g2_d_memory.c ****   *page_cnt = 20;
1352:..\..\..\u8g2\u8g2\csrc/u8g2_d_memory.c ****   return 0;
1353:..\..\..\u8g2\u8g2\csrc/u8g2_d_memory.c ****   #else
1354:..\..\..\u8g2\u8g2\csrc/u8g2_d_memory.c ****   static uint8_t buf[7680];
1355:..\..\..\u8g2\u8g2\csrc/u8g2_d_memory.c ****   *page_cnt = 20;
 3450              		.loc 1 1355 0
 3451 0000 1423     		movs	r3, #20
 3452 0002 0370     		strb	r3, [r0]
1356:..\..\..\u8g2\u8g2\csrc/u8g2_d_memory.c ****   return buf;
1357:..\..\..\u8g2\u8g2\csrc/u8g2_d_memory.c ****   #endif
1358:..\..\..\u8g2\u8g2\csrc/u8g2_d_memory.c **** }
 3453              		.loc 1 1358 0
 3454 0004 0048     		ldr	r0, .L368
 3455              	.LVL245:
 3456 0006 7047     		bx	lr
 3457              	.L369:
 3458              		.align	2
 3459              	.L368:
 3460 0008 58B80100 		.word	.LANCHOR23-216
 3461              		.cfi_endproc
 3462              	.LFE122:
 3463              		.size	u8g2_m_48_20_f, .-u8g2_m_48_20_f
 3464              		.section	.text.u8g2_m_20_12_1,"ax",%progbits
 3465              		.align	1
 3466              		.global	u8g2_m_20_12_1
 3467              		.thumb
 3468              		.thumb_func
 3469              		.type	u8g2_m_20_12_1, %function
 3470              	u8g2_m_20_12_1:
 3471              	.LFB123:
1359:..\..\..\u8g2\u8g2\csrc/u8g2_d_memory.c **** uint8_t *u8g2_m_20_12_1(uint8_t *page_cnt)
1360:..\..\..\u8g2\u8g2\csrc/u8g2_d_memory.c **** {
 3472              		.loc 1 1360 0
 3473              		.cfi_startproc
 3474              		@ args = 0, pretend = 0, frame = 0
 3475              		@ frame_needed = 0, uses_anonymous_args = 0
 3476              		@ link register save eliminated.
 3477              	.LVL246:
1361:..\..\..\u8g2\u8g2\csrc/u8g2_d_memory.c ****   #ifdef U8G2_USE_DYNAMIC_ALLOC
1362:..\..\..\u8g2\u8g2\csrc/u8g2_d_memory.c ****   *page_cnt = 1;
1363:..\..\..\u8g2\u8g2\csrc/u8g2_d_memory.c ****   return 0;
1364:..\..\..\u8g2\u8g2\csrc/u8g2_d_memory.c ****   #else
1365:..\..\..\u8g2\u8g2\csrc/u8g2_d_memory.c ****   static uint8_t buf[160];
1366:..\..\..\u8g2\u8g2\csrc/u8g2_d_memory.c ****   *page_cnt = 1;
 3478              		.loc 1 1366 0
 3479 0000 0123     		movs	r3, #1
ARM GAS  C:\Users\jesse\AppData\Local\Temp\ccuy2FXa.s 			page 86


 3480 0002 0370     		strb	r3, [r0]
1367:..\..\..\u8g2\u8g2\csrc/u8g2_d_memory.c ****   return buf;
1368:..\..\..\u8g2\u8g2\csrc/u8g2_d_memory.c ****   #endif
1369:..\..\..\u8g2\u8g2\csrc/u8g2_d_memory.c **** }
 3481              		.loc 1 1369 0
 3482 0004 0048     		ldr	r0, .L371
 3483              	.LVL247:
 3484 0006 7047     		bx	lr
 3485              	.L372:
 3486              		.align	2
 3487              	.L371:
 3488 0008 58D60100 		.word	.LANCHOR24+3120
 3489              		.cfi_endproc
 3490              	.LFE123:
 3491              		.size	u8g2_m_20_12_1, .-u8g2_m_20_12_1
 3492              		.section	.text.u8g2_m_20_12_2,"ax",%progbits
 3493              		.align	1
 3494              		.global	u8g2_m_20_12_2
 3495              		.thumb
 3496              		.thumb_func
 3497              		.type	u8g2_m_20_12_2, %function
 3498              	u8g2_m_20_12_2:
 3499              	.LFB124:
1370:..\..\..\u8g2\u8g2\csrc/u8g2_d_memory.c **** uint8_t *u8g2_m_20_12_2(uint8_t *page_cnt)
1371:..\..\..\u8g2\u8g2\csrc/u8g2_d_memory.c **** {
 3500              		.loc 1 1371 0
 3501              		.cfi_startproc
 3502              		@ args = 0, pretend = 0, frame = 0
 3503              		@ frame_needed = 0, uses_anonymous_args = 0
 3504              		@ link register save eliminated.
 3505              	.LVL248:
1372:..\..\..\u8g2\u8g2\csrc/u8g2_d_memory.c ****   #ifdef U8G2_USE_DYNAMIC_ALLOC
1373:..\..\..\u8g2\u8g2\csrc/u8g2_d_memory.c ****   *page_cnt = 2;
1374:..\..\..\u8g2\u8g2\csrc/u8g2_d_memory.c ****   return 0;
1375:..\..\..\u8g2\u8g2\csrc/u8g2_d_memory.c ****   #else
1376:..\..\..\u8g2\u8g2\csrc/u8g2_d_memory.c ****   static uint8_t buf[320];
1377:..\..\..\u8g2\u8g2\csrc/u8g2_d_memory.c ****   *page_cnt = 2;
 3506              		.loc 1 1377 0
 3507 0000 0223     		movs	r3, #2
 3508 0002 0370     		strb	r3, [r0]
1378:..\..\..\u8g2\u8g2\csrc/u8g2_d_memory.c ****   return buf;
1379:..\..\..\u8g2\u8g2\csrc/u8g2_d_memory.c ****   #endif
1380:..\..\..\u8g2\u8g2\csrc/u8g2_d_memory.c **** }
 3509              		.loc 1 1380 0
 3510 0004 0048     		ldr	r0, .L374
 3511              	.LVL249:
 3512 0006 7047     		bx	lr
 3513              	.L375:
 3514              		.align	2
 3515              	.L374:
 3516 0008 F8D60100 		.word	.LANCHOR24+3280
 3517              		.cfi_endproc
 3518              	.LFE124:
 3519              		.size	u8g2_m_20_12_2, .-u8g2_m_20_12_2
 3520              		.section	.text.u8g2_m_20_12_f,"ax",%progbits
 3521              		.align	1
 3522              		.global	u8g2_m_20_12_f
ARM GAS  C:\Users\jesse\AppData\Local\Temp\ccuy2FXa.s 			page 87


 3523              		.thumb
 3524              		.thumb_func
 3525              		.type	u8g2_m_20_12_f, %function
 3526              	u8g2_m_20_12_f:
 3527              	.LFB125:
1381:..\..\..\u8g2\u8g2\csrc/u8g2_d_memory.c **** uint8_t *u8g2_m_20_12_f(uint8_t *page_cnt)
1382:..\..\..\u8g2\u8g2\csrc/u8g2_d_memory.c **** {
 3528              		.loc 1 1382 0
 3529              		.cfi_startproc
 3530              		@ args = 0, pretend = 0, frame = 0
 3531              		@ frame_needed = 0, uses_anonymous_args = 0
 3532              		@ link register save eliminated.
 3533              	.LVL250:
1383:..\..\..\u8g2\u8g2\csrc/u8g2_d_memory.c ****   #ifdef U8G2_USE_DYNAMIC_ALLOC
1384:..\..\..\u8g2\u8g2\csrc/u8g2_d_memory.c ****   *page_cnt = 12;
1385:..\..\..\u8g2\u8g2\csrc/u8g2_d_memory.c ****   return 0;
1386:..\..\..\u8g2\u8g2\csrc/u8g2_d_memory.c ****   #else
1387:..\..\..\u8g2\u8g2\csrc/u8g2_d_memory.c ****   static uint8_t buf[1920];
1388:..\..\..\u8g2\u8g2\csrc/u8g2_d_memory.c ****   *page_cnt = 12;
 3534              		.loc 1 1388 0
 3535 0000 0C23     		movs	r3, #12
 3536 0002 0370     		strb	r3, [r0]
1389:..\..\..\u8g2\u8g2\csrc/u8g2_d_memory.c ****   return buf;
1390:..\..\..\u8g2\u8g2\csrc/u8g2_d_memory.c ****   #endif
1391:..\..\..\u8g2\u8g2\csrc/u8g2_d_memory.c **** }
 3537              		.loc 1 1391 0
 3538 0004 0048     		ldr	r0, .L377
 3539              	.LVL251:
 3540 0006 7047     		bx	lr
 3541              	.L378:
 3542              		.align	2
 3543              	.L377:
 3544 0008 38D80100 		.word	.LANCHOR24+3600
 3545              		.cfi_endproc
 3546              	.LFE125:
 3547              		.size	u8g2_m_20_12_f, .-u8g2_m_20_12_f
 3548              		.section	.text.u8g2_m_32_20_1,"ax",%progbits
 3549              		.align	1
 3550              		.global	u8g2_m_32_20_1
 3551              		.thumb
 3552              		.thumb_func
 3553              		.type	u8g2_m_32_20_1, %function
 3554              	u8g2_m_32_20_1:
 3555              	.LFB126:
1392:..\..\..\u8g2\u8g2\csrc/u8g2_d_memory.c **** uint8_t *u8g2_m_32_20_1(uint8_t *page_cnt)
1393:..\..\..\u8g2\u8g2\csrc/u8g2_d_memory.c **** {
 3556              		.loc 1 1393 0
 3557              		.cfi_startproc
 3558              		@ args = 0, pretend = 0, frame = 0
 3559              		@ frame_needed = 0, uses_anonymous_args = 0
 3560              		@ link register save eliminated.
 3561              	.LVL252:
1394:..\..\..\u8g2\u8g2\csrc/u8g2_d_memory.c ****   #ifdef U8G2_USE_DYNAMIC_ALLOC
1395:..\..\..\u8g2\u8g2\csrc/u8g2_d_memory.c ****   *page_cnt = 1;
1396:..\..\..\u8g2\u8g2\csrc/u8g2_d_memory.c ****   return 0;
1397:..\..\..\u8g2\u8g2\csrc/u8g2_d_memory.c ****   #else
1398:..\..\..\u8g2\u8g2\csrc/u8g2_d_memory.c ****   static uint8_t buf[256];
ARM GAS  C:\Users\jesse\AppData\Local\Temp\ccuy2FXa.s 			page 88


1399:..\..\..\u8g2\u8g2\csrc/u8g2_d_memory.c ****   *page_cnt = 1;
 3562              		.loc 1 1399 0
 3563 0000 0123     		movs	r3, #1
 3564 0002 0370     		strb	r3, [r0]
1400:..\..\..\u8g2\u8g2\csrc/u8g2_d_memory.c ****   return buf;
1401:..\..\..\u8g2\u8g2\csrc/u8g2_d_memory.c ****   #endif
1402:..\..\..\u8g2\u8g2\csrc/u8g2_d_memory.c **** }
 3565              		.loc 1 1402 0
 3566 0004 0048     		ldr	r0, .L380
 3567              	.LVL253:
 3568 0006 7047     		bx	lr
 3569              	.L381:
 3570              		.align	2
 3571              	.L380:
 3572 0008 B8DF0100 		.word	.LANCHOR25+1176
 3573              		.cfi_endproc
 3574              	.LFE126:
 3575              		.size	u8g2_m_32_20_1, .-u8g2_m_32_20_1
 3576              		.section	.text.u8g2_m_32_20_2,"ax",%progbits
 3577              		.align	1
 3578              		.global	u8g2_m_32_20_2
 3579              		.thumb
 3580              		.thumb_func
 3581              		.type	u8g2_m_32_20_2, %function
 3582              	u8g2_m_32_20_2:
 3583              	.LFB127:
1403:..\..\..\u8g2\u8g2\csrc/u8g2_d_memory.c **** uint8_t *u8g2_m_32_20_2(uint8_t *page_cnt)
1404:..\..\..\u8g2\u8g2\csrc/u8g2_d_memory.c **** {
 3584              		.loc 1 1404 0
 3585              		.cfi_startproc
 3586              		@ args = 0, pretend = 0, frame = 0
 3587              		@ frame_needed = 0, uses_anonymous_args = 0
 3588              		@ link register save eliminated.
 3589              	.LVL254:
1405:..\..\..\u8g2\u8g2\csrc/u8g2_d_memory.c ****   #ifdef U8G2_USE_DYNAMIC_ALLOC
1406:..\..\..\u8g2\u8g2\csrc/u8g2_d_memory.c ****   *page_cnt = 2;
1407:..\..\..\u8g2\u8g2\csrc/u8g2_d_memory.c ****   return 0;
1408:..\..\..\u8g2\u8g2\csrc/u8g2_d_memory.c ****   #else
1409:..\..\..\u8g2\u8g2\csrc/u8g2_d_memory.c ****   static uint8_t buf[512];
1410:..\..\..\u8g2\u8g2\csrc/u8g2_d_memory.c ****   *page_cnt = 2;
 3590              		.loc 1 1410 0
 3591 0000 0223     		movs	r3, #2
 3592 0002 0370     		strb	r3, [r0]
1411:..\..\..\u8g2\u8g2\csrc/u8g2_d_memory.c ****   return buf;
1412:..\..\..\u8g2\u8g2\csrc/u8g2_d_memory.c ****   #endif
1413:..\..\..\u8g2\u8g2\csrc/u8g2_d_memory.c **** }
 3593              		.loc 1 1413 0
 3594 0004 0048     		ldr	r0, .L383
 3595              	.LVL255:
 3596 0006 7047     		bx	lr
 3597              	.L384:
 3598              		.align	2
 3599              	.L383:
 3600 0008 B8E00100 		.word	.LANCHOR25+1432
 3601              		.cfi_endproc
 3602              	.LFE127:
 3603              		.size	u8g2_m_32_20_2, .-u8g2_m_32_20_2
ARM GAS  C:\Users\jesse\AppData\Local\Temp\ccuy2FXa.s 			page 89


 3604              		.section	.text.u8g2_m_32_20_f,"ax",%progbits
 3605              		.align	1
 3606              		.global	u8g2_m_32_20_f
 3607              		.thumb
 3608              		.thumb_func
 3609              		.type	u8g2_m_32_20_f, %function
 3610              	u8g2_m_32_20_f:
 3611              	.LFB128:
1414:..\..\..\u8g2\u8g2\csrc/u8g2_d_memory.c **** uint8_t *u8g2_m_32_20_f(uint8_t *page_cnt)
1415:..\..\..\u8g2\u8g2\csrc/u8g2_d_memory.c **** {
 3612              		.loc 1 1415 0
 3613              		.cfi_startproc
 3614              		@ args = 0, pretend = 0, frame = 0
 3615              		@ frame_needed = 0, uses_anonymous_args = 0
 3616              		@ link register save eliminated.
 3617              	.LVL256:
1416:..\..\..\u8g2\u8g2\csrc/u8g2_d_memory.c ****   #ifdef U8G2_USE_DYNAMIC_ALLOC
1417:..\..\..\u8g2\u8g2\csrc/u8g2_d_memory.c ****   *page_cnt = 20;
1418:..\..\..\u8g2\u8g2\csrc/u8g2_d_memory.c ****   return 0;
1419:..\..\..\u8g2\u8g2\csrc/u8g2_d_memory.c ****   #else
1420:..\..\..\u8g2\u8g2\csrc/u8g2_d_memory.c ****   static uint8_t buf[5120];
1421:..\..\..\u8g2\u8g2\csrc/u8g2_d_memory.c ****   *page_cnt = 20;
 3618              		.loc 1 1421 0
 3619 0000 1423     		movs	r3, #20
 3620 0002 0370     		strb	r3, [r0]
1422:..\..\..\u8g2\u8g2\csrc/u8g2_d_memory.c ****   return buf;
1423:..\..\..\u8g2\u8g2\csrc/u8g2_d_memory.c ****   #endif
1424:..\..\..\u8g2\u8g2\csrc/u8g2_d_memory.c **** }
 3621              		.loc 1 1424 0
 3622 0004 0048     		ldr	r0, .L386
 3623              	.LVL257:
 3624 0006 7047     		bx	lr
 3625              	.L387:
 3626              		.align	2
 3627              	.L386:
 3628 0008 B8E20100 		.word	.LANCHOR25+1944
 3629              		.cfi_endproc
 3630              	.LFE128:
 3631              		.size	u8g2_m_32_20_f, .-u8g2_m_32_20_f
 3632              		.section	.text.u8g2_m_22_13_1,"ax",%progbits
 3633              		.align	1
 3634              		.global	u8g2_m_22_13_1
 3635              		.thumb
 3636              		.thumb_func
 3637              		.type	u8g2_m_22_13_1, %function
 3638              	u8g2_m_22_13_1:
 3639              	.LFB129:
1425:..\..\..\u8g2\u8g2\csrc/u8g2_d_memory.c **** uint8_t *u8g2_m_22_13_1(uint8_t *page_cnt)
1426:..\..\..\u8g2\u8g2\csrc/u8g2_d_memory.c **** {
 3640              		.loc 1 1426 0
 3641              		.cfi_startproc
 3642              		@ args = 0, pretend = 0, frame = 0
 3643              		@ frame_needed = 0, uses_anonymous_args = 0
 3644              		@ link register save eliminated.
 3645              	.LVL258:
1427:..\..\..\u8g2\u8g2\csrc/u8g2_d_memory.c ****   #ifdef U8G2_USE_DYNAMIC_ALLOC
1428:..\..\..\u8g2\u8g2\csrc/u8g2_d_memory.c ****   *page_cnt = 1;
ARM GAS  C:\Users\jesse\AppData\Local\Temp\ccuy2FXa.s 			page 90


1429:..\..\..\u8g2\u8g2\csrc/u8g2_d_memory.c ****   return 0;
1430:..\..\..\u8g2\u8g2\csrc/u8g2_d_memory.c ****   #else
1431:..\..\..\u8g2\u8g2\csrc/u8g2_d_memory.c ****   static uint8_t buf[176];
1432:..\..\..\u8g2\u8g2\csrc/u8g2_d_memory.c ****   *page_cnt = 1;
 3646              		.loc 1 1432 0
 3647 0000 0123     		movs	r3, #1
 3648 0002 0370     		strb	r3, [r0]
1433:..\..\..\u8g2\u8g2\csrc/u8g2_d_memory.c ****   return buf;
1434:..\..\..\u8g2\u8g2\csrc/u8g2_d_memory.c ****   #endif
1435:..\..\..\u8g2\u8g2\csrc/u8g2_d_memory.c **** }
 3649              		.loc 1 1435 0
 3650 0004 0048     		ldr	r0, .L389
 3651              	.LVL259:
 3652 0006 7047     		bx	lr
 3653              	.L390:
 3654              		.align	2
 3655              	.L389:
 3656 0008 B8F60100 		.word	.LANCHOR26+2720
 3657              		.cfi_endproc
 3658              	.LFE129:
 3659              		.size	u8g2_m_22_13_1, .-u8g2_m_22_13_1
 3660              		.section	.text.u8g2_m_22_13_2,"ax",%progbits
 3661              		.align	1
 3662              		.global	u8g2_m_22_13_2
 3663              		.thumb
 3664              		.thumb_func
 3665              		.type	u8g2_m_22_13_2, %function
 3666              	u8g2_m_22_13_2:
 3667              	.LFB130:
1436:..\..\..\u8g2\u8g2\csrc/u8g2_d_memory.c **** uint8_t *u8g2_m_22_13_2(uint8_t *page_cnt)
1437:..\..\..\u8g2\u8g2\csrc/u8g2_d_memory.c **** {
 3668              		.loc 1 1437 0
 3669              		.cfi_startproc
 3670              		@ args = 0, pretend = 0, frame = 0
 3671              		@ frame_needed = 0, uses_anonymous_args = 0
 3672              		@ link register save eliminated.
 3673              	.LVL260:
1438:..\..\..\u8g2\u8g2\csrc/u8g2_d_memory.c ****   #ifdef U8G2_USE_DYNAMIC_ALLOC
1439:..\..\..\u8g2\u8g2\csrc/u8g2_d_memory.c ****   *page_cnt = 2;
1440:..\..\..\u8g2\u8g2\csrc/u8g2_d_memory.c ****   return 0;
1441:..\..\..\u8g2\u8g2\csrc/u8g2_d_memory.c ****   #else
1442:..\..\..\u8g2\u8g2\csrc/u8g2_d_memory.c ****   static uint8_t buf[352];
1443:..\..\..\u8g2\u8g2\csrc/u8g2_d_memory.c ****   *page_cnt = 2;
 3674              		.loc 1 1443 0
 3675 0000 0223     		movs	r3, #2
 3676 0002 0370     		strb	r3, [r0]
1444:..\..\..\u8g2\u8g2\csrc/u8g2_d_memory.c ****   return buf;
1445:..\..\..\u8g2\u8g2\csrc/u8g2_d_memory.c ****   #endif
1446:..\..\..\u8g2\u8g2\csrc/u8g2_d_memory.c **** }
 3677              		.loc 1 1446 0
 3678 0004 0048     		ldr	r0, .L392
 3679              	.LVL261:
 3680 0006 7047     		bx	lr
 3681              	.L393:
 3682              		.align	2
 3683              	.L392:
 3684 0008 68F70100 		.word	.LANCHOR26+2896
ARM GAS  C:\Users\jesse\AppData\Local\Temp\ccuy2FXa.s 			page 91


 3685              		.cfi_endproc
 3686              	.LFE130:
 3687              		.size	u8g2_m_22_13_2, .-u8g2_m_22_13_2
 3688              		.section	.text.u8g2_m_22_13_f,"ax",%progbits
 3689              		.align	1
 3690              		.global	u8g2_m_22_13_f
 3691              		.thumb
 3692              		.thumb_func
 3693              		.type	u8g2_m_22_13_f, %function
 3694              	u8g2_m_22_13_f:
 3695              	.LFB131:
1447:..\..\..\u8g2\u8g2\csrc/u8g2_d_memory.c **** uint8_t *u8g2_m_22_13_f(uint8_t *page_cnt)
1448:..\..\..\u8g2\u8g2\csrc/u8g2_d_memory.c **** {
 3696              		.loc 1 1448 0
 3697              		.cfi_startproc
 3698              		@ args = 0, pretend = 0, frame = 0
 3699              		@ frame_needed = 0, uses_anonymous_args = 0
 3700              		@ link register save eliminated.
 3701              	.LVL262:
1449:..\..\..\u8g2\u8g2\csrc/u8g2_d_memory.c ****   #ifdef U8G2_USE_DYNAMIC_ALLOC
1450:..\..\..\u8g2\u8g2\csrc/u8g2_d_memory.c ****   *page_cnt = 13;
1451:..\..\..\u8g2\u8g2\csrc/u8g2_d_memory.c ****   return 0;
1452:..\..\..\u8g2\u8g2\csrc/u8g2_d_memory.c ****   #else
1453:..\..\..\u8g2\u8g2\csrc/u8g2_d_memory.c ****   static uint8_t buf[2288];
1454:..\..\..\u8g2\u8g2\csrc/u8g2_d_memory.c ****   *page_cnt = 13;
 3702              		.loc 1 1454 0
 3703 0000 0D23     		movs	r3, #13
 3704 0002 0370     		strb	r3, [r0]
1455:..\..\..\u8g2\u8g2\csrc/u8g2_d_memory.c ****   return buf;
1456:..\..\..\u8g2\u8g2\csrc/u8g2_d_memory.c ****   #endif
1457:..\..\..\u8g2\u8g2\csrc/u8g2_d_memory.c **** }
 3705              		.loc 1 1457 0
 3706 0004 0048     		ldr	r0, .L395
 3707              	.LVL263:
 3708 0006 7047     		bx	lr
 3709              	.L396:
 3710              		.align	2
 3711              	.L395:
 3712 0008 C8F80100 		.word	.LANCHOR26+3248
 3713              		.cfi_endproc
 3714              	.LFE131:
 3715              		.size	u8g2_m_22_13_f, .-u8g2_m_22_13_f
 3716              		.section	.text.u8g2_m_19_4_1,"ax",%progbits
 3717              		.align	1
 3718              		.global	u8g2_m_19_4_1
 3719              		.thumb
 3720              		.thumb_func
 3721              		.type	u8g2_m_19_4_1, %function
 3722              	u8g2_m_19_4_1:
 3723              	.LFB132:
1458:..\..\..\u8g2\u8g2\csrc/u8g2_d_memory.c **** uint8_t *u8g2_m_19_4_1(uint8_t *page_cnt)
1459:..\..\..\u8g2\u8g2\csrc/u8g2_d_memory.c **** {
 3724              		.loc 1 1459 0
 3725              		.cfi_startproc
 3726              		@ args = 0, pretend = 0, frame = 0
 3727              		@ frame_needed = 0, uses_anonymous_args = 0
 3728              		@ link register save eliminated.
ARM GAS  C:\Users\jesse\AppData\Local\Temp\ccuy2FXa.s 			page 92


 3729              	.LVL264:
1460:..\..\..\u8g2\u8g2\csrc/u8g2_d_memory.c ****   #ifdef U8G2_USE_DYNAMIC_ALLOC
1461:..\..\..\u8g2\u8g2\csrc/u8g2_d_memory.c ****   *page_cnt = 1;
1462:..\..\..\u8g2\u8g2\csrc/u8g2_d_memory.c ****   return 0;
1463:..\..\..\u8g2\u8g2\csrc/u8g2_d_memory.c ****   #else
1464:..\..\..\u8g2\u8g2\csrc/u8g2_d_memory.c ****   static uint8_t buf[152];
1465:..\..\..\u8g2\u8g2\csrc/u8g2_d_memory.c ****   *page_cnt = 1;
 3730              		.loc 1 1465 0
 3731 0000 0123     		movs	r3, #1
 3732 0002 0370     		strb	r3, [r0]
1466:..\..\..\u8g2\u8g2\csrc/u8g2_d_memory.c ****   return buf;
1467:..\..\..\u8g2\u8g2\csrc/u8g2_d_memory.c ****   #endif
1468:..\..\..\u8g2\u8g2\csrc/u8g2_d_memory.c **** }
 3733              		.loc 1 1468 0
 3734 0004 0048     		ldr	r0, .L398
 3735              	.LVL265:
 3736 0006 7047     		bx	lr
 3737              	.L399:
 3738              		.align	2
 3739              	.L398:
 3740 0008 B8010200 		.word	.LANCHOR27+1192
 3741              		.cfi_endproc
 3742              	.LFE132:
 3743              		.size	u8g2_m_19_4_1, .-u8g2_m_19_4_1
 3744              		.section	.text.u8g2_m_19_4_2,"ax",%progbits
 3745              		.align	1
 3746              		.global	u8g2_m_19_4_2
 3747              		.thumb
 3748              		.thumb_func
 3749              		.type	u8g2_m_19_4_2, %function
 3750              	u8g2_m_19_4_2:
 3751              	.LFB133:
1469:..\..\..\u8g2\u8g2\csrc/u8g2_d_memory.c **** uint8_t *u8g2_m_19_4_2(uint8_t *page_cnt)
1470:..\..\..\u8g2\u8g2\csrc/u8g2_d_memory.c **** {
 3752              		.loc 1 1470 0
 3753              		.cfi_startproc
 3754              		@ args = 0, pretend = 0, frame = 0
 3755              		@ frame_needed = 0, uses_anonymous_args = 0
 3756              		@ link register save eliminated.
 3757              	.LVL266:
1471:..\..\..\u8g2\u8g2\csrc/u8g2_d_memory.c ****   #ifdef U8G2_USE_DYNAMIC_ALLOC
1472:..\..\..\u8g2\u8g2\csrc/u8g2_d_memory.c ****   *page_cnt = 2;
1473:..\..\..\u8g2\u8g2\csrc/u8g2_d_memory.c ****   return 0;
1474:..\..\..\u8g2\u8g2\csrc/u8g2_d_memory.c ****   #else
1475:..\..\..\u8g2\u8g2\csrc/u8g2_d_memory.c ****   static uint8_t buf[304];
1476:..\..\..\u8g2\u8g2\csrc/u8g2_d_memory.c ****   *page_cnt = 2;
 3758              		.loc 1 1476 0
 3759 0000 0223     		movs	r3, #2
 3760 0002 0370     		strb	r3, [r0]
1477:..\..\..\u8g2\u8g2\csrc/u8g2_d_memory.c ****   return buf;
1478:..\..\..\u8g2\u8g2\csrc/u8g2_d_memory.c ****   #endif
1479:..\..\..\u8g2\u8g2\csrc/u8g2_d_memory.c **** }
 3761              		.loc 1 1479 0
 3762 0004 0048     		ldr	r0, .L401
 3763              	.LVL267:
 3764 0006 7047     		bx	lr
 3765              	.L402:
ARM GAS  C:\Users\jesse\AppData\Local\Temp\ccuy2FXa.s 			page 93


 3766              		.align	2
 3767              	.L401:
 3768 0008 50020200 		.word	.LANCHOR27+1344
 3769              		.cfi_endproc
 3770              	.LFE133:
 3771              		.size	u8g2_m_19_4_2, .-u8g2_m_19_4_2
 3772              		.section	.text.u8g2_m_19_4_f,"ax",%progbits
 3773              		.align	1
 3774              		.global	u8g2_m_19_4_f
 3775              		.thumb
 3776              		.thumb_func
 3777              		.type	u8g2_m_19_4_f, %function
 3778              	u8g2_m_19_4_f:
 3779              	.LFB134:
1480:..\..\..\u8g2\u8g2\csrc/u8g2_d_memory.c **** uint8_t *u8g2_m_19_4_f(uint8_t *page_cnt)
1481:..\..\..\u8g2\u8g2\csrc/u8g2_d_memory.c **** {
 3780              		.loc 1 1481 0
 3781              		.cfi_startproc
 3782              		@ args = 0, pretend = 0, frame = 0
 3783              		@ frame_needed = 0, uses_anonymous_args = 0
 3784              		@ link register save eliminated.
 3785              	.LVL268:
1482:..\..\..\u8g2\u8g2\csrc/u8g2_d_memory.c ****   #ifdef U8G2_USE_DYNAMIC_ALLOC
1483:..\..\..\u8g2\u8g2\csrc/u8g2_d_memory.c ****   *page_cnt = 4;
1484:..\..\..\u8g2\u8g2\csrc/u8g2_d_memory.c ****   return 0;
1485:..\..\..\u8g2\u8g2\csrc/u8g2_d_memory.c ****   #else
1486:..\..\..\u8g2\u8g2\csrc/u8g2_d_memory.c ****   static uint8_t buf[608];
1487:..\..\..\u8g2\u8g2\csrc/u8g2_d_memory.c ****   *page_cnt = 4;
 3786              		.loc 1 1487 0
 3787 0000 0423     		movs	r3, #4
 3788 0002 0370     		strb	r3, [r0]
1488:..\..\..\u8g2\u8g2\csrc/u8g2_d_memory.c ****   return buf;
1489:..\..\..\u8g2\u8g2\csrc/u8g2_d_memory.c ****   #endif
1490:..\..\..\u8g2\u8g2\csrc/u8g2_d_memory.c **** }
 3789              		.loc 1 1490 0
 3790 0004 0048     		ldr	r0, .L404
 3791              	.LVL269:
 3792 0006 7047     		bx	lr
 3793              	.L405:
 3794              		.align	2
 3795              	.L404:
 3796 0008 80030200 		.word	.LANCHOR27+1648
 3797              		.cfi_endproc
 3798              	.LFE134:
 3799              		.size	u8g2_m_19_4_f, .-u8g2_m_19_4_f
 3800              		.section	.text.u8g2_m_20_10_1,"ax",%progbits
 3801              		.align	1
 3802              		.global	u8g2_m_20_10_1
 3803              		.thumb
 3804              		.thumb_func
 3805              		.type	u8g2_m_20_10_1, %function
 3806              	u8g2_m_20_10_1:
 3807              	.LFB135:
1491:..\..\..\u8g2\u8g2\csrc/u8g2_d_memory.c **** uint8_t *u8g2_m_20_10_1(uint8_t *page_cnt)
