ARM GAS  C:\Users\jesse\AppData\Local\Temp\ccJKz6l3.s 			page 1


   1              		.syntax unified
   2              		.cpu cortex-m3
   3              		.fpu softvfp
   4              		.eabi_attribute 20, 1
   5              		.eabi_attribute 21, 1
   6              		.eabi_attribute 23, 3
   7              		.eabi_attribute 24, 1
   8              		.eabi_attribute 25, 1
   9              		.eabi_attribute 26, 1
  10              		.eabi_attribute 30, 4
  11              		.eabi_attribute 34, 1
  12              		.eabi_attribute 18, 4
  13              		.thumb
  14              		.syntax unified
  15              		.file	"u8g2_button.c"
  16              		.text
  17              	.Ltext0:
  18              		.cfi_sections	.debug_frame
  19              		.section	.text.u8g2_DrawButtonFrame,"ax",%progbits
  20              		.align	1
  21              		.global	u8g2_DrawButtonFrame
  22              		.thumb
  23              		.thumb_func
  24              		.type	u8g2_DrawButtonFrame, %function
  25              	u8g2_DrawButtonFrame:
  26              	.LFB0:
  27              		.file 1 "..\\..\\..\\u8g2\\u8g2\\csrc\\u8g2_button.c"
   1:..\..\..\u8g2\u8g2\csrc/u8g2_button.c **** /*
   2:..\..\..\u8g2\u8g2\csrc/u8g2_button.c **** 
   3:..\..\..\u8g2\u8g2\csrc/u8g2_button.c ****   u8g2_button.c
   4:..\..\..\u8g2\u8g2\csrc/u8g2_button.c **** 
   5:..\..\..\u8g2\u8g2\csrc/u8g2_button.c ****   Universal 8bit Graphics Library (https://github.com/olikraus/u8g2/)
   6:..\..\..\u8g2\u8g2\csrc/u8g2_button.c **** 
   7:..\..\..\u8g2\u8g2\csrc/u8g2_button.c ****   Copyright (c) 2016, olikraus@gmail.com
   8:..\..\..\u8g2\u8g2\csrc/u8g2_button.c ****   All rights reserved.
   9:..\..\..\u8g2\u8g2\csrc/u8g2_button.c **** 
  10:..\..\..\u8g2\u8g2\csrc/u8g2_button.c ****   Redistribution and use in source and binary forms, with or without modification, 
  11:..\..\..\u8g2\u8g2\csrc/u8g2_button.c ****   are permitted provided that the following conditions are met:
  12:..\..\..\u8g2\u8g2\csrc/u8g2_button.c **** 
  13:..\..\..\u8g2\u8g2\csrc/u8g2_button.c ****   * Redistributions of source code must retain the above copyright notice, this list 
  14:..\..\..\u8g2\u8g2\csrc/u8g2_button.c ****     of conditions and the following disclaimer.
  15:..\..\..\u8g2\u8g2\csrc/u8g2_button.c ****     
  16:..\..\..\u8g2\u8g2\csrc/u8g2_button.c ****   * Redistributions in binary form must reproduce the above copyright notice, this 
  17:..\..\..\u8g2\u8g2\csrc/u8g2_button.c ****     list of conditions and the following disclaimer in the documentation and/or other 
  18:..\..\..\u8g2\u8g2\csrc/u8g2_button.c ****     materials provided with the distribution.
  19:..\..\..\u8g2\u8g2\csrc/u8g2_button.c **** 
  20:..\..\..\u8g2\u8g2\csrc/u8g2_button.c ****   THIS SOFTWARE IS PROVIDED BY THE COPYRIGHT HOLDERS AND 
  21:..\..\..\u8g2\u8g2\csrc/u8g2_button.c ****   CONTRIBUTORS "AS IS" AND ANY EXPRESS OR IMPLIED WARRANTIES, 
  22:..\..\..\u8g2\u8g2\csrc/u8g2_button.c ****   INCLUDING, BUT NOT LIMITED TO, THE IMPLIED WARRANTIES OF 
  23:..\..\..\u8g2\u8g2\csrc/u8g2_button.c ****   MERCHANTABILITY AND FITNESS FOR A PARTICULAR PURPOSE ARE 
  24:..\..\..\u8g2\u8g2\csrc/u8g2_button.c ****   DISCLAIMED. IN NO EVENT SHALL THE COPYRIGHT HOLDER OR 
  25:..\..\..\u8g2\u8g2\csrc/u8g2_button.c ****   CONTRIBUTORS BE LIABLE FOR ANY DIRECT, INDIRECT, INCIDENTAL, 
  26:..\..\..\u8g2\u8g2\csrc/u8g2_button.c ****   SPECIAL, EXEMPLARY, OR CONSEQUENTIAL DAMAGES (INCLUDING, BUT 
  27:..\..\..\u8g2\u8g2\csrc/u8g2_button.c ****   NOT LIMITED TO, PROCUREMENT OF SUBSTITUTE GOODS OR SERVICES; 
  28:..\..\..\u8g2\u8g2\csrc/u8g2_button.c ****   LOSS OF USE, DATA, OR PROFITS; OR BUSINESS INTERRUPTION) HOWEVER 
  29:..\..\..\u8g2\u8g2\csrc/u8g2_button.c ****   CAUSED AND ON ANY THEORY OF LIABILITY, WHETHER IN CONTRACT, 
  30:..\..\..\u8g2\u8g2\csrc/u8g2_button.c ****   STRICT LIABILITY, OR TORT (INCLUDING NEGLIGENCE OR OTHERWISE) 
ARM GAS  C:\Users\jesse\AppData\Local\Temp\ccJKz6l3.s 			page 2


  31:..\..\..\u8g2\u8g2\csrc/u8g2_button.c ****   ARISING IN ANY WAY OUT OF THE USE OF THIS SOFTWARE, EVEN IF 
  32:..\..\..\u8g2\u8g2\csrc/u8g2_button.c ****   ADVISED OF THE POSSIBILITY OF SUCH DAMAGE.  
  33:..\..\..\u8g2\u8g2\csrc/u8g2_button.c **** 
  34:..\..\..\u8g2\u8g2\csrc/u8g2_button.c **** */
  35:..\..\..\u8g2\u8g2\csrc/u8g2_button.c **** 
  36:..\..\..\u8g2\u8g2\csrc/u8g2_button.c **** #include "u8g2.h"
  37:..\..\..\u8g2\u8g2\csrc/u8g2_button.c **** 
  38:..\..\..\u8g2\u8g2\csrc/u8g2_button.c **** 
  39:..\..\..\u8g2\u8g2\csrc/u8g2_button.c **** /*
  40:..\..\..\u8g2\u8g2\csrc/u8g2_button.c **** 
  41:..\..\..\u8g2\u8g2\csrc/u8g2_button.c ****   Description: 
  42:..\..\..\u8g2\u8g2\csrc/u8g2_button.c ****     Draws normal or inverted text with optional frame around text.
  43:..\..\..\u8g2\u8g2\csrc/u8g2_button.c ****     The text (and the frame) can be horizontally centered around the provided reference position.
  44:..\..\..\u8g2\u8g2\csrc/u8g2_button.c ****     This procedure will use the current draw color and current font. The height of the frame
  45:..\..\..\u8g2\u8g2\csrc/u8g2_button.c ****     depends on the setting of setFontRefHeightText(), setFontRefHeightExtendedText() or setFontRefH
  46:..\..\..\u8g2\u8g2\csrc/u8g2_button.c **** 
  47:..\..\..\u8g2\u8g2\csrc/u8g2_button.c **** 
  48:..\..\..\u8g2\u8g2\csrc/u8g2_button.c ****   Note 1: drawColor 2 (XOR) is not supported. Result will be broken with draw color 2.
  49:..\..\..\u8g2\u8g2\csrc/u8g2_button.c ****   Note 2: This procedure will enforce font mode 1 (transparent mode)
  50:..\..\..\u8g2\u8g2\csrc/u8g2_button.c ****   Note 3: Some fonts may add an extra gap on the right side. This is a font problem and can not be 
  51:..\..\..\u8g2\u8g2\csrc/u8g2_button.c ****   
  52:..\..\..\u8g2\u8g2\csrc/u8g2_button.c **** 
  53:..\..\..\u8g2\u8g2\csrc/u8g2_button.c ****   The height of the button is defined by the current font and
  54:..\..\..\u8g2\u8g2\csrc/u8g2_button.c ****     setFontRefHeightText,
  55:..\..\..\u8g2\u8g2\csrc/u8g2_button.c ****     setFontRefHeightExtendedText
  56:..\..\..\u8g2\u8g2\csrc/u8g2_button.c ****     setFontRefHeightAll
  57:..\..\..\u8g2\u8g2\csrc/u8g2_button.c ****   Right padding might be influenced by the font.
  58:..\..\..\u8g2\u8g2\csrc/u8g2_button.c ****   For example u8g2_font_inb16 may add an extra pixel gap (increase padding by one) 
  59:..\..\..\u8g2\u8g2\csrc/u8g2_button.c ****   on the right side.
  60:..\..\..\u8g2\u8g2\csrc/u8g2_button.c ****   The current draw color is considered, but only draw color 0 and 1 are supported
  61:..\..\..\u8g2\u8g2\csrc/u8g2_button.c ****   
  62:..\..\..\u8g2\u8g2\csrc/u8g2_button.c ****   This function requires transparent font mode: setFontMode(1)
  63:..\..\..\u8g2\u8g2\csrc/u8g2_button.c ****   
  64:..\..\..\u8g2\u8g2\csrc/u8g2_button.c ****   Side effect: Font transparent mode is enabled setFontMode(1)
  65:..\..\..\u8g2\u8g2\csrc/u8g2_button.c **** 
  66:..\..\..\u8g2\u8g2\csrc/u8g2_button.c **** */
  67:..\..\..\u8g2\u8g2\csrc/u8g2_button.c **** 
  68:..\..\..\u8g2\u8g2\csrc/u8g2_button.c **** 
  69:..\..\..\u8g2\u8g2\csrc/u8g2_button.c **** 
  70:..\..\..\u8g2\u8g2\csrc/u8g2_button.c **** /*
  71:..\..\..\u8g2\u8g2\csrc/u8g2_button.c **** 
  72:..\..\..\u8g2\u8g2\csrc/u8g2_button.c ****   flags:
  73:..\..\..\u8g2\u8g2\csrc/u8g2_button.c **** 
  74:..\..\..\u8g2\u8g2\csrc/u8g2_button.c ****     U8G2_BTN_BW1 0x01
  75:..\..\..\u8g2\u8g2\csrc/u8g2_button.c ****     U8G2_BTN_BW2 0x02
  76:..\..\..\u8g2\u8g2\csrc/u8g2_button.c ****     U8G2_BTN_BW3 0x03
  77:..\..\..\u8g2\u8g2\csrc/u8g2_button.c **** 
  78:..\..\..\u8g2\u8g2\csrc/u8g2_button.c **** 
  79:..\..\..\u8g2\u8g2\csrc/u8g2_button.c ****     U8G2_BTN_SHADOW0 0x08
  80:..\..\..\u8g2\u8g2\csrc/u8g2_button.c ****     U8G2_BTN_SHADOW1 0x10
  81:..\..\..\u8g2\u8g2\csrc/u8g2_button.c ****     U8G2_BTN_SHADOW2 0x18
  82:..\..\..\u8g2\u8g2\csrc/u8g2_button.c **** 
  83:..\..\..\u8g2\u8g2\csrc/u8g2_button.c ****     U8G2_BTN_INV 0x20
  84:..\..\..\u8g2\u8g2\csrc/u8g2_button.c **** 
  85:..\..\..\u8g2\u8g2\csrc/u8g2_button.c ****     U8G2_BTN_HCENTER 0x40
  86:..\..\..\u8g2\u8g2\csrc/u8g2_button.c **** 
  87:..\..\..\u8g2\u8g2\csrc/u8g2_button.c ****     U8G2_BTN_XFRAME 0x80
ARM GAS  C:\Users\jesse\AppData\Local\Temp\ccJKz6l3.s 			page 3


  88:..\..\..\u8g2\u8g2\csrc/u8g2_button.c **** 
  89:..\..\..\u8g2\u8g2\csrc/u8g2_button.c ****   Total size without shadow: width+2*padding_h+2*border
  90:..\..\..\u8g2\u8g2\csrc/u8g2_button.c ****   Total size with U8G2_BTN_SHADOW0: width+2*padding_h+3*border
  91:..\..\..\u8g2\u8g2\csrc/u8g2_button.c ****   Total size with U8G2_BTN_SHADOW1: width+2*padding_h+3*border+1
  92:..\..\..\u8g2\u8g2\csrc/u8g2_button.c ****   Total size with U8G2_BTN_SHADOW2: width+2*padding_h+3*border+2
  93:..\..\..\u8g2\u8g2\csrc/u8g2_button.c ****   
  94:..\..\..\u8g2\u8g2\csrc/u8g2_button.c ****   U8G2_BTN_XFRAME:
  95:..\..\..\u8g2\u8g2\csrc/u8g2_button.c ****     draw another one pixel frame with one pixel gap, will not look good with shadow
  96:..\..\..\u8g2\u8g2\csrc/u8g2_button.c **** */
  97:..\..\..\u8g2\u8g2\csrc/u8g2_button.c **** 
  98:..\..\..\u8g2\u8g2\csrc/u8g2_button.c **** void u8g2_DrawButtonFrame(u8g2_t *u8g2, u8g2_uint_t x, u8g2_uint_t y, u8g2_uint_t flags, u8g2_uint_
  99:..\..\..\u8g2\u8g2\csrc/u8g2_button.c **** {
  28              		.loc 1 99 0
  29              		.cfi_startproc
  30              		@ args = 12, pretend = 0, frame = 72
  31              		@ frame_needed = 0, uses_anonymous_args = 0
  32              	.LVL0:
  33 0000 2DE9F04F 		push	{r4, r5, r6, r7, r8, r9, r10, fp, lr}
  34              		.cfi_def_cfa_offset 36
  35              		.cfi_offset 4, -36
  36              		.cfi_offset 5, -32
  37              		.cfi_offset 6, -28
  38              		.cfi_offset 7, -24
  39              		.cfi_offset 8, -20
  40              		.cfi_offset 9, -16
  41              		.cfi_offset 10, -12
  42              		.cfi_offset 11, -8
  43              		.cfi_offset 14, -4
  44 0004 95B0     		sub	sp, sp, #84
  45              		.cfi_def_cfa_offset 120
  46              	.LVL1:
  47              		.loc 1 99 0
  48 0006 0493     		str	r3, [sp, #16]
  49 0008 BDF87830 		ldrh	r3, [sp, #120]
  50              	.LVL2:
  51 000c 1292     		str	r2, [sp, #72]
  52 000e 0893     		str	r3, [sp, #32]
  53              	.LVL3:
  54 0010 BDF88030 		ldrh	r3, [sp, #128]
  55 0014 BDF87C20 		ldrh	r2, [sp, #124]
  56              	.LVL4:
  57 0018 0993     		str	r3, [sp, #36]
 100:..\..\..\u8g2\u8g2\csrc/u8g2_button.c ****   u8g2_uint_t w = text_width;
 101:..\..\..\u8g2\u8g2\csrc/u8g2_button.c ****   
 102:..\..\..\u8g2\u8g2\csrc/u8g2_button.c ****   u8g2_uint_t xx, yy, ww, hh;
 103:..\..\..\u8g2\u8g2\csrc/u8g2_button.c ****   
 104:..\..\..\u8g2\u8g2\csrc/u8g2_button.c ****   u8g2_uint_t gap_frame = U8G2_BTN_BW_MASK+1;
 105:..\..\..\u8g2\u8g2\csrc/u8g2_button.c ****     
 106:..\..\..\u8g2\u8g2\csrc/u8g2_button.c ****   u8g2_uint_t border_width = flags & U8G2_BTN_BW_MASK;
  58              		.loc 1 106 0
  59 001a 049B     		ldr	r3, [sp, #16]
  99:..\..\..\u8g2\u8g2\csrc/u8g2_button.c ****   u8g2_uint_t w = text_width;
  60              		.loc 1 99 0
  61 001c 0446     		mov	r4, r0
  62              		.loc 1 106 0
  63 001e 03F00703 		and	r3, r3, #7
  64 0022 0593     		str	r3, [sp, #20]
ARM GAS  C:\Users\jesse\AppData\Local\Temp\ccJKz6l3.s 			page 4


  65              	.LVL5:
 107:..\..\..\u8g2\u8g2\csrc/u8g2_button.c **** 
 108:..\..\..\u8g2\u8g2\csrc/u8g2_button.c ****   int8_t a = u8g2_GetAscent(u8g2);
  66              		.loc 1 108 0
  67 0024 90F98E30 		ldrsb	r3, [r0, #142]
 109:..\..\..\u8g2\u8g2\csrc/u8g2_button.c ****   int8_t d = u8g2_GetDescent(u8g2);
 110:..\..\..\u8g2\u8g2\csrc/u8g2_button.c ****   
 111:..\..\..\u8g2\u8g2\csrc/u8g2_button.c ****   uint8_t color_backup = u8g2->draw_color;
 112:..\..\..\u8g2\u8g2\csrc/u8g2_button.c ****   
 113:..\..\..\u8g2\u8g2\csrc/u8g2_button.c ****   
 114:..\..\..\u8g2\u8g2\csrc/u8g2_button.c ****   if ( flags & U8G2_BTN_XFRAME )
 115:..\..\..\u8g2\u8g2\csrc/u8g2_button.c ****   {
 116:..\..\..\u8g2\u8g2\csrc/u8g2_button.c ****     border_width++;
 117:..\..\..\u8g2\u8g2\csrc/u8g2_button.c ****     gap_frame = border_width;
 118:..\..\..\u8g2\u8g2\csrc/u8g2_button.c ****     border_width++;
 119:..\..\..\u8g2\u8g2\csrc/u8g2_button.c ****   }
 120:..\..\..\u8g2\u8g2\csrc/u8g2_button.c ****   
 121:..\..\..\u8g2\u8g2\csrc/u8g2_button.c **** 
 122:..\..\..\u8g2\u8g2\csrc/u8g2_button.c ****   
 123:..\..\..\u8g2\u8g2\csrc/u8g2_button.c ****   for(;;)
 124:..\..\..\u8g2\u8g2\csrc/u8g2_button.c ****   {
 125:..\..\..\u8g2\u8g2\csrc/u8g2_button.c **** 
 126:..\..\..\u8g2\u8g2\csrc/u8g2_button.c ****     xx = x;
 127:..\..\..\u8g2\u8g2\csrc/u8g2_button.c ****     xx -= padding_h;
  68              		.loc 1 127 0
  69 0028 891A     		subs	r1, r1, r2
  70              	.LVL6:
 108:..\..\..\u8g2\u8g2\csrc/u8g2_button.c ****   int8_t d = u8g2_GetDescent(u8g2);
  71              		.loc 1 108 0
  72 002a 0B93     		str	r3, [sp, #44]
  73              	.LVL7:
 109:..\..\..\u8g2\u8g2\csrc/u8g2_button.c ****   int8_t d = u8g2_GetDescent(u8g2);
  74              		.loc 1 109 0
  75 002c 90F98F30 		ldrsb	r3, [r0, #143]
  76 0030 0C93     		str	r3, [sp, #48]
  77              	.LVL8:
 111:..\..\..\u8g2\u8g2\csrc/u8g2_button.c ****   
  78              		.loc 1 111 0
  79 0032 90F89230 		ldrb	r3, [r0, #146]	@ zero_extendqisi2
  80 0036 0793     		str	r3, [sp, #28]
  81              	.LVL9:
 114:..\..\..\u8g2\u8g2\csrc/u8g2_button.c ****   {
  82              		.loc 1 114 0
  83 0038 049B     		ldr	r3, [sp, #16]
  84 003a 13F0800F 		tst	r3, #128
 116:..\..\..\u8g2\u8g2\csrc/u8g2_button.c ****     gap_frame = border_width;
  85              		.loc 1 116 0
  86 003e 059B     		ldr	r3, [sp, #20]
  87 0040 1DBF     		ittte	ne
  88 0042 0133     		addne	r3, r3, #1
  89 0044 0D93     		strne	r3, [sp, #52]
  90              	.LVL10:
 118:..\..\..\u8g2\u8g2\csrc/u8g2_button.c ****   }
  91              		.loc 1 118 0
  92 0046 059B     		ldrne	r3, [sp, #20]
 106:..\..\..\u8g2\u8g2\csrc/u8g2_button.c **** 
  93              		.loc 1 106 0
ARM GAS  C:\Users\jesse\AppData\Local\Temp\ccJKz6l3.s 			page 5


  94 0048 0393     		streq	r3, [sp, #12]
 118:..\..\..\u8g2\u8g2\csrc/u8g2_button.c ****   }
  95              		.loc 1 118 0
  96 004a 15BF     		itete	ne
  97 004c 0233     		addne	r3, r3, #2
 104:..\..\..\u8g2\u8g2\csrc/u8g2_button.c ****     
  98              		.loc 1 104 0
  99 004e 0823     		moveq	r3, #8
 118:..\..\..\u8g2\u8g2\csrc/u8g2_button.c ****   }
 100              		.loc 1 118 0
 101 0050 0393     		strne	r3, [sp, #12]
 102              	.LVL11:
 104:..\..\..\u8g2\u8g2\csrc/u8g2_button.c ****     
 103              		.loc 1 104 0
 104 0052 0D93     		streq	r3, [sp, #52]
 105              	.LVL12:
 106              	.LBB2:
 128:..\..\..\u8g2\u8g2\csrc/u8g2_button.c ****     xx -= border_width;
 129:..\..\..\u8g2\u8g2\csrc/u8g2_button.c ****     ww = w+2*padding_h+2*border_width;
 130:..\..\..\u8g2\u8g2\csrc/u8g2_button.c ****     
 131:..\..\..\u8g2\u8g2\csrc/u8g2_button.c ****     yy = y;
 132:..\..\..\u8g2\u8g2\csrc/u8g2_button.c ****     yy += u8g2->font_calc_vref(u8g2);
 133:..\..\..\u8g2\u8g2\csrc/u8g2_button.c ****     yy -= a;
 134:..\..\..\u8g2\u8g2\csrc/u8g2_button.c ****     yy -= padding_v;
 135:..\..\..\u8g2\u8g2\csrc/u8g2_button.c ****     yy -= border_width;
 136:..\..\..\u8g2\u8g2\csrc/u8g2_button.c ****     hh = a-d+2*padding_v+2*border_width;
 137:..\..\..\u8g2\u8g2\csrc/u8g2_button.c ****     if ( border_width == 0 )
 138:..\..\..\u8g2\u8g2\csrc/u8g2_button.c ****       break;
 139:..\..\..\u8g2\u8g2\csrc/u8g2_button.c ****     if ( border_width == gap_frame )
 140:..\..\..\u8g2\u8g2\csrc/u8g2_button.c ****     {
 141:..\..\..\u8g2\u8g2\csrc/u8g2_button.c ****       u8g2_SetDrawColor(u8g2, color_backup == 0 ? 1 : 0);
 142:..\..\..\u8g2\u8g2\csrc/u8g2_button.c ****     }
 143:..\..\..\u8g2\u8g2\csrc/u8g2_button.c ****     u8g2_DrawFrame(u8g2, xx, yy, ww, hh);
 144:..\..\..\u8g2\u8g2\csrc/u8g2_button.c ****     u8g2_SetDrawColor(u8g2, color_backup);
 145:..\..\..\u8g2\u8g2\csrc/u8g2_button.c ****     
 146:..\..\..\u8g2\u8g2\csrc/u8g2_button.c ****     if ( flags & U8G2_BTN_SHADOW_MASK )
 147:..\..\..\u8g2\u8g2\csrc/u8g2_button.c ****     {
 148:..\..\..\u8g2\u8g2\csrc/u8g2_button.c ****       if ( border_width == (flags & U8G2_BTN_BW_MASK) )
 149:..\..\..\u8g2\u8g2\csrc/u8g2_button.c ****       {
 150:..\..\..\u8g2\u8g2\csrc/u8g2_button.c ****         u8g2_uint_t i;
 151:..\..\..\u8g2\u8g2\csrc/u8g2_button.c ****         u8g2_uint_t shadow_gap = (flags & U8G2_BTN_SHADOW_MASK) >> U8G2_BTN_SHADOW_POS;
 107              		.loc 1 151 0
 108 0054 049B     		ldr	r3, [sp, #16]
 109 0056 C3F3C103 		ubfx	r3, r3, #3, #2
 152:..\..\..\u8g2\u8g2\csrc/u8g2_button.c ****         shadow_gap--;
 110              		.loc 1 152 0
 111 005a 013B     		subs	r3, r3, #1
 112 005c 9BB2     		uxth	r3, r3
 113 005e 0693     		str	r3, [sp, #24]
 114 0060 039B     		ldr	r3, [sp, #12]
 115 0062 1344     		add	r3, r3, r2
 116 0064 9BB2     		uxth	r3, r3
 117 0066 0E93     		str	r3, [sp, #56]
 118 0068 0E98     		ldr	r0, [sp, #56]
 119              	.LVL13:
 120 006a 089B     		ldr	r3, [sp, #32]
 121 006c 03EB4008 		add	r8, r3, r0, lsl #1
ARM GAS  C:\Users\jesse\AppData\Local\Temp\ccJKz6l3.s 			page 6


 122 0070 BDF82C30 		ldrh	r3, [sp, #44]
 123 0074 0C98     		ldr	r0, [sp, #48]
 124 0076 1093     		str	r3, [sp, #64]
 125 0078 1B1A     		subs	r3, r3, r0
 126 007a 0998     		ldr	r0, [sp, #36]
 127 007c 039F     		ldr	r7, [sp, #12]
 128 007e 03EB4003 		add	r3, r3, r0, lsl #1
 129 0082 0898     		ldr	r0, [sp, #32]
 130 0084 A3EB4203 		sub	r3, r3, r2, lsl #1
 131 0088 1B1A     		subs	r3, r3, r0
 132 008a 9BB2     		uxth	r3, r3
 153:..\..\..\u8g2\u8g2\csrc/u8g2_button.c ****         for( i = 0; i < border_width; i++ )
 154:..\..\..\u8g2\u8g2\csrc/u8g2_button.c ****         {
 155:..\..\..\u8g2\u8g2\csrc/u8g2_button.c ****           u8g2_DrawHLine(u8g2, xx+border_width+shadow_gap,yy+hh+i+shadow_gap,ww);
 133              		.loc 1 155 0
 134 008c 069A     		ldr	r2, [sp, #24]
 135 008e 1193     		str	r3, [sp, #68]
 136              	.LBE2:
 127:..\..\..\u8g2\u8g2\csrc/u8g2_button.c ****     xx -= border_width;
 137              		.loc 1 127 0
 138 0090 8BB2     		uxth	r3, r1
 139 0092 0A93     		str	r3, [sp, #40]
 140              	.LBB3:
 141              		.loc 1 155 0
 142 0094 1344     		add	r3, r3, r2
 143 0096 9BB2     		uxth	r3, r3
 144 0098 1FFA88F8 		uxth	r8, r8
 145 009c 1393     		str	r3, [sp, #76]
 146              	.L6:
 147              	.LVL14:
 148 009e 0A9B     		ldr	r3, [sp, #40]
 149              	.LBE3:
 132:..\..\..\u8g2\u8g2\csrc/u8g2_button.c ****     yy -= a;
 150              		.loc 1 132 0
 151 00a0 2046     		mov	r0, r4
 152 00a2 C7EB0309 		rsb	r9, r7, r3
 153 00a6 1FFA89F3 		uxth	r3, r9
 154 00aa 0F93     		str	r3, [sp, #60]
 155              	.LVL15:
 156 00ac E36D     		ldr	r3, [r4, #92]
 157 00ae 9847     		blx	r3
 158              	.LVL16:
 134:..\..\..\u8g2\u8g2\csrc/u8g2_button.c ****     yy -= border_width;
 159              		.loc 1 134 0
 160 00b0 129B     		ldr	r3, [sp, #72]
 161 00b2 099A     		ldr	r2, [sp, #36]
 162 00b4 9D1A     		subs	r5, r3, r2
 163 00b6 109B     		ldr	r3, [sp, #64]
 136:..\..\..\u8g2\u8g2\csrc/u8g2_button.c ****     if ( border_width == 0 )
 164              		.loc 1 136 0
 165 00b8 0C9A     		ldr	r2, [sp, #48]
 134:..\..\..\u8g2\u8g2\csrc/u8g2_button.c ****     yy -= border_width;
 166              		.loc 1 134 0
 167 00ba ED1A     		subs	r5, r5, r3
 136:..\..\..\u8g2\u8g2\csrc/u8g2_button.c ****     if ( border_width == 0 )
 168              		.loc 1 136 0
 169 00bc 0B9B     		ldr	r3, [sp, #44]
ARM GAS  C:\Users\jesse\AppData\Local\Temp\ccJKz6l3.s 			page 7


 134:..\..\..\u8g2\u8g2\csrc/u8g2_button.c ****     yy -= border_width;
 170              		.loc 1 134 0
 171 00be 2844     		add	r0, r0, r5
 172              	.LVL17:
 136:..\..\..\u8g2\u8g2\csrc/u8g2_button.c ****     if ( border_width == 0 )
 173              		.loc 1 136 0
 174 00c0 9B1A     		subs	r3, r3, r2
 175 00c2 9EB2     		uxth	r6, r3
 176 00c4 119B     		ldr	r3, [sp, #68]
 134:..\..\..\u8g2\u8g2\csrc/u8g2_button.c ****     yy -= border_width;
 177              		.loc 1 134 0
 178 00c6 85B2     		uxth	r5, r0
 179              	.LVL18:
 135:..\..\..\u8g2\u8g2\csrc/u8g2_button.c ****     hh = a-d+2*padding_v+2*border_width;
 180              		.loc 1 135 0
 181 00c8 C7EB0509 		rsb	r9, r7, r5
 182 00cc 08EB030B 		add	fp, r8, r3
 183 00d0 1FFA89F9 		uxth	r9, r9
 184              	.LVL19:
 185 00d4 1FFA8BFB 		uxth	fp, fp
 186              	.LVL20:
 137:..\..\..\u8g2\u8g2\csrc/u8g2_button.c ****       break;
 187              		.loc 1 137 0
 188 00d8 002F     		cmp	r7, #0
 189 00da 49D0     		beq	.L3
 139:..\..\..\u8g2\u8g2\csrc/u8g2_button.c ****     {
 190              		.loc 1 139 0
 191 00dc 0D9B     		ldr	r3, [sp, #52]
 192 00de 9F42     		cmp	r7, r3
 193 00e0 06D1     		bne	.L4
 141:..\..\..\u8g2\u8g2\csrc/u8g2_button.c ****     }
 194              		.loc 1 141 0
 195 00e2 079B     		ldr	r3, [sp, #28]
 196 00e4 2046     		mov	r0, r4
 197 00e6 B3FA83F1 		clz	r1, r3
 198 00ea 4909     		lsrs	r1, r1, #5
 199 00ec FFF7FEFF 		bl	u8g2_SetDrawColor
 200              	.LVL21:
 201              	.L4:
 143:..\..\..\u8g2\u8g2\csrc/u8g2_button.c ****     u8g2_SetDrawColor(u8g2, color_backup);
 202              		.loc 1 143 0
 203 00f0 4346     		mov	r3, r8
 204 00f2 4A46     		mov	r2, r9
 205 00f4 0F99     		ldr	r1, [sp, #60]
 206 00f6 2046     		mov	r0, r4
 207 00f8 CDF800B0 		str	fp, [sp]
 208 00fc FFF7FEFF 		bl	u8g2_DrawFrame
 209              	.LVL22:
 144:..\..\..\u8g2\u8g2\csrc/u8g2_button.c ****     
 210              		.loc 1 144 0
 211 0100 0799     		ldr	r1, [sp, #28]
 212 0102 2046     		mov	r0, r4
 213 0104 FFF7FEFF 		bl	u8g2_SetDrawColor
 214              	.LVL23:
 146:..\..\..\u8g2\u8g2\csrc/u8g2_button.c ****     {
 215              		.loc 1 146 0
 216 0108 049B     		ldr	r3, [sp, #16]
ARM GAS  C:\Users\jesse\AppData\Local\Temp\ccJKz6l3.s 			page 8


 217 010a 13F0180F 		tst	r3, #24
 218 010e 06D1     		bne	.L5
 219              	.LVL24:
 220              	.L7:
 156:..\..\..\u8g2\u8g2\csrc/u8g2_button.c ****           u8g2_DrawVLine(u8g2, xx+ww+i+shadow_gap,yy+border_width+shadow_gap,hh);
 157:..\..\..\u8g2\u8g2\csrc/u8g2_button.c ****         }
 158:..\..\..\u8g2\u8g2\csrc/u8g2_button.c ****       }
 159:..\..\..\u8g2\u8g2\csrc/u8g2_button.c ****     }
 160:..\..\..\u8g2\u8g2\csrc/u8g2_button.c ****     border_width--;
 221              		.loc 1 160 0
 222 0110 013F     		subs	r7, r7, #1
 223              	.LVL25:
 224 0112 A8F10208 		sub	r8, r8, #2
 225              	.LVL26:
 226 0116 BFB2     		uxth	r7, r7
 227              	.LVL27:
 228 0118 1FFA88F8 		uxth	r8, r8
 161:..\..\..\u8g2\u8g2\csrc/u8g2_button.c ****   } /* for */
 229              		.loc 1 161 0
 230 011c BFE7     		b	.L6
 231              	.LVL28:
 232              	.L5:
 148:..\..\..\u8g2\u8g2\csrc/u8g2_button.c ****       {
 233              		.loc 1 148 0
 234 011e 059B     		ldr	r3, [sp, #20]
 235 0120 9F42     		cmp	r7, r3
 236 0122 F5D1     		bne	.L7
 237              	.LVL29:
 238 0124 069B     		ldr	r3, [sp, #24]
 239 0126 09EB0306 		add	r6, r9, r3
 240 012a 07EB030A 		add	r10, r7, r3
 241              	.LBB4:
 156:..\..\..\u8g2\u8g2\csrc/u8g2_button.c ****           u8g2_DrawVLine(u8g2, xx+ww+i+shadow_gap,yy+border_width+shadow_gap,hh);
 242              		.loc 1 156 0
 243 012e 1D44     		add	r5, r5, r3
 244 0130 0F9B     		ldr	r3, [sp, #60]
 245 0132 CA44     		add	r10, r10, r9
 246 0134 4344     		add	r3, r3, r8
 247 0136 5E44     		add	r6, r6, fp
 248 0138 DA44     		add	r10, r10, fp
 249 013a C9EB0309 		rsb	r9, r9, r3
 250              	.LVL30:
 251 013e B6B2     		uxth	r6, r6
 252 0140 1FFA8AFA 		uxth	r10, r10
 253 0144 ADB2     		uxth	r5, r5
 254 0146 CBEB0909 		rsb	r9, fp, r9
 255              	.LVL31:
 256              	.L8:
 155:..\..\..\u8g2\u8g2\csrc/u8g2_button.c ****           u8g2_DrawVLine(u8g2, xx+ww+i+shadow_gap,yy+border_width+shadow_gap,hh);
 257              		.loc 1 155 0 discriminator 3
 258 014a 3246     		mov	r2, r6
 259 014c 4346     		mov	r3, r8
 260 014e 1399     		ldr	r1, [sp, #76]
 261 0150 2046     		mov	r0, r4
 262 0152 FFF7FEFF 		bl	u8g2_DrawHLine
 263              	.LVL32:
 156:..\..\..\u8g2\u8g2\csrc/u8g2_button.c ****         }
ARM GAS  C:\Users\jesse\AppData\Local\Temp\ccJKz6l3.s 			page 9


 264              		.loc 1 156 0 discriminator 3
 265 0156 06EB0901 		add	r1, r6, r9
 266 015a 0136     		adds	r6, r6, #1
 267 015c 5B46     		mov	r3, fp
 268 015e 2A46     		mov	r2, r5
 269 0160 89B2     		uxth	r1, r1
 270 0162 2046     		mov	r0, r4
 271 0164 B6B2     		uxth	r6, r6
 272 0166 FFF7FEFF 		bl	u8g2_DrawVLine
 273              	.LVL33:
 153:..\..\..\u8g2\u8g2\csrc/u8g2_button.c ****         {
 274              		.loc 1 153 0 discriminator 3
 275 016a 5645     		cmp	r6, r10
 276 016c EDD1     		bne	.L8
 277 016e CFE7     		b	.L7
 278              	.LVL34:
 279              	.L3:
 280 0170 039B     		ldr	r3, [sp, #12]
 281 0172 0E9A     		ldr	r2, [sp, #56]
 282 0174 C3EBC333 		rsb	r3, r3, r3, lsl #15
 283 0178 9BB2     		uxth	r3, r3
 284 017a 1A44     		add	r2, r2, r3
 285 017c 1546     		mov	r5, r2
 286 017e 089A     		ldr	r2, [sp, #32]
 287 0180 0399     		ldr	r1, [sp, #12]
 288 0182 02EB4505 		add	r5, r2, r5, lsl #1
 289 0186 099A     		ldr	r2, [sp, #36]
 290 0188 ADB2     		uxth	r5, r5
 291 018a 0A44     		add	r2, r2, r1
 292 018c 1344     		add	r3, r3, r2
 293 018e 06EB4303 		add	r3, r6, r3, lsl #1
 294 0192 9EB2     		uxth	r6, r3
 295              	.LBE4:
 162:..\..\..\u8g2\u8g2\csrc/u8g2_button.c ****   
 163:..\..\..\u8g2\u8g2\csrc/u8g2_button.c ****   if ( flags & U8G2_BTN_INV )
 296              		.loc 1 163 0
 297 0194 049B     		ldr	r3, [sp, #16]
 298 0196 9B06     		lsls	r3, r3, #26
 299 0198 11D5     		bpl	.L1
 164:..\..\..\u8g2\u8g2\csrc/u8g2_button.c ****   {
 165:..\..\..\u8g2\u8g2\csrc/u8g2_button.c ****     u8g2_SetDrawColor(u8g2, 2);         /* XOR */
 300              		.loc 1 165 0
 301 019a 2046     		mov	r0, r4
 302 019c 0221     		movs	r1, #2
 303 019e FFF7FEFF 		bl	u8g2_SetDrawColor
 304              	.LVL35:
 166:..\..\..\u8g2\u8g2\csrc/u8g2_button.c ****     u8g2_DrawBox(u8g2, xx, yy, ww, hh);
 305              		.loc 1 166 0
 306 01a2 0A99     		ldr	r1, [sp, #40]
 307 01a4 2046     		mov	r0, r4
 308 01a6 0096     		str	r6, [sp]
 309 01a8 2B46     		mov	r3, r5
 310 01aa 4A46     		mov	r2, r9
 311 01ac FFF7FEFF 		bl	u8g2_DrawBox
 312              	.LVL36:
 167:..\..\..\u8g2\u8g2\csrc/u8g2_button.c ****     u8g2_SetDrawColor(u8g2, color_backup);
 313              		.loc 1 167 0
ARM GAS  C:\Users\jesse\AppData\Local\Temp\ccJKz6l3.s 			page 10


 314 01b0 2046     		mov	r0, r4
 315 01b2 0799     		ldr	r1, [sp, #28]
 168:..\..\..\u8g2\u8g2\csrc/u8g2_button.c ****   }
 169:..\..\..\u8g2\u8g2\csrc/u8g2_button.c **** }
 316              		.loc 1 169 0
 317 01b4 15B0     		add	sp, sp, #84
 318              		.cfi_remember_state
 319              		.cfi_def_cfa_offset 36
 320              		@ sp needed
 321 01b6 BDE8F04F 		pop	{r4, r5, r6, r7, r8, r9, r10, fp, lr}
 322              		.cfi_restore 14
 323              		.cfi_restore 11
 324              		.cfi_restore 10
 325              		.cfi_restore 9
 326              		.cfi_restore 8
 327              		.cfi_restore 7
 328              		.cfi_restore 6
 329              		.cfi_restore 5
 330              		.cfi_restore 4
 331              		.cfi_def_cfa_offset 0
 332              	.LVL37:
 167:..\..\..\u8g2\u8g2\csrc/u8g2_button.c ****     u8g2_SetDrawColor(u8g2, color_backup);
 333              		.loc 1 167 0
 334 01ba FFF7FEBF 		b	u8g2_SetDrawColor
 335              	.LVL38:
 336              	.L1:
 337              		.cfi_restore_state
 338              		.loc 1 169 0
 339 01be 15B0     		add	sp, sp, #84
 340              		.cfi_def_cfa_offset 36
 341              		@ sp needed
 342 01c0 BDE8F08F 		pop	{r4, r5, r6, r7, r8, r9, r10, fp, pc}
 343              		.cfi_endproc
 344              	.LFE0:
 345              		.size	u8g2_DrawButtonFrame, .-u8g2_DrawButtonFrame
 346              		.section	.text.u8g2_DrawButtonUTF8,"ax",%progbits
 347              		.align	1
 348              		.global	u8g2_DrawButtonUTF8
 349              		.thumb
 350              		.thumb_func
 351              		.type	u8g2_DrawButtonUTF8, %function
 352              	u8g2_DrawButtonUTF8:
 353              	.LFB1:
 170:..\..\..\u8g2\u8g2\csrc/u8g2_button.c **** 
 171:..\..\..\u8g2\u8g2\csrc/u8g2_button.c **** void u8g2_DrawButtonUTF8(u8g2_t *u8g2, u8g2_uint_t x, u8g2_uint_t y, u8g2_uint_t flags, u8g2_uint_t
 172:..\..\..\u8g2\u8g2\csrc/u8g2_button.c **** {
 354              		.loc 1 172 0
 355              		.cfi_startproc
 356              		@ args = 16, pretend = 0, frame = 8
 357              		@ frame_needed = 0, uses_anonymous_args = 0
 358              	.LVL39:
 359 0000 2DE9F74F 		push	{r0, r1, r2, r4, r5, r6, r7, r8, r9, r10, fp, lr}
 360              		.cfi_def_cfa_offset 48
 361              		.cfi_offset 4, -36
 362              		.cfi_offset 5, -32
 363              		.cfi_offset 6, -28
 364              		.cfi_offset 7, -24
ARM GAS  C:\Users\jesse\AppData\Local\Temp\ccJKz6l3.s 			page 11


 365              		.cfi_offset 8, -20
 366              		.cfi_offset 9, -16
 367              		.cfi_offset 10, -12
 368              		.cfi_offset 11, -8
 369              		.cfi_offset 14, -4
 370              		.loc 1 172 0
 371 0004 9946     		mov	r9, r3
 372 0006 BDF83430 		ldrh	r3, [sp, #52]
 373              	.LVL40:
 374 000a DDF83CA0 		ldr	r10, [sp, #60]
 375 000e 0093     		str	r3, [sp]
 376 0010 BDF83830 		ldrh	r3, [sp, #56]
 377 0014 0E46     		mov	r6, r1
 173:..\..\..\u8g2\u8g2\csrc/u8g2_button.c ****   u8g2_uint_t w = u8g2_GetUTF8Width(u8g2, text);
 378              		.loc 1 173 0
 379 0016 5146     		mov	r1, r10
 380              	.LVL41:
 172:..\..\..\u8g2\u8g2\csrc/u8g2_button.c ****   u8g2_uint_t w = u8g2_GetUTF8Width(u8g2, text);
 381              		.loc 1 172 0
 382 0018 0746     		mov	r7, r0
 383 001a 9046     		mov	r8, r2
 384 001c BDF830B0 		ldrh	fp, [sp, #48]
 385 0020 0193     		str	r3, [sp, #4]
 386              		.loc 1 173 0
 387 0022 FFF7FEFF 		bl	u8g2_GetUTF8Width
 388              	.LVL42:
 174:..\..\..\u8g2\u8g2\csrc/u8g2_button.c ****   
 175:..\..\..\u8g2\u8g2\csrc/u8g2_button.c ****   u8g2_uint_t text_x_offset = 0; 
 176:..\..\..\u8g2\u8g2\csrc/u8g2_button.c **** 
 177:..\..\..\u8g2\u8g2\csrc/u8g2_button.c ****   if ( flags & U8G2_BTN_HCENTER )
 389              		.loc 1 177 0
 390 0026 09F04005 		and	r5, r9, #64
 391 002a ADB2     		uxth	r5, r5
 173:..\..\..\u8g2\u8g2\csrc/u8g2_button.c ****   
 392              		.loc 1 173 0
 393 002c 0446     		mov	r4, r0
 394              	.LVL43:
 395              		.loc 1 177 0
 396 002e 55B1     		cbz	r5, .L14
 178:..\..\..\u8g2\u8g2\csrc/u8g2_button.c ****     x -= (w+1)/2;
 397              		.loc 1 178 0
 398 0030 411C     		adds	r1, r0, #1
 399 0032 0225     		movs	r5, #2
 400 0034 91FBF5F1 		sdiv	r1, r1, r5
 179:..\..\..\u8g2\u8g2\csrc/u8g2_button.c **** 
 180:..\..\..\u8g2\u8g2\csrc/u8g2_button.c ****   if ( w < width )
 401              		.loc 1 180 0
 402 0038 5845     		cmp	r0, fp
 178:..\..\..\u8g2\u8g2\csrc/u8g2_button.c ****     x -= (w+1)/2;
 403              		.loc 1 178 0
 404 003a A6EB0106 		sub	r6, r6, r1
 405 003e B6B2     		uxth	r6, r6
 406              	.LVL44:
 407              		.loc 1 180 0
 408 0040 06D3     		bcc	.L15
 175:..\..\..\u8g2\u8g2\csrc/u8g2_button.c **** 
 409              		.loc 1 175 0
ARM GAS  C:\Users\jesse\AppData\Local\Temp\ccJKz6l3.s 			page 12


 410 0042 0025     		movs	r5, #0
 411 0044 0AE0     		b	.L16
 412              	.LVL45:
 413              	.L14:
 414 0046 5845     		cmp	r0, fp
 415 0048 38BF     		it	cc
 416 004a 5C46     		movcc	r4, fp
 417 004c A4B2     		uxth	r4, r4
 418 004e 05E0     		b	.L16
 419              	.L15:
 181:..\..\..\u8g2\u8g2\csrc/u8g2_button.c ****   {
 182:..\..\..\u8g2\u8g2\csrc/u8g2_button.c ****     if ( flags & U8G2_BTN_HCENTER )
 183:..\..\..\u8g2\u8g2\csrc/u8g2_button.c ****     {
 184:..\..\..\u8g2\u8g2\csrc/u8g2_button.c ****       text_x_offset = (width-w)/2;
 420              		.loc 1 184 0
 421 0050 C0EB0B04 		rsb	r4, r0, fp
 422 0054 94FBF5F5 		sdiv	r5, r4, r5
 423 0058 5C46     		mov	r4, fp
 424 005a ADB2     		uxth	r5, r5
 425              	.LVL46:
 426              	.L16:
 185:..\..\..\u8g2\u8g2\csrc/u8g2_button.c ****     }
 186:..\..\..\u8g2\u8g2\csrc/u8g2_button.c ****     w = width;
 187:..\..\..\u8g2\u8g2\csrc/u8g2_button.c ****   }
 188:..\..\..\u8g2\u8g2\csrc/u8g2_button.c ****   
 189:..\..\..\u8g2\u8g2\csrc/u8g2_button.c ****   u8g2_SetFontMode(u8g2, 1);    
 427              		.loc 1 189 0
 428 005c 3846     		mov	r0, r7
 429 005e 0121     		movs	r1, #1
 430 0060 FFF7FEFF 		bl	u8g2_SetFontMode
 431              	.LVL47:
 190:..\..\..\u8g2\u8g2\csrc/u8g2_button.c ****   u8g2_DrawUTF8(u8g2, x,y, text);
 432              		.loc 1 190 0
 433 0064 5346     		mov	r3, r10
 434 0066 4246     		mov	r2, r8
 435 0068 3146     		mov	r1, r6
 436 006a 3846     		mov	r0, r7
 437 006c FFF7FEFF 		bl	u8g2_DrawUTF8
 438              	.LVL48:
 191:..\..\..\u8g2\u8g2\csrc/u8g2_button.c ****   u8g2_DrawButtonFrame(u8g2, x-text_x_offset, y, flags, w, padding_h, padding_v);
 439              		.loc 1 191 0
 440 0070 019B     		ldr	r3, [sp, #4]
 441 0072 4246     		mov	r2, r8
 442 0074 0E93     		str	r3, [sp, #56]
 443 0076 009B     		ldr	r3, [sp]
 444 0078 3846     		mov	r0, r7
 445 007a 0D93     		str	r3, [sp, #52]
 446 007c 4B46     		mov	r3, r9
 447 007e 711B     		subs	r1, r6, r5
 448 0080 89B2     		uxth	r1, r1
 449 0082 0C94     		str	r4, [sp, #48]
 192:..\..\..\u8g2\u8g2\csrc/u8g2_button.c ****   
 193:..\..\..\u8g2\u8g2\csrc/u8g2_button.c **** }
 450              		.loc 1 193 0
 451 0084 03B0     		add	sp, sp, #12
 452              		.cfi_def_cfa_offset 36
 453              		@ sp needed
ARM GAS  C:\Users\jesse\AppData\Local\Temp\ccJKz6l3.s 			page 13


 454 0086 BDE8F04F 		pop	{r4, r5, r6, r7, r8, r9, r10, fp, lr}
 455              		.cfi_restore 14
 456              		.cfi_restore 11
 457              		.cfi_restore 10
 458              		.cfi_restore 9
 459              		.cfi_restore 8
 460              		.cfi_restore 7
 461              		.cfi_restore 6
 462              		.cfi_restore 5
 463              		.cfi_restore 4
 464              		.cfi_def_cfa_offset 0
 465              	.LVL49:
 191:..\..\..\u8g2\u8g2\csrc/u8g2_button.c ****   u8g2_DrawButtonFrame(u8g2, x-text_x_offset, y, flags, w, padding_h, padding_v);
 466              		.loc 1 191 0
 467 008a FFF7FEBF 		b	u8g2_DrawButtonFrame
 468              	.LVL50:
 469              		.cfi_endproc
 470              	.LFE1:
 471              		.size	u8g2_DrawButtonUTF8, .-u8g2_DrawButtonUTF8
 472              		.text
 473              	.Letext0:
 474              		.file 2 "c:\\program files (x86)\\cypress\\psoc creator\\4.4\\psoc creator\\import\\gnu\\arm\\5.4.
 475              		.file 3 "c:\\program files (x86)\\cypress\\psoc creator\\4.4\\psoc creator\\import\\gnu\\arm\\5.4.
 476              		.file 4 "..\\..\\..\\u8g2\\u8g2\\csrc\\u8x8.h"
 477              		.file 5 "..\\..\\..\\u8g2\\u8g2\\csrc\\u8g2.h"