ARM GAS  C:\Users\jesse\AppData\Local\Temp\ccFqRpqp.s 			page 1


   1              		.syntax unified
   2              		.cpu cortex-m3
   3              		.fpu softvfp
   4              		.eabi_attribute 20, 1
   5              		.eabi_attribute 21, 1
   6              		.eabi_attribute 23, 3
   7              		.eabi_attribute 24, 1
   8              		.eabi_attribute 25, 1
   9              		.eabi_attribute 26, 1
  10              		.eabi_attribute 30, 4
  11              		.eabi_attribute 34, 1
  12              		.eabi_attribute 18, 4
  13              		.thumb
  14              		.syntax unified
  15              		.file	"u8g2_setup.c"
  16              		.text
  17              	.Ltext0:
  18              		.cfi_sections	.debug_frame
  19              		.section	.text.u8g2_update_dimension_common,"ax",%progbits
  20              		.align	1
  21              		.thumb
  22              		.thumb_func
  23              		.type	u8g2_update_dimension_common, %function
  24              	u8g2_update_dimension_common:
  25              	.LFB5:
  26              		.file 1 "..\\..\\..\\u8g2\\u8g2\\csrc\\u8g2_setup.c"
   1:..\..\..\u8g2\u8g2\csrc/u8g2_setup.c **** /*
   2:..\..\..\u8g2\u8g2\csrc/u8g2_setup.c **** 
   3:..\..\..\u8g2\u8g2\csrc/u8g2_setup.c ****   u8g2_setup.c
   4:..\..\..\u8g2\u8g2\csrc/u8g2_setup.c **** 
   5:..\..\..\u8g2\u8g2\csrc/u8g2_setup.c ****   Universal 8bit Graphics Library (https://github.com/olikraus/u8g2/)
   6:..\..\..\u8g2\u8g2\csrc/u8g2_setup.c **** 
   7:..\..\..\u8g2\u8g2\csrc/u8g2_setup.c ****   Copyright (c) 2016, olikraus@gmail.com
   8:..\..\..\u8g2\u8g2\csrc/u8g2_setup.c ****   All rights reserved.
   9:..\..\..\u8g2\u8g2\csrc/u8g2_setup.c **** 
  10:..\..\..\u8g2\u8g2\csrc/u8g2_setup.c ****   Redistribution and use in source and binary forms, with or without modification, 
  11:..\..\..\u8g2\u8g2\csrc/u8g2_setup.c ****   are permitted provided that the following conditions are met:
  12:..\..\..\u8g2\u8g2\csrc/u8g2_setup.c **** 
  13:..\..\..\u8g2\u8g2\csrc/u8g2_setup.c ****   * Redistributions of source code must retain the above copyright notice, this list 
  14:..\..\..\u8g2\u8g2\csrc/u8g2_setup.c ****     of conditions and the following disclaimer.
  15:..\..\..\u8g2\u8g2\csrc/u8g2_setup.c ****     
  16:..\..\..\u8g2\u8g2\csrc/u8g2_setup.c ****   * Redistributions in binary form must reproduce the above copyright notice, this 
  17:..\..\..\u8g2\u8g2\csrc/u8g2_setup.c ****     list of conditions and the following disclaimer in the documentation and/or other 
  18:..\..\..\u8g2\u8g2\csrc/u8g2_setup.c ****     materials provided with the distribution.
  19:..\..\..\u8g2\u8g2\csrc/u8g2_setup.c **** 
  20:..\..\..\u8g2\u8g2\csrc/u8g2_setup.c ****   THIS SOFTWARE IS PROVIDED BY THE COPYRIGHT HOLDERS AND 
  21:..\..\..\u8g2\u8g2\csrc/u8g2_setup.c ****   CONTRIBUTORS "AS IS" AND ANY EXPRESS OR IMPLIED WARRANTIES, 
  22:..\..\..\u8g2\u8g2\csrc/u8g2_setup.c ****   INCLUDING, BUT NOT LIMITED TO, THE IMPLIED WARRANTIES OF 
  23:..\..\..\u8g2\u8g2\csrc/u8g2_setup.c ****   MERCHANTABILITY AND FITNESS FOR A PARTICULAR PURPOSE ARE 
  24:..\..\..\u8g2\u8g2\csrc/u8g2_setup.c ****   DISCLAIMED. IN NO EVENT SHALL THE COPYRIGHT HOLDER OR 
  25:..\..\..\u8g2\u8g2\csrc/u8g2_setup.c ****   CONTRIBUTORS BE LIABLE FOR ANY DIRECT, INDIRECT, INCIDENTAL, 
  26:..\..\..\u8g2\u8g2\csrc/u8g2_setup.c ****   SPECIAL, EXEMPLARY, OR CONSEQUENTIAL DAMAGES (INCLUDING, BUT 
  27:..\..\..\u8g2\u8g2\csrc/u8g2_setup.c ****   NOT LIMITED TO, PROCUREMENT OF SUBSTITUTE GOODS OR SERVICES; 
  28:..\..\..\u8g2\u8g2\csrc/u8g2_setup.c ****   LOSS OF USE, DATA, OR PROFITS; OR BUSINESS INTERRUPTION) HOWEVER 
  29:..\..\..\u8g2\u8g2\csrc/u8g2_setup.c ****   CAUSED AND ON ANY THEORY OF LIABILITY, WHETHER IN CONTRACT, 
  30:..\..\..\u8g2\u8g2\csrc/u8g2_setup.c ****   STRICT LIABILITY, OR TORT (INCLUDING NEGLIGENCE OR OTHERWISE) 
  31:..\..\..\u8g2\u8g2\csrc/u8g2_setup.c ****   ARISING IN ANY WAY OUT OF THE USE OF THIS SOFTWARE, EVEN IF 
ARM GAS  C:\Users\jesse\AppData\Local\Temp\ccFqRpqp.s 			page 2


  32:..\..\..\u8g2\u8g2\csrc/u8g2_setup.c ****   ADVISED OF THE POSSIBILITY OF SUCH DAMAGE.  
  33:..\..\..\u8g2\u8g2\csrc/u8g2_setup.c **** 
  34:..\..\..\u8g2\u8g2\csrc/u8g2_setup.c **** */
  35:..\..\..\u8g2\u8g2\csrc/u8g2_setup.c **** 
  36:..\..\..\u8g2\u8g2\csrc/u8g2_setup.c **** #include "u8g2.h"
  37:..\..\..\u8g2\u8g2\csrc/u8g2_setup.c **** #include <string.h>
  38:..\..\..\u8g2\u8g2\csrc/u8g2_setup.c **** #include <assert.h>
  39:..\..\..\u8g2\u8g2\csrc/u8g2_setup.c **** 
  40:..\..\..\u8g2\u8g2\csrc/u8g2_setup.c **** 
  41:..\..\..\u8g2\u8g2\csrc/u8g2_setup.c **** /*============================================*/
  42:..\..\..\u8g2\u8g2\csrc/u8g2_setup.c **** 
  43:..\..\..\u8g2\u8g2\csrc/u8g2_setup.c **** 
  44:..\..\..\u8g2\u8g2\csrc/u8g2_setup.c **** #ifdef U8G2_WITH_CLIP_WINDOW_SUPPORT
  45:..\..\..\u8g2\u8g2\csrc/u8g2_setup.c **** 
  46:..\..\..\u8g2\u8g2\csrc/u8g2_setup.c **** void u8g2_SetMaxClipWindow(u8g2_t *u8g2)
  47:..\..\..\u8g2\u8g2\csrc/u8g2_setup.c **** {
  48:..\..\..\u8g2\u8g2\csrc/u8g2_setup.c ****   u8g2->clip_x0 = 0;
  49:..\..\..\u8g2\u8g2\csrc/u8g2_setup.c ****   u8g2->clip_y0 = 0;
  50:..\..\..\u8g2\u8g2\csrc/u8g2_setup.c ****   u8g2->clip_x1 = (u8g2_uint_t)~(u8g2_uint_t)0;
  51:..\..\..\u8g2\u8g2\csrc/u8g2_setup.c ****   u8g2->clip_y1 = (u8g2_uint_t)~(u8g2_uint_t)0;
  52:..\..\..\u8g2\u8g2\csrc/u8g2_setup.c ****   
  53:..\..\..\u8g2\u8g2\csrc/u8g2_setup.c ****   u8g2->cb->update_page_win(u8g2);
  54:..\..\..\u8g2\u8g2\csrc/u8g2_setup.c **** }
  55:..\..\..\u8g2\u8g2\csrc/u8g2_setup.c **** 
  56:..\..\..\u8g2\u8g2\csrc/u8g2_setup.c **** void u8g2_SetClipWindow(u8g2_t *u8g2, u8g2_uint_t clip_x0, u8g2_uint_t clip_y0, u8g2_uint_t clip_x1
  57:..\..\..\u8g2\u8g2\csrc/u8g2_setup.c **** {
  58:..\..\..\u8g2\u8g2\csrc/u8g2_setup.c ****   u8g2->clip_x0 = clip_x0;
  59:..\..\..\u8g2\u8g2\csrc/u8g2_setup.c ****   u8g2->clip_y0 = clip_y0;
  60:..\..\..\u8g2\u8g2\csrc/u8g2_setup.c ****   u8g2->clip_x1 = clip_x1;
  61:..\..\..\u8g2\u8g2\csrc/u8g2_setup.c ****   u8g2->clip_y1 = clip_y1;
  62:..\..\..\u8g2\u8g2\csrc/u8g2_setup.c ****   u8g2->cb->update_page_win(u8g2);
  63:..\..\..\u8g2\u8g2\csrc/u8g2_setup.c **** }
  64:..\..\..\u8g2\u8g2\csrc/u8g2_setup.c **** #endif
  65:..\..\..\u8g2\u8g2\csrc/u8g2_setup.c **** 
  66:..\..\..\u8g2\u8g2\csrc/u8g2_setup.c **** /*============================================*/
  67:..\..\..\u8g2\u8g2\csrc/u8g2_setup.c **** /*
  68:..\..\..\u8g2\u8g2\csrc/u8g2_setup.c ****   This procedure is called after setting up the display (u8x8 structure).
  69:..\..\..\u8g2\u8g2\csrc/u8g2_setup.c ****   --> This is the central init procedure for u8g2 object
  70:..\..\..\u8g2\u8g2\csrc/u8g2_setup.c **** */
  71:..\..\..\u8g2\u8g2\csrc/u8g2_setup.c **** void u8g2_SetupBuffer(u8g2_t *u8g2, uint8_t *buf, uint8_t tile_buf_height, u8g2_draw_ll_hvline_cb l
  72:..\..\..\u8g2\u8g2\csrc/u8g2_setup.c **** {
  73:..\..\..\u8g2\u8g2\csrc/u8g2_setup.c ****   u8g2->font = NULL;
  74:..\..\..\u8g2\u8g2\csrc/u8g2_setup.c ****   //u8g2->kerning = NULL;
  75:..\..\..\u8g2\u8g2\csrc/u8g2_setup.c ****   //u8g2->get_kerning_cb = u8g2_GetNullKerning;
  76:..\..\..\u8g2\u8g2\csrc/u8g2_setup.c ****   
  77:..\..\..\u8g2\u8g2\csrc/u8g2_setup.c ****   //u8g2->ll_hvline = u8g2_ll_hvline_vertical_top_lsb;
  78:..\..\..\u8g2\u8g2\csrc/u8g2_setup.c ****   u8g2->ll_hvline = ll_hvline_cb;
  79:..\..\..\u8g2\u8g2\csrc/u8g2_setup.c ****   
  80:..\..\..\u8g2\u8g2\csrc/u8g2_setup.c ****   u8g2->tile_buf_ptr = buf;
  81:..\..\..\u8g2\u8g2\csrc/u8g2_setup.c ****   u8g2->tile_buf_height = tile_buf_height;
  82:..\..\..\u8g2\u8g2\csrc/u8g2_setup.c ****   
  83:..\..\..\u8g2\u8g2\csrc/u8g2_setup.c ****   u8g2->tile_curr_row = 0;
  84:..\..\..\u8g2\u8g2\csrc/u8g2_setup.c ****   
  85:..\..\..\u8g2\u8g2\csrc/u8g2_setup.c ****   u8g2->font_decode.is_transparent = 0; /* issue 443 */
  86:..\..\..\u8g2\u8g2\csrc/u8g2_setup.c ****   u8g2->bitmap_transparency = 0;
  87:..\..\..\u8g2\u8g2\csrc/u8g2_setup.c ****   
  88:..\..\..\u8g2\u8g2\csrc/u8g2_setup.c ****   u8g2->draw_color = 1;
ARM GAS  C:\Users\jesse\AppData\Local\Temp\ccFqRpqp.s 			page 3


  89:..\..\..\u8g2\u8g2\csrc/u8g2_setup.c ****   u8g2->is_auto_page_clear = 1;
  90:..\..\..\u8g2\u8g2\csrc/u8g2_setup.c ****   
  91:..\..\..\u8g2\u8g2\csrc/u8g2_setup.c ****   u8g2->cb = u8g2_cb;
  92:..\..\..\u8g2\u8g2\csrc/u8g2_setup.c ****   u8g2->cb->update_dimension(u8g2);
  93:..\..\..\u8g2\u8g2\csrc/u8g2_setup.c **** #ifdef U8G2_WITH_CLIP_WINDOW_SUPPORT
  94:..\..\..\u8g2\u8g2\csrc/u8g2_setup.c ****   u8g2_SetMaxClipWindow(u8g2);		/* assign a clip window and call the update() procedure */
  95:..\..\..\u8g2\u8g2\csrc/u8g2_setup.c **** #else
  96:..\..\..\u8g2\u8g2\csrc/u8g2_setup.c ****   u8g2->cb->update_page_win(u8g2);
  97:..\..\..\u8g2\u8g2\csrc/u8g2_setup.c **** #endif
  98:..\..\..\u8g2\u8g2\csrc/u8g2_setup.c **** 
  99:..\..\..\u8g2\u8g2\csrc/u8g2_setup.c ****   u8g2_SetFontPosBaseline(u8g2);  /* issue 195 */
 100:..\..\..\u8g2\u8g2\csrc/u8g2_setup.c ****   
 101:..\..\..\u8g2\u8g2\csrc/u8g2_setup.c **** #ifdef U8G2_WITH_FONT_ROTATION  
 102:..\..\..\u8g2\u8g2\csrc/u8g2_setup.c ****   u8g2->font_decode.dir = 0;
 103:..\..\..\u8g2\u8g2\csrc/u8g2_setup.c **** #endif
 104:..\..\..\u8g2\u8g2\csrc/u8g2_setup.c **** }
 105:..\..\..\u8g2\u8g2\csrc/u8g2_setup.c **** 
 106:..\..\..\u8g2\u8g2\csrc/u8g2_setup.c **** /*
 107:..\..\..\u8g2\u8g2\csrc/u8g2_setup.c ****   Usually the display rotation is set initially, but it could be done later also
 108:..\..\..\u8g2\u8g2\csrc/u8g2_setup.c ****   u8g2_cb can be U8G2_R0..U8G2_R3
 109:..\..\..\u8g2\u8g2\csrc/u8g2_setup.c **** */
 110:..\..\..\u8g2\u8g2\csrc/u8g2_setup.c **** void u8g2_SetDisplayRotation(u8g2_t *u8g2, const u8g2_cb_t *u8g2_cb)
 111:..\..\..\u8g2\u8g2\csrc/u8g2_setup.c **** {
 112:..\..\..\u8g2\u8g2\csrc/u8g2_setup.c ****   u8g2->cb = u8g2_cb;
 113:..\..\..\u8g2\u8g2\csrc/u8g2_setup.c ****   u8g2->cb->update_dimension(u8g2);
 114:..\..\..\u8g2\u8g2\csrc/u8g2_setup.c ****   u8g2->cb->update_page_win(u8g2);
 115:..\..\..\u8g2\u8g2\csrc/u8g2_setup.c **** }
 116:..\..\..\u8g2\u8g2\csrc/u8g2_setup.c **** 
 117:..\..\..\u8g2\u8g2\csrc/u8g2_setup.c **** /*============================================*/
 118:..\..\..\u8g2\u8g2\csrc/u8g2_setup.c **** 
 119:..\..\..\u8g2\u8g2\csrc/u8g2_setup.c **** void u8g2_SendF(u8g2_t * u8g2, const char *fmt, ...)
 120:..\..\..\u8g2\u8g2\csrc/u8g2_setup.c **** {
 121:..\..\..\u8g2\u8g2\csrc/u8g2_setup.c ****   va_list va;
 122:..\..\..\u8g2\u8g2\csrc/u8g2_setup.c ****   va_start(va, fmt);
 123:..\..\..\u8g2\u8g2\csrc/u8g2_setup.c ****   u8x8_cad_vsendf(u8g2_GetU8x8(u8g2), fmt, va);
 124:..\..\..\u8g2\u8g2\csrc/u8g2_setup.c ****   va_end(va);
 125:..\..\..\u8g2\u8g2\csrc/u8g2_setup.c **** }
 126:..\..\..\u8g2\u8g2\csrc/u8g2_setup.c **** 
 127:..\..\..\u8g2\u8g2\csrc/u8g2_setup.c **** 
 128:..\..\..\u8g2\u8g2\csrc/u8g2_setup.c **** /*============================================*/
 129:..\..\..\u8g2\u8g2\csrc/u8g2_setup.c **** /* 
 130:..\..\..\u8g2\u8g2\csrc/u8g2_setup.c ****   update dimension: 
 131:..\..\..\u8g2\u8g2\csrc/u8g2_setup.c ****   calculate the following variables:
 132:..\..\..\u8g2\u8g2\csrc/u8g2_setup.c ****     u8g2_uint_t buf_x0;	left corner of the buffer
 133:..\..\..\u8g2\u8g2\csrc/u8g2_setup.c ****     u8g2_uint_t buf_x1;	right corner of the buffer (excluded)
 134:..\..\..\u8g2\u8g2\csrc/u8g2_setup.c ****     u8g2_uint_t buf_y0;
 135:..\..\..\u8g2\u8g2\csrc/u8g2_setup.c ****     u8g2_uint_t buf_y1; 	
 136:..\..\..\u8g2\u8g2\csrc/u8g2_setup.c **** */
 137:..\..\..\u8g2\u8g2\csrc/u8g2_setup.c **** 
 138:..\..\..\u8g2\u8g2\csrc/u8g2_setup.c **** static void u8g2_update_dimension_common(u8g2_t *u8g2)
 139:..\..\..\u8g2\u8g2\csrc/u8g2_setup.c **** {
  27              		.loc 1 139 0
  28              		.cfi_startproc
  29              		@ args = 0, pretend = 0, frame = 0
  30              		@ frame_needed = 0, uses_anonymous_args = 0
  31              	.LVL0:
  32 0000 F0B5     		push	{r4, r5, r6, r7, lr}
ARM GAS  C:\Users\jesse\AppData\Local\Temp\ccFqRpqp.s 			page 4


  33              		.cfi_def_cfa_offset 20
  34              		.cfi_offset 4, -20
  35              		.cfi_offset 5, -16
  36              		.cfi_offset 6, -12
  37              		.cfi_offset 7, -8
  38              		.cfi_offset 14, -4
 140:..\..\..\u8g2\u8g2\csrc/u8g2_setup.c ****   const u8x8_display_info_t *display_info = u8g2_GetU8x8(u8g2)->display_info;
 141:..\..\..\u8g2\u8g2\csrc/u8g2_setup.c ****   u8g2_uint_t t;
 142:..\..\..\u8g2\u8g2\csrc/u8g2_setup.c ****   
 143:..\..\..\u8g2\u8g2\csrc/u8g2_setup.c ****   t = u8g2->tile_buf_height;
  39              		.loc 1 143 0
  40 0002 90F83870 		ldrb	r7, [r0, #56]	@ zero_extendqisi2
 140:..\..\..\u8g2\u8g2\csrc/u8g2_setup.c ****   const u8x8_display_info_t *display_info = u8g2_GetU8x8(u8g2)->display_info;
  41              		.loc 1 140 0
  42 0006 0268     		ldr	r2, [r0]
  43              	.LVL1:
  44              		.loc 1 143 0
  45 0008 BDB2     		uxth	r5, r7
  46              	.LVL2:
 144:..\..\..\u8g2\u8g2\csrc/u8g2_setup.c ****   t *= 8;
 145:..\..\..\u8g2\u8g2\csrc/u8g2_setup.c ****   u8g2->pixel_buf_height = t;
  47              		.loc 1 145 0
  48 000a EB00     		lsls	r3, r5, #3
  49 000c 8387     		strh	r3, [r0, #60]	@ movhi
 146:..\..\..\u8g2\u8g2\csrc/u8g2_setup.c ****   
 147:..\..\..\u8g2\u8g2\csrc/u8g2_setup.c ****   t = display_info->tile_width;
  50              		.loc 1 147 0
  51 000e 137C     		ldrb	r3, [r2, #16]	@ zero_extendqisi2
  52              	.LVL3:
 148:..\..\..\u8g2\u8g2\csrc/u8g2_setup.c **** #ifndef U8G2_16BIT
 149:..\..\..\u8g2\u8g2\csrc/u8g2_setup.c ****   if ( t >= 32 )
 150:..\..\..\u8g2\u8g2\csrc/u8g2_setup.c ****     t = 31;
 151:..\..\..\u8g2\u8g2\csrc/u8g2_setup.c **** #endif
 152:..\..\..\u8g2\u8g2\csrc/u8g2_setup.c ****   t *= 8;
 153:..\..\..\u8g2\u8g2\csrc/u8g2_setup.c ****   u8g2->pixel_buf_width = t;
 154:..\..\..\u8g2\u8g2\csrc/u8g2_setup.c ****   
 155:..\..\..\u8g2\u8g2\csrc/u8g2_setup.c ****   t = u8g2->tile_curr_row;
  53              		.loc 1 155 0
  54 0010 90F83940 		ldrb	r4, [r0, #57]	@ zero_extendqisi2
 153:..\..\..\u8g2\u8g2\csrc/u8g2_setup.c ****   
  55              		.loc 1 153 0
  56 0014 DB00     		lsls	r3, r3, #3
  57              	.LVL4:
  58              		.loc 1 155 0
  59 0016 A6B2     		uxth	r6, r4
  60              	.LVL5:
 153:..\..\..\u8g2\u8g2\csrc/u8g2_setup.c ****   
  61              		.loc 1 153 0
  62 0018 4387     		strh	r3, [r0, #58]	@ movhi
 156:..\..\..\u8g2\u8g2\csrc/u8g2_setup.c ****   t *= 8;
  63              		.loc 1 156 0
  64 001a F300     		lsls	r3, r6, #3
  65              	.LVL6:
 157:..\..\..\u8g2\u8g2\csrc/u8g2_setup.c ****   u8g2->pixel_curr_row = t;
  66              		.loc 1 157 0
  67 001c C387     		strh	r3, [r0, #62]	@ movhi
  68              	.LVL7:
ARM GAS  C:\Users\jesse\AppData\Local\Temp\ccFqRpqp.s 			page 5


 158:..\..\..\u8g2\u8g2\csrc/u8g2_setup.c ****   
 159:..\..\..\u8g2\u8g2\csrc/u8g2_setup.c ****   t = u8g2->tile_buf_height;
 160:..\..\..\u8g2\u8g2\csrc/u8g2_setup.c ****   /* handle the case, where the buffer is larger than the (remaining) part of the display */
 161:..\..\..\u8g2\u8g2\csrc/u8g2_setup.c ****   if ( t + u8g2->tile_curr_row > display_info->tile_height )
  69              		.loc 1 161 0
  70 001e 517C     		ldrb	r1, [r2, #17]	@ zero_extendqisi2
  71 0020 3C44     		add	r4, r4, r7
  72 0022 8C42     		cmp	r4, r1
 162:..\..\..\u8g2\u8g2\csrc/u8g2_setup.c ****     t = display_info->tile_height - u8g2->tile_curr_row;
  73              		.loc 1 162 0
  74 0024 C4BF     		itt	gt
  75 0026 891B     		subgt	r1, r1, r6
  76 0028 8DB2     		uxthgt	r5, r1
  77              	.LVL8:
 163:..\..\..\u8g2\u8g2\csrc/u8g2_setup.c ****   t *= 8;
 164:..\..\..\u8g2\u8g2\csrc/u8g2_setup.c ****   
 165:..\..\..\u8g2\u8g2\csrc/u8g2_setup.c ****   u8g2->buf_y0 = u8g2->pixel_curr_row;   
  78              		.loc 1 165 0
  79 002a A0F84030 		strh	r3, [r0, #64]	@ movhi
 166:..\..\..\u8g2\u8g2\csrc/u8g2_setup.c ****   u8g2->buf_y1 = u8g2->buf_y0;
 167:..\..\..\u8g2\u8g2\csrc/u8g2_setup.c ****   u8g2->buf_y1 += t;
  80              		.loc 1 167 0
  81 002e 03EBC503 		add	r3, r3, r5, lsl #3
  82 0032 A0F84230 		strh	r3, [r0, #66]	@ movhi
 168:..\..\..\u8g2\u8g2\csrc/u8g2_setup.c **** 
 169:..\..\..\u8g2\u8g2\csrc/u8g2_setup.c ****   
 170:..\..\..\u8g2\u8g2\csrc/u8g2_setup.c **** #ifdef U8G2_16BIT
 171:..\..\..\u8g2\u8g2\csrc/u8g2_setup.c ****   u8g2->width = display_info->pixel_width;
  83              		.loc 1 171 0
  84 0036 938A     		ldrh	r3, [r2, #20]
  85 0038 A0F84430 		strh	r3, [r0, #68]	@ movhi
 172:..\..\..\u8g2\u8g2\csrc/u8g2_setup.c ****   u8g2->height = display_info->pixel_height;
  86              		.loc 1 172 0
  87 003c D38A     		ldrh	r3, [r2, #22]
  88 003e A0F84630 		strh	r3, [r0, #70]	@ movhi
  89 0042 F0BD     		pop	{r4, r5, r6, r7, pc}
  90              		.cfi_endproc
  91              	.LFE5:
  92              		.size	u8g2_update_dimension_common, .-u8g2_update_dimension_common
  93              		.section	.text.u8g2_update_dimension_r2,"ax",%progbits
  94              		.align	1
  95              		.global	u8g2_update_dimension_r2
  96              		.thumb
  97              		.thumb_func
  98              		.type	u8g2_update_dimension_r2, %function
  99              	u8g2_update_dimension_r2:
 100              	.LFB11:
 173:..\..\..\u8g2\u8g2\csrc/u8g2_setup.c **** #else
 174:..\..\..\u8g2\u8g2\csrc/u8g2_setup.c ****   u8g2->width = 240;
 175:..\..\..\u8g2\u8g2\csrc/u8g2_setup.c ****   if ( display_info->pixel_width <= 240 )
 176:..\..\..\u8g2\u8g2\csrc/u8g2_setup.c ****     u8g2->width = display_info->pixel_width;
 177:..\..\..\u8g2\u8g2\csrc/u8g2_setup.c ****   u8g2->height = display_info->pixel_height;
 178:..\..\..\u8g2\u8g2\csrc/u8g2_setup.c **** #endif
 179:..\..\..\u8g2\u8g2\csrc/u8g2_setup.c **** 
 180:..\..\..\u8g2\u8g2\csrc/u8g2_setup.c **** }
 181:..\..\..\u8g2\u8g2\csrc/u8g2_setup.c **** 
 182:..\..\..\u8g2\u8g2\csrc/u8g2_setup.c **** /*==========================================================*/
ARM GAS  C:\Users\jesse\AppData\Local\Temp\ccFqRpqp.s 			page 6


 183:..\..\..\u8g2\u8g2\csrc/u8g2_setup.c **** /* apply clip window */
 184:..\..\..\u8g2\u8g2\csrc/u8g2_setup.c **** 
 185:..\..\..\u8g2\u8g2\csrc/u8g2_setup.c **** #ifdef U8G2_WITH_CLIP_WINDOW_SUPPORT
 186:..\..\..\u8g2\u8g2\csrc/u8g2_setup.c **** static void u8g2_apply_clip_window(u8g2_t *u8g2)
 187:..\..\..\u8g2\u8g2\csrc/u8g2_setup.c **** {
 188:..\..\..\u8g2\u8g2\csrc/u8g2_setup.c ****   /* check aganst the current user_??? window */
 189:..\..\..\u8g2\u8g2\csrc/u8g2_setup.c ****   if ( u8g2_IsIntersection(u8g2, u8g2->clip_x0, u8g2->clip_y0, u8g2->clip_x1, u8g2->clip_y1) == 0 )
 190:..\..\..\u8g2\u8g2\csrc/u8g2_setup.c ****   {
 191:..\..\..\u8g2\u8g2\csrc/u8g2_setup.c ****     u8g2->is_page_clip_window_intersection = 0;
 192:..\..\..\u8g2\u8g2\csrc/u8g2_setup.c ****   }
 193:..\..\..\u8g2\u8g2\csrc/u8g2_setup.c ****   else
 194:..\..\..\u8g2\u8g2\csrc/u8g2_setup.c ****   {
 195:..\..\..\u8g2\u8g2\csrc/u8g2_setup.c ****     u8g2->is_page_clip_window_intersection = 1;
 196:..\..\..\u8g2\u8g2\csrc/u8g2_setup.c **** 
 197:..\..\..\u8g2\u8g2\csrc/u8g2_setup.c ****     if ( u8g2->user_x0 < u8g2->clip_x0 )
 198:..\..\..\u8g2\u8g2\csrc/u8g2_setup.c ****       u8g2->user_x0 = u8g2->clip_x0;
 199:..\..\..\u8g2\u8g2\csrc/u8g2_setup.c ****     if ( u8g2->user_x1 > u8g2->clip_x1 )
 200:..\..\..\u8g2\u8g2\csrc/u8g2_setup.c ****       u8g2->user_x1 = u8g2->clip_x1;
 201:..\..\..\u8g2\u8g2\csrc/u8g2_setup.c ****     if ( u8g2->user_y0 < u8g2->clip_y0 )
 202:..\..\..\u8g2\u8g2\csrc/u8g2_setup.c ****       u8g2->user_y0 = u8g2->clip_y0;
 203:..\..\..\u8g2\u8g2\csrc/u8g2_setup.c ****     if ( u8g2->user_y1 > u8g2->clip_y1 )
 204:..\..\..\u8g2\u8g2\csrc/u8g2_setup.c ****       u8g2->user_y1 = u8g2->clip_y1;
 205:..\..\..\u8g2\u8g2\csrc/u8g2_setup.c ****   }
 206:..\..\..\u8g2\u8g2\csrc/u8g2_setup.c **** }
 207:..\..\..\u8g2\u8g2\csrc/u8g2_setup.c **** #endif /* U8G2_WITH_CLIP_WINDOW_SUPPORT */
 208:..\..\..\u8g2\u8g2\csrc/u8g2_setup.c **** 
 209:..\..\..\u8g2\u8g2\csrc/u8g2_setup.c **** /*==========================================================*/
 210:..\..\..\u8g2\u8g2\csrc/u8g2_setup.c **** 
 211:..\..\..\u8g2\u8g2\csrc/u8g2_setup.c **** 
 212:..\..\..\u8g2\u8g2\csrc/u8g2_setup.c **** void u8g2_update_dimension_r0(u8g2_t *u8g2)
 213:..\..\..\u8g2\u8g2\csrc/u8g2_setup.c **** {
 214:..\..\..\u8g2\u8g2\csrc/u8g2_setup.c ****   u8g2_update_dimension_common(u8g2);  
 215:..\..\..\u8g2\u8g2\csrc/u8g2_setup.c **** }
 216:..\..\..\u8g2\u8g2\csrc/u8g2_setup.c **** 
 217:..\..\..\u8g2\u8g2\csrc/u8g2_setup.c **** void u8g2_update_page_win_r0(u8g2_t *u8g2)
 218:..\..\..\u8g2\u8g2\csrc/u8g2_setup.c **** {
 219:..\..\..\u8g2\u8g2\csrc/u8g2_setup.c ****   u8g2->user_x0 = 0;
 220:..\..\..\u8g2\u8g2\csrc/u8g2_setup.c ****   u8g2->user_x1 = u8g2->width;			/* pixel_buf_width replaced with width */
 221:..\..\..\u8g2\u8g2\csrc/u8g2_setup.c ****   
 222:..\..\..\u8g2\u8g2\csrc/u8g2_setup.c ****   u8g2->user_y0 = u8g2->buf_y0;
 223:..\..\..\u8g2\u8g2\csrc/u8g2_setup.c ****   u8g2->user_y1 = u8g2->buf_y1;
 224:..\..\..\u8g2\u8g2\csrc/u8g2_setup.c ****   
 225:..\..\..\u8g2\u8g2\csrc/u8g2_setup.c **** #ifdef U8G2_WITH_CLIP_WINDOW_SUPPORT
 226:..\..\..\u8g2\u8g2\csrc/u8g2_setup.c ****   u8g2_apply_clip_window(u8g2);
 227:..\..\..\u8g2\u8g2\csrc/u8g2_setup.c **** #endif /* U8G2_WITH_CLIP_WINDOW_SUPPORT */
 228:..\..\..\u8g2\u8g2\csrc/u8g2_setup.c **** }
 229:..\..\..\u8g2\u8g2\csrc/u8g2_setup.c **** 
 230:..\..\..\u8g2\u8g2\csrc/u8g2_setup.c **** 
 231:..\..\..\u8g2\u8g2\csrc/u8g2_setup.c **** void u8g2_update_dimension_r1(u8g2_t *u8g2)
 232:..\..\..\u8g2\u8g2\csrc/u8g2_setup.c **** {
 233:..\..\..\u8g2\u8g2\csrc/u8g2_setup.c ****   u8g2_update_dimension_common(u8g2);
 234:..\..\..\u8g2\u8g2\csrc/u8g2_setup.c ****   
 235:..\..\..\u8g2\u8g2\csrc/u8g2_setup.c ****   u8g2->height = u8g2_GetU8x8(u8g2)->display_info->pixel_width;
 236:..\..\..\u8g2\u8g2\csrc/u8g2_setup.c ****   u8g2->width = u8g2_GetU8x8(u8g2)->display_info->pixel_height;
 237:..\..\..\u8g2\u8g2\csrc/u8g2_setup.c ****   
 238:..\..\..\u8g2\u8g2\csrc/u8g2_setup.c **** }
 239:..\..\..\u8g2\u8g2\csrc/u8g2_setup.c **** 
ARM GAS  C:\Users\jesse\AppData\Local\Temp\ccFqRpqp.s 			page 7


 240:..\..\..\u8g2\u8g2\csrc/u8g2_setup.c **** void u8g2_update_page_win_r1(u8g2_t *u8g2)
 241:..\..\..\u8g2\u8g2\csrc/u8g2_setup.c **** {
 242:..\..\..\u8g2\u8g2\csrc/u8g2_setup.c ****   u8g2->user_x0 = u8g2->buf_y0;
 243:..\..\..\u8g2\u8g2\csrc/u8g2_setup.c ****   u8g2->user_x1 = u8g2->buf_y1;
 244:..\..\..\u8g2\u8g2\csrc/u8g2_setup.c ****   
 245:..\..\..\u8g2\u8g2\csrc/u8g2_setup.c ****   u8g2->user_y0 = 0;
 246:..\..\..\u8g2\u8g2\csrc/u8g2_setup.c ****   u8g2->user_y1 = u8g2->height;	/* pixel_buf_width replaced with height (which is the real pixel wi
 247:..\..\..\u8g2\u8g2\csrc/u8g2_setup.c ****   
 248:..\..\..\u8g2\u8g2\csrc/u8g2_setup.c **** #ifdef U8G2_WITH_CLIP_WINDOW_SUPPORT
 249:..\..\..\u8g2\u8g2\csrc/u8g2_setup.c ****   u8g2_apply_clip_window(u8g2);
 250:..\..\..\u8g2\u8g2\csrc/u8g2_setup.c **** #endif /* U8G2_WITH_CLIP_WINDOW_SUPPORT */
 251:..\..\..\u8g2\u8g2\csrc/u8g2_setup.c **** }
 252:..\..\..\u8g2\u8g2\csrc/u8g2_setup.c **** 
 253:..\..\..\u8g2\u8g2\csrc/u8g2_setup.c **** void u8g2_update_dimension_r2(u8g2_t *u8g2)
 254:..\..\..\u8g2\u8g2\csrc/u8g2_setup.c **** {
 101              		.loc 1 254 0
 102              		.cfi_startproc
 103              		@ args = 0, pretend = 0, frame = 0
 104              		@ frame_needed = 0, uses_anonymous_args = 0
 105              		@ link register save eliminated.
 106              	.LVL9:
 255:..\..\..\u8g2\u8g2\csrc/u8g2_setup.c ****   u8g2_update_dimension_common(u8g2);
 107              		.loc 1 255 0
 108 0000 FFF7FEBF 		b	u8g2_update_dimension_common
 109              	.LVL10:
 110              		.cfi_endproc
 111              	.LFE11:
 112              		.size	u8g2_update_dimension_r2, .-u8g2_update_dimension_r2
 113              		.section	.text.u8g2_update_dimension_r3,"ax",%progbits
 114              		.align	1
 115              		.global	u8g2_update_dimension_r3
 116              		.thumb
 117              		.thumb_func
 118              		.type	u8g2_update_dimension_r3, %function
 119              	u8g2_update_dimension_r3:
 120              	.LFB13:
 256:..\..\..\u8g2\u8g2\csrc/u8g2_setup.c **** }
 257:..\..\..\u8g2\u8g2\csrc/u8g2_setup.c **** 
 258:..\..\..\u8g2\u8g2\csrc/u8g2_setup.c **** void u8g2_update_page_win_r2(u8g2_t *u8g2)
 259:..\..\..\u8g2\u8g2\csrc/u8g2_setup.c **** {
 260:..\..\..\u8g2\u8g2\csrc/u8g2_setup.c ****   u8g2->user_x0 = 0;
 261:..\..\..\u8g2\u8g2\csrc/u8g2_setup.c ****   u8g2->user_x1 = u8g2->width;	/* pixel_buf_width replaced with width */
 262:..\..\..\u8g2\u8g2\csrc/u8g2_setup.c ****   
 263:..\..\..\u8g2\u8g2\csrc/u8g2_setup.c ****   /* there are ases where the height is not a multiple of 8. */
 264:..\..\..\u8g2\u8g2\csrc/u8g2_setup.c ****   /* in such a case u8g2->buf_y1 might be heigher than u8g2->height */
 265:..\..\..\u8g2\u8g2\csrc/u8g2_setup.c ****   u8g2->user_y0 = 0;
 266:..\..\..\u8g2\u8g2\csrc/u8g2_setup.c ****   if ( u8g2->height >= u8g2->buf_y1 )
 267:..\..\..\u8g2\u8g2\csrc/u8g2_setup.c ****     u8g2->user_y0 = u8g2->height - u8g2->buf_y1;
 268:..\..\..\u8g2\u8g2\csrc/u8g2_setup.c ****   u8g2->user_y1 = u8g2->height - u8g2->buf_y0;
 269:..\..\..\u8g2\u8g2\csrc/u8g2_setup.c **** 
 270:..\..\..\u8g2\u8g2\csrc/u8g2_setup.c **** #ifdef U8G2_WITH_CLIP_WINDOW_SUPPORT
 271:..\..\..\u8g2\u8g2\csrc/u8g2_setup.c ****   u8g2_apply_clip_window(u8g2);
 272:..\..\..\u8g2\u8g2\csrc/u8g2_setup.c **** #endif /* U8G2_WITH_CLIP_WINDOW_SUPPORT */
 273:..\..\..\u8g2\u8g2\csrc/u8g2_setup.c **** }
 274:..\..\..\u8g2\u8g2\csrc/u8g2_setup.c **** 
 275:..\..\..\u8g2\u8g2\csrc/u8g2_setup.c **** 
 276:..\..\..\u8g2\u8g2\csrc/u8g2_setup.c **** void u8g2_update_dimension_r3(u8g2_t *u8g2)
ARM GAS  C:\Users\jesse\AppData\Local\Temp\ccFqRpqp.s 			page 8


 277:..\..\..\u8g2\u8g2\csrc/u8g2_setup.c **** {
 121              		.loc 1 277 0
 122              		.cfi_startproc
 123              		@ args = 0, pretend = 0, frame = 0
 124              		@ frame_needed = 0, uses_anonymous_args = 0
 125              	.LVL11:
 126 0000 10B5     		push	{r4, lr}
 127              		.cfi_def_cfa_offset 8
 128              		.cfi_offset 4, -8
 129              		.cfi_offset 14, -4
 278:..\..\..\u8g2\u8g2\csrc/u8g2_setup.c ****   u8g2_update_dimension_common(u8g2);
 130              		.loc 1 278 0
 131 0002 FFF7FEFF 		bl	u8g2_update_dimension_common
 132              	.LVL12:
 279:..\..\..\u8g2\u8g2\csrc/u8g2_setup.c ****   
 280:..\..\..\u8g2\u8g2\csrc/u8g2_setup.c ****   u8g2->height = u8g2_GetU8x8(u8g2)->display_info->pixel_width;
 133              		.loc 1 280 0
 134 0006 0368     		ldr	r3, [r0]
 135 0008 9A8A     		ldrh	r2, [r3, #20]
 281:..\..\..\u8g2\u8g2\csrc/u8g2_setup.c ****   u8g2->width = u8g2_GetU8x8(u8g2)->display_info->pixel_height;
 136              		.loc 1 281 0
 137 000a DB8A     		ldrh	r3, [r3, #22]
 280:..\..\..\u8g2\u8g2\csrc/u8g2_setup.c ****   u8g2->width = u8g2_GetU8x8(u8g2)->display_info->pixel_height;
 138              		.loc 1 280 0
 139 000c A0F84620 		strh	r2, [r0, #70]	@ movhi
 140              		.loc 1 281 0
 141 0010 A0F84430 		strh	r3, [r0, #68]	@ movhi
 142 0014 10BD     		pop	{r4, pc}
 143              		.cfi_endproc
 144              	.LFE13:
 145              		.size	u8g2_update_dimension_r3, .-u8g2_update_dimension_r3
 146              		.section	.text.u8g2_update_dimension_r1,"ax",%progbits
 147              		.align	1
 148              		.global	u8g2_update_dimension_r1
 149              		.thumb
 150              		.thumb_func
 151              		.type	u8g2_update_dimension_r1, %function
 152              	u8g2_update_dimension_r1:
 153              	.LFB24:
 154              		.cfi_startproc
 155              		@ args = 0, pretend = 0, frame = 0
 156              		@ frame_needed = 0, uses_anonymous_args = 0
 157              		@ link register save eliminated.
 158 0000 FFF7FEBF 		b	u8g2_update_dimension_r3
 159              		.cfi_endproc
 160              	.LFE24:
 161              		.size	u8g2_update_dimension_r1, .-u8g2_update_dimension_r1
 162              		.section	.text.u8g2_draw_l90_r0,"ax",%progbits
 163              		.align	1
 164              		.global	u8g2_draw_l90_r0
 165              		.thumb
 166              		.thumb_func
 167              		.type	u8g2_draw_l90_r0, %function
 168              	u8g2_draw_l90_r0:
 169              	.LFB15:
 282:..\..\..\u8g2\u8g2\csrc/u8g2_setup.c **** 
 283:..\..\..\u8g2\u8g2\csrc/u8g2_setup.c **** }
ARM GAS  C:\Users\jesse\AppData\Local\Temp\ccFqRpqp.s 			page 9


 284:..\..\..\u8g2\u8g2\csrc/u8g2_setup.c **** 
 285:..\..\..\u8g2\u8g2\csrc/u8g2_setup.c **** void u8g2_update_page_win_r3(u8g2_t *u8g2)
 286:..\..\..\u8g2\u8g2\csrc/u8g2_setup.c **** {
 287:..\..\..\u8g2\u8g2\csrc/u8g2_setup.c ****   /* there are ases where the height is not a multiple of 8. */
 288:..\..\..\u8g2\u8g2\csrc/u8g2_setup.c ****   /* in such a case u8g2->buf_y1 might be heigher than u8g2->width */
 289:..\..\..\u8g2\u8g2\csrc/u8g2_setup.c ****   u8g2->user_x0 = 0;
 290:..\..\..\u8g2\u8g2\csrc/u8g2_setup.c ****   if ( u8g2->width >= u8g2->buf_y1 )
 291:..\..\..\u8g2\u8g2\csrc/u8g2_setup.c ****     u8g2->user_x0 = u8g2->width - u8g2->buf_y1;
 292:..\..\..\u8g2\u8g2\csrc/u8g2_setup.c ****   u8g2->user_x1 = u8g2->width - u8g2->buf_y0;
 293:..\..\..\u8g2\u8g2\csrc/u8g2_setup.c ****   
 294:..\..\..\u8g2\u8g2\csrc/u8g2_setup.c ****   u8g2->user_y0 = 0;
 295:..\..\..\u8g2\u8g2\csrc/u8g2_setup.c ****   u8g2->user_y1 = u8g2->height;	/* pixel_buf_width replaced with height (pixel_width) */
 296:..\..\..\u8g2\u8g2\csrc/u8g2_setup.c **** 
 297:..\..\..\u8g2\u8g2\csrc/u8g2_setup.c **** #ifdef U8G2_WITH_CLIP_WINDOW_SUPPORT
 298:..\..\..\u8g2\u8g2\csrc/u8g2_setup.c ****   u8g2_apply_clip_window(u8g2);
 299:..\..\..\u8g2\u8g2\csrc/u8g2_setup.c **** #endif /* U8G2_WITH_CLIP_WINDOW_SUPPORT */
 300:..\..\..\u8g2\u8g2\csrc/u8g2_setup.c **** }
 301:..\..\..\u8g2\u8g2\csrc/u8g2_setup.c **** 
 302:..\..\..\u8g2\u8g2\csrc/u8g2_setup.c **** 
 303:..\..\..\u8g2\u8g2\csrc/u8g2_setup.c **** /*============================================*/
 304:..\..\..\u8g2\u8g2\csrc/u8g2_setup.c **** extern void u8g2_draw_hv_line_2dir(u8g2_t *u8g2, u8g2_uint_t x, u8g2_uint_t y, u8g2_uint_t len, uin
 305:..\..\..\u8g2\u8g2\csrc/u8g2_setup.c **** 
 306:..\..\..\u8g2\u8g2\csrc/u8g2_setup.c **** 
 307:..\..\..\u8g2\u8g2\csrc/u8g2_setup.c **** void u8g2_draw_l90_r0(u8g2_t *u8g2, u8g2_uint_t x, u8g2_uint_t y, u8g2_uint_t len, uint8_t dir)
 308:..\..\..\u8g2\u8g2\csrc/u8g2_setup.c **** {
 170              		.loc 1 308 0
 171              		.cfi_startproc
 172              		@ args = 4, pretend = 0, frame = 0
 173              		@ frame_needed = 0, uses_anonymous_args = 0
 174              		@ link register save eliminated.
 175              	.LVL13:
 176              		.loc 1 308 0
 177 0000 10B4     		push	{r4}
 178              		.cfi_def_cfa_offset 4
 179              		.cfi_offset 4, -4
 180              		.loc 1 308 0
 181 0002 9DF80440 		ldrb	r4, [sp, #4]	@ zero_extendqisi2
 309:..\..\..\u8g2\u8g2\csrc/u8g2_setup.c **** #ifdef __unix
 310:..\..\..\u8g2\u8g2\csrc/u8g2_setup.c ****   assert( dir <= 1 );
 311:..\..\..\u8g2\u8g2\csrc/u8g2_setup.c **** #endif
 312:..\..\..\u8g2\u8g2\csrc/u8g2_setup.c ****   u8g2_draw_hv_line_2dir(u8g2, x, y, len, dir);
 182              		.loc 1 312 0
 183 0006 0194     		str	r4, [sp, #4]
 184              	.LVL14:
 313:..\..\..\u8g2\u8g2\csrc/u8g2_setup.c **** }
 185              		.loc 1 313 0
 186 0008 10BC     		pop	{r4}
 187              		.cfi_restore 4
 188              		.cfi_def_cfa_offset 0
 312:..\..\..\u8g2\u8g2\csrc/u8g2_setup.c **** }
 189              		.loc 1 312 0
 190 000a FFF7FEBF 		b	u8g2_draw_hv_line_2dir
 191              	.LVL15:
 192              		.cfi_endproc
 193              	.LFE15:
 194              		.size	u8g2_draw_l90_r0, .-u8g2_draw_l90_r0
 195              		.section	.text.u8g2_draw_l90_mirrorr_r0,"ax",%progbits
ARM GAS  C:\Users\jesse\AppData\Local\Temp\ccFqRpqp.s 			page 10


 196              		.align	1
 197              		.global	u8g2_draw_l90_mirrorr_r0
 198              		.thumb
 199              		.thumb_func
 200              		.type	u8g2_draw_l90_mirrorr_r0, %function
 201              	u8g2_draw_l90_mirrorr_r0:
 202              	.LFB16:
 314:..\..\..\u8g2\u8g2\csrc/u8g2_setup.c **** 
 315:..\..\..\u8g2\u8g2\csrc/u8g2_setup.c **** void u8g2_draw_l90_mirrorr_r0(u8g2_t *u8g2, u8g2_uint_t x, u8g2_uint_t y, u8g2_uint_t len, uint8_t 
 316:..\..\..\u8g2\u8g2\csrc/u8g2_setup.c **** {
 203              		.loc 1 316 0
 204              		.cfi_startproc
 205              		@ args = 4, pretend = 0, frame = 0
 206              		@ frame_needed = 0, uses_anonymous_args = 0
 207              		@ link register save eliminated.
 208              	.LVL16:
 209 0000 30B4     		push	{r4, r5}
 210              		.cfi_def_cfa_offset 8
 211              		.cfi_offset 4, -8
 212              		.cfi_offset 5, -4
 317:..\..\..\u8g2\u8g2\csrc/u8g2_setup.c ****   u8g2_uint_t xx;
 318:..\..\..\u8g2\u8g2\csrc/u8g2_setup.c ****   xx = u8g2->width;
 213              		.loc 1 318 0
 214 0002 B0F84440 		ldrh	r4, [r0, #68]
 215              	.LVL17:
 316:..\..\..\u8g2\u8g2\csrc/u8g2_setup.c ****   u8g2_uint_t xx;
 216              		.loc 1 316 0
 217 0006 9DF80850 		ldrb	r5, [sp, #8]	@ zero_extendqisi2
 319:..\..\..\u8g2\u8g2\csrc/u8g2_setup.c ****   xx -= x;
 218              		.loc 1 319 0
 219 000a 611A     		subs	r1, r4, r1
 220              	.LVL18:
 221 000c 89B2     		uxth	r1, r1
 222              	.LVL19:
 320:..\..\..\u8g2\u8g2\csrc/u8g2_setup.c ****   if ( (dir & 1) == 0 )
 223              		.loc 1 320 0
 224 000e EC07     		lsls	r4, r5, #31
 321:..\..\..\u8g2\u8g2\csrc/u8g2_setup.c ****   {
 322:..\..\..\u8g2\u8g2\csrc/u8g2_setup.c ****     xx -= len;
 225              		.loc 1 322 0
 226 0010 54BF     		ite	pl
 227 0012 C91A     		subpl	r1, r1, r3
 228              	.LVL20:
 323:..\..\..\u8g2\u8g2\csrc/u8g2_setup.c ****   }
 324:..\..\..\u8g2\u8g2\csrc/u8g2_setup.c ****   else
 325:..\..\..\u8g2\u8g2\csrc/u8g2_setup.c ****   {
 326:..\..\..\u8g2\u8g2\csrc/u8g2_setup.c ****     xx--;
 229              		.loc 1 326 0
 230 0014 01F1FF31 		addmi	r1, r1, #-1
 327:..\..\..\u8g2\u8g2\csrc/u8g2_setup.c ****   }
 328:..\..\..\u8g2\u8g2\csrc/u8g2_setup.c ****   u8g2_draw_hv_line_2dir(u8g2, xx, y, len, dir);
 231              		.loc 1 328 0
 232 0018 0295     		str	r5, [sp, #8]
 233              	.LVL21:
 326:..\..\..\u8g2\u8g2\csrc/u8g2_setup.c ****   }
 234              		.loc 1 326 0
 235 001a 89B2     		uxth	r1, r1
ARM GAS  C:\Users\jesse\AppData\Local\Temp\ccFqRpqp.s 			page 11


 236              	.LVL22:
 329:..\..\..\u8g2\u8g2\csrc/u8g2_setup.c **** }
 237              		.loc 1 329 0
 238 001c 30BC     		pop	{r4, r5}
 239              		.cfi_restore 5
 240              		.cfi_restore 4
 241              		.cfi_def_cfa_offset 0
 328:..\..\..\u8g2\u8g2\csrc/u8g2_setup.c **** }
 242              		.loc 1 328 0
 243 001e FFF7FEBF 		b	u8g2_draw_hv_line_2dir
 244              	.LVL23:
 245              		.cfi_endproc
 246              	.LFE16:
 247              		.size	u8g2_draw_l90_mirrorr_r0, .-u8g2_draw_l90_mirrorr_r0
 248              		.section	.text.u8g2_draw_mirror_vertical_r0,"ax",%progbits
 249              		.align	1
 250              		.global	u8g2_draw_mirror_vertical_r0
 251              		.thumb
 252              		.thumb_func
 253              		.type	u8g2_draw_mirror_vertical_r0, %function
 254              	u8g2_draw_mirror_vertical_r0:
 255              	.LFB17:
 330:..\..\..\u8g2\u8g2\csrc/u8g2_setup.c **** 
 331:..\..\..\u8g2\u8g2\csrc/u8g2_setup.c **** void u8g2_draw_mirror_vertical_r0(u8g2_t *u8g2, u8g2_uint_t x, u8g2_uint_t y, u8g2_uint_t len, uint
 332:..\..\..\u8g2\u8g2\csrc/u8g2_setup.c **** {
 256              		.loc 1 332 0
 257              		.cfi_startproc
 258              		@ args = 4, pretend = 0, frame = 0
 259              		@ frame_needed = 0, uses_anonymous_args = 0
 260              		@ link register save eliminated.
 261              	.LVL24:
 262 0000 30B4     		push	{r4, r5}
 263              		.cfi_def_cfa_offset 8
 264              		.cfi_offset 4, -8
 265              		.cfi_offset 5, -4
 333:..\..\..\u8g2\u8g2\csrc/u8g2_setup.c ****   u8g2_uint_t yy;
 334:..\..\..\u8g2\u8g2\csrc/u8g2_setup.c ****   yy = u8g2->height;
 266              		.loc 1 334 0
 267 0002 B0F84640 		ldrh	r4, [r0, #70]
 268              	.LVL25:
 332:..\..\..\u8g2\u8g2\csrc/u8g2_setup.c ****   u8g2_uint_t yy;
 269              		.loc 1 332 0
 270 0006 9DF80850 		ldrb	r5, [sp, #8]	@ zero_extendqisi2
 335:..\..\..\u8g2\u8g2\csrc/u8g2_setup.c ****   yy -= y;
 271              		.loc 1 335 0
 272 000a A21A     		subs	r2, r4, r2
 273              	.LVL26:
 274 000c 92B2     		uxth	r2, r2
 275              	.LVL27:
 336:..\..\..\u8g2\u8g2\csrc/u8g2_setup.c ****   if ( (dir & 1) == 1 )
 276              		.loc 1 336 0
 277 000e EC07     		lsls	r4, r5, #31
 337:..\..\..\u8g2\u8g2\csrc/u8g2_setup.c ****   {
 338:..\..\..\u8g2\u8g2\csrc/u8g2_setup.c ****     yy -= len;
 278              		.loc 1 338 0
 279 0010 4CBF     		ite	mi
 280 0012 D21A     		submi	r2, r2, r3
ARM GAS  C:\Users\jesse\AppData\Local\Temp\ccFqRpqp.s 			page 12


 281              	.LVL28:
 339:..\..\..\u8g2\u8g2\csrc/u8g2_setup.c ****   }
 340:..\..\..\u8g2\u8g2\csrc/u8g2_setup.c ****   else
 341:..\..\..\u8g2\u8g2\csrc/u8g2_setup.c ****   {
 342:..\..\..\u8g2\u8g2\csrc/u8g2_setup.c ****     yy--;
 282              		.loc 1 342 0
 283 0014 02F1FF32 		addpl	r2, r2, #-1
 343:..\..\..\u8g2\u8g2\csrc/u8g2_setup.c ****   }
 344:..\..\..\u8g2\u8g2\csrc/u8g2_setup.c ****   u8g2_draw_hv_line_2dir(u8g2, x, yy, len, dir);
 284              		.loc 1 344 0
 285 0018 0295     		str	r5, [sp, #8]
 286              	.LVL29:
 342:..\..\..\u8g2\u8g2\csrc/u8g2_setup.c ****   }
 287              		.loc 1 342 0
 288 001a 92B2     		uxth	r2, r2
 289              	.LVL30:
 345:..\..\..\u8g2\u8g2\csrc/u8g2_setup.c **** }
 290              		.loc 1 345 0
 291 001c 30BC     		pop	{r4, r5}
 292              		.cfi_restore 5
 293              		.cfi_restore 4
 294              		.cfi_def_cfa_offset 0
 344:..\..\..\u8g2\u8g2\csrc/u8g2_setup.c **** }
 295              		.loc 1 344 0
 296 001e FFF7FEBF 		b	u8g2_draw_hv_line_2dir
 297              	.LVL31:
 298              		.cfi_endproc
 299              	.LFE17:
 300              		.size	u8g2_draw_mirror_vertical_r0, .-u8g2_draw_mirror_vertical_r0
 301              		.section	.text.u8g2_draw_l90_r1,"ax",%progbits
 302              		.align	1
 303              		.global	u8g2_draw_l90_r1
 304              		.thumb
 305              		.thumb_func
 306              		.type	u8g2_draw_l90_r1, %function
 307              	u8g2_draw_l90_r1:
 308              	.LFB18:
 346:..\..\..\u8g2\u8g2\csrc/u8g2_setup.c **** 
 347:..\..\..\u8g2\u8g2\csrc/u8g2_setup.c **** /* dir = 0 or 1 */
 348:..\..\..\u8g2\u8g2\csrc/u8g2_setup.c **** void u8g2_draw_l90_r1(u8g2_t *u8g2, u8g2_uint_t x, u8g2_uint_t y, u8g2_uint_t len, uint8_t dir)
 349:..\..\..\u8g2\u8g2\csrc/u8g2_setup.c **** {
 309              		.loc 1 349 0
 310              		.cfi_startproc
 311              		@ args = 4, pretend = 0, frame = 0
 312              		@ frame_needed = 0, uses_anonymous_args = 0
 313              		@ link register save eliminated.
 314              	.LVL32:
 315 0000 30B4     		push	{r4, r5}
 316              		.cfi_def_cfa_offset 8
 317              		.cfi_offset 4, -8
 318              		.cfi_offset 5, -4
 319 0002 B0F84640 		ldrh	r4, [r0, #70]
 320              		.loc 1 349 0
 321 0006 9DF80850 		ldrb	r5, [sp, #8]	@ zero_extendqisi2
 322 000a 013C     		subs	r4, r4, #1
 350:..\..\..\u8g2\u8g2\csrc/u8g2_setup.c ****   u8g2_uint_t xx, yy;
 351:..\..\..\u8g2\u8g2\csrc/u8g2_setup.c **** 
ARM GAS  C:\Users\jesse\AppData\Local\Temp\ccFqRpqp.s 			page 13


 352:..\..\..\u8g2\u8g2\csrc/u8g2_setup.c **** #ifdef __unix
 353:..\..\..\u8g2\u8g2\csrc/u8g2_setup.c ****   assert( dir <= 1 );
 354:..\..\..\u8g2\u8g2\csrc/u8g2_setup.c **** #endif
 355:..\..\..\u8g2\u8g2\csrc/u8g2_setup.c ****   
 356:..\..\..\u8g2\u8g2\csrc/u8g2_setup.c ****   yy = x;
 357:..\..\..\u8g2\u8g2\csrc/u8g2_setup.c ****   
 358:..\..\..\u8g2\u8g2\csrc/u8g2_setup.c ****   xx = u8g2->height;
 359:..\..\..\u8g2\u8g2\csrc/u8g2_setup.c ****   xx -= y;
 360:..\..\..\u8g2\u8g2\csrc/u8g2_setup.c ****   xx--;
 323              		.loc 1 360 0
 324 000c A21A     		subs	r2, r4, r2
 325              	.LVL33:
 326 000e 94B2     		uxth	r4, r2
 327              	.LVL34:
 361:..\..\..\u8g2\u8g2\csrc/u8g2_setup.c ****   
 362:..\..\..\u8g2\u8g2\csrc/u8g2_setup.c ****   dir ++;
 328              		.loc 1 362 0
 329 0010 6A1C     		adds	r2, r5, #1
 330 0012 D2B2     		uxtb	r2, r2
 331              	.LVL35:
 363:..\..\..\u8g2\u8g2\csrc/u8g2_setup.c ****   if ( dir == 2 )
 332              		.loc 1 363 0
 333 0014 022A     		cmp	r2, #2
 334              	.LVL36:
 364:..\..\..\u8g2\u8g2\csrc/u8g2_setup.c ****   {
 365:..\..\..\u8g2\u8g2\csrc/u8g2_setup.c ****     xx -= len;
 366:..\..\..\u8g2\u8g2\csrc/u8g2_setup.c ****     xx++;
 335              		.loc 1 366 0
 336 0016 01BF     		itttt	eq
 337 0018 C3F10102 		rsbeq	r2, r3, #1
 338              	.LVL37:
 339 001c A418     		addeq	r4, r4, r2
 340              	.LVL38:
 341 001e A4B2     		uxtheq	r4, r4
 342              	.LVL39:
 367:..\..\..\u8g2\u8g2\csrc/u8g2_setup.c ****     dir = 0;
 343              		.loc 1 367 0
 344 0020 0022     		moveq	r2, #0
 345              	.LVL40:
 368:..\..\..\u8g2\u8g2\csrc/u8g2_setup.c ****   }
 369:..\..\..\u8g2\u8g2\csrc/u8g2_setup.c ****   
 370:..\..\..\u8g2\u8g2\csrc/u8g2_setup.c ****   u8g2_draw_hv_line_2dir(u8g2, xx, yy, len, dir);
 346              		.loc 1 370 0
 347 0022 0292     		str	r2, [sp, #8]
 348 0024 0A46     		mov	r2, r1
 349              	.LVL41:
 350 0026 2146     		mov	r1, r4
 351              	.LVL42:
 371:..\..\..\u8g2\u8g2\csrc/u8g2_setup.c **** }
 352              		.loc 1 371 0
 353 0028 30BC     		pop	{r4, r5}
 354              		.cfi_restore 5
 355              		.cfi_restore 4
 356              		.cfi_def_cfa_offset 0
 357              	.LVL43:
 370:..\..\..\u8g2\u8g2\csrc/u8g2_setup.c **** }
 358              		.loc 1 370 0
ARM GAS  C:\Users\jesse\AppData\Local\Temp\ccFqRpqp.s 			page 14


 359 002a FFF7FEBF 		b	u8g2_draw_hv_line_2dir
 360              	.LVL44:
 361              		.cfi_endproc
 362              	.LFE18:
 363              		.size	u8g2_draw_l90_r1, .-u8g2_draw_l90_r1
 364              		.section	.text.u8g2_draw_l90_r2,"ax",%progbits
 365              		.align	1
 366              		.global	u8g2_draw_l90_r2
 367              		.thumb
 368              		.thumb_func
 369              		.type	u8g2_draw_l90_r2, %function
 370              	u8g2_draw_l90_r2:
 371              	.LFB19:
 372:..\..\..\u8g2\u8g2\csrc/u8g2_setup.c **** 
 373:..\..\..\u8g2\u8g2\csrc/u8g2_setup.c **** void u8g2_draw_l90_r2(u8g2_t *u8g2, u8g2_uint_t x, u8g2_uint_t y, u8g2_uint_t len, uint8_t dir)
 374:..\..\..\u8g2\u8g2\csrc/u8g2_setup.c **** {
 372              		.loc 1 374 0
 373              		.cfi_startproc
 374              		@ args = 4, pretend = 0, frame = 0
 375              		@ frame_needed = 0, uses_anonymous_args = 0
 376              		@ link register save eliminated.
 377              	.LVL45:
 378 0000 30B4     		push	{r4, r5}
 379              		.cfi_def_cfa_offset 8
 380              		.cfi_offset 4, -8
 381              		.cfi_offset 5, -4
 375:..\..\..\u8g2\u8g2\csrc/u8g2_setup.c ****   u8g2_uint_t xx, yy;
 376:..\..\..\u8g2\u8g2\csrc/u8g2_setup.c **** 
 377:..\..\..\u8g2\u8g2\csrc/u8g2_setup.c ****   /*
 378:..\..\..\u8g2\u8g2\csrc/u8g2_setup.c ****   yy = u8g2->height;
 379:..\..\..\u8g2\u8g2\csrc/u8g2_setup.c ****   yy -= y;
 380:..\..\..\u8g2\u8g2\csrc/u8g2_setup.c ****   yy--;
 381:..\..\..\u8g2\u8g2\csrc/u8g2_setup.c ****   
 382:..\..\..\u8g2\u8g2\csrc/u8g2_setup.c ****   xx = u8g2->width;
 383:..\..\..\u8g2\u8g2\csrc/u8g2_setup.c ****   xx -= x;
 384:..\..\..\u8g2\u8g2\csrc/u8g2_setup.c ****   xx--;
 385:..\..\..\u8g2\u8g2\csrc/u8g2_setup.c ****   
 386:..\..\..\u8g2\u8g2\csrc/u8g2_setup.c ****   if ( dir == 0 )
 387:..\..\..\u8g2\u8g2\csrc/u8g2_setup.c ****   {
 388:..\..\..\u8g2\u8g2\csrc/u8g2_setup.c ****     xx -= len;
 389:..\..\..\u8g2\u8g2\csrc/u8g2_setup.c ****     xx++;
 390:..\..\..\u8g2\u8g2\csrc/u8g2_setup.c ****   }
 391:..\..\..\u8g2\u8g2\csrc/u8g2_setup.c ****   else if ( dir == 1 )
 392:..\..\..\u8g2\u8g2\csrc/u8g2_setup.c ****   {
 393:..\..\..\u8g2\u8g2\csrc/u8g2_setup.c ****     yy -= len;
 394:..\..\..\u8g2\u8g2\csrc/u8g2_setup.c ****     yy++;
 395:..\..\..\u8g2\u8g2\csrc/u8g2_setup.c ****   }
 396:..\..\..\u8g2\u8g2\csrc/u8g2_setup.c ****   */
 397:..\..\..\u8g2\u8g2\csrc/u8g2_setup.c **** 
 398:..\..\..\u8g2\u8g2\csrc/u8g2_setup.c ****   yy = u8g2->height;
 382              		.loc 1 398 0
 383 0002 B0F84640 		ldrh	r4, [r0, #70]
 384              	.LVL46:
 374:..\..\..\u8g2\u8g2\csrc/u8g2_setup.c ****   u8g2_uint_t xx, yy;
 385              		.loc 1 374 0
 386 0006 9DF80850 		ldrb	r5, [sp, #8]	@ zero_extendqisi2
 399:..\..\..\u8g2\u8g2\csrc/u8g2_setup.c ****   yy -= y;
ARM GAS  C:\Users\jesse\AppData\Local\Temp\ccFqRpqp.s 			page 15


 387              		.loc 1 399 0
 388 000a A21A     		subs	r2, r4, r2
 389              	.LVL47:
 400:..\..\..\u8g2\u8g2\csrc/u8g2_setup.c ****   
 401:..\..\..\u8g2\u8g2\csrc/u8g2_setup.c ****   xx = u8g2->width;
 390              		.loc 1 401 0
 391 000c B0F84440 		ldrh	r4, [r0, #68]
 392              	.LVL48:
 399:..\..\..\u8g2\u8g2\csrc/u8g2_setup.c ****   yy -= y;
 393              		.loc 1 399 0
 394 0010 92B2     		uxth	r2, r2
 395              	.LVL49:
 402:..\..\..\u8g2\u8g2\csrc/u8g2_setup.c ****   xx -= x;
 396              		.loc 1 402 0
 397 0012 611A     		subs	r1, r4, r1
 398              	.LVL50:
 399 0014 89B2     		uxth	r1, r1
 400              	.LVL51:
 403:..\..\..\u8g2\u8g2\csrc/u8g2_setup.c ****   
 404:..\..\..\u8g2\u8g2\csrc/u8g2_setup.c ****   if ( dir == 0 )
 401              		.loc 1 404 0
 402 0016 25B9     		cbnz	r5, .L18
 405:..\..\..\u8g2\u8g2\csrc/u8g2_setup.c ****   {
 406:..\..\..\u8g2\u8g2\csrc/u8g2_setup.c ****     yy--;
 403              		.loc 1 406 0
 404 0018 013A     		subs	r2, r2, #1
 405              	.LVL52:
 407:..\..\..\u8g2\u8g2\csrc/u8g2_setup.c ****     xx -= len;
 406              		.loc 1 407 0
 407 001a C91A     		subs	r1, r1, r3
 408              	.LVL53:
 406:..\..\..\u8g2\u8g2\csrc/u8g2_setup.c ****     xx -= len;
 409              		.loc 1 406 0
 410 001c 92B2     		uxth	r2, r2
 411              	.LVL54:
 412              		.loc 1 407 0
 413 001e 89B2     		uxth	r1, r1
 414              	.LVL55:
 415 0020 06E0     		b	.L19
 416              	.L18:
 408:..\..\..\u8g2\u8g2\csrc/u8g2_setup.c ****   }
 409:..\..\..\u8g2\u8g2\csrc/u8g2_setup.c ****   else if ( dir == 1 )
 417              		.loc 1 409 0
 418 0022 012D     		cmp	r5, #1
 410:..\..\..\u8g2\u8g2\csrc/u8g2_setup.c ****   {
 411:..\..\..\u8g2\u8g2\csrc/u8g2_setup.c ****     xx--;
 419              		.loc 1 411 0
 420 0024 01BF     		itttt	eq
 421 0026 01F1FF31 		addeq	r1, r1, #-1
 422              	.LVL56:
 412:..\..\..\u8g2\u8g2\csrc/u8g2_setup.c ****     yy -= len;
 423              		.loc 1 412 0
 424 002a D21A     		subeq	r2, r2, r3
 425              	.LVL57:
 411:..\..\..\u8g2\u8g2\csrc/u8g2_setup.c ****     yy -= len;
 426              		.loc 1 411 0
 427 002c 89B2     		uxtheq	r1, r1
ARM GAS  C:\Users\jesse\AppData\Local\Temp\ccFqRpqp.s 			page 16


 428              	.LVL58:
 429              		.loc 1 412 0
 430 002e 92B2     		uxtheq	r2, r2
 431              	.LVL59:
 432              	.L19:
 413:..\..\..\u8g2\u8g2\csrc/u8g2_setup.c ****   }
 414:..\..\..\u8g2\u8g2\csrc/u8g2_setup.c **** 
 415:..\..\..\u8g2\u8g2\csrc/u8g2_setup.c ****   u8g2_draw_hv_line_2dir(u8g2, xx, yy, len, dir);
 433              		.loc 1 415 0
 434 0030 0295     		str	r5, [sp, #8]
 435              	.LVL60:
 416:..\..\..\u8g2\u8g2\csrc/u8g2_setup.c **** }
 436              		.loc 1 416 0
 437 0032 30BC     		pop	{r4, r5}
 438              		.cfi_restore 5
 439              		.cfi_restore 4
 440              		.cfi_def_cfa_offset 0
 415:..\..\..\u8g2\u8g2\csrc/u8g2_setup.c **** }
 441              		.loc 1 415 0
 442 0034 FFF7FEBF 		b	u8g2_draw_hv_line_2dir
 443              	.LVL61:
 444              		.cfi_endproc
 445              	.LFE19:
 446              		.size	u8g2_draw_l90_r2, .-u8g2_draw_l90_r2
 447              		.section	.text.u8g2_draw_l90_r3,"ax",%progbits
 448              		.align	1
 449              		.global	u8g2_draw_l90_r3
 450              		.thumb
 451              		.thumb_func
 452              		.type	u8g2_draw_l90_r3, %function
 453              	u8g2_draw_l90_r3:
 454              	.LFB20:
 417:..\..\..\u8g2\u8g2\csrc/u8g2_setup.c **** 
 418:..\..\..\u8g2\u8g2\csrc/u8g2_setup.c **** void u8g2_draw_l90_r3(u8g2_t *u8g2, u8g2_uint_t x, u8g2_uint_t y, u8g2_uint_t len, uint8_t dir)
 419:..\..\..\u8g2\u8g2\csrc/u8g2_setup.c **** {
 455              		.loc 1 419 0
 456              		.cfi_startproc
 457              		@ args = 4, pretend = 0, frame = 0
 458              		@ frame_needed = 0, uses_anonymous_args = 0
 459              		@ link register save eliminated.
 460              	.LVL62:
 461 0000 30B4     		push	{r4, r5}
 462              		.cfi_def_cfa_offset 8
 463              		.cfi_offset 4, -8
 464              		.cfi_offset 5, -4
 465              		.loc 1 419 0
 466 0002 1446     		mov	r4, r2
 467              	.LVL63:
 420:..\..\..\u8g2\u8g2\csrc/u8g2_setup.c ****   u8g2_uint_t xx, yy;
 421:..\..\..\u8g2\u8g2\csrc/u8g2_setup.c **** 
 422:..\..\..\u8g2\u8g2\csrc/u8g2_setup.c ****   xx = y;
 423:..\..\..\u8g2\u8g2\csrc/u8g2_setup.c ****   
 424:..\..\..\u8g2\u8g2\csrc/u8g2_setup.c ****   yy = u8g2->width;
 468              		.loc 1 424 0
 469 0004 B0F84420 		ldrh	r2, [r0, #68]
 470              	.LVL64:
 419:..\..\..\u8g2\u8g2\csrc/u8g2_setup.c ****   u8g2_uint_t xx, yy;
ARM GAS  C:\Users\jesse\AppData\Local\Temp\ccFqRpqp.s 			page 17


 471              		.loc 1 419 0
 472 0008 9DF80850 		ldrb	r5, [sp, #8]	@ zero_extendqisi2
 425:..\..\..\u8g2\u8g2\csrc/u8g2_setup.c ****   yy -= x;
 473              		.loc 1 425 0
 474 000c 511A     		subs	r1, r2, r1
 475              	.LVL65:
 476 000e 8AB2     		uxth	r2, r1
 477              	.LVL66:
 426:..\..\..\u8g2\u8g2\csrc/u8g2_setup.c ****   
 427:..\..\..\u8g2\u8g2\csrc/u8g2_setup.c ****   if ( dir == 0 )
 478              		.loc 1 427 0
 479 0010 1DB9     		cbnz	r5, .L22
 480              	.LVL67:
 428:..\..\..\u8g2\u8g2\csrc/u8g2_setup.c ****   {
 429:..\..\..\u8g2\u8g2\csrc/u8g2_setup.c ****     yy--;
 430:..\..\..\u8g2\u8g2\csrc/u8g2_setup.c ****     yy -= len;
 431:..\..\..\u8g2\u8g2\csrc/u8g2_setup.c ****     yy++;
 481              		.loc 1 431 0
 482 0012 D21A     		subs	r2, r2, r3
 483              	.LVL68:
 484 0014 92B2     		uxth	r2, r2
 485              	.LVL69:
 432:..\..\..\u8g2\u8g2\csrc/u8g2_setup.c ****     dir = 1;
 486              		.loc 1 432 0
 487 0016 0121     		movs	r1, #1
 488 0018 02E0     		b	.L23
 489              	.LVL70:
 490              	.L22:
 433:..\..\..\u8g2\u8g2\csrc/u8g2_setup.c ****   }
 434:..\..\..\u8g2\u8g2\csrc/u8g2_setup.c ****   else
 435:..\..\..\u8g2\u8g2\csrc/u8g2_setup.c ****   {
 436:..\..\..\u8g2\u8g2\csrc/u8g2_setup.c ****     yy--;
 491              		.loc 1 436 0
 492 001a 013A     		subs	r2, r2, #1
 493              	.LVL71:
 494 001c 92B2     		uxth	r2, r2
 495              	.LVL72:
 437:..\..\..\u8g2\u8g2\csrc/u8g2_setup.c ****     dir = 0;
 496              		.loc 1 437 0
 497 001e 0021     		movs	r1, #0
 498              	.LVL73:
 499              	.L23:
 438:..\..\..\u8g2\u8g2\csrc/u8g2_setup.c ****   }
 439:..\..\..\u8g2\u8g2\csrc/u8g2_setup.c ****   
 440:..\..\..\u8g2\u8g2\csrc/u8g2_setup.c ****   
 441:..\..\..\u8g2\u8g2\csrc/u8g2_setup.c ****   u8g2_draw_hv_line_2dir(u8g2, xx, yy, len, dir);
 500              		.loc 1 441 0
 501 0020 0291     		str	r1, [sp, #8]
 502 0022 2146     		mov	r1, r4
 503              	.LVL74:
 442:..\..\..\u8g2\u8g2\csrc/u8g2_setup.c **** }
 504              		.loc 1 442 0
 505 0024 30BC     		pop	{r4, r5}
 506              		.cfi_restore 5
 507              		.cfi_restore 4
 508              		.cfi_def_cfa_offset 0
 509              	.LVL75:
ARM GAS  C:\Users\jesse\AppData\Local\Temp\ccFqRpqp.s 			page 18


 441:..\..\..\u8g2\u8g2\csrc/u8g2_setup.c **** }
 510              		.loc 1 441 0
 511 0026 FFF7FEBF 		b	u8g2_draw_hv_line_2dir
 512              	.LVL76:
 513              		.cfi_endproc
 514              	.LFE20:
 515              		.size	u8g2_draw_l90_r3, .-u8g2_draw_l90_r3
 516              		.section	.text.u8g2_apply_clip_window,"ax",%progbits
 517              		.align	1
 518              		.thumb
 519              		.thumb_func
 520              		.type	u8g2_apply_clip_window, %function
 521              	u8g2_apply_clip_window:
 522              	.LFB6:
 187:..\..\..\u8g2\u8g2\csrc/u8g2_setup.c ****   /* check aganst the current user_??? window */
 523              		.loc 1 187 0
 524              		.cfi_startproc
 525              		@ args = 0, pretend = 0, frame = 0
 526              		@ frame_needed = 0, uses_anonymous_args = 0
 527              	.LVL77:
 528 0000 37B5     		push	{r0, r1, r2, r4, r5, lr}
 529              		.cfi_def_cfa_offset 24
 530              		.cfi_offset 4, -12
 531              		.cfi_offset 5, -8
 532              		.cfi_offset 14, -4
 189:..\..\..\u8g2\u8g2\csrc/u8g2_setup.c ****   {
 533              		.loc 1 189 0
 534 0002 B0F85650 		ldrh	r5, [r0, #86]
 535 0006 B0F85230 		ldrh	r3, [r0, #82]
 536 000a B0F85420 		ldrh	r2, [r0, #84]
 537 000e B0F85010 		ldrh	r1, [r0, #80]
 538 0012 0095     		str	r5, [sp]
 187:..\..\..\u8g2\u8g2\csrc/u8g2_setup.c ****   /* check aganst the current user_??? window */
 539              		.loc 1 187 0
 540 0014 0446     		mov	r4, r0
 189:..\..\..\u8g2\u8g2\csrc/u8g2_setup.c ****   {
 541              		.loc 1 189 0
 542 0016 FFF7FEFF 		bl	u8g2_IsIntersection
 543              	.LVL78:
 544 001a 10B9     		cbnz	r0, .L25
 191:..\..\..\u8g2\u8g2\csrc/u8g2_setup.c ****   }
 545              		.loc 1 191 0
 546 001c 84F88C00 		strb	r0, [r4, #140]
 547 0020 22E0     		b	.L24
 548              	.L25:
 549              	.LVL79:
 550              	.LBB4:
 551              	.LBB5:
 195:..\..\..\u8g2\u8g2\csrc/u8g2_setup.c **** 
 552              		.loc 1 195 0
 553 0022 0123     		movs	r3, #1
 197:..\..\..\u8g2\u8g2\csrc/u8g2_setup.c ****       u8g2->user_x0 = u8g2->clip_x0;
 554              		.loc 1 197 0
 555 0024 B4F84820 		ldrh	r2, [r4, #72]
 195:..\..\..\u8g2\u8g2\csrc/u8g2_setup.c **** 
 556              		.loc 1 195 0
 557 0028 84F88C30 		strb	r3, [r4, #140]
ARM GAS  C:\Users\jesse\AppData\Local\Temp\ccFqRpqp.s 			page 19


 197:..\..\..\u8g2\u8g2\csrc/u8g2_setup.c ****       u8g2->user_x0 = u8g2->clip_x0;
 558              		.loc 1 197 0
 559 002c B4F85030 		ldrh	r3, [r4, #80]
 560 0030 9A42     		cmp	r2, r3
 198:..\..\..\u8g2\u8g2\csrc/u8g2_setup.c ****     if ( u8g2->user_x1 > u8g2->clip_x1 )
 561              		.loc 1 198 0
 562 0032 38BF     		it	cc
 563 0034 A4F84830 		strhcc	r3, [r4, #72]	@ movhi
 199:..\..\..\u8g2\u8g2\csrc/u8g2_setup.c ****       u8g2->user_x1 = u8g2->clip_x1;
 564              		.loc 1 199 0
 565 0038 B4F84A20 		ldrh	r2, [r4, #74]
 566 003c B4F85230 		ldrh	r3, [r4, #82]
 567 0040 9A42     		cmp	r2, r3
 200:..\..\..\u8g2\u8g2\csrc/u8g2_setup.c ****     if ( u8g2->user_y0 < u8g2->clip_y0 )
 568              		.loc 1 200 0
 569 0042 88BF     		it	hi
 570 0044 A4F84A30 		strhhi	r3, [r4, #74]	@ movhi
 201:..\..\..\u8g2\u8g2\csrc/u8g2_setup.c ****       u8g2->user_y0 = u8g2->clip_y0;
 571              		.loc 1 201 0
 572 0048 B4F84C20 		ldrh	r2, [r4, #76]
 573 004c B4F85430 		ldrh	r3, [r4, #84]
 574 0050 9A42     		cmp	r2, r3
 202:..\..\..\u8g2\u8g2\csrc/u8g2_setup.c ****     if ( u8g2->user_y1 > u8g2->clip_y1 )
 575              		.loc 1 202 0
 576 0052 38BF     		it	cc
 577 0054 A4F84C30 		strhcc	r3, [r4, #76]	@ movhi
 203:..\..\..\u8g2\u8g2\csrc/u8g2_setup.c ****       u8g2->user_y1 = u8g2->clip_y1;
 578              		.loc 1 203 0
 579 0058 B4F84E20 		ldrh	r2, [r4, #78]
 580 005c B4F85630 		ldrh	r3, [r4, #86]
 581 0060 9A42     		cmp	r2, r3
 204:..\..\..\u8g2\u8g2\csrc/u8g2_setup.c ****   }
 582              		.loc 1 204 0
 583 0062 88BF     		it	hi
 584 0064 A4F84E30 		strhhi	r3, [r4, #78]	@ movhi
 585              	.LVL80:
 586              	.L24:
 587              	.LBE5:
 588              	.LBE4:
 206:..\..\..\u8g2\u8g2\csrc/u8g2_setup.c **** #endif /* U8G2_WITH_CLIP_WINDOW_SUPPORT */
 589              		.loc 1 206 0
 590 0068 03B0     		add	sp, sp, #12
 591              		.cfi_def_cfa_offset 12
 592              		@ sp needed
 593 006a 30BD     		pop	{r4, r5, pc}
 594              		.cfi_endproc
 595              	.LFE6:
 596              		.size	u8g2_apply_clip_window, .-u8g2_apply_clip_window
 597              		.section	.text.u8g2_update_page_win_r0,"ax",%progbits
 598              		.align	1
 599              		.global	u8g2_update_page_win_r0
 600              		.thumb
 601              		.thumb_func
 602              		.type	u8g2_update_page_win_r0, %function
 603              	u8g2_update_page_win_r0:
 604              	.LFB8:
 218:..\..\..\u8g2\u8g2\csrc/u8g2_setup.c ****   u8g2->user_x0 = 0;
ARM GAS  C:\Users\jesse\AppData\Local\Temp\ccFqRpqp.s 			page 20


 605              		.loc 1 218 0
 606              		.cfi_startproc
 607              		@ args = 0, pretend = 0, frame = 0
 608              		@ frame_needed = 0, uses_anonymous_args = 0
 609              		@ link register save eliminated.
 610              	.LVL81:
 219:..\..\..\u8g2\u8g2\csrc/u8g2_setup.c ****   u8g2->user_x1 = u8g2->width;			/* pixel_buf_width replaced with width */
 611              		.loc 1 219 0
 612 0000 0022     		movs	r2, #0
 613 0002 A0F84820 		strh	r2, [r0, #72]	@ movhi
 220:..\..\..\u8g2\u8g2\csrc/u8g2_setup.c ****   
 614              		.loc 1 220 0
 615 0006 B0F84420 		ldrh	r2, [r0, #68]
 616 000a A0F84A20 		strh	r2, [r0, #74]	@ movhi
 222:..\..\..\u8g2\u8g2\csrc/u8g2_setup.c ****   u8g2->user_y1 = u8g2->buf_y1;
 617              		.loc 1 222 0
 618 000e B0F84020 		ldrh	r2, [r0, #64]
 619 0012 A0F84C20 		strh	r2, [r0, #76]	@ movhi
 223:..\..\..\u8g2\u8g2\csrc/u8g2_setup.c ****   
 620              		.loc 1 223 0
 621 0016 B0F84220 		ldrh	r2, [r0, #66]
 622 001a A0F84E20 		strh	r2, [r0, #78]	@ movhi
 226:..\..\..\u8g2\u8g2\csrc/u8g2_setup.c **** #endif /* U8G2_WITH_CLIP_WINDOW_SUPPORT */
 623              		.loc 1 226 0
 624 001e FFF7FEBF 		b	u8g2_apply_clip_window
 625              	.LVL82:
 626              		.cfi_endproc
 627              	.LFE8:
 628              		.size	u8g2_update_page_win_r0, .-u8g2_update_page_win_r0
 629              		.section	.text.u8g2_update_page_win_r1,"ax",%progbits
 630              		.align	1
 631              		.global	u8g2_update_page_win_r1
 632              		.thumb
 633              		.thumb_func
 634              		.type	u8g2_update_page_win_r1, %function
 635              	u8g2_update_page_win_r1:
 636              	.LFB10:
 241:..\..\..\u8g2\u8g2\csrc/u8g2_setup.c ****   u8g2->user_x0 = u8g2->buf_y0;
 637              		.loc 1 241 0
 638              		.cfi_startproc
 639              		@ args = 0, pretend = 0, frame = 0
 640              		@ frame_needed = 0, uses_anonymous_args = 0
 641              		@ link register save eliminated.
 642              	.LVL83:
 242:..\..\..\u8g2\u8g2\csrc/u8g2_setup.c ****   u8g2->user_x1 = u8g2->buf_y1;
 643              		.loc 1 242 0
 644 0000 B0F84020 		ldrh	r2, [r0, #64]
 645 0004 A0F84820 		strh	r2, [r0, #72]	@ movhi
 243:..\..\..\u8g2\u8g2\csrc/u8g2_setup.c ****   
 646              		.loc 1 243 0
 647 0008 B0F84220 		ldrh	r2, [r0, #66]
 648 000c A0F84A20 		strh	r2, [r0, #74]	@ movhi
 245:..\..\..\u8g2\u8g2\csrc/u8g2_setup.c ****   u8g2->user_y1 = u8g2->height;	/* pixel_buf_width replaced with height (which is the real pixel wi
 649              		.loc 1 245 0
 650 0010 0022     		movs	r2, #0
 651 0012 A0F84C20 		strh	r2, [r0, #76]	@ movhi
 246:..\..\..\u8g2\u8g2\csrc/u8g2_setup.c ****   
ARM GAS  C:\Users\jesse\AppData\Local\Temp\ccFqRpqp.s 			page 21


 652              		.loc 1 246 0
 653 0016 B0F84620 		ldrh	r2, [r0, #70]
 654 001a A0F84E20 		strh	r2, [r0, #78]	@ movhi
 249:..\..\..\u8g2\u8g2\csrc/u8g2_setup.c **** #endif /* U8G2_WITH_CLIP_WINDOW_SUPPORT */
 655              		.loc 1 249 0
 656 001e FFF7FEBF 		b	u8g2_apply_clip_window
 657              	.LVL84:
 658              		.cfi_endproc
 659              	.LFE10:
 660              		.size	u8g2_update_page_win_r1, .-u8g2_update_page_win_r1
 661              		.section	.text.u8g2_update_page_win_r2,"ax",%progbits
 662              		.align	1
 663              		.global	u8g2_update_page_win_r2
 664              		.thumb
 665              		.thumb_func
 666              		.type	u8g2_update_page_win_r2, %function
 667              	u8g2_update_page_win_r2:
 668              	.LFB12:
 259:..\..\..\u8g2\u8g2\csrc/u8g2_setup.c ****   u8g2->user_x0 = 0;
 669              		.loc 1 259 0
 670              		.cfi_startproc
 671              		@ args = 0, pretend = 0, frame = 0
 672              		@ frame_needed = 0, uses_anonymous_args = 0
 673              		@ link register save eliminated.
 674              	.LVL85:
 261:..\..\..\u8g2\u8g2\csrc/u8g2_setup.c ****   
 675              		.loc 1 261 0
 676 0000 B0F84420 		ldrh	r2, [r0, #68]
 260:..\..\..\u8g2\u8g2\csrc/u8g2_setup.c ****   u8g2->user_x1 = u8g2->width;	/* pixel_buf_width replaced with width */
 677              		.loc 1 260 0
 678 0004 0023     		movs	r3, #0
 265:..\..\..\u8g2\u8g2\csrc/u8g2_setup.c ****   if ( u8g2->height >= u8g2->buf_y1 )
 679              		.loc 1 265 0
 680 0006 A0F84C30 		strh	r3, [r0, #76]	@ movhi
 260:..\..\..\u8g2\u8g2\csrc/u8g2_setup.c ****   u8g2->user_x1 = u8g2->width;	/* pixel_buf_width replaced with width */
 681              		.loc 1 260 0
 682 000a A0F84830 		strh	r3, [r0, #72]	@ movhi
 261:..\..\..\u8g2\u8g2\csrc/u8g2_setup.c ****   
 683              		.loc 1 261 0
 684 000e A0F84A20 		strh	r2, [r0, #74]	@ movhi
 266:..\..\..\u8g2\u8g2\csrc/u8g2_setup.c ****     u8g2->user_y0 = u8g2->height - u8g2->buf_y1;
 685              		.loc 1 266 0
 686 0012 B0F84630 		ldrh	r3, [r0, #70]
 687 0016 B0F84220 		ldrh	r2, [r0, #66]
 688 001a 9342     		cmp	r3, r2
 267:..\..\..\u8g2\u8g2\csrc/u8g2_setup.c ****   u8g2->user_y1 = u8g2->height - u8g2->buf_y0;
 689              		.loc 1 267 0
 690 001c 24BF     		itt	cs
 691 001e 9A1A     		subcs	r2, r3, r2
 692 0020 A0F84C20 		strhcs	r2, [r0, #76]	@ movhi
 268:..\..\..\u8g2\u8g2\csrc/u8g2_setup.c **** 
 693              		.loc 1 268 0
 694 0024 B0F84020 		ldrh	r2, [r0, #64]
 695 0028 9B1A     		subs	r3, r3, r2
 696 002a A0F84E30 		strh	r3, [r0, #78]	@ movhi
 271:..\..\..\u8g2\u8g2\csrc/u8g2_setup.c **** #endif /* U8G2_WITH_CLIP_WINDOW_SUPPORT */
 697              		.loc 1 271 0
ARM GAS  C:\Users\jesse\AppData\Local\Temp\ccFqRpqp.s 			page 22


 698 002e FFF7FEBF 		b	u8g2_apply_clip_window
 699              	.LVL86:
 700              		.cfi_endproc
 701              	.LFE12:
 702              		.size	u8g2_update_page_win_r2, .-u8g2_update_page_win_r2
 703              		.section	.text.u8g2_update_page_win_r3,"ax",%progbits
 704              		.align	1
 705              		.global	u8g2_update_page_win_r3
 706              		.thumb
 707              		.thumb_func
 708              		.type	u8g2_update_page_win_r3, %function
 709              	u8g2_update_page_win_r3:
 710              	.LFB14:
 286:..\..\..\u8g2\u8g2\csrc/u8g2_setup.c ****   /* there are ases where the height is not a multiple of 8. */
 711              		.loc 1 286 0
 712              		.cfi_startproc
 713              		@ args = 0, pretend = 0, frame = 0
 714              		@ frame_needed = 0, uses_anonymous_args = 0
 715              		@ link register save eliminated.
 716              	.LVL87:
 289:..\..\..\u8g2\u8g2\csrc/u8g2_setup.c ****   if ( u8g2->width >= u8g2->buf_y1 )
 717              		.loc 1 289 0
 718 0000 0023     		movs	r3, #0
 290:..\..\..\u8g2\u8g2\csrc/u8g2_setup.c ****     u8g2->user_x0 = u8g2->width - u8g2->buf_y1;
 719              		.loc 1 290 0
 720 0002 B0F84220 		ldrh	r2, [r0, #66]
 289:..\..\..\u8g2\u8g2\csrc/u8g2_setup.c ****   if ( u8g2->width >= u8g2->buf_y1 )
 721              		.loc 1 289 0
 722 0006 A0F84830 		strh	r3, [r0, #72]	@ movhi
 290:..\..\..\u8g2\u8g2\csrc/u8g2_setup.c ****     u8g2->user_x0 = u8g2->width - u8g2->buf_y1;
 723              		.loc 1 290 0
 724 000a B0F84430 		ldrh	r3, [r0, #68]
 725 000e 9342     		cmp	r3, r2
 291:..\..\..\u8g2\u8g2\csrc/u8g2_setup.c ****   u8g2->user_x1 = u8g2->width - u8g2->buf_y0;
 726              		.loc 1 291 0
 727 0010 24BF     		itt	cs
 728 0012 9A1A     		subcs	r2, r3, r2
 729 0014 A0F84820 		strhcs	r2, [r0, #72]	@ movhi
 292:..\..\..\u8g2\u8g2\csrc/u8g2_setup.c ****   
 730              		.loc 1 292 0
 731 0018 B0F84020 		ldrh	r2, [r0, #64]
 732 001c 9B1A     		subs	r3, r3, r2
 733 001e A0F84A30 		strh	r3, [r0, #74]	@ movhi
 294:..\..\..\u8g2\u8g2\csrc/u8g2_setup.c ****   u8g2->user_y1 = u8g2->height;	/* pixel_buf_width replaced with height (pixel_width) */
 734              		.loc 1 294 0
 735 0022 0023     		movs	r3, #0
 736 0024 A0F84C30 		strh	r3, [r0, #76]	@ movhi
 295:..\..\..\u8g2\u8g2\csrc/u8g2_setup.c **** 
 737              		.loc 1 295 0
 738 0028 B0F84630 		ldrh	r3, [r0, #70]
 739 002c A0F84E30 		strh	r3, [r0, #78]	@ movhi
 298:..\..\..\u8g2\u8g2\csrc/u8g2_setup.c **** #endif /* U8G2_WITH_CLIP_WINDOW_SUPPORT */
 740              		.loc 1 298 0
 741 0030 FFF7FEBF 		b	u8g2_apply_clip_window
 742              	.LVL88:
 743              		.cfi_endproc
 744              	.LFE14:
ARM GAS  C:\Users\jesse\AppData\Local\Temp\ccFqRpqp.s 			page 23


 745              		.size	u8g2_update_page_win_r3, .-u8g2_update_page_win_r3
 746              		.section	.text.u8g2_update_dimension_r0,"ax",%progbits
 747              		.align	1
 748              		.global	u8g2_update_dimension_r0
 749              		.thumb
 750              		.thumb_func
 751              		.type	u8g2_update_dimension_r0, %function
 752              	u8g2_update_dimension_r0:
 753              	.LFB26:
 754              		.cfi_startproc
 755              		@ args = 0, pretend = 0, frame = 0
 756              		@ frame_needed = 0, uses_anonymous_args = 0
 757              		@ link register save eliminated.
 758 0000 FFF7FEBF 		b	u8g2_update_dimension_common
 759              		.cfi_endproc
 760              	.LFE26:
 761              		.size	u8g2_update_dimension_r0, .-u8g2_update_dimension_r0
 762              		.section	.text.u8g2_SetMaxClipWindow,"ax",%progbits
 763              		.align	1
 764              		.global	u8g2_SetMaxClipWindow
 765              		.thumb
 766              		.thumb_func
 767              		.type	u8g2_SetMaxClipWindow, %function
 768              	u8g2_SetMaxClipWindow:
 769              	.LFB0:
  47:..\..\..\u8g2\u8g2\csrc/u8g2_setup.c ****   u8g2->clip_x0 = 0;
 770              		.loc 1 47 0
 771              		.cfi_startproc
 772              		@ args = 0, pretend = 0, frame = 0
 773              		@ frame_needed = 0, uses_anonymous_args = 0
 774              		@ link register save eliminated.
 775              	.LVL89:
  48:..\..\..\u8g2\u8g2\csrc/u8g2_setup.c ****   u8g2->clip_y0 = 0;
 776              		.loc 1 48 0
 777 0000 0022     		movs	r2, #0
 778 0002 A0F85020 		strh	r2, [r0, #80]	@ movhi
  49:..\..\..\u8g2\u8g2\csrc/u8g2_setup.c ****   u8g2->clip_x1 = (u8g2_uint_t)~(u8g2_uint_t)0;
 779              		.loc 1 49 0
 780 0006 A0F85420 		strh	r2, [r0, #84]	@ movhi
  50:..\..\..\u8g2\u8g2\csrc/u8g2_setup.c ****   u8g2->clip_y1 = (u8g2_uint_t)~(u8g2_uint_t)0;
 781              		.loc 1 50 0
 782 000a 4FF6FF72 		movw	r2, #65535
  53:..\..\..\u8g2\u8g2\csrc/u8g2_setup.c **** }
 783              		.loc 1 53 0
 784 000e 036B     		ldr	r3, [r0, #48]
  50:..\..\..\u8g2\u8g2\csrc/u8g2_setup.c ****   u8g2->clip_y1 = (u8g2_uint_t)~(u8g2_uint_t)0;
 785              		.loc 1 50 0
 786 0010 A0F85220 		strh	r2, [r0, #82]	@ movhi
  51:..\..\..\u8g2\u8g2\csrc/u8g2_setup.c ****   
 787              		.loc 1 51 0
 788 0014 A0F85620 		strh	r2, [r0, #86]	@ movhi
  53:..\..\..\u8g2\u8g2\csrc/u8g2_setup.c **** }
 789              		.loc 1 53 0
 790 0018 5B68     		ldr	r3, [r3, #4]
 791 001a 1847     		bx	r3	@ indirect register sibling call
 792              	.LVL90:
 793              		.cfi_endproc
ARM GAS  C:\Users\jesse\AppData\Local\Temp\ccFqRpqp.s 			page 24


 794              	.LFE0:
 795              		.size	u8g2_SetMaxClipWindow, .-u8g2_SetMaxClipWindow
 796              		.section	.text.u8g2_SetClipWindow,"ax",%progbits
 797              		.align	1
 798              		.global	u8g2_SetClipWindow
 799              		.thumb
 800              		.thumb_func
 801              		.type	u8g2_SetClipWindow, %function
 802              	u8g2_SetClipWindow:
 803              	.LFB1:
  57:..\..\..\u8g2\u8g2\csrc/u8g2_setup.c ****   u8g2->clip_x0 = clip_x0;
 804              		.loc 1 57 0
 805              		.cfi_startproc
 806              		@ args = 4, pretend = 0, frame = 0
 807              		@ frame_needed = 0, uses_anonymous_args = 0
 808              		@ link register save eliminated.
 809              	.LVL91:
 810 0000 30B4     		push	{r4, r5}
 811              		.cfi_def_cfa_offset 8
 812              		.cfi_offset 4, -8
 813              		.cfi_offset 5, -4
  60:..\..\..\u8g2\u8g2\csrc/u8g2_setup.c ****   u8g2->clip_y1 = clip_y1;
 814              		.loc 1 60 0
 815 0002 A0F85230 		strh	r3, [r0, #82]	@ movhi
  57:..\..\..\u8g2\u8g2\csrc/u8g2_setup.c ****   u8g2->clip_x0 = clip_x0;
 816              		.loc 1 57 0
 817 0006 BDF80850 		ldrh	r5, [sp, #8]
  62:..\..\..\u8g2\u8g2\csrc/u8g2_setup.c **** }
 818              		.loc 1 62 0
 819 000a 036B     		ldr	r3, [r0, #48]
 820              	.LVL92:
  61:..\..\..\u8g2\u8g2\csrc/u8g2_setup.c ****   u8g2->cb->update_page_win(u8g2);
 821              		.loc 1 61 0
 822 000c A0F85650 		strh	r5, [r0, #86]	@ movhi
  58:..\..\..\u8g2\u8g2\csrc/u8g2_setup.c ****   u8g2->clip_y0 = clip_y0;
 823              		.loc 1 58 0
 824 0010 A0F85010 		strh	r1, [r0, #80]	@ movhi
  59:..\..\..\u8g2\u8g2\csrc/u8g2_setup.c ****   u8g2->clip_x1 = clip_x1;
 825              		.loc 1 59 0
 826 0014 A0F85420 		strh	r2, [r0, #84]	@ movhi
  62:..\..\..\u8g2\u8g2\csrc/u8g2_setup.c **** }
 827              		.loc 1 62 0
 828 0018 5B68     		ldr	r3, [r3, #4]
  63:..\..\..\u8g2\u8g2\csrc/u8g2_setup.c **** #endif
 829              		.loc 1 63 0
 830 001a 30BC     		pop	{r4, r5}
 831              		.cfi_restore 5
 832              		.cfi_restore 4
 833              		.cfi_def_cfa_offset 0
 834              	.LVL93:
  62:..\..\..\u8g2\u8g2\csrc/u8g2_setup.c **** }
 835              		.loc 1 62 0
 836 001c 1847     		bx	r3	@ indirect register sibling call
 837              	.LVL94:
 838              		.cfi_endproc
 839              	.LFE1:
 840              		.size	u8g2_SetClipWindow, .-u8g2_SetClipWindow
ARM GAS  C:\Users\jesse\AppData\Local\Temp\ccFqRpqp.s 			page 25


 841              		.section	.text.u8g2_SetupBuffer,"ax",%progbits
 842              		.align	1
 843              		.global	u8g2_SetupBuffer
 844              		.thumb
 845              		.thumb_func
 846              		.type	u8g2_SetupBuffer, %function
 847              	u8g2_SetupBuffer:
 848              	.LFB2:
  72:..\..\..\u8g2\u8g2\csrc/u8g2_setup.c ****   u8g2->font = NULL;
 849              		.loc 1 72 0
 850              		.cfi_startproc
 851              		@ args = 4, pretend = 0, frame = 0
 852              		@ frame_needed = 0, uses_anonymous_args = 0
 853              	.LVL95:
 854 0000 70B5     		push	{r4, r5, r6, lr}
 855              		.cfi_def_cfa_offset 16
 856              		.cfi_offset 4, -16
 857              		.cfi_offset 5, -12
 858              		.cfi_offset 6, -8
 859              		.cfi_offset 14, -4
  72:..\..\..\u8g2\u8g2\csrc/u8g2_setup.c ****   u8g2->font = NULL;
 860              		.loc 1 72 0
 861 0002 0446     		mov	r4, r0
  73:..\..\..\u8g2\u8g2\csrc/u8g2_setup.c ****   //u8g2->kerning = NULL;
 862              		.loc 1 73 0
 863 0004 0025     		movs	r5, #0
  72:..\..\..\u8g2\u8g2\csrc/u8g2_setup.c ****   u8g2->font = NULL;
 864              		.loc 1 72 0
 865 0006 049E     		ldr	r6, [sp, #16]
  78:..\..\..\u8g2\u8g2\csrc/u8g2_setup.c ****   
 866              		.loc 1 78 0
 867 0008 C362     		str	r3, [r0, #44]
  88:..\..\..\u8g2\u8g2\csrc/u8g2_setup.c ****   u8g2->is_auto_page_clear = 1;
 868              		.loc 1 88 0
 869 000a 0123     		movs	r3, #1
 870              	.LVL96:
  81:..\..\..\u8g2\u8g2\csrc/u8g2_setup.c ****   
 871              		.loc 1 81 0
 872 000c 80F83820 		strb	r2, [r0, #56]
  83:..\..\..\u8g2\u8g2\csrc/u8g2_setup.c ****   
 873              		.loc 1 83 0
 874 0010 80F83950 		strb	r5, [r0, #57]
  85:..\..\..\u8g2\u8g2\csrc/u8g2_setup.c ****   u8g2->bitmap_transparency = 0;
 875              		.loc 1 85 0
 876 0014 80F86D50 		strb	r5, [r0, #109]
  86:..\..\..\u8g2\u8g2\csrc/u8g2_setup.c ****   
 877              		.loc 1 86 0
 878 0018 80F89150 		strb	r5, [r0, #145]
  88:..\..\..\u8g2\u8g2\csrc/u8g2_setup.c ****   u8g2->is_auto_page_clear = 1;
 879              		.loc 1 88 0
 880 001c 80F89230 		strb	r3, [r0, #146]
  89:..\..\..\u8g2\u8g2\csrc/u8g2_setup.c ****   
 881              		.loc 1 89 0
 882 0020 80F89330 		strb	r3, [r0, #147]
  80:..\..\..\u8g2\u8g2\csrc/u8g2_setup.c ****   u8g2->tile_buf_height = tile_buf_height;
 883              		.loc 1 80 0
 884 0024 4163     		str	r1, [r0, #52]
ARM GAS  C:\Users\jesse\AppData\Local\Temp\ccFqRpqp.s 			page 26


  92:..\..\..\u8g2\u8g2\csrc/u8g2_setup.c **** #ifdef U8G2_WITH_CLIP_WINDOW_SUPPORT
 885              		.loc 1 92 0
 886 0026 3368     		ldr	r3, [r6]
  73:..\..\..\u8g2\u8g2\csrc/u8g2_setup.c ****   //u8g2->kerning = NULL;
 887              		.loc 1 73 0
 888 0028 8565     		str	r5, [r0, #88]
  91:..\..\..\u8g2\u8g2\csrc/u8g2_setup.c ****   u8g2->cb->update_dimension(u8g2);
 889              		.loc 1 91 0
 890 002a 0663     		str	r6, [r0, #48]
  92:..\..\..\u8g2\u8g2\csrc/u8g2_setup.c **** #ifdef U8G2_WITH_CLIP_WINDOW_SUPPORT
 891              		.loc 1 92 0
 892 002c 9847     		blx	r3
 893              	.LVL97:
  94:..\..\..\u8g2\u8g2\csrc/u8g2_setup.c **** #else
 894              		.loc 1 94 0
 895 002e 2046     		mov	r0, r4
 896 0030 FFF7FEFF 		bl	u8g2_SetMaxClipWindow
 897              	.LVL98:
  99:..\..\..\u8g2\u8g2\csrc/u8g2_setup.c ****   
 898              		.loc 1 99 0
 899 0034 2046     		mov	r0, r4
 900 0036 FFF7FEFF 		bl	u8g2_SetFontPosBaseline
 901              	.LVL99:
 102:..\..\..\u8g2\u8g2\csrc/u8g2_setup.c **** #endif
 902              		.loc 1 102 0
 903 003a 84F87050 		strb	r5, [r4, #112]
 904 003e 70BD     		pop	{r4, r5, r6, pc}
 905              		.cfi_endproc
 906              	.LFE2:
 907              		.size	u8g2_SetupBuffer, .-u8g2_SetupBuffer
 908              		.section	.text.u8g2_SetDisplayRotation,"ax",%progbits
 909              		.align	1
 910              		.global	u8g2_SetDisplayRotation
 911              		.thumb
 912              		.thumb_func
 913              		.type	u8g2_SetDisplayRotation, %function
 914              	u8g2_SetDisplayRotation:
 915              	.LFB3:
 111:..\..\..\u8g2\u8g2\csrc/u8g2_setup.c ****   u8g2->cb = u8g2_cb;
 916              		.loc 1 111 0
 917              		.cfi_startproc
 918              		@ args = 0, pretend = 0, frame = 0
 919              		@ frame_needed = 0, uses_anonymous_args = 0
 920              	.LVL100:
 921 0000 10B5     		push	{r4, lr}
 922              		.cfi_def_cfa_offset 8
 923              		.cfi_offset 4, -8
 924              		.cfi_offset 14, -4
 111:..\..\..\u8g2\u8g2\csrc/u8g2_setup.c ****   u8g2->cb = u8g2_cb;
 925              		.loc 1 111 0
 926 0002 0446     		mov	r4, r0
 112:..\..\..\u8g2\u8g2\csrc/u8g2_setup.c ****   u8g2->cb->update_dimension(u8g2);
 927              		.loc 1 112 0
 928 0004 0163     		str	r1, [r0, #48]
 113:..\..\..\u8g2\u8g2\csrc/u8g2_setup.c ****   u8g2->cb->update_page_win(u8g2);
 929              		.loc 1 113 0
 930 0006 0B68     		ldr	r3, [r1]
ARM GAS  C:\Users\jesse\AppData\Local\Temp\ccFqRpqp.s 			page 27


 931 0008 9847     		blx	r3
 932              	.LVL101:
 114:..\..\..\u8g2\u8g2\csrc/u8g2_setup.c **** }
 933              		.loc 1 114 0
 934 000a 236B     		ldr	r3, [r4, #48]
 935 000c 2046     		mov	r0, r4
 115:..\..\..\u8g2\u8g2\csrc/u8g2_setup.c **** 
 936              		.loc 1 115 0
 937 000e BDE81040 		pop	{r4, lr}
 938              		.cfi_restore 14
 939              		.cfi_restore 4
 940              		.cfi_def_cfa_offset 0
 941              	.LVL102:
 114:..\..\..\u8g2\u8g2\csrc/u8g2_setup.c **** }
 942              		.loc 1 114 0
 943 0012 5B68     		ldr	r3, [r3, #4]
 944 0014 1847     		bx	r3	@ indirect register sibling call
 945              	.LVL103:
 946              		.cfi_endproc
 947              	.LFE3:
 948              		.size	u8g2_SetDisplayRotation, .-u8g2_SetDisplayRotation
 949              		.section	.text.u8g2_SendF,"ax",%progbits
 950              		.align	1
 951              		.global	u8g2_SendF
 952              		.thumb
 953              		.thumb_func
 954              		.type	u8g2_SendF, %function
 955              	u8g2_SendF:
 956              	.LFB4:
 120:..\..\..\u8g2\u8g2\csrc/u8g2_setup.c ****   va_list va;
 957              		.loc 1 120 0
 958              		.cfi_startproc
 959              		@ args = 4, pretend = 12, frame = 8
 960              		@ frame_needed = 0, uses_anonymous_args = 1
 961              	.LVL104:
 962 0000 0EB4     		push	{r1, r2, r3}
 963              		.cfi_def_cfa_offset 12
 964              		.cfi_offset 1, -12
 965              		.cfi_offset 2, -8
 966              		.cfi_offset 3, -4
 967 0002 03B5     		push	{r0, r1, lr}
 968              		.cfi_def_cfa_offset 24
 969              		.cfi_offset 14, -16
 120:..\..\..\u8g2\u8g2\csrc/u8g2_setup.c ****   va_list va;
 970              		.loc 1 120 0
 971 0004 03AA     		add	r2, sp, #12
 972 0006 52F8041B 		ldr	r1, [r2], #4
 122:..\..\..\u8g2\u8g2\csrc/u8g2_setup.c ****   u8x8_cad_vsendf(u8g2_GetU8x8(u8g2), fmt, va);
 973              		.loc 1 122 0
 974 000a 0192     		str	r2, [sp, #4]
 123:..\..\..\u8g2\u8g2\csrc/u8g2_setup.c ****   va_end(va);
 975              		.loc 1 123 0
 976 000c FFF7FEFF 		bl	u8x8_cad_vsendf
 977              	.LVL105:
 125:..\..\..\u8g2\u8g2\csrc/u8g2_setup.c **** 
 978              		.loc 1 125 0
 979 0010 02B0     		add	sp, sp, #8
ARM GAS  C:\Users\jesse\AppData\Local\Temp\ccFqRpqp.s 			page 28


 980              		.cfi_def_cfa_offset 16
 981              		@ sp needed
 982 0012 5DF804EB 		ldr	lr, [sp], #4
 983              		.cfi_restore 14
 984              		.cfi_def_cfa_offset 12
 985 0016 03B0     		add	sp, sp, #12
 986              		.cfi_restore 3
 987              		.cfi_restore 2
 988              		.cfi_restore 1
 989              		.cfi_def_cfa_offset 0
 990 0018 7047     		bx	lr
 991              		.cfi_endproc
 992              	.LFE4:
 993              		.size	u8g2_SendF, .-u8g2_SendF
 994              		.section	.text.u8g2_Setup_null,"ax",%progbits
 995              		.align	1
 996              		.global	u8g2_Setup_null
 997              		.thumb
 998              		.thumb_func
 999              		.type	u8g2_Setup_null, %function
 1000              	u8g2_Setup_null:
 1001              	.LFB21:
 443:..\..\..\u8g2\u8g2\csrc/u8g2_setup.c **** 
 444:..\..\..\u8g2\u8g2\csrc/u8g2_setup.c **** 
 445:..\..\..\u8g2\u8g2\csrc/u8g2_setup.c **** 
 446:..\..\..\u8g2\u8g2\csrc/u8g2_setup.c **** /*============================================*/
 447:..\..\..\u8g2\u8g2\csrc/u8g2_setup.c **** const u8g2_cb_t u8g2_cb_r0 = { u8g2_update_dimension_r0, u8g2_update_page_win_r0, u8g2_draw_l90_r0 
 448:..\..\..\u8g2\u8g2\csrc/u8g2_setup.c **** const u8g2_cb_t u8g2_cb_r1 = { u8g2_update_dimension_r1, u8g2_update_page_win_r1, u8g2_draw_l90_r1 
 449:..\..\..\u8g2\u8g2\csrc/u8g2_setup.c **** const u8g2_cb_t u8g2_cb_r2 = { u8g2_update_dimension_r2, u8g2_update_page_win_r2, u8g2_draw_l90_r2 
 450:..\..\..\u8g2\u8g2\csrc/u8g2_setup.c **** const u8g2_cb_t u8g2_cb_r3 = { u8g2_update_dimension_r3, u8g2_update_page_win_r3, u8g2_draw_l90_r3 
 451:..\..\..\u8g2\u8g2\csrc/u8g2_setup.c ****   
 452:..\..\..\u8g2\u8g2\csrc/u8g2_setup.c **** const u8g2_cb_t u8g2_cb_mirror = { u8g2_update_dimension_r0, u8g2_update_page_win_r0, u8g2_draw_l90
 453:..\..\..\u8g2\u8g2\csrc/u8g2_setup.c **** const u8g2_cb_t u8g2_cb_mirror_vertical = { u8g2_update_dimension_r0, u8g2_update_page_win_r0, u8g2
 454:..\..\..\u8g2\u8g2\csrc/u8g2_setup.c ****   
 455:..\..\..\u8g2\u8g2\csrc/u8g2_setup.c **** /*============================================*/
 456:..\..\..\u8g2\u8g2\csrc/u8g2_setup.c **** /* setup for the null device */
 457:..\..\..\u8g2\u8g2\csrc/u8g2_setup.c **** 
 458:..\..\..\u8g2\u8g2\csrc/u8g2_setup.c **** /* setup for the null (empty) device */
 459:..\..\..\u8g2\u8g2\csrc/u8g2_setup.c **** void u8g2_Setup_null(u8g2_t *u8g2, const u8g2_cb_t *rotation, u8x8_msg_cb byte_cb, u8x8_msg_cb gpio
 460:..\..\..\u8g2\u8g2\csrc/u8g2_setup.c **** {
 1002              		.loc 1 460 0
 1003              		.cfi_startproc
 1004              		@ args = 0, pretend = 0, frame = 0
 1005              		@ frame_needed = 0, uses_anonymous_args = 0
 1006              	.LVL106:
 1007 0000 37B5     		push	{r0, r1, r2, r4, r5, lr}
 1008              		.cfi_def_cfa_offset 24
 1009              		.cfi_offset 4, -12
 1010              		.cfi_offset 5, -8
 1011              		.cfi_offset 14, -4
 1012              		.loc 1 460 0
 1013 0002 0446     		mov	r4, r0
 1014 0004 0D46     		mov	r5, r1
 461:..\..\..\u8g2\u8g2\csrc/u8g2_setup.c ****   static uint8_t buf[8];
 462:..\..\..\u8g2\u8g2\csrc/u8g2_setup.c ****   u8g2_SetupDisplay(u8g2, u8x8_d_null_cb, u8x8_cad_empty, byte_cb, gpio_and_delay_cb);
 1015              		.loc 1 462 0
 1016 0006 0093     		str	r3, [sp]
ARM GAS  C:\Users\jesse\AppData\Local\Temp\ccFqRpqp.s 			page 29


 1017 0008 0649     		ldr	r1, .L43
 1018              	.LVL107:
 1019 000a 1346     		mov	r3, r2
 1020              	.LVL108:
 1021 000c 064A     		ldr	r2, .L43+4
 1022              	.LVL109:
 1023 000e FFF7FEFF 		bl	u8x8_Setup
 1024              	.LVL110:
 463:..\..\..\u8g2\u8g2\csrc/u8g2_setup.c ****   u8g2_SetupBuffer(u8g2, buf, 1, u8g2_ll_hvline_vertical_top_lsb, rotation);
 1025              		.loc 1 463 0
 1026 0012 0095     		str	r5, [sp]
 1027 0014 054B     		ldr	r3, .L43+8
 1028 0016 0122     		movs	r2, #1
 1029 0018 0549     		ldr	r1, .L43+12
 1030 001a 2046     		mov	r0, r4
 1031 001c FFF7FEFF 		bl	u8g2_SetupBuffer
 1032              	.LVL111:
 464:..\..\..\u8g2\u8g2\csrc/u8g2_setup.c **** }
 1033              		.loc 1 464 0
 1034 0020 03B0     		add	sp, sp, #12
 1035              		.cfi_def_cfa_offset 12
 1036              		@ sp needed
 1037 0022 30BD     		pop	{r4, r5, pc}
 1038              	.LVL112:
 1039              	.L44:
 1040              		.align	2
 1041              	.L43:
 1042 0024 00000000 		.word	u8x8_d_null_cb
 1043 0028 00000000 		.word	u8x8_cad_empty
 1044 002c 00000000 		.word	u8g2_ll_hvline_vertical_top_lsb
 1045 0030 00000000 		.word	.LANCHOR0
 1046              		.cfi_endproc
 1047              	.LFE21:
 1048              		.size	u8g2_Setup_null, .-u8g2_Setup_null
 1049              		.global	u8g2_cb_mirror_vertical
 1050              		.global	u8g2_cb_mirror
 1051              		.global	u8g2_cb_r3
 1052              		.global	u8g2_cb_r2
 1053              		.global	u8g2_cb_r1
 1054              		.global	u8g2_cb_r0
 1055              		.section	.rodata
 1056              		.align	2
 1057              		.type	u8g2_cb_mirror_vertical, %object
 1058              		.size	u8g2_cb_mirror_vertical, 12
 1059              	u8g2_cb_mirror_vertical:
 1060 0000 00000000 		.word	u8g2_update_dimension_r0
 1061 0004 00000000 		.word	u8g2_update_page_win_r0
 1062 0008 00000000 		.word	u8g2_draw_mirror_vertical_r0
 1063              		.type	u8g2_cb_mirror, %object
 1064              		.size	u8g2_cb_mirror, 12
 1065              	u8g2_cb_mirror:
 1066 000c 00000000 		.word	u8g2_update_dimension_r0
 1067 0010 00000000 		.word	u8g2_update_page_win_r0
 1068 0014 00000000 		.word	u8g2_draw_l90_mirrorr_r0
 1069              		.type	u8g2_cb_r3, %object
 1070              		.size	u8g2_cb_r3, 12
 1071              	u8g2_cb_r3:
ARM GAS  C:\Users\jesse\AppData\Local\Temp\ccFqRpqp.s 			page 30


 1072 0018 00000000 		.word	u8g2_update_dimension_r3
 1073 001c 00000000 		.word	u8g2_update_page_win_r3
 1074 0020 00000000 		.word	u8g2_draw_l90_r3
 1075              		.type	u8g2_cb_r2, %object
 1076              		.size	u8g2_cb_r2, 12
 1077              	u8g2_cb_r2:
 1078 0024 00000000 		.word	u8g2_update_dimension_r2
 1079 0028 00000000 		.word	u8g2_update_page_win_r2
 1080 002c 00000000 		.word	u8g2_draw_l90_r2
 1081              		.type	u8g2_cb_r1, %object
 1082              		.size	u8g2_cb_r1, 12
 1083              	u8g2_cb_r1:
 1084 0030 00000000 		.word	u8g2_update_dimension_r1
 1085 0034 00000000 		.word	u8g2_update_page_win_r1
 1086 0038 00000000 		.word	u8g2_draw_l90_r1
 1087              		.type	u8g2_cb_r0, %object
 1088              		.size	u8g2_cb_r0, 12
 1089              	u8g2_cb_r0:
 1090 003c 00000000 		.word	u8g2_update_dimension_r0
 1091 0040 00000000 		.word	u8g2_update_page_win_r0
 1092 0044 00000000 		.word	u8g2_draw_l90_r0
 1093              		.bss
 1094              		.set	.LANCHOR0,. + 0
 1095              		.type	buf.13186, %object
 1096              		.size	buf.13186, 8
 1097              	buf.13186:
 1098 0000 00000000 		.space	8
 1098      00000000 
 1099              		.text
 1100              	.Letext0:
 1101              		.file 2 "c:\\program files (x86)\\cypress\\psoc creator\\4.4\\psoc creator\\import\\gnu\\arm\\5.4.
 1102              		.file 3 "c:\\program files (x86)\\cypress\\psoc creator\\4.4\\psoc creator\\import\\gnu\\arm\\5.4.
 1103              		.file 4 "c:\\program files (x86)\\cypress\\psoc creator\\4.4\\psoc creator\\import\\gnu\\arm\\5.4.
 1104              		.file 5 "..\\..\\..\\u8g2\\u8g2\\csrc\\u8x8.h"
 1105              		.file 6 "<built-in>"
 1106              		.file 7 "..\\..\\..\\u8g2\\u8g2\\csrc\\u8g2.h"