ARM GAS  C:\Users\jesse\AppData\Local\Temp\cc3KAwkW.s 			page 1


   1              		.syntax unified
   2              		.cpu cortex-m3
   3              		.fpu softvfp
   4              		.eabi_attribute 20, 1
   5              		.eabi_attribute 21, 1
   6              		.eabi_attribute 23, 3
   7              		.eabi_attribute 24, 1
   8              		.eabi_attribute 25, 1
   9              		.eabi_attribute 26, 1
  10              		.eabi_attribute 30, 4
  11              		.eabi_attribute 34, 1
  12              		.eabi_attribute 18, 4
  13              		.thumb
  14              		.syntax unified
  15              		.file	"u8g2_buffer.c"
  16              		.text
  17              	.Ltext0:
  18              		.cfi_sections	.debug_frame
  19              		.section	.text.u8g2_send_buffer,"ax",%progbits
  20              		.align	1
  21              		.thumb
  22              		.thumb_func
  23              		.type	u8g2_send_buffer, %function
  24              	u8g2_send_buffer:
  25              	.LFB2:
  26              		.file 1 "..\\..\\..\\u8g2\\u8g2\\csrc\\u8g2_buffer.c"
   1:..\..\..\u8g2\u8g2\csrc/u8g2_buffer.c **** /* 
   2:..\..\..\u8g2\u8g2\csrc/u8g2_buffer.c **** 
   3:..\..\..\u8g2\u8g2\csrc/u8g2_buffer.c ****   u8g2_buffer.c 
   4:..\..\..\u8g2\u8g2\csrc/u8g2_buffer.c **** 
   5:..\..\..\u8g2\u8g2\csrc/u8g2_buffer.c ****   Universal 8bit Graphics Library (https://github.com/olikraus/u8g2/)
   6:..\..\..\u8g2\u8g2\csrc/u8g2_buffer.c **** 
   7:..\..\..\u8g2\u8g2\csrc/u8g2_buffer.c ****   Copyright (c) 2016, olikraus@gmail.com
   8:..\..\..\u8g2\u8g2\csrc/u8g2_buffer.c ****   All rights reserved.
   9:..\..\..\u8g2\u8g2\csrc/u8g2_buffer.c **** 
  10:..\..\..\u8g2\u8g2\csrc/u8g2_buffer.c ****   Redistribution and use in source and binary forms, with or without modification, 
  11:..\..\..\u8g2\u8g2\csrc/u8g2_buffer.c ****   are permitted provided that the following conditions are met:
  12:..\..\..\u8g2\u8g2\csrc/u8g2_buffer.c **** 
  13:..\..\..\u8g2\u8g2\csrc/u8g2_buffer.c ****   * Redistributions of source code must retain the above copyright notice, this list 
  14:..\..\..\u8g2\u8g2\csrc/u8g2_buffer.c ****     of conditions and the following disclaimer.
  15:..\..\..\u8g2\u8g2\csrc/u8g2_buffer.c ****     
  16:..\..\..\u8g2\u8g2\csrc/u8g2_buffer.c ****   * Redistributions in binary form must reproduce the above copyright notice, this 
  17:..\..\..\u8g2\u8g2\csrc/u8g2_buffer.c ****     list of conditions and the following disclaimer in the documentation and/or other 
  18:..\..\..\u8g2\u8g2\csrc/u8g2_buffer.c ****     materials provided with the distribution.
  19:..\..\..\u8g2\u8g2\csrc/u8g2_buffer.c **** 
  20:..\..\..\u8g2\u8g2\csrc/u8g2_buffer.c ****   THIS SOFTWARE IS PROVIDED BY THE COPYRIGHT HOLDERS AND 
  21:..\..\..\u8g2\u8g2\csrc/u8g2_buffer.c ****   CONTRIBUTORS "AS IS" AND ANY EXPRESS OR IMPLIED WARRANTIES, 
  22:..\..\..\u8g2\u8g2\csrc/u8g2_buffer.c ****   INCLUDING, BUT NOT LIMITED TO, THE IMPLIED WARRANTIES OF 
  23:..\..\..\u8g2\u8g2\csrc/u8g2_buffer.c ****   MERCHANTABILITY AND FITNESS FOR A PARTICULAR PURPOSE ARE 
  24:..\..\..\u8g2\u8g2\csrc/u8g2_buffer.c ****   DISCLAIMED. IN NO EVENT SHALL THE COPYRIGHT HOLDER OR 
  25:..\..\..\u8g2\u8g2\csrc/u8g2_buffer.c ****   CONTRIBUTORS BE LIABLE FOR ANY DIRECT, INDIRECT, INCIDENTAL, 
  26:..\..\..\u8g2\u8g2\csrc/u8g2_buffer.c ****   SPECIAL, EXEMPLARY, OR CONSEQUENTIAL DAMAGES (INCLUDING, BUT 
  27:..\..\..\u8g2\u8g2\csrc/u8g2_buffer.c ****   NOT LIMITED TO, PROCUREMENT OF SUBSTITUTE GOODS OR SERVICES; 
  28:..\..\..\u8g2\u8g2\csrc/u8g2_buffer.c ****   LOSS OF USE, DATA, OR PROFITS; OR BUSINESS INTERRUPTION) HOWEVER 
  29:..\..\..\u8g2\u8g2\csrc/u8g2_buffer.c ****   CAUSED AND ON ANY THEORY OF LIABILITY, WHETHER IN CONTRACT, 
  30:..\..\..\u8g2\u8g2\csrc/u8g2_buffer.c ****   STRICT LIABILITY, OR TORT (INCLUDING NEGLIGENCE OR OTHERWISE) 
  31:..\..\..\u8g2\u8g2\csrc/u8g2_buffer.c ****   ARISING IN ANY WAY OUT OF THE USE OF THIS SOFTWARE, EVEN IF 
ARM GAS  C:\Users\jesse\AppData\Local\Temp\cc3KAwkW.s 			page 2


  32:..\..\..\u8g2\u8g2\csrc/u8g2_buffer.c ****   ADVISED OF THE POSSIBILITY OF SUCH DAMAGE.  
  33:..\..\..\u8g2\u8g2\csrc/u8g2_buffer.c **** 
  34:..\..\..\u8g2\u8g2\csrc/u8g2_buffer.c **** */
  35:..\..\..\u8g2\u8g2\csrc/u8g2_buffer.c **** 
  36:..\..\..\u8g2\u8g2\csrc/u8g2_buffer.c **** #include "u8g2.h"
  37:..\..\..\u8g2\u8g2\csrc/u8g2_buffer.c **** #include <string.h>
  38:..\..\..\u8g2\u8g2\csrc/u8g2_buffer.c **** 
  39:..\..\..\u8g2\u8g2\csrc/u8g2_buffer.c **** /*============================================*/
  40:..\..\..\u8g2\u8g2\csrc/u8g2_buffer.c **** void u8g2_ClearBuffer(u8g2_t *u8g2)
  41:..\..\..\u8g2\u8g2\csrc/u8g2_buffer.c **** {
  42:..\..\..\u8g2\u8g2\csrc/u8g2_buffer.c ****   size_t cnt;
  43:..\..\..\u8g2\u8g2\csrc/u8g2_buffer.c ****   cnt = u8g2_GetU8x8(u8g2)->display_info->tile_width;
  44:..\..\..\u8g2\u8g2\csrc/u8g2_buffer.c ****   cnt *= u8g2->tile_buf_height;
  45:..\..\..\u8g2\u8g2\csrc/u8g2_buffer.c ****   cnt *= 8;
  46:..\..\..\u8g2\u8g2\csrc/u8g2_buffer.c ****   memset(u8g2->tile_buf_ptr, 0, cnt);
  47:..\..\..\u8g2\u8g2\csrc/u8g2_buffer.c **** }
  48:..\..\..\u8g2\u8g2\csrc/u8g2_buffer.c **** 
  49:..\..\..\u8g2\u8g2\csrc/u8g2_buffer.c **** /*============================================*/
  50:..\..\..\u8g2\u8g2\csrc/u8g2_buffer.c **** 
  51:..\..\..\u8g2\u8g2\csrc/u8g2_buffer.c **** static void u8g2_send_tile_row(u8g2_t *u8g2, uint8_t src_tile_row, uint8_t dest_tile_row)
  52:..\..\..\u8g2\u8g2\csrc/u8g2_buffer.c **** {
  53:..\..\..\u8g2\u8g2\csrc/u8g2_buffer.c ****   uint8_t *ptr;
  54:..\..\..\u8g2\u8g2\csrc/u8g2_buffer.c ****   uint16_t offset;
  55:..\..\..\u8g2\u8g2\csrc/u8g2_buffer.c ****   uint8_t w;
  56:..\..\..\u8g2\u8g2\csrc/u8g2_buffer.c ****   
  57:..\..\..\u8g2\u8g2\csrc/u8g2_buffer.c ****   w = u8g2_GetU8x8(u8g2)->display_info->tile_width;
  58:..\..\..\u8g2\u8g2\csrc/u8g2_buffer.c ****   offset = src_tile_row;
  59:..\..\..\u8g2\u8g2\csrc/u8g2_buffer.c ****   ptr = u8g2->tile_buf_ptr;
  60:..\..\..\u8g2\u8g2\csrc/u8g2_buffer.c ****   offset *= w;
  61:..\..\..\u8g2\u8g2\csrc/u8g2_buffer.c ****   offset *= 8;
  62:..\..\..\u8g2\u8g2\csrc/u8g2_buffer.c ****   ptr += offset;
  63:..\..\..\u8g2\u8g2\csrc/u8g2_buffer.c ****   u8x8_DrawTile(u8g2_GetU8x8(u8g2), 0, dest_tile_row, w, ptr);
  64:..\..\..\u8g2\u8g2\csrc/u8g2_buffer.c **** }
  65:..\..\..\u8g2\u8g2\csrc/u8g2_buffer.c **** 
  66:..\..\..\u8g2\u8g2\csrc/u8g2_buffer.c **** /* 
  67:..\..\..\u8g2\u8g2\csrc/u8g2_buffer.c ****   write the buffer to the display RAM. 
  68:..\..\..\u8g2\u8g2\csrc/u8g2_buffer.c ****   For most displays, this will make the content visible to the user.
  69:..\..\..\u8g2\u8g2\csrc/u8g2_buffer.c ****   Some displays (like the SSD1606) require a u8x8_RefreshDisplay()
  70:..\..\..\u8g2\u8g2\csrc/u8g2_buffer.c **** */
  71:..\..\..\u8g2\u8g2\csrc/u8g2_buffer.c **** static void u8g2_send_buffer(u8g2_t *u8g2) U8X8_NOINLINE;
  72:..\..\..\u8g2\u8g2\csrc/u8g2_buffer.c **** static void u8g2_send_buffer(u8g2_t *u8g2)
  73:..\..\..\u8g2\u8g2\csrc/u8g2_buffer.c **** {
  27              		.loc 1 73 0
  28              		.cfi_startproc
  29              		@ args = 0, pretend = 0, frame = 0
  30              		@ frame_needed = 0, uses_anonymous_args = 0
  31              	.LVL0:
  32 0000 2DE9F743 		push	{r0, r1, r2, r4, r5, r6, r7, r8, r9, lr}
  33              		.cfi_def_cfa_offset 40
  34              		.cfi_offset 4, -28
  35              		.cfi_offset 5, -24
  36              		.cfi_offset 6, -20
  37              		.cfi_offset 7, -16
  38              		.cfi_offset 8, -12
  39              		.cfi_offset 9, -8
  40              		.cfi_offset 14, -4
  41              		.loc 1 73 0
ARM GAS  C:\Users\jesse\AppData\Local\Temp\cc3KAwkW.s 			page 3


  42 0004 0546     		mov	r5, r0
  74:..\..\..\u8g2\u8g2\csrc/u8g2_buffer.c ****   uint8_t src_row;
  75:..\..\..\u8g2\u8g2\csrc/u8g2_buffer.c ****   uint8_t src_max;
  76:..\..\..\u8g2\u8g2\csrc/u8g2_buffer.c ****   uint8_t dest_row;
  77:..\..\..\u8g2\u8g2\csrc/u8g2_buffer.c ****   uint8_t dest_max;
  78:..\..\..\u8g2\u8g2\csrc/u8g2_buffer.c **** 
  79:..\..\..\u8g2\u8g2\csrc/u8g2_buffer.c ****   src_row = 0;
  80:..\..\..\u8g2\u8g2\csrc/u8g2_buffer.c ****   src_max = u8g2->tile_buf_height;
  81:..\..\..\u8g2\u8g2\csrc/u8g2_buffer.c ****   dest_row = u8g2->tile_curr_row;
  82:..\..\..\u8g2\u8g2\csrc/u8g2_buffer.c ****   dest_max = u8g2_GetU8x8(u8g2)->display_info->tile_height;
  43              		.loc 1 82 0
  44 0006 0368     		ldr	r3, [r0]
  80:..\..\..\u8g2\u8g2\csrc/u8g2_buffer.c ****   dest_row = u8g2->tile_curr_row;
  45              		.loc 1 80 0
  46 0008 90F83890 		ldrb	r9, [r0, #56]	@ zero_extendqisi2
  47              	.LVL1:
  81:..\..\..\u8g2\u8g2\csrc/u8g2_buffer.c ****   dest_max = u8g2_GetU8x8(u8g2)->display_info->tile_height;
  48              		.loc 1 81 0
  49 000c 90F83970 		ldrb	r7, [r0, #57]	@ zero_extendqisi2
  50              	.LVL2:
  51              		.loc 1 82 0
  52 0010 93F81180 		ldrb	r8, [r3, #17]	@ zero_extendqisi2
  53              	.LVL3:
  54 0014 0026     		movs	r6, #0
  55              	.LVL4:
  56              	.L3:
  57              	.LBB4:
  58              	.LBB5:
  57:..\..\..\u8g2\u8g2\csrc/u8g2_buffer.c ****   offset = src_tile_row;
  59              		.loc 1 57 0 discriminator 2
  60 0016 2B68     		ldr	r3, [r5]
  58:..\..\..\u8g2\u8g2\csrc/u8g2_buffer.c ****   ptr = u8g2->tile_buf_ptr;
  61              		.loc 1 58 0 discriminator 2
  62 0018 B1B2     		uxth	r1, r6
  57:..\..\..\u8g2\u8g2\csrc/u8g2_buffer.c ****   offset = src_tile_row;
  63              		.loc 1 57 0 discriminator 2
  64 001a 1B7C     		ldrb	r3, [r3, #16]	@ zero_extendqisi2
  65 001c F4B2     		uxtb	r4, r6
  66              	.LVL5:
  63:..\..\..\u8g2\u8g2\csrc/u8g2_buffer.c **** }
  67              		.loc 1 63 0 discriminator 2
  68 001e D800     		lsls	r0, r3, #3
  69 0020 4143     		muls	r1, r0, r1
  70 0022 686B     		ldr	r0, [r5, #52]
  71 0024 89B2     		uxth	r1, r1
  72 0026 0144     		add	r1, r1, r0
  73 0028 3A19     		adds	r2, r7, r4
  74              	.LBE5:
  75              	.LBE4:
  83:..\..\..\u8g2\u8g2\csrc/u8g2_buffer.c ****   
  84:..\..\..\u8g2\u8g2\csrc/u8g2_buffer.c ****   do
  85:..\..\..\u8g2\u8g2\csrc/u8g2_buffer.c ****   {
  86:..\..\..\u8g2\u8g2\csrc/u8g2_buffer.c ****     u8g2_send_tile_row(u8g2, src_row, dest_row);
  87:..\..\..\u8g2\u8g2\csrc/u8g2_buffer.c ****     src_row++;
  88:..\..\..\u8g2\u8g2\csrc/u8g2_buffer.c ****     dest_row++;
  89:..\..\..\u8g2\u8g2\csrc/u8g2_buffer.c ****   } while( src_row < src_max && dest_row < dest_max );
  76              		.loc 1 89 0 discriminator 2
ARM GAS  C:\Users\jesse\AppData\Local\Temp\cc3KAwkW.s 			page 4


  77 002a 0134     		adds	r4, r4, #1
  78              	.LBB8:
  79              	.LBB6:
  63:..\..\..\u8g2\u8g2\csrc/u8g2_buffer.c **** }
  80              		.loc 1 63 0 discriminator 2
  81 002c 0091     		str	r1, [sp]
  82 002e D2B2     		uxtb	r2, r2
  83 0030 0021     		movs	r1, #0
  84 0032 2846     		mov	r0, r5
  85              	.LBE6:
  86              	.LBE8:
  87              		.loc 1 89 0 discriminator 2
  88 0034 E4B2     		uxtb	r4, r4
  89              	.LBB9:
  90              	.LBB7:
  63:..\..\..\u8g2\u8g2\csrc/u8g2_buffer.c **** }
  91              		.loc 1 63 0 discriminator 2
  92 0036 FFF7FEFF 		bl	u8x8_DrawTile
  93              	.LVL6:
  94              	.LBE7:
  95              	.LBE9:
  96              		.loc 1 89 0 discriminator 2
  97 003a A145     		cmp	r9, r4
  98 003c 04D9     		bls	.L1
  99 003e 0136     		adds	r6, r6, #1
 100              	.LVL7:
 101              		.loc 1 89 0 is_stmt 0 discriminator 1
 102 0040 BB19     		adds	r3, r7, r6
 103 0042 DBB2     		uxtb	r3, r3
 104 0044 9845     		cmp	r8, r3
 105 0046 E6D8     		bhi	.L3
 106              	.L1:
  90:..\..\..\u8g2\u8g2\csrc/u8g2_buffer.c **** }
 107              		.loc 1 90 0 is_stmt 1
 108 0048 03B0     		add	sp, sp, #12
 109              		.cfi_def_cfa_offset 28
 110              		@ sp needed
 111 004a BDE8F083 		pop	{r4, r5, r6, r7, r8, r9, pc}
 112              		.cfi_endproc
 113              	.LFE2:
 114              		.size	u8g2_send_buffer, .-u8g2_send_buffer
 115              		.section	.text.u8g2_ClearBuffer,"ax",%progbits
 116              		.align	1
 117              		.global	u8g2_ClearBuffer
 118              		.thumb
 119              		.thumb_func
 120              		.type	u8g2_ClearBuffer, %function
 121              	u8g2_ClearBuffer:
 122              	.LFB0:
  41:..\..\..\u8g2\u8g2\csrc/u8g2_buffer.c ****   size_t cnt;
 123              		.loc 1 41 0
 124              		.cfi_startproc
 125              		@ args = 0, pretend = 0, frame = 0
 126              		@ frame_needed = 0, uses_anonymous_args = 0
 127              		@ link register save eliminated.
 128              	.LVL8:
  43:..\..\..\u8g2\u8g2\csrc/u8g2_buffer.c ****   cnt *= u8g2->tile_buf_height;
ARM GAS  C:\Users\jesse\AppData\Local\Temp\cc3KAwkW.s 			page 5


 129              		.loc 1 43 0
 130 0000 0368     		ldr	r3, [r0]
  44:..\..\..\u8g2\u8g2\csrc/u8g2_buffer.c ****   cnt *= 8;
 131              		.loc 1 44 0
 132 0002 90F83820 		ldrb	r2, [r0, #56]	@ zero_extendqisi2
  43:..\..\..\u8g2\u8g2\csrc/u8g2_buffer.c ****   cnt *= u8g2->tile_buf_height;
 133              		.loc 1 43 0
 134 0006 1B7C     		ldrb	r3, [r3, #16]	@ zero_extendqisi2
 135              	.LVL9:
  46:..\..\..\u8g2\u8g2\csrc/u8g2_buffer.c **** }
 136              		.loc 1 46 0
 137 0008 0021     		movs	r1, #0
  44:..\..\..\u8g2\u8g2\csrc/u8g2_buffer.c ****   cnt *= 8;
 138              		.loc 1 44 0
 139 000a 5A43     		muls	r2, r3, r2
 140              	.LVL10:
  46:..\..\..\u8g2\u8g2\csrc/u8g2_buffer.c **** }
 141              		.loc 1 46 0
 142 000c 406B     		ldr	r0, [r0, #52]
 143              	.LVL11:
 144 000e D200     		lsls	r2, r2, #3
 145              	.LVL12:
 146 0010 FFF7FEBF 		b	memset
 147              	.LVL13:
 148              		.cfi_endproc
 149              	.LFE0:
 150              		.size	u8g2_ClearBuffer, .-u8g2_ClearBuffer
 151              		.section	.text.u8g2_SendBuffer,"ax",%progbits
 152              		.align	1
 153              		.global	u8g2_SendBuffer
 154              		.thumb
 155              		.thumb_func
 156              		.type	u8g2_SendBuffer, %function
 157              	u8g2_SendBuffer:
 158              	.LFB3:
  91:..\..\..\u8g2\u8g2\csrc/u8g2_buffer.c **** 
  92:..\..\..\u8g2\u8g2\csrc/u8g2_buffer.c **** /* same as u8g2_send_buffer but also send the DISPLAY_REFRESH message (used by SSD1606) */
  93:..\..\..\u8g2\u8g2\csrc/u8g2_buffer.c **** void u8g2_SendBuffer(u8g2_t *u8g2)
  94:..\..\..\u8g2\u8g2\csrc/u8g2_buffer.c **** {
 159              		.loc 1 94 0
 160              		.cfi_startproc
 161              		@ args = 0, pretend = 0, frame = 0
 162              		@ frame_needed = 0, uses_anonymous_args = 0
 163              	.LVL14:
 164 0000 10B5     		push	{r4, lr}
 165              		.cfi_def_cfa_offset 8
 166              		.cfi_offset 4, -8
 167              		.cfi_offset 14, -4
 168              		.loc 1 94 0
 169 0002 0446     		mov	r4, r0
  95:..\..\..\u8g2\u8g2\csrc/u8g2_buffer.c ****   u8g2_send_buffer(u8g2);
 170              		.loc 1 95 0
 171 0004 FFF7FEFF 		bl	u8g2_send_buffer
 172              	.LVL15:
  96:..\..\..\u8g2\u8g2\csrc/u8g2_buffer.c ****   u8x8_RefreshDisplay( u8g2_GetU8x8(u8g2) );  
 173              		.loc 1 96 0
 174 0008 2046     		mov	r0, r4
ARM GAS  C:\Users\jesse\AppData\Local\Temp\cc3KAwkW.s 			page 6


  97:..\..\..\u8g2\u8g2\csrc/u8g2_buffer.c **** }
 175              		.loc 1 97 0
 176 000a BDE81040 		pop	{r4, lr}
 177              		.cfi_restore 14
 178              		.cfi_restore 4
 179              		.cfi_def_cfa_offset 0
 180              	.LVL16:
  96:..\..\..\u8g2\u8g2\csrc/u8g2_buffer.c ****   u8x8_RefreshDisplay( u8g2_GetU8x8(u8g2) );  
 181              		.loc 1 96 0
 182 000e FFF7FEBF 		b	u8x8_RefreshDisplay
 183              	.LVL17:
 184              		.cfi_endproc
 185              	.LFE3:
 186              		.size	u8g2_SendBuffer, .-u8g2_SendBuffer
 187              		.section	.text.u8g2_SetBufferCurrTileRow,"ax",%progbits
 188              		.align	1
 189              		.global	u8g2_SetBufferCurrTileRow
 190              		.thumb
 191              		.thumb_func
 192              		.type	u8g2_SetBufferCurrTileRow, %function
 193              	u8g2_SetBufferCurrTileRow:
 194              	.LFB4:
  98:..\..\..\u8g2\u8g2\csrc/u8g2_buffer.c **** 
  99:..\..\..\u8g2\u8g2\csrc/u8g2_buffer.c **** /*============================================*/
 100:..\..\..\u8g2\u8g2\csrc/u8g2_buffer.c **** void u8g2_SetBufferCurrTileRow(u8g2_t *u8g2, uint8_t row)
 101:..\..\..\u8g2\u8g2\csrc/u8g2_buffer.c **** {
 195              		.loc 1 101 0
 196              		.cfi_startproc
 197              		@ args = 0, pretend = 0, frame = 0
 198              		@ frame_needed = 0, uses_anonymous_args = 0
 199              	.LVL18:
 200 0000 10B5     		push	{r4, lr}
 201              		.cfi_def_cfa_offset 8
 202              		.cfi_offset 4, -8
 203              		.cfi_offset 14, -4
 204              		.loc 1 101 0
 205 0002 0446     		mov	r4, r0
 102:..\..\..\u8g2\u8g2\csrc/u8g2_buffer.c ****   u8g2->tile_curr_row = row;
 103:..\..\..\u8g2\u8g2\csrc/u8g2_buffer.c ****   u8g2->cb->update_dimension(u8g2);
 206              		.loc 1 103 0
 207 0004 036B     		ldr	r3, [r0, #48]
 102:..\..\..\u8g2\u8g2\csrc/u8g2_buffer.c ****   u8g2->tile_curr_row = row;
 208              		.loc 1 102 0
 209 0006 80F83910 		strb	r1, [r0, #57]
 210              		.loc 1 103 0
 211 000a 1B68     		ldr	r3, [r3]
 212 000c 9847     		blx	r3
 213              	.LVL19:
 104:..\..\..\u8g2\u8g2\csrc/u8g2_buffer.c ****   u8g2->cb->update_page_win(u8g2);
 214              		.loc 1 104 0
 215 000e 236B     		ldr	r3, [r4, #48]
 216 0010 2046     		mov	r0, r4
 105:..\..\..\u8g2\u8g2\csrc/u8g2_buffer.c **** }
 217              		.loc 1 105 0
 218 0012 BDE81040 		pop	{r4, lr}
 219              		.cfi_restore 14
 220              		.cfi_restore 4
ARM GAS  C:\Users\jesse\AppData\Local\Temp\cc3KAwkW.s 			page 7


 221              		.cfi_def_cfa_offset 0
 222              	.LVL20:
 104:..\..\..\u8g2\u8g2\csrc/u8g2_buffer.c ****   u8g2->cb->update_page_win(u8g2);
 223              		.loc 1 104 0
 224 0016 5B68     		ldr	r3, [r3, #4]
 225 0018 1847     		bx	r3	@ indirect register sibling call
 226              	.LVL21:
 227              		.cfi_endproc
 228              	.LFE4:
 229              		.size	u8g2_SetBufferCurrTileRow, .-u8g2_SetBufferCurrTileRow
 230              		.section	.text.u8g2_FirstPage,"ax",%progbits
 231              		.align	1
 232              		.global	u8g2_FirstPage
 233              		.thumb
 234              		.thumb_func
 235              		.type	u8g2_FirstPage, %function
 236              	u8g2_FirstPage:
 237              	.LFB5:
 106:..\..\..\u8g2\u8g2\csrc/u8g2_buffer.c **** 
 107:..\..\..\u8g2\u8g2\csrc/u8g2_buffer.c **** void u8g2_FirstPage(u8g2_t *u8g2)
 108:..\..\..\u8g2\u8g2\csrc/u8g2_buffer.c **** {
 238              		.loc 1 108 0
 239              		.cfi_startproc
 240              		@ args = 0, pretend = 0, frame = 0
 241              		@ frame_needed = 0, uses_anonymous_args = 0
 242              	.LVL22:
 243 0000 10B5     		push	{r4, lr}
 244              		.cfi_def_cfa_offset 8
 245              		.cfi_offset 4, -8
 246              		.cfi_offset 14, -4
 109:..\..\..\u8g2\u8g2\csrc/u8g2_buffer.c ****   if ( u8g2->is_auto_page_clear )
 247              		.loc 1 109 0
 248 0002 90F89330 		ldrb	r3, [r0, #147]	@ zero_extendqisi2
 108:..\..\..\u8g2\u8g2\csrc/u8g2_buffer.c ****   if ( u8g2->is_auto_page_clear )
 249              		.loc 1 108 0
 250 0006 0446     		mov	r4, r0
 251              		.loc 1 109 0
 252 0008 0BB1     		cbz	r3, .L10
 110:..\..\..\u8g2\u8g2\csrc/u8g2_buffer.c ****   {
 111:..\..\..\u8g2\u8g2\csrc/u8g2_buffer.c ****     u8g2_ClearBuffer(u8g2);
 253              		.loc 1 111 0
 254 000a FFF7FEFF 		bl	u8g2_ClearBuffer
 255              	.LVL23:
 256              	.L10:
 112:..\..\..\u8g2\u8g2\csrc/u8g2_buffer.c ****   }
 113:..\..\..\u8g2\u8g2\csrc/u8g2_buffer.c ****   u8g2_SetBufferCurrTileRow(u8g2, 0);
 257              		.loc 1 113 0
 258 000e 2046     		mov	r0, r4
 114:..\..\..\u8g2\u8g2\csrc/u8g2_buffer.c **** }
 259              		.loc 1 114 0
 260 0010 BDE81040 		pop	{r4, lr}
 261              		.cfi_restore 14
 262              		.cfi_restore 4
 263              		.cfi_def_cfa_offset 0
 264              	.LVL24:
 113:..\..\..\u8g2\u8g2\csrc/u8g2_buffer.c **** }
 265              		.loc 1 113 0
ARM GAS  C:\Users\jesse\AppData\Local\Temp\cc3KAwkW.s 			page 8


 266 0014 0021     		movs	r1, #0
 267 0016 FFF7FEBF 		b	u8g2_SetBufferCurrTileRow
 268              	.LVL25:
 269              		.cfi_endproc
 270              	.LFE5:
 271              		.size	u8g2_FirstPage, .-u8g2_FirstPage
 272              		.section	.text.u8g2_NextPage,"ax",%progbits
 273              		.align	1
 274              		.global	u8g2_NextPage
 275              		.thumb
 276              		.thumb_func
 277              		.type	u8g2_NextPage, %function
 278              	u8g2_NextPage:
 279              	.LFB6:
 115:..\..\..\u8g2\u8g2\csrc/u8g2_buffer.c **** 
 116:..\..\..\u8g2\u8g2\csrc/u8g2_buffer.c **** uint8_t u8g2_NextPage(u8g2_t *u8g2)
 117:..\..\..\u8g2\u8g2\csrc/u8g2_buffer.c **** {
 280              		.loc 1 117 0
 281              		.cfi_startproc
 282              		@ args = 0, pretend = 0, frame = 0
 283              		@ frame_needed = 0, uses_anonymous_args = 0
 284              	.LVL26:
 285 0000 38B5     		push	{r3, r4, r5, lr}
 286              		.cfi_def_cfa_offset 16
 287              		.cfi_offset 3, -16
 288              		.cfi_offset 4, -12
 289              		.cfi_offset 5, -8
 290              		.cfi_offset 14, -4
 291              		.loc 1 117 0
 292 0002 0446     		mov	r4, r0
 118:..\..\..\u8g2\u8g2\csrc/u8g2_buffer.c ****   uint8_t row;
 119:..\..\..\u8g2\u8g2\csrc/u8g2_buffer.c ****   u8g2_send_buffer(u8g2);
 293              		.loc 1 119 0
 294 0004 FFF7FEFF 		bl	u8g2_send_buffer
 295              	.LVL27:
 120:..\..\..\u8g2\u8g2\csrc/u8g2_buffer.c ****   row = u8g2->tile_curr_row;
 121:..\..\..\u8g2\u8g2\csrc/u8g2_buffer.c ****   row += u8g2->tile_buf_height;
 296              		.loc 1 121 0
 297 0008 94F83830 		ldrb	r3, [r4, #56]	@ zero_extendqisi2
 120:..\..\..\u8g2\u8g2\csrc/u8g2_buffer.c ****   row = u8g2->tile_curr_row;
 298              		.loc 1 120 0
 299 000c 94F83950 		ldrb	r5, [r4, #57]	@ zero_extendqisi2
 300              	.LVL28:
 301              		.loc 1 121 0
 302 0010 1D44     		add	r5, r5, r3
 303              	.LVL29:
 122:..\..\..\u8g2\u8g2\csrc/u8g2_buffer.c ****   if ( row >= u8g2_GetU8x8(u8g2)->display_info->tile_height )
 304              		.loc 1 122 0
 305 0012 2368     		ldr	r3, [r4]
 121:..\..\..\u8g2\u8g2\csrc/u8g2_buffer.c ****   if ( row >= u8g2_GetU8x8(u8g2)->display_info->tile_height )
 306              		.loc 1 121 0
 307 0014 EDB2     		uxtb	r5, r5
 308              	.LVL30:
 309              		.loc 1 122 0
 310 0016 5B7C     		ldrb	r3, [r3, #17]	@ zero_extendqisi2
 311 0018 AB42     		cmp	r3, r5
 312 001a 04D8     		bhi	.L15
ARM GAS  C:\Users\jesse\AppData\Local\Temp\cc3KAwkW.s 			page 9


 123:..\..\..\u8g2\u8g2\csrc/u8g2_buffer.c ****   {
 124:..\..\..\u8g2\u8g2\csrc/u8g2_buffer.c ****     u8x8_RefreshDisplay( u8g2_GetU8x8(u8g2) );
 313              		.loc 1 124 0
 314 001c 2046     		mov	r0, r4
 315 001e FFF7FEFF 		bl	u8x8_RefreshDisplay
 316              	.LVL31:
 125:..\..\..\u8g2\u8g2\csrc/u8g2_buffer.c ****     return 0;
 317              		.loc 1 125 0
 318 0022 0020     		movs	r0, #0
 319 0024 38BD     		pop	{r3, r4, r5, pc}
 320              	.LVL32:
 321              	.L15:
 126:..\..\..\u8g2\u8g2\csrc/u8g2_buffer.c ****   }
 127:..\..\..\u8g2\u8g2\csrc/u8g2_buffer.c ****   if ( u8g2->is_auto_page_clear )
 322              		.loc 1 127 0
 323 0026 94F89330 		ldrb	r3, [r4, #147]	@ zero_extendqisi2
 324 002a 13B1     		cbz	r3, .L17
 128:..\..\..\u8g2\u8g2\csrc/u8g2_buffer.c ****   {
 129:..\..\..\u8g2\u8g2\csrc/u8g2_buffer.c ****     u8g2_ClearBuffer(u8g2);
 325              		.loc 1 129 0
 326 002c 2046     		mov	r0, r4
 327 002e FFF7FEFF 		bl	u8g2_ClearBuffer
 328              	.LVL33:
 329              	.L17:
 130:..\..\..\u8g2\u8g2\csrc/u8g2_buffer.c ****   }
 131:..\..\..\u8g2\u8g2\csrc/u8g2_buffer.c ****   u8g2_SetBufferCurrTileRow(u8g2, row);
 330              		.loc 1 131 0
 331 0032 2046     		mov	r0, r4
 332 0034 2946     		mov	r1, r5
 333 0036 FFF7FEFF 		bl	u8g2_SetBufferCurrTileRow
 334              	.LVL34:
 132:..\..\..\u8g2\u8g2\csrc/u8g2_buffer.c ****   return 1;
 335              		.loc 1 132 0
 336 003a 0120     		movs	r0, #1
 133:..\..\..\u8g2\u8g2\csrc/u8g2_buffer.c **** }
 337              		.loc 1 133 0
 338 003c 38BD     		pop	{r3, r4, r5, pc}
 339              		.cfi_endproc
 340              	.LFE6:
 341              		.size	u8g2_NextPage, .-u8g2_NextPage
 342              		.section	.text.u8g2_UpdateDisplayArea,"ax",%progbits
 343              		.align	1
 344              		.global	u8g2_UpdateDisplayArea
 345              		.thumb
 346              		.thumb_func
 347              		.type	u8g2_UpdateDisplayArea, %function
 348              	u8g2_UpdateDisplayArea:
 349              	.LFB7:
 134:..\..\..\u8g2\u8g2\csrc/u8g2_buffer.c **** 
 135:..\..\..\u8g2\u8g2\csrc/u8g2_buffer.c **** 
 136:..\..\..\u8g2\u8g2\csrc/u8g2_buffer.c **** 
 137:..\..\..\u8g2\u8g2\csrc/u8g2_buffer.c **** /*============================================*/
 138:..\..\..\u8g2\u8g2\csrc/u8g2_buffer.c **** /*
 139:..\..\..\u8g2\u8g2\csrc/u8g2_buffer.c ****   Description:
 140:..\..\..\u8g2\u8g2\csrc/u8g2_buffer.c ****     Update a sub area of the display, given by tile position, width and height.
 141:..\..\..\u8g2\u8g2\csrc/u8g2_buffer.c ****     The arguments are "tile" coordinates. Any u8g2 rotation is ignored.
 142:..\..\..\u8g2\u8g2\csrc/u8g2_buffer.c ****     This procedure only checks whether full buffer mode is active.
ARM GAS  C:\Users\jesse\AppData\Local\Temp\cc3KAwkW.s 			page 10


 143:..\..\..\u8g2\u8g2\csrc/u8g2_buffer.c ****     There is no error checking for the arguments: It is the responsibility of the
 144:..\..\..\u8g2\u8g2\csrc/u8g2_buffer.c ****     user to ensure, that the provided arguments are correct.
 145:..\..\..\u8g2\u8g2\csrc/u8g2_buffer.c **** 
 146:..\..\..\u8g2\u8g2\csrc/u8g2_buffer.c ****   Limitations:
 147:..\..\..\u8g2\u8g2\csrc/u8g2_buffer.c ****     - Only available in full buffer mode (will not do anything in page mode)
 148:..\..\..\u8g2\u8g2\csrc/u8g2_buffer.c ****     - Tile positions and sizes (pixel position divided by 8)
 149:..\..\..\u8g2\u8g2\csrc/u8g2_buffer.c ****     - Any display rotation/mirror is ignored
 150:..\..\..\u8g2\u8g2\csrc/u8g2_buffer.c ****     - Only works with displays, which support U8x8 API
 151:..\..\..\u8g2\u8g2\csrc/u8g2_buffer.c ****     - Will not send the e-paper refresh message (will probably not work with e-paper devices)
 152:..\..\..\u8g2\u8g2\csrc/u8g2_buffer.c **** */
 153:..\..\..\u8g2\u8g2\csrc/u8g2_buffer.c **** void u8g2_UpdateDisplayArea(u8g2_t *u8g2, uint8_t  tx, uint8_t ty, uint8_t tw, uint8_t th)
 154:..\..\..\u8g2\u8g2\csrc/u8g2_buffer.c **** {
 350              		.loc 1 154 0
 351              		.cfi_startproc
 352              		@ args = 4, pretend = 0, frame = 0
 353              		@ frame_needed = 0, uses_anonymous_args = 0
 354              	.LVL35:
 355 0000 2DE9F347 		push	{r0, r1, r4, r5, r6, r7, r8, r9, r10, lr}
 356              		.cfi_def_cfa_offset 40
 357              		.cfi_offset 4, -32
 358              		.cfi_offset 5, -28
 359              		.cfi_offset 6, -24
 360              		.cfi_offset 7, -20
 361              		.cfi_offset 8, -16
 362              		.cfi_offset 9, -12
 363              		.cfi_offset 10, -8
 364              		.cfi_offset 14, -4
 365              		.loc 1 154 0
 366 0004 9A46     		mov	r10, r3
 155:..\..\..\u8g2\u8g2\csrc/u8g2_buffer.c ****   uint16_t page_size;
 156:..\..\..\u8g2\u8g2\csrc/u8g2_buffer.c ****   uint8_t *ptr;
 157:..\..\..\u8g2\u8g2\csrc/u8g2_buffer.c ****   
 158:..\..\..\u8g2\u8g2\csrc/u8g2_buffer.c ****   /* check, whether we are in full buffer mode */
 159:..\..\..\u8g2\u8g2\csrc/u8g2_buffer.c ****   if ( u8g2->tile_buf_height != u8g2_GetU8x8(u8g2)->display_info->tile_height )
 367              		.loc 1 159 0
 368 0006 0368     		ldr	r3, [r0]
 369              	.LVL36:
 154:..\..\..\u8g2\u8g2\csrc/u8g2_buffer.c ****   uint16_t page_size;
 370              		.loc 1 154 0
 371 0008 1446     		mov	r4, r2
 372              		.loc 1 159 0
 373 000a 5B7C     		ldrb	r3, [r3, #17]	@ zero_extendqisi2
 374 000c 90F83820 		ldrb	r2, [r0, #56]	@ zero_extendqisi2
 375              	.LVL37:
 154:..\..\..\u8g2\u8g2\csrc/u8g2_buffer.c ****   uint16_t page_size;
 376              		.loc 1 154 0
 377 0010 0746     		mov	r7, r0
 378              		.loc 1 159 0
 379 0012 9A42     		cmp	r2, r3
 154:..\..\..\u8g2\u8g2\csrc/u8g2_buffer.c ****   uint16_t page_size;
 380              		.loc 1 154 0
 381 0014 8946     		mov	r9, r1
 382              		.loc 1 159 0
 383 0016 18D1     		bne	.L21
 160:..\..\..\u8g2\u8g2\csrc/u8g2_buffer.c ****     return; /* not in full buffer mode, do nothing */
 161:..\..\..\u8g2\u8g2\csrc/u8g2_buffer.c **** 
 162:..\..\..\u8g2\u8g2\csrc/u8g2_buffer.c ****   page_size = u8g2->pixel_buf_width;  /* 8*u8g2->u8g2_GetU8x8(u8g2)->display_info->tile_width */
ARM GAS  C:\Users\jesse\AppData\Local\Temp\cc3KAwkW.s 			page 11


 384              		.loc 1 162 0
 385 0018 B0F83A80 		ldrh	r8, [r0, #58]
 386              	.LVL38:
 387 001c 9DF82860 		ldrb	r6, [sp, #40]	@ zero_extendqisi2
 163:..\..\..\u8g2\u8g2\csrc/u8g2_buffer.c ****     
 164:..\..\..\u8g2\u8g2\csrc/u8g2_buffer.c ****   ptr = u8g2_GetBufferPtr(u8g2);
 165:..\..\..\u8g2\u8g2\csrc/u8g2_buffer.c ****   ptr += tx*8;
 166:..\..\..\u8g2\u8g2\csrc/u8g2_buffer.c ****   ptr += page_size*ty;
 388              		.loc 1 166 0
 389 0020 04FB08F3 		mul	r3, r4, r8
 164:..\..\..\u8g2\u8g2\csrc/u8g2_buffer.c ****   ptr += tx*8;
 390              		.loc 1 164 0
 391 0024 456B     		ldr	r5, [r0, #52]
 392              	.LVL39:
 393              		.loc 1 166 0
 394 0026 03EBC103 		add	r3, r3, r1, lsl #3
 395 002a 2644     		add	r6, r6, r4
 396 002c 1D44     		add	r5, r5, r3
 397              	.LVL40:
 398 002e F6B2     		uxtb	r6, r6
 399              	.LVL41:
 400              	.L23:
 167:..\..\..\u8g2\u8g2\csrc/u8g2_buffer.c ****   
 168:..\..\..\u8g2\u8g2\csrc/u8g2_buffer.c ****   while( th > 0 )
 401              		.loc 1 168 0
 402 0030 B442     		cmp	r4, r6
 403 0032 0AD0     		beq	.L21
 169:..\..\..\u8g2\u8g2\csrc/u8g2_buffer.c ****   {
 170:..\..\..\u8g2\u8g2\csrc/u8g2_buffer.c ****     u8x8_DrawTile( u8g2_GetU8x8(u8g2), tx, ty, tw, ptr );
 404              		.loc 1 170 0
 405 0034 0095     		str	r5, [sp]
 406 0036 2246     		mov	r2, r4
 407 0038 5346     		mov	r3, r10
 408 003a 4946     		mov	r1, r9
 409 003c 3846     		mov	r0, r7
 171:..\..\..\u8g2\u8g2\csrc/u8g2_buffer.c ****     ptr += page_size;
 172:..\..\..\u8g2\u8g2\csrc/u8g2_buffer.c ****     ty++;
 410              		.loc 1 172 0
 411 003e 0134     		adds	r4, r4, #1
 412              	.LVL42:
 170:..\..\..\u8g2\u8g2\csrc/u8g2_buffer.c ****     ptr += page_size;
 413              		.loc 1 170 0
 414 0040 FFF7FEFF 		bl	u8x8_DrawTile
 415              	.LVL43:
 416 0044 4544     		add	r5, r5, r8
 417              	.LVL44:
 418              		.loc 1 172 0
 419 0046 E4B2     		uxtb	r4, r4
 420              	.LVL45:
 421 0048 F2E7     		b	.L23
 422              	.LVL46:
 423              	.L21:
 173:..\..\..\u8g2\u8g2\csrc/u8g2_buffer.c ****     th--;
 174:..\..\..\u8g2\u8g2\csrc/u8g2_buffer.c ****   }  
 175:..\..\..\u8g2\u8g2\csrc/u8g2_buffer.c **** }
 424              		.loc 1 175 0
 425 004a 02B0     		add	sp, sp, #8
ARM GAS  C:\Users\jesse\AppData\Local\Temp\cc3KAwkW.s 			page 12


 426              		.cfi_def_cfa_offset 32
 427              		@ sp needed
 428 004c BDE8F087 		pop	{r4, r5, r6, r7, r8, r9, r10, pc}
 429              		.cfi_endproc
 430              	.LFE7:
 431              		.size	u8g2_UpdateDisplayArea, .-u8g2_UpdateDisplayArea
 432              		.section	.text.u8g2_UpdateDisplay,"ax",%progbits
 433              		.align	1
 434              		.global	u8g2_UpdateDisplay
 435              		.thumb
 436              		.thumb_func
 437              		.type	u8g2_UpdateDisplay, %function
 438              	u8g2_UpdateDisplay:
 439              	.LFB8:
 176:..\..\..\u8g2\u8g2\csrc/u8g2_buffer.c **** 
 177:..\..\..\u8g2\u8g2\csrc/u8g2_buffer.c **** /* same as sendBuffer, but does not send the ePaper refresh message */
 178:..\..\..\u8g2\u8g2\csrc/u8g2_buffer.c **** void u8g2_UpdateDisplay(u8g2_t *u8g2)
 179:..\..\..\u8g2\u8g2\csrc/u8g2_buffer.c **** {
 440              		.loc 1 179 0
 441              		.cfi_startproc
 442              		@ args = 0, pretend = 0, frame = 0
 443              		@ frame_needed = 0, uses_anonymous_args = 0
 444              		@ link register save eliminated.
 445              	.LVL47:
 180:..\..\..\u8g2\u8g2\csrc/u8g2_buffer.c ****   u8g2_send_buffer(u8g2);
 446              		.loc 1 180 0
 447 0000 FFF7FEBF 		b	u8g2_send_buffer
 448              	.LVL48:
 449              		.cfi_endproc
 450              	.LFE8:
 451              		.size	u8g2_UpdateDisplay, .-u8g2_UpdateDisplay
 452              		.section	.text.u8g2_WriteBufferPBM,"ax",%progbits
 453              		.align	1
 454              		.global	u8g2_WriteBufferPBM
 455              		.thumb
 456              		.thumb_func
 457              		.type	u8g2_WriteBufferPBM, %function
 458              	u8g2_WriteBufferPBM:
 459              	.LFB9:
 181:..\..\..\u8g2\u8g2\csrc/u8g2_buffer.c **** }
 182:..\..\..\u8g2\u8g2\csrc/u8g2_buffer.c **** 
 183:..\..\..\u8g2\u8g2\csrc/u8g2_buffer.c **** 
 184:..\..\..\u8g2\u8g2\csrc/u8g2_buffer.c **** /*============================================*/
 185:..\..\..\u8g2\u8g2\csrc/u8g2_buffer.c **** 
 186:..\..\..\u8g2\u8g2\csrc/u8g2_buffer.c **** /* vertical_top memory architecture */
 187:..\..\..\u8g2\u8g2\csrc/u8g2_buffer.c **** void u8g2_WriteBufferPBM(u8g2_t *u8g2, void (*out)(const char *s))
 188:..\..\..\u8g2\u8g2\csrc/u8g2_buffer.c **** {
 460              		.loc 1 188 0
 461              		.cfi_startproc
 462              		@ args = 0, pretend = 0, frame = 0
 463              		@ frame_needed = 0, uses_anonymous_args = 0
 464              	.LVL49:
 465 0000 37B5     		push	{r0, r1, r2, r4, r5, lr}
 466              		.cfi_def_cfa_offset 24
 467              		.cfi_offset 4, -12
 468              		.cfi_offset 5, -8
 469              		.cfi_offset 14, -4
ARM GAS  C:\Users\jesse\AppData\Local\Temp\cc3KAwkW.s 			page 13


 470              		.loc 1 188 0
 471 0002 0446     		mov	r4, r0
 472 0004 0D46     		mov	r5, r1
 189:..\..\..\u8g2\u8g2\csrc/u8g2_buffer.c ****   u8x8_capture_write_pbm_pre(u8g2_GetBufferTileWidth(u8g2), u8g2_GetBufferTileHeight(u8g2), out);
 473              		.loc 1 189 0
 474 0006 0368     		ldr	r3, [r0]
 475 0008 0A46     		mov	r2, r1
 476 000a 90F83810 		ldrb	r1, [r0, #56]	@ zero_extendqisi2
 477              	.LVL50:
 478 000e 187C     		ldrb	r0, [r3, #16]	@ zero_extendqisi2
 479              	.LVL51:
 480 0010 FFF7FEFF 		bl	u8x8_capture_write_pbm_pre
 481              	.LVL52:
 190:..\..\..\u8g2\u8g2\csrc/u8g2_buffer.c ****   u8x8_capture_write_pbm_buffer(u8g2_GetBufferPtr(u8g2), u8g2_GetBufferTileWidth(u8g2), u8g2_GetBuf
 482              		.loc 1 190 0
 483 0014 2368     		ldr	r3, [r4]
 484 0016 94F83820 		ldrb	r2, [r4, #56]	@ zero_extendqisi2
 485 001a 197C     		ldrb	r1, [r3, #16]	@ zero_extendqisi2
 486 001c 606B     		ldr	r0, [r4, #52]
 487 001e 0095     		str	r5, [sp]
 488 0020 024B     		ldr	r3, .L28
 489 0022 FFF7FEFF 		bl	u8x8_capture_write_pbm_buffer
 490              	.LVL53:
 191:..\..\..\u8g2\u8g2\csrc/u8g2_buffer.c **** }
 491              		.loc 1 191 0
 492 0026 03B0     		add	sp, sp, #12
 493              		.cfi_def_cfa_offset 12
 494              		@ sp needed
 495 0028 30BD     		pop	{r4, r5, pc}
 496              	.LVL54:
 497              	.L29:
 498 002a 00BF     		.align	2
 499              	.L28:
 500 002c 00000000 		.word	u8x8_capture_get_pixel_1
 501              		.cfi_endproc
 502              	.LFE9:
 503              		.size	u8g2_WriteBufferPBM, .-u8g2_WriteBufferPBM
 504              		.section	.text.u8g2_WriteBufferXBM,"ax",%progbits
 505              		.align	1
 506              		.global	u8g2_WriteBufferXBM
 507              		.thumb
 508              		.thumb_func
 509              		.type	u8g2_WriteBufferXBM, %function
 510              	u8g2_WriteBufferXBM:
 511              	.LFB10:
 192:..\..\..\u8g2\u8g2\csrc/u8g2_buffer.c **** 
 193:..\..\..\u8g2\u8g2\csrc/u8g2_buffer.c **** void u8g2_WriteBufferXBM(u8g2_t *u8g2, void (*out)(const char *s))
 194:..\..\..\u8g2\u8g2\csrc/u8g2_buffer.c **** {
 512              		.loc 1 194 0
 513              		.cfi_startproc
 514              		@ args = 0, pretend = 0, frame = 0
 515              		@ frame_needed = 0, uses_anonymous_args = 0
 516              	.LVL55:
 517 0000 37B5     		push	{r0, r1, r2, r4, r5, lr}
 518              		.cfi_def_cfa_offset 24
 519              		.cfi_offset 4, -12
 520              		.cfi_offset 5, -8
ARM GAS  C:\Users\jesse\AppData\Local\Temp\cc3KAwkW.s 			page 14


 521              		.cfi_offset 14, -4
 522              		.loc 1 194 0
 523 0002 0446     		mov	r4, r0
 524 0004 0D46     		mov	r5, r1
 195:..\..\..\u8g2\u8g2\csrc/u8g2_buffer.c ****   u8x8_capture_write_xbm_pre(u8g2_GetBufferTileWidth(u8g2), u8g2_GetBufferTileHeight(u8g2), out);
 525              		.loc 1 195 0
 526 0006 0368     		ldr	r3, [r0]
 527 0008 0A46     		mov	r2, r1
 528 000a 90F83810 		ldrb	r1, [r0, #56]	@ zero_extendqisi2
 529              	.LVL56:
 530 000e 187C     		ldrb	r0, [r3, #16]	@ zero_extendqisi2
 531              	.LVL57:
 532 0010 FFF7FEFF 		bl	u8x8_capture_write_xbm_pre
 533              	.LVL58:
 196:..\..\..\u8g2\u8g2\csrc/u8g2_buffer.c ****   u8x8_capture_write_xbm_buffer(u8g2_GetBufferPtr(u8g2), u8g2_GetBufferTileWidth(u8g2), u8g2_GetBuf
 534              		.loc 1 196 0
 535 0014 2368     		ldr	r3, [r4]
 536 0016 94F83820 		ldrb	r2, [r4, #56]	@ zero_extendqisi2
 537 001a 197C     		ldrb	r1, [r3, #16]	@ zero_extendqisi2
 538 001c 606B     		ldr	r0, [r4, #52]
 539 001e 0095     		str	r5, [sp]
 540 0020 024B     		ldr	r3, .L31
 541 0022 FFF7FEFF 		bl	u8x8_capture_write_xbm_buffer
 542              	.LVL59:
 197:..\..\..\u8g2\u8g2\csrc/u8g2_buffer.c **** }
 543              		.loc 1 197 0
 544 0026 03B0     		add	sp, sp, #12
 545              		.cfi_def_cfa_offset 12
 546              		@ sp needed
 547 0028 30BD     		pop	{r4, r5, pc}
 548              	.LVL60:
 549              	.L32:
 550 002a 00BF     		.align	2
 551              	.L31:
 552 002c 00000000 		.word	u8x8_capture_get_pixel_1
 553              		.cfi_endproc
 554              	.LFE10:
 555              		.size	u8g2_WriteBufferXBM, .-u8g2_WriteBufferXBM
 556              		.section	.text.u8g2_WriteBufferPBM2,"ax",%progbits
 557              		.align	1
 558              		.global	u8g2_WriteBufferPBM2
 559              		.thumb
 560              		.thumb_func
 561              		.type	u8g2_WriteBufferPBM2, %function
 562              	u8g2_WriteBufferPBM2:
 563              	.LFB11:
 198:..\..\..\u8g2\u8g2\csrc/u8g2_buffer.c **** 
 199:..\..\..\u8g2\u8g2\csrc/u8g2_buffer.c **** 
 200:..\..\..\u8g2\u8g2\csrc/u8g2_buffer.c **** /* horizontal right memory architecture */
 201:..\..\..\u8g2\u8g2\csrc/u8g2_buffer.c **** /* SH1122, LD7032, ST7920, ST7986, LC7981, T6963, SED1330, RA8835, MAX7219, LS0 */ 
 202:..\..\..\u8g2\u8g2\csrc/u8g2_buffer.c **** void u8g2_WriteBufferPBM2(u8g2_t *u8g2, void (*out)(const char *s))
 203:..\..\..\u8g2\u8g2\csrc/u8g2_buffer.c **** {
 564              		.loc 1 203 0
 565              		.cfi_startproc
 566              		@ args = 0, pretend = 0, frame = 0
 567              		@ frame_needed = 0, uses_anonymous_args = 0
 568              	.LVL61:
ARM GAS  C:\Users\jesse\AppData\Local\Temp\cc3KAwkW.s 			page 15


 569 0000 37B5     		push	{r0, r1, r2, r4, r5, lr}
 570              		.cfi_def_cfa_offset 24
 571              		.cfi_offset 4, -12
 572              		.cfi_offset 5, -8
 573              		.cfi_offset 14, -4
 574              		.loc 1 203 0
 575 0002 0446     		mov	r4, r0
 576 0004 0D46     		mov	r5, r1
 204:..\..\..\u8g2\u8g2\csrc/u8g2_buffer.c ****   u8x8_capture_write_pbm_pre(u8g2_GetBufferTileWidth(u8g2), u8g2_GetBufferTileHeight(u8g2), out);
 577              		.loc 1 204 0
 578 0006 0368     		ldr	r3, [r0]
 579 0008 0A46     		mov	r2, r1
 580 000a 90F83810 		ldrb	r1, [r0, #56]	@ zero_extendqisi2
 581              	.LVL62:
 582 000e 187C     		ldrb	r0, [r3, #16]	@ zero_extendqisi2
 583              	.LVL63:
 584 0010 FFF7FEFF 		bl	u8x8_capture_write_pbm_pre
 585              	.LVL64:
 205:..\..\..\u8g2\u8g2\csrc/u8g2_buffer.c ****   u8x8_capture_write_pbm_buffer(u8g2_GetBufferPtr(u8g2), u8g2_GetBufferTileWidth(u8g2), u8g2_GetBuf
 586              		.loc 1 205 0
 587 0014 2368     		ldr	r3, [r4]
 588 0016 94F83820 		ldrb	r2, [r4, #56]	@ zero_extendqisi2
 589 001a 197C     		ldrb	r1, [r3, #16]	@ zero_extendqisi2
 590 001c 606B     		ldr	r0, [r4, #52]
 591 001e 0095     		str	r5, [sp]
 592 0020 024B     		ldr	r3, .L34
 593 0022 FFF7FEFF 		bl	u8x8_capture_write_pbm_buffer
 594              	.LVL65:
 206:..\..\..\u8g2\u8g2\csrc/u8g2_buffer.c **** }
 595              		.loc 1 206 0
 596 0026 03B0     		add	sp, sp, #12
 597              		.cfi_def_cfa_offset 12
 598              		@ sp needed
 599 0028 30BD     		pop	{r4, r5, pc}
 600              	.LVL66:
 601              	.L35:
 602 002a 00BF     		.align	2
 603              	.L34:
 604 002c 00000000 		.word	u8x8_capture_get_pixel_2
 605              		.cfi_endproc
 606              	.LFE11:
 607              		.size	u8g2_WriteBufferPBM2, .-u8g2_WriteBufferPBM2
 608              		.section	.text.u8g2_WriteBufferXBM2,"ax",%progbits
 609              		.align	1
 610              		.global	u8g2_WriteBufferXBM2
 611              		.thumb
 612              		.thumb_func
 613              		.type	u8g2_WriteBufferXBM2, %function
 614              	u8g2_WriteBufferXBM2:
 615              	.LFB12:
 207:..\..\..\u8g2\u8g2\csrc/u8g2_buffer.c **** 
 208:..\..\..\u8g2\u8g2\csrc/u8g2_buffer.c **** void u8g2_WriteBufferXBM2(u8g2_t *u8g2, void (*out)(const char *s))
 209:..\..\..\u8g2\u8g2\csrc/u8g2_buffer.c **** {
 616              		.loc 1 209 0
 617              		.cfi_startproc
 618              		@ args = 0, pretend = 0, frame = 0
 619              		@ frame_needed = 0, uses_anonymous_args = 0
ARM GAS  C:\Users\jesse\AppData\Local\Temp\cc3KAwkW.s 			page 16


 620              	.LVL67:
 621 0000 37B5     		push	{r0, r1, r2, r4, r5, lr}
 622              		.cfi_def_cfa_offset 24
 623              		.cfi_offset 4, -12
 624              		.cfi_offset 5, -8
 625              		.cfi_offset 14, -4
 626              		.loc 1 209 0
 627 0002 0446     		mov	r4, r0
 628 0004 0D46     		mov	r5, r1
 210:..\..\..\u8g2\u8g2\csrc/u8g2_buffer.c ****   u8x8_capture_write_xbm_pre(u8g2_GetBufferTileWidth(u8g2), u8g2_GetBufferTileHeight(u8g2), out);
 629              		.loc 1 210 0
 630 0006 0368     		ldr	r3, [r0]
 631 0008 0A46     		mov	r2, r1
 632 000a 90F83810 		ldrb	r1, [r0, #56]	@ zero_extendqisi2
 633              	.LVL68:
 634 000e 187C     		ldrb	r0, [r3, #16]	@ zero_extendqisi2
 635              	.LVL69:
 636 0010 FFF7FEFF 		bl	u8x8_capture_write_xbm_pre
 637              	.LVL70:
 211:..\..\..\u8g2\u8g2\csrc/u8g2_buffer.c ****   u8x8_capture_write_xbm_buffer(u8g2_GetBufferPtr(u8g2), u8g2_GetBufferTileWidth(u8g2), u8g2_GetBuf
 638              		.loc 1 211 0
 639 0014 2368     		ldr	r3, [r4]
 640 0016 94F83820 		ldrb	r2, [r4, #56]	@ zero_extendqisi2
 641 001a 197C     		ldrb	r1, [r3, #16]	@ zero_extendqisi2
 642 001c 606B     		ldr	r0, [r4, #52]
 643 001e 0095     		str	r5, [sp]
 644 0020 024B     		ldr	r3, .L37
 645 0022 FFF7FEFF 		bl	u8x8_capture_write_xbm_buffer
 646              	.LVL71:
 212:..\..\..\u8g2\u8g2\csrc/u8g2_buffer.c **** }
 647              		.loc 1 212 0
 648 0026 03B0     		add	sp, sp, #12
 649              		.cfi_def_cfa_offset 12
 650              		@ sp needed
 651 0028 30BD     		pop	{r4, r5, pc}
 652              	.LVL72:
 653              	.L38:
 654 002a 00BF     		.align	2
 655              	.L37:
 656 002c 00000000 		.word	u8x8_capture_get_pixel_2
 657              		.cfi_endproc
 658              	.LFE12:
 659              		.size	u8g2_WriteBufferXBM2, .-u8g2_WriteBufferXBM2
 660              		.text
 661              	.Letext0:
 662              		.file 2 "c:\\program files (x86)\\cypress\\psoc creator\\4.4\\psoc creator\\import\\gnu\\arm\\5.4.
 663              		.file 3 "c:\\program files (x86)\\cypress\\psoc creator\\4.4\\psoc creator\\import\\gnu\\arm\\5.4.
 664              		.file 4 "c:\\program files (x86)\\cypress\\psoc creator\\4.4\\psoc creator\\import\\gnu\\arm\\5.4.
 665              		.file 5 "..\\..\\..\\u8g2\\u8g2\\csrc\\u8x8.h"
 666              		.file 6 "..\\..\\..\\u8g2\\u8g2\\csrc\\u8g2.h"