ARM GAS  C:\Users\jesse\AppData\Local\Temp\ccBaB4WO.s 			page 1


   1              		.syntax unified
   2              		.cpu cortex-m3
   3              		.fpu softvfp
   4              		.eabi_attribute 20, 1
   5              		.eabi_attribute 21, 1
   6              		.eabi_attribute 23, 3
   7              		.eabi_attribute 24, 1
   8              		.eabi_attribute 25, 1
   9              		.eabi_attribute 26, 1
  10              		.eabi_attribute 30, 4
  11              		.eabi_attribute 34, 1
  12              		.eabi_attribute 18, 4
  13              		.thumb
  14              		.syntax unified
  15              		.file	"u8g2_box.c"
  16              		.text
  17              	.Ltext0:
  18              		.cfi_sections	.debug_frame
  19              		.section	.text.u8g2_DrawBox,"ax",%progbits
  20              		.align	1
  21              		.global	u8g2_DrawBox
  22              		.thumb
  23              		.thumb_func
  24              		.type	u8g2_DrawBox, %function
  25              	u8g2_DrawBox:
  26              	.LFB0:
  27              		.file 1 "..\\..\\..\\u8g2\\u8g2\\csrc\\u8g2_box.c"
   1:..\..\..\u8g2\u8g2\csrc/u8g2_box.c **** /*
   2:..\..\..\u8g2\u8g2\csrc/u8g2_box.c **** 
   3:..\..\..\u8g2\u8g2\csrc/u8g2_box.c ****   u8g2_box.c
   4:..\..\..\u8g2\u8g2\csrc/u8g2_box.c **** 
   5:..\..\..\u8g2\u8g2\csrc/u8g2_box.c ****   Universal 8bit Graphics Library (https://github.com/olikraus/u8g2/)
   6:..\..\..\u8g2\u8g2\csrc/u8g2_box.c **** 
   7:..\..\..\u8g2\u8g2\csrc/u8g2_box.c ****   Copyright (c) 2016, olikraus@gmail.com
   8:..\..\..\u8g2\u8g2\csrc/u8g2_box.c ****   All rights reserved.
   9:..\..\..\u8g2\u8g2\csrc/u8g2_box.c **** 
  10:..\..\..\u8g2\u8g2\csrc/u8g2_box.c ****   Redistribution and use in source and binary forms, with or without modification, 
  11:..\..\..\u8g2\u8g2\csrc/u8g2_box.c ****   are permitted provided that the following conditions are met:
  12:..\..\..\u8g2\u8g2\csrc/u8g2_box.c **** 
  13:..\..\..\u8g2\u8g2\csrc/u8g2_box.c ****   * Redistributions of source code must retain the above copyright notice, this list 
  14:..\..\..\u8g2\u8g2\csrc/u8g2_box.c ****     of conditions and the following disclaimer.
  15:..\..\..\u8g2\u8g2\csrc/u8g2_box.c ****     
  16:..\..\..\u8g2\u8g2\csrc/u8g2_box.c ****   * Redistributions in binary form must reproduce the above copyright notice, this 
  17:..\..\..\u8g2\u8g2\csrc/u8g2_box.c ****     list of conditions and the following disclaimer in the documentation and/or other 
  18:..\..\..\u8g2\u8g2\csrc/u8g2_box.c ****     materials provided with the distribution.
  19:..\..\..\u8g2\u8g2\csrc/u8g2_box.c **** 
  20:..\..\..\u8g2\u8g2\csrc/u8g2_box.c ****   THIS SOFTWARE IS PROVIDED BY THE COPYRIGHT HOLDERS AND 
  21:..\..\..\u8g2\u8g2\csrc/u8g2_box.c ****   CONTRIBUTORS "AS IS" AND ANY EXPRESS OR IMPLIED WARRANTIES, 
  22:..\..\..\u8g2\u8g2\csrc/u8g2_box.c ****   INCLUDING, BUT NOT LIMITED TO, THE IMPLIED WARRANTIES OF 
  23:..\..\..\u8g2\u8g2\csrc/u8g2_box.c ****   MERCHANTABILITY AND FITNESS FOR A PARTICULAR PURPOSE ARE 
  24:..\..\..\u8g2\u8g2\csrc/u8g2_box.c ****   DISCLAIMED. IN NO EVENT SHALL THE COPYRIGHT HOLDER OR 
  25:..\..\..\u8g2\u8g2\csrc/u8g2_box.c ****   CONTRIBUTORS BE LIABLE FOR ANY DIRECT, INDIRECT, INCIDENTAL, 
  26:..\..\..\u8g2\u8g2\csrc/u8g2_box.c ****   SPECIAL, EXEMPLARY, OR CONSEQUENTIAL DAMAGES (INCLUDING, BUT 
  27:..\..\..\u8g2\u8g2\csrc/u8g2_box.c ****   NOT LIMITED TO, PROCUREMENT OF SUBSTITUTE GOODS OR SERVICES; 
  28:..\..\..\u8g2\u8g2\csrc/u8g2_box.c ****   LOSS OF USE, DATA, OR PROFITS; OR BUSINESS INTERRUPTION) HOWEVER 
  29:..\..\..\u8g2\u8g2\csrc/u8g2_box.c ****   CAUSED AND ON ANY THEORY OF LIABILITY, WHETHER IN CONTRACT, 
  30:..\..\..\u8g2\u8g2\csrc/u8g2_box.c ****   STRICT LIABILITY, OR TORT (INCLUDING NEGLIGENCE OR OTHERWISE) 
ARM GAS  C:\Users\jesse\AppData\Local\Temp\ccBaB4WO.s 			page 2


  31:..\..\..\u8g2\u8g2\csrc/u8g2_box.c ****   ARISING IN ANY WAY OUT OF THE USE OF THIS SOFTWARE, EVEN IF 
  32:..\..\..\u8g2\u8g2\csrc/u8g2_box.c ****   ADVISED OF THE POSSIBILITY OF SUCH DAMAGE.  
  33:..\..\..\u8g2\u8g2\csrc/u8g2_box.c **** 
  34:..\..\..\u8g2\u8g2\csrc/u8g2_box.c **** */
  35:..\..\..\u8g2\u8g2\csrc/u8g2_box.c **** 
  36:..\..\..\u8g2\u8g2\csrc/u8g2_box.c **** #include "u8g2.h"
  37:..\..\..\u8g2\u8g2\csrc/u8g2_box.c **** 
  38:..\..\..\u8g2\u8g2\csrc/u8g2_box.c **** /*
  39:..\..\..\u8g2\u8g2\csrc/u8g2_box.c ****   draw a filled box
  40:..\..\..\u8g2\u8g2\csrc/u8g2_box.c ****   restriction: does not work for w = 0 or h = 0
  41:..\..\..\u8g2\u8g2\csrc/u8g2_box.c **** */
  42:..\..\..\u8g2\u8g2\csrc/u8g2_box.c **** void u8g2_DrawBox(u8g2_t *u8g2, u8g2_uint_t x, u8g2_uint_t y, u8g2_uint_t w, u8g2_uint_t h)
  43:..\..\..\u8g2\u8g2\csrc/u8g2_box.c **** {
  28              		.loc 1 43 0
  29              		.cfi_startproc
  30              		@ args = 4, pretend = 0, frame = 0
  31              		@ frame_needed = 0, uses_anonymous_args = 0
  32              	.LVL0:
  33 0000 2DE9F743 		push	{r0, r1, r2, r4, r5, r6, r7, r8, r9, lr}
  34              		.cfi_def_cfa_offset 40
  35              		.cfi_offset 4, -28
  36              		.cfi_offset 5, -24
  37              		.cfi_offset 6, -20
  38              		.cfi_offset 7, -16
  39              		.cfi_offset 8, -12
  40              		.cfi_offset 9, -8
  41              		.cfi_offset 14, -4
  44:..\..\..\u8g2\u8g2\csrc/u8g2_box.c **** #ifdef U8G2_WITH_INTERSECTION
  45:..\..\..\u8g2\u8g2\csrc/u8g2_box.c ****   if ( u8g2_IsIntersection(u8g2, x, y, x+w, y+h) == 0 ) 
  42              		.loc 1 45 0
  43 0004 BDF82850 		ldrh	r5, [sp, #40]
  43:..\..\..\u8g2\u8g2\csrc/u8g2_box.c **** #ifdef U8G2_WITH_INTERSECTION
  44              		.loc 1 43 0
  45 0008 1F46     		mov	r7, r3
  46              		.loc 1 45 0
  47 000a 1544     		add	r5, r5, r2
  48 000c ADB2     		uxth	r5, r5
  49 000e CB18     		adds	r3, r1, r3
  50              	.LVL1:
  51 0010 0095     		str	r5, [sp]
  52 0012 9BB2     		uxth	r3, r3
  43:..\..\..\u8g2\u8g2\csrc/u8g2_box.c **** #ifdef U8G2_WITH_INTERSECTION
  53              		.loc 1 43 0
  54 0014 8046     		mov	r8, r0
  55 0016 0E46     		mov	r6, r1
  56 0018 1446     		mov	r4, r2
  57              		.loc 1 45 0
  58 001a FFF7FEFF 		bl	u8g2_IsIntersection
  59              	.LVL2:
  60 001e 70B1     		cbz	r0, .L1
  61              	.LBB4:
  62              	.LBB5:
  46:..\..\..\u8g2\u8g2\csrc/u8g2_box.c ****     return;
  47:..\..\..\u8g2\u8g2\csrc/u8g2_box.c **** #endif /* U8G2_WITH_INTERSECTION */
  48:..\..\..\u8g2\u8g2\csrc/u8g2_box.c ****   while( h != 0 )
  49:..\..\..\u8g2\u8g2\csrc/u8g2_box.c ****   { 
  50:..\..\..\u8g2\u8g2\csrc/u8g2_box.c ****     u8g2_DrawHVLine(u8g2, x, y, w, 0);
ARM GAS  C:\Users\jesse\AppData\Local\Temp\ccBaB4WO.s 			page 3


  63              		.loc 1 50 0
  64 0020 4FF00009 		mov	r9, #0
  65              	.L5:
  66              	.LVL3:
  48:..\..\..\u8g2\u8g2\csrc/u8g2_box.c ****   { 
  67              		.loc 1 48 0
  68 0024 A542     		cmp	r5, r4
  69 0026 0AD0     		beq	.L1
  70              		.loc 1 50 0
  71 0028 2246     		mov	r2, r4
  72 002a CDF80090 		str	r9, [sp]
  73 002e 3B46     		mov	r3, r7
  74 0030 3146     		mov	r1, r6
  75 0032 4046     		mov	r0, r8
  51:..\..\..\u8g2\u8g2\csrc/u8g2_box.c ****     y++;    
  76              		.loc 1 51 0
  77 0034 0134     		adds	r4, r4, #1
  78              	.LVL4:
  50:..\..\..\u8g2\u8g2\csrc/u8g2_box.c ****     y++;    
  79              		.loc 1 50 0
  80 0036 FFF7FEFF 		bl	u8g2_DrawHVLine
  81              	.LVL5:
  82              		.loc 1 51 0
  83 003a A4B2     		uxth	r4, r4
  84              	.LVL6:
  85 003c F2E7     		b	.L5
  86              	.LVL7:
  87              	.L1:
  88              	.LBE5:
  89              	.LBE4:
  52:..\..\..\u8g2\u8g2\csrc/u8g2_box.c ****     h--;
  53:..\..\..\u8g2\u8g2\csrc/u8g2_box.c ****   }
  54:..\..\..\u8g2\u8g2\csrc/u8g2_box.c **** }
  90              		.loc 1 54 0
  91 003e 03B0     		add	sp, sp, #12
  92              		.cfi_def_cfa_offset 28
  93              		@ sp needed
  94 0040 BDE8F083 		pop	{r4, r5, r6, r7, r8, r9, pc}
  95              		.cfi_endproc
  96              	.LFE0:
  97              		.size	u8g2_DrawBox, .-u8g2_DrawBox
  98              		.section	.text.u8g2_DrawFrame,"ax",%progbits
  99              		.align	1
 100              		.global	u8g2_DrawFrame
 101              		.thumb
 102              		.thumb_func
 103              		.type	u8g2_DrawFrame, %function
 104              	u8g2_DrawFrame:
 105              	.LFB1:
  55:..\..\..\u8g2\u8g2\csrc/u8g2_box.c **** 
  56:..\..\..\u8g2\u8g2\csrc/u8g2_box.c **** 
  57:..\..\..\u8g2\u8g2\csrc/u8g2_box.c **** /*
  58:..\..\..\u8g2\u8g2\csrc/u8g2_box.c ****   draw a frame (empty box)
  59:..\..\..\u8g2\u8g2\csrc/u8g2_box.c ****   restriction: does not work for w = 0 or h = 0
  60:..\..\..\u8g2\u8g2\csrc/u8g2_box.c **** */
  61:..\..\..\u8g2\u8g2\csrc/u8g2_box.c **** void u8g2_DrawFrame(u8g2_t *u8g2, u8g2_uint_t x, u8g2_uint_t y, u8g2_uint_t w, u8g2_uint_t h)
  62:..\..\..\u8g2\u8g2\csrc/u8g2_box.c **** {
ARM GAS  C:\Users\jesse\AppData\Local\Temp\ccBaB4WO.s 			page 4


 106              		.loc 1 62 0
 107              		.cfi_startproc
 108              		@ args = 4, pretend = 0, frame = 0
 109              		@ frame_needed = 0, uses_anonymous_args = 0
 110              	.LVL8:
 111 0000 2DE9F347 		push	{r0, r1, r4, r5, r6, r7, r8, r9, r10, lr}
 112              		.cfi_def_cfa_offset 40
 113              		.cfi_offset 4, -32
 114              		.cfi_offset 5, -28
 115              		.cfi_offset 6, -24
 116              		.cfi_offset 7, -20
 117              		.cfi_offset 8, -16
 118              		.cfi_offset 9, -12
 119              		.cfi_offset 10, -8
 120              		.cfi_offset 14, -4
 121              		.loc 1 62 0
 122 0004 BDF82840 		ldrh	r4, [sp, #40]
  63:..\..\..\u8g2\u8g2\csrc/u8g2_box.c ****   u8g2_uint_t xtmp = x;
  64:..\..\..\u8g2\u8g2\csrc/u8g2_box.c ****   
  65:..\..\..\u8g2\u8g2\csrc/u8g2_box.c **** #ifdef U8G2_WITH_INTERSECTION
  66:..\..\..\u8g2\u8g2\csrc/u8g2_box.c ****   if ( u8g2_IsIntersection(u8g2, x, y, x+w, y+h) == 0 ) 
 123              		.loc 1 66 0
 124 0008 01EB0309 		add	r9, r1, r3
  62:..\..\..\u8g2\u8g2\csrc/u8g2_box.c ****   u8g2_uint_t xtmp = x;
 125              		.loc 1 62 0
 126 000c 9846     		mov	r8, r3
 127              		.loc 1 66 0
 128 000e 1319     		adds	r3, r2, r4
 129              	.LVL9:
 130 0010 9BB2     		uxth	r3, r3
 131 0012 1FFA89F9 		uxth	r9, r9
 132 0016 0093     		str	r3, [sp]
 133 0018 4B46     		mov	r3, r9
  62:..\..\..\u8g2\u8g2\csrc/u8g2_box.c ****   u8g2_uint_t xtmp = x;
 134              		.loc 1 62 0
 135 001a 0646     		mov	r6, r0
 136 001c 0F46     		mov	r7, r1
 137 001e 1546     		mov	r5, r2
 138              		.loc 1 66 0
 139 0020 FFF7FEFF 		bl	u8g2_IsIntersection
 140              	.LVL10:
 141 0024 78B3     		cbz	r0, .L7
  67:..\..\..\u8g2\u8g2\csrc/u8g2_box.c ****     return;
  68:..\..\..\u8g2\u8g2\csrc/u8g2_box.c **** #endif /* U8G2_WITH_INTERSECTION */
  69:..\..\..\u8g2\u8g2\csrc/u8g2_box.c ****   
  70:..\..\..\u8g2\u8g2\csrc/u8g2_box.c ****   u8g2_DrawHVLine(u8g2, x, y, w, 0);
 142              		.loc 1 70 0
 143 0026 0023     		movs	r3, #0
 144 0028 0093     		str	r3, [sp]
 145 002a 2A46     		mov	r2, r5
 146 002c 4346     		mov	r3, r8
 147 002e 3946     		mov	r1, r7
 148 0030 3046     		mov	r0, r6
 149 0032 FFF7FEFF 		bl	u8g2_DrawHVLine
 150              	.LVL11:
  71:..\..\..\u8g2\u8g2\csrc/u8g2_box.c ****   if (h >= 2) {
 151              		.loc 1 71 0
ARM GAS  C:\Users\jesse\AppData\Local\Temp\ccBaB4WO.s 			page 5


 152 0036 012C     		cmp	r4, #1
 153 0038 25D9     		bls	.L7
  72:..\..\..\u8g2\u8g2\csrc/u8g2_box.c ****     h-=2;
 154              		.loc 1 72 0
 155 003a 023C     		subs	r4, r4, #2
  73:..\..\..\u8g2\u8g2\csrc/u8g2_box.c ****     y++;
 156              		.loc 1 73 0
 157 003c 0135     		adds	r5, r5, #1
  72:..\..\..\u8g2\u8g2\csrc/u8g2_box.c ****     h-=2;
 158              		.loc 1 72 0
 159 003e A4B2     		uxth	r4, r4
 160              	.LVL12:
 161              		.loc 1 73 0
 162 0040 ADB2     		uxth	r5, r5
 163              	.LVL13:
  74:..\..\..\u8g2\u8g2\csrc/u8g2_box.c ****     if (h > 0) {
 164              		.loc 1 74 0
 165 0042 ACB1     		cbz	r4, .L11
  75:..\..\..\u8g2\u8g2\csrc/u8g2_box.c ****       u8g2_DrawHVLine(u8g2, x, y, h, 1);
 166              		.loc 1 75 0
 167 0044 4FF0010A 		mov	r10, #1
 168 0048 2A46     		mov	r2, r5
 169 004a 2346     		mov	r3, r4
 170 004c 3946     		mov	r1, r7
 171 004e 3046     		mov	r0, r6
 172 0050 CDF800A0 		str	r10, [sp]
 173 0054 FFF7FEFF 		bl	u8g2_DrawHVLine
 174              	.LVL14:
  76:..\..\..\u8g2\u8g2\csrc/u8g2_box.c ****       x+=w;
  77:..\..\..\u8g2\u8g2\csrc/u8g2_box.c ****       x--;
  78:..\..\..\u8g2\u8g2\csrc/u8g2_box.c ****       u8g2_DrawHVLine(u8g2, x, y, h, 1);
 175              		.loc 1 78 0
 176 0058 09F1FF31 		add	r1, r9, #-1
 177 005c 2A46     		mov	r2, r5
 178 005e CDF800A0 		str	r10, [sp]
 179 0062 2346     		mov	r3, r4
 180 0064 89B2     		uxth	r1, r1
 181 0066 3046     		mov	r0, r6
 182 0068 FFF7FEFF 		bl	u8g2_DrawHVLine
 183              	.LVL15:
  79:..\..\..\u8g2\u8g2\csrc/u8g2_box.c ****       y+=h;
 184              		.loc 1 79 0
 185 006c 2544     		add	r5, r5, r4
 186              	.LVL16:
 187 006e ADB2     		uxth	r5, r5
 188              	.LVL17:
 189              	.L11:
  80:..\..\..\u8g2\u8g2\csrc/u8g2_box.c ****     }
  81:..\..\..\u8g2\u8g2\csrc/u8g2_box.c ****     u8g2_DrawHVLine(u8g2, xtmp, y, w, 0);
 190              		.loc 1 81 0
 191 0070 0023     		movs	r3, #0
 192 0072 0A93     		str	r3, [sp, #40]
 193 0074 2A46     		mov	r2, r5
 194 0076 4346     		mov	r3, r8
 195 0078 3946     		mov	r1, r7
 196 007a 3046     		mov	r0, r6
  82:..\..\..\u8g2\u8g2\csrc/u8g2_box.c ****   }
ARM GAS  C:\Users\jesse\AppData\Local\Temp\ccBaB4WO.s 			page 6


  83:..\..\..\u8g2\u8g2\csrc/u8g2_box.c **** }
 197              		.loc 1 83 0
 198 007c 02B0     		add	sp, sp, #8
 199              		.cfi_remember_state
 200              		.cfi_def_cfa_offset 32
 201              		@ sp needed
 202 007e BDE8F047 		pop	{r4, r5, r6, r7, r8, r9, r10, lr}
 203              		.cfi_restore 14
 204              		.cfi_restore 10
 205              		.cfi_restore 9
 206              		.cfi_restore 8
 207              		.cfi_restore 7
 208              		.cfi_restore 6
 209              		.cfi_restore 5
 210              		.cfi_restore 4
 211              		.cfi_def_cfa_offset 0
 212              	.LVL18:
  81:..\..\..\u8g2\u8g2\csrc/u8g2_box.c ****   }
 213              		.loc 1 81 0
 214 0082 FFF7FEBF 		b	u8g2_DrawHVLine
 215              	.LVL19:
 216              	.L7:
 217              		.cfi_restore_state
 218              		.loc 1 83 0
 219 0086 02B0     		add	sp, sp, #8
 220              		.cfi_def_cfa_offset 32
 221              		@ sp needed
 222 0088 BDE8F087 		pop	{r4, r5, r6, r7, r8, r9, r10, pc}
 223              		.cfi_endproc
 224              	.LFE1:
 225              		.size	u8g2_DrawFrame, .-u8g2_DrawFrame
 226              		.section	.text.u8g2_DrawRBox,"ax",%progbits
 227              		.align	1
 228              		.global	u8g2_DrawRBox
 229              		.thumb
 230              		.thumb_func
 231              		.type	u8g2_DrawRBox, %function
 232              	u8g2_DrawRBox:
 233              	.LFB2:
  84:..\..\..\u8g2\u8g2\csrc/u8g2_box.c **** 
  85:..\..\..\u8g2\u8g2\csrc/u8g2_box.c **** 
  86:..\..\..\u8g2\u8g2\csrc/u8g2_box.c **** 
  87:..\..\..\u8g2\u8g2\csrc/u8g2_box.c **** 
  88:..\..\..\u8g2\u8g2\csrc/u8g2_box.c **** void u8g2_DrawRBox(u8g2_t *u8g2, u8g2_uint_t x, u8g2_uint_t y, u8g2_uint_t w, u8g2_uint_t h, u8g2_u
  89:..\..\..\u8g2\u8g2\csrc/u8g2_box.c **** {
 234              		.loc 1 89 0
 235              		.cfi_startproc
 236              		@ args = 8, pretend = 0, frame = 16
 237              		@ frame_needed = 0, uses_anonymous_args = 0
 238              	.LVL20:
 239 0000 2DE9F04F 		push	{r4, r5, r6, r7, r8, r9, r10, fp, lr}
 240              		.cfi_def_cfa_offset 36
 241              		.cfi_offset 4, -36
 242              		.cfi_offset 5, -32
 243              		.cfi_offset 6, -28
 244              		.cfi_offset 7, -24
 245              		.cfi_offset 8, -20
ARM GAS  C:\Users\jesse\AppData\Local\Temp\ccBaB4WO.s 			page 7


 246              		.cfi_offset 9, -16
 247              		.cfi_offset 10, -12
 248              		.cfi_offset 11, -8
 249              		.cfi_offset 14, -4
 250 0004 9A46     		mov	r10, r3
 251 0006 87B0     		sub	sp, sp, #28
 252              		.cfi_def_cfa_offset 64
 253              		.loc 1 89 0
 254 0008 BDF84030 		ldrh	r3, [sp, #64]
 255              	.LVL21:
  90:..\..\..\u8g2\u8g2\csrc/u8g2_box.c ****   u8g2_uint_t xl, yu;
  91:..\..\..\u8g2\u8g2\csrc/u8g2_box.c ****   u8g2_uint_t yl, xr;
  92:..\..\..\u8g2\u8g2\csrc/u8g2_box.c **** 
  93:..\..\..\u8g2\u8g2\csrc/u8g2_box.c **** #ifdef U8G2_WITH_INTERSECTION
  94:..\..\..\u8g2\u8g2\csrc/u8g2_box.c ****   if ( u8g2_IsIntersection(u8g2, x, y, x+w, y+h) == 0 ) 
 256              		.loc 1 94 0
 257 000c 01EB0A07 		add	r7, r1, r10
  89:..\..\..\u8g2\u8g2\csrc/u8g2_box.c ****   u8g2_uint_t xl, yu;
 258              		.loc 1 89 0
 259 0010 0593     		str	r3, [sp, #20]
 260              		.loc 1 94 0
 261 0012 059B     		ldr	r3, [sp, #20]
 262 0014 BFB2     		uxth	r7, r7
 263 0016 D618     		adds	r6, r2, r3
 264 0018 B6B2     		uxth	r6, r6
 265 001a 0096     		str	r6, [sp]
 266 001c 3B46     		mov	r3, r7
  89:..\..\..\u8g2\u8g2\csrc/u8g2_box.c ****   u8g2_uint_t xl, yu;
 267              		.loc 1 89 0
 268 001e 8046     		mov	r8, r0
 269 0020 0491     		str	r1, [sp, #16]
 270 0022 9346     		mov	fp, r2
 271 0024 BDF84440 		ldrh	r4, [sp, #68]
 272              		.loc 1 94 0
 273 0028 FFF7FEFF 		bl	u8g2_IsIntersection
 274              	.LVL22:
 275 002c 0028     		cmp	r0, #0
 276 002e 5DD0     		beq	.L15
 277              	.LVL23:
  95:..\..\..\u8g2\u8g2\csrc/u8g2_box.c ****     return;
  96:..\..\..\u8g2\u8g2\csrc/u8g2_box.c **** #endif /* U8G2_WITH_INTERSECTION */
  97:..\..\..\u8g2\u8g2\csrc/u8g2_box.c **** 
  98:..\..\..\u8g2\u8g2\csrc/u8g2_box.c ****   xl = x;
  99:..\..\..\u8g2\u8g2\csrc/u8g2_box.c ****   xl += r;
 278              		.loc 1 99 0
 279 0030 049B     		ldr	r3, [sp, #16]
 100:..\..\..\u8g2\u8g2\csrc/u8g2_box.c ****   yu = y;
 101:..\..\..\u8g2\u8g2\csrc/u8g2_box.c ****   yu += r;
 280              		.loc 1 101 0
 281 0032 0BEB0402 		add	r2, fp, r4
  99:..\..\..\u8g2\u8g2\csrc/u8g2_box.c ****   yu = y;
 282              		.loc 1 99 0
 283 0036 1D19     		adds	r5, r3, r4
 284              		.loc 1 101 0
 285 0038 93B2     		uxth	r3, r2
 286 003a 0393     		str	r3, [sp, #12]
 287 003c E343     		mvns	r3, r4
ARM GAS  C:\Users\jesse\AppData\Local\Temp\ccBaB4WO.s 			page 8


 288 003e 9BB2     		uxth	r3, r3
  99:..\..\..\u8g2\u8g2\csrc/u8g2_box.c ****   yu = y;
 289              		.loc 1 99 0
 290 0040 ADB2     		uxth	r5, r5
 291              	.LVL24:
 102:..\..\..\u8g2\u8g2\csrc/u8g2_box.c ****  
 103:..\..\..\u8g2\u8g2\csrc/u8g2_box.c ****   xr = x;
 104:..\..\..\u8g2\u8g2\csrc/u8g2_box.c ****   xr += w;
 105:..\..\..\u8g2\u8g2\csrc/u8g2_box.c ****   xr -= r;
 106:..\..\..\u8g2\u8g2\csrc/u8g2_box.c ****   xr -= 1;
 292              		.loc 1 106 0
 293 0042 1F44     		add	r7, r7, r3
 294              	.LVL25:
 107:..\..\..\u8g2\u8g2\csrc/u8g2_box.c ****   
 108:..\..\..\u8g2\u8g2\csrc/u8g2_box.c ****   yl = y;
 109:..\..\..\u8g2\u8g2\csrc/u8g2_box.c ****   yl += h;
 110:..\..\..\u8g2\u8g2\csrc/u8g2_box.c ****   yl -= r; 
 111:..\..\..\u8g2\u8g2\csrc/u8g2_box.c ****   yl -= 1;
 295              		.loc 1 111 0
 296 0044 1E44     		add	r6, r6, r3
 112:..\..\..\u8g2\u8g2\csrc/u8g2_box.c **** 
 113:..\..\..\u8g2\u8g2\csrc/u8g2_box.c ****   u8g2_DrawDisc(u8g2, xl, yu, r, U8G2_DRAW_UPPER_LEFT);
 297              		.loc 1 113 0
 298 0046 0223     		movs	r3, #2
 299 0048 0093     		str	r3, [sp]
 300 004a 039A     		ldr	r2, [sp, #12]
 301 004c 2346     		mov	r3, r4
 302 004e 2946     		mov	r1, r5
 303 0050 4046     		mov	r0, r8
 304 0052 FFF7FEFF 		bl	u8g2_DrawDisc
 305              	.LVL26:
 106:..\..\..\u8g2\u8g2\csrc/u8g2_box.c ****   
 306              		.loc 1 106 0
 307 0056 BFB2     		uxth	r7, r7
 308              	.LVL27:
 114:..\..\..\u8g2\u8g2\csrc/u8g2_box.c ****   u8g2_DrawDisc(u8g2, xr, yu, r, U8G2_DRAW_UPPER_RIGHT);
 309              		.loc 1 114 0
 310 0058 0123     		movs	r3, #1
 311 005a 3946     		mov	r1, r7
 312 005c 0093     		str	r3, [sp]
 313 005e 039A     		ldr	r2, [sp, #12]
 314 0060 2346     		mov	r3, r4
 315 0062 4046     		mov	r0, r8
 316 0064 FFF7FEFF 		bl	u8g2_DrawDisc
 317              	.LVL28:
 111:..\..\..\u8g2\u8g2\csrc/u8g2_box.c **** 
 318              		.loc 1 111 0
 319 0068 B6B2     		uxth	r6, r6
 320              	.LVL29:
 115:..\..\..\u8g2\u8g2\csrc/u8g2_box.c ****   u8g2_DrawDisc(u8g2, xl, yl, r, U8G2_DRAW_LOWER_LEFT);
 321              		.loc 1 115 0
 322 006a 0423     		movs	r3, #4
 323 006c 0093     		str	r3, [sp]
 324 006e 3246     		mov	r2, r6
 325 0070 2346     		mov	r3, r4
 326 0072 2946     		mov	r1, r5
 327 0074 4046     		mov	r0, r8
ARM GAS  C:\Users\jesse\AppData\Local\Temp\ccBaB4WO.s 			page 9


 328 0076 FFF7FEFF 		bl	u8g2_DrawDisc
 329              	.LVL30:
 116:..\..\..\u8g2\u8g2\csrc/u8g2_box.c ****   u8g2_DrawDisc(u8g2, xr, yl, r, U8G2_DRAW_LOWER_RIGHT);
 330              		.loc 1 116 0
 331 007a 0823     		movs	r3, #8
 332 007c 3946     		mov	r1, r7
 333              	.LBB6:
 117:..\..\..\u8g2\u8g2\csrc/u8g2_box.c **** 
 118:..\..\..\u8g2\u8g2\csrc/u8g2_box.c ****   {
 119:..\..\..\u8g2\u8g2\csrc/u8g2_box.c ****     u8g2_uint_t ww, hh;
 120:..\..\..\u8g2\u8g2\csrc/u8g2_box.c **** 
 121:..\..\..\u8g2\u8g2\csrc/u8g2_box.c ****     ww = w;
 122:..\..\..\u8g2\u8g2\csrc/u8g2_box.c ****     ww -= r;
 123:..\..\..\u8g2\u8g2\csrc/u8g2_box.c ****     ww -= r;
 334              		.loc 1 123 0
 335 007e AAEB4407 		sub	r7, r10, r4, lsl #1
 336              	.LVL31:
 337              	.LBE6:
 116:..\..\..\u8g2\u8g2\csrc/u8g2_box.c ****   u8g2_DrawDisc(u8g2, xr, yl, r, U8G2_DRAW_LOWER_RIGHT);
 338              		.loc 1 116 0
 339 0082 0093     		str	r3, [sp]
 340 0084 3246     		mov	r2, r6
 341 0086 2346     		mov	r3, r4
 342 0088 4046     		mov	r0, r8
 343              	.LBB7:
 344              		.loc 1 123 0
 345 008a BFB2     		uxth	r7, r7
 346              	.LBE7:
 116:..\..\..\u8g2\u8g2\csrc/u8g2_box.c ****   u8g2_DrawDisc(u8g2, xr, yl, r, U8G2_DRAW_LOWER_RIGHT);
 347              		.loc 1 116 0
 348 008c FFF7FEFF 		bl	u8g2_DrawDisc
 349              	.LVL32:
 350              	.LBB8:
 124:..\..\..\u8g2\u8g2\csrc/u8g2_box.c ****     xl++;
 125:..\..\..\u8g2\u8g2\csrc/u8g2_box.c ****     yu++;
 126:..\..\..\u8g2\u8g2\csrc/u8g2_box.c ****     
 127:..\..\..\u8g2\u8g2\csrc/u8g2_box.c ****     if ( ww >= 3 )
 351              		.loc 1 127 0
 352 0090 022F     		cmp	r7, #2
 353 0092 17D9     		bls	.L18
 124:..\..\..\u8g2\u8g2\csrc/u8g2_box.c ****     xl++;
 354              		.loc 1 124 0
 355 0094 0135     		adds	r5, r5, #1
 356              	.LVL33:
 128:..\..\..\u8g2\u8g2\csrc/u8g2_box.c ****     {
 129:..\..\..\u8g2\u8g2\csrc/u8g2_box.c ****       ww -= 2;
 357              		.loc 1 129 0
 358 0096 023F     		subs	r7, r7, #2
 359              	.LVL34:
 130:..\..\..\u8g2\u8g2\csrc/u8g2_box.c ****       u8g2_DrawBox(u8g2, xl, y, ww, r+1);
 360              		.loc 1 130 0
 361 0098 04F10109 		add	r9, r4, #1
 124:..\..\..\u8g2\u8g2\csrc/u8g2_box.c ****     xl++;
 362              		.loc 1 124 0
 363 009c ADB2     		uxth	r5, r5
 364              	.LVL35:
 129:..\..\..\u8g2\u8g2\csrc/u8g2_box.c ****       u8g2_DrawBox(u8g2, xl, y, ww, r+1);
ARM GAS  C:\Users\jesse\AppData\Local\Temp\ccBaB4WO.s 			page 10


 365              		.loc 1 129 0
 366 009e BFB2     		uxth	r7, r7
 367              	.LVL36:
 368              		.loc 1 130 0
 369 00a0 1FFA89F9 		uxth	r9, r9
 370 00a4 3B46     		mov	r3, r7
 371 00a6 5A46     		mov	r2, fp
 372 00a8 2946     		mov	r1, r5
 373 00aa 4046     		mov	r0, r8
 374 00ac CDF80090 		str	r9, [sp]
 375 00b0 FFF7FEFF 		bl	u8g2_DrawBox
 376              	.LVL37:
 131:..\..\..\u8g2\u8g2\csrc/u8g2_box.c ****       u8g2_DrawBox(u8g2, xl, yl, ww, r+1);
 377              		.loc 1 131 0
 378 00b4 CDF80090 		str	r9, [sp]
 379 00b8 3B46     		mov	r3, r7
 380 00ba 3246     		mov	r2, r6
 381 00bc 2946     		mov	r1, r5
 382 00be 4046     		mov	r0, r8
 383 00c0 FFF7FEFF 		bl	u8g2_DrawBox
 384              	.LVL38:
 385              	.L18:
 132:..\..\..\u8g2\u8g2\csrc/u8g2_box.c ****     }
 133:..\..\..\u8g2\u8g2\csrc/u8g2_box.c ****     
 134:..\..\..\u8g2\u8g2\csrc/u8g2_box.c ****     hh = h;
 135:..\..\..\u8g2\u8g2\csrc/u8g2_box.c ****     hh -= r;
 136:..\..\..\u8g2\u8g2\csrc/u8g2_box.c ****     hh -= r;
 386              		.loc 1 136 0
 387 00c4 059B     		ldr	r3, [sp, #20]
 388 00c6 A3EB4404 		sub	r4, r3, r4, lsl #1
 389              	.LVL39:
 390 00ca A4B2     		uxth	r4, r4
 391              	.LVL40:
 137:..\..\..\u8g2\u8g2\csrc/u8g2_box.c ****     //h--;
 138:..\..\..\u8g2\u8g2\csrc/u8g2_box.c ****     if ( hh >= 3 )
 392              		.loc 1 138 0
 393 00cc 022C     		cmp	r4, #2
 394 00ce 0DD9     		bls	.L15
 395              	.LVL41:
 139:..\..\..\u8g2\u8g2\csrc/u8g2_box.c ****     {
 140:..\..\..\u8g2\u8g2\csrc/u8g2_box.c ****       hh -= 2;
 141:..\..\..\u8g2\u8g2\csrc/u8g2_box.c ****       u8g2_DrawBox(u8g2, x, yu, w, hh);
 396              		.loc 1 141 0
 397 00d0 5346     		mov	r3, r10
 398 00d2 4046     		mov	r0, r8
 399 00d4 039A     		ldr	r2, [sp, #12]
 400 00d6 023C     		subs	r4, r4, #2
 401              	.LVL42:
 402 00d8 0132     		adds	r2, r2, #1
 403 00da 0499     		ldr	r1, [sp, #16]
 404 00dc A4B2     		uxth	r4, r4
 405              	.LVL43:
 406 00de 92B2     		uxth	r2, r2
 407 00e0 1094     		str	r4, [sp, #64]
 408              	.LBE8:
 142:..\..\..\u8g2\u8g2\csrc/u8g2_box.c ****     }
 143:..\..\..\u8g2\u8g2\csrc/u8g2_box.c ****   }
ARM GAS  C:\Users\jesse\AppData\Local\Temp\ccBaB4WO.s 			page 11


 144:..\..\..\u8g2\u8g2\csrc/u8g2_box.c **** }
 409              		.loc 1 144 0
 410 00e2 07B0     		add	sp, sp, #28
 411              		.cfi_remember_state
 412              		.cfi_def_cfa_offset 36
 413              		@ sp needed
 414 00e4 BDE8F04F 		pop	{r4, r5, r6, r7, r8, r9, r10, fp, lr}
 415              		.cfi_restore 14
 416              		.cfi_restore 11
 417              		.cfi_restore 10
 418              		.cfi_restore 9
 419              		.cfi_restore 8
 420              		.cfi_restore 7
 421              		.cfi_restore 6
 422              		.cfi_restore 5
 423              		.cfi_restore 4
 424              		.cfi_def_cfa_offset 0
 425              	.LVL44:
 426              	.LBB9:
 141:..\..\..\u8g2\u8g2\csrc/u8g2_box.c ****     }
 427              		.loc 1 141 0
 428 00e8 FFF7FEBF 		b	u8g2_DrawBox
 429              	.LVL45:
 430              	.L15:
 431              		.cfi_restore_state
 432              	.LBE9:
 433              		.loc 1 144 0
 434 00ec 07B0     		add	sp, sp, #28
 435              		.cfi_def_cfa_offset 36
 436              		@ sp needed
 437 00ee BDE8F08F 		pop	{r4, r5, r6, r7, r8, r9, r10, fp, pc}
 438              		.cfi_endproc
 439              	.LFE2:
 440              		.size	u8g2_DrawRBox, .-u8g2_DrawRBox
 441              		.section	.text.u8g2_DrawRFrame,"ax",%progbits
 442              		.align	1
 443              		.global	u8g2_DrawRFrame
 444              		.thumb
 445              		.thumb_func
 446              		.type	u8g2_DrawRFrame, %function
 447              	u8g2_DrawRFrame:
 448              	.LFB3:
 145:..\..\..\u8g2\u8g2\csrc/u8g2_box.c **** 
 146:..\..\..\u8g2\u8g2\csrc/u8g2_box.c **** 
 147:..\..\..\u8g2\u8g2\csrc/u8g2_box.c **** void u8g2_DrawRFrame(u8g2_t *u8g2, u8g2_uint_t x, u8g2_uint_t y, u8g2_uint_t w, u8g2_uint_t h, u8g2
 148:..\..\..\u8g2\u8g2\csrc/u8g2_box.c **** {
 449              		.loc 1 148 0
 450              		.cfi_startproc
 451              		@ args = 8, pretend = 0, frame = 8
 452              		@ frame_needed = 0, uses_anonymous_args = 0
 453              	.LVL46:
 454 0000 2DE9F04F 		push	{r4, r5, r6, r7, r8, r9, r10, fp, lr}
 455              		.cfi_def_cfa_offset 36
 456              		.cfi_offset 4, -36
 457              		.cfi_offset 5, -32
 458              		.cfi_offset 6, -28
 459              		.cfi_offset 7, -24
ARM GAS  C:\Users\jesse\AppData\Local\Temp\ccBaB4WO.s 			page 12


 460              		.cfi_offset 8, -20
 461              		.cfi_offset 9, -16
 462              		.cfi_offset 10, -12
 463              		.cfi_offset 11, -8
 464              		.cfi_offset 14, -4
 465 0004 9946     		mov	r9, r3
 466 0006 85B0     		sub	sp, sp, #20
 467              		.cfi_def_cfa_offset 56
 468              		.loc 1 148 0
 469 0008 BDF83830 		ldrh	r3, [sp, #56]
 470              	.LVL47:
 149:..\..\..\u8g2\u8g2\csrc/u8g2_box.c ****   u8g2_uint_t xl, yu;
 150:..\..\..\u8g2\u8g2\csrc/u8g2_box.c **** 
 151:..\..\..\u8g2\u8g2\csrc/u8g2_box.c **** #ifdef U8G2_WITH_INTERSECTION
 152:..\..\..\u8g2\u8g2\csrc/u8g2_box.c ****   if ( u8g2_IsIntersection(u8g2, x, y, x+w, y+h) == 0 ) 
 471              		.loc 1 152 0
 472 000c 01EB0906 		add	r6, r1, r9
 473 0010 D718     		adds	r7, r2, r3
 474 0012 B6B2     		uxth	r6, r6
 475 0014 BFB2     		uxth	r7, r7
 148:..\..\..\u8g2\u8g2\csrc/u8g2_box.c ****   u8g2_uint_t xl, yu;
 476              		.loc 1 148 0
 477 0016 0393     		str	r3, [sp, #12]
 478              		.loc 1 152 0
 479 0018 0097     		str	r7, [sp]
 480 001a 3346     		mov	r3, r6
 148:..\..\..\u8g2\u8g2\csrc/u8g2_box.c ****   u8g2_uint_t xl, yu;
 481              		.loc 1 148 0
 482 001c 8046     		mov	r8, r0
 483 001e 8A46     		mov	r10, r1
 484 0020 9346     		mov	fp, r2
 485 0022 BDF83C40 		ldrh	r4, [sp, #60]
 486              		.loc 1 152 0
 487 0026 FFF7FEFF 		bl	u8g2_IsIntersection
 488              	.LVL48:
 489 002a 0028     		cmp	r0, #0
 490 002c 61D0     		beq	.L20
 491              	.LVL49:
 153:..\..\..\u8g2\u8g2\csrc/u8g2_box.c ****     return;
 154:..\..\..\u8g2\u8g2\csrc/u8g2_box.c **** #endif /* U8G2_WITH_INTERSECTION */
 155:..\..\..\u8g2\u8g2\csrc/u8g2_box.c **** 
 156:..\..\..\u8g2\u8g2\csrc/u8g2_box.c ****   xl = x;
 157:..\..\..\u8g2\u8g2\csrc/u8g2_box.c ****   xl += r;
 158:..\..\..\u8g2\u8g2\csrc/u8g2_box.c ****   yu = y;
 159:..\..\..\u8g2\u8g2\csrc/u8g2_box.c ****   yu += r;
 492              		.loc 1 159 0
 493 002e 0BEB0403 		add	r3, fp, r4
 494 0032 9BB2     		uxth	r3, r3
 495 0034 0293     		str	r3, [sp, #8]
 496 0036 E343     		mvns	r3, r4
 157:..\..\..\u8g2\u8g2\csrc/u8g2_box.c ****   yu = y;
 497              		.loc 1 157 0
 498 0038 0AEB0405 		add	r5, r10, r4
 499 003c 9BB2     		uxth	r3, r3
 500 003e ADB2     		uxth	r5, r5
 501              	.LVL50:
 502              	.LBB10:
ARM GAS  C:\Users\jesse\AppData\Local\Temp\ccBaB4WO.s 			page 13


 160:..\..\..\u8g2\u8g2\csrc/u8g2_box.c ****  
 161:..\..\..\u8g2\u8g2\csrc/u8g2_box.c ****   {
 162:..\..\..\u8g2\u8g2\csrc/u8g2_box.c ****     u8g2_uint_t yl, xr;
 163:..\..\..\u8g2\u8g2\csrc/u8g2_box.c ****       
 164:..\..\..\u8g2\u8g2\csrc/u8g2_box.c ****     xr = x;
 165:..\..\..\u8g2\u8g2\csrc/u8g2_box.c ****     xr += w;
 166:..\..\..\u8g2\u8g2\csrc/u8g2_box.c ****     xr -= r;
 167:..\..\..\u8g2\u8g2\csrc/u8g2_box.c ****     xr -= 1;
 503              		.loc 1 167 0
 504 0040 1E44     		add	r6, r6, r3
 505              	.LVL51:
 168:..\..\..\u8g2\u8g2\csrc/u8g2_box.c ****     
 169:..\..\..\u8g2\u8g2\csrc/u8g2_box.c ****     yl = y;
 170:..\..\..\u8g2\u8g2\csrc/u8g2_box.c ****     yl += h;
 171:..\..\..\u8g2\u8g2\csrc/u8g2_box.c ****     yl -= r; 
 172:..\..\..\u8g2\u8g2\csrc/u8g2_box.c ****     yl -= 1;
 506              		.loc 1 172 0
 507 0042 1F44     		add	r7, r7, r3
 173:..\..\..\u8g2\u8g2\csrc/u8g2_box.c **** 
 174:..\..\..\u8g2\u8g2\csrc/u8g2_box.c ****     u8g2_DrawCircle(u8g2, xl, yu, r, U8G2_DRAW_UPPER_LEFT);
 508              		.loc 1 174 0
 509 0044 0223     		movs	r3, #2
 510 0046 0093     		str	r3, [sp]
 511 0048 029A     		ldr	r2, [sp, #8]
 512 004a 2346     		mov	r3, r4
 513 004c 2946     		mov	r1, r5
 514 004e 4046     		mov	r0, r8
 515 0050 FFF7FEFF 		bl	u8g2_DrawCircle
 516              	.LVL52:
 167:..\..\..\u8g2\u8g2\csrc/u8g2_box.c ****     
 517              		.loc 1 167 0
 518 0054 B6B2     		uxth	r6, r6
 519              	.LVL53:
 175:..\..\..\u8g2\u8g2\csrc/u8g2_box.c ****     u8g2_DrawCircle(u8g2, xr, yu, r, U8G2_DRAW_UPPER_RIGHT);
 520              		.loc 1 175 0
 521 0056 0123     		movs	r3, #1
 522 0058 3146     		mov	r1, r6
 523 005a 0093     		str	r3, [sp]
 524 005c 029A     		ldr	r2, [sp, #8]
 525 005e 2346     		mov	r3, r4
 526 0060 4046     		mov	r0, r8
 527 0062 FFF7FEFF 		bl	u8g2_DrawCircle
 528              	.LVL54:
 172:..\..\..\u8g2\u8g2\csrc/u8g2_box.c **** 
 529              		.loc 1 172 0
 530 0066 BFB2     		uxth	r7, r7
 531              	.LVL55:
 176:..\..\..\u8g2\u8g2\csrc/u8g2_box.c ****     u8g2_DrawCircle(u8g2, xl, yl, r, U8G2_DRAW_LOWER_LEFT);
 532              		.loc 1 176 0
 533 0068 0423     		movs	r3, #4
 534 006a 0093     		str	r3, [sp]
 535 006c 3A46     		mov	r2, r7
 536 006e 2346     		mov	r3, r4
 537 0070 2946     		mov	r1, r5
 538 0072 4046     		mov	r0, r8
 539 0074 FFF7FEFF 		bl	u8g2_DrawCircle
 540              	.LVL56:
ARM GAS  C:\Users\jesse\AppData\Local\Temp\ccBaB4WO.s 			page 14


 177:..\..\..\u8g2\u8g2\csrc/u8g2_box.c ****     u8g2_DrawCircle(u8g2, xr, yl, r, U8G2_DRAW_LOWER_RIGHT);
 541              		.loc 1 177 0
 542 0078 0823     		movs	r3, #8
 543 007a 0093     		str	r3, [sp]
 544 007c 3146     		mov	r1, r6
 545 007e 2346     		mov	r3, r4
 546 0080 3A46     		mov	r2, r7
 547 0082 4046     		mov	r0, r8
 548 0084 FFF7FEFF 		bl	u8g2_DrawCircle
 549              	.LVL57:
 550              	.LBE10:
 551              	.LBB11:
 178:..\..\..\u8g2\u8g2\csrc/u8g2_box.c ****   }
 179:..\..\..\u8g2\u8g2\csrc/u8g2_box.c **** 
 180:..\..\..\u8g2\u8g2\csrc/u8g2_box.c ****   {
 181:..\..\..\u8g2\u8g2\csrc/u8g2_box.c ****     u8g2_uint_t ww, hh;
 182:..\..\..\u8g2\u8g2\csrc/u8g2_box.c **** 
 183:..\..\..\u8g2\u8g2\csrc/u8g2_box.c ****     ww = w;
 184:..\..\..\u8g2\u8g2\csrc/u8g2_box.c ****     ww -= r;
 185:..\..\..\u8g2\u8g2\csrc/u8g2_box.c ****     ww -= r;
 552              		.loc 1 185 0
 553 0088 A9EB4406 		sub	r6, r9, r4, lsl #1
 554              	.LVL58:
 186:..\..\..\u8g2\u8g2\csrc/u8g2_box.c ****     hh = h;
 187:..\..\..\u8g2\u8g2\csrc/u8g2_box.c ****     hh -= r;
 188:..\..\..\u8g2\u8g2\csrc/u8g2_box.c ****     hh -= r;
 555              		.loc 1 188 0
 556 008c 039B     		ldr	r3, [sp, #12]
 185:..\..\..\u8g2\u8g2\csrc/u8g2_box.c ****     hh = h;
 557              		.loc 1 185 0
 558 008e B6B2     		uxth	r6, r6
 559              	.LVL59:
 560              		.loc 1 188 0
 561 0090 A3EB4404 		sub	r4, r3, r4, lsl #1
 562              	.LVL60:
 189:..\..\..\u8g2\u8g2\csrc/u8g2_box.c ****     
 190:..\..\..\u8g2\u8g2\csrc/u8g2_box.c ****     xl++;
 191:..\..\..\u8g2\u8g2\csrc/u8g2_box.c ****     yu++;
 192:..\..\..\u8g2\u8g2\csrc/u8g2_box.c ****     
 193:..\..\..\u8g2\u8g2\csrc/u8g2_box.c ****     if ( ww >= 3 )
 563              		.loc 1 193 0
 564 0094 022E     		cmp	r6, #2
 188:..\..\..\u8g2\u8g2\csrc/u8g2_box.c ****     
 565              		.loc 1 188 0
 566 0096 A4B2     		uxth	r4, r4
 567              	.LVL61:
 568              		.loc 1 193 0
 569 0098 12D9     		bls	.L23
 190:..\..\..\u8g2\u8g2\csrc/u8g2_box.c ****     yu++;
 570              		.loc 1 190 0
 571 009a 0135     		adds	r5, r5, #1
 572              	.LVL62:
 194:..\..\..\u8g2\u8g2\csrc/u8g2_box.c ****     {
 195:..\..\..\u8g2\u8g2\csrc/u8g2_box.c ****       ww -= 2;
 573              		.loc 1 195 0
 574 009c 023E     		subs	r6, r6, #2
 575              	.LVL63:
ARM GAS  C:\Users\jesse\AppData\Local\Temp\ccBaB4WO.s 			page 15


 190:..\..\..\u8g2\u8g2\csrc/u8g2_box.c ****     yu++;
 576              		.loc 1 190 0
 577 009e ADB2     		uxth	r5, r5
 578              	.LVL64:
 579              		.loc 1 195 0
 580 00a0 B6B2     		uxth	r6, r6
 581              	.LVL65:
 196:..\..\..\u8g2\u8g2\csrc/u8g2_box.c ****       h--;
 197:..\..\..\u8g2\u8g2\csrc/u8g2_box.c ****       u8g2_DrawHLine(u8g2, xl, y, ww);
 582              		.loc 1 197 0
 583 00a2 3346     		mov	r3, r6
 584 00a4 5A46     		mov	r2, fp
 585 00a6 2946     		mov	r1, r5
 586 00a8 4046     		mov	r0, r8
 587 00aa FFF7FEFF 		bl	u8g2_DrawHLine
 588              	.LVL66:
 198:..\..\..\u8g2\u8g2\csrc/u8g2_box.c ****       u8g2_DrawHLine(u8g2, xl, y+h, ww);
 589              		.loc 1 198 0
 590 00ae 039B     		ldr	r3, [sp, #12]
 591 00b0 2946     		mov	r1, r5
 592 00b2 5A1E     		subs	r2, r3, #1
 593 00b4 5A44     		add	r2, r2, fp
 594 00b6 3346     		mov	r3, r6
 595 00b8 92B2     		uxth	r2, r2
 596 00ba 4046     		mov	r0, r8
 597 00bc FFF7FEFF 		bl	u8g2_DrawHLine
 598              	.LVL67:
 599              	.L23:
 199:..\..\..\u8g2\u8g2\csrc/u8g2_box.c ****     }
 200:..\..\..\u8g2\u8g2\csrc/u8g2_box.c ****     
 201:..\..\..\u8g2\u8g2\csrc/u8g2_box.c ****     if ( hh >= 3 )
 600              		.loc 1 201 0
 601 00c0 022C     		cmp	r4, #2
 602 00c2 16D9     		bls	.L20
 191:..\..\..\u8g2\u8g2\csrc/u8g2_box.c ****     
 603              		.loc 1 191 0
 604 00c4 029D     		ldr	r5, [sp, #8]
 202:..\..\..\u8g2\u8g2\csrc/u8g2_box.c ****     {
 203:..\..\..\u8g2\u8g2\csrc/u8g2_box.c ****       hh -= 2;
 605              		.loc 1 203 0
 606 00c6 023C     		subs	r4, r4, #2
 607              	.LVL68:
 191:..\..\..\u8g2\u8g2\csrc/u8g2_box.c ****     
 608              		.loc 1 191 0
 609 00c8 0135     		adds	r5, r5, #1
 610 00ca ADB2     		uxth	r5, r5
 611              		.loc 1 203 0
 612 00cc A4B2     		uxth	r4, r4
 613              	.LVL69:
 204:..\..\..\u8g2\u8g2\csrc/u8g2_box.c ****       w--;
 205:..\..\..\u8g2\u8g2\csrc/u8g2_box.c ****       u8g2_DrawVLine(u8g2, x, yu, hh);
 614              		.loc 1 205 0
 615 00ce 2346     		mov	r3, r4
 616 00d0 2A46     		mov	r2, r5
 617 00d2 5146     		mov	r1, r10
 618 00d4 4046     		mov	r0, r8
 619 00d6 FFF7FEFF 		bl	u8g2_DrawVLine
ARM GAS  C:\Users\jesse\AppData\Local\Temp\ccBaB4WO.s 			page 16


 620              	.LVL70:
 206:..\..\..\u8g2\u8g2\csrc/u8g2_box.c ****       u8g2_DrawVLine(u8g2, x+w, yu, hh);
 621              		.loc 1 206 0
 622 00da 2346     		mov	r3, r4
 623 00dc 2A46     		mov	r2, r5
 624 00de 4046     		mov	r0, r8
 625 00e0 09F1FF31 		add	r1, r9, #-1
 626 00e4 5144     		add	r1, r1, r10
 627 00e6 89B2     		uxth	r1, r1
 628              	.LBE11:
 207:..\..\..\u8g2\u8g2\csrc/u8g2_box.c ****     }
 208:..\..\..\u8g2\u8g2\csrc/u8g2_box.c ****   }
 209:..\..\..\u8g2\u8g2\csrc/u8g2_box.c **** }
 629              		.loc 1 209 0
 630 00e8 05B0     		add	sp, sp, #20
 631              		.cfi_remember_state
 632              		.cfi_def_cfa_offset 36
 633              		@ sp needed
 634 00ea BDE8F04F 		pop	{r4, r5, r6, r7, r8, r9, r10, fp, lr}
 635              		.cfi_restore 14
 636              		.cfi_restore 11
 637              		.cfi_restore 10
 638              		.cfi_restore 9
 639              		.cfi_restore 8
 640              		.cfi_restore 7
 641              		.cfi_restore 6
 642              		.cfi_restore 5
 643              		.cfi_restore 4
 644              		.cfi_def_cfa_offset 0
 645              	.LVL71:
 646              	.LBB12:
 206:..\..\..\u8g2\u8g2\csrc/u8g2_box.c ****       u8g2_DrawVLine(u8g2, x+w, yu, hh);
 647              		.loc 1 206 0
 648 00ee FFF7FEBF 		b	u8g2_DrawVLine
 649              	.LVL72:
 650              	.L20:
 651              		.cfi_restore_state
 652              	.LBE12:
 653              		.loc 1 209 0
 654 00f2 05B0     		add	sp, sp, #20
 655              		.cfi_def_cfa_offset 36
 656              		@ sp needed
 657 00f4 BDE8F08F 		pop	{r4, r5, r6, r7, r8, r9, r10, fp, pc}
 658              		.cfi_endproc
 659              	.LFE3:
 660              		.size	u8g2_DrawRFrame, .-u8g2_DrawRFrame
 661              		.text
 662              	.Letext0:
 663              		.file 2 "c:\\program files (x86)\\cypress\\psoc creator\\4.4\\psoc creator\\import\\gnu\\arm\\5.4.
 664              		.file 3 "c:\\program files (x86)\\cypress\\psoc creator\\4.4\\psoc creator\\import\\gnu\\arm\\5.4.
 665              		.file 4 "..\\..\\..\\u8g2\\u8g2\\csrc\\u8x8.h"
 666              		.file 5 "..\\..\\..\\u8g2\\u8g2\\csrc\\u8g2.h"