ARM GAS  C:\Users\jesse\AppData\Local\Temp\ccEcUOdP.s 			page 1


   1              		.syntax unified
   2              		.cpu cortex-m3
   3              		.fpu softvfp
   4              		.eabi_attribute 20, 1
   5              		.eabi_attribute 21, 1
   6              		.eabi_attribute 23, 3
   7              		.eabi_attribute 24, 1
   8              		.eabi_attribute 25, 1
   9              		.eabi_attribute 26, 1
  10              		.eabi_attribute 30, 4
  11              		.eabi_attribute 34, 1
  12              		.eabi_attribute 18, 4
  13              		.thumb
  14              		.syntax unified
  15              		.file	"u8g2_input_value.c"
  16              		.text
  17              	.Ltext0:
  18              		.cfi_sections	.debug_frame
  19              		.section	.text.u8g2_UserInterfaceInputValue,"ax",%progbits
  20              		.align	1
  21              		.global	u8g2_UserInterfaceInputValue
  22              		.thumb
  23              		.thumb_func
  24              		.type	u8g2_UserInterfaceInputValue, %function
  25              	u8g2_UserInterfaceInputValue:
  26              	.LFB0:
  27              		.file 1 "..\\..\\..\\u8g2\\u8g2\\csrc\\u8g2_input_value.c"
   1:..\..\..\u8g2\u8g2\csrc/u8g2_input_value.c **** /*
   2:..\..\..\u8g2\u8g2\csrc/u8g2_input_value.c **** 
   3:..\..\..\u8g2\u8g2\csrc/u8g2_input_value.c ****   u8g2_input_value.c
   4:..\..\..\u8g2\u8g2\csrc/u8g2_input_value.c ****   
   5:..\..\..\u8g2\u8g2\csrc/u8g2_input_value.c ****   Universal 8bit Graphics Library (https://github.com/olikraus/u8g2/)
   6:..\..\..\u8g2\u8g2\csrc/u8g2_input_value.c **** 
   7:..\..\..\u8g2\u8g2\csrc/u8g2_input_value.c ****   Copyright (c) 2016, olikraus@gmail.com
   8:..\..\..\u8g2\u8g2\csrc/u8g2_input_value.c ****   All rights reserved.
   9:..\..\..\u8g2\u8g2\csrc/u8g2_input_value.c **** 
  10:..\..\..\u8g2\u8g2\csrc/u8g2_input_value.c ****   Redistribution and use in source and binary forms, with or without modification, 
  11:..\..\..\u8g2\u8g2\csrc/u8g2_input_value.c ****   are permitted provided that the following conditions are met:
  12:..\..\..\u8g2\u8g2\csrc/u8g2_input_value.c **** 
  13:..\..\..\u8g2\u8g2\csrc/u8g2_input_value.c ****   * Redistributions of source code must retain the above copyright notice, this list 
  14:..\..\..\u8g2\u8g2\csrc/u8g2_input_value.c ****     of conditions and the following disclaimer.
  15:..\..\..\u8g2\u8g2\csrc/u8g2_input_value.c ****     
  16:..\..\..\u8g2\u8g2\csrc/u8g2_input_value.c ****   * Redistributions in binary form must reproduce the above copyright notice, this 
  17:..\..\..\u8g2\u8g2\csrc/u8g2_input_value.c ****     list of conditions and the following disclaimer in the documentation and/or other 
  18:..\..\..\u8g2\u8g2\csrc/u8g2_input_value.c ****     materials provided with the distribution.
  19:..\..\..\u8g2\u8g2\csrc/u8g2_input_value.c **** 
  20:..\..\..\u8g2\u8g2\csrc/u8g2_input_value.c ****   THIS SOFTWARE IS PROVIDED BY THE COPYRIGHT HOLDERS AND 
  21:..\..\..\u8g2\u8g2\csrc/u8g2_input_value.c ****   CONTRIBUTORS "AS IS" AND ANY EXPRESS OR IMPLIED WARRANTIES, 
  22:..\..\..\u8g2\u8g2\csrc/u8g2_input_value.c ****   INCLUDING, BUT NOT LIMITED TO, THE IMPLIED WARRANTIES OF 
  23:..\..\..\u8g2\u8g2\csrc/u8g2_input_value.c ****   MERCHANTABILITY AND FITNESS FOR A PARTICULAR PURPOSE ARE 
  24:..\..\..\u8g2\u8g2\csrc/u8g2_input_value.c ****   DISCLAIMED. IN NO EVENT SHALL THE COPYRIGHT HOLDER OR 
  25:..\..\..\u8g2\u8g2\csrc/u8g2_input_value.c ****   CONTRIBUTORS BE LIABLE FOR ANY DIRECT, INDIRECT, INCIDENTAL, 
  26:..\..\..\u8g2\u8g2\csrc/u8g2_input_value.c ****   SPECIAL, EXEMPLARY, OR CONSEQUENTIAL DAMAGES (INCLUDING, BUT 
  27:..\..\..\u8g2\u8g2\csrc/u8g2_input_value.c ****   NOT LIMITED TO, PROCUREMENT OF SUBSTITUTE GOODS OR SERVICES; 
  28:..\..\..\u8g2\u8g2\csrc/u8g2_input_value.c ****   LOSS OF USE, DATA, OR PROFITS; OR BUSINESS INTERRUPTION) HOWEVER 
  29:..\..\..\u8g2\u8g2\csrc/u8g2_input_value.c ****   CAUSED AND ON ANY THEORY OF LIABILITY, WHETHER IN CONTRACT, 
  30:..\..\..\u8g2\u8g2\csrc/u8g2_input_value.c ****   STRICT LIABILITY, OR TORT (INCLUDING NEGLIGENCE OR OTHERWISE) 
ARM GAS  C:\Users\jesse\AppData\Local\Temp\ccEcUOdP.s 			page 2


  31:..\..\..\u8g2\u8g2\csrc/u8g2_input_value.c ****   ARISING IN ANY WAY OUT OF THE USE OF THIS SOFTWARE, EVEN IF 
  32:..\..\..\u8g2\u8g2\csrc/u8g2_input_value.c ****   ADVISED OF THE POSSIBILITY OF SUCH DAMAGE.  
  33:..\..\..\u8g2\u8g2\csrc/u8g2_input_value.c ****   
  34:..\..\..\u8g2\u8g2\csrc/u8g2_input_value.c **** */
  35:..\..\..\u8g2\u8g2\csrc/u8g2_input_value.c **** 
  36:..\..\..\u8g2\u8g2\csrc/u8g2_input_value.c **** #include "u8g2.h"
  37:..\..\..\u8g2\u8g2\csrc/u8g2_input_value.c **** 
  38:..\..\..\u8g2\u8g2\csrc/u8g2_input_value.c **** /*
  39:..\..\..\u8g2\u8g2\csrc/u8g2_input_value.c ****   return:
  40:..\..\..\u8g2\u8g2\csrc/u8g2_input_value.c ****     0: value is not changed (HOME/Break Button pressed)
  41:..\..\..\u8g2\u8g2\csrc/u8g2_input_value.c ****     1: value has been updated
  42:..\..\..\u8g2\u8g2\csrc/u8g2_input_value.c **** */
  43:..\..\..\u8g2\u8g2\csrc/u8g2_input_value.c **** 
  44:..\..\..\u8g2\u8g2\csrc/u8g2_input_value.c **** uint8_t u8g2_UserInterfaceInputValue(u8g2_t *u8g2, const char *title, const char *pre, uint8_t *val
  45:..\..\..\u8g2\u8g2\csrc/u8g2_input_value.c **** {
  28              		.loc 1 45 0
  29              		.cfi_startproc
  30              		@ args = 16, pretend = 0, frame = 24
  31              		@ frame_needed = 0, uses_anonymous_args = 0
  32              	.LVL0:
  33 0000 2DE9F04F 		push	{r4, r5, r6, r7, r8, r9, r10, fp, lr}
  34              		.cfi_def_cfa_offset 36
  35              		.cfi_offset 4, -36
  36              		.cfi_offset 5, -32
  37              		.cfi_offset 6, -28
  38              		.cfi_offset 7, -24
  39              		.cfi_offset 8, -20
  40              		.cfi_offset 9, -16
  41              		.cfi_offset 10, -12
  42              		.cfi_offset 11, -8
  43              		.cfi_offset 14, -4
  44 0004 0446     		mov	r4, r0
  45 0006 9B46     		mov	fp, r3
  46 0008 89B0     		sub	sp, sp, #36
  47              		.cfi_def_cfa_offset 72
  48              		.loc 1 45 0
  49 000a 9DF84830 		ldrb	r3, [sp, #72]	@ zero_extendqisi2
  50              	.LVL1:
  51 000e 0491     		str	r1, [sp, #16]
  52 0010 0593     		str	r3, [sp, #20]
  53 0012 9DF84C30 		ldrb	r3, [sp, #76]	@ zero_extendqisi2
  46:..\..\..\u8g2\u8g2\csrc/u8g2_input_value.c ****   uint8_t line_height;
  47:..\..\..\u8g2\u8g2\csrc/u8g2_input_value.c ****   uint8_t height;
  48:..\..\..\u8g2\u8g2\csrc/u8g2_input_value.c ****   u8g2_uint_t pixel_height;
  49:..\..\..\u8g2\u8g2\csrc/u8g2_input_value.c ****   u8g2_uint_t  y, yy;
  50:..\..\..\u8g2\u8g2\csrc/u8g2_input_value.c ****   u8g2_uint_t  pixel_width;
  51:..\..\..\u8g2\u8g2\csrc/u8g2_input_value.c ****   u8g2_uint_t  x, xx;
  52:..\..\..\u8g2\u8g2\csrc/u8g2_input_value.c ****   
  53:..\..\..\u8g2\u8g2\csrc/u8g2_input_value.c ****   uint8_t local_value = *value;
  54:..\..\..\u8g2\u8g2\csrc/u8g2_input_value.c ****   //uint8_t r; /* not used ??? */
  55:..\..\..\u8g2\u8g2\csrc/u8g2_input_value.c ****   uint8_t event;
  56:..\..\..\u8g2\u8g2\csrc/u8g2_input_value.c **** 
  57:..\..\..\u8g2\u8g2\csrc/u8g2_input_value.c ****   /* only horizontal strings are supported, so force this here */
  58:..\..\..\u8g2\u8g2\csrc/u8g2_input_value.c ****   u8g2_SetFontDirection(u8g2, 0);
  54              		.loc 1 58 0
  55 0016 0021     		movs	r1, #0
  56              	.LVL2:
ARM GAS  C:\Users\jesse\AppData\Local\Temp\ccEcUOdP.s 			page 3


  45:..\..\..\u8g2\u8g2\csrc/u8g2_input_value.c ****   uint8_t line_height;
  57              		.loc 1 45 0
  58 0018 0693     		str	r3, [sp, #24]
  59 001a 9DF85030 		ldrb	r3, [sp, #80]	@ zero_extendqisi2
  60 001e 9246     		mov	r10, r2
  61 0020 0793     		str	r3, [sp, #28]
  53:..\..\..\u8g2\u8g2\csrc/u8g2_input_value.c ****   //uint8_t r; /* not used ??? */
  62              		.loc 1 53 0
  63 0022 9BF80050 		ldrb	r5, [fp]	@ zero_extendqisi2
  64              	.LVL3:
  65              		.loc 1 58 0
  66 0026 FFF7FEFF 		bl	u8g2_SetFontDirection
  67              	.LVL4:
  59:..\..\..\u8g2\u8g2\csrc/u8g2_input_value.c **** 
  60:..\..\..\u8g2\u8g2\csrc/u8g2_input_value.c ****   /* force baseline position */
  61:..\..\..\u8g2\u8g2\csrc/u8g2_input_value.c ****   u8g2_SetFontPosBaseline(u8g2);
  68              		.loc 1 61 0
  69 002a 2046     		mov	r0, r4
  70 002c FFF7FEFF 		bl	u8g2_SetFontPosBaseline
  71              	.LVL5:
  62:..\..\..\u8g2\u8g2\csrc/u8g2_input_value.c ****   
  63:..\..\..\u8g2\u8g2\csrc/u8g2_input_value.c ****   /* calculate line height */
  64:..\..\..\u8g2\u8g2\csrc/u8g2_input_value.c ****   line_height = u8g2_GetAscent(u8g2);
  72              		.loc 1 64 0
  73 0030 94F88E30 		ldrb	r3, [r4, #142]	@ zero_extendqisi2
  74              	.LVL6:
  65:..\..\..\u8g2\u8g2\csrc/u8g2_input_value.c ****   line_height -= u8g2_GetDescent(u8g2);
  75              		.loc 1 65 0
  76 0034 94F88F60 		ldrb	r6, [r4, #143]	@ zero_extendqisi2
  66:..\..\..\u8g2\u8g2\csrc/u8g2_input_value.c ****   
  67:..\..\..\u8g2\u8g2\csrc/u8g2_input_value.c ****   
  68:..\..\..\u8g2\u8g2\csrc/u8g2_input_value.c ****   /* calculate overall height of the input value box */
  69:..\..\..\u8g2\u8g2\csrc/u8g2_input_value.c ****   height = 1;	/* value input line */
  70:..\..\..\u8g2\u8g2\csrc/u8g2_input_value.c ****   height += u8x8_GetStringLineCnt(title);
  77              		.loc 1 70 0
  78 0038 0498     		ldr	r0, [sp, #16]
  65:..\..\..\u8g2\u8g2\csrc/u8g2_input_value.c ****   line_height -= u8g2_GetDescent(u8g2);
  79              		.loc 1 65 0
  80 003a 9E1B     		subs	r6, r3, r6
  81              		.loc 1 70 0
  82 003c FFF7FEFF 		bl	u8x8_GetStringLineCnt
  83              	.LVL7:
  65:..\..\..\u8g2\u8g2\csrc/u8g2_input_value.c ****   line_height -= u8g2_GetDescent(u8g2);
  84              		.loc 1 65 0
  85 0040 F6B2     		uxtb	r6, r6
  86              	.LVL8:
  71:..\..\..\u8g2\u8g2\csrc/u8g2_input_value.c **** 
  72:..\..\..\u8g2\u8g2\csrc/u8g2_input_value.c ****   /* calculate the height in pixel */
  73:..\..\..\u8g2\u8g2\csrc/u8g2_input_value.c ****   pixel_height = height;
  87              		.loc 1 73 0
  88 0042 0130     		adds	r0, r0, #1
  89              	.LVL9:
  74:..\..\..\u8g2\u8g2\csrc/u8g2_input_value.c ****   pixel_height *= line_height;
  90              		.loc 1 74 0
  91 0044 B3B2     		uxth	r3, r6
  73:..\..\..\u8g2\u8g2\csrc/u8g2_input_value.c ****   pixel_height *= line_height;
  92              		.loc 1 73 0
ARM GAS  C:\Users\jesse\AppData\Local\Temp\ccEcUOdP.s 			page 4


  93 0046 C0B2     		uxtb	r0, r0
  94              	.LVL10:
  95              		.loc 1 74 0
  96 0048 5843     		muls	r0, r3, r0
  97              	.LVL11:
  75:..\..\..\u8g2\u8g2\csrc/u8g2_input_value.c **** 
  76:..\..\..\u8g2\u8g2\csrc/u8g2_input_value.c **** 
  77:..\..\..\u8g2\u8g2\csrc/u8g2_input_value.c ****   /* calculate offset from top */
  78:..\..\..\u8g2\u8g2\csrc/u8g2_input_value.c ****   y = 0;
  79:..\..\..\u8g2\u8g2\csrc/u8g2_input_value.c ****   if ( pixel_height < u8g2_GetDisplayHeight(u8g2)  )
  98              		.loc 1 79 0
  99 004a B4F84660 		ldrh	r6, [r4, #70]
 100              	.LVL12:
  80:..\..\..\u8g2\u8g2\csrc/u8g2_input_value.c ****   {
  81:..\..\..\u8g2\u8g2\csrc/u8g2_input_value.c ****     y = u8g2_GetDisplayHeight(u8g2);
  82:..\..\..\u8g2\u8g2\csrc/u8g2_input_value.c ****     y -= pixel_height;
  83:..\..\..\u8g2\u8g2\csrc/u8g2_input_value.c ****     y /= 2;
  84:..\..\..\u8g2\u8g2\csrc/u8g2_input_value.c ****   }
  85:..\..\..\u8g2\u8g2\csrc/u8g2_input_value.c ****   
  86:..\..\..\u8g2\u8g2\csrc/u8g2_input_value.c ****   /* calculate offset from left for the label */
  87:..\..\..\u8g2\u8g2\csrc/u8g2_input_value.c ****   x = 0;
  88:..\..\..\u8g2\u8g2\csrc/u8g2_input_value.c ****   pixel_width = u8g2_GetUTF8Width(u8g2, pre);
 101              		.loc 1 88 0
 102 004e 5146     		mov	r1, r10
  79:..\..\..\u8g2\u8g2\csrc/u8g2_input_value.c ****   {
 103              		.loc 1 79 0
 104 0050 B042     		cmp	r0, r6
 105              	.LVL13:
  83:..\..\..\u8g2\u8g2\csrc/u8g2_input_value.c ****   }
 106              		.loc 1 83 0
 107 0052 38BF     		it	cc
 108 0054 361A     		subcc	r6, r6, r0
 109              	.LVL14:
 110              		.loc 1 88 0
 111 0056 2046     		mov	r0, r4
 112              	.LVL15:
  74:..\..\..\u8g2\u8g2\csrc/u8g2_input_value.c **** 
 113              		.loc 1 74 0
 114 0058 0393     		str	r3, [sp, #12]
  83:..\..\..\u8g2\u8g2\csrc/u8g2_input_value.c ****   }
 115              		.loc 1 83 0
 116 005a 34BF     		ite	cc
 117 005c C6F34E06 		ubfxcc	r6, r6, #1, #15
 118              	.LVL16:
  78:..\..\..\u8g2\u8g2\csrc/u8g2_input_value.c ****   if ( pixel_height < u8g2_GetDisplayHeight(u8g2)  )
 119              		.loc 1 78 0
 120 0060 0026     		movcs	r6, #0
 121              	.LVL17:
 122              		.loc 1 88 0
 123 0062 FFF7FEFF 		bl	u8g2_GetUTF8Width
 124              	.LVL18:
  89:..\..\..\u8g2\u8g2\csrc/u8g2_input_value.c ****   pixel_width += u8g2_GetUTF8Width(u8g2, "0") * digits;
 125              		.loc 1 89 0
 126 0066 3749     		ldr	r1, .L32
  88:..\..\..\u8g2\u8g2\csrc/u8g2_input_value.c ****   pixel_width += u8g2_GetUTF8Width(u8g2, "0") * digits;
 127              		.loc 1 88 0
 128 0068 0746     		mov	r7, r0
ARM GAS  C:\Users\jesse\AppData\Local\Temp\ccEcUOdP.s 			page 5


 129              	.LVL19:
 130              		.loc 1 89 0
 131 006a 2046     		mov	r0, r4
 132 006c FFF7FEFF 		bl	u8g2_GetUTF8Width
 133              	.LVL20:
  90:..\..\..\u8g2\u8g2\csrc/u8g2_input_value.c ****   pixel_width += u8g2_GetUTF8Width(u8g2, post);
 134              		.loc 1 90 0
 135 0070 1599     		ldr	r1, [sp, #84]
  89:..\..\..\u8g2\u8g2\csrc/u8g2_input_value.c ****   pixel_width += u8g2_GetUTF8Width(u8g2, "0") * digits;
 136              		.loc 1 89 0
 137 0072 8046     		mov	r8, r0
 138              	.LVL21:
 139              		.loc 1 90 0
 140 0074 2046     		mov	r0, r4
 141 0076 FFF7FEFF 		bl	u8g2_GetUTF8Width
 142              	.LVL22:
 143 007a 079B     		ldr	r3, [sp, #28]
 144 007c 3844     		add	r0, r0, r7
 145 007e 03FB0800 		mla	r0, r3, r8, r0
  91:..\..\..\u8g2\u8g2\csrc/u8g2_input_value.c ****   if ( pixel_width < u8g2_GetDisplayWidth(u8g2) )
 146              		.loc 1 91 0
 147 0082 B4F84470 		ldrh	r7, [r4, #68]
 148              	.LVL23:
  90:..\..\..\u8g2\u8g2\csrc/u8g2_input_value.c ****   pixel_width += u8g2_GetUTF8Width(u8g2, post);
 149              		.loc 1 90 0
 150 0086 80B2     		uxth	r0, r0
 151              	.LVL24:
 152              		.loc 1 91 0
 153 0088 B842     		cmp	r0, r7
 154              	.LVL25:
  92:..\..\..\u8g2\u8g2\csrc/u8g2_input_value.c ****   {
  93:..\..\..\u8g2\u8g2\csrc/u8g2_input_value.c ****     x = u8g2_GetDisplayWidth(u8g2);
  94:..\..\..\u8g2\u8g2\csrc/u8g2_input_value.c ****     x -= pixel_width;
  95:..\..\..\u8g2\u8g2\csrc/u8g2_input_value.c ****     x /= 2;
 155              		.loc 1 95 0
 156 008a 3ABF     		itte	cc
 157 008c 3F1A     		subcc	r7, r7, r0
 158              	.LVL26:
 159 008e C7F34E07 		ubfxcc	r7, r7, #1, #15
 160              	.LVL27:
  87:..\..\..\u8g2\u8g2\csrc/u8g2_input_value.c ****   pixel_width = u8g2_GetUTF8Width(u8g2, pre);
 161              		.loc 1 87 0
 162 0092 0027     		movcs	r7, #0
 163              	.LVL28:
 164              	.L4:
  96:..\..\..\u8g2\u8g2\csrc/u8g2_input_value.c ****   }
  97:..\..\..\u8g2\u8g2\csrc/u8g2_input_value.c ****   
  98:..\..\..\u8g2\u8g2\csrc/u8g2_input_value.c ****   /* event loop */
  99:..\..\..\u8g2\u8g2\csrc/u8g2_input_value.c ****   for(;;)
 100:..\..\..\u8g2\u8g2\csrc/u8g2_input_value.c ****   {
 101:..\..\..\u8g2\u8g2\csrc/u8g2_input_value.c ****     u8g2_FirstPage(u8g2);
 165              		.loc 1 101 0
 166 0094 2046     		mov	r0, r4
 167 0096 FFF7FEFF 		bl	u8g2_FirstPage
 168              	.LVL29:
 169              	.L5:
 102:..\..\..\u8g2\u8g2\csrc/u8g2_input_value.c ****     do
ARM GAS  C:\Users\jesse\AppData\Local\Temp\ccEcUOdP.s 			page 6


 103:..\..\..\u8g2\u8g2\csrc/u8g2_input_value.c ****     {
 104:..\..\..\u8g2\u8g2\csrc/u8g2_input_value.c ****       /* render */
 105:..\..\..\u8g2\u8g2\csrc/u8g2_input_value.c ****       yy = y;
 106:..\..\..\u8g2\u8g2\csrc/u8g2_input_value.c ****       yy += u8g2_DrawUTF8Lines(u8g2, 0, yy, u8g2_GetDisplayWidth(u8g2), line_height, title);
 170              		.loc 1 106 0 discriminator 1
 171 009a 049A     		ldr	r2, [sp, #16]
 172 009c B4F84430 		ldrh	r3, [r4, #68]
 173 00a0 0192     		str	r2, [sp, #4]
 174 00a2 039A     		ldr	r2, [sp, #12]
 175 00a4 0021     		movs	r1, #0
 176 00a6 0092     		str	r2, [sp]
 177 00a8 2046     		mov	r0, r4
 178 00aa 3246     		mov	r2, r6
 179 00ac FFF7FEFF 		bl	u8g2_DrawUTF8Lines
 180              	.LVL30:
 181 00b0 3044     		add	r0, r0, r6
 182 00b2 1FFA80F9 		uxth	r9, r0
 183              	.LVL31:
 107:..\..\..\u8g2\u8g2\csrc/u8g2_input_value.c ****       xx = x;
 108:..\..\..\u8g2\u8g2\csrc/u8g2_input_value.c ****       xx += u8g2_DrawUTF8(u8g2, xx, yy, pre);
 184              		.loc 1 108 0 discriminator 1
 185 00b6 5346     		mov	r3, r10
 186 00b8 4A46     		mov	r2, r9
 187 00ba 3946     		mov	r1, r7
 188 00bc 2046     		mov	r0, r4
 189 00be FFF7FEFF 		bl	u8g2_DrawUTF8
 190              	.LVL32:
 191 00c2 3844     		add	r0, r0, r7
 192 00c4 1FFA80F8 		uxth	r8, r0
 193              	.LVL33:
 109:..\..\..\u8g2\u8g2\csrc/u8g2_input_value.c ****       xx += u8g2_DrawUTF8(u8g2, xx, yy, u8x8_u8toa(local_value, digits));
 194              		.loc 1 109 0 discriminator 1
 195 00c8 0799     		ldr	r1, [sp, #28]
 196 00ca 2846     		mov	r0, r5
 197 00cc FFF7FEFF 		bl	u8x8_u8toa
 198              	.LVL34:
 199 00d0 4146     		mov	r1, r8
 200 00d2 0346     		mov	r3, r0
 201 00d4 4A46     		mov	r2, r9
 202 00d6 2046     		mov	r0, r4
 203 00d8 FFF7FEFF 		bl	u8g2_DrawUTF8
 204              	.LVL35:
 110:..\..\..\u8g2\u8g2\csrc/u8g2_input_value.c ****       u8g2_DrawUTF8(u8g2, xx, yy, post);
 205              		.loc 1 110 0 discriminator 1
 206 00dc 4044     		add	r0, r0, r8
 207              	.LVL36:
 208 00de 81B2     		uxth	r1, r0
 209 00e0 159B     		ldr	r3, [sp, #84]
 210 00e2 4A46     		mov	r2, r9
 211 00e4 2046     		mov	r0, r4
 212 00e6 FFF7FEFF 		bl	u8g2_DrawUTF8
 213              	.LVL37:
 111:..\..\..\u8g2\u8g2\csrc/u8g2_input_value.c ****     } while( u8g2_NextPage(u8g2) );
 214              		.loc 1 111 0 discriminator 1
 215 00ea 2046     		mov	r0, r4
 216 00ec FFF7FEFF 		bl	u8g2_NextPage
 217              	.LVL38:
ARM GAS  C:\Users\jesse\AppData\Local\Temp\ccEcUOdP.s 			page 7


 218 00f0 8046     		mov	r8, r0
 219 00f2 0028     		cmp	r0, #0
 220 00f4 D1D1     		bne	.L5
 221              	.L12:
 112:..\..\..\u8g2\u8g2\csrc/u8g2_input_value.c ****     
 113:..\..\..\u8g2\u8g2\csrc/u8g2_input_value.c **** #ifdef U8G2_REF_MAN_PIC
 114:..\..\..\u8g2\u8g2\csrc/u8g2_input_value.c ****       return 0;
 115:..\..\..\u8g2\u8g2\csrc/u8g2_input_value.c **** #endif
 116:..\..\..\u8g2\u8g2\csrc/u8g2_input_value.c ****     
 117:..\..\..\u8g2\u8g2\csrc/u8g2_input_value.c ****     for(;;)
 118:..\..\..\u8g2\u8g2\csrc/u8g2_input_value.c ****     {
 119:..\..\..\u8g2\u8g2\csrc/u8g2_input_value.c ****       event = u8x8_GetMenuEvent(u8g2_GetU8x8(u8g2));
 222              		.loc 1 119 0
 223 00f6 2046     		mov	r0, r4
 224 00f8 FFF7FEFF 		bl	u8x8_GetMenuEvent
 225              	.LVL39:
 120:..\..\..\u8g2\u8g2\csrc/u8g2_input_value.c ****       if ( event == U8X8_MSG_GPIO_MENU_SELECT )
 226              		.loc 1 120 0
 227 00fc 5028     		cmp	r0, #80
 228 00fe 04D1     		bne	.L6
 121:..\..\..\u8g2\u8g2\csrc/u8g2_input_value.c ****       {
 122:..\..\..\u8g2\u8g2\csrc/u8g2_input_value.c **** 	*value = local_value;
 229              		.loc 1 122 0
 230 0100 8BF80050 		strb	r5, [fp]
 123:..\..\..\u8g2\u8g2\csrc/u8g2_input_value.c **** 	return 1;
 231              		.loc 1 123 0
 232 0104 4FF00108 		mov	r8, #1
 233 0108 18E0     		b	.L7
 234              	.L6:
 124:..\..\..\u8g2\u8g2\csrc/u8g2_input_value.c ****       }
 125:..\..\..\u8g2\u8g2\csrc/u8g2_input_value.c ****       else if ( event == U8X8_MSG_GPIO_MENU_HOME )
 235              		.loc 1 125 0
 236 010a 5328     		cmp	r0, #83
 237 010c 16D0     		beq	.L7
 126:..\..\..\u8g2\u8g2\csrc/u8g2_input_value.c ****       {
 127:..\..\..\u8g2\u8g2\csrc/u8g2_input_value.c **** 	return 0;
 128:..\..\..\u8g2\u8g2\csrc/u8g2_input_value.c ****       }
 129:..\..\..\u8g2\u8g2\csrc/u8g2_input_value.c ****       else if ( event == U8X8_MSG_GPIO_MENU_NEXT || event == U8X8_MSG_GPIO_MENU_UP )
 238              		.loc 1 129 0
 239 010e 5128     		cmp	r0, #81
 240 0110 01D0     		beq	.L8
 241              		.loc 1 129 0 is_stmt 0 discriminator 1
 242 0112 5428     		cmp	r0, #84
 243 0114 06D1     		bne	.L9
 244              	.L8:
 130:..\..\..\u8g2\u8g2\csrc/u8g2_input_value.c ****       {
 131:..\..\..\u8g2\u8g2\csrc/u8g2_input_value.c **** 	if ( local_value >= hi )
 245              		.loc 1 131 0 is_stmt 1
 246 0116 069B     		ldr	r3, [sp, #24]
 247 0118 9D42     		cmp	r5, r3
 248 011a 01D3     		bcc	.L30
 249 011c 059D     		ldr	r5, [sp, #20]
 250              	.LVL40:
 251 011e B9E7     		b	.L4
 252              	.LVL41:
 253              	.L30:
 132:..\..\..\u8g2\u8g2\csrc/u8g2_input_value.c **** 	  local_value = lo;
ARM GAS  C:\Users\jesse\AppData\Local\Temp\ccEcUOdP.s 			page 8


 133:..\..\..\u8g2\u8g2\csrc/u8g2_input_value.c **** 	else
 134:..\..\..\u8g2\u8g2\csrc/u8g2_input_value.c **** 	  local_value++;
 254              		.loc 1 134 0
 255 0120 0135     		adds	r5, r5, #1
 256              	.LVL42:
 257 0122 09E0     		b	.L28
 258              	.LVL43:
 259              	.L9:
 135:..\..\..\u8g2\u8g2\csrc/u8g2_input_value.c **** 	break;
 136:..\..\..\u8g2\u8g2\csrc/u8g2_input_value.c ****       }
 137:..\..\..\u8g2\u8g2\csrc/u8g2_input_value.c ****       else if ( event == U8X8_MSG_GPIO_MENU_PREV || event == U8X8_MSG_GPIO_MENU_DOWN )
 260              		.loc 1 137 0
 261 0124 5228     		cmp	r0, #82
 262 0126 01D0     		beq	.L11
 263              		.loc 1 137 0 is_stmt 0 discriminator 1
 264 0128 5528     		cmp	r0, #85
 265 012a E4D1     		bne	.L12
 266              	.L11:
 138:..\..\..\u8g2\u8g2\csrc/u8g2_input_value.c ****       {
 139:..\..\..\u8g2\u8g2\csrc/u8g2_input_value.c **** 	if ( local_value <= lo )
 267              		.loc 1 139 0 is_stmt 1
 268 012c 059B     		ldr	r3, [sp, #20]
 269 012e 9D42     		cmp	r5, r3
 270 0130 01D8     		bhi	.L31
 271 0132 069D     		ldr	r5, [sp, #24]
 272              	.LVL44:
 273 0134 AEE7     		b	.L4
 274              	.LVL45:
 275              	.L31:
 140:..\..\..\u8g2\u8g2\csrc/u8g2_input_value.c **** 	  local_value = hi;
 141:..\..\..\u8g2\u8g2\csrc/u8g2_input_value.c **** 	else
 142:..\..\..\u8g2\u8g2\csrc/u8g2_input_value.c **** 	  local_value--;
 276              		.loc 1 142 0
 277 0136 013D     		subs	r5, r5, #1
 278              	.LVL46:
 279              	.L28:
 280 0138 EDB2     		uxtb	r5, r5
 281              	.LVL47:
 282 013a ABE7     		b	.L4
 283              	.L7:
 143:..\..\..\u8g2\u8g2\csrc/u8g2_input_value.c **** 	break;
 144:..\..\..\u8g2\u8g2\csrc/u8g2_input_value.c ****       }        
 145:..\..\..\u8g2\u8g2\csrc/u8g2_input_value.c ****     }
 146:..\..\..\u8g2\u8g2\csrc/u8g2_input_value.c ****   }
 147:..\..\..\u8g2\u8g2\csrc/u8g2_input_value.c ****   
 148:..\..\..\u8g2\u8g2\csrc/u8g2_input_value.c ****   /* never reached */
 149:..\..\..\u8g2\u8g2\csrc/u8g2_input_value.c ****   //return r;  
 150:..\..\..\u8g2\u8g2\csrc/u8g2_input_value.c **** }
 284              		.loc 1 150 0
 285 013c 4046     		mov	r0, r8
 286              	.LVL48:
 287 013e 09B0     		add	sp, sp, #36
 288              		.cfi_def_cfa_offset 36
 289              		@ sp needed
 290 0140 BDE8F08F 		pop	{r4, r5, r6, r7, r8, r9, r10, fp, pc}
 291              	.LVL49:
 292              	.L33:
ARM GAS  C:\Users\jesse\AppData\Local\Temp\ccEcUOdP.s 			page 9


 293              		.align	2
 294              	.L32:
 295 0144 00000000 		.word	.LC0
 296              		.cfi_endproc
 297              	.LFE0:
 298              		.size	u8g2_UserInterfaceInputValue, .-u8g2_UserInterfaceInputValue
 299              		.section	.rodata.str1.1,"aMS",%progbits,1
 300              	.LC0:
 301 0000 3000     		.ascii	"0\000"
 302              		.text
 303              	.Letext0:
 304              		.file 2 "c:\\program files (x86)\\cypress\\psoc creator\\4.4\\psoc creator\\import\\gnu\\arm\\5.4.
 305              		.file 3 "c:\\program files (x86)\\cypress\\psoc creator\\4.4\\psoc creator\\import\\gnu\\arm\\5.4.
 306              		.file 4 "..\\..\\..\\u8g2\\u8g2\\csrc\\u8x8.h"
 307              		.file 5 "..\\..\\..\\u8g2\\u8g2\\csrc\\u8g2.h"