ARM GAS  C:\Users\jesse\AppData\Local\Temp\cc7KJxMD.s 			page 1


   1              		.syntax unified
   2              		.cpu cortex-m3
   3              		.fpu softvfp
   4              		.eabi_attribute 20, 1
   5              		.eabi_attribute 21, 1
   6              		.eabi_attribute 23, 3
   7              		.eabi_attribute 24, 1
   8              		.eabi_attribute 25, 1
   9              		.eabi_attribute 26, 1
  10              		.eabi_attribute 30, 4
  11              		.eabi_attribute 34, 1
  12              		.eabi_attribute 18, 4
  13              		.thumb
  14              		.syntax unified
  15              		.file	"u8log_u8g2.c"
  16              		.text
  17              	.Ltext0:
  18              		.cfi_sections	.debug_frame
  19              		.section	.text.u8g2_DrawLog,"ax",%progbits
  20              		.align	1
  21              		.global	u8g2_DrawLog
  22              		.thumb
  23              		.thumb_func
  24              		.type	u8g2_DrawLog, %function
  25              	u8g2_DrawLog:
  26              	.LFB0:
  27              		.file 1 "..\\..\\..\\u8g2\\u8g2\\csrc\\u8log_u8g2.c"
   1:..\..\..\u8g2\u8g2\csrc/u8log_u8g2.c **** /*
   2:..\..\..\u8g2\u8g2\csrc/u8log_u8g2.c **** 
   3:..\..\..\u8g2\u8g2\csrc/u8log_u8g2.c ****   u8log_u8g2.c
   4:..\..\..\u8g2\u8g2\csrc/u8log_u8g2.c ****   
   5:..\..\..\u8g2\u8g2\csrc/u8log_u8g2.c **** 
   6:..\..\..\u8g2\u8g2\csrc/u8log_u8g2.c ****   Universal 8bit Graphics Library (https://github.com/olikraus/u8g2/)
   7:..\..\..\u8g2\u8g2\csrc/u8log_u8g2.c **** 
   8:..\..\..\u8g2\u8g2\csrc/u8log_u8g2.c ****   Copyright (c) 2018, olikraus@gmail.com
   9:..\..\..\u8g2\u8g2\csrc/u8log_u8g2.c ****   All rights reserved.
  10:..\..\..\u8g2\u8g2\csrc/u8log_u8g2.c **** 
  11:..\..\..\u8g2\u8g2\csrc/u8log_u8g2.c ****   Redistribution and use in source and binary forms, with or without modification, 
  12:..\..\..\u8g2\u8g2\csrc/u8log_u8g2.c ****   are permitted provided that the following conditions are met:
  13:..\..\..\u8g2\u8g2\csrc/u8log_u8g2.c **** 
  14:..\..\..\u8g2\u8g2\csrc/u8log_u8g2.c ****   * Redistributions of source code must retain the above copyright notice, this list 
  15:..\..\..\u8g2\u8g2\csrc/u8log_u8g2.c ****     of conditions and the following disclaimer.
  16:..\..\..\u8g2\u8g2\csrc/u8log_u8g2.c ****     
  17:..\..\..\u8g2\u8g2\csrc/u8log_u8g2.c ****   * Redistributions in binary form must reproduce the above copyright notice, this 
  18:..\..\..\u8g2\u8g2\csrc/u8log_u8g2.c ****     list of conditions and the following disclaimer in the documentation and/or other 
  19:..\..\..\u8g2\u8g2\csrc/u8log_u8g2.c ****     materials provided with the distribution.
  20:..\..\..\u8g2\u8g2\csrc/u8log_u8g2.c **** 
  21:..\..\..\u8g2\u8g2\csrc/u8log_u8g2.c ****   THIS SOFTWARE IS PROVIDED BY THE COPYRIGHT HOLDERS AND 
  22:..\..\..\u8g2\u8g2\csrc/u8log_u8g2.c ****   CONTRIBUTORS "AS IS" AND ANY EXPRESS OR IMPLIED WARRANTIES, 
  23:..\..\..\u8g2\u8g2\csrc/u8log_u8g2.c ****   INCLUDING, BUT NOT LIMITED TO, THE IMPLIED WARRANTIES OF 
  24:..\..\..\u8g2\u8g2\csrc/u8log_u8g2.c ****   MERCHANTABILITY AND FITNESS FOR A PARTICULAR PURPOSE ARE 
  25:..\..\..\u8g2\u8g2\csrc/u8log_u8g2.c ****   DISCLAIMED. IN NO EVENT SHALL THE COPYRIGHT HOLDER OR 
  26:..\..\..\u8g2\u8g2\csrc/u8log_u8g2.c ****   CONTRIBUTORS BE LIABLE FOR ANY DIRECT, INDIRECT, INCIDENTAL, 
  27:..\..\..\u8g2\u8g2\csrc/u8log_u8g2.c ****   SPECIAL, EXEMPLARY, OR CONSEQUENTIAL DAMAGES (INCLUDING, BUT 
  28:..\..\..\u8g2\u8g2\csrc/u8log_u8g2.c ****   NOT LIMITED TO, PROCUREMENT OF SUBSTITUTE GOODS OR SERVICES; 
  29:..\..\..\u8g2\u8g2\csrc/u8log_u8g2.c ****   LOSS OF USE, DATA, OR PROFITS; OR BUSINESS INTERRUPTION) HOWEVER 
  30:..\..\..\u8g2\u8g2\csrc/u8log_u8g2.c ****   CAUSED AND ON ANY THEORY OF LIABILITY, WHETHER IN CONTRACT, 
ARM GAS  C:\Users\jesse\AppData\Local\Temp\cc7KJxMD.s 			page 2


  31:..\..\..\u8g2\u8g2\csrc/u8log_u8g2.c ****   STRICT LIABILITY, OR TORT (INCLUDING NEGLIGENCE OR OTHERWISE) 
  32:..\..\..\u8g2\u8g2\csrc/u8log_u8g2.c ****   ARISING IN ANY WAY OUT OF THE USE OF THIS SOFTWARE, EVEN IF 
  33:..\..\..\u8g2\u8g2\csrc/u8log_u8g2.c ****   ADVISED OF THE POSSIBILITY OF SUCH DAMAGE.  
  34:..\..\..\u8g2\u8g2\csrc/u8log_u8g2.c **** 
  35:..\..\..\u8g2\u8g2\csrc/u8log_u8g2.c **** */
  36:..\..\..\u8g2\u8g2\csrc/u8log_u8g2.c **** 
  37:..\..\..\u8g2\u8g2\csrc/u8log_u8g2.c **** #include "u8g2.h"
  38:..\..\..\u8g2\u8g2\csrc/u8log_u8g2.c **** /*
  39:..\..\..\u8g2\u8g2\csrc/u8log_u8g2.c ****   Draw the u8log text at the specified x/y position.
  40:..\..\..\u8g2\u8g2\csrc/u8log_u8g2.c ****   x/y position is the reference position of the first char of the first line.
  41:..\..\..\u8g2\u8g2\csrc/u8log_u8g2.c ****   the line height is 
  42:..\..\..\u8g2\u8g2\csrc/u8log_u8g2.c ****     u8g2_GetAscent(u8g2) - u8g2_GetDescent(u8g2) + line_height_offset;
  43:..\..\..\u8g2\u8g2\csrc/u8log_u8g2.c ****   line_height_offset can be set with u8log_SetLineHeightOffset()
  44:..\..\..\u8g2\u8g2\csrc/u8log_u8g2.c ****   Use
  45:..\..\..\u8g2\u8g2\csrc/u8log_u8g2.c ****     u8g2_SetFontRefHeightText(u8g2_t *u8g2);
  46:..\..\..\u8g2\u8g2\csrc/u8log_u8g2.c ****     u8g2_SetFontRefHeightExtendedText(u8g2_t *u8g2);
  47:..\..\..\u8g2\u8g2\csrc/u8log_u8g2.c ****     u8g2_SetFontRefHeightAll(u8g2_t *u8g2);
  48:..\..\..\u8g2\u8g2\csrc/u8log_u8g2.c ****   to change the return values for u8g2_GetAscent and u8g2_GetDescent
  49:..\..\..\u8g2\u8g2\csrc/u8log_u8g2.c **** 
  50:..\..\..\u8g2\u8g2\csrc/u8log_u8g2.c **** */
  51:..\..\..\u8g2\u8g2\csrc/u8log_u8g2.c **** void u8g2_DrawLog(u8g2_t *u8g2, u8g2_uint_t x, u8g2_uint_t y, u8log_t *u8log)
  52:..\..\..\u8g2\u8g2\csrc/u8log_u8g2.c **** {
  28              		.loc 1 52 0
  29              		.cfi_startproc
  30              		@ args = 0, pretend = 0, frame = 0
  31              		@ frame_needed = 0, uses_anonymous_args = 0
  32              	.LVL0:
  33 0000 2DE9F84F 		push	{r3, r4, r5, r6, r7, r8, r9, r10, fp, lr}
  34              		.cfi_def_cfa_offset 40
  35              		.cfi_offset 3, -40
  36              		.cfi_offset 4, -36
  37              		.cfi_offset 5, -32
  38              		.cfi_offset 6, -28
  39              		.cfi_offset 7, -24
  40              		.cfi_offset 8, -20
  41              		.cfi_offset 9, -16
  42              		.cfi_offset 10, -12
  43              		.cfi_offset 11, -8
  44              		.cfi_offset 14, -4
  45              		.loc 1 52 0
  46 0004 0F46     		mov	r7, r1
  53:..\..\..\u8g2\u8g2\csrc/u8log_u8g2.c ****   u8g2_uint_t disp_x, disp_y;
  54:..\..\..\u8g2\u8g2\csrc/u8log_u8g2.c ****   uint8_t buf_x, buf_y;
  55:..\..\..\u8g2\u8g2\csrc/u8log_u8g2.c ****   uint8_t c;
  56:..\..\..\u8g2\u8g2\csrc/u8log_u8g2.c ****   
  57:..\..\..\u8g2\u8g2\csrc/u8log_u8g2.c ****   disp_y = y;  
  58:..\..\..\u8g2\u8g2\csrc/u8log_u8g2.c ****   u8g2_SetFontDirection(u8g2, 0);
  47              		.loc 1 58 0
  48 0006 0021     		movs	r1, #0
  49              	.LVL1:
  52:..\..\..\u8g2\u8g2\csrc/u8log_u8g2.c ****   u8g2_uint_t disp_x, disp_y;
  50              		.loc 1 52 0
  51 0008 0646     		mov	r6, r0
  52 000a 9046     		mov	r8, r2
  53              	.LVL2:
  54 000c 1C46     		mov	r4, r3
  55              		.loc 1 58 0
ARM GAS  C:\Users\jesse\AppData\Local\Temp\cc7KJxMD.s 			page 3


  56 000e FFF7FEFF 		bl	u8g2_SetFontDirection
  57              	.LVL3:
  59:..\..\..\u8g2\u8g2\csrc/u8log_u8g2.c ****   for( buf_y = 0; buf_y < u8log->height; buf_y++ )
  58              		.loc 1 59 0
  59 0012 0025     		movs	r5, #0
  60              	.LVL4:
  61              	.L2:
  62              		.loc 1 59 0 is_stmt 0 discriminator 1
  63 0014 6379     		ldrb	r3, [r4, #5]	@ zero_extendqisi2
  64 0016 5FFA85FA 		uxtb	r10, r5
  65 001a 5345     		cmp	r3, r10
  66 001c 22D9     		bls	.L1
  67 001e B946     		mov	r9, r7
  68 0020 0023     		movs	r3, #0
  69              	.L5:
  70              	.LVL5:
  60:..\..\..\u8g2\u8g2\csrc/u8log_u8g2.c ****   {
  61:..\..\..\u8g2\u8g2\csrc/u8log_u8g2.c ****     disp_x = x;
  62:..\..\..\u8g2\u8g2\csrc/u8log_u8g2.c ****     for( buf_x = 0; buf_x < u8log->width; buf_x++ )
  71              		.loc 1 62 0 is_stmt 1 discriminator 1
  72 0022 2279     		ldrb	r2, [r4, #4]	@ zero_extendqisi2
  73 0024 03F1010B 		add	fp, r3, #1
  74 0028 DBB2     		uxtb	r3, r3
  75 002a 9342     		cmp	r3, r2
  76 002c 0DD2     		bcs	.L7
  63:..\..\..\u8g2\u8g2\csrc/u8log_u8g2.c ****     {
  64:..\..\..\u8g2\u8g2\csrc/u8log_u8g2.c ****       c = u8log->screen_buffer[buf_y * u8log->width + buf_x];
  77              		.loc 1 64 0 discriminator 3
  78 002e E168     		ldr	r1, [r4, #12]
  65:..\..\..\u8g2\u8g2\csrc/u8log_u8g2.c ****       disp_x += u8g2_DrawGlyph(u8g2, disp_x, disp_y, c);
  79              		.loc 1 65 0 discriminator 3
  80 0030 3046     		mov	r0, r6
  64:..\..\..\u8g2\u8g2\csrc/u8log_u8g2.c ****       disp_x += u8g2_DrawGlyph(u8g2, disp_x, disp_y, c);
  81              		.loc 1 64 0 discriminator 3
  82 0032 02FB0A12 		mla	r2, r2, r10, r1
  83              		.loc 1 65 0 discriminator 3
  84 0036 4946     		mov	r1, r9
  85 0038 D35C     		ldrb	r3, [r2, r3]	@ zero_extendqisi2
  86              	.LVL6:
  87 003a 4246     		mov	r2, r8
  88 003c FFF7FEFF 		bl	u8g2_DrawGlyph
  89              	.LVL7:
  90 0040 4844     		add	r0, r0, r9
  91 0042 1FFA80F9 		uxth	r9, r0
  92              	.LVL8:
  93 0046 5B46     		mov	r3, fp
  94 0048 EBE7     		b	.L5
  95              	.LVL9:
  96              	.L7:
  66:..\..\..\u8g2\u8g2\csrc/u8log_u8g2.c ****     }
  67:..\..\..\u8g2\u8g2\csrc/u8log_u8g2.c ****     disp_y += u8g2_GetAscent(u8g2) - u8g2_GetDescent(u8g2);
  68:..\..\..\u8g2\u8g2\csrc/u8log_u8g2.c ****     disp_y += u8log->line_height_offset;
  97              		.loc 1 68 0 discriminator 2
  98 004a 96F98E30 		ldrsb	r3, [r6, #142]
  99              	.LVL10:
 100 004e 96F98F20 		ldrsb	r2, [r6, #143]
 101 0052 0135     		adds	r5, r5, #1
ARM GAS  C:\Users\jesse\AppData\Local\Temp\cc7KJxMD.s 			page 4


 102              	.LVL11:
 103 0054 9A1A     		subs	r2, r3, r2
 104 0056 94F91130 		ldrsb	r3, [r4, #17]
 105 005a 1A44     		add	r2, r2, r3
 106 005c 4244     		add	r2, r2, r8
 107 005e 1FFA82F8 		uxth	r8, r2
 108              	.LVL12:
 109 0062 D7E7     		b	.L2
 110              	.LVL13:
 111              	.L1:
 112 0064 BDE8F88F 		pop	{r3, r4, r5, r6, r7, r8, r9, r10, fp, pc}
 113              		.cfi_endproc
 114              	.LFE0:
 115              		.size	u8g2_DrawLog, .-u8g2_DrawLog
 116              		.section	.text.u8log_u8g2_cb,"ax",%progbits
 117              		.align	1
 118              		.global	u8log_u8g2_cb
 119              		.thumb
 120              		.thumb_func
 121              		.type	u8log_u8g2_cb, %function
 122              	u8log_u8g2_cb:
 123              	.LFB1:
  69:..\..\..\u8g2\u8g2\csrc/u8log_u8g2.c ****   }
  70:..\..\..\u8g2\u8g2\csrc/u8log_u8g2.c **** }
  71:..\..\..\u8g2\u8g2\csrc/u8log_u8g2.c **** 
  72:..\..\..\u8g2\u8g2\csrc/u8log_u8g2.c **** /*
  73:..\..\..\u8g2\u8g2\csrc/u8log_u8g2.c ****   u8lib callback for u8g2
  74:..\..\..\u8g2\u8g2\csrc/u8log_u8g2.c ****   
  75:..\..\..\u8g2\u8g2\csrc/u8log_u8g2.c ****   Only font direction 0 is supported: u8g2_SetFontDirection(u8g2, 0)
  76:..\..\..\u8g2\u8g2\csrc/u8log_u8g2.c ****   Use
  77:..\..\..\u8g2\u8g2\csrc/u8log_u8g2.c ****     u8g2_SetFontRefHeightText(u8g2_t *u8g2);
  78:..\..\..\u8g2\u8g2\csrc/u8log_u8g2.c ****     u8g2_SetFontRefHeightExtendedText(u8g2_t *u8g2);
  79:..\..\..\u8g2\u8g2\csrc/u8log_u8g2.c ****     u8g2_SetFontRefHeightAll(u8g2_t *u8g2);
  80:..\..\..\u8g2\u8g2\csrc/u8log_u8g2.c ****   to change the top offset and the line height and
  81:..\..\..\u8g2\u8g2\csrc/u8log_u8g2.c ****     u8log_SetLineHeightOffset(u8log_t *u8log, int8_t line_height_offset)
  82:..\..\..\u8g2\u8g2\csrc/u8log_u8g2.c ****   to change the line height.
  83:..\..\..\u8g2\u8g2\csrc/u8log_u8g2.c ****   
  84:..\..\..\u8g2\u8g2\csrc/u8log_u8g2.c **** */
  85:..\..\..\u8g2\u8g2\csrc/u8log_u8g2.c **** void u8log_u8g2_cb(u8log_t * u8log)
  86:..\..\..\u8g2\u8g2\csrc/u8log_u8g2.c **** {
 124              		.loc 1 86 0
 125              		.cfi_startproc
 126              		@ args = 0, pretend = 0, frame = 0
 127              		@ frame_needed = 0, uses_anonymous_args = 0
 128              	.LVL14:
 129 0000 38B5     		push	{r3, r4, r5, lr}
 130              		.cfi_def_cfa_offset 16
 131              		.cfi_offset 3, -16
 132              		.cfi_offset 4, -12
 133              		.cfi_offset 5, -8
 134              		.cfi_offset 14, -4
  87:..\..\..\u8g2\u8g2\csrc/u8log_u8g2.c ****   u8g2_t *u8g2 = (u8g2_t *)(u8log->aux_data);
  88:..\..\..\u8g2\u8g2\csrc/u8log_u8g2.c ****   if ( u8log->is_redraw_line || u8log->is_redraw_all )
 135              		.loc 1 88 0
 136 0002 4369     		ldr	r3, [r0, #20]
  86:..\..\..\u8g2\u8g2\csrc/u8log_u8g2.c ****   u8g2_t *u8g2 = (u8g2_t *)(u8log->aux_data);
 137              		.loc 1 86 0
ARM GAS  C:\Users\jesse\AppData\Local\Temp\cc7KJxMD.s 			page 5


 138 0004 0546     		mov	r5, r0
 139              		.loc 1 88 0
 140 0006 23F07F43 		bic	r3, r3, #-16777216
 141 000a 23F0FF03 		bic	r3, r3, #255
 142 000e 83B1     		cbz	r3, .L8
  87:..\..\..\u8g2\u8g2\csrc/u8log_u8g2.c ****   u8g2_t *u8g2 = (u8g2_t *)(u8log->aux_data);
 143              		.loc 1 87 0
 144 0010 0468     		ldr	r4, [r0]
  89:..\..\..\u8g2\u8g2\csrc/u8log_u8g2.c ****   {
  90:..\..\..\u8g2\u8g2\csrc/u8log_u8g2.c ****     u8g2_FirstPage(u8g2);
 145              		.loc 1 90 0
 146 0012 2046     		mov	r0, r4
 147              	.LVL15:
 148 0014 FFF7FEFF 		bl	u8g2_FirstPage
 149              	.LVL16:
 150              	.L10:
  91:..\..\..\u8g2\u8g2\csrc/u8log_u8g2.c ****     do
  92:..\..\..\u8g2\u8g2\csrc/u8log_u8g2.c ****     {
  93:..\..\..\u8g2\u8g2\csrc/u8log_u8g2.c ****       u8g2_DrawLog( u8g2, 0, u8g2_GetAscent(u8g2), u8log);
 151              		.loc 1 93 0 discriminator 1
 152 0018 94F98E20 		ldrsb	r2, [r4, #142]
 153 001c 2046     		mov	r0, r4
 154 001e 2B46     		mov	r3, r5
 155 0020 92B2     		uxth	r2, r2
 156 0022 0021     		movs	r1, #0
 157 0024 FFF7FEFF 		bl	u8g2_DrawLog
 158              	.LVL17:
  94:..\..\..\u8g2\u8g2\csrc/u8log_u8g2.c ****     }
  95:..\..\..\u8g2\u8g2\csrc/u8log_u8g2.c ****     while( u8g2_NextPage(u8g2) );
 159              		.loc 1 95 0 discriminator 1
 160 0028 2046     		mov	r0, r4
 161 002a FFF7FEFF 		bl	u8g2_NextPage
 162              	.LVL18:
 163 002e 0028     		cmp	r0, #0
 164 0030 F2D1     		bne	.L10
 165              	.L8:
 166 0032 38BD     		pop	{r3, r4, r5, pc}
 167              		.cfi_endproc
 168              	.LFE1:
 169              		.size	u8log_u8g2_cb, .-u8log_u8g2_cb
 170              		.text
 171              	.Letext0:
 172              		.file 2 "c:\\program files (x86)\\cypress\\psoc creator\\4.4\\psoc creator\\import\\gnu\\arm\\5.4.
 173              		.file 3 "c:\\program files (x86)\\cypress\\psoc creator\\4.4\\psoc creator\\import\\gnu\\arm\\5.4.
 174              		.file 4 "..\\..\\..\\u8g2\\u8g2\\csrc\\u8x8.h"
 175              		.file 5 "..\\..\\..\\u8g2\\u8g2\\csrc\\u8g2.h"