ARM GAS  C:\Users\jesse\AppData\Local\Temp\ccFhZnbe.s 			page 1


   1              		.syntax unified
   2              		.cpu cortex-m3
   3              		.fpu softvfp
   4              		.eabi_attribute 20, 1
   5              		.eabi_attribute 21, 1
   6              		.eabi_attribute 23, 3
   7              		.eabi_attribute 24, 1
   8              		.eabi_attribute 25, 1
   9              		.eabi_attribute 26, 1
  10              		.eabi_attribute 30, 4
  11              		.eabi_attribute 34, 1
  12              		.eabi_attribute 18, 4
  13              		.thumb
  14              		.syntax unified
  15              		.file	"u8x8_selection_list.c"
  16              		.text
  17              	.Ltext0:
  18              		.cfi_sections	.debug_frame
  19              		.section	.text.u8x8_sl_string_line_cb,"ax",%progbits
  20              		.align	1
  21              		.global	u8x8_sl_string_line_cb
  22              		.thumb
  23              		.thumb_func
  24              		.type	u8x8_sl_string_line_cb, %function
  25              	u8x8_sl_string_line_cb:
  26              	.LFB3:
  27              		.file 1 "..\\..\\..\\u8g2\\u8g2\\csrc\\u8x8_selection_list.c"
   1:..\..\..\u8g2\u8g2\csrc/u8x8_selection_list.c **** /*
   2:..\..\..\u8g2\u8g2\csrc/u8x8_selection_list.c **** 
   3:..\..\..\u8g2\u8g2\csrc/u8x8_selection_list.c ****   u8x8_selection_list.c
   4:..\..\..\u8g2\u8g2\csrc/u8x8_selection_list.c ****   
   5:..\..\..\u8g2\u8g2\csrc/u8x8_selection_list.c ****   selection list with scroll option
   6:..\..\..\u8g2\u8g2\csrc/u8x8_selection_list.c ****   
   7:..\..\..\u8g2\u8g2\csrc/u8x8_selection_list.c ****   Universal 8bit Graphics Library (https://github.com/olikraus/u8g2/)
   8:..\..\..\u8g2\u8g2\csrc/u8x8_selection_list.c **** 
   9:..\..\..\u8g2\u8g2\csrc/u8x8_selection_list.c ****   Copyright (c) 2016, olikraus@gmail.com
  10:..\..\..\u8g2\u8g2\csrc/u8x8_selection_list.c ****   All rights reserved.
  11:..\..\..\u8g2\u8g2\csrc/u8x8_selection_list.c **** 
  12:..\..\..\u8g2\u8g2\csrc/u8x8_selection_list.c ****   Redistribution and use in source and binary forms, with or without modification, 
  13:..\..\..\u8g2\u8g2\csrc/u8x8_selection_list.c ****   are permitted provided that the following conditions are met:
  14:..\..\..\u8g2\u8g2\csrc/u8x8_selection_list.c **** 
  15:..\..\..\u8g2\u8g2\csrc/u8x8_selection_list.c ****   * Redistributions of source code must retain the above copyright notice, this list 
  16:..\..\..\u8g2\u8g2\csrc/u8x8_selection_list.c ****     of conditions and the following disclaimer.
  17:..\..\..\u8g2\u8g2\csrc/u8x8_selection_list.c ****     
  18:..\..\..\u8g2\u8g2\csrc/u8x8_selection_list.c ****   * Redistributions in binary form must reproduce the above copyright notice, this 
  19:..\..\..\u8g2\u8g2\csrc/u8x8_selection_list.c ****     list of conditions and the following disclaimer in the documentation and/or other 
  20:..\..\..\u8g2\u8g2\csrc/u8x8_selection_list.c ****     materials provided with the distribution.
  21:..\..\..\u8g2\u8g2\csrc/u8x8_selection_list.c **** 
  22:..\..\..\u8g2\u8g2\csrc/u8x8_selection_list.c ****   THIS SOFTWARE IS PROVIDED BY THE COPYRIGHT HOLDERS AND 
  23:..\..\..\u8g2\u8g2\csrc/u8x8_selection_list.c ****   CONTRIBUTORS "AS IS" AND ANY EXPRESS OR IMPLIED WARRANTIES, 
  24:..\..\..\u8g2\u8g2\csrc/u8x8_selection_list.c ****   INCLUDING, BUT NOT LIMITED TO, THE IMPLIED WARRANTIES OF 
  25:..\..\..\u8g2\u8g2\csrc/u8x8_selection_list.c ****   MERCHANTABILITY AND FITNESS FOR A PARTICULAR PURPOSE ARE 
  26:..\..\..\u8g2\u8g2\csrc/u8x8_selection_list.c ****   DISCLAIMED. IN NO EVENT SHALL THE COPYRIGHT HOLDER OR 
  27:..\..\..\u8g2\u8g2\csrc/u8x8_selection_list.c ****   CONTRIBUTORS BE LIABLE FOR ANY DIRECT, INDIRECT, INCIDENTAL, 
  28:..\..\..\u8g2\u8g2\csrc/u8x8_selection_list.c ****   SPECIAL, EXEMPLARY, OR CONSEQUENTIAL DAMAGES (INCLUDING, BUT 
  29:..\..\..\u8g2\u8g2\csrc/u8x8_selection_list.c ****   NOT LIMITED TO, PROCUREMENT OF SUBSTITUTE GOODS OR SERVICES; 
  30:..\..\..\u8g2\u8g2\csrc/u8x8_selection_list.c ****   LOSS OF USE, DATA, OR PROFITS; OR BUSINESS INTERRUPTION) HOWEVER 
ARM GAS  C:\Users\jesse\AppData\Local\Temp\ccFhZnbe.s 			page 2


  31:..\..\..\u8g2\u8g2\csrc/u8x8_selection_list.c ****   CAUSED AND ON ANY THEORY OF LIABILITY, WHETHER IN CONTRACT, 
  32:..\..\..\u8g2\u8g2\csrc/u8x8_selection_list.c ****   STRICT LIABILITY, OR TORT (INCLUDING NEGLIGENCE OR OTHERWISE) 
  33:..\..\..\u8g2\u8g2\csrc/u8x8_selection_list.c ****   ARISING IN ANY WAY OUT OF THE USE OF THIS SOFTWARE, EVEN IF 
  34:..\..\..\u8g2\u8g2\csrc/u8x8_selection_list.c ****   ADVISED OF THE POSSIBILITY OF SUCH DAMAGE.  
  35:..\..\..\u8g2\u8g2\csrc/u8x8_selection_list.c ****   
  36:..\..\..\u8g2\u8g2\csrc/u8x8_selection_list.c **** */
  37:..\..\..\u8g2\u8g2\csrc/u8x8_selection_list.c **** 
  38:..\..\..\u8g2\u8g2\csrc/u8x8_selection_list.c **** #include "u8x8.h"
  39:..\..\..\u8g2\u8g2\csrc/u8x8_selection_list.c **** 
  40:..\..\..\u8g2\u8g2\csrc/u8x8_selection_list.c **** /*
  41:..\..\..\u8g2\u8g2\csrc/u8x8_selection_list.c ****   increase the cursor position
  42:..\..\..\u8g2\u8g2\csrc/u8x8_selection_list.c **** */
  43:..\..\..\u8g2\u8g2\csrc/u8x8_selection_list.c **** void u8sl_Next(u8sl_t *u8sl)
  44:..\..\..\u8g2\u8g2\csrc/u8x8_selection_list.c **** {
  45:..\..\..\u8g2\u8g2\csrc/u8x8_selection_list.c ****   u8sl->current_pos++;
  46:..\..\..\u8g2\u8g2\csrc/u8x8_selection_list.c ****   if ( u8sl->current_pos >= u8sl->total )
  47:..\..\..\u8g2\u8g2\csrc/u8x8_selection_list.c ****   {
  48:..\..\..\u8g2\u8g2\csrc/u8x8_selection_list.c ****     u8sl->current_pos = 0;
  49:..\..\..\u8g2\u8g2\csrc/u8x8_selection_list.c ****     u8sl->first_pos = 0;
  50:..\..\..\u8g2\u8g2\csrc/u8x8_selection_list.c ****   }
  51:..\..\..\u8g2\u8g2\csrc/u8x8_selection_list.c ****   else
  52:..\..\..\u8g2\u8g2\csrc/u8x8_selection_list.c ****   {
  53:..\..\..\u8g2\u8g2\csrc/u8x8_selection_list.c ****     if ( u8sl->first_pos + u8sl->visible <= u8sl->current_pos + 1 )
  54:..\..\..\u8g2\u8g2\csrc/u8x8_selection_list.c ****     {
  55:..\..\..\u8g2\u8g2\csrc/u8x8_selection_list.c ****       u8sl->first_pos = u8sl->current_pos - u8sl->visible + 1;
  56:..\..\..\u8g2\u8g2\csrc/u8x8_selection_list.c ****     }
  57:..\..\..\u8g2\u8g2\csrc/u8x8_selection_list.c ****   }
  58:..\..\..\u8g2\u8g2\csrc/u8x8_selection_list.c **** }
  59:..\..\..\u8g2\u8g2\csrc/u8x8_selection_list.c **** 
  60:..\..\..\u8g2\u8g2\csrc/u8x8_selection_list.c **** void u8sl_Prev(u8sl_t *u8sl)
  61:..\..\..\u8g2\u8g2\csrc/u8x8_selection_list.c **** {
  62:..\..\..\u8g2\u8g2\csrc/u8x8_selection_list.c ****   if ( u8sl->current_pos == 0 )
  63:..\..\..\u8g2\u8g2\csrc/u8x8_selection_list.c ****   {
  64:..\..\..\u8g2\u8g2\csrc/u8x8_selection_list.c ****     u8sl->current_pos = u8sl->total - 1;
  65:..\..\..\u8g2\u8g2\csrc/u8x8_selection_list.c ****     u8sl->first_pos = 0;
  66:..\..\..\u8g2\u8g2\csrc/u8x8_selection_list.c ****     if ( u8sl->total > u8sl->visible )
  67:..\..\..\u8g2\u8g2\csrc/u8x8_selection_list.c ****       u8sl->first_pos = u8sl->total - u8sl->visible;
  68:..\..\..\u8g2\u8g2\csrc/u8x8_selection_list.c ****   }
  69:..\..\..\u8g2\u8g2\csrc/u8x8_selection_list.c ****   else
  70:..\..\..\u8g2\u8g2\csrc/u8x8_selection_list.c ****   {
  71:..\..\..\u8g2\u8g2\csrc/u8x8_selection_list.c ****     u8sl->current_pos--;
  72:..\..\..\u8g2\u8g2\csrc/u8x8_selection_list.c ****     if ( u8sl->first_pos > u8sl->current_pos )
  73:..\..\..\u8g2\u8g2\csrc/u8x8_selection_list.c ****       u8sl->first_pos = u8sl->current_pos;
  74:..\..\..\u8g2\u8g2\csrc/u8x8_selection_list.c ****   }
  75:..\..\..\u8g2\u8g2\csrc/u8x8_selection_list.c **** }
  76:..\..\..\u8g2\u8g2\csrc/u8x8_selection_list.c **** 
  77:..\..\..\u8g2\u8g2\csrc/u8x8_selection_list.c **** void u8x8_DrawSelectionList(u8x8_t *u8x8, u8sl_t *u8sl, u8x8_sl_cb sl_cb, const void *aux)
  78:..\..\..\u8g2\u8g2\csrc/u8x8_selection_list.c **** {
  79:..\..\..\u8g2\u8g2\csrc/u8x8_selection_list.c ****   uint8_t i;
  80:..\..\..\u8g2\u8g2\csrc/u8x8_selection_list.c ****   for( i = 0; i < u8sl->visible; i++ )
  81:..\..\..\u8g2\u8g2\csrc/u8x8_selection_list.c ****   {
  82:..\..\..\u8g2\u8g2\csrc/u8x8_selection_list.c ****     sl_cb(u8x8, u8sl, i+u8sl->first_pos, aux);
  83:..\..\..\u8g2\u8g2\csrc/u8x8_selection_list.c ****   }
  84:..\..\..\u8g2\u8g2\csrc/u8x8_selection_list.c **** }
  85:..\..\..\u8g2\u8g2\csrc/u8x8_selection_list.c **** 
  86:..\..\..\u8g2\u8g2\csrc/u8x8_selection_list.c **** /* selection list with string line */
  87:..\..\..\u8g2\u8g2\csrc/u8x8_selection_list.c **** void u8x8_sl_string_line_cb(u8x8_t *u8x8, u8sl_t *u8sl, uint8_t idx, const void *aux)
ARM GAS  C:\Users\jesse\AppData\Local\Temp\ccFhZnbe.s 			page 3


  88:..\..\..\u8g2\u8g2\csrc/u8x8_selection_list.c **** {
  28              		.loc 1 88 0
  29              		.cfi_startproc
  30              		@ args = 0, pretend = 0, frame = 0
  31              		@ frame_needed = 0, uses_anonymous_args = 0
  32              	.LVL0:
  33 0000 73B5     		push	{r0, r1, r4, r5, r6, lr}
  34              		.cfi_def_cfa_offset 24
  35              		.cfi_offset 4, -16
  36              		.cfi_offset 5, -12
  37              		.cfi_offset 6, -8
  38              		.cfi_offset 14, -4
  39              		.loc 1 88 0
  40 0002 0546     		mov	r5, r0
  41 0004 1046     		mov	r0, r2
  42              	.LVL1:
  43 0006 4C79     		ldrb	r4, [r1, #5]	@ zero_extendqisi2
  44 0008 8A78     		ldrb	r2, [r1, #2]	@ zero_extendqisi2
  45              	.LVL2:
  46 000a 0E46     		mov	r6, r1
  47 000c A41A     		subs	r4, r4, r2
  89:..\..\..\u8g2\u8g2\csrc/u8x8_selection_list.c ****   const char *s;
  90:..\..\..\u8g2\u8g2\csrc/u8x8_selection_list.c ****   uint8_t row;
  91:..\..\..\u8g2\u8g2\csrc/u8x8_selection_list.c ****   /* calculate offset from display upper border */
  92:..\..\..\u8g2\u8g2\csrc/u8x8_selection_list.c ****   row = u8sl->y;
  93:..\..\..\u8g2\u8g2\csrc/u8x8_selection_list.c ****   
  94:..\..\..\u8g2\u8g2\csrc/u8x8_selection_list.c ****   /* calculate target pos */
  95:..\..\..\u8g2\u8g2\csrc/u8x8_selection_list.c ****   row += idx;
  96:..\..\..\u8g2\u8g2\csrc/u8x8_selection_list.c ****   row -= u8sl->first_pos;
  97:..\..\..\u8g2\u8g2\csrc/u8x8_selection_list.c ****   
  98:..\..\..\u8g2\u8g2\csrc/u8x8_selection_list.c ****   /* check whether this is the current cursor line */
  99:..\..\..\u8g2\u8g2\csrc/u8x8_selection_list.c ****   if ( idx == u8sl->current_pos )
  48              		.loc 1 99 0
  49 000e CA78     		ldrb	r2, [r1, #3]	@ zero_extendqisi2
 100:..\..\..\u8g2\u8g2\csrc/u8x8_selection_list.c ****     u8x8_SetInverseFont(u8x8, 1);
 101:..\..\..\u8g2\u8g2\csrc/u8x8_selection_list.c ****   else
 102:..\..\..\u8g2\u8g2\csrc/u8x8_selection_list.c ****     u8x8_SetInverseFont(u8x8, 0);
 103:..\..\..\u8g2\u8g2\csrc/u8x8_selection_list.c ****   
 104:..\..\..\u8g2\u8g2\csrc/u8x8_selection_list.c ****   /* get the line from the array */
 105:..\..\..\u8g2\u8g2\csrc/u8x8_selection_list.c ****   s = u8x8_GetStringLineStart(idx, (const char *)aux);
  50              		.loc 1 105 0
  51 0010 1946     		mov	r1, r3
  52              	.LVL3:
  99:..\..\..\u8g2\u8g2\csrc/u8x8_selection_list.c ****     u8x8_SetInverseFont(u8x8, 1);
  53              		.loc 1 99 0
  54 0012 8242     		cmp	r2, r0
 100:..\..\..\u8g2\u8g2\csrc/u8x8_selection_list.c ****     u8x8_SetInverseFont(u8x8, 1);
  55              		.loc 1 100 0
  56 0014 0CBF     		ite	eq
  57 0016 0122     		moveq	r2, #1
 102:..\..\..\u8g2\u8g2\csrc/u8x8_selection_list.c ****   
  58              		.loc 1 102 0
  59 0018 0022     		movne	r2, #0
  60 001a 85F82320 		strb	r2, [r5, #35]
  61              	.LVL4:
  96:..\..\..\u8g2\u8g2\csrc/u8x8_selection_list.c ****   
  62              		.loc 1 96 0
ARM GAS  C:\Users\jesse\AppData\Local\Temp\ccFhZnbe.s 			page 4


  63 001e 0444     		add	r4, r4, r0
  64              		.loc 1 105 0
  65 0020 FFF7FEFF 		bl	u8x8_GetStringLineStart
  66              	.LVL5:
 106:..\..\..\u8g2\u8g2\csrc/u8x8_selection_list.c ****   
 107:..\..\..\u8g2\u8g2\csrc/u8x8_selection_list.c ****   /* draw the line */
 108:..\..\..\u8g2\u8g2\csrc/u8x8_selection_list.c ****   if ( s == NULL )
 109:..\..\..\u8g2\u8g2\csrc/u8x8_selection_list.c ****     s = "";
  67              		.loc 1 109 0
  68 0024 094B     		ldr	r3, .L6
  96:..\..\..\u8g2\u8g2\csrc/u8x8_selection_list.c ****   
  69              		.loc 1 96 0
  70 0026 04F0FF04 		and	r4, r4, #255
  71              	.LVL6:
  72              		.loc 1 109 0
  73 002a 0028     		cmp	r0, #0
  74 002c 08BF     		it	eq
  75 002e 1846     		moveq	r0, r3
  76              	.LVL7:
 110:..\..\..\u8g2\u8g2\csrc/u8x8_selection_list.c ****   u8x8_DrawUTF8Line(u8x8, u8sl->x, row, u8x8_GetCols(u8x8), s);  
  77              		.loc 1 110 0
  78 0030 2B68     		ldr	r3, [r5]
  79 0032 3179     		ldrb	r1, [r6, #4]	@ zero_extendqisi2
  80 0034 1B7C     		ldrb	r3, [r3, #16]	@ zero_extendqisi2
  81 0036 2246     		mov	r2, r4
  82 0038 0090     		str	r0, [sp]
  83 003a 2846     		mov	r0, r5
  84              	.LVL8:
  85 003c FFF7FEFF 		bl	u8x8_DrawUTF8Line
  86              	.LVL9:
 111:..\..\..\u8g2\u8g2\csrc/u8x8_selection_list.c ****   u8x8_SetInverseFont(u8x8, 0);
  87              		.loc 1 111 0
  88 0040 0023     		movs	r3, #0
  89 0042 85F82330 		strb	r3, [r5, #35]
 112:..\..\..\u8g2\u8g2\csrc/u8x8_selection_list.c **** }
  90              		.loc 1 112 0
  91 0046 02B0     		add	sp, sp, #8
  92              		.cfi_def_cfa_offset 16
  93              		@ sp needed
  94 0048 70BD     		pop	{r4, r5, r6, pc}
  95              	.LVL10:
  96              	.L7:
  97 004a 00BF     		.align	2
  98              	.L6:
  99 004c 00000000 		.word	.LC0
 100              		.cfi_endproc
 101              	.LFE3:
 102              		.size	u8x8_sl_string_line_cb, .-u8x8_sl_string_line_cb
 103              		.section	.text.u8sl_Next,"ax",%progbits
 104              		.align	1
 105              		.global	u8sl_Next
 106              		.thumb
 107              		.thumb_func
 108              		.type	u8sl_Next, %function
 109              	u8sl_Next:
 110              	.LFB0:
  44:..\..\..\u8g2\u8g2\csrc/u8x8_selection_list.c ****   u8sl->current_pos++;
ARM GAS  C:\Users\jesse\AppData\Local\Temp\ccFhZnbe.s 			page 5


 111              		.loc 1 44 0
 112              		.cfi_startproc
 113              		@ args = 0, pretend = 0, frame = 0
 114              		@ frame_needed = 0, uses_anonymous_args = 0
 115              	.LVL11:
  45:..\..\..\u8g2\u8g2\csrc/u8x8_selection_list.c ****   if ( u8sl->current_pos >= u8sl->total )
 116              		.loc 1 45 0
 117 0000 C378     		ldrb	r3, [r0, #3]	@ zero_extendqisi2
  46:..\..\..\u8g2\u8g2\csrc/u8x8_selection_list.c ****   {
 118              		.loc 1 46 0
 119 0002 4278     		ldrb	r2, [r0, #1]	@ zero_extendqisi2
  45:..\..\..\u8g2\u8g2\csrc/u8x8_selection_list.c ****   if ( u8sl->current_pos >= u8sl->total )
 120              		.loc 1 45 0
 121 0004 0133     		adds	r3, r3, #1
 122 0006 DBB2     		uxtb	r3, r3
  46:..\..\..\u8g2\u8g2\csrc/u8x8_selection_list.c ****   {
 123              		.loc 1 46 0
 124 0008 9A42     		cmp	r2, r3
  44:..\..\..\u8g2\u8g2\csrc/u8x8_selection_list.c ****   u8sl->current_pos++;
 125              		.loc 1 44 0
 126 000a 10B5     		push	{r4, lr}
 127              		.cfi_def_cfa_offset 8
 128              		.cfi_offset 4, -8
 129              		.cfi_offset 14, -4
  45:..\..\..\u8g2\u8g2\csrc/u8x8_selection_list.c ****   if ( u8sl->current_pos >= u8sl->total )
 130              		.loc 1 45 0
 131 000c C370     		strb	r3, [r0, #3]
  46:..\..\..\u8g2\u8g2\csrc/u8x8_selection_list.c ****   {
 132              		.loc 1 46 0
 133 000e 02D8     		bhi	.L9
  48:..\..\..\u8g2\u8g2\csrc/u8x8_selection_list.c ****     u8sl->first_pos = 0;
 134              		.loc 1 48 0
 135 0010 0023     		movs	r3, #0
 136 0012 C370     		strb	r3, [r0, #3]
 137 0014 07E0     		b	.L11
 138              	.L9:
  53:..\..\..\u8g2\u8g2\csrc/u8x8_selection_list.c ****     {
 139              		.loc 1 53 0
 140 0016 0178     		ldrb	r1, [r0]	@ zero_extendqisi2
 141 0018 8278     		ldrb	r2, [r0, #2]	@ zero_extendqisi2
 142 001a 5C1C     		adds	r4, r3, #1
 143 001c 0A44     		add	r2, r2, r1
 144 001e A242     		cmp	r2, r4
 145 0020 02DC     		bgt	.L8
  55:..\..\..\u8g2\u8g2\csrc/u8x8_selection_list.c ****     }
 146              		.loc 1 55 0
 147 0022 5B1A     		subs	r3, r3, r1
 148 0024 0133     		adds	r3, r3, #1
 149              	.L11:
 150 0026 8370     		strb	r3, [r0, #2]
 151              	.L8:
 152 0028 10BD     		pop	{r4, pc}
 153              		.cfi_endproc
 154              	.LFE0:
 155              		.size	u8sl_Next, .-u8sl_Next
 156              		.section	.text.u8sl_Prev,"ax",%progbits
 157              		.align	1
ARM GAS  C:\Users\jesse\AppData\Local\Temp\ccFhZnbe.s 			page 6


 158              		.global	u8sl_Prev
 159              		.thumb
 160              		.thumb_func
 161              		.type	u8sl_Prev, %function
 162              	u8sl_Prev:
 163              	.LFB1:
  61:..\..\..\u8g2\u8g2\csrc/u8x8_selection_list.c ****   if ( u8sl->current_pos == 0 )
 164              		.loc 1 61 0
 165              		.cfi_startproc
 166              		@ args = 0, pretend = 0, frame = 0
 167              		@ frame_needed = 0, uses_anonymous_args = 0
 168              		@ link register save eliminated.
 169              	.LVL12:
  62:..\..\..\u8g2\u8g2\csrc/u8x8_selection_list.c ****   {
 170              		.loc 1 62 0
 171 0000 C378     		ldrb	r3, [r0, #3]	@ zero_extendqisi2
 172 0002 4BB9     		cbnz	r3, .L14
 173              	.LVL13:
 174              	.LBB4:
 175              	.LBB5:
  64:..\..\..\u8g2\u8g2\csrc/u8x8_selection_list.c ****     u8sl->first_pos = 0;
 176              		.loc 1 64 0
 177 0004 4278     		ldrb	r2, [r0, #1]	@ zero_extendqisi2
  65:..\..\..\u8g2\u8g2\csrc/u8x8_selection_list.c ****     if ( u8sl->total > u8sl->visible )
 178              		.loc 1 65 0
 179 0006 8370     		strb	r3, [r0, #2]
  66:..\..\..\u8g2\u8g2\csrc/u8x8_selection_list.c ****       u8sl->first_pos = u8sl->total - u8sl->visible;
 180              		.loc 1 66 0
 181 0008 0378     		ldrb	r3, [r0]	@ zero_extendqisi2
  64:..\..\..\u8g2\u8g2\csrc/u8x8_selection_list.c ****     u8sl->first_pos = 0;
 182              		.loc 1 64 0
 183 000a 511E     		subs	r1, r2, #1
  66:..\..\..\u8g2\u8g2\csrc/u8x8_selection_list.c ****       u8sl->first_pos = u8sl->total - u8sl->visible;
 184              		.loc 1 66 0
 185 000c 9A42     		cmp	r2, r3
  64:..\..\..\u8g2\u8g2\csrc/u8x8_selection_list.c ****     u8sl->first_pos = 0;
 186              		.loc 1 64 0
 187 000e C170     		strb	r1, [r0, #3]
  66:..\..\..\u8g2\u8g2\csrc/u8x8_selection_list.c ****       u8sl->first_pos = u8sl->total - u8sl->visible;
 188              		.loc 1 66 0
 189 0010 09D9     		bls	.L13
  67:..\..\..\u8g2\u8g2\csrc/u8x8_selection_list.c ****   }
 190              		.loc 1 67 0
 191 0012 D21A     		subs	r2, r2, r3
 192 0014 8270     		strb	r2, [r0, #2]
 193 0016 7047     		bx	lr
 194              	.LVL14:
 195              	.L14:
 196              	.LBE5:
 197              	.LBE4:
  72:..\..\..\u8g2\u8g2\csrc/u8x8_selection_list.c ****       u8sl->first_pos = u8sl->current_pos;
 198              		.loc 1 72 0
 199 0018 8278     		ldrb	r2, [r0, #2]	@ zero_extendqisi2
  71:..\..\..\u8g2\u8g2\csrc/u8x8_selection_list.c ****     if ( u8sl->first_pos > u8sl->current_pos )
 200              		.loc 1 71 0
 201 001a 013B     		subs	r3, r3, #1
 202 001c DBB2     		uxtb	r3, r3
ARM GAS  C:\Users\jesse\AppData\Local\Temp\ccFhZnbe.s 			page 7


  72:..\..\..\u8g2\u8g2\csrc/u8x8_selection_list.c ****       u8sl->first_pos = u8sl->current_pos;
 203              		.loc 1 72 0
 204 001e 9A42     		cmp	r2, r3
  71:..\..\..\u8g2\u8g2\csrc/u8x8_selection_list.c ****     if ( u8sl->first_pos > u8sl->current_pos )
 205              		.loc 1 71 0
 206 0020 C370     		strb	r3, [r0, #3]
  73:..\..\..\u8g2\u8g2\csrc/u8x8_selection_list.c ****   }
 207              		.loc 1 73 0
 208 0022 88BF     		it	hi
 209 0024 8370     		strbhi	r3, [r0, #2]
 210              	.L13:
 211 0026 7047     		bx	lr
 212              		.cfi_endproc
 213              	.LFE1:
 214              		.size	u8sl_Prev, .-u8sl_Prev
 215              		.section	.text.u8x8_DrawSelectionList,"ax",%progbits
 216              		.align	1
 217              		.global	u8x8_DrawSelectionList
 218              		.thumb
 219              		.thumb_func
 220              		.type	u8x8_DrawSelectionList, %function
 221              	u8x8_DrawSelectionList:
 222              	.LFB2:
  78:..\..\..\u8g2\u8g2\csrc/u8x8_selection_list.c ****   uint8_t i;
 223              		.loc 1 78 0
 224              		.cfi_startproc
 225              		@ args = 0, pretend = 0, frame = 0
 226              		@ frame_needed = 0, uses_anonymous_args = 0
 227              	.LVL15:
 228 0000 2DE9F041 		push	{r4, r5, r6, r7, r8, lr}
 229              		.cfi_def_cfa_offset 24
 230              		.cfi_offset 4, -24
 231              		.cfi_offset 5, -20
 232              		.cfi_offset 6, -16
 233              		.cfi_offset 7, -12
 234              		.cfi_offset 8, -8
 235              		.cfi_offset 14, -4
  78:..\..\..\u8g2\u8g2\csrc/u8x8_selection_list.c ****   uint8_t i;
 236              		.loc 1 78 0
 237 0004 0646     		mov	r6, r0
 238 0006 0C46     		mov	r4, r1
 239 0008 1746     		mov	r7, r2
 240 000a 9846     		mov	r8, r3
  80:..\..\..\u8g2\u8g2\csrc/u8x8_selection_list.c ****   {
 241              		.loc 1 80 0
 242 000c 0025     		movs	r5, #0
 243              	.LVL16:
 244              	.L19:
  80:..\..\..\u8g2\u8g2\csrc/u8x8_selection_list.c ****   {
 245              		.loc 1 80 0 is_stmt 0 discriminator 1
 246 000e 2378     		ldrb	r3, [r4]	@ zero_extendqisi2
 247 0010 EAB2     		uxtb	r2, r5
 248              	.LVL17:
 249 0012 9342     		cmp	r3, r2
 250 0014 05F10105 		add	r5, r5, #1
 251 0018 07D9     		bls	.L21
  82:..\..\..\u8g2\u8g2\csrc/u8x8_selection_list.c ****   }
ARM GAS  C:\Users\jesse\AppData\Local\Temp\ccFhZnbe.s 			page 8


 252              		.loc 1 82 0 is_stmt 1 discriminator 3
 253 001a A378     		ldrb	r3, [r4, #2]	@ zero_extendqisi2
 254 001c 2146     		mov	r1, r4
 255 001e 1A44     		add	r2, r2, r3
 256              	.LVL18:
 257 0020 D2B2     		uxtb	r2, r2
 258 0022 4346     		mov	r3, r8
 259 0024 3046     		mov	r0, r6
 260 0026 B847     		blx	r7
 261              	.LVL19:
 262 0028 F1E7     		b	.L19
 263              	.LVL20:
 264              	.L21:
  84:..\..\..\u8g2\u8g2\csrc/u8x8_selection_list.c **** 
 265              		.loc 1 84 0
 266 002a BDE8F081 		pop	{r4, r5, r6, r7, r8, pc}
 267              		.cfi_endproc
 268              	.LFE2:
 269              		.size	u8x8_DrawSelectionList, .-u8x8_DrawSelectionList
 270              		.section	.text.u8x8_UserInterfaceSelectionList,"ax",%progbits
 271              		.align	1
 272              		.global	u8x8_UserInterfaceSelectionList
 273              		.thumb
 274              		.thumb_func
 275              		.type	u8x8_UserInterfaceSelectionList, %function
 276              	u8x8_UserInterfaceSelectionList:
 277              	.LFB4:
 113:..\..\..\u8g2\u8g2\csrc/u8x8_selection_list.c **** 
 114:..\..\..\u8g2\u8g2\csrc/u8x8_selection_list.c **** /*
 115:..\..\..\u8g2\u8g2\csrc/u8x8_selection_list.c ****   title: 		NULL for no title, valid str for title line. Can contain mutliple lines, separated by '\
 116:..\..\..\u8g2\u8g2\csrc/u8x8_selection_list.c ****   start_pos: 	default position for the cursor (starts with 1)
 117:..\..\..\u8g2\u8g2\csrc/u8x8_selection_list.c ****   sl:			string list (list of strings separated by \n)
 118:..\..\..\u8g2\u8g2\csrc/u8x8_selection_list.c ****   returns 0 if user has pressed the home key
 119:..\..\..\u8g2\u8g2\csrc/u8x8_selection_list.c ****   returns the selected line+1 if user has pressed the select key (e.g. 1 for the first line)
 120:..\..\..\u8g2\u8g2\csrc/u8x8_selection_list.c **** */
 121:..\..\..\u8g2\u8g2\csrc/u8x8_selection_list.c **** uint8_t u8x8_UserInterfaceSelectionList(u8x8_t *u8x8, const char *title, uint8_t start_pos, const c
 122:..\..\..\u8g2\u8g2\csrc/u8x8_selection_list.c **** {
 278              		.loc 1 122 0
 279              		.cfi_startproc
 280              		@ args = 0, pretend = 0, frame = 8
 281              		@ frame_needed = 0, uses_anonymous_args = 0
 282              	.LVL21:
 283 0000 F0B5     		push	{r4, r5, r6, r7, lr}
 284              		.cfi_def_cfa_offset 20
 285              		.cfi_offset 4, -20
 286              		.cfi_offset 5, -16
 287              		.cfi_offset 6, -12
 288              		.cfi_offset 7, -8
 289              		.cfi_offset 14, -4
 290 0002 0446     		mov	r4, r0
 291 0004 85B0     		sub	sp, sp, #20
 292              		.cfi_def_cfa_offset 40
 293              		.loc 1 122 0
 294 0006 0F46     		mov	r7, r1
 295 0008 1E46     		mov	r6, r3
 123:..\..\..\u8g2\u8g2\csrc/u8x8_selection_list.c ****   u8sl_t u8sl;
 124:..\..\..\u8g2\u8g2\csrc/u8x8_selection_list.c ****   uint8_t event;
ARM GAS  C:\Users\jesse\AppData\Local\Temp\ccFhZnbe.s 			page 9


 125:..\..\..\u8g2\u8g2\csrc/u8x8_selection_list.c ****   uint8_t title_lines;
 126:..\..\..\u8g2\u8g2\csrc/u8x8_selection_list.c ****   
 127:..\..\..\u8g2\u8g2\csrc/u8x8_selection_list.c ****   if ( start_pos > 0 )
 296              		.loc 1 127 0
 297 000a 1546     		mov	r5, r2
 298 000c 0AB1     		cbz	r2, .L23
 128:..\..\..\u8g2\u8g2\csrc/u8x8_selection_list.c ****     start_pos--;
 299              		.loc 1 128 0
 300 000e 551E     		subs	r5, r2, #1
 301 0010 EDB2     		uxtb	r5, r5
 302              	.LVL22:
 303              	.L23:
 129:..\..\..\u8g2\u8g2\csrc/u8x8_selection_list.c ****   
 130:..\..\..\u8g2\u8g2\csrc/u8x8_selection_list.c ****   u8sl.visible = u8x8_GetRows(u8x8);
 304              		.loc 1 130 0
 305 0012 2368     		ldr	r3, [r4]
 306              	.LVL23:
 131:..\..\..\u8g2\u8g2\csrc/u8x8_selection_list.c ****   u8sl.total = u8x8_GetStringLineCnt(sl);
 307              		.loc 1 131 0
 308 0014 3046     		mov	r0, r6
 309              	.LVL24:
 130:..\..\..\u8g2\u8g2\csrc/u8x8_selection_list.c ****   u8sl.total = u8x8_GetStringLineCnt(sl);
 310              		.loc 1 130 0
 311 0016 5B7C     		ldrb	r3, [r3, #17]	@ zero_extendqisi2
 312 0018 8DF80830 		strb	r3, [sp, #8]
 313              		.loc 1 131 0
 314 001c FFF7FEFF 		bl	u8x8_GetStringLineCnt
 315              	.LVL25:
 132:..\..\..\u8g2\u8g2\csrc/u8x8_selection_list.c ****   u8sl.first_pos = 0;
 316              		.loc 1 132 0
 317 0020 0022     		movs	r2, #0
 131:..\..\..\u8g2\u8g2\csrc/u8x8_selection_list.c ****   u8sl.total = u8x8_GetStringLineCnt(sl);
 318              		.loc 1 131 0
 319 0022 8DF80900 		strb	r0, [sp, #9]
 320              		.loc 1 132 0
 321 0026 8DF80A20 		strb	r2, [sp, #10]
 133:..\..\..\u8g2\u8g2\csrc/u8x8_selection_list.c ****   u8sl.current_pos = start_pos;
 322              		.loc 1 133 0
 323 002a 8DF80B50 		strb	r5, [sp, #11]
 134:..\..\..\u8g2\u8g2\csrc/u8x8_selection_list.c ****   u8sl.x = 0;
 324              		.loc 1 134 0
 325 002e 8DF80C20 		strb	r2, [sp, #12]
 135:..\..\..\u8g2\u8g2\csrc/u8x8_selection_list.c ****   u8sl.y = 0;
 326              		.loc 1 135 0
 327 0032 8DF80D20 		strb	r2, [sp, #13]
 136:..\..\..\u8g2\u8g2\csrc/u8x8_selection_list.c ****   
 137:..\..\..\u8g2\u8g2\csrc/u8x8_selection_list.c **** 
 138:..\..\..\u8g2\u8g2\csrc/u8x8_selection_list.c ****   //u8x8_ClearDisplay(u8x8);   /* not required because all is 100% filled */
 139:..\..\..\u8g2\u8g2\csrc/u8x8_selection_list.c ****   u8x8_SetInverseFont(u8x8, 0);
 328              		.loc 1 139 0
 329 0036 84F82320 		strb	r2, [r4, #35]
 140:..\..\..\u8g2\u8g2\csrc/u8x8_selection_list.c ****   
 141:..\..\..\u8g2\u8g2\csrc/u8x8_selection_list.c ****   if ( title != NULL )
 330              		.loc 1 141 0
 331 003a 87B1     		cbz	r7, .L24
 142:..\..\..\u8g2\u8g2\csrc/u8x8_selection_list.c ****   {
 143:..\..\..\u8g2\u8g2\csrc/u8x8_selection_list.c ****     title_lines = u8x8_DrawUTF8Lines(u8x8, u8sl.x, u8sl.y, u8x8_GetCols(u8x8), title);
ARM GAS  C:\Users\jesse\AppData\Local\Temp\ccFhZnbe.s 			page 10


 332              		.loc 1 143 0
 333 003c 2368     		ldr	r3, [r4]
 334 003e 1146     		mov	r1, r2
 335 0040 1B7C     		ldrb	r3, [r3, #16]	@ zero_extendqisi2
 336 0042 2046     		mov	r0, r4
 337 0044 0097     		str	r7, [sp]
 338 0046 FFF7FEFF 		bl	u8x8_DrawUTF8Lines
 339              	.LVL26:
 144:..\..\..\u8g2\u8g2\csrc/u8x8_selection_list.c ****     u8sl.y+=title_lines;
 340              		.loc 1 144 0
 341 004a 9DF80D30 		ldrb	r3, [sp, #13]	@ zero_extendqisi2
 342 004e 0344     		add	r3, r3, r0
 343 0050 8DF80D30 		strb	r3, [sp, #13]
 145:..\..\..\u8g2\u8g2\csrc/u8x8_selection_list.c ****     u8sl.visible-=title_lines;
 344              		.loc 1 145 0
 345 0054 9DF80830 		ldrb	r3, [sp, #8]	@ zero_extendqisi2
 346 0058 181A     		subs	r0, r3, r0
 347              	.LVL27:
 348 005a 8DF80800 		strb	r0, [sp, #8]
 349              	.L24:
 146:..\..\..\u8g2\u8g2\csrc/u8x8_selection_list.c ****   }
 147:..\..\..\u8g2\u8g2\csrc/u8x8_selection_list.c ****   
 148:..\..\..\u8g2\u8g2\csrc/u8x8_selection_list.c ****   if ( u8sl.current_pos >= u8sl.total )
 350              		.loc 1 148 0
 351 005e 9DF80930 		ldrb	r3, [sp, #9]	@ zero_extendqisi2
 352 0062 9DF80B20 		ldrb	r2, [sp, #11]	@ zero_extendqisi2
 353 0066 9A42     		cmp	r2, r3
 149:..\..\..\u8g2\u8g2\csrc/u8x8_selection_list.c ****     u8sl.current_pos = u8sl.total-1;
 354              		.loc 1 149 0
 355 0068 24BF     		itt	cs
 356 006a 03F1FF33 		addcs	r3, r3, #-1
 357 006e 8DF80B30 		strbcs	r3, [sp, #11]
 358              	.L25:
 150:..\..\..\u8g2\u8g2\csrc/u8x8_selection_list.c **** 
 151:..\..\..\u8g2\u8g2\csrc/u8x8_selection_list.c ****   
 152:..\..\..\u8g2\u8g2\csrc/u8x8_selection_list.c ****   u8x8_DrawSelectionList(u8x8, &u8sl, u8x8_sl_string_line_cb, sl);
 359              		.loc 1 152 0
 360 0072 3346     		mov	r3, r6
 361 0074 114A     		ldr	r2, .L42
 362 0076 02A9     		add	r1, sp, #8
 363 0078 2046     		mov	r0, r4
 364 007a FFF7FEFF 		bl	u8x8_DrawSelectionList
 365              	.LVL28:
 366              	.L26:
 153:..\..\..\u8g2\u8g2\csrc/u8x8_selection_list.c **** 
 154:..\..\..\u8g2\u8g2\csrc/u8x8_selection_list.c ****   for(;;)
 155:..\..\..\u8g2\u8g2\csrc/u8x8_selection_list.c ****   {
 156:..\..\..\u8g2\u8g2\csrc/u8x8_selection_list.c ****     event = u8x8_GetMenuEvent(u8x8);
 367              		.loc 1 156 0
 368 007e 2046     		mov	r0, r4
 369 0080 FFF7FEFF 		bl	u8x8_GetMenuEvent
 370              	.LVL29:
 157:..\..\..\u8g2\u8g2\csrc/u8x8_selection_list.c ****     if ( event == U8X8_MSG_GPIO_MENU_SELECT )
 371              		.loc 1 157 0
 372 0084 5028     		cmp	r0, #80
 373 0086 04D1     		bne	.L27
 158:..\..\..\u8g2\u8g2\csrc/u8x8_selection_list.c ****       return u8sl.current_pos+1;
ARM GAS  C:\Users\jesse\AppData\Local\Temp\ccFhZnbe.s 			page 11


 374              		.loc 1 158 0
 375 0088 9DF80B00 		ldrb	r0, [sp, #11]	@ zero_extendqisi2
 376              	.LVL30:
 377 008c 0130     		adds	r0, r0, #1
 378 008e C0B2     		uxtb	r0, r0
 379 0090 12E0     		b	.L28
 380              	.LVL31:
 381              	.L27:
 159:..\..\..\u8g2\u8g2\csrc/u8x8_selection_list.c ****     else if ( event == U8X8_MSG_GPIO_MENU_HOME )
 382              		.loc 1 159 0
 383 0092 5328     		cmp	r0, #83
 384 0094 0FD0     		beq	.L32
 160:..\..\..\u8g2\u8g2\csrc/u8x8_selection_list.c ****       return 0;
 161:..\..\..\u8g2\u8g2\csrc/u8x8_selection_list.c ****     else if ( event == U8X8_MSG_GPIO_MENU_NEXT || event == U8X8_MSG_GPIO_MENU_DOWN )
 385              		.loc 1 161 0
 386 0096 00F0FB03 		and	r3, r0, #251
 387 009a 512B     		cmp	r3, #81
 388 009c 03D1     		bne	.L29
 162:..\..\..\u8g2\u8g2\csrc/u8x8_selection_list.c ****     {
 163:..\..\..\u8g2\u8g2\csrc/u8x8_selection_list.c ****       u8sl_Next(&u8sl);
 389              		.loc 1 163 0
 390 009e 02A8     		add	r0, sp, #8
 391              	.LVL32:
 392 00a0 FFF7FEFF 		bl	u8sl_Next
 393              	.LVL33:
 394 00a4 E5E7     		b	.L25
 395              	.LVL34:
 396              	.L29:
 164:..\..\..\u8g2\u8g2\csrc/u8x8_selection_list.c ****       u8x8_DrawSelectionList(u8x8, &u8sl, u8x8_sl_string_line_cb, sl);      
 165:..\..\..\u8g2\u8g2\csrc/u8x8_selection_list.c ****     }
 166:..\..\..\u8g2\u8g2\csrc/u8x8_selection_list.c ****     else if ( event == U8X8_MSG_GPIO_MENU_PREV || event == U8X8_MSG_GPIO_MENU_UP  )
 397              		.loc 1 166 0
 398 00a6 5228     		cmp	r0, #82
 399 00a8 01D0     		beq	.L31
 400              		.loc 1 166 0 is_stmt 0 discriminator 1
 401 00aa 5428     		cmp	r0, #84
 402 00ac E7D1     		bne	.L26
 403              	.L31:
 167:..\..\..\u8g2\u8g2\csrc/u8x8_selection_list.c ****     {
 168:..\..\..\u8g2\u8g2\csrc/u8x8_selection_list.c ****       u8sl_Prev(&u8sl);
 404              		.loc 1 168 0 is_stmt 1
 405 00ae 02A8     		add	r0, sp, #8
 406              	.LVL35:
 407 00b0 FFF7FEFF 		bl	u8sl_Prev
 408              	.LVL36:
 409 00b4 DDE7     		b	.L25
 410              	.LVL37:
 411              	.L32:
 160:..\..\..\u8g2\u8g2\csrc/u8x8_selection_list.c ****     else if ( event == U8X8_MSG_GPIO_MENU_NEXT || event == U8X8_MSG_GPIO_MENU_DOWN )
 412              		.loc 1 160 0
 413 00b6 0020     		movs	r0, #0
 414              	.LVL38:
 415              	.L28:
 169:..\..\..\u8g2\u8g2\csrc/u8x8_selection_list.c ****       u8x8_DrawSelectionList(u8x8, &u8sl, u8x8_sl_string_line_cb, sl);      
 170:..\..\..\u8g2\u8g2\csrc/u8x8_selection_list.c ****     }
 171:..\..\..\u8g2\u8g2\csrc/u8x8_selection_list.c ****   }
 172:..\..\..\u8g2\u8g2\csrc/u8x8_selection_list.c **** }
ARM GAS  C:\Users\jesse\AppData\Local\Temp\ccFhZnbe.s 			page 12


 416              		.loc 1 172 0
 417 00b8 05B0     		add	sp, sp, #20
 418              		.cfi_def_cfa_offset 20
 419              		@ sp needed
 420 00ba F0BD     		pop	{r4, r5, r6, r7, pc}
 421              	.LVL39:
 422              	.L43:
 423              		.align	2
 424              	.L42:
 425 00bc 00000000 		.word	u8x8_sl_string_line_cb
 426              		.cfi_endproc
 427              	.LFE4:
 428              		.size	u8x8_UserInterfaceSelectionList, .-u8x8_UserInterfaceSelectionList
 429              		.section	.rodata.str1.1,"aMS",%progbits,1
 430              	.LC0:
 431 0000 00       		.ascii	"\000"
 432              		.text
 433              	.Letext0:
 434              		.file 2 "c:\\program files (x86)\\cypress\\psoc creator\\4.4\\psoc creator\\import\\gnu\\arm\\5.4.
 435              		.file 3 "c:\\program files (x86)\\cypress\\psoc creator\\4.4\\psoc creator\\import\\gnu\\arm\\5.4.
 436              		.file 4 "..\\..\\..\\u8g2\\u8g2\\csrc\\u8x8.h"