ARM GAS  C:\Users\jesse\AppData\Local\Temp\cckpeHIk.s 			page 1


   1              		.syntax unified
   2              		.cpu cortex-m3
   3              		.fpu softvfp
   4              		.eabi_attribute 20, 1
   5              		.eabi_attribute 21, 1
   6              		.eabi_attribute 23, 3
   7              		.eabi_attribute 24, 1
   8              		.eabi_attribute 25, 1
   9              		.eabi_attribute 26, 1
  10              		.eabi_attribute 30, 4
  11              		.eabi_attribute 34, 1
  12              		.eabi_attribute 18, 4
  13              		.thumb
  14              		.syntax unified
  15              		.file	"u8x8_d_gp1247ai.c"
  16              		.text
  17              	.Ltext0:
  18              		.cfi_sections	.debug_frame
  19              		.section	.text.u8x8_d_gp1247ai_common,"ax",%progbits
  20              		.align	1
  21              		.global	u8x8_d_gp1247ai_common
  22              		.thumb
  23              		.thumb_func
  24              		.type	u8x8_d_gp1247ai_common, %function
  25              	u8x8_d_gp1247ai_common:
  26              	.LFB0:
  27              		.file 1 "..\\..\\..\\u8g2\\u8g2\\csrc\\u8x8_d_gp1247ai.c"
   1:..\..\..\u8g2\u8g2\csrc/u8x8_d_gp1247ai.c **** /*
   2:..\..\..\u8g2\u8g2\csrc/u8x8_d_gp1247ai.c **** 
   3:..\..\..\u8g2\u8g2\csrc/u8x8_d_gp1247ai.c ****   u8x8_d_gp1247ai.c
   4:..\..\..\u8g2\u8g2\csrc/u8x8_d_gp1247ai.c ****   
   5:..\..\..\u8g2\u8g2\csrc/u8x8_d_gp1247ai.c ****   https://github.com/olikraus/u8g2/issues/1907
   6:..\..\..\u8g2\u8g2\csrc/u8x8_d_gp1247ai.c ****   https://github.com/olikraus/u8g2/pull/1892  
   7:..\..\..\u8g2\u8g2\csrc/u8x8_d_gp1247ai.c **** 
   8:..\..\..\u8g2\u8g2\csrc/u8x8_d_gp1247ai.c ****   Universal 8bit Graphics Library (https://github.com/olikraus/u8g2/)
   9:..\..\..\u8g2\u8g2\csrc/u8x8_d_gp1247ai.c **** 
  10:..\..\..\u8g2\u8g2\csrc/u8x8_d_gp1247ai.c ****   Copyright (c) 2022, olikraus@gmail.com
  11:..\..\..\u8g2\u8g2\csrc/u8x8_d_gp1247ai.c ****   All rights reserved.
  12:..\..\..\u8g2\u8g2\csrc/u8x8_d_gp1247ai.c **** 
  13:..\..\..\u8g2\u8g2\csrc/u8x8_d_gp1247ai.c ****   Redistribution and use in source and binary forms, with or without modification,
  14:..\..\..\u8g2\u8g2\csrc/u8x8_d_gp1247ai.c ****   are permitted provided that the following conditions are met:
  15:..\..\..\u8g2\u8g2\csrc/u8x8_d_gp1247ai.c **** 
  16:..\..\..\u8g2\u8g2\csrc/u8x8_d_gp1247ai.c ****   * Redistributions of source code must retain the above copyright notice, this list
  17:..\..\..\u8g2\u8g2\csrc/u8x8_d_gp1247ai.c ****   of conditions and the following disclaimer.
  18:..\..\..\u8g2\u8g2\csrc/u8x8_d_gp1247ai.c **** 
  19:..\..\..\u8g2\u8g2\csrc/u8x8_d_gp1247ai.c ****   * Redistributions in binary form must reproduce the above copyright notice, this
  20:..\..\..\u8g2\u8g2\csrc/u8x8_d_gp1247ai.c ****   list of conditions and the following disclaimer in the documentation and/or other
  21:..\..\..\u8g2\u8g2\csrc/u8x8_d_gp1247ai.c ****   materials provided with the distribution.
  22:..\..\..\u8g2\u8g2\csrc/u8x8_d_gp1247ai.c **** 
  23:..\..\..\u8g2\u8g2\csrc/u8x8_d_gp1247ai.c ****   THIS SOFTWARE IS PROVIDED BY THE COPYRIGHT HOLDERS AND
  24:..\..\..\u8g2\u8g2\csrc/u8x8_d_gp1247ai.c ****   CONTRIBUTORS "AS IS" AND ANY EXPRESS OR IMPLIED WARRANTIES,
  25:..\..\..\u8g2\u8g2\csrc/u8x8_d_gp1247ai.c ****   INCLUDING, BUT NOT LIMITED TO, THE IMPLIED WARRANTIES OF
  26:..\..\..\u8g2\u8g2\csrc/u8x8_d_gp1247ai.c ****   MERCHANTABILITY AND FITNESS FOR A PARTICULAR PURPOSE ARE
  27:..\..\..\u8g2\u8g2\csrc/u8x8_d_gp1247ai.c ****   DISCLAIMED. IN NO EVENT SHALL THE COPYRIGHT HOLDER OR
  28:..\..\..\u8g2\u8g2\csrc/u8x8_d_gp1247ai.c ****   CONTRIBUTORS BE LIABLE FOR ANY DIRECT, INDIRECT, INCIDENTAL,
  29:..\..\..\u8g2\u8g2\csrc/u8x8_d_gp1247ai.c ****   SPECIAL, EXEMPLARY, OR CONSEQUENTIAL DAMAGES (INCLUDING, BUT
  30:..\..\..\u8g2\u8g2\csrc/u8x8_d_gp1247ai.c ****   NOT LIMITED TO, PROCUREMENT OF SUBSTITUTE GOODS OR SERVICES;
ARM GAS  C:\Users\jesse\AppData\Local\Temp\cckpeHIk.s 			page 2


  31:..\..\..\u8g2\u8g2\csrc/u8x8_d_gp1247ai.c ****   LOSS OF USE, DATA, OR PROFITS; OR BUSINESS INTERRUPTION) HOWEVER
  32:..\..\..\u8g2\u8g2\csrc/u8x8_d_gp1247ai.c ****   CAUSED AND ON ANY THEORY OF LIABILITY, WHETHER IN CONTRACT,
  33:..\..\..\u8g2\u8g2\csrc/u8x8_d_gp1247ai.c ****   STRICT LIABILITY, OR TORT (INCLUDING NEGLIGENCE OR OTHERWISE)
  34:..\..\..\u8g2\u8g2\csrc/u8x8_d_gp1247ai.c ****   ARISING IN ANY WAY OUT OF THE USE OF THIS SOFTWARE, EVEN IF
  35:..\..\..\u8g2\u8g2\csrc/u8x8_d_gp1247ai.c ****   ADVISED OF THE POSSIBILITY OF SUCH DAMAGE.
  36:..\..\..\u8g2\u8g2\csrc/u8x8_d_gp1247ai.c **** 
  37:..\..\..\u8g2\u8g2\csrc/u8x8_d_gp1247ai.c **** */
  38:..\..\..\u8g2\u8g2\csrc/u8x8_d_gp1247ai.c **** 
  39:..\..\..\u8g2\u8g2\csrc/u8x8_d_gp1247ai.c **** #include "u8x8.h"
  40:..\..\..\u8g2\u8g2\csrc/u8x8_d_gp1247ai.c **** 
  41:..\..\..\u8g2\u8g2\csrc/u8x8_d_gp1247ai.c **** #define SWAP8(a) ((((a)&0x80) >> 7) | (((a)&0x40) >> 5) | (((a)&0x20) >> 3) | (((a)&0x10) >> 1) | (
  42:..\..\..\u8g2\u8g2\csrc/u8x8_d_gp1247ai.c **** 
  43:..\..\..\u8g2\u8g2\csrc/u8x8_d_gp1247ai.c **** /* ========== GP1247AI ========== */
  44:..\..\..\u8g2\u8g2\csrc/u8x8_d_gp1247ai.c **** static const u8x8_display_info_t u8x8_gp1247ai_display_info = {
  45:..\..\..\u8g2\u8g2\csrc/u8x8_d_gp1247ai.c ****     /* chip_enable_level = */ 0,
  46:..\..\..\u8g2\u8g2\csrc/u8x8_d_gp1247ai.c ****     /* chip_disable_level = */ 1,
  47:..\..\..\u8g2\u8g2\csrc/u8x8_d_gp1247ai.c **** 
  48:..\..\..\u8g2\u8g2\csrc/u8x8_d_gp1247ai.c ****     /* post_chip_enable_wait_ns = */ 240, /* tCS-CLK */
  49:..\..\..\u8g2\u8g2\csrc/u8x8_d_gp1247ai.c ****     /* pre_chip_disable_wait_ns = */ 120, /* tCLK-CS */
  50:..\..\..\u8g2\u8g2\csrc/u8x8_d_gp1247ai.c ****     /* reset_pulse_width_ms = */ 1,       /* Trw     */
  51:..\..\..\u8g2\u8g2\csrc/u8x8_d_gp1247ai.c ****     /* post_reset_wait_ms = */ 1,         /* Trth    */
  52:..\..\..\u8g2\u8g2\csrc/u8x8_d_gp1247ai.c ****     /* sda_setup_time_ns = */ 60,         /* tsu     */
  53:..\..\..\u8g2\u8g2\csrc/u8x8_d_gp1247ai.c ****     /* sck_pulse_width_ns = */ 120,       /* tcyc/2  */
  54:..\..\..\u8g2\u8g2\csrc/u8x8_d_gp1247ai.c ****     /* sck_clock_hz = */ 4000000UL,       /* MAX 4.16 MHz */
  55:..\..\..\u8g2\u8g2\csrc/u8x8_d_gp1247ai.c ****     /* spi_mode = */ 3,                   /* active low, falling edge, MSBFIRST */
  56:..\..\..\u8g2\u8g2\csrc/u8x8_d_gp1247ai.c ****     /* i2c_bus_clock_100kHz = */ 4,       /*         */
  57:..\..\..\u8g2\u8g2\csrc/u8x8_d_gp1247ai.c ****     /* data_setup_time_ns = */ 60,        /* tsu     */
  58:..\..\..\u8g2\u8g2\csrc/u8x8_d_gp1247ai.c ****     /* write_pulse_width_ns = */ 120,     /* tcyc/2  */
  59:..\..\..\u8g2\u8g2\csrc/u8x8_d_gp1247ai.c ****     /* tile_width = */ 32,                /* 32*8=256 memory size */
  60:..\..\..\u8g2\u8g2\csrc/u8x8_d_gp1247ai.c ****     /* tile_hight = */ 8,                 /* 8*8=64 memory size */
  61:..\..\..\u8g2\u8g2\csrc/u8x8_d_gp1247ai.c ****     /* default_x_offset = */ 0,           /*         */
  62:..\..\..\u8g2\u8g2\csrc/u8x8_d_gp1247ai.c ****     /* flipmode_x_offset = */ 0,          /*         */
  63:..\..\..\u8g2\u8g2\csrc/u8x8_d_gp1247ai.c ****     /* pixel_width = */ 253,              /* display size */
  64:..\..\..\u8g2\u8g2\csrc/u8x8_d_gp1247ai.c ****     /* pixel_height = */ 63               /* display size */
  65:..\..\..\u8g2\u8g2\csrc/u8x8_d_gp1247ai.c **** };
  66:..\..\..\u8g2\u8g2\csrc/u8x8_d_gp1247ai.c **** static const uint8_t u8x8_d_gp1247ai_init_seq[] = {
  67:..\..\..\u8g2\u8g2\csrc/u8x8_d_gp1247ai.c ****     U8X8_START_TRANSFER(),
  68:..\..\..\u8g2\u8g2\csrc/u8x8_d_gp1247ai.c ****     U8X8_C(SWAP8(0x0AA)), /* Software reset */
  69:..\..\..\u8g2\u8g2\csrc/u8x8_d_gp1247ai.c ****     U8X8_END_TRANSFER(),
  70:..\..\..\u8g2\u8g2\csrc/u8x8_d_gp1247ai.c ****     U8X8_DLY(1), /* Wait for reset */
  71:..\..\..\u8g2\u8g2\csrc/u8x8_d_gp1247ai.c **** 
  72:..\..\..\u8g2\u8g2\csrc/u8x8_d_gp1247ai.c ****     U8X8_START_TRANSFER(),
  73:..\..\..\u8g2\u8g2\csrc/u8x8_d_gp1247ai.c ****     U8X8_CA(SWAP8(0x078), SWAP8(0x008)), /* Oscillation Setting */
  74:..\..\..\u8g2\u8g2\csrc/u8x8_d_gp1247ai.c ****     U8X8_END_TRANSFER(),
  75:..\..\..\u8g2\u8g2\csrc/u8x8_d_gp1247ai.c **** 
  76:..\..\..\u8g2\u8g2\csrc/u8x8_d_gp1247ai.c ****     U8X8_START_TRANSFER(),
  77:..\..\..\u8g2\u8g2\csrc/u8x8_d_gp1247ai.c ****     U8X8_CAA(SWAP8(0x0CC), SWAP8(0x005), SWAP8(0x000)), /* VFD Mode Setting */
  78:..\..\..\u8g2\u8g2\csrc/u8x8_d_gp1247ai.c ****     U8X8_END_TRANSFER(),
  79:..\..\..\u8g2\u8g2\csrc/u8x8_d_gp1247ai.c **** 
  80:..\..\..\u8g2\u8g2\csrc/u8x8_d_gp1247ai.c ****     U8X8_START_TRANSFER(),
  81:..\..\..\u8g2\u8g2\csrc/u8x8_d_gp1247ai.c ****     U8X8_CAAA(SWAP8(0x0E0), SWAP8(0x0FC), SWAP8(0x03E), SWAP8(0x000)), /* Display Area Setting */
  82:..\..\..\u8g2\u8g2\csrc/u8x8_d_gp1247ai.c ****     U8X8_A4(SWAP8(0x020), SWAP8(0x080), SWAP8(0x080), SWAP8(0x080)),   /* Display Area Setting */
  83:..\..\..\u8g2\u8g2\csrc/u8x8_d_gp1247ai.c ****     U8X8_END_TRANSFER(),
  84:..\..\..\u8g2\u8g2\csrc/u8x8_d_gp1247ai.c **** 
  85:..\..\..\u8g2\u8g2\csrc/u8x8_d_gp1247ai.c ****     U8X8_START_TRANSFER(),
  86:..\..\..\u8g2\u8g2\csrc/u8x8_d_gp1247ai.c ****     U8X8_CAAAA(SWAP8(0x0B1), SWAP8(0x020), SWAP8(0x03F), SWAP8(0x000), SWAP8(0x001)), /* Internal S
  87:..\..\..\u8g2\u8g2\csrc/u8x8_d_gp1247ai.c ****     U8X8_END_TRANSFER(),
ARM GAS  C:\Users\jesse\AppData\Local\Temp\cckpeHIk.s 			page 3


  88:..\..\..\u8g2\u8g2\csrc/u8x8_d_gp1247ai.c **** 
  89:..\..\..\u8g2\u8g2\csrc/u8x8_d_gp1247ai.c ****     U8X8_START_TRANSFER(),
  90:..\..\..\u8g2\u8g2\csrc/u8x8_d_gp1247ai.c ****     U8X8_CAA(SWAP8(0x0A0), SWAP8(0x000), SWAP8(0x028)), /* Dimming level Setting (1024 level, 0x3FF
  91:..\..\..\u8g2\u8g2\csrc/u8x8_d_gp1247ai.c ****     U8X8_END_TRANSFER(),
  92:..\..\..\u8g2\u8g2\csrc/u8x8_d_gp1247ai.c **** 
  93:..\..\..\u8g2\u8g2\csrc/u8x8_d_gp1247ai.c ****     U8X8_START_TRANSFER(),
  94:..\..\..\u8g2\u8g2\csrc/u8x8_d_gp1247ai.c ****     U8X8_C(SWAP8(0x055)), /* Memory Map Clear */
  95:..\..\..\u8g2\u8g2\csrc/u8x8_d_gp1247ai.c ****     U8X8_END_TRANSFER(),
  96:..\..\..\u8g2\u8g2\csrc/u8x8_d_gp1247ai.c ****     U8X8_DLY(15), /* Wait for memory clear */
  97:..\..\..\u8g2\u8g2\csrc/u8x8_d_gp1247ai.c **** 
  98:..\..\..\u8g2\u8g2\csrc/u8x8_d_gp1247ai.c ****     U8X8_START_TRANSFER(),
  99:..\..\..\u8g2\u8g2\csrc/u8x8_d_gp1247ai.c ****     U8X8_CAA(SWAP8(0x0C0), SWAP8(0x000), SWAP8(0x000)), /* DW1 position setting */
 100:..\..\..\u8g2\u8g2\csrc/u8x8_d_gp1247ai.c ****     U8X8_END_TRANSFER(),
 101:..\..\..\u8g2\u8g2\csrc/u8x8_d_gp1247ai.c **** 
 102:..\..\..\u8g2\u8g2\csrc/u8x8_d_gp1247ai.c ****     U8X8_START_TRANSFER(),
 103:..\..\..\u8g2\u8g2\csrc/u8x8_d_gp1247ai.c ****     U8X8_CAA(SWAP8(0x0D0), SWAP8(0x000), SWAP8(0x040)), /* DW2 position setting */
 104:..\..\..\u8g2\u8g2\csrc/u8x8_d_gp1247ai.c ****     U8X8_END_TRANSFER(),
 105:..\..\..\u8g2\u8g2\csrc/u8x8_d_gp1247ai.c **** 
 106:..\..\..\u8g2\u8g2\csrc/u8x8_d_gp1247ai.c ****     U8X8_START_TRANSFER(),
 107:..\..\..\u8g2\u8g2\csrc/u8x8_d_gp1247ai.c ****     U8X8_CA(SWAP8(0x080), SWAP8(0x080)), /* Display Mode Setting */
 108:..\..\..\u8g2\u8g2\csrc/u8x8_d_gp1247ai.c ****     U8X8_END_TRANSFER(),
 109:..\..\..\u8g2\u8g2\csrc/u8x8_d_gp1247ai.c **** 
 110:..\..\..\u8g2\u8g2\csrc/u8x8_d_gp1247ai.c ****     U8X8_START_TRANSFER(),
 111:..\..\..\u8g2\u8g2\csrc/u8x8_d_gp1247ai.c ****     U8X8_C(SWAP8(0x061)), /* Standby Mode */
 112:..\..\..\u8g2\u8g2\csrc/u8x8_d_gp1247ai.c ****     U8X8_END_TRANSFER(),
 113:..\..\..\u8g2\u8g2\csrc/u8x8_d_gp1247ai.c **** 
 114:..\..\..\u8g2\u8g2\csrc/u8x8_d_gp1247ai.c ****     U8X8_END() /* end of sequence */
 115:..\..\..\u8g2\u8g2\csrc/u8x8_d_gp1247ai.c **** };
 116:..\..\..\u8g2\u8g2\csrc/u8x8_d_gp1247ai.c **** static const uint8_t u8x8_d_gp1247ai_standby_seq[] = {
 117:..\..\..\u8g2\u8g2\csrc/u8x8_d_gp1247ai.c ****     U8X8_START_TRANSFER(),
 118:..\..\..\u8g2\u8g2\csrc/u8x8_d_gp1247ai.c ****     U8X8_C(SWAP8(0x061)), /* Standby */
 119:..\..\..\u8g2\u8g2\csrc/u8x8_d_gp1247ai.c ****     U8X8_END_TRANSFER(),
 120:..\..\..\u8g2\u8g2\csrc/u8x8_d_gp1247ai.c **** 
 121:..\..\..\u8g2\u8g2\csrc/u8x8_d_gp1247ai.c ****     U8X8_END() /* end of sequence */
 122:..\..\..\u8g2\u8g2\csrc/u8x8_d_gp1247ai.c **** };
 123:..\..\..\u8g2\u8g2\csrc/u8x8_d_gp1247ai.c **** static const uint8_t u8x8_d_gp1247ai_wakeup_seq[] = {
 124:..\..\..\u8g2\u8g2\csrc/u8x8_d_gp1247ai.c ****     U8X8_START_TRANSFER(),
 125:..\..\..\u8g2\u8g2\csrc/u8x8_d_gp1247ai.c ****     U8X8_C(SWAP8(0x06D)), /* Wake up */
 126:..\..\..\u8g2\u8g2\csrc/u8x8_d_gp1247ai.c ****     U8X8_END_TRANSFER(),
 127:..\..\..\u8g2\u8g2\csrc/u8x8_d_gp1247ai.c ****     U8X8_DLY(1), /* Wait for OSC stabilize */
 128:..\..\..\u8g2\u8g2\csrc/u8x8_d_gp1247ai.c **** 
 129:..\..\..\u8g2\u8g2\csrc/u8x8_d_gp1247ai.c ****     U8X8_START_TRANSFER(),
 130:..\..\..\u8g2\u8g2\csrc/u8x8_d_gp1247ai.c ****     U8X8_CA(SWAP8(0x080), SWAP8(0x080)), /* After entering standby mode, the SC bit will be automat
 131:..\..\..\u8g2\u8g2\csrc/u8x8_d_gp1247ai.c ****     U8X8_END_TRANSFER(),
 132:..\..\..\u8g2\u8g2\csrc/u8x8_d_gp1247ai.c **** 
 133:..\..\..\u8g2\u8g2\csrc/u8x8_d_gp1247ai.c ****     U8X8_END() /* end of sequence */
 134:..\..\..\u8g2\u8g2\csrc/u8x8_d_gp1247ai.c **** };
 135:..\..\..\u8g2\u8g2\csrc/u8x8_d_gp1247ai.c **** uint8_t u8x8_d_gp1247ai_common(u8x8_t *u8x8, uint8_t msg, uint8_t arg_int, void *arg_ptr)
 136:..\..\..\u8g2\u8g2\csrc/u8x8_d_gp1247ai.c **** {
  28              		.loc 1 136 0
  29              		.cfi_startproc
  30              		@ args = 0, pretend = 0, frame = 8
  31              		@ frame_needed = 0, uses_anonymous_args = 0
  32              	.LVL0:
 137:..\..\..\u8g2\u8g2\csrc/u8x8_d_gp1247ai.c ****     uint8_t *ptr;
 138:..\..\..\u8g2\u8g2\csrc/u8x8_d_gp1247ai.c ****     uint8_t x, y;
 139:..\..\..\u8g2\u8g2\csrc/u8x8_d_gp1247ai.c ****     uint16_t tx_cnt;
ARM GAS  C:\Users\jesse\AppData\Local\Temp\cckpeHIk.s 			page 4


 140:..\..\..\u8g2\u8g2\csrc/u8x8_d_gp1247ai.c ****     uint8_t swapped_byte;
 141:..\..\..\u8g2\u8g2\csrc/u8x8_d_gp1247ai.c ****     switch (msg)
  33              		.loc 1 141 0
  34 0000 0E29     		cmp	r1, #14
 136:..\..\..\u8g2\u8g2\csrc/u8x8_d_gp1247ai.c ****     uint8_t *ptr;
  35              		.loc 1 136 0
  36 0002 2DE9F743 		push	{r0, r1, r2, r4, r5, r6, r7, r8, r9, lr}
  37              		.cfi_def_cfa_offset 40
  38              		.cfi_offset 4, -28
  39              		.cfi_offset 5, -24
  40              		.cfi_offset 6, -20
  41              		.cfi_offset 7, -16
  42              		.cfi_offset 8, -12
  43              		.cfi_offset 9, -8
  44              		.cfi_offset 14, -4
 136:..\..\..\u8g2\u8g2\csrc/u8x8_d_gp1247ai.c ****     uint8_t *ptr;
  45              		.loc 1 136 0
  46 0006 0746     		mov	r7, r0
  47 0008 8946     		mov	r9, r1
  48 000a 1446     		mov	r4, r2
  49 000c 9846     		mov	r8, r3
  50              		.loc 1 141 0
  51 000e 0BD0     		beq	.L3
  52 0010 0F29     		cmp	r1, #15
  53 0012 39D0     		beq	.L4
  54 0014 0B29     		cmp	r1, #11
  55 0016 40F0A280 		bne	.L12
 142:..\..\..\u8g2\u8g2\csrc/u8x8_d_gp1247ai.c ****     {
 143:..\..\..\u8g2\u8g2\csrc/u8x8_d_gp1247ai.c ****     case U8X8_MSG_DISPLAY_SET_POWER_SAVE:
 144:..\..\..\u8g2\u8g2\csrc/u8x8_d_gp1247ai.c ****         if (arg_int == 0)
  56              		.loc 1 144 0
  57 001a 0AB9     		cbnz	r2, .L6
 145:..\..\..\u8g2\u8g2\csrc/u8x8_d_gp1247ai.c ****             u8x8_cad_SendSequence(u8x8, u8x8_d_gp1247ai_wakeup_seq);
  58              		.loc 1 145 0
  59 001c 5249     		ldr	r1, .L18
  60              	.LVL1:
  61 001e 00E0     		b	.L15
  62              	.LVL2:
  63              	.L6:
 146:..\..\..\u8g2\u8g2\csrc/u8x8_d_gp1247ai.c ****         else
 147:..\..\..\u8g2\u8g2\csrc/u8x8_d_gp1247ai.c ****             u8x8_cad_SendSequence(u8x8, u8x8_d_gp1247ai_standby_seq);
  64              		.loc 1 147 0
  65 0020 5249     		ldr	r1, .L18+4
  66              	.LVL3:
  67              	.L15:
  68 0022 FFF7FEFF 		bl	u8x8_cad_SendSequence
  69              	.LVL4:
  70 0026 2DE0     		b	.L13
  71              	.LVL5:
  72              	.L3:
 148:..\..\..\u8g2\u8g2\csrc/u8x8_d_gp1247ai.c ****         break;
 149:..\..\..\u8g2\u8g2\csrc/u8x8_d_gp1247ai.c **** #ifdef U8X8_WITH_SET_CONTRAST
 150:..\..\..\u8g2\u8g2\csrc/u8x8_d_gp1247ai.c ****     case U8X8_MSG_DISPLAY_SET_CONTRAST:
 151:..\..\..\u8g2\u8g2\csrc/u8x8_d_gp1247ai.c ****         u8x8_cad_StartTransfer(u8x8);
 152:..\..\..\u8g2\u8g2\csrc/u8x8_d_gp1247ai.c ****         u8x8_cad_SendCmd(u8x8, SWAP8(0x0A0));
 153:..\..\..\u8g2\u8g2\csrc/u8x8_d_gp1247ai.c ****         u8x8_cad_SendArg(u8x8, SWAP8((arg_int * 4) >> 8));   /* Dimming level */
  73              		.loc 1 153 0
ARM GAS  C:\Users\jesse\AppData\Local\Temp\cckpeHIk.s 			page 5


  74 0028 A500     		lsls	r5, r4, #2
 151:..\..\..\u8g2\u8g2\csrc/u8x8_d_gp1247ai.c ****         u8x8_cad_SendCmd(u8x8, SWAP8(0x0A0));
  75              		.loc 1 151 0
  76 002a FFF7FEFF 		bl	u8x8_cad_StartTransfer
  77              	.LVL6:
 152:..\..\..\u8g2\u8g2\csrc/u8x8_d_gp1247ai.c ****         u8x8_cad_SendArg(u8x8, SWAP8((arg_int * 4) >> 8));   /* Dimming level */
  78              		.loc 1 152 0
  79 002e 0521     		movs	r1, #5
  80 0030 3846     		mov	r0, r7
  81 0032 FFF7FEFF 		bl	u8x8_cad_SendCmd
  82              	.LVL7:
  83              		.loc 1 153 0
  84 0036 2B12     		asrs	r3, r5, #8
  85 0038 5901     		lsls	r1, r3, #5
  86 003a 01F04001 		and	r1, r1, #64
  87 003e 41EAC311 		orr	r1, r1, r3, lsl #7
  88 0042 01F0C001 		and	r1, r1, #192
  89 0046 3846     		mov	r0, r7
  90 0048 FFF7FEFF 		bl	u8x8_cad_SendArg
  91              	.LVL8:
 154:..\..\..\u8g2\u8g2\csrc/u8x8_d_gp1247ai.c ****         u8x8_cad_SendArg(u8x8, SWAP8((arg_int * 4) & 0xFF)); /* Dimming level */
  92              		.loc 1 154 0
  93 004c 6911     		asrs	r1, r5, #5
  94 004e C5F3C013 		ubfx	r3, r5, #7, #1
  95 0052 01F00201 		and	r1, r1, #2
  96 0056 1943     		orrs	r1, r1, r3
  97 0058 EB10     		asrs	r3, r5, #3
  98 005a 03F00403 		and	r3, r3, #4
  99 005e 6D10     		asrs	r5, r5, #1
 100 0060 1943     		orrs	r1, r1, r3
 101 0062 05F00805 		and	r5, r5, #8
 102 0066 0D43     		orrs	r5, r5, r1
 103 0068 E100     		lsls	r1, r4, #3
 104 006a 01F01001 		and	r1, r1, #16
 105 006e 0D43     		orrs	r5, r5, r1
 106 0070 6101     		lsls	r1, r4, #5
 107 0072 01F02001 		and	r1, r1, #32
 108 0076 2943     		orrs	r1, r1, r5
 109 0078 3846     		mov	r0, r7
 110 007a FFF7FEFF 		bl	u8x8_cad_SendArg
 111              	.LVL9:
 112              	.L14:
 155:..\..\..\u8g2\u8g2\csrc/u8x8_d_gp1247ai.c ****         u8x8_cad_EndTransfer(u8x8);
 113              		.loc 1 155 0
 114 007e 3846     		mov	r0, r7
 115 0080 FFF7FEFF 		bl	u8x8_cad_EndTransfer
 116              	.LVL10:
 117              	.L13:
 156:..\..\..\u8g2\u8g2\csrc/u8x8_d_gp1247ai.c ****         break;
 157:..\..\..\u8g2\u8g2\csrc/u8x8_d_gp1247ai.c **** #endif
 158:..\..\..\u8g2\u8g2\csrc/u8x8_d_gp1247ai.c ****     case U8X8_MSG_DISPLAY_DRAW_TILE:
 159:..\..\..\u8g2\u8g2\csrc/u8x8_d_gp1247ai.c ****         x = ((u8x8_tile_t *)arg_ptr)->x_pos * 8;
 160:..\..\..\u8g2\u8g2\csrc/u8x8_d_gp1247ai.c ****         y = ((u8x8_tile_t *)arg_ptr)->y_pos * 8;
 161:..\..\..\u8g2\u8g2\csrc/u8x8_d_gp1247ai.c **** 
 162:..\..\..\u8g2\u8g2\csrc/u8x8_d_gp1247ai.c ****         u8x8_cad_StartTransfer(u8x8);
 163:..\..\..\u8g2\u8g2\csrc/u8x8_d_gp1247ai.c **** 
 164:..\..\..\u8g2\u8g2\csrc/u8x8_d_gp1247ai.c ****         u8x8_cad_SendCmd(u8x8, SWAP8(0x0F0));
ARM GAS  C:\Users\jesse\AppData\Local\Temp\cckpeHIk.s 			page 6


 165:..\..\..\u8g2\u8g2\csrc/u8x8_d_gp1247ai.c ****         u8x8_cad_SendArg(u8x8, SWAP8(x));
 166:..\..\..\u8g2\u8g2\csrc/u8x8_d_gp1247ai.c ****         u8x8_cad_SendArg(u8x8, SWAP8(y));
 167:..\..\..\u8g2\u8g2\csrc/u8x8_d_gp1247ai.c ****         u8x8_cad_SendArg(u8x8, SWAP8(0x007)); /* return every 8 pixels */
 168:..\..\..\u8g2\u8g2\csrc/u8x8_d_gp1247ai.c ****         do
 169:..\..\..\u8g2\u8g2\csrc/u8x8_d_gp1247ai.c ****         {
 170:..\..\..\u8g2\u8g2\csrc/u8x8_d_gp1247ai.c ****             ptr = ((u8x8_tile_t *)arg_ptr)->tile_ptr;
 171:..\..\..\u8g2\u8g2\csrc/u8x8_d_gp1247ai.c ****             tx_cnt = ((u8x8_tile_t *)arg_ptr)->cnt * 8;
 172:..\..\..\u8g2\u8g2\csrc/u8x8_d_gp1247ai.c ****             while (tx_cnt > 0)
 173:..\..\..\u8g2\u8g2\csrc/u8x8_d_gp1247ai.c ****             {
 174:..\..\..\u8g2\u8g2\csrc/u8x8_d_gp1247ai.c ****                 swapped_byte = SWAP8(*ptr);
 175:..\..\..\u8g2\u8g2\csrc/u8x8_d_gp1247ai.c ****                 u8x8_cad_SendData(u8x8, 1, &swapped_byte);
 176:..\..\..\u8g2\u8g2\csrc/u8x8_d_gp1247ai.c ****                 ptr += 1;
 177:..\..\..\u8g2\u8g2\csrc/u8x8_d_gp1247ai.c ****                 tx_cnt -= 1;
 178:..\..\..\u8g2\u8g2\csrc/u8x8_d_gp1247ai.c ****             }
 179:..\..\..\u8g2\u8g2\csrc/u8x8_d_gp1247ai.c ****             arg_int--;
 180:..\..\..\u8g2\u8g2\csrc/u8x8_d_gp1247ai.c ****         } while (arg_int > 0);
 181:..\..\..\u8g2\u8g2\csrc/u8x8_d_gp1247ai.c **** 
 182:..\..\..\u8g2\u8g2\csrc/u8x8_d_gp1247ai.c ****         u8x8_cad_EndTransfer(u8x8);
 183:..\..\..\u8g2\u8g2\csrc/u8x8_d_gp1247ai.c ****         break;
 184:..\..\..\u8g2\u8g2\csrc/u8x8_d_gp1247ai.c ****     default:
 185:..\..\..\u8g2\u8g2\csrc/u8x8_d_gp1247ai.c ****         return 0;
 186:..\..\..\u8g2\u8g2\csrc/u8x8_d_gp1247ai.c ****     }
 187:..\..\..\u8g2\u8g2\csrc/u8x8_d_gp1247ai.c ****     return 1;
 118              		.loc 1 187 0
 119 0084 0120     		movs	r0, #1
 156:..\..\..\u8g2\u8g2\csrc/u8x8_d_gp1247ai.c ****         break;
 120              		.loc 1 156 0
 121 0086 6BE0     		b	.L2
 122              	.LVL11:
 123              	.L4:
 159:..\..\..\u8g2\u8g2\csrc/u8x8_d_gp1247ai.c ****         y = ((u8x8_tile_t *)arg_ptr)->y_pos * 8;
 124              		.loc 1 159 0
 125 0088 5E79     		ldrb	r6, [r3, #5]	@ zero_extendqisi2
 160:..\..\..\u8g2\u8g2\csrc/u8x8_d_gp1247ai.c **** 
 126              		.loc 1 160 0
 127 008a 9D79     		ldrb	r5, [r3, #6]	@ zero_extendqisi2
 159:..\..\..\u8g2\u8g2\csrc/u8x8_d_gp1247ai.c ****         y = ((u8x8_tile_t *)arg_ptr)->y_pos * 8;
 128              		.loc 1 159 0
 129 008c F600     		lsls	r6, r6, #3
 130 008e F6B2     		uxtb	r6, r6
 131              	.LVL12:
 162:..\..\..\u8g2\u8g2\csrc/u8x8_d_gp1247ai.c **** 
 132              		.loc 1 162 0
 133 0090 FFF7FEFF 		bl	u8x8_cad_StartTransfer
 134              	.LVL13:
 164:..\..\..\u8g2\u8g2\csrc/u8x8_d_gp1247ai.c ****         u8x8_cad_SendArg(u8x8, SWAP8(x));
 135              		.loc 1 164 0
 136 0094 4946     		mov	r1, r9
 137 0096 3846     		mov	r0, r7
 138 0098 FFF7FEFF 		bl	u8x8_cad_SendCmd
 139              	.LVL14:
 165:..\..\..\u8g2\u8g2\csrc/u8x8_d_gp1247ai.c ****         u8x8_cad_SendArg(u8x8, SWAP8(y));
 140              		.loc 1 165 0
 141 009c 7311     		asrs	r3, r6, #5
 142 009e 03F00201 		and	r1, r3, #2
 143 00a2 F310     		asrs	r3, r6, #3
 144 00a4 03F00403 		and	r3, r3, #4
ARM GAS  C:\Users\jesse\AppData\Local\Temp\cckpeHIk.s 			page 7


 145 00a8 0B43     		orrs	r3, r3, r1
 146 00aa 7110     		asrs	r1, r6, #1
 147 00ac 43EAD613 		orr	r3, r3, r6, lsr #7
 148 00b0 01F00801 		and	r1, r1, #8
 149 00b4 7600     		lsls	r6, r6, #1
 150              	.LVL15:
 151 00b6 1943     		orrs	r1, r1, r3
 160:..\..\..\u8g2\u8g2\csrc/u8x8_d_gp1247ai.c **** 
 152              		.loc 1 160 0
 153 00b8 ED00     		lsls	r5, r5, #3
 165:..\..\..\u8g2\u8g2\csrc/u8x8_d_gp1247ai.c ****         u8x8_cad_SendArg(u8x8, SWAP8(y));
 154              		.loc 1 165 0
 155 00ba 06F01006 		and	r6, r6, #16
 160:..\..\..\u8g2\u8g2\csrc/u8x8_d_gp1247ai.c **** 
 156              		.loc 1 160 0
 157 00be EDB2     		uxtb	r5, r5
 158              	.LVL16:
 165:..\..\..\u8g2\u8g2\csrc/u8x8_d_gp1247ai.c ****         u8x8_cad_SendArg(u8x8, SWAP8(y));
 159              		.loc 1 165 0
 160 00c0 3143     		orrs	r1, r1, r6
 161 00c2 3846     		mov	r0, r7
 162 00c4 FFF7FEFF 		bl	u8x8_cad_SendArg
 163              	.LVL17:
 166:..\..\..\u8g2\u8g2\csrc/u8x8_d_gp1247ai.c ****         u8x8_cad_SendArg(u8x8, SWAP8(0x007)); /* return every 8 pixels */
 164              		.loc 1 166 0
 165 00c8 6B11     		asrs	r3, r5, #5
 166 00ca 03F00201 		and	r1, r3, #2
 167 00ce EB10     		asrs	r3, r5, #3
 168 00d0 03F00403 		and	r3, r3, #4
 169 00d4 0B43     		orrs	r3, r3, r1
 170 00d6 6910     		asrs	r1, r5, #1
 171 00d8 43EAD513 		orr	r3, r3, r5, lsr #7
 172 00dc 01F00801 		and	r1, r1, #8
 173 00e0 6D00     		lsls	r5, r5, #1
 174              	.LVL18:
 175 00e2 1943     		orrs	r1, r1, r3
 176 00e4 05F01005 		and	r5, r5, #16
 177 00e8 2943     		orrs	r1, r1, r5
 178 00ea 3846     		mov	r0, r7
 179 00ec FFF7FEFF 		bl	u8x8_cad_SendArg
 180              	.LVL19:
 167:..\..\..\u8g2\u8g2\csrc/u8x8_d_gp1247ai.c ****         do
 181              		.loc 1 167 0
 182 00f0 E021     		movs	r1, #224
 183 00f2 3846     		mov	r0, r7
 184 00f4 FFF7FEFF 		bl	u8x8_cad_SendArg
 185              	.LVL20:
 186              	.L9:
 171:..\..\..\u8g2\u8g2\csrc/u8x8_d_gp1247ai.c ****             while (tx_cnt > 0)
 187              		.loc 1 171 0
 188 00f8 98F80450 		ldrb	r5, [r8, #4]	@ zero_extendqisi2
 170:..\..\..\u8g2\u8g2\csrc/u8x8_d_gp1247ai.c ****             tx_cnt = ((u8x8_tile_t *)arg_ptr)->cnt * 8;
 189              		.loc 1 170 0
 190 00fc D8F80060 		ldr	r6, [r8]
 191              	.LVL21:
 171:..\..\..\u8g2\u8g2\csrc/u8x8_d_gp1247ai.c ****             while (tx_cnt > 0)
 192              		.loc 1 171 0
ARM GAS  C:\Users\jesse\AppData\Local\Temp\cckpeHIk.s 			page 8


 193 0100 ED00     		lsls	r5, r5, #3
 194              	.LVL22:
 195              	.L7:
 172:..\..\..\u8g2\u8g2\csrc/u8x8_d_gp1247ai.c ****             {
 196              		.loc 1 172 0
 197 0102 3DB3     		cbz	r5, .L17
 174:..\..\..\u8g2\u8g2\csrc/u8x8_d_gp1247ai.c ****                 u8x8_cad_SendData(u8x8, 1, &swapped_byte);
 198              		.loc 1 174 0
 199 0104 16F8012B 		ldrb	r2, [r6], #1	@ zero_extendqisi2
 200              	.LVL23:
 177:..\..\..\u8g2\u8g2\csrc/u8x8_d_gp1247ai.c ****             }
 201              		.loc 1 177 0
 202 0108 013D     		subs	r5, r5, #1
 203              	.LVL24:
 174:..\..\..\u8g2\u8g2\csrc/u8x8_d_gp1247ai.c ****                 u8x8_cad_SendData(u8x8, 1, &swapped_byte);
 204              		.loc 1 174 0
 205 010a D301     		lsls	r3, r2, #7
 206 010c 43EAD211 		orr	r1, r3, r2, lsr #7
 207 0110 5311     		asrs	r3, r2, #5
 208 0112 03F00203 		and	r3, r3, #2
 209 0116 0B43     		orrs	r3, r3, r1
 210 0118 D110     		asrs	r1, r2, #3
 211 011a 01F00401 		and	r1, r1, #4
 212 011e 5010     		asrs	r0, r2, #1
 213 0120 0B43     		orrs	r3, r3, r1
 214 0122 00F00800 		and	r0, r0, #8
 215 0126 5100     		lsls	r1, r2, #1
 216 0128 0343     		orrs	r3, r3, r0
 217 012a 01F01001 		and	r1, r1, #16
 218 012e 1943     		orrs	r1, r1, r3
 219 0130 D300     		lsls	r3, r2, #3
 220 0132 03F02003 		and	r3, r3, #32
 221 0136 5201     		lsls	r2, r2, #5
 222 0138 0B43     		orrs	r3, r3, r1
 223 013a 02F04002 		and	r2, r2, #64
 224 013e 1A43     		orrs	r2, r2, r3
 225 0140 8DF80720 		strb	r2, [sp, #7]
 175:..\..\..\u8g2\u8g2\csrc/u8x8_d_gp1247ai.c ****                 ptr += 1;
 226              		.loc 1 175 0
 227 0144 0121     		movs	r1, #1
 228 0146 0DF10702 		add	r2, sp, #7
 229 014a 3846     		mov	r0, r7
 230 014c FFF7FEFF 		bl	u8x8_cad_SendData
 231              	.LVL25:
 177:..\..\..\u8g2\u8g2\csrc/u8x8_d_gp1247ai.c ****             }
 232              		.loc 1 177 0
 233 0150 ADB2     		uxth	r5, r5
 234              	.LVL26:
 235 0152 D6E7     		b	.L7
 236              	.L17:
 179:..\..\..\u8g2\u8g2\csrc/u8x8_d_gp1247ai.c ****         } while (arg_int > 0);
 237              		.loc 1 179 0
 238 0154 013C     		subs	r4, r4, #1
 239              	.LVL27:
 180:..\..\..\u8g2\u8g2\csrc/u8x8_d_gp1247ai.c **** 
 240              		.loc 1 180 0
 241 0156 14F0FF04 		ands	r4, r4, #255
ARM GAS  C:\Users\jesse\AppData\Local\Temp\cckpeHIk.s 			page 9


 242              	.LVL28:
 243 015a CDD1     		bne	.L9
 244 015c 8FE7     		b	.L14
 245              	.LVL29:
 246              	.L12:
 185:..\..\..\u8g2\u8g2\csrc/u8x8_d_gp1247ai.c ****     }
 247              		.loc 1 185 0
 248 015e 0020     		movs	r0, #0
 249              	.LVL30:
 250              	.L2:
 188:..\..\..\u8g2\u8g2\csrc/u8x8_d_gp1247ai.c **** }
 251              		.loc 1 188 0
 252 0160 03B0     		add	sp, sp, #12
 253              		.cfi_def_cfa_offset 28
 254              		@ sp needed
 255 0162 BDE8F083 		pop	{r4, r5, r6, r7, r8, r9, pc}
 256              	.LVL31:
 257              	.L19:
 258 0166 00BF     		.align	2
 259              	.L18:
 260 0168 00000000 		.word	.LANCHOR0
 261 016c 0D000000 		.word	.LANCHOR0+13
 262              		.cfi_endproc
 263              	.LFE0:
 264              		.size	u8x8_d_gp1247ai_common, .-u8x8_d_gp1247ai_common
 265              		.section	.text.u8x8_d_gp1247ai_253x63,"ax",%progbits
 266              		.align	1
 267              		.global	u8x8_d_gp1247ai_253x63
 268              		.thumb
 269              		.thumb_func
 270              		.type	u8x8_d_gp1247ai_253x63, %function
 271              	u8x8_d_gp1247ai_253x63:
 272              	.LFB1:
 189:..\..\..\u8g2\u8g2\csrc/u8x8_d_gp1247ai.c **** uint8_t u8x8_d_gp1247ai_253x63(u8x8_t *u8x8, uint8_t msg, uint8_t arg_int, void *arg_ptr)
 190:..\..\..\u8g2\u8g2\csrc/u8x8_d_gp1247ai.c **** {
 273              		.loc 1 190 0
 274              		.cfi_startproc
 275              		@ args = 0, pretend = 0, frame = 0
 276              		@ frame_needed = 0, uses_anonymous_args = 0
 277              	.LVL32:
 191:..\..\..\u8g2\u8g2\csrc/u8x8_d_gp1247ai.c ****     switch (msg)
 278              		.loc 1 191 0
 279 0000 0929     		cmp	r1, #9
 190:..\..\..\u8g2\u8g2\csrc/u8x8_d_gp1247ai.c ****     switch (msg)
 280              		.loc 1 190 0
 281 0002 70B5     		push	{r4, r5, r6, lr}
 282              		.cfi_def_cfa_offset 16
 283              		.cfi_offset 4, -16
 284              		.cfi_offset 5, -12
 285              		.cfi_offset 6, -8
 286              		.cfi_offset 14, -4
 190:..\..\..\u8g2\u8g2\csrc/u8x8_d_gp1247ai.c ****     switch (msg)
 287              		.loc 1 190 0
 288 0004 0546     		mov	r5, r0
 289              		.loc 1 191 0
 290 0006 08D0     		beq	.L22
 291 0008 0A29     		cmp	r1, #10
ARM GAS  C:\Users\jesse\AppData\Local\Temp\cckpeHIk.s 			page 10


 292 000a 0AD1     		bne	.L26
 192:..\..\..\u8g2\u8g2\csrc/u8x8_d_gp1247ai.c ****     {
 193:..\..\..\u8g2\u8g2\csrc/u8x8_d_gp1247ai.c ****     case U8X8_MSG_DISPLAY_SETUP_MEMORY:
 194:..\..\..\u8g2\u8g2\csrc/u8x8_d_gp1247ai.c ****         u8x8_d_helper_display_setup_memory(u8x8, &u8x8_gp1247ai_display_info);
 195:..\..\..\u8g2\u8g2\csrc/u8x8_d_gp1247ai.c ****         break;
 196:..\..\..\u8g2\u8g2\csrc/u8x8_d_gp1247ai.c ****     case U8X8_MSG_DISPLAY_INIT:
 197:..\..\..\u8g2\u8g2\csrc/u8x8_d_gp1247ai.c ****         u8x8_d_helper_display_init(u8x8);
 293              		.loc 1 197 0
 294 000c FFF7FEFF 		bl	u8x8_d_helper_display_init
 295              	.LVL33:
 198:..\..\..\u8g2\u8g2\csrc/u8x8_d_gp1247ai.c ****         u8x8_cad_SendSequence(u8x8, u8x8_d_gp1247ai_init_seq);
 296              		.loc 1 198 0
 297 0010 0749     		ldr	r1, .L27
 298 0012 2846     		mov	r0, r5
 299 0014 FFF7FEFF 		bl	u8x8_cad_SendSequence
 300              	.LVL34:
 199:..\..\..\u8g2\u8g2\csrc/u8x8_d_gp1247ai.c ****         break;
 301              		.loc 1 199 0
 302 0018 07E0     		b	.L24
 303              	.LVL35:
 304              	.L22:
 194:..\..\..\u8g2\u8g2\csrc/u8x8_d_gp1247ai.c ****         break;
 305              		.loc 1 194 0
 306 001a 0649     		ldr	r1, .L27+4
 307              	.LVL36:
 308 001c FFF7FEFF 		bl	u8x8_d_helper_display_setup_memory
 309              	.LVL37:
 195:..\..\..\u8g2\u8g2\csrc/u8x8_d_gp1247ai.c ****     case U8X8_MSG_DISPLAY_INIT:
 310              		.loc 1 195 0
 311 0020 03E0     		b	.L24
 312              	.LVL38:
 313              	.L26:
 200:..\..\..\u8g2\u8g2\csrc/u8x8_d_gp1247ai.c ****     default:
 201:..\..\..\u8g2\u8g2\csrc/u8x8_d_gp1247ai.c ****         return u8x8_d_gp1247ai_common(u8x8, msg, arg_int, arg_ptr);
 202:..\..\..\u8g2\u8g2\csrc/u8x8_d_gp1247ai.c ****     }
 203:..\..\..\u8g2\u8g2\csrc/u8x8_d_gp1247ai.c ****     return 1;
 204:..\..\..\u8g2\u8g2\csrc/u8x8_d_gp1247ai.c **** }
 314              		.loc 1 204 0
 315 0022 BDE87040 		pop	{r4, r5, r6, lr}
 316              		.cfi_remember_state
 317              		.cfi_restore 14
 318              		.cfi_restore 6
 319              		.cfi_restore 5
 320              		.cfi_restore 4
 321              		.cfi_def_cfa_offset 0
 201:..\..\..\u8g2\u8g2\csrc/u8x8_d_gp1247ai.c ****     }
 322              		.loc 1 201 0
 323 0026 FFF7FEBF 		b	u8x8_d_gp1247ai_common
 324              	.LVL39:
 325              	.L24:
 326              		.cfi_restore_state
 327              		.loc 1 204 0
 328 002a 0120     		movs	r0, #1
 329 002c 70BD     		pop	{r4, r5, r6, pc}
 330              	.LVL40:
 331              	.L28:
 332 002e 00BF     		.align	2
ARM GAS  C:\Users\jesse\AppData\Local\Temp\cckpeHIk.s 			page 11


 333              	.L27:
 334 0030 2C000000 		.word	.LANCHOR0+44
 335 0034 14000000 		.word	.LANCHOR0+20
 336              		.cfi_endproc
 337              	.LFE1:
 338              		.size	u8x8_d_gp1247ai_253x63, .-u8x8_d_gp1247ai_253x63
 339              		.section	.rodata
 340              		.align	2
 341              		.set	.LANCHOR0,. + 0
 342              		.type	u8x8_d_gp1247ai_wakeup_seq, %object
 343              		.size	u8x8_d_gp1247ai_wakeup_seq, 13
 344              	u8x8_d_gp1247ai_wakeup_seq:
 345 0000 18       		.byte	24
 346 0001 15       		.byte	21
 347 0002 B6       		.byte	-74
 348 0003 19       		.byte	25
 349 0004 FE       		.byte	-2
 350 0005 01       		.byte	1
 351 0006 18       		.byte	24
 352 0007 15       		.byte	21
 353 0008 01       		.byte	1
 354 0009 16       		.byte	22
 355 000a 01       		.byte	1
 356 000b 19       		.byte	25
 357 000c FF       		.byte	-1
 358              		.type	u8x8_d_gp1247ai_standby_seq, %object
 359              		.size	u8x8_d_gp1247ai_standby_seq, 5
 360              	u8x8_d_gp1247ai_standby_seq:
 361 000d 18       		.byte	24
 362 000e 15       		.byte	21
 363 000f 86       		.byte	-122
 364 0010 19       		.byte	25
 365 0011 FF       		.byte	-1
 366 0012 0000     		.space	2
 367              		.type	u8x8_gp1247ai_display_info, %object
 368              		.size	u8x8_gp1247ai_display_info, 24
 369              	u8x8_gp1247ai_display_info:
 370 0014 00       		.byte	0
 371 0015 01       		.byte	1
 372 0016 F0       		.byte	-16
 373 0017 78       		.byte	120
 374 0018 01       		.byte	1
 375 0019 01       		.byte	1
 376 001a 3C       		.byte	60
 377 001b 78       		.byte	120
 378 001c 00093D00 		.word	4000000
 379 0020 03       		.byte	3
 380 0021 04       		.byte	4
 381 0022 3C       		.byte	60
 382 0023 78       		.byte	120
 383 0024 20       		.byte	32
 384 0025 08       		.byte	8
 385 0026 00       		.byte	0
 386 0027 00       		.byte	0
 387 0028 FD00     		.short	253
 388 002a 3F00     		.short	63
 389              		.type	u8x8_d_gp1247ai_init_seq, %object
ARM GAS  C:\Users\jesse\AppData\Local\Temp\cckpeHIk.s 			page 12


 390              		.size	u8x8_d_gp1247ai_init_seq, 91
 391              	u8x8_d_gp1247ai_init_seq:
 392 002c 18       		.byte	24
 393 002d 15       		.byte	21
 394 002e 55       		.byte	85
 395 002f 19       		.byte	25
 396 0030 FE       		.byte	-2
 397 0031 01       		.byte	1
 398 0032 18       		.byte	24
 399 0033 15       		.byte	21
 400 0034 1E       		.byte	30
 401 0035 16       		.byte	22
 402 0036 10       		.byte	16
 403 0037 19       		.byte	25
 404 0038 18       		.byte	24
 405 0039 15       		.byte	21
 406 003a 33       		.byte	51
 407 003b 16       		.byte	22
 408 003c A0       		.byte	-96
 409 003d 16       		.byte	22
 410 003e 00       		.byte	0
 411 003f 19       		.byte	25
 412 0040 18       		.byte	24
 413 0041 15       		.byte	21
 414 0042 07       		.byte	7
 415 0043 16       		.byte	22
 416 0044 3F       		.byte	63
 417 0045 16       		.byte	22
 418 0046 7C       		.byte	124
 419 0047 16       		.byte	22
 420 0048 00       		.byte	0
 421 0049 16       		.byte	22
 422 004a 04       		.byte	4
 423 004b 16       		.byte	22
 424 004c 01       		.byte	1
 425 004d 16       		.byte	22
 426 004e 01       		.byte	1
 427 004f 16       		.byte	22
 428 0050 01       		.byte	1
 429 0051 19       		.byte	25
 430 0052 18       		.byte	24
 431 0053 15       		.byte	21
 432 0054 8D       		.byte	-115
 433 0055 16       		.byte	22
 434 0056 04       		.byte	4
 435 0057 16       		.byte	22
 436 0058 FC       		.byte	-4
 437 0059 16       		.byte	22
 438 005a 00       		.byte	0
 439 005b 16       		.byte	22
 440 005c 80       		.byte	-128
 441 005d 19       		.byte	25
 442 005e 18       		.byte	24
 443 005f 15       		.byte	21
 444 0060 05       		.byte	5
 445 0061 16       		.byte	22
 446 0062 00       		.byte	0
ARM GAS  C:\Users\jesse\AppData\Local\Temp\cckpeHIk.s 			page 13


 447 0063 16       		.byte	22
 448 0064 14       		.byte	20
 449 0065 19       		.byte	25
 450 0066 18       		.byte	24
 451 0067 15       		.byte	21
 452 0068 AA       		.byte	-86
 453 0069 19       		.byte	25
 454 006a FE       		.byte	-2
 455 006b 0F       		.byte	15
 456 006c 18       		.byte	24
 457 006d 15       		.byte	21
 458 006e 03       		.byte	3
 459 006f 16       		.byte	22
 460 0070 00       		.byte	0
 461 0071 16       		.byte	22
 462 0072 00       		.byte	0
 463 0073 19       		.byte	25
 464 0074 18       		.byte	24
 465 0075 15       		.byte	21
 466 0076 0B       		.byte	11
 467 0077 16       		.byte	22
 468 0078 00       		.byte	0
 469 0079 16       		.byte	22
 470 007a 02       		.byte	2
 471 007b 19       		.byte	25
 472 007c 18       		.byte	24
 473 007d 15       		.byte	21
 474 007e 01       		.byte	1
 475 007f 16       		.byte	22
 476 0080 01       		.byte	1
 477 0081 19       		.byte	25
 478 0082 18       		.byte	24
 479 0083 15       		.byte	21
 480 0084 86       		.byte	-122
 481 0085 19       		.byte	25
 482 0086 FF       		.byte	-1
 483              		.text
 484              	.Letext0:
 485              		.file 2 "c:\\program files (x86)\\cypress\\psoc creator\\4.4\\psoc creator\\import\\gnu\\arm\\5.4.
 486              		.file 3 "c:\\program files (x86)\\cypress\\psoc creator\\4.4\\psoc creator\\import\\gnu\\arm\\5.4.
 487              		.file 4 "..\\..\\..\\u8g2\\u8g2\\csrc\\u8x8.h"