ARM GAS  C:\Users\jesse\AppData\Local\Temp\ccyEMBVt.s 			page 1


   1              		.syntax unified
   2              		.cpu cortex-m3
   3              		.fpu softvfp
   4              		.eabi_attribute 20, 1
   5              		.eabi_attribute 21, 1
   6              		.eabi_attribute 23, 3
   7              		.eabi_attribute 24, 1
   8              		.eabi_attribute 25, 1
   9              		.eabi_attribute 26, 1
  10              		.eabi_attribute 30, 4
  11              		.eabi_attribute 34, 1
  12              		.eabi_attribute 18, 4
  13              		.thumb
  14              		.syntax unified
  15              		.file	"u8x8_d_gu800.c"
  16              		.text
  17              	.Ltext0:
  18              		.cfi_sections	.debug_frame
  19              		.section	.text.u8x8_d_gu800_common,"ax",%progbits
  20              		.align	1
  21              		.global	u8x8_d_gu800_common
  22              		.thumb
  23              		.thumb_func
  24              		.type	u8x8_d_gu800_common, %function
  25              	u8x8_d_gu800_common:
  26              	.LFB0:
  27              		.file 1 "..\\..\\..\\u8g2\\u8g2\\csrc\\u8x8_d_gu800.c"
   1:..\..\..\u8g2\u8g2\csrc/u8x8_d_gu800.c **** /*
   2:..\..\..\u8g2\u8g2\csrc/u8x8_d_gu800.c **** 
   3:..\..\..\u8g2\u8g2\csrc/u8x8_d_gu800.c ****   u8x8_d_gu800.c
   4:..\..\..\u8g2\u8g2\csrc/u8x8_d_gu800.c ****   
   5:..\..\..\u8g2\u8g2\csrc/u8x8_d_gu800.c ****   Support for GU800 series of VFD displays
   6:..\..\..\u8g2\u8g2\csrc/u8x8_d_gu800.c ****   https://www.noritake-elec.com/products/vfd-display-module/dot-matrix-graphic-display/gu-800-serie
   7:..\..\..\u8g2\u8g2\csrc/u8x8_d_gu800.c ****   
   8:..\..\..\u8g2\u8g2\csrc/u8x8_d_gu800.c ****   Universal 8bit Graphics Library (https://github.com/olikraus/u8g2/)
   9:..\..\..\u8g2\u8g2\csrc/u8x8_d_gu800.c **** 
  10:..\..\..\u8g2\u8g2\csrc/u8x8_d_gu800.c ****   Copyright (c) 2021, olikraus@gmail.com
  11:..\..\..\u8g2\u8g2\csrc/u8x8_d_gu800.c ****   All rights reserved.
  12:..\..\..\u8g2\u8g2\csrc/u8x8_d_gu800.c **** 
  13:..\..\..\u8g2\u8g2\csrc/u8x8_d_gu800.c ****   Redistribution and use in source and binary forms, with or without modification, 
  14:..\..\..\u8g2\u8g2\csrc/u8x8_d_gu800.c ****   are permitted provided that the following conditions are met:
  15:..\..\..\u8g2\u8g2\csrc/u8x8_d_gu800.c **** 
  16:..\..\..\u8g2\u8g2\csrc/u8x8_d_gu800.c ****   * Redistributions of source code must retain the above copyright notice, this list 
  17:..\..\..\u8g2\u8g2\csrc/u8x8_d_gu800.c ****     of conditions and the following disclaimer.
  18:..\..\..\u8g2\u8g2\csrc/u8x8_d_gu800.c ****     
  19:..\..\..\u8g2\u8g2\csrc/u8x8_d_gu800.c ****   * Redistributions in binary form must reproduce the above copyright notice, this 
  20:..\..\..\u8g2\u8g2\csrc/u8x8_d_gu800.c ****     list of conditions and the following disclaimer in the documentation and/or other 
  21:..\..\..\u8g2\u8g2\csrc/u8x8_d_gu800.c ****     materials provided with the distribution.
  22:..\..\..\u8g2\u8g2\csrc/u8x8_d_gu800.c **** 
  23:..\..\..\u8g2\u8g2\csrc/u8x8_d_gu800.c ****   THIS SOFTWARE IS PROVIDED BY THE COPYRIGHT HOLDERS AND 
  24:..\..\..\u8g2\u8g2\csrc/u8x8_d_gu800.c ****   CONTRIBUTORS "AS IS" AND ANY EXPRESS OR IMPLIED WARRANTIES, 
  25:..\..\..\u8g2\u8g2\csrc/u8x8_d_gu800.c ****   INCLUDING, BUT NOT LIMITED TO, THE IMPLIED WARRANTIES OF 
  26:..\..\..\u8g2\u8g2\csrc/u8x8_d_gu800.c ****   MERCHANTABILITY AND FITNESS FOR A PARTICULAR PURPOSE ARE 
  27:..\..\..\u8g2\u8g2\csrc/u8x8_d_gu800.c ****   DISCLAIMED. IN NO EVENT SHALL THE COPYRIGHT HOLDER OR 
  28:..\..\..\u8g2\u8g2\csrc/u8x8_d_gu800.c ****   CONTRIBUTORS BE LIABLE FOR ANY DIRECT, INDIRECT, INCIDENTAL, 
  29:..\..\..\u8g2\u8g2\csrc/u8x8_d_gu800.c ****   SPECIAL, EXEMPLARY, OR CONSEQUENTIAL DAMAGES (INCLUDING, BUT 
  30:..\..\..\u8g2\u8g2\csrc/u8x8_d_gu800.c ****   NOT LIMITED TO, PROCUREMENT OF SUBSTITUTE GOODS OR SERVICES; 
ARM GAS  C:\Users\jesse\AppData\Local\Temp\ccyEMBVt.s 			page 2


  31:..\..\..\u8g2\u8g2\csrc/u8x8_d_gu800.c ****   LOSS OF USE, DATA, OR PROFITS; OR BUSINESS INTERRUPTION) HOWEVER 
  32:..\..\..\u8g2\u8g2\csrc/u8x8_d_gu800.c ****   CAUSED AND ON ANY THEORY OF LIABILITY, WHETHER IN CONTRACT, 
  33:..\..\..\u8g2\u8g2\csrc/u8x8_d_gu800.c ****   STRICT LIABILITY, OR TORT (INCLUDING NEGLIGENCE OR OTHERWISE) 
  34:..\..\..\u8g2\u8g2\csrc/u8x8_d_gu800.c ****   ARISING IN ANY WAY OUT OF THE USE OF THIS SOFTWARE, EVEN IF 
  35:..\..\..\u8g2\u8g2\csrc/u8x8_d_gu800.c ****   ADVISED OF THE POSSIBILITY OF SUCH DAMAGE.  
  36:..\..\..\u8g2\u8g2\csrc/u8x8_d_gu800.c **** 
  37:..\..\..\u8g2\u8g2\csrc/u8x8_d_gu800.c ****   
  38:..\..\..\u8g2\u8g2\csrc/u8x8_d_gu800.c ****  
  39:..\..\..\u8g2\u8g2\csrc/u8x8_d_gu800.c ****   u8x8_gu800_cad_110
  40:..\..\..\u8g2\u8g2\csrc/u8x8_d_gu800.c ****   
  41:..\..\..\u8g2\u8g2\csrc/u8x8_d_gu800.c ****   WARNING: DO NOT USE THIS FILE AS TEMPLATE:
  42:..\..\..\u8g2\u8g2\csrc/u8x8_d_gu800.c ****   
  43:..\..\..\u8g2\u8g2\csrc/u8x8_d_gu800.c ****   This code requires a special cad callback which includes the start
  44:..\..\..\u8g2\u8g2\csrc/u8x8_d_gu800.c ****   and end transfer code. As a consequence this code does not include any
  45:..\..\..\u8g2\u8g2\csrc/u8x8_d_gu800.c ****   start / end transfer calls.
  46:..\..\..\u8g2\u8g2\csrc/u8x8_d_gu800.c ****   
  47:..\..\..\u8g2\u8g2\csrc/u8x8_d_gu800.c **** */
  48:..\..\..\u8g2\u8g2\csrc/u8x8_d_gu800.c **** #include "u8x8.h"
  49:..\..\..\u8g2\u8g2\csrc/u8x8_d_gu800.c **** 
  50:..\..\..\u8g2\u8g2\csrc/u8x8_d_gu800.c **** 
  51:..\..\..\u8g2\u8g2\csrc/u8x8_d_gu800.c **** 
  52:..\..\..\u8g2\u8g2\csrc/u8x8_d_gu800.c **** 
  53:..\..\..\u8g2\u8g2\csrc/u8x8_d_gu800.c **** static const uint8_t u8x8_d_gu800_128x64_powersave0_seq[] = {
  54:..\..\..\u8g2\u8g2\csrc/u8x8_d_gu800.c ****   U8X8_CA(0x024, 0x040),		        /* Byte 1: Layer 0010xx00, Byte 2: 0x40 (graphics on, normal mode
  55:..\..\..\u8g2\u8g2\csrc/u8x8_d_gu800.c ****   U8X8_END()             			/* end of sequence */
  56:..\..\..\u8g2\u8g2\csrc/u8x8_d_gu800.c **** };
  57:..\..\..\u8g2\u8g2\csrc/u8x8_d_gu800.c **** 
  58:..\..\..\u8g2\u8g2\csrc/u8x8_d_gu800.c **** static const uint8_t u8x8_d_gu800_128x64_powersave1_seq[] = {
  59:..\..\..\u8g2\u8g2\csrc/u8x8_d_gu800.c ****   U8X8_CA(0x020, 0x040),		        /* Byte 1: Layer 0010xx00, Byte 2: 0x40 (graphics on, normal mode
  60:..\..\..\u8g2\u8g2\csrc/u8x8_d_gu800.c ****   U8X8_END()             			/* end of sequence */
  61:..\..\..\u8g2\u8g2\csrc/u8x8_d_gu800.c **** };
  62:..\..\..\u8g2\u8g2\csrc/u8x8_d_gu800.c **** 
  63:..\..\..\u8g2\u8g2\csrc/u8x8_d_gu800.c **** /* hardware flip is not supported by GU800 */
  64:..\..\..\u8g2\u8g2\csrc/u8x8_d_gu800.c **** #ifdef NOT_SUPPORTED
  65:..\..\..\u8g2\u8g2\csrc/u8x8_d_gu800.c **** static const uint8_t u8x8_d_gu800_128x64_flip0_seq[] = {
  66:..\..\..\u8g2\u8g2\csrc/u8x8_d_gu800.c ****   U8X8_START_TRANSFER(),             	/* enable chip, delay is part of the transfer start */
  67:..\..\..\u8g2\u8g2\csrc/u8x8_d_gu800.c ****   U8X8_END_TRANSFER(),             	/* disable chip */
  68:..\..\..\u8g2\u8g2\csrc/u8x8_d_gu800.c ****   U8X8_END()             			/* end of sequence */
  69:..\..\..\u8g2\u8g2\csrc/u8x8_d_gu800.c **** };
  70:..\..\..\u8g2\u8g2\csrc/u8x8_d_gu800.c **** 
  71:..\..\..\u8g2\u8g2\csrc/u8x8_d_gu800.c **** static const uint8_t u8x8_d_gu800_128x64_flip1_seq[] = {
  72:..\..\..\u8g2\u8g2\csrc/u8x8_d_gu800.c ****   U8X8_START_TRANSFER(),             	/* enable chip, delay is part of the transfer start */
  73:..\..\..\u8g2\u8g2\csrc/u8x8_d_gu800.c ****   U8X8_END_TRANSFER(),             	/* disable chip */
  74:..\..\..\u8g2\u8g2\csrc/u8x8_d_gu800.c ****   U8X8_END()             			/* end of sequence */
  75:..\..\..\u8g2\u8g2\csrc/u8x8_d_gu800.c **** };
  76:..\..\..\u8g2\u8g2\csrc/u8x8_d_gu800.c **** #endif
  77:..\..\..\u8g2\u8g2\csrc/u8x8_d_gu800.c **** 
  78:..\..\..\u8g2\u8g2\csrc/u8x8_d_gu800.c **** uint8_t u8x8_d_gu800_common(u8x8_t *u8x8, uint8_t msg, uint8_t arg_int, void *arg_ptr)
  79:..\..\..\u8g2\u8g2\csrc/u8x8_d_gu800.c **** {
  28              		.loc 1 79 0
  29              		.cfi_startproc
  30              		@ args = 0, pretend = 0, frame = 0
  31              		@ frame_needed = 0, uses_anonymous_args = 0
  32              	.LVL0:
  80:..\..\..\u8g2\u8g2\csrc/u8x8_d_gu800.c ****   uint8_t x, c;
  81:..\..\..\u8g2\u8g2\csrc/u8x8_d_gu800.c ****   uint8_t *ptr;
  82:..\..\..\u8g2\u8g2\csrc/u8x8_d_gu800.c ****   switch(msg)
ARM GAS  C:\Users\jesse\AppData\Local\Temp\ccyEMBVt.s 			page 3


  33              		.loc 1 82 0
  34 0000 0E29     		cmp	r1, #14
  79:..\..\..\u8g2\u8g2\csrc/u8x8_d_gu800.c ****   uint8_t x, c;
  35              		.loc 1 79 0
  36 0002 2DE9F041 		push	{r4, r5, r6, r7, r8, lr}
  37              		.cfi_def_cfa_offset 24
  38              		.cfi_offset 4, -24
  39              		.cfi_offset 5, -20
  40              		.cfi_offset 6, -16
  41              		.cfi_offset 7, -12
  42              		.cfi_offset 8, -8
  43              		.cfi_offset 14, -4
  79:..\..\..\u8g2\u8g2\csrc/u8x8_d_gu800.c ****   uint8_t x, c;
  44              		.loc 1 79 0
  45 0006 0646     		mov	r6, r0
  46 0008 1446     		mov	r4, r2
  47 000a 1F46     		mov	r7, r3
  48              		.loc 1 82 0
  49 000c 0AD0     		beq	.L3
  50 000e 0F29     		cmp	r1, #15
  51 0010 10D0     		beq	.L4
  52 0012 0B29     		cmp	r1, #11
  53 0014 3ED1     		bne	.L11
  83:..\..\..\u8g2\u8g2\csrc/u8x8_d_gu800.c ****   {
  84:..\..\..\u8g2\u8g2\csrc/u8x8_d_gu800.c ****     case U8X8_MSG_DISPLAY_SET_POWER_SAVE:
  85:..\..\..\u8g2\u8g2\csrc/u8x8_d_gu800.c ****       if ( arg_int == 0 )
  54              		.loc 1 85 0
  55 0016 0AB9     		cbnz	r2, .L6
  86:..\..\..\u8g2\u8g2\csrc/u8x8_d_gu800.c **** 	u8x8_cad_SendSequence(u8x8, u8x8_d_gu800_128x64_powersave0_seq);
  56              		.loc 1 86 0
  57 0018 2049     		ldr	r1, .L15
  58              	.LVL1:
  59 001a 00E0     		b	.L13
  60              	.LVL2:
  61              	.L6:
  87:..\..\..\u8g2\u8g2\csrc/u8x8_d_gu800.c ****       else
  88:..\..\..\u8g2\u8g2\csrc/u8x8_d_gu800.c **** 	u8x8_cad_SendSequence(u8x8, u8x8_d_gu800_128x64_powersave1_seq);
  62              		.loc 1 88 0
  63 001c 2049     		ldr	r1, .L15+4
  64              	.LVL3:
  65              	.L13:
  66 001e FFF7FEFF 		bl	u8x8_cad_SendSequence
  67              	.LVL4:
  68 0022 04E0     		b	.L12
  69              	.LVL5:
  70              	.L3:
  89:..\..\..\u8g2\u8g2\csrc/u8x8_d_gu800.c ****       break;
  90:..\..\..\u8g2\u8g2\csrc/u8x8_d_gu800.c **** #ifdef NOT_SUPPORTED
  91:..\..\..\u8g2\u8g2\csrc/u8x8_d_gu800.c ****     case U8X8_MSG_DISPLAY_SET_FLIP_MODE:
  92:..\..\..\u8g2\u8g2\csrc/u8x8_d_gu800.c ****       if ( arg_int == 0 )
  93:..\..\..\u8g2\u8g2\csrc/u8x8_d_gu800.c ****       {
  94:..\..\..\u8g2\u8g2\csrc/u8x8_d_gu800.c **** 	u8x8_cad_SendSequence(u8x8, u8x8_d_gu800_128x64_flip0_seq);
  95:..\..\..\u8g2\u8g2\csrc/u8x8_d_gu800.c **** 	u8x8->x_offset = u8x8->display_info->default_x_offset;
  96:..\..\..\u8g2\u8g2\csrc/u8x8_d_gu800.c ****       }
  97:..\..\..\u8g2\u8g2\csrc/u8x8_d_gu800.c ****       else
  98:..\..\..\u8g2\u8g2\csrc/u8x8_d_gu800.c ****       {
  99:..\..\..\u8g2\u8g2\csrc/u8x8_d_gu800.c **** 	u8x8_cad_SendSequence(u8x8, u8x8_d_gu800_128x64_flip1_seq);
ARM GAS  C:\Users\jesse\AppData\Local\Temp\ccyEMBVt.s 			page 4


 100:..\..\..\u8g2\u8g2\csrc/u8x8_d_gu800.c **** 	u8x8->x_offset = u8x8->display_info->flipmode_x_offset;
 101:..\..\..\u8g2\u8g2\csrc/u8x8_d_gu800.c ****       }	
 102:..\..\..\u8g2\u8g2\csrc/u8x8_d_gu800.c ****       break;
 103:..\..\..\u8g2\u8g2\csrc/u8x8_d_gu800.c **** #endif
 104:..\..\..\u8g2\u8g2\csrc/u8x8_d_gu800.c **** #ifdef U8X8_WITH_SET_CONTRAST
 105:..\..\..\u8g2\u8g2\csrc/u8x8_d_gu800.c ****     case U8X8_MSG_DISPLAY_SET_CONTRAST:
 106:..\..\..\u8g2\u8g2\csrc/u8x8_d_gu800.c ****       u8x8_cad_SendCmd(u8x8, 0x40 | (arg_int >> 4) );	/* GU800 has range from 0..15 */
  71              		.loc 1 106 0
  72 0024 1109     		lsrs	r1, r2, #4
  73              	.LVL6:
  74 0026 41F04001 		orr	r1, r1, #64
  75 002a FFF7FEFF 		bl	u8x8_cad_SendCmd
  76              	.LVL7:
  77              	.L12:
 107:..\..\..\u8g2\u8g2\csrc/u8x8_d_gu800.c ****       break;
 108:..\..\..\u8g2\u8g2\csrc/u8x8_d_gu800.c **** #endif
 109:..\..\..\u8g2\u8g2\csrc/u8x8_d_gu800.c ****     case U8X8_MSG_DISPLAY_DRAW_TILE:
 110:..\..\..\u8g2\u8g2\csrc/u8x8_d_gu800.c ****     
 111:..\..\..\u8g2\u8g2\csrc/u8x8_d_gu800.c ****       x = ((u8x8_tile_t *)arg_ptr)->x_pos;
 112:..\..\..\u8g2\u8g2\csrc/u8x8_d_gu800.c ****       x *= 8;
 113:..\..\..\u8g2\u8g2\csrc/u8x8_d_gu800.c ****       x += u8x8->x_offset;
 114:..\..\..\u8g2\u8g2\csrc/u8x8_d_gu800.c ****       u8x8_cad_SendCmd(u8x8, 0x064 );
 115:..\..\..\u8g2\u8g2\csrc/u8x8_d_gu800.c ****       u8x8_cad_SendArg(u8x8, x );
 116:..\..\..\u8g2\u8g2\csrc/u8x8_d_gu800.c ****       u8x8_cad_SendCmd(u8x8, 0x060 );
 117:..\..\..\u8g2\u8g2\csrc/u8x8_d_gu800.c ****       u8x8_cad_SendArg(u8x8, (((u8x8_tile_t *)arg_ptr)->y_pos) );
 118:..\..\..\u8g2\u8g2\csrc/u8x8_d_gu800.c ****     
 119:..\..\..\u8g2\u8g2\csrc/u8x8_d_gu800.c ****       do
 120:..\..\..\u8g2\u8g2\csrc/u8x8_d_gu800.c ****       {
 121:..\..\..\u8g2\u8g2\csrc/u8x8_d_gu800.c ****         c = ((u8x8_tile_t *)arg_ptr)->cnt;
 122:..\..\..\u8g2\u8g2\csrc/u8x8_d_gu800.c ****         ptr = ((u8x8_tile_t *)arg_ptr)->tile_ptr;
 123:..\..\..\u8g2\u8g2\csrc/u8x8_d_gu800.c ****         /* SendData can not handle more than 255 bytes, treat c > 31 correctly  */
 124:..\..\..\u8g2\u8g2\csrc/u8x8_d_gu800.c ****         if ( c > 31 )
 125:..\..\..\u8g2\u8g2\csrc/u8x8_d_gu800.c ****         {
 126:..\..\..\u8g2\u8g2\csrc/u8x8_d_gu800.c ****           u8x8_cad_SendData(u8x8, 248, ptr); 	/* 31*8=248 */
 127:..\..\..\u8g2\u8g2\csrc/u8x8_d_gu800.c ****           ptr+=248;
 128:..\..\..\u8g2\u8g2\csrc/u8x8_d_gu800.c ****           c -= 31;
 129:..\..\..\u8g2\u8g2\csrc/u8x8_d_gu800.c ****         }
 130:..\..\..\u8g2\u8g2\csrc/u8x8_d_gu800.c ****         u8x8_cad_SendData(u8x8, c*8, ptr); 	
 131:..\..\..\u8g2\u8g2\csrc/u8x8_d_gu800.c **** 	arg_int--;
 132:..\..\..\u8g2\u8g2\csrc/u8x8_d_gu800.c ****       } while( arg_int > 0 );
 133:..\..\..\u8g2\u8g2\csrc/u8x8_d_gu800.c ****       break;
 134:..\..\..\u8g2\u8g2\csrc/u8x8_d_gu800.c ****     default:
 135:..\..\..\u8g2\u8g2\csrc/u8x8_d_gu800.c ****       return 0;
 136:..\..\..\u8g2\u8g2\csrc/u8x8_d_gu800.c ****   }
 137:..\..\..\u8g2\u8g2\csrc/u8x8_d_gu800.c ****   return 1;
  78              		.loc 1 137 0
  79 002e 0120     		movs	r0, #1
 107:..\..\..\u8g2\u8g2\csrc/u8x8_d_gu800.c ****       break;
  80              		.loc 1 107 0
  81 0030 BDE8F081 		pop	{r4, r5, r6, r7, r8, pc}
  82              	.LVL8:
  83              	.L4:
  84              	.LBB4:
  85              	.LBB5:
 111:..\..\..\u8g2\u8g2\csrc/u8x8_d_gu800.c ****       x *= 8;
  86              		.loc 1 111 0
  87 0034 5D79     		ldrb	r5, [r3, #5]	@ zero_extendqisi2
ARM GAS  C:\Users\jesse\AppData\Local\Temp\ccyEMBVt.s 			page 5


  88              	.LVL9:
 113:..\..\..\u8g2\u8g2\csrc/u8x8_d_gu800.c ****       u8x8_cad_SendCmd(u8x8, 0x064 );
  89              		.loc 1 113 0
  90 0036 90F82230 		ldrb	r3, [r0, #34]	@ zero_extendqisi2
  91              	.LVL10:
 114:..\..\..\u8g2\u8g2\csrc/u8x8_d_gu800.c ****       u8x8_cad_SendArg(u8x8, x );
  92              		.loc 1 114 0
  93 003a 6421     		movs	r1, #100
  94              	.LVL11:
 113:..\..\..\u8g2\u8g2\csrc/u8x8_d_gu800.c ****       u8x8_cad_SendCmd(u8x8, 0x064 );
  95              		.loc 1 113 0
  96 003c 03EBC505 		add	r5, r3, r5, lsl #3
  97              	.LVL12:
  98 0040 05F0FF05 		and	r5, r5, #255
  99              	.LVL13:
 114:..\..\..\u8g2\u8g2\csrc/u8x8_d_gu800.c ****       u8x8_cad_SendArg(u8x8, x );
 100              		.loc 1 114 0
 101 0044 FFF7FEFF 		bl	u8x8_cad_SendCmd
 102              	.LVL14:
 115:..\..\..\u8g2\u8g2\csrc/u8x8_d_gu800.c ****       u8x8_cad_SendCmd(u8x8, 0x060 );
 103              		.loc 1 115 0
 104 0048 2946     		mov	r1, r5
 105 004a 3046     		mov	r0, r6
 106 004c FFF7FEFF 		bl	u8x8_cad_SendArg
 107              	.LVL15:
 116:..\..\..\u8g2\u8g2\csrc/u8x8_d_gu800.c ****       u8x8_cad_SendArg(u8x8, (((u8x8_tile_t *)arg_ptr)->y_pos) );
 108              		.loc 1 116 0
 109 0050 6021     		movs	r1, #96
 110 0052 3046     		mov	r0, r6
 111 0054 FFF7FEFF 		bl	u8x8_cad_SendCmd
 112              	.LVL16:
 117:..\..\..\u8g2\u8g2\csrc/u8x8_d_gu800.c ****     
 113              		.loc 1 117 0
 114 0058 B979     		ldrb	r1, [r7, #6]	@ zero_extendqisi2
 115 005a 3046     		mov	r0, r6
 116 005c FFF7FEFF 		bl	u8x8_cad_SendArg
 117              	.LVL17:
 118              	.L8:
 121:..\..\..\u8g2\u8g2\csrc/u8x8_d_gu800.c ****         ptr = ((u8x8_tile_t *)arg_ptr)->tile_ptr;
 119              		.loc 1 121 0
 120 0060 3D79     		ldrb	r5, [r7, #4]	@ zero_extendqisi2
 121              	.LVL18:
 122:..\..\..\u8g2\u8g2\csrc/u8x8_d_gu800.c ****         /* SendData can not handle more than 255 bytes, treat c > 31 correctly  */
 122              		.loc 1 122 0
 123 0062 D7F80080 		ldr	r8, [r7]
 124              	.LVL19:
 124:..\..\..\u8g2\u8g2\csrc/u8x8_d_gu800.c ****         {
 125              		.loc 1 124 0
 126 0066 1F2D     		cmp	r5, #31
 127 0068 08D9     		bls	.L7
 126:..\..\..\u8g2\u8g2\csrc/u8x8_d_gu800.c ****           ptr+=248;
 128              		.loc 1 126 0
 129 006a 4246     		mov	r2, r8
 130 006c F821     		movs	r1, #248
 131 006e 3046     		mov	r0, r6
 132 0070 FFF7FEFF 		bl	u8x8_cad_SendData
 133              	.LVL20:
ARM GAS  C:\Users\jesse\AppData\Local\Temp\ccyEMBVt.s 			page 6


 128:..\..\..\u8g2\u8g2\csrc/u8x8_d_gu800.c ****         }
 134              		.loc 1 128 0
 135 0074 1F3D     		subs	r5, r5, #31
 136              	.LVL21:
 127:..\..\..\u8g2\u8g2\csrc/u8x8_d_gu800.c ****           c -= 31;
 137              		.loc 1 127 0
 138 0076 08F1F808 		add	r8, r8, #248
 139              	.LVL22:
 128:..\..\..\u8g2\u8g2\csrc/u8x8_d_gu800.c ****         }
 140              		.loc 1 128 0
 141 007a EDB2     		uxtb	r5, r5
 142              	.LVL23:
 143              	.L7:
 130:..\..\..\u8g2\u8g2\csrc/u8x8_d_gu800.c **** 	arg_int--;
 144              		.loc 1 130 0
 145 007c E900     		lsls	r1, r5, #3
 146 007e 4246     		mov	r2, r8
 147 0080 01F0F801 		and	r1, r1, #248
 148 0084 3046     		mov	r0, r6
 131:..\..\..\u8g2\u8g2\csrc/u8x8_d_gu800.c ****       } while( arg_int > 0 );
 149              		.loc 1 131 0
 150 0086 013C     		subs	r4, r4, #1
 151              	.LVL24:
 130:..\..\..\u8g2\u8g2\csrc/u8x8_d_gu800.c **** 	arg_int--;
 152              		.loc 1 130 0
 153 0088 FFF7FEFF 		bl	u8x8_cad_SendData
 154              	.LVL25:
 132:..\..\..\u8g2\u8g2\csrc/u8x8_d_gu800.c ****       break;
 155              		.loc 1 132 0
 156 008c 14F0FF04 		ands	r4, r4, #255
 157              	.LVL26:
 158 0090 E6D1     		bne	.L8
 159 0092 CCE7     		b	.L12
 160              	.LVL27:
 161              	.L11:
 162              	.LBE5:
 163              	.LBE4:
 135:..\..\..\u8g2\u8g2\csrc/u8x8_d_gu800.c ****   }
 164              		.loc 1 135 0
 165 0094 0020     		movs	r0, #0
 166              	.LVL28:
 138:..\..\..\u8g2\u8g2\csrc/u8x8_d_gu800.c **** }
 167              		.loc 1 138 0
 168 0096 BDE8F081 		pop	{r4, r5, r6, r7, r8, pc}
 169              	.LVL29:
 170              	.L16:
 171 009a 00BF     		.align	2
 172              	.L15:
 173 009c 00000000 		.word	.LANCHOR0
 174 00a0 05000000 		.word	.LANCHOR0+5
 175              		.cfi_endproc
 176              	.LFE0:
 177              		.size	u8x8_d_gu800_common, .-u8x8_d_gu800_common
 178              		.section	.text.u8x8_d_gu800_128x64,"ax",%progbits
 179              		.align	1
 180              		.global	u8x8_d_gu800_128x64
 181              		.thumb
ARM GAS  C:\Users\jesse\AppData\Local\Temp\ccyEMBVt.s 			page 7


 182              		.thumb_func
 183              		.type	u8x8_d_gu800_128x64, %function
 184              	u8x8_d_gu800_128x64:
 185              	.LFB1:
 139:..\..\..\u8g2\u8g2\csrc/u8x8_d_gu800.c **** 
 140:..\..\..\u8g2\u8g2\csrc/u8x8_d_gu800.c **** /*=================================================*/
 141:..\..\..\u8g2\u8g2\csrc/u8x8_d_gu800.c **** 
 142:..\..\..\u8g2\u8g2\csrc/u8x8_d_gu800.c **** static const uint8_t u8x8_d_gu800_128x64_init_seq[] = {
 143:..\..\..\u8g2\u8g2\csrc/u8x8_d_gu800.c ****     
 144:..\..\..\u8g2\u8g2\csrc/u8x8_d_gu800.c ****   U8X8_START_TRANSFER(),             	/* enable chip, delay is part of the transfer start */
 145:..\..\..\u8g2\u8g2\csrc/u8x8_d_gu800.c ****   
 146:..\..\..\u8g2\u8g2\csrc/u8x8_d_gu800.c ****   U8X8_C(0x05f),                                /* clear all RAM, clear address counters */
 147:..\..\..\u8g2\u8g2\csrc/u8x8_d_gu800.c ****   U8X8_DLY(1),                                  /* delay for 1 ms (see datasheet) */
 148:..\..\..\u8g2\u8g2\csrc/u8x8_d_gu800.c ****   
 149:..\..\..\u8g2\u8g2\csrc/u8x8_d_gu800.c ****   /* configure all area as graphics RAM */
 150:..\..\..\u8g2\u8g2\csrc/u8x8_d_gu800.c ****   U8X8_CA(0x62,0), U8X8_D1(0xff),
 151:..\..\..\u8g2\u8g2\csrc/u8x8_d_gu800.c ****   U8X8_CA(0x62,1), U8X8_D1(0xff),
 152:..\..\..\u8g2\u8g2\csrc/u8x8_d_gu800.c ****   U8X8_CA(0x62,2), U8X8_D1(0xff),
 153:..\..\..\u8g2\u8g2\csrc/u8x8_d_gu800.c ****   U8X8_CA(0x62,3), U8X8_D1(0xff),
 154:..\..\..\u8g2\u8g2\csrc/u8x8_d_gu800.c ****   U8X8_CA(0x62,4), U8X8_D1(0xff),
 155:..\..\..\u8g2\u8g2\csrc/u8x8_d_gu800.c ****   U8X8_CA(0x62,5), U8X8_D1(0xff),
 156:..\..\..\u8g2\u8g2\csrc/u8x8_d_gu800.c ****   U8X8_CA(0x62,6), U8X8_D1(0xff),
 157:..\..\..\u8g2\u8g2\csrc/u8x8_d_gu800.c ****   U8X8_CA(0x62,7), U8X8_D1(0xff),
 158:..\..\..\u8g2\u8g2\csrc/u8x8_d_gu800.c ****   
 159:..\..\..\u8g2\u8g2\csrc/u8x8_d_gu800.c ****   U8X8_CA(0x70, 0),                             /* horizontal shift */
 160:..\..\..\u8g2\u8g2\csrc/u8x8_d_gu800.c ****   U8X8_C(0xb0),                                 /* vertical shift */  
 161:..\..\..\u8g2\u8g2\csrc/u8x8_d_gu800.c ****   U8X8_C(0x4f),                                 /* max brightness */
 162:..\..\..\u8g2\u8g2\csrc/u8x8_d_gu800.c ****   U8X8_C(0x84),                                 /* x increment */
 163:..\..\..\u8g2\u8g2\csrc/u8x8_d_gu800.c ****   
 164:..\..\..\u8g2\u8g2\csrc/u8x8_d_gu800.c ****   // U8X8_CA(0x024, 0x040)              /* display on */
 165:..\..\..\u8g2\u8g2\csrc/u8x8_d_gu800.c ****   
 166:..\..\..\u8g2\u8g2\csrc/u8x8_d_gu800.c ****   U8X8_END_TRANSFER(),             	/* disable chip */
 167:..\..\..\u8g2\u8g2\csrc/u8x8_d_gu800.c ****   U8X8_END()             			/* end of sequence */
 168:..\..\..\u8g2\u8g2\csrc/u8x8_d_gu800.c **** };
 169:..\..\..\u8g2\u8g2\csrc/u8x8_d_gu800.c **** 
 170:..\..\..\u8g2\u8g2\csrc/u8x8_d_gu800.c **** 
 171:..\..\..\u8g2\u8g2\csrc/u8x8_d_gu800.c **** static const u8x8_display_info_t u8x8_d_gu800_128x64_display_info =
 172:..\..\..\u8g2\u8g2\csrc/u8x8_d_gu800.c **** {
 173:..\..\..\u8g2\u8g2\csrc/u8x8_d_gu800.c ****   /* chip_enable_level = */ 0,      /* GU800: CSS signal */
 174:..\..\..\u8g2\u8g2\csrc/u8x8_d_gu800.c ****   /* chip_disable_level = */ 1,     /* GU800: CSS signal */
 175:..\..\..\u8g2\u8g2\csrc/u8x8_d_gu800.c ****   
 176:..\..\..\u8g2\u8g2\csrc/u8x8_d_gu800.c ****   /* post_chip_enable_wait_ns = */ 40,
 177:..\..\..\u8g2\u8g2\csrc/u8x8_d_gu800.c ****   /* pre_chip_disable_wait_ns = */ 150,
 178:..\..\..\u8g2\u8g2\csrc/u8x8_d_gu800.c ****   /* reset_pulse_width_ms = */ 2,   /* GU800: Unspecified in datasheet */
 179:..\..\..\u8g2\u8g2\csrc/u8x8_d_gu800.c ****   /* post_reset_wait_ms = */ 2,     /* GU800: Min 1.5ms per datasheet */
 180:..\..\..\u8g2\u8g2\csrc/u8x8_d_gu800.c ****   /* sda_setup_time_ns = */ 40,     /* GU800: 40ns according to the timing diagram */
 181:..\..\..\u8g2\u8g2\csrc/u8x8_d_gu800.c ****   /* sck_pulse_width_ns = */ 80,    /* GU800: Min 80ns per datasheet */
 182:..\..\..\u8g2\u8g2\csrc/u8x8_d_gu800.c ****   /* sck_clock_hz = */ 4000000UL,
 183:..\..\..\u8g2\u8g2\csrc/u8x8_d_gu800.c ****   /* spi_mode = */ 2,               /* active high, rising edge */
 184:..\..\..\u8g2\u8g2\csrc/u8x8_d_gu800.c ****   /* i2c_bus_clock_100kHz = */ 4,   /* GU800: Not used */
 185:..\..\..\u8g2\u8g2\csrc/u8x8_d_gu800.c ****   /* data_setup_time_ns = */ 40,    /* GU800: Min 40ns per datasheet */
 186:..\..\..\u8g2\u8g2\csrc/u8x8_d_gu800.c ****   /* write_pulse_width_ns = */ 150, /* GU800: Min 150ns per datasheet */
 187:..\..\..\u8g2\u8g2\csrc/u8x8_d_gu800.c ****   /* tile_width = */ 16,            /* width of 16*8=128 pixel */
 188:..\..\..\u8g2\u8g2\csrc/u8x8_d_gu800.c ****   /* tile_hight = */ 8,
 189:..\..\..\u8g2\u8g2\csrc/u8x8_d_gu800.c ****   /* default_x_offset = */ 0,
 190:..\..\..\u8g2\u8g2\csrc/u8x8_d_gu800.c ****   /* flipmode_x_offset = */ 0,
 191:..\..\..\u8g2\u8g2\csrc/u8x8_d_gu800.c ****   /* pixel_width = */ 128,
ARM GAS  C:\Users\jesse\AppData\Local\Temp\ccyEMBVt.s 			page 8


 192:..\..\..\u8g2\u8g2\csrc/u8x8_d_gu800.c ****   /* pixel_height = */ 64
 193:..\..\..\u8g2\u8g2\csrc/u8x8_d_gu800.c **** };
 194:..\..\..\u8g2\u8g2\csrc/u8x8_d_gu800.c **** 
 195:..\..\..\u8g2\u8g2\csrc/u8x8_d_gu800.c **** 
 196:..\..\..\u8g2\u8g2\csrc/u8x8_d_gu800.c **** uint8_t u8x8_d_gu800_128x64(u8x8_t *u8x8, uint8_t msg, uint8_t arg_int, void *arg_ptr)
 197:..\..\..\u8g2\u8g2\csrc/u8x8_d_gu800.c **** {
 186              		.loc 1 197 0
 187              		.cfi_startproc
 188              		@ args = 0, pretend = 0, frame = 0
 189              		@ frame_needed = 0, uses_anonymous_args = 0
 190              	.LVL30:
 191 0000 38B5     		push	{r3, r4, r5, lr}
 192              		.cfi_def_cfa_offset 16
 193              		.cfi_offset 3, -16
 194              		.cfi_offset 4, -12
 195              		.cfi_offset 5, -8
 196              		.cfi_offset 14, -4
 197              		.loc 1 197 0
 198 0002 0446     		mov	r4, r0
 199 0004 0D46     		mov	r5, r1
 198:..\..\..\u8g2\u8g2\csrc/u8x8_d_gu800.c ****   
 199:..\..\..\u8g2\u8g2\csrc/u8x8_d_gu800.c ****   if ( u8x8_d_gu800_common(u8x8, msg, arg_int, arg_ptr) )
 200              		.loc 1 199 0
 201 0006 FFF7FEFF 		bl	u8x8_d_gu800_common
 202              	.LVL31:
 203 000a 80B9     		cbnz	r0, .L21
 200:..\..\..\u8g2\u8g2\csrc/u8x8_d_gu800.c ****     return 1;
 201:..\..\..\u8g2\u8g2\csrc/u8x8_d_gu800.c ****   
 202:..\..\..\u8g2\u8g2\csrc/u8x8_d_gu800.c ****   switch(msg)
 204              		.loc 1 202 0
 205 000c 092D     		cmp	r5, #9
 206 000e 02D0     		beq	.L19
 207 0010 0A2D     		cmp	r5, #10
 208 0012 05D0     		beq	.L20
 209 0014 38BD     		pop	{r3, r4, r5, pc}
 210              	.LVL32:
 211              	.L19:
 203:..\..\..\u8g2\u8g2\csrc/u8x8_d_gu800.c ****   {
 204:..\..\..\u8g2\u8g2\csrc/u8x8_d_gu800.c ****     case U8X8_MSG_DISPLAY_SETUP_MEMORY:
 205:..\..\..\u8g2\u8g2\csrc/u8x8_d_gu800.c ****       u8x8_d_helper_display_setup_memory(u8x8, &u8x8_d_gu800_128x64_display_info);
 212              		.loc 1 205 0
 213 0016 0749     		ldr	r1, .L22
 214 0018 2046     		mov	r0, r4
 215 001a FFF7FEFF 		bl	u8x8_d_helper_display_setup_memory
 216              	.LVL33:
 217 001e 06E0     		b	.L21
 218              	.L20:
 206:..\..\..\u8g2\u8g2\csrc/u8x8_d_gu800.c ****       break;
 207:..\..\..\u8g2\u8g2\csrc/u8x8_d_gu800.c ****     case U8X8_MSG_DISPLAY_INIT:
 208:..\..\..\u8g2\u8g2\csrc/u8x8_d_gu800.c ****       u8x8_d_helper_display_init(u8x8);
 219              		.loc 1 208 0
 220 0020 2046     		mov	r0, r4
 221 0022 FFF7FEFF 		bl	u8x8_d_helper_display_init
 222              	.LVL34:
 209:..\..\..\u8g2\u8g2\csrc/u8x8_d_gu800.c ****       u8x8_cad_SendSequence(u8x8, u8x8_d_gu800_128x64_init_seq);
 223              		.loc 1 209 0
 224 0026 0449     		ldr	r1, .L22+4
ARM GAS  C:\Users\jesse\AppData\Local\Temp\ccyEMBVt.s 			page 9


 225 0028 2046     		mov	r0, r4
 226 002a FFF7FEFF 		bl	u8x8_cad_SendSequence
 227              	.LVL35:
 228              	.L21:
 200:..\..\..\u8g2\u8g2\csrc/u8x8_d_gu800.c ****   
 229              		.loc 1 200 0
 230 002e 0120     		movs	r0, #1
 210:..\..\..\u8g2\u8g2\csrc/u8x8_d_gu800.c ****       break;
 211:..\..\..\u8g2\u8g2\csrc/u8x8_d_gu800.c ****     default:
 212:..\..\..\u8g2\u8g2\csrc/u8x8_d_gu800.c ****       return 0;
 213:..\..\..\u8g2\u8g2\csrc/u8x8_d_gu800.c ****   }
 214:..\..\..\u8g2\u8g2\csrc/u8x8_d_gu800.c ****   return 1;
 215:..\..\..\u8g2\u8g2\csrc/u8x8_d_gu800.c **** }
 231              		.loc 1 215 0
 232 0030 38BD     		pop	{r3, r4, r5, pc}
 233              	.LVL36:
 234              	.L23:
 235 0032 00BF     		.align	2
 236              	.L22:
 237 0034 0C000000 		.word	.LANCHOR0+12
 238 0038 24000000 		.word	.LANCHOR0+36
 239              		.cfi_endproc
 240              	.LFE1:
 241              		.size	u8x8_d_gu800_128x64, .-u8x8_d_gu800_128x64
 242              		.section	.text.u8x8_d_gu800_160x16,"ax",%progbits
 243              		.align	1
 244              		.global	u8x8_d_gu800_160x16
 245              		.thumb
 246              		.thumb_func
 247              		.type	u8x8_d_gu800_160x16, %function
 248              	u8x8_d_gu800_160x16:
 249              	.LFB2:
 216:..\..\..\u8g2\u8g2\csrc/u8x8_d_gu800.c **** 
 217:..\..\..\u8g2\u8g2\csrc/u8x8_d_gu800.c **** /*=================================================*/
 218:..\..\..\u8g2\u8g2\csrc/u8x8_d_gu800.c **** /* https://github.com/olikraus/u8g2/issues/1970 */
 219:..\..\..\u8g2\u8g2\csrc/u8x8_d_gu800.c **** 
 220:..\..\..\u8g2\u8g2\csrc/u8x8_d_gu800.c **** static const uint8_t u8x8_d_gu800_160x16_init_seq[] = {
 221:..\..\..\u8g2\u8g2\csrc/u8x8_d_gu800.c ****     
 222:..\..\..\u8g2\u8g2\csrc/u8x8_d_gu800.c ****   U8X8_START_TRANSFER(),             	/* enable chip, delay is part of the transfer start */
 223:..\..\..\u8g2\u8g2\csrc/u8x8_d_gu800.c ****   
 224:..\..\..\u8g2\u8g2\csrc/u8x8_d_gu800.c ****   U8X8_C(0x05f),                                /* clear all RAM, clear address counters */
 225:..\..\..\u8g2\u8g2\csrc/u8x8_d_gu800.c ****   U8X8_DLY(1),                                  /* delay for 1 ms (see datasheet) */
 226:..\..\..\u8g2\u8g2\csrc/u8x8_d_gu800.c ****   
 227:..\..\..\u8g2\u8g2\csrc/u8x8_d_gu800.c ****   /* configure all area as graphics RAM */
 228:..\..\..\u8g2\u8g2\csrc/u8x8_d_gu800.c ****   U8X8_CA(0x62,0), U8X8_D1(0xff),
 229:..\..\..\u8g2\u8g2\csrc/u8x8_d_gu800.c ****   U8X8_CA(0x62,1), U8X8_D1(0xff),
 230:..\..\..\u8g2\u8g2\csrc/u8x8_d_gu800.c ****   U8X8_CA(0x62,2), U8X8_D1(0xff),
 231:..\..\..\u8g2\u8g2\csrc/u8x8_d_gu800.c ****   U8X8_CA(0x62,3), U8X8_D1(0xff),
 232:..\..\..\u8g2\u8g2\csrc/u8x8_d_gu800.c ****   U8X8_CA(0x62,4), U8X8_D1(0xff),
 233:..\..\..\u8g2\u8g2\csrc/u8x8_d_gu800.c ****   U8X8_CA(0x62,5), U8X8_D1(0xff),
 234:..\..\..\u8g2\u8g2\csrc/u8x8_d_gu800.c ****   U8X8_CA(0x62,6), U8X8_D1(0xff),
 235:..\..\..\u8g2\u8g2\csrc/u8x8_d_gu800.c ****   U8X8_CA(0x62,7), U8X8_D1(0xff),
 236:..\..\..\u8g2\u8g2\csrc/u8x8_d_gu800.c ****   
 237:..\..\..\u8g2\u8g2\csrc/u8x8_d_gu800.c ****   U8X8_CA(0x70, 0),                             /* horizontal shift */
 238:..\..\..\u8g2\u8g2\csrc/u8x8_d_gu800.c ****   U8X8_C(0xb0),                                 /* vertical shift */  
 239:..\..\..\u8g2\u8g2\csrc/u8x8_d_gu800.c ****   U8X8_C(0x4f),                                 /* max brightness */
 240:..\..\..\u8g2\u8g2\csrc/u8x8_d_gu800.c ****   U8X8_C(0x84),                                 /* x increment */
ARM GAS  C:\Users\jesse\AppData\Local\Temp\ccyEMBVt.s 			page 10


 241:..\..\..\u8g2\u8g2\csrc/u8x8_d_gu800.c ****   
 242:..\..\..\u8g2\u8g2\csrc/u8x8_d_gu800.c ****   // U8X8_CA(0x024, 0x040)              /* display on */
 243:..\..\..\u8g2\u8g2\csrc/u8x8_d_gu800.c ****   
 244:..\..\..\u8g2\u8g2\csrc/u8x8_d_gu800.c ****   U8X8_END_TRANSFER(),             	/* disable chip */
 245:..\..\..\u8g2\u8g2\csrc/u8x8_d_gu800.c ****   U8X8_END()             			/* end of sequence */
 246:..\..\..\u8g2\u8g2\csrc/u8x8_d_gu800.c **** };
 247:..\..\..\u8g2\u8g2\csrc/u8x8_d_gu800.c **** 
 248:..\..\..\u8g2\u8g2\csrc/u8x8_d_gu800.c **** 
 249:..\..\..\u8g2\u8g2\csrc/u8x8_d_gu800.c **** static const u8x8_display_info_t u8x8_d_gu800_160x16_display_info =
 250:..\..\..\u8g2\u8g2\csrc/u8x8_d_gu800.c **** {
 251:..\..\..\u8g2\u8g2\csrc/u8x8_d_gu800.c ****   /* chip_enable_level = */ 0,      /* GU800: CSS signal */
 252:..\..\..\u8g2\u8g2\csrc/u8x8_d_gu800.c ****   /* chip_disable_level = */ 1,     /* GU800: CSS signal */
 253:..\..\..\u8g2\u8g2\csrc/u8x8_d_gu800.c ****   
 254:..\..\..\u8g2\u8g2\csrc/u8x8_d_gu800.c ****   /* post_chip_enable_wait_ns = */ 40,
 255:..\..\..\u8g2\u8g2\csrc/u8x8_d_gu800.c ****   /* pre_chip_disable_wait_ns = */ 150,
 256:..\..\..\u8g2\u8g2\csrc/u8x8_d_gu800.c ****   /* reset_pulse_width_ms = */ 2,   /* GU800: Unspecified in datasheet */
 257:..\..\..\u8g2\u8g2\csrc/u8x8_d_gu800.c ****   /* post_reset_wait_ms = */ 2,     /* GU800: Min 1.5ms per datasheet */
 258:..\..\..\u8g2\u8g2\csrc/u8x8_d_gu800.c ****   /* sda_setup_time_ns = */ 40,     /* GU800: 40ns according to the timing diagram */
 259:..\..\..\u8g2\u8g2\csrc/u8x8_d_gu800.c ****   /* sck_pulse_width_ns = */ 80,    /* GU800: Min 80ns per datasheet */
 260:..\..\..\u8g2\u8g2\csrc/u8x8_d_gu800.c ****   /* sck_clock_hz = */ 4000000UL,
 261:..\..\..\u8g2\u8g2\csrc/u8x8_d_gu800.c ****   /* spi_mode = */ 3,               /* active high, rising edge, ISSUE 1970 */
 262:..\..\..\u8g2\u8g2\csrc/u8x8_d_gu800.c ****   /* i2c_bus_clock_100kHz = */ 4,   /* GU800: Not used */
 263:..\..\..\u8g2\u8g2\csrc/u8x8_d_gu800.c ****   /* data_setup_time_ns = */ 40,    /* GU800: Min 40ns per datasheet */
 264:..\..\..\u8g2\u8g2\csrc/u8x8_d_gu800.c ****   /* write_pulse_width_ns = */ 150, /* GU800: Min 150ns per datasheet */
 265:..\..\..\u8g2\u8g2\csrc/u8x8_d_gu800.c ****   /* tile_width = */ 20,            /* width of 8*20=160 pixel */
 266:..\..\..\u8g2\u8g2\csrc/u8x8_d_gu800.c ****   /* tile_hight = */ 2,
 267:..\..\..\u8g2\u8g2\csrc/u8x8_d_gu800.c ****   /* default_x_offset = */ 0,
 268:..\..\..\u8g2\u8g2\csrc/u8x8_d_gu800.c ****   /* flipmode_x_offset = */ 0,
 269:..\..\..\u8g2\u8g2\csrc/u8x8_d_gu800.c ****   /* pixel_width = */ 160,
 270:..\..\..\u8g2\u8g2\csrc/u8x8_d_gu800.c ****   /* pixel_height = */ 16
 271:..\..\..\u8g2\u8g2\csrc/u8x8_d_gu800.c **** };
 272:..\..\..\u8g2\u8g2\csrc/u8x8_d_gu800.c **** 
 273:..\..\..\u8g2\u8g2\csrc/u8x8_d_gu800.c **** 
 274:..\..\..\u8g2\u8g2\csrc/u8x8_d_gu800.c **** uint8_t u8x8_d_gu800_160x16(u8x8_t *u8x8, uint8_t msg, uint8_t arg_int, void *arg_ptr)
 275:..\..\..\u8g2\u8g2\csrc/u8x8_d_gu800.c **** {
 250              		.loc 1 275 0
 251              		.cfi_startproc
 252              		@ args = 0, pretend = 0, frame = 0
 253              		@ frame_needed = 0, uses_anonymous_args = 0
 254              	.LVL37:
 255 0000 38B5     		push	{r3, r4, r5, lr}
 256              		.cfi_def_cfa_offset 16
 257              		.cfi_offset 3, -16
 258              		.cfi_offset 4, -12
 259              		.cfi_offset 5, -8
 260              		.cfi_offset 14, -4
 261              		.loc 1 275 0
 262 0002 0446     		mov	r4, r0
 263 0004 0D46     		mov	r5, r1
 276:..\..\..\u8g2\u8g2\csrc/u8x8_d_gu800.c ****   
 277:..\..\..\u8g2\u8g2\csrc/u8x8_d_gu800.c ****   if ( u8x8_d_gu800_common(u8x8, msg, arg_int, arg_ptr) )
 264              		.loc 1 277 0
 265 0006 FFF7FEFF 		bl	u8x8_d_gu800_common
 266              	.LVL38:
 267 000a 80B9     		cbnz	r0, .L28
 278:..\..\..\u8g2\u8g2\csrc/u8x8_d_gu800.c ****     return 1;
 279:..\..\..\u8g2\u8g2\csrc/u8x8_d_gu800.c ****   
ARM GAS  C:\Users\jesse\AppData\Local\Temp\ccyEMBVt.s 			page 11


 280:..\..\..\u8g2\u8g2\csrc/u8x8_d_gu800.c ****   switch(msg)
 268              		.loc 1 280 0
 269 000c 092D     		cmp	r5, #9
 270 000e 02D0     		beq	.L26
 271 0010 0A2D     		cmp	r5, #10
 272 0012 05D0     		beq	.L27
 273 0014 38BD     		pop	{r3, r4, r5, pc}
 274              	.LVL39:
 275              	.L26:
 281:..\..\..\u8g2\u8g2\csrc/u8x8_d_gu800.c ****   {
 282:..\..\..\u8g2\u8g2\csrc/u8x8_d_gu800.c ****     case U8X8_MSG_DISPLAY_SETUP_MEMORY:
 283:..\..\..\u8g2\u8g2\csrc/u8x8_d_gu800.c ****       u8x8_d_helper_display_setup_memory(u8x8, &u8x8_d_gu800_160x16_display_info);
 276              		.loc 1 283 0
 277 0016 0749     		ldr	r1, .L29
 278 0018 2046     		mov	r0, r4
 279 001a FFF7FEFF 		bl	u8x8_d_helper_display_setup_memory
 280              	.LVL40:
 281 001e 06E0     		b	.L28
 282              	.L27:
 284:..\..\..\u8g2\u8g2\csrc/u8x8_d_gu800.c ****       break;
 285:..\..\..\u8g2\u8g2\csrc/u8x8_d_gu800.c ****     case U8X8_MSG_DISPLAY_INIT:
 286:..\..\..\u8g2\u8g2\csrc/u8x8_d_gu800.c ****       u8x8_d_helper_display_init(u8x8);
 283              		.loc 1 286 0
 284 0020 2046     		mov	r0, r4
 285 0022 FFF7FEFF 		bl	u8x8_d_helper_display_init
 286              	.LVL41:
 287:..\..\..\u8g2\u8g2\csrc/u8x8_d_gu800.c ****       u8x8_cad_SendSequence(u8x8, u8x8_d_gu800_160x16_init_seq);
 287              		.loc 1 287 0
 288 0026 0449     		ldr	r1, .L29+4
 289 0028 2046     		mov	r0, r4
 290 002a FFF7FEFF 		bl	u8x8_cad_SendSequence
 291              	.LVL42:
 292              	.L28:
 278:..\..\..\u8g2\u8g2\csrc/u8x8_d_gu800.c ****   
 293              		.loc 1 278 0
 294 002e 0120     		movs	r0, #1
 288:..\..\..\u8g2\u8g2\csrc/u8x8_d_gu800.c ****       break;
 289:..\..\..\u8g2\u8g2\csrc/u8x8_d_gu800.c ****     default:
 290:..\..\..\u8g2\u8g2\csrc/u8x8_d_gu800.c ****       return 0;
 291:..\..\..\u8g2\u8g2\csrc/u8x8_d_gu800.c ****   }
 292:..\..\..\u8g2\u8g2\csrc/u8x8_d_gu800.c ****   return 1;
 293:..\..\..\u8g2\u8g2\csrc/u8x8_d_gu800.c **** }
 295              		.loc 1 293 0
 296 0030 38BD     		pop	{r3, r4, r5, pc}
 297              	.LVL43:
 298              	.L30:
 299 0032 00BF     		.align	2
 300              	.L29:
 301 0034 68000000 		.word	.LANCHOR0+104
 302 0038 80000000 		.word	.LANCHOR0+128
 303              		.cfi_endproc
 304              	.LFE2:
 305              		.size	u8x8_d_gu800_160x16, .-u8x8_d_gu800_160x16
 306              		.section	.rodata
 307              		.align	2
 308              		.set	.LANCHOR0,. + 0
 309              		.type	u8x8_d_gu800_128x64_powersave0_seq, %object
ARM GAS  C:\Users\jesse\AppData\Local\Temp\ccyEMBVt.s 			page 12


 310              		.size	u8x8_d_gu800_128x64_powersave0_seq, 5
 311              	u8x8_d_gu800_128x64_powersave0_seq:
 312 0000 15       		.byte	21
 313 0001 24       		.byte	36
 314 0002 16       		.byte	22
 315 0003 40       		.byte	64
 316 0004 FF       		.byte	-1
 317              		.type	u8x8_d_gu800_128x64_powersave1_seq, %object
 318              		.size	u8x8_d_gu800_128x64_powersave1_seq, 5
 319              	u8x8_d_gu800_128x64_powersave1_seq:
 320 0005 15       		.byte	21
 321 0006 20       		.byte	32
 322 0007 16       		.byte	22
 323 0008 40       		.byte	64
 324 0009 FF       		.byte	-1
 325 000a 0000     		.space	2
 326              		.type	u8x8_d_gu800_128x64_display_info, %object
 327              		.size	u8x8_d_gu800_128x64_display_info, 24
 328              	u8x8_d_gu800_128x64_display_info:
 329 000c 00       		.byte	0
 330 000d 01       		.byte	1
 331 000e 28       		.byte	40
 332 000f 96       		.byte	-106
 333 0010 02       		.byte	2
 334 0011 02       		.byte	2
 335 0012 28       		.byte	40
 336 0013 50       		.byte	80
 337 0014 00093D00 		.word	4000000
 338 0018 02       		.byte	2
 339 0019 04       		.byte	4
 340 001a 28       		.byte	40
 341 001b 96       		.byte	-106
 342 001c 10       		.byte	16
 343 001d 08       		.byte	8
 344 001e 00       		.byte	0
 345 001f 00       		.byte	0
 346 0020 8000     		.short	128
 347 0022 4000     		.short	64
 348              		.type	u8x8_d_gu800_128x64_init_seq, %object
 349              		.size	u8x8_d_gu800_128x64_init_seq, 65
 350              	u8x8_d_gu800_128x64_init_seq:
 351 0024 18       		.byte	24
 352 0025 15       		.byte	21
 353 0026 5F       		.byte	95
 354 0027 FE       		.byte	-2
 355 0028 01       		.byte	1
 356 0029 15       		.byte	21
 357 002a 62       		.byte	98
 358 002b 16       		.byte	22
 359 002c 00       		.byte	0
 360 002d 17       		.byte	23
 361 002e FF       		.byte	-1
 362 002f 15       		.byte	21
 363 0030 62       		.byte	98
 364 0031 16       		.byte	22
 365 0032 01       		.byte	1
 366 0033 17       		.byte	23
ARM GAS  C:\Users\jesse\AppData\Local\Temp\ccyEMBVt.s 			page 13


 367 0034 FF       		.byte	-1
 368 0035 15       		.byte	21
 369 0036 62       		.byte	98
 370 0037 16       		.byte	22
 371 0038 02       		.byte	2
 372 0039 17       		.byte	23
 373 003a FF       		.byte	-1
 374 003b 15       		.byte	21
 375 003c 62       		.byte	98
 376 003d 16       		.byte	22
 377 003e 03       		.byte	3
 378 003f 17       		.byte	23
 379 0040 FF       		.byte	-1
 380 0041 15       		.byte	21
 381 0042 62       		.byte	98
 382 0043 16       		.byte	22
 383 0044 04       		.byte	4
 384 0045 17       		.byte	23
 385 0046 FF       		.byte	-1
 386 0047 15       		.byte	21
 387 0048 62       		.byte	98
 388 0049 16       		.byte	22
 389 004a 05       		.byte	5
 390 004b 17       		.byte	23
 391 004c FF       		.byte	-1
 392 004d 15       		.byte	21
 393 004e 62       		.byte	98
 394 004f 16       		.byte	22
 395 0050 06       		.byte	6
 396 0051 17       		.byte	23
 397 0052 FF       		.byte	-1
 398 0053 15       		.byte	21
 399 0054 62       		.byte	98
 400 0055 16       		.byte	22
 401 0056 07       		.byte	7
 402 0057 17       		.byte	23
 403 0058 FF       		.byte	-1
 404 0059 15       		.byte	21
 405 005a 70       		.byte	112
 406 005b 16       		.byte	22
 407 005c 00       		.byte	0
 408 005d 15       		.byte	21
 409 005e B0       		.byte	-80
 410 005f 15       		.byte	21
 411 0060 4F       		.byte	79
 412 0061 15       		.byte	21
 413 0062 84       		.byte	-124
 414 0063 19       		.byte	25
 415 0064 FF       		.byte	-1
 416 0065 000000   		.space	3
 417              		.type	u8x8_d_gu800_160x16_display_info, %object
 418              		.size	u8x8_d_gu800_160x16_display_info, 24
 419              	u8x8_d_gu800_160x16_display_info:
 420 0068 00       		.byte	0
 421 0069 01       		.byte	1
 422 006a 28       		.byte	40
 423 006b 96       		.byte	-106
ARM GAS  C:\Users\jesse\AppData\Local\Temp\ccyEMBVt.s 			page 14


 424 006c 02       		.byte	2
 425 006d 02       		.byte	2
 426 006e 28       		.byte	40
 427 006f 50       		.byte	80
 428 0070 00093D00 		.word	4000000
 429 0074 03       		.byte	3
 430 0075 04       		.byte	4
 431 0076 28       		.byte	40
 432 0077 96       		.byte	-106
 433 0078 14       		.byte	20
 434 0079 02       		.byte	2
 435 007a 00       		.byte	0
 436 007b 00       		.byte	0
 437 007c A000     		.short	160
 438 007e 1000     		.short	16
 439              		.type	u8x8_d_gu800_160x16_init_seq, %object
 440              		.size	u8x8_d_gu800_160x16_init_seq, 65
 441              	u8x8_d_gu800_160x16_init_seq:
 442 0080 18       		.byte	24
 443 0081 15       		.byte	21
 444 0082 5F       		.byte	95
 445 0083 FE       		.byte	-2
 446 0084 01       		.byte	1
 447 0085 15       		.byte	21
 448 0086 62       		.byte	98
 449 0087 16       		.byte	22
 450 0088 00       		.byte	0
 451 0089 17       		.byte	23
 452 008a FF       		.byte	-1
 453 008b 15       		.byte	21
 454 008c 62       		.byte	98
 455 008d 16       		.byte	22
 456 008e 01       		.byte	1
 457 008f 17       		.byte	23
 458 0090 FF       		.byte	-1
 459 0091 15       		.byte	21
 460 0092 62       		.byte	98
 461 0093 16       		.byte	22
 462 0094 02       		.byte	2
 463 0095 17       		.byte	23
 464 0096 FF       		.byte	-1
 465 0097 15       		.byte	21
 466 0098 62       		.byte	98
 467 0099 16       		.byte	22
 468 009a 03       		.byte	3
 469 009b 17       		.byte	23
 470 009c FF       		.byte	-1
 471 009d 15       		.byte	21
 472 009e 62       		.byte	98
 473 009f 16       		.byte	22
 474 00a0 04       		.byte	4
 475 00a1 17       		.byte	23
 476 00a2 FF       		.byte	-1
 477 00a3 15       		.byte	21
 478 00a4 62       		.byte	98
 479 00a5 16       		.byte	22
 480 00a6 05       		.byte	5
ARM GAS  C:\Users\jesse\AppData\Local\Temp\ccyEMBVt.s 			page 15


 481 00a7 17       		.byte	23
 482 00a8 FF       		.byte	-1
 483 00a9 15       		.byte	21
 484 00aa 62       		.byte	98
 485 00ab 16       		.byte	22
 486 00ac 06       		.byte	6
 487 00ad 17       		.byte	23
 488 00ae FF       		.byte	-1
 489 00af 15       		.byte	21
 490 00b0 62       		.byte	98
 491 00b1 16       		.byte	22
 492 00b2 07       		.byte	7
 493 00b3 17       		.byte	23
 494 00b4 FF       		.byte	-1
 495 00b5 15       		.byte	21
 496 00b6 70       		.byte	112
 497 00b7 16       		.byte	22
 498 00b8 00       		.byte	0
 499 00b9 15       		.byte	21
 500 00ba B0       		.byte	-80
 501 00bb 15       		.byte	21
 502 00bc 4F       		.byte	79
 503 00bd 15       		.byte	21
 504 00be 84       		.byte	-124
 505 00bf 19       		.byte	25
 506 00c0 FF       		.byte	-1
 507              		.text
 508              	.Letext0:
 509              		.file 2 "c:\\program files (x86)\\cypress\\psoc creator\\4.4\\psoc creator\\import\\gnu\\arm\\5.4.
 510              		.file 3 "c:\\program files (x86)\\cypress\\psoc creator\\4.4\\psoc creator\\import\\gnu\\arm\\5.4.
 511              		.file 4 "..\\..\\..\\u8g2\\u8g2\\csrc\\u8x8.h"