ARM GAS  C:\Users\jesse\AppData\Local\Temp\cc5PybHd.s 			page 1


   1              		.syntax unified
   2              		.cpu cortex-m3
   3              		.fpu softvfp
   4              		.eabi_attribute 20, 1
   5              		.eabi_attribute 21, 1
   6              		.eabi_attribute 23, 3
   7              		.eabi_attribute 24, 1
   8              		.eabi_attribute 25, 1
   9              		.eabi_attribute 26, 1
  10              		.eabi_attribute 30, 4
  11              		.eabi_attribute 34, 1
  12              		.eabi_attribute 18, 4
  13              		.thumb
  14              		.syntax unified
  15              		.file	"u8x8_d_ssd1325.c"
  16              		.text
  17              	.Ltext0:
  18              		.cfi_sections	.debug_frame
  19              		.section	.text.u8x8_d_ssd1325_128x64_generic,"ax",%progbits
  20              		.align	1
  21              		.thumb
  22              		.thumb_func
  23              		.type	u8x8_d_ssd1325_128x64_generic, %function
  24              	u8x8_d_ssd1325_128x64_generic:
  25              	.LFB1:
  26              		.file 1 "..\\..\\..\\u8g2\\u8g2\\csrc\\u8x8_d_ssd1325.c"
   1:..\..\..\u8g2\u8g2\csrc/u8x8_d_ssd1325.c **** /*
   2:..\..\..\u8g2\u8g2\csrc/u8x8_d_ssd1325.c **** 
   3:..\..\..\u8g2\u8g2\csrc/u8x8_d_ssd1325.c ****   u8x8_d_ssd1325.c
   4:..\..\..\u8g2\u8g2\csrc/u8x8_d_ssd1325.c **** 
   5:..\..\..\u8g2\u8g2\csrc/u8x8_d_ssd1325.c ****   Universal 8bit Graphics Library (https://github.com/olikraus/u8g2/)
   6:..\..\..\u8g2\u8g2\csrc/u8x8_d_ssd1325.c **** 
   7:..\..\..\u8g2\u8g2\csrc/u8x8_d_ssd1325.c ****   Copyright (c) 2016, olikraus@gmail.com
   8:..\..\..\u8g2\u8g2\csrc/u8x8_d_ssd1325.c ****   All rights reserved.
   9:..\..\..\u8g2\u8g2\csrc/u8x8_d_ssd1325.c **** 
  10:..\..\..\u8g2\u8g2\csrc/u8x8_d_ssd1325.c ****   Redistribution and use in source and binary forms, with or without modification, 
  11:..\..\..\u8g2\u8g2\csrc/u8x8_d_ssd1325.c ****   are permitted provided that the following conditions are met:
  12:..\..\..\u8g2\u8g2\csrc/u8x8_d_ssd1325.c **** 
  13:..\..\..\u8g2\u8g2\csrc/u8x8_d_ssd1325.c ****   * Redistributions of source code must retain the above copyright notice, this list 
  14:..\..\..\u8g2\u8g2\csrc/u8x8_d_ssd1325.c ****     of conditions and the following disclaimer.
  15:..\..\..\u8g2\u8g2\csrc/u8x8_d_ssd1325.c ****     
  16:..\..\..\u8g2\u8g2\csrc/u8x8_d_ssd1325.c ****   * Redistributions in binary form must reproduce the above copyright notice, this 
  17:..\..\..\u8g2\u8g2\csrc/u8x8_d_ssd1325.c ****     list of conditions and the following disclaimer in the documentation and/or other 
  18:..\..\..\u8g2\u8g2\csrc/u8x8_d_ssd1325.c ****     materials provided with the distribution.
  19:..\..\..\u8g2\u8g2\csrc/u8x8_d_ssd1325.c **** 
  20:..\..\..\u8g2\u8g2\csrc/u8x8_d_ssd1325.c ****   THIS SOFTWARE IS PROVIDED BY THE COPYRIGHT HOLDERS AND 
  21:..\..\..\u8g2\u8g2\csrc/u8x8_d_ssd1325.c ****   CONTRIBUTORS "AS IS" AND ANY EXPRESS OR IMPLIED WARRANTIES, 
  22:..\..\..\u8g2\u8g2\csrc/u8x8_d_ssd1325.c ****   INCLUDING, BUT NOT LIMITED TO, THE IMPLIED WARRANTIES OF 
  23:..\..\..\u8g2\u8g2\csrc/u8x8_d_ssd1325.c ****   MERCHANTABILITY AND FITNESS FOR A PARTICULAR PURPOSE ARE 
  24:..\..\..\u8g2\u8g2\csrc/u8x8_d_ssd1325.c ****   DISCLAIMED. IN NO EVENT SHALL THE COPYRIGHT HOLDER OR 
  25:..\..\..\u8g2\u8g2\csrc/u8x8_d_ssd1325.c ****   CONTRIBUTORS BE LIABLE FOR ANY DIRECT, INDIRECT, INCIDENTAL, 
  26:..\..\..\u8g2\u8g2\csrc/u8x8_d_ssd1325.c ****   SPECIAL, EXEMPLARY, OR CONSEQUENTIAL DAMAGES (INCLUDING, BUT 
  27:..\..\..\u8g2\u8g2\csrc/u8x8_d_ssd1325.c ****   NOT LIMITED TO, PROCUREMENT OF SUBSTITUTE GOODS OR SERVICES; 
  28:..\..\..\u8g2\u8g2\csrc/u8x8_d_ssd1325.c ****   LOSS OF USE, DATA, OR PROFITS; OR BUSINESS INTERRUPTION) HOWEVER 
  29:..\..\..\u8g2\u8g2\csrc/u8x8_d_ssd1325.c ****   CAUSED AND ON ANY THEORY OF LIABILITY, WHETHER IN CONTRACT, 
  30:..\..\..\u8g2\u8g2\csrc/u8x8_d_ssd1325.c ****   STRICT LIABILITY, OR TORT (INCLUDING NEGLIGENCE OR OTHERWISE) 
  31:..\..\..\u8g2\u8g2\csrc/u8x8_d_ssd1325.c ****   ARISING IN ANY WAY OUT OF THE USE OF THIS SOFTWARE, EVEN IF 
ARM GAS  C:\Users\jesse\AppData\Local\Temp\cc5PybHd.s 			page 2


  32:..\..\..\u8g2\u8g2\csrc/u8x8_d_ssd1325.c ****   ADVISED OF THE POSSIBILITY OF SUCH DAMAGE.  
  33:..\..\..\u8g2\u8g2\csrc/u8x8_d_ssd1325.c **** 
  34:..\..\..\u8g2\u8g2\csrc/u8x8_d_ssd1325.c ****   SSD1325:
  35:..\..\..\u8g2\u8g2\csrc/u8x8_d_ssd1325.c ****     128 x 80, 16 Gray Scale Dot Matrix
  36:..\..\..\u8g2\u8g2\csrc/u8x8_d_ssd1325.c ****     
  37:..\..\..\u8g2\u8g2\csrc/u8x8_d_ssd1325.c ****   SSD0323: Identical to SSD1325, issue 720
  38:..\..\..\u8g2\u8g2\csrc/u8x8_d_ssd1325.c ****     
  39:..\..\..\u8g2\u8g2\csrc/u8x8_d_ssd1325.c ****   
  40:..\..\..\u8g2\u8g2\csrc/u8x8_d_ssd1325.c **** */
  41:..\..\..\u8g2\u8g2\csrc/u8x8_d_ssd1325.c **** 
  42:..\..\..\u8g2\u8g2\csrc/u8x8_d_ssd1325.c **** 
  43:..\..\..\u8g2\u8g2\csrc/u8x8_d_ssd1325.c **** #include "u8x8.h"
  44:..\..\..\u8g2\u8g2\csrc/u8x8_d_ssd1325.c **** 
  45:..\..\..\u8g2\u8g2\csrc/u8x8_d_ssd1325.c **** 
  46:..\..\..\u8g2\u8g2\csrc/u8x8_d_ssd1325.c **** 
  47:..\..\..\u8g2\u8g2\csrc/u8x8_d_ssd1325.c **** static const uint8_t u8x8_d_ssd1325_128x64_nhd_powersave0_seq[] = {
  48:..\..\..\u8g2\u8g2\csrc/u8x8_d_ssd1325.c ****   U8X8_START_TRANSFER(),             	/* enable chip, delay is part of the transfer start */
  49:..\..\..\u8g2\u8g2\csrc/u8x8_d_ssd1325.c ****   U8X8_C(0x0af),		                /* display on */
  50:..\..\..\u8g2\u8g2\csrc/u8x8_d_ssd1325.c ****   U8X8_END_TRANSFER(),             	/* disable chip */
  51:..\..\..\u8g2\u8g2\csrc/u8x8_d_ssd1325.c ****   U8X8_END()             			/* end of sequence */
  52:..\..\..\u8g2\u8g2\csrc/u8x8_d_ssd1325.c **** };
  53:..\..\..\u8g2\u8g2\csrc/u8x8_d_ssd1325.c **** 
  54:..\..\..\u8g2\u8g2\csrc/u8x8_d_ssd1325.c **** static const uint8_t u8x8_d_ssd1325_128x64_nhd_powersave1_seq[] = {
  55:..\..\..\u8g2\u8g2\csrc/u8x8_d_ssd1325.c ****   U8X8_START_TRANSFER(),             	/* enable chip, delay is part of the transfer start */
  56:..\..\..\u8g2\u8g2\csrc/u8x8_d_ssd1325.c ****   U8X8_C(0x0ae),		                /* display off */
  57:..\..\..\u8g2\u8g2\csrc/u8x8_d_ssd1325.c ****   U8X8_END_TRANSFER(),             	/* disable chip */
  58:..\..\..\u8g2\u8g2\csrc/u8x8_d_ssd1325.c ****   U8X8_END()             			/* end of sequence */
  59:..\..\..\u8g2\u8g2\csrc/u8x8_d_ssd1325.c **** };
  60:..\..\..\u8g2\u8g2\csrc/u8x8_d_ssd1325.c **** 
  61:..\..\..\u8g2\u8g2\csrc/u8x8_d_ssd1325.c **** static const uint8_t u8x8_d_ssd1325_128x64_nhd_flip0_seq[] = {
  62:..\..\..\u8g2\u8g2\csrc/u8x8_d_ssd1325.c ****   U8X8_START_TRANSFER(),             	/* enable chip, delay is part of the transfer start */
  63:..\..\..\u8g2\u8g2\csrc/u8x8_d_ssd1325.c ****   U8X8_CA(0x0a0, 0x052),		/* remap */
  64:..\..\..\u8g2\u8g2\csrc/u8x8_d_ssd1325.c ****   U8X8_END_TRANSFER(),             	/* disable chip */
  65:..\..\..\u8g2\u8g2\csrc/u8x8_d_ssd1325.c ****   U8X8_END()             			/* end of sequence */
  66:..\..\..\u8g2\u8g2\csrc/u8x8_d_ssd1325.c **** };
  67:..\..\..\u8g2\u8g2\csrc/u8x8_d_ssd1325.c **** 
  68:..\..\..\u8g2\u8g2\csrc/u8x8_d_ssd1325.c **** static const uint8_t u8x8_d_ssd1325_128x64_nhd_flip1_seq[] = {
  69:..\..\..\u8g2\u8g2\csrc/u8x8_d_ssd1325.c ****   U8X8_START_TRANSFER(),             	/* enable chip, delay is part of the transfer start */
  70:..\..\..\u8g2\u8g2\csrc/u8x8_d_ssd1325.c ****   U8X8_CA(0x0a0, 0x041),		/* remap */
  71:..\..\..\u8g2\u8g2\csrc/u8x8_d_ssd1325.c ****   U8X8_END_TRANSFER(),             	/* disable chip */
  72:..\..\..\u8g2\u8g2\csrc/u8x8_d_ssd1325.c ****   U8X8_END()             			/* end of sequence */
  73:..\..\..\u8g2\u8g2\csrc/u8x8_d_ssd1325.c **** };
  74:..\..\..\u8g2\u8g2\csrc/u8x8_d_ssd1325.c **** 
  75:..\..\..\u8g2\u8g2\csrc/u8x8_d_ssd1325.c **** 
  76:..\..\..\u8g2\u8g2\csrc/u8x8_d_ssd1325.c **** /*
  77:..\..\..\u8g2\u8g2\csrc/u8x8_d_ssd1325.c ****   input:
  78:..\..\..\u8g2\u8g2\csrc/u8x8_d_ssd1325.c ****     one tile (8 Bytes)
  79:..\..\..\u8g2\u8g2\csrc/u8x8_d_ssd1325.c ****   output:
  80:..\..\..\u8g2\u8g2\csrc/u8x8_d_ssd1325.c ****     Tile for SSD1325 (32 Bytes)
  81:..\..\..\u8g2\u8g2\csrc/u8x8_d_ssd1325.c **** */
  82:..\..\..\u8g2\u8g2\csrc/u8x8_d_ssd1325.c **** 
  83:..\..\..\u8g2\u8g2\csrc/u8x8_d_ssd1325.c **** static uint8_t u8x8_ssd1325_8to32_dest_buf[32];
  84:..\..\..\u8g2\u8g2\csrc/u8x8_d_ssd1325.c **** 
  85:..\..\..\u8g2\u8g2\csrc/u8x8_d_ssd1325.c **** static uint8_t *u8x8_ssd1325_8to32(U8X8_UNUSED u8x8_t *u8x8, uint8_t *ptr)
  86:..\..\..\u8g2\u8g2\csrc/u8x8_d_ssd1325.c **** {
  87:..\..\..\u8g2\u8g2\csrc/u8x8_d_ssd1325.c ****   uint8_t v;
  88:..\..\..\u8g2\u8g2\csrc/u8x8_d_ssd1325.c ****   uint8_t a,b;
ARM GAS  C:\Users\jesse\AppData\Local\Temp\cc5PybHd.s 			page 3


  89:..\..\..\u8g2\u8g2\csrc/u8x8_d_ssd1325.c ****   uint8_t i, j;
  90:..\..\..\u8g2\u8g2\csrc/u8x8_d_ssd1325.c ****   uint8_t *dest;
  91:..\..\..\u8g2\u8g2\csrc/u8x8_d_ssd1325.c ****   
  92:..\..\..\u8g2\u8g2\csrc/u8x8_d_ssd1325.c ****   for( j = 0; j < 4; j++ )
  93:..\..\..\u8g2\u8g2\csrc/u8x8_d_ssd1325.c ****   {
  94:..\..\..\u8g2\u8g2\csrc/u8x8_d_ssd1325.c ****     dest = u8x8_ssd1325_8to32_dest_buf;
  95:..\..\..\u8g2\u8g2\csrc/u8x8_d_ssd1325.c ****     dest += j;
  96:..\..\..\u8g2\u8g2\csrc/u8x8_d_ssd1325.c ****     a =*ptr;
  97:..\..\..\u8g2\u8g2\csrc/u8x8_d_ssd1325.c ****     ptr++;
  98:..\..\..\u8g2\u8g2\csrc/u8x8_d_ssd1325.c ****     b = *ptr;
  99:..\..\..\u8g2\u8g2\csrc/u8x8_d_ssd1325.c ****     ptr++;
 100:..\..\..\u8g2\u8g2\csrc/u8x8_d_ssd1325.c ****     for( i = 0; i < 8; i++ )
 101:..\..\..\u8g2\u8g2\csrc/u8x8_d_ssd1325.c ****     {
 102:..\..\..\u8g2\u8g2\csrc/u8x8_d_ssd1325.c ****       v = 0;
 103:..\..\..\u8g2\u8g2\csrc/u8x8_d_ssd1325.c ****       if ( a&1 ) v |= 0xf0;
 104:..\..\..\u8g2\u8g2\csrc/u8x8_d_ssd1325.c ****       if ( b&1 ) v |= 0x0f;
 105:..\..\..\u8g2\u8g2\csrc/u8x8_d_ssd1325.c ****       *dest = v;
 106:..\..\..\u8g2\u8g2\csrc/u8x8_d_ssd1325.c ****       dest+=4;
 107:..\..\..\u8g2\u8g2\csrc/u8x8_d_ssd1325.c ****       a >>= 1;
 108:..\..\..\u8g2\u8g2\csrc/u8x8_d_ssd1325.c ****       b >>= 1;
 109:..\..\..\u8g2\u8g2\csrc/u8x8_d_ssd1325.c ****     }
 110:..\..\..\u8g2\u8g2\csrc/u8x8_d_ssd1325.c ****   }
 111:..\..\..\u8g2\u8g2\csrc/u8x8_d_ssd1325.c ****   
 112:..\..\..\u8g2\u8g2\csrc/u8x8_d_ssd1325.c ****   return u8x8_ssd1325_8to32_dest_buf;
 113:..\..\..\u8g2\u8g2\csrc/u8x8_d_ssd1325.c **** }
 114:..\..\..\u8g2\u8g2\csrc/u8x8_d_ssd1325.c **** 
 115:..\..\..\u8g2\u8g2\csrc/u8x8_d_ssd1325.c **** 
 116:..\..\..\u8g2\u8g2\csrc/u8x8_d_ssd1325.c **** /*===================================================================*/
 117:..\..\..\u8g2\u8g2\csrc/u8x8_d_ssd1325.c **** 
 118:..\..\..\u8g2\u8g2\csrc/u8x8_d_ssd1325.c **** static uint8_t u8x8_d_ssd1325_128x64_generic(u8x8_t *u8x8, uint8_t msg, uint8_t arg_int, void *arg_
 119:..\..\..\u8g2\u8g2\csrc/u8x8_d_ssd1325.c **** {
  27              		.loc 1 119 0
  28              		.cfi_startproc
  29              		@ args = 0, pretend = 0, frame = 16
  30              		@ frame_needed = 0, uses_anonymous_args = 0
  31              	.LVL0:
  32 0000 2DE9F04F 		push	{r4, r5, r6, r7, r8, r9, r10, fp, lr}
  33              		.cfi_def_cfa_offset 36
  34              		.cfi_offset 4, -36
  35              		.cfi_offset 5, -32
  36              		.cfi_offset 6, -28
  37              		.cfi_offset 7, -24
  38              		.cfi_offset 8, -20
  39              		.cfi_offset 9, -16
  40              		.cfi_offset 10, -12
  41              		.cfi_offset 11, -8
  42              		.cfi_offset 14, -4
 120:..\..\..\u8g2\u8g2\csrc/u8x8_d_ssd1325.c ****   uint8_t x, y, c;
 121:..\..\..\u8g2\u8g2\csrc/u8x8_d_ssd1325.c ****   uint8_t *ptr;
 122:..\..\..\u8g2\u8g2\csrc/u8x8_d_ssd1325.c ****   switch(msg)
  43              		.loc 1 122 0
  44 0004 0E29     		cmp	r1, #14
 119:..\..\..\u8g2\u8g2\csrc/u8x8_d_ssd1325.c ****   uint8_t x, y, c;
  45              		.loc 1 119 0
  46 0006 85B0     		sub	sp, sp, #20
  47              		.cfi_def_cfa_offset 56
 119:..\..\..\u8g2\u8g2\csrc/u8x8_d_ssd1325.c ****   uint8_t x, y, c;
ARM GAS  C:\Users\jesse\AppData\Local\Temp\cc5PybHd.s 			page 4


  48              		.loc 1 119 0
  49 0008 0446     		mov	r4, r0
  50 000a 1746     		mov	r7, r2
  51 000c 9A46     		mov	r10, r3
  52              		.loc 1 122 0
  53 000e 0BD0     		beq	.L3
  54 0010 0F29     		cmp	r1, #15
  55 0012 18D0     		beq	.L4
  56 0014 0B29     		cmp	r1, #11
  57 0016 40F0C180 		bne	.L24
 123:..\..\..\u8g2\u8g2\csrc/u8x8_d_ssd1325.c ****   {
 124:..\..\..\u8g2\u8g2\csrc/u8x8_d_ssd1325.c ****     /* handled by the calling function
 125:..\..\..\u8g2\u8g2\csrc/u8x8_d_ssd1325.c ****     case U8X8_MSG_DISPLAY_SETUP_MEMORY:
 126:..\..\..\u8g2\u8g2\csrc/u8x8_d_ssd1325.c ****       u8x8_d_helper_display_setup_memory(u8x8, &u8x8_ssd1325_128x64_nhd_display_info);
 127:..\..\..\u8g2\u8g2\csrc/u8x8_d_ssd1325.c ****       break;
 128:..\..\..\u8g2\u8g2\csrc/u8x8_d_ssd1325.c ****     */
 129:..\..\..\u8g2\u8g2\csrc/u8x8_d_ssd1325.c ****     
 130:..\..\..\u8g2\u8g2\csrc/u8x8_d_ssd1325.c ****     /* handled by the calling function
 131:..\..\..\u8g2\u8g2\csrc/u8x8_d_ssd1325.c ****     case U8X8_MSG_DISPLAY_INIT:
 132:..\..\..\u8g2\u8g2\csrc/u8x8_d_ssd1325.c ****       u8x8_d_helper_display_init(u8x8);
 133:..\..\..\u8g2\u8g2\csrc/u8x8_d_ssd1325.c ****       u8x8_cad_SendSequence(u8x8, u8x8_d_ssd1325_128x64_nhd_init_seq);    
 134:..\..\..\u8g2\u8g2\csrc/u8x8_d_ssd1325.c ****       break;
 135:..\..\..\u8g2\u8g2\csrc/u8x8_d_ssd1325.c ****     */
 136:..\..\..\u8g2\u8g2\csrc/u8x8_d_ssd1325.c ****     case U8X8_MSG_DISPLAY_SET_POWER_SAVE:
 137:..\..\..\u8g2\u8g2\csrc/u8x8_d_ssd1325.c ****       if ( arg_int == 0 )
  58              		.loc 1 137 0
  59 001a 0AB9     		cbnz	r2, .L6
 138:..\..\..\u8g2\u8g2\csrc/u8x8_d_ssd1325.c **** 	u8x8_cad_SendSequence(u8x8, u8x8_d_ssd1325_128x64_nhd_powersave0_seq);
  60              		.loc 1 138 0
  61 001c 6149     		ldr	r1, .L29
  62              	.LVL1:
  63 001e 00E0     		b	.L27
  64              	.LVL2:
  65              	.L6:
 139:..\..\..\u8g2\u8g2\csrc/u8x8_d_ssd1325.c ****       else
 140:..\..\..\u8g2\u8g2\csrc/u8x8_d_ssd1325.c **** 	u8x8_cad_SendSequence(u8x8, u8x8_d_ssd1325_128x64_nhd_powersave1_seq);
  66              		.loc 1 140 0
  67 0020 6149     		ldr	r1, .L29+4
  68              	.LVL3:
  69              	.L27:
  70 0022 FFF7FEFF 		bl	u8x8_cad_SendSequence
  71              	.LVL4:
  72 0026 0CE0     		b	.L25
  73              	.LVL5:
  74              	.L3:
 141:..\..\..\u8g2\u8g2\csrc/u8x8_d_ssd1325.c ****       break;
 142:..\..\..\u8g2\u8g2\csrc/u8x8_d_ssd1325.c ****       
 143:..\..\..\u8g2\u8g2\csrc/u8x8_d_ssd1325.c ****     /* handled by the calling function
 144:..\..\..\u8g2\u8g2\csrc/u8x8_d_ssd1325.c ****     case U8X8_MSG_DISPLAY_SET_FLIP_MODE:
 145:..\..\..\u8g2\u8g2\csrc/u8x8_d_ssd1325.c ****       if ( arg_int == 0 )
 146:..\..\..\u8g2\u8g2\csrc/u8x8_d_ssd1325.c ****       {
 147:..\..\..\u8g2\u8g2\csrc/u8x8_d_ssd1325.c **** 	u8x8_cad_SendSequence(u8x8, u8x8_d_ssd1325_128x64_nhd_flip0_seq);
 148:..\..\..\u8g2\u8g2\csrc/u8x8_d_ssd1325.c **** 	u8x8->x_offset = u8x8->display_info->default_x_offset;
 149:..\..\..\u8g2\u8g2\csrc/u8x8_d_ssd1325.c ****       }
 150:..\..\..\u8g2\u8g2\csrc/u8x8_d_ssd1325.c ****       else
 151:..\..\..\u8g2\u8g2\csrc/u8x8_d_ssd1325.c ****       {
 152:..\..\..\u8g2\u8g2\csrc/u8x8_d_ssd1325.c **** 	u8x8_cad_SendSequence(u8x8, u8x8_d_ssd1325_128x64_nhd_flip1_seq);
ARM GAS  C:\Users\jesse\AppData\Local\Temp\cc5PybHd.s 			page 5


 153:..\..\..\u8g2\u8g2\csrc/u8x8_d_ssd1325.c **** 	u8x8->x_offset = u8x8->display_info->flipmode_x_offset;
 154:..\..\..\u8g2\u8g2\csrc/u8x8_d_ssd1325.c ****       }
 155:..\..\..\u8g2\u8g2\csrc/u8x8_d_ssd1325.c ****       break;
 156:..\..\..\u8g2\u8g2\csrc/u8x8_d_ssd1325.c ****       */
 157:..\..\..\u8g2\u8g2\csrc/u8x8_d_ssd1325.c **** #ifdef U8X8_WITH_SET_CONTRAST
 158:..\..\..\u8g2\u8g2\csrc/u8x8_d_ssd1325.c ****     case U8X8_MSG_DISPLAY_SET_CONTRAST:
 159:..\..\..\u8g2\u8g2\csrc/u8x8_d_ssd1325.c ****       u8x8_cad_StartTransfer(u8x8);
  75              		.loc 1 159 0
  76 0028 FFF7FEFF 		bl	u8x8_cad_StartTransfer
  77              	.LVL6:
 160:..\..\..\u8g2\u8g2\csrc/u8x8_d_ssd1325.c ****       u8x8_cad_SendCmd(u8x8, 0x081 );
  78              		.loc 1 160 0
  79 002c 8121     		movs	r1, #129
  80 002e 2046     		mov	r0, r4
  81 0030 FFF7FEFF 		bl	u8x8_cad_SendCmd
  82              	.LVL7:
 161:..\..\..\u8g2\u8g2\csrc/u8x8_d_ssd1325.c ****       u8x8_cad_SendArg(u8x8, arg_int );	/* ssd1325 has range from 0 to 255 */
  83              		.loc 1 161 0
  84 0034 3946     		mov	r1, r7
  85 0036 2046     		mov	r0, r4
  86 0038 FFF7FEFF 		bl	u8x8_cad_SendArg
  87              	.LVL8:
  88              	.L26:
 162:..\..\..\u8g2\u8g2\csrc/u8x8_d_ssd1325.c ****       u8x8_cad_EndTransfer(u8x8);
  89              		.loc 1 162 0
  90 003c 2046     		mov	r0, r4
  91 003e FFF7FEFF 		bl	u8x8_cad_EndTransfer
  92              	.LVL9:
  93              	.L25:
 163:..\..\..\u8g2\u8g2\csrc/u8x8_d_ssd1325.c ****       break;
 164:..\..\..\u8g2\u8g2\csrc/u8x8_d_ssd1325.c **** #endif
 165:..\..\..\u8g2\u8g2\csrc/u8x8_d_ssd1325.c ****     case U8X8_MSG_DISPLAY_DRAW_TILE:
 166:..\..\..\u8g2\u8g2\csrc/u8x8_d_ssd1325.c ****       u8x8_cad_StartTransfer(u8x8);
 167:..\..\..\u8g2\u8g2\csrc/u8x8_d_ssd1325.c ****       x = ((u8x8_tile_t *)arg_ptr)->x_pos;    
 168:..\..\..\u8g2\u8g2\csrc/u8x8_d_ssd1325.c ****       x *= 4;
 169:..\..\..\u8g2\u8g2\csrc/u8x8_d_ssd1325.c ****     
 170:..\..\..\u8g2\u8g2\csrc/u8x8_d_ssd1325.c ****       y = (((u8x8_tile_t *)arg_ptr)->y_pos);
 171:..\..\..\u8g2\u8g2\csrc/u8x8_d_ssd1325.c ****       y *= 8;
 172:..\..\..\u8g2\u8g2\csrc/u8x8_d_ssd1325.c ****       y += u8x8->x_offset;		/* x_offset is used as y offset for the SSD1325 */
 173:..\..\..\u8g2\u8g2\csrc/u8x8_d_ssd1325.c ****     
 174:..\..\..\u8g2\u8g2\csrc/u8x8_d_ssd1325.c **** 
 175:..\..\..\u8g2\u8g2\csrc/u8x8_d_ssd1325.c ****       u8x8_cad_SendCmd(u8x8, 0x075 );	/* set row address */
 176:..\..\..\u8g2\u8g2\csrc/u8x8_d_ssd1325.c ****       u8x8_cad_SendArg(u8x8, y);
 177:..\..\..\u8g2\u8g2\csrc/u8x8_d_ssd1325.c ****       u8x8_cad_SendArg(u8x8, y+7);
 178:..\..\..\u8g2\u8g2\csrc/u8x8_d_ssd1325.c ****     
 179:..\..\..\u8g2\u8g2\csrc/u8x8_d_ssd1325.c ****       do
 180:..\..\..\u8g2\u8g2\csrc/u8x8_d_ssd1325.c ****       {
 181:..\..\..\u8g2\u8g2\csrc/u8x8_d_ssd1325.c **** 	c = ((u8x8_tile_t *)arg_ptr)->cnt;
 182:..\..\..\u8g2\u8g2\csrc/u8x8_d_ssd1325.c **** 	ptr = ((u8x8_tile_t *)arg_ptr)->tile_ptr;
 183:..\..\..\u8g2\u8g2\csrc/u8x8_d_ssd1325.c **** 
 184:..\..\..\u8g2\u8g2\csrc/u8x8_d_ssd1325.c **** 	do
 185:..\..\..\u8g2\u8g2\csrc/u8x8_d_ssd1325.c **** 	{
 186:..\..\..\u8g2\u8g2\csrc/u8x8_d_ssd1325.c **** 	  if ( ptr[0] | ptr[1] | ptr[2] | ptr[3] | ptr[4] | ptr[5] | ptr[6] | ptr[7] )
 187:..\..\..\u8g2\u8g2\csrc/u8x8_d_ssd1325.c **** 	  {
 188:..\..\..\u8g2\u8g2\csrc/u8x8_d_ssd1325.c **** 	    /* draw the tile if pattern is not zero for all bytes */
 189:..\..\..\u8g2\u8g2\csrc/u8x8_d_ssd1325.c **** 	    u8x8_cad_SendCmd(u8x8, 0x015 );	/* set column address */
 190:..\..\..\u8g2\u8g2\csrc/u8x8_d_ssd1325.c **** 	    u8x8_cad_SendArg(u8x8, x );	/* start */
ARM GAS  C:\Users\jesse\AppData\Local\Temp\cc5PybHd.s 			page 6


 191:..\..\..\u8g2\u8g2\csrc/u8x8_d_ssd1325.c **** 	    u8x8_cad_SendArg(u8x8, x+3 );	/* end */
 192:..\..\..\u8g2\u8g2\csrc/u8x8_d_ssd1325.c **** 
 193:..\..\..\u8g2\u8g2\csrc/u8x8_d_ssd1325.c **** 	    
 194:..\..\..\u8g2\u8g2\csrc/u8x8_d_ssd1325.c **** 	    
 195:..\..\..\u8g2\u8g2\csrc/u8x8_d_ssd1325.c **** 	    u8x8_cad_SendData(u8x8, 32, u8x8_ssd1325_8to32(u8x8, ptr));
 196:..\..\..\u8g2\u8g2\csrc/u8x8_d_ssd1325.c **** 	  }
 197:..\..\..\u8g2\u8g2\csrc/u8x8_d_ssd1325.c **** 	  else
 198:..\..\..\u8g2\u8g2\csrc/u8x8_d_ssd1325.c **** 	  {
 199:..\..\..\u8g2\u8g2\csrc/u8x8_d_ssd1325.c **** 	    /* tile is empty, use the graphics acceleration command */
 200:..\..\..\u8g2\u8g2\csrc/u8x8_d_ssd1325.c **** 	    u8x8_cad_SendCmd(u8x8, 0x024 );	// draw rectangle
 201:..\..\..\u8g2\u8g2\csrc/u8x8_d_ssd1325.c **** 	    u8x8_cad_SendArg(u8x8, x );	
 202:..\..\..\u8g2\u8g2\csrc/u8x8_d_ssd1325.c **** 	    u8x8_cad_SendArg(u8x8, y );	
 203:..\..\..\u8g2\u8g2\csrc/u8x8_d_ssd1325.c **** 	    u8x8_cad_SendArg(u8x8, x+3 );	
 204:..\..\..\u8g2\u8g2\csrc/u8x8_d_ssd1325.c **** 	    u8x8_cad_SendArg(u8x8, y+7 );	
 205:..\..\..\u8g2\u8g2\csrc/u8x8_d_ssd1325.c **** 	    u8x8_cad_SendArg(u8x8, 0 );	// clear	    
 206:..\..\..\u8g2\u8g2\csrc/u8x8_d_ssd1325.c **** 	  }
 207:..\..\..\u8g2\u8g2\csrc/u8x8_d_ssd1325.c **** 	  ptr += 8;
 208:..\..\..\u8g2\u8g2\csrc/u8x8_d_ssd1325.c **** 	  x += 4;
 209:..\..\..\u8g2\u8g2\csrc/u8x8_d_ssd1325.c **** 	  c--;
 210:..\..\..\u8g2\u8g2\csrc/u8x8_d_ssd1325.c **** 	} while( c > 0 );
 211:..\..\..\u8g2\u8g2\csrc/u8x8_d_ssd1325.c **** 	
 212:..\..\..\u8g2\u8g2\csrc/u8x8_d_ssd1325.c **** 	//x += 4;
 213:..\..\..\u8g2\u8g2\csrc/u8x8_d_ssd1325.c **** 	arg_int--;
 214:..\..\..\u8g2\u8g2\csrc/u8x8_d_ssd1325.c ****       } while( arg_int > 0 );
 215:..\..\..\u8g2\u8g2\csrc/u8x8_d_ssd1325.c **** 
 216:..\..\..\u8g2\u8g2\csrc/u8x8_d_ssd1325.c ****       u8x8_cad_SendCmd(u8x8, 0xe3); // no-op needs to be sent after last byte before cs is toggled.
 217:..\..\..\u8g2\u8g2\csrc/u8x8_d_ssd1325.c ****       
 218:..\..\..\u8g2\u8g2\csrc/u8x8_d_ssd1325.c ****       u8x8_cad_EndTransfer(u8x8);
 219:..\..\..\u8g2\u8g2\csrc/u8x8_d_ssd1325.c ****       break;
 220:..\..\..\u8g2\u8g2\csrc/u8x8_d_ssd1325.c ****     default:
 221:..\..\..\u8g2\u8g2\csrc/u8x8_d_ssd1325.c ****       return 0;
 222:..\..\..\u8g2\u8g2\csrc/u8x8_d_ssd1325.c ****   }
 223:..\..\..\u8g2\u8g2\csrc/u8x8_d_ssd1325.c ****   return 1;
  94              		.loc 1 223 0
  95 0042 0120     		movs	r0, #1
 163:..\..\..\u8g2\u8g2\csrc/u8x8_d_ssd1325.c ****       break;
  96              		.loc 1 163 0
  97 0044 ABE0     		b	.L2
  98              	.LVL10:
  99              	.L4:
 100              	.LBB6:
 101              	.LBB7:
 166:..\..\..\u8g2\u8g2\csrc/u8x8_d_ssd1325.c ****       x = ((u8x8_tile_t *)arg_ptr)->x_pos;    
 102              		.loc 1 166 0
 103 0046 FFF7FEFF 		bl	u8x8_cad_StartTransfer
 104              	.LVL11:
 172:..\..\..\u8g2\u8g2\csrc/u8x8_d_ssd1325.c ****     
 105              		.loc 1 172 0
 106 004a 94F82230 		ldrb	r3, [r4, #34]	@ zero_extendqisi2
 170:..\..\..\u8g2\u8g2\csrc/u8x8_d_ssd1325.c ****       y *= 8;
 107              		.loc 1 170 0
 108 004e 9AF80690 		ldrb	r9, [r10, #6]	@ zero_extendqisi2
 175:..\..\..\u8g2\u8g2\csrc/u8x8_d_ssd1325.c ****       u8x8_cad_SendArg(u8x8, y);
 109              		.loc 1 175 0
 110 0052 7521     		movs	r1, #117
 172:..\..\..\u8g2\u8g2\csrc/u8x8_d_ssd1325.c ****     
 111              		.loc 1 172 0
ARM GAS  C:\Users\jesse\AppData\Local\Temp\cc5PybHd.s 			page 7


 112 0054 03EBC909 		add	r9, r3, r9, lsl #3
 113 0058 09F0FF09 		and	r9, r9, #255
 175:..\..\..\u8g2\u8g2\csrc/u8x8_d_ssd1325.c ****       u8x8_cad_SendArg(u8x8, y);
 114              		.loc 1 175 0
 115 005c 2046     		mov	r0, r4
 167:..\..\..\u8g2\u8g2\csrc/u8x8_d_ssd1325.c ****       x *= 4;
 116              		.loc 1 167 0
 117 005e 9AF80580 		ldrb	r8, [r10, #5]	@ zero_extendqisi2
 118              	.LVL12:
 175:..\..\..\u8g2\u8g2\csrc/u8x8_d_ssd1325.c ****       u8x8_cad_SendArg(u8x8, y);
 119              		.loc 1 175 0
 120 0062 FFF7FEFF 		bl	u8x8_cad_SendCmd
 121              	.LVL13:
 176:..\..\..\u8g2\u8g2\csrc/u8x8_d_ssd1325.c ****       u8x8_cad_SendArg(u8x8, y+7);
 122              		.loc 1 176 0
 123 0066 4946     		mov	r1, r9
 124 0068 2046     		mov	r0, r4
 125 006a FFF7FEFF 		bl	u8x8_cad_SendArg
 126              	.LVL14:
 177:..\..\..\u8g2\u8g2\csrc/u8x8_d_ssd1325.c ****     
 127              		.loc 1 177 0
 128 006e 09F10703 		add	r3, r9, #7
 129 0072 DBB2     		uxtb	r3, r3
 168:..\..\..\u8g2\u8g2\csrc/u8x8_d_ssd1325.c ****     
 130              		.loc 1 168 0
 131 0074 4FEA8808 		lsl	r8, r8, #2
 132              	.LVL15:
 177:..\..\..\u8g2\u8g2\csrc/u8x8_d_ssd1325.c ****     
 133              		.loc 1 177 0
 134 0078 1946     		mov	r1, r3
 135 007a 2046     		mov	r0, r4
 168:..\..\..\u8g2\u8g2\csrc/u8x8_d_ssd1325.c ****     
 136              		.loc 1 168 0
 137 007c 5FFA88F8 		uxtb	r8, r8
 138              	.LVL16:
 177:..\..\..\u8g2\u8g2\csrc/u8x8_d_ssd1325.c ****     
 139              		.loc 1 177 0
 140 0080 0093     		str	r3, [sp]
 141 0082 FFF7FEFF 		bl	u8x8_cad_SendArg
 142              	.LVL17:
 143              	.L14:
 181:..\..\..\u8g2\u8g2\csrc/u8x8_d_ssd1325.c **** 	ptr = ((u8x8_tile_t *)arg_ptr)->tile_ptr;
 144              		.loc 1 181 0
 145 0086 9AF80430 		ldrb	r3, [r10, #4]	@ zero_extendqisi2
 146 008a 08F10306 		add	r6, r8, #3
 147 008e 0193     		str	r3, [sp, #4]
 148              	.LVL18:
 149 0090 019A     		ldr	r2, [sp, #4]
 182:..\..\..\u8g2\u8g2\csrc/u8x8_d_ssd1325.c **** 
 150              		.loc 1 182 0
 151 0092 DAF80030 		ldr	r3, [r10]
 152              	.LVL19:
 153 0096 013A     		subs	r2, r2, #1
 154 0098 D2B2     		uxtb	r2, r2
 155 009a 9D1C     		adds	r5, r3, #2
 156 009c 03EBC203 		add	r3, r3, r2, lsl #3
 157              	.LVL20:
ARM GAS  C:\Users\jesse\AppData\Local\Temp\cc5PybHd.s 			page 8


 158 00a0 0A33     		adds	r3, r3, #10
 159 00a2 F6B2     		uxtb	r6, r6
 160 00a4 0293     		str	r3, [sp, #8]
 161              	.LVL21:
 162              	.L13:
 186:..\..\..\u8g2\u8g2\csrc/u8x8_d_ssd1325.c **** 	  {
 163              		.loc 1 186 0
 164 00a6 15F8022C 		ldrb	r2, [r5, #-2]	@ zero_extendqisi2
 165 00aa 15F8013C 		ldrb	r3, [r5, #-1]	@ zero_extendqisi2
 166 00ae E978     		ldrb	r1, [r5, #3]	@ zero_extendqisi2
 167 00b0 1343     		orrs	r3, r3, r2
 168 00b2 2A78     		ldrb	r2, [r5]	@ zero_extendqisi2
 169 00b4 A6F1030B 		sub	fp, r6, #3
 170 00b8 1343     		orrs	r3, r3, r2
 171 00ba 6A78     		ldrb	r2, [r5, #1]	@ zero_extendqisi2
 172 00bc 5FFA8BFB 		uxtb	fp, fp
 173              	.LVL22:
 174 00c0 1343     		orrs	r3, r3, r2
 175 00c2 AA78     		ldrb	r2, [r5, #2]	@ zero_extendqisi2
 176 00c4 1343     		orrs	r3, r3, r2
 177 00c6 2A79     		ldrb	r2, [r5, #4]	@ zero_extendqisi2
 178 00c8 0B43     		orrs	r3, r3, r1
 179 00ca 1A43     		orrs	r2, r2, r3
 180 00cc 6B79     		ldrb	r3, [r5, #5]	@ zero_extendqisi2
 181 00ce 1343     		orrs	r3, r2, r3
 182 00d0 35D0     		beq	.L7
 189:..\..\..\u8g2\u8g2\csrc/u8x8_d_ssd1325.c **** 	    u8x8_cad_SendArg(u8x8, x );	/* start */
 183              		.loc 1 189 0
 184 00d2 1521     		movs	r1, #21
 185 00d4 2046     		mov	r0, r4
 186 00d6 FFF7FEFF 		bl	u8x8_cad_SendCmd
 187              	.LVL23:
 190:..\..\..\u8g2\u8g2\csrc/u8x8_d_ssd1325.c **** 	    u8x8_cad_SendArg(u8x8, x+3 );	/* end */
 188              		.loc 1 190 0
 189 00da 5946     		mov	r1, fp
 190 00dc 2046     		mov	r0, r4
 191 00de FFF7FEFF 		bl	u8x8_cad_SendArg
 192              	.LVL24:
 191:..\..\..\u8g2\u8g2\csrc/u8x8_d_ssd1325.c **** 
 193              		.loc 1 191 0
 194 00e2 3146     		mov	r1, r6
 195 00e4 2046     		mov	r0, r4
 196 00e6 FFF7FEFF 		bl	u8x8_cad_SendArg
 197              	.LVL25:
 198 00ea 2A46     		mov	r2, r5
 199 00ec 0023     		movs	r3, #0
 200              	.LVL26:
 201              	.L11:
 202 00ee 2F49     		ldr	r1, .L29+8
 203              	.LBB8:
 204              	.LBB9:
  96:..\..\..\u8g2\u8g2\csrc/u8x8_d_ssd1325.c ****     ptr++;
 205              		.loc 1 96 0
 206 00f0 12F802EC 		ldrb	lr, [r2, #-2]	@ zero_extendqisi2
  98:..\..\..\u8g2\u8g2\csrc/u8x8_d_ssd1325.c ****     ptr++;
 207              		.loc 1 98 0
 208 00f4 12F8010C 		ldrb	r0, [r2, #-1]	@ zero_extendqisi2
ARM GAS  C:\Users\jesse\AppData\Local\Temp\cc5PybHd.s 			page 9


 209 00f8 01EB030B 		add	fp, r1, r3
 210              	.LVL27:
 211 00fc 0021     		movs	r1, #0
 212              	.LVL28:
 213              	.L10:
 103:..\..\..\u8g2\u8g2\csrc/u8x8_d_ssd1325.c ****       if ( b&1 ) v |= 0x0f;
 214              		.loc 1 103 0
 215 00fe 1EF0010F 		tst	lr, #1
 216 0102 14BF     		ite	ne
 217 0104 4FF0F00C 		movne	ip, #240
 218 0108 4FF0000C 		moveq	ip, #0
 219              	.LVL29:
 104:..\..\..\u8g2\u8g2\csrc/u8x8_d_ssd1325.c ****       *dest = v;
 220              		.loc 1 104 0
 221 010c 10F0010F 		tst	r0, #1
 222 0110 18BF     		it	ne
 223 0112 4CF00F0C 		orrne	ip, ip, #15
 224              	.LVL30:
 105:..\..\..\u8g2\u8g2\csrc/u8x8_d_ssd1325.c ****       dest+=4;
 225              		.loc 1 105 0
 226 0116 0BF821C0 		strb	ip, [fp, r1, lsl #2]
 227              	.LVL31:
 228 011a 0131     		adds	r1, r1, #1
 229              	.LVL32:
 100:..\..\..\u8g2\u8g2\csrc/u8x8_d_ssd1325.c ****     {
 230              		.loc 1 100 0
 231 011c 0829     		cmp	r1, #8
 107:..\..\..\u8g2\u8g2\csrc/u8x8_d_ssd1325.c ****       b >>= 1;
 232              		.loc 1 107 0
 233 011e 4FEA5E0E 		lsr	lr, lr, #1
 234              	.LVL33:
 108:..\..\..\u8g2\u8g2\csrc/u8x8_d_ssd1325.c ****     }
 235              		.loc 1 108 0
 236 0122 4FEA5000 		lsr	r0, r0, #1
 237              	.LVL34:
 100:..\..\..\u8g2\u8g2\csrc/u8x8_d_ssd1325.c ****     {
 238              		.loc 1 100 0
 239 0126 EAD1     		bne	.L10
 240              	.LVL35:
 241 0128 0133     		adds	r3, r3, #1
 242              	.LVL36:
  92:..\..\..\u8g2\u8g2\csrc/u8x8_d_ssd1325.c ****   {
 243              		.loc 1 92 0
 244 012a 042B     		cmp	r3, #4
 245 012c 02F10202 		add	r2, r2, #2
 246              	.LVL37:
 247 0130 DDD1     		bne	.L11
 248              	.LVL38:
 249              	.LBE9:
 250              	.LBE8:
 195:..\..\..\u8g2\u8g2\csrc/u8x8_d_ssd1325.c **** 	  }
 251              		.loc 1 195 0
 252 0132 1E4A     		ldr	r2, .L29+8
 253 0134 2021     		movs	r1, #32
 254 0136 2046     		mov	r0, r4
 255 0138 FFF7FEFF 		bl	u8x8_cad_SendData
 256              	.LVL39:
ARM GAS  C:\Users\jesse\AppData\Local\Temp\cc5PybHd.s 			page 10


 257 013c 19E0     		b	.L12
 258              	.LVL40:
 259              	.L7:
 200:..\..\..\u8g2\u8g2\csrc/u8x8_d_ssd1325.c **** 	    u8x8_cad_SendArg(u8x8, x );	
 260              		.loc 1 200 0
 261 013e 2421     		movs	r1, #36
 262 0140 2046     		mov	r0, r4
 263 0142 0393     		str	r3, [sp, #12]
 264 0144 FFF7FEFF 		bl	u8x8_cad_SendCmd
 265              	.LVL41:
 201:..\..\..\u8g2\u8g2\csrc/u8x8_d_ssd1325.c **** 	    u8x8_cad_SendArg(u8x8, y );	
 266              		.loc 1 201 0
 267 0148 5946     		mov	r1, fp
 268 014a 2046     		mov	r0, r4
 269 014c FFF7FEFF 		bl	u8x8_cad_SendArg
 270              	.LVL42:
 202:..\..\..\u8g2\u8g2\csrc/u8x8_d_ssd1325.c **** 	    u8x8_cad_SendArg(u8x8, x+3 );	
 271              		.loc 1 202 0
 272 0150 4946     		mov	r1, r9
 273 0152 2046     		mov	r0, r4
 274 0154 FFF7FEFF 		bl	u8x8_cad_SendArg
 275              	.LVL43:
 203:..\..\..\u8g2\u8g2\csrc/u8x8_d_ssd1325.c **** 	    u8x8_cad_SendArg(u8x8, y+7 );	
 276              		.loc 1 203 0
 277 0158 3146     		mov	r1, r6
 278 015a 2046     		mov	r0, r4
 279 015c FFF7FEFF 		bl	u8x8_cad_SendArg
 280              	.LVL44:
 204:..\..\..\u8g2\u8g2\csrc/u8x8_d_ssd1325.c **** 	    u8x8_cad_SendArg(u8x8, 0 );	// clear	    
 281              		.loc 1 204 0
 282 0160 0099     		ldr	r1, [sp]
 283 0162 2046     		mov	r0, r4
 284 0164 FFF7FEFF 		bl	u8x8_cad_SendArg
 285              	.LVL45:
 205:..\..\..\u8g2\u8g2\csrc/u8x8_d_ssd1325.c **** 	  }
 286              		.loc 1 205 0
 287 0168 039B     		ldr	r3, [sp, #12]
 288 016a 2046     		mov	r0, r4
 289 016c 1946     		mov	r1, r3
 290 016e FFF7FEFF 		bl	u8x8_cad_SendArg
 291              	.LVL46:
 292              	.L12:
 210:..\..\..\u8g2\u8g2\csrc/u8x8_d_ssd1325.c **** 	
 293              		.loc 1 210 0
 294 0172 029B     		ldr	r3, [sp, #8]
 295 0174 0835     		adds	r5, r5, #8
 296              	.LVL47:
 297 0176 0436     		adds	r6, r6, #4
 298              	.LVL48:
 299 0178 AB42     		cmp	r3, r5
 300 017a F6B2     		uxtb	r6, r6
 301 017c 93D1     		bne	.L13
 302 017e 019B     		ldr	r3, [sp, #4]
 213:..\..\..\u8g2\u8g2\csrc/u8x8_d_ssd1325.c ****       } while( arg_int > 0 );
 303              		.loc 1 213 0
 304 0180 013F     		subs	r7, r7, #1
 305              	.LVL49:
ARM GAS  C:\Users\jesse\AppData\Local\Temp\cc5PybHd.s 			page 11


 306 0182 08EB8308 		add	r8, r8, r3, lsl #2
 214:..\..\..\u8g2\u8g2\csrc/u8x8_d_ssd1325.c **** 
 307              		.loc 1 214 0
 308 0186 17F0FF07 		ands	r7, r7, #255
 309              	.LVL50:
 310 018a 5FFA88F8 		uxtb	r8, r8
 311 018e 7FF47AAF 		bne	.L14
 216:..\..\..\u8g2\u8g2\csrc/u8x8_d_ssd1325.c ****       
 312              		.loc 1 216 0
 313 0192 E321     		movs	r1, #227
 314 0194 2046     		mov	r0, r4
 315 0196 FFF7FEFF 		bl	u8x8_cad_SendCmd
 316              	.LVL51:
 317 019a 4FE7     		b	.L26
 318              	.LVL52:
 319              	.L24:
 320              	.LBE7:
 321              	.LBE6:
 221:..\..\..\u8g2\u8g2\csrc/u8x8_d_ssd1325.c ****   }
 322              		.loc 1 221 0
 323 019c 0020     		movs	r0, #0
 324              	.LVL53:
 325              	.L2:
 224:..\..\..\u8g2\u8g2\csrc/u8x8_d_ssd1325.c **** }
 326              		.loc 1 224 0
 327 019e 05B0     		add	sp, sp, #20
 328              		.cfi_def_cfa_offset 36
 329              		@ sp needed
 330 01a0 BDE8F08F 		pop	{r4, r5, r6, r7, r8, r9, r10, fp, pc}
 331              	.LVL54:
 332              	.L30:
 333              		.align	2
 334              	.L29:
 335 01a4 00000000 		.word	.LANCHOR0
 336 01a8 05000000 		.word	.LANCHOR0+5
 337 01ac 00000000 		.word	.LANCHOR1
 338              		.cfi_endproc
 339              	.LFE1:
 340              		.size	u8x8_d_ssd1325_128x64_generic, .-u8x8_d_ssd1325_128x64_generic
 341              		.section	.text.u8x8_d_ssd1325_nhd_128x64,"ax",%progbits
 342              		.align	1
 343              		.global	u8x8_d_ssd1325_nhd_128x64
 344              		.thumb
 345              		.thumb_func
 346              		.type	u8x8_d_ssd1325_nhd_128x64, %function
 347              	u8x8_d_ssd1325_nhd_128x64:
 348              	.LFB2:
 225:..\..\..\u8g2\u8g2\csrc/u8x8_d_ssd1325.c **** 
 226:..\..\..\u8g2\u8g2\csrc/u8x8_d_ssd1325.c **** /*===================================================================*/
 227:..\..\..\u8g2\u8g2\csrc/u8x8_d_ssd1325.c **** 
 228:..\..\..\u8g2\u8g2\csrc/u8x8_d_ssd1325.c **** /* http://www.newhavendisplay.com/app_notes/OLED_2_7_12864.txt */
 229:..\..\..\u8g2\u8g2\csrc/u8x8_d_ssd1325.c **** static const uint8_t u8x8_d_ssd1325_128x64_nhd_init_seq[] = {
 230:..\..\..\u8g2\u8g2\csrc/u8x8_d_ssd1325.c ****     
 231:..\..\..\u8g2\u8g2\csrc/u8x8_d_ssd1325.c ****   U8X8_START_TRANSFER(),             	/* enable chip, delay is part of the transfer start */
 232:..\..\..\u8g2\u8g2\csrc/u8x8_d_ssd1325.c ****   
 233:..\..\..\u8g2\u8g2\csrc/u8x8_d_ssd1325.c ****   
 234:..\..\..\u8g2\u8g2\csrc/u8x8_d_ssd1325.c ****   U8X8_C(0x0ae),		                /* display off */
ARM GAS  C:\Users\jesse\AppData\Local\Temp\cc5PybHd.s 			page 12


 235:..\..\..\u8g2\u8g2\csrc/u8x8_d_ssd1325.c ****   U8X8_CA(0x0b3, 0x091),		/* set display clock divide ratio/oscillator frequency (set clock as 135 
 236:..\..\..\u8g2\u8g2\csrc/u8x8_d_ssd1325.c ****   U8X8_CA(0x0a8, 0x03f),		/* multiplex ratio: 0x03f * 1/64 duty */
 237:..\..\..\u8g2\u8g2\csrc/u8x8_d_ssd1325.c ****   U8X8_CA(0x0a2, 0x04c),		/* display offset, shift mapping ram counter */
 238:..\..\..\u8g2\u8g2\csrc/u8x8_d_ssd1325.c ****   U8X8_CA(0x0a1, 0x000),		/* display start line */
 239:..\..\..\u8g2\u8g2\csrc/u8x8_d_ssd1325.c ****   U8X8_CA(0x0ad, 0x002),		/* master configuration: disable embedded DC-DC, enable internal VCOMH */
 240:..\..\..\u8g2\u8g2\csrc/u8x8_d_ssd1325.c ****   U8X8_CA(0x0a0, 0x052),		/* remap configuration, horizontal address increment (bit 2 = 0), enable 
 241:..\..\..\u8g2\u8g2\csrc/u8x8_d_ssd1325.c ****   U8X8_C(0x086),				/* full current range (0x084, 0x085, 0x086) */
 242:..\..\..\u8g2\u8g2\csrc/u8x8_d_ssd1325.c ****   U8X8_C(0x0b8),				/* set gray scale table */
 243:..\..\..\u8g2\u8g2\csrc/u8x8_d_ssd1325.c ****     U8X8_A(0x001),				/* */
 244:..\..\..\u8g2\u8g2\csrc/u8x8_d_ssd1325.c ****     U8X8_A(0x011),				/* */
 245:..\..\..\u8g2\u8g2\csrc/u8x8_d_ssd1325.c ****     U8X8_A(0x022),				/* */
 246:..\..\..\u8g2\u8g2\csrc/u8x8_d_ssd1325.c ****     U8X8_A(0x032),				/* */
 247:..\..\..\u8g2\u8g2\csrc/u8x8_d_ssd1325.c ****     U8X8_A(0x043),				/* */
 248:..\..\..\u8g2\u8g2\csrc/u8x8_d_ssd1325.c ****     U8X8_A(0x054),				/* */
 249:..\..\..\u8g2\u8g2\csrc/u8x8_d_ssd1325.c ****     U8X8_A(0x065),				/* */
 250:..\..\..\u8g2\u8g2\csrc/u8x8_d_ssd1325.c ****     U8X8_A(0x076),				/* */
 251:..\..\..\u8g2\u8g2\csrc/u8x8_d_ssd1325.c ****     
 252:..\..\..\u8g2\u8g2\csrc/u8x8_d_ssd1325.c ****   U8X8_CA(0x081, 0x070),		/* contrast, brightness, 0..128, Newhaven: 0x040 */
 253:..\..\..\u8g2\u8g2\csrc/u8x8_d_ssd1325.c ****   U8X8_CA(0x0b2, 0x051),		/* frame frequency (row period) */
 254:..\..\..\u8g2\u8g2\csrc/u8x8_d_ssd1325.c ****   U8X8_CA(0x0b1, 0x055),                    /* phase length */
 255:..\..\..\u8g2\u8g2\csrc/u8x8_d_ssd1325.c ****   U8X8_CA(0x0bc, 0x010),                    /* pre-charge voltage level */
 256:..\..\..\u8g2\u8g2\csrc/u8x8_d_ssd1325.c ****   U8X8_CA(0x0b4, 0x002),                    /* set pre-charge compensation level (not documented in
 257:..\..\..\u8g2\u8g2\csrc/u8x8_d_ssd1325.c ****   U8X8_CA(0x0b0, 0x028),                    /* enable pre-charge compensation (not documented in th
 258:..\..\..\u8g2\u8g2\csrc/u8x8_d_ssd1325.c ****   U8X8_CA(0x0be, 0x01c),                     /* VCOMH voltage */
 259:..\..\..\u8g2\u8g2\csrc/u8x8_d_ssd1325.c ****   U8X8_CA(0x0bf, 0x002|0x00d),           /* VSL voltage level (not documented in the SDD1325 datash
 260:..\..\..\u8g2\u8g2\csrc/u8x8_d_ssd1325.c ****   U8X8_C(0x0a4),				/* normal display mode */
 261:..\..\..\u8g2\u8g2\csrc/u8x8_d_ssd1325.c ****     
 262:..\..\..\u8g2\u8g2\csrc/u8x8_d_ssd1325.c ****   U8X8_CA(0x023, 0x003),		/* graphics accelleration: fill pixel */
 263:..\..\..\u8g2\u8g2\csrc/u8x8_d_ssd1325.c ****     
 264:..\..\..\u8g2\u8g2\csrc/u8x8_d_ssd1325.c ****   U8X8_END_TRANSFER(),             	/* disable chip */
 265:..\..\..\u8g2\u8g2\csrc/u8x8_d_ssd1325.c ****   U8X8_END()             			/* end of sequence */
 266:..\..\..\u8g2\u8g2\csrc/u8x8_d_ssd1325.c **** };
 267:..\..\..\u8g2\u8g2\csrc/u8x8_d_ssd1325.c **** 
 268:..\..\..\u8g2\u8g2\csrc/u8x8_d_ssd1325.c **** static const u8x8_display_info_t u8x8_nhd_ssd1325_128x64_display_info =
 269:..\..\..\u8g2\u8g2\csrc/u8x8_d_ssd1325.c **** {
 270:..\..\..\u8g2\u8g2\csrc/u8x8_d_ssd1325.c ****   /* chip_enable_level = */ 0,
 271:..\..\..\u8g2\u8g2\csrc/u8x8_d_ssd1325.c ****   /* chip_disable_level = */ 1,
 272:..\..\..\u8g2\u8g2\csrc/u8x8_d_ssd1325.c ****   
 273:..\..\..\u8g2\u8g2\csrc/u8x8_d_ssd1325.c ****   /* post_chip_enable_wait_ns = */ 20,
 274:..\..\..\u8g2\u8g2\csrc/u8x8_d_ssd1325.c ****   /* pre_chip_disable_wait_ns = */ 10,
 275:..\..\..\u8g2\u8g2\csrc/u8x8_d_ssd1325.c ****   /* reset_pulse_width_ms = */ 100, 	
 276:..\..\..\u8g2\u8g2\csrc/u8x8_d_ssd1325.c ****   /* post_reset_wait_ms = */ 100, 		/**/
 277:..\..\..\u8g2\u8g2\csrc/u8x8_d_ssd1325.c ****   /* sda_setup_time_ns = */ 100,		/* SSD1325  */
 278:..\..\..\u8g2\u8g2\csrc/u8x8_d_ssd1325.c ****   /* sck_pulse_width_ns = */ 100,	/* SSD1325  */
 279:..\..\..\u8g2\u8g2\csrc/u8x8_d_ssd1325.c ****   /* sck_clock_hz = */ 4000000UL,	/* since Arduino 1.6.0, the SPI bus speed in Hz. Should be  10000
 280:..\..\..\u8g2\u8g2\csrc/u8x8_d_ssd1325.c ****   /* spi_mode = */ 0,		/* active high, rising edge */
 281:..\..\..\u8g2\u8g2\csrc/u8x8_d_ssd1325.c ****   /* i2c_bus_clock_100kHz = */ 4,
 282:..\..\..\u8g2\u8g2\csrc/u8x8_d_ssd1325.c ****   /* data_setup_time_ns = */ 40,
 283:..\..\..\u8g2\u8g2\csrc/u8x8_d_ssd1325.c ****   /* write_pulse_width_ns = */ 60,	/* SSD1325 */
 284:..\..\..\u8g2\u8g2\csrc/u8x8_d_ssd1325.c ****   /* tile_width = */ 16,
 285:..\..\..\u8g2\u8g2\csrc/u8x8_d_ssd1325.c ****   /* tile_hight = */ 8,
 286:..\..\..\u8g2\u8g2\csrc/u8x8_d_ssd1325.c ****   /* default_x_offset = */ 0,		/* x_offset is used as y offset for the SSD1325 */
 287:..\..\..\u8g2\u8g2\csrc/u8x8_d_ssd1325.c ****   /* flipmode_x_offset = */ 8,		/* x_offset is used as y offset for the SSD1325 */
 288:..\..\..\u8g2\u8g2\csrc/u8x8_d_ssd1325.c ****   /* pixel_width = */ 128,
 289:..\..\..\u8g2\u8g2\csrc/u8x8_d_ssd1325.c ****   /* pixel_height = */ 64
 290:..\..\..\u8g2\u8g2\csrc/u8x8_d_ssd1325.c **** };
 291:..\..\..\u8g2\u8g2\csrc/u8x8_d_ssd1325.c **** 
ARM GAS  C:\Users\jesse\AppData\Local\Temp\cc5PybHd.s 			page 13


 292:..\..\..\u8g2\u8g2\csrc/u8x8_d_ssd1325.c **** uint8_t u8x8_d_ssd1325_nhd_128x64(u8x8_t *u8x8, uint8_t msg, uint8_t arg_int, void *arg_ptr)
 293:..\..\..\u8g2\u8g2\csrc/u8x8_d_ssd1325.c **** {
 349              		.loc 1 293 0
 350              		.cfi_startproc
 351              		@ args = 0, pretend = 0, frame = 0
 352              		@ frame_needed = 0, uses_anonymous_args = 0
 353              	.LVL55:
 294:..\..\..\u8g2\u8g2\csrc/u8x8_d_ssd1325.c ****     if ( msg == U8X8_MSG_DISPLAY_SETUP_MEMORY )
 354              		.loc 1 294 0
 355 0000 0929     		cmp	r1, #9
 293:..\..\..\u8g2\u8g2\csrc/u8x8_d_ssd1325.c ****     if ( msg == U8X8_MSG_DISPLAY_SETUP_MEMORY )
 356              		.loc 1 293 0
 357 0002 70B5     		push	{r4, r5, r6, lr}
 358              		.cfi_def_cfa_offset 16
 359              		.cfi_offset 4, -16
 360              		.cfi_offset 5, -12
 361              		.cfi_offset 6, -8
 362              		.cfi_offset 14, -4
 293:..\..\..\u8g2\u8g2\csrc/u8x8_d_ssd1325.c ****     if ( msg == U8X8_MSG_DISPLAY_SETUP_MEMORY )
 363              		.loc 1 293 0
 364 0004 0446     		mov	r4, r0
 365              		.loc 1 294 0
 366 0006 03D1     		bne	.L32
 295:..\..\..\u8g2\u8g2\csrc/u8x8_d_ssd1325.c ****     {
 296:..\..\..\u8g2\u8g2\csrc/u8x8_d_ssd1325.c ****       u8x8_d_helper_display_setup_memory(u8x8, &u8x8_nhd_ssd1325_128x64_display_info);
 367              		.loc 1 296 0
 368 0008 1149     		ldr	r1, .L38
 369              	.LVL56:
 370 000a FFF7FEFF 		bl	u8x8_d_helper_display_setup_memory
 371              	.LVL57:
 297:..\..\..\u8g2\u8g2\csrc/u8x8_d_ssd1325.c ****       return 1;
 372              		.loc 1 297 0
 373 000e 1DE0     		b	.L33
 374              	.LVL58:
 375              	.L32:
 298:..\..\..\u8g2\u8g2\csrc/u8x8_d_ssd1325.c ****     }
 299:..\..\..\u8g2\u8g2\csrc/u8x8_d_ssd1325.c ****     else if ( msg == U8X8_MSG_DISPLAY_INIT )
 376              		.loc 1 299 0
 377 0010 0A29     		cmp	r1, #10
 378 0012 06D1     		bne	.L34
 300:..\..\..\u8g2\u8g2\csrc/u8x8_d_ssd1325.c ****     {
 301:..\..\..\u8g2\u8g2\csrc/u8x8_d_ssd1325.c ****       u8x8_d_helper_display_init(u8x8);
 379              		.loc 1 301 0
 380 0014 FFF7FEFF 		bl	u8x8_d_helper_display_init
 381              	.LVL59:
 302:..\..\..\u8g2\u8g2\csrc/u8x8_d_ssd1325.c ****       u8x8_cad_SendSequence(u8x8, u8x8_d_ssd1325_128x64_nhd_init_seq);    
 382              		.loc 1 302 0
 383 0018 0E49     		ldr	r1, .L38+4
 384 001a 2046     		mov	r0, r4
 385 001c FFF7FEFF 		bl	u8x8_cad_SendSequence
 386              	.LVL60:
 303:..\..\..\u8g2\u8g2\csrc/u8x8_d_ssd1325.c ****       return 1;
 387              		.loc 1 303 0
 388 0020 14E0     		b	.L33
 389              	.LVL61:
 390              	.L34:
 304:..\..\..\u8g2\u8g2\csrc/u8x8_d_ssd1325.c ****     }    
ARM GAS  C:\Users\jesse\AppData\Local\Temp\cc5PybHd.s 			page 14


 305:..\..\..\u8g2\u8g2\csrc/u8x8_d_ssd1325.c ****     else if ( msg == U8X8_MSG_DISPLAY_SET_FLIP_MODE )
 391              		.loc 1 305 0
 392 0022 0D29     		cmp	r1, #13
 393 0024 0ED1     		bne	.L35
 306:..\..\..\u8g2\u8g2\csrc/u8x8_d_ssd1325.c ****     {
 307:..\..\..\u8g2\u8g2\csrc/u8x8_d_ssd1325.c ****       if ( arg_int == 0 )
 394              		.loc 1 307 0
 395 0026 2AB9     		cbnz	r2, .L36
 308:..\..\..\u8g2\u8g2\csrc/u8x8_d_ssd1325.c ****       {
 309:..\..\..\u8g2\u8g2\csrc/u8x8_d_ssd1325.c **** 	u8x8_cad_SendSequence(u8x8, u8x8_d_ssd1325_128x64_nhd_flip0_seq);
 396              		.loc 1 309 0
 397 0028 0B49     		ldr	r1, .L38+8
 398              	.LVL62:
 399 002a FFF7FEFF 		bl	u8x8_cad_SendSequence
 400              	.LVL63:
 310:..\..\..\u8g2\u8g2\csrc/u8x8_d_ssd1325.c **** 	u8x8->x_offset = u8x8->display_info->default_x_offset;
 401              		.loc 1 310 0
 402 002e 2368     		ldr	r3, [r4]
 403 0030 9B7C     		ldrb	r3, [r3, #18]	@ zero_extendqisi2
 404 0032 04E0     		b	.L37
 405              	.LVL64:
 406              	.L36:
 311:..\..\..\u8g2\u8g2\csrc/u8x8_d_ssd1325.c ****       }
 312:..\..\..\u8g2\u8g2\csrc/u8x8_d_ssd1325.c ****       else
 313:..\..\..\u8g2\u8g2\csrc/u8x8_d_ssd1325.c ****       {
 314:..\..\..\u8g2\u8g2\csrc/u8x8_d_ssd1325.c **** 	u8x8_cad_SendSequence(u8x8, u8x8_d_ssd1325_128x64_nhd_flip1_seq);
 407              		.loc 1 314 0
 408 0034 0949     		ldr	r1, .L38+12
 409              	.LVL65:
 410 0036 FFF7FEFF 		bl	u8x8_cad_SendSequence
 411              	.LVL66:
 315:..\..\..\u8g2\u8g2\csrc/u8x8_d_ssd1325.c **** 	u8x8->x_offset = u8x8->display_info->flipmode_x_offset;
 412              		.loc 1 315 0
 413 003a 2368     		ldr	r3, [r4]
 414 003c DB7C     		ldrb	r3, [r3, #19]	@ zero_extendqisi2
 415              	.L37:
 416 003e 84F82230 		strb	r3, [r4, #34]
 417 0042 03E0     		b	.L33
 418              	.LVL67:
 419              	.L35:
 316:..\..\..\u8g2\u8g2\csrc/u8x8_d_ssd1325.c ****       }
 317:..\..\..\u8g2\u8g2\csrc/u8x8_d_ssd1325.c ****       return 1;
 318:..\..\..\u8g2\u8g2\csrc/u8x8_d_ssd1325.c ****     }
 319:..\..\..\u8g2\u8g2\csrc/u8x8_d_ssd1325.c ****     return u8x8_d_ssd1325_128x64_generic(u8x8, msg, arg_int, arg_ptr);
 320:..\..\..\u8g2\u8g2\csrc/u8x8_d_ssd1325.c **** }
 420              		.loc 1 320 0
 421 0044 BDE87040 		pop	{r4, r5, r6, lr}
 422              		.cfi_remember_state
 423              		.cfi_restore 14
 424              		.cfi_restore 6
 425              		.cfi_restore 5
 426              		.cfi_restore 4
 427              		.cfi_def_cfa_offset 0
 319:..\..\..\u8g2\u8g2\csrc/u8x8_d_ssd1325.c **** }
 428              		.loc 1 319 0
 429 0048 FFF7FEBF 		b	u8x8_d_ssd1325_128x64_generic
 430              	.LVL68:
ARM GAS  C:\Users\jesse\AppData\Local\Temp\cc5PybHd.s 			page 15


 431              	.L33:
 432              		.cfi_restore_state
 433              		.loc 1 320 0
 434 004c 0120     		movs	r0, #1
 435 004e 70BD     		pop	{r4, r5, r6, pc}
 436              	.LVL69:
 437              	.L39:
 438              		.align	2
 439              	.L38:
 440 0050 0C000000 		.word	.LANCHOR0+12
 441 0054 24000000 		.word	.LANCHOR0+36
 442 0058 7B000000 		.word	.LANCHOR0+123
 443 005c 82000000 		.word	.LANCHOR0+130
 444              		.cfi_endproc
 445              	.LFE2:
 446              		.size	u8x8_d_ssd1325_nhd_128x64, .-u8x8_d_ssd1325_nhd_128x64
 447              		.section	.text.u8x8_d_ssd0323_os128064,"ax",%progbits
 448              		.align	1
 449              		.global	u8x8_d_ssd0323_os128064
 450              		.thumb
 451              		.thumb_func
 452              		.type	u8x8_d_ssd0323_os128064, %function
 453              	u8x8_d_ssd0323_os128064:
 454              	.LFB3:
 321:..\..\..\u8g2\u8g2\csrc/u8x8_d_ssd1325.c **** 
 322:..\..\..\u8g2\u8g2\csrc/u8x8_d_ssd1325.c **** /*===================================================================*/
 323:..\..\..\u8g2\u8g2\csrc/u8x8_d_ssd1325.c **** /* OSRAM Pictiva 128x64 OLED */
 324:..\..\..\u8g2\u8g2\csrc/u8x8_d_ssd1325.c **** /* https://github.com/olikraus/u8g2/issues/720 */
 325:..\..\..\u8g2\u8g2\csrc/u8x8_d_ssd1325.c **** 
 326:..\..\..\u8g2\u8g2\csrc/u8x8_d_ssd1325.c **** static const uint8_t u8x8_d_ssd0323_os128064_init_seq[] = {
 327:..\..\..\u8g2\u8g2\csrc/u8x8_d_ssd1325.c **** 
 328:..\..\..\u8g2\u8g2\csrc/u8x8_d_ssd1325.c ****   U8X8_START_TRANSFER(),                     /* enable chip, delay is part of the transfer start */
 329:..\..\..\u8g2\u8g2\csrc/u8x8_d_ssd1325.c ****   U8X8_C(0x0ae),                                /* display off */
 330:..\..\..\u8g2\u8g2\csrc/u8x8_d_ssd1325.c ****   U8X8_CA(0x0b3, 0x091),                /* set display clock divide ratio/oscillator frequency (set
 331:..\..\..\u8g2\u8g2\csrc/u8x8_d_ssd1325.c ****   U8X8_CA(0x0a8, 0x03f),                /* multiplex ratio: 0x03f * 1/64 duty */
 332:..\..\..\u8g2\u8g2\csrc/u8x8_d_ssd1325.c ****   U8X8_CA(0x0a2, 0x040),                /* display offset, shift mapping ram counter */
 333:..\..\..\u8g2\u8g2\csrc/u8x8_d_ssd1325.c ****   U8X8_CA(0x0a1, 0x000),                /* display start line */
 334:..\..\..\u8g2\u8g2\csrc/u8x8_d_ssd1325.c ****   U8X8_CA(0x0ad, 0x002),                /* master configuration: disable embedded DC-DC, enable int
 335:..\..\..\u8g2\u8g2\csrc/u8x8_d_ssd1325.c ****   U8X8_CA(0x0a0, 0x052),                /* remap configuration, horizontal address increment (bit 2
 336:..\..\..\u8g2\u8g2\csrc/u8x8_d_ssd1325.c ****   U8X8_C(0x086),                                /* full current range (0x084, 0x085, 0x086) */
 337:..\..\..\u8g2\u8g2\csrc/u8x8_d_ssd1325.c ****   U8X8_C(0x0b8),                                /* set gray scale table */
 338:..\..\..\u8g2\u8g2\csrc/u8x8_d_ssd1325.c ****     U8X8_A(0x001),                                /* */
 339:..\..\..\u8g2\u8g2\csrc/u8x8_d_ssd1325.c ****     U8X8_A(0x011),                                /* */
 340:..\..\..\u8g2\u8g2\csrc/u8x8_d_ssd1325.c ****     U8X8_A(0x022),                                /* */
 341:..\..\..\u8g2\u8g2\csrc/u8x8_d_ssd1325.c ****     U8X8_A(0x032),                                /* */
 342:..\..\..\u8g2\u8g2\csrc/u8x8_d_ssd1325.c ****     U8X8_A(0x043),                                /* */
 343:..\..\..\u8g2\u8g2\csrc/u8x8_d_ssd1325.c ****     U8X8_A(0x054),                                /* */
 344:..\..\..\u8g2\u8g2\csrc/u8x8_d_ssd1325.c ****     U8X8_A(0x065),                                /* */
 345:..\..\..\u8g2\u8g2\csrc/u8x8_d_ssd1325.c ****     U8X8_A(0x076),                                /* */
 346:..\..\..\u8g2\u8g2\csrc/u8x8_d_ssd1325.c **** 
 347:..\..\..\u8g2\u8g2\csrc/u8x8_d_ssd1325.c ****   U8X8_CA(0x081, 0x070),                /* contrast, brightness, 0..128, Newhaven: 0x040 */
 348:..\..\..\u8g2\u8g2\csrc/u8x8_d_ssd1325.c ****   U8X8_CA(0x0b2, 0x051),                /* frame frequency (row period) */
 349:..\..\..\u8g2\u8g2\csrc/u8x8_d_ssd1325.c ****   U8X8_CA(0x0b1, 0x055),                    /* phase length */
 350:..\..\..\u8g2\u8g2\csrc/u8x8_d_ssd1325.c ****   U8X8_CA(0x0bc, 0x010),                    /* pre-charge voltage level */
 351:..\..\..\u8g2\u8g2\csrc/u8x8_d_ssd1325.c ****   U8X8_CA(0x0b4, 0x002),                    /* set pre-charge compensation level (not documented in
 352:..\..\..\u8g2\u8g2\csrc/u8x8_d_ssd1325.c ****   U8X8_CA(0x0b0, 0x028),                    /* enable pre-charge compensation (not documented in th
 353:..\..\..\u8g2\u8g2\csrc/u8x8_d_ssd1325.c ****   U8X8_CA(0x0be, 0x01c),                     /* VCOMH voltage */
ARM GAS  C:\Users\jesse\AppData\Local\Temp\cc5PybHd.s 			page 16


 354:..\..\..\u8g2\u8g2\csrc/u8x8_d_ssd1325.c ****   U8X8_CA(0x0bf, 0x002|0x00d),           /* VSL voltage level (not documented in the SDD1325 datash
 355:..\..\..\u8g2\u8g2\csrc/u8x8_d_ssd1325.c ****   U8X8_C(0x0a4),                                /* normal display mode */
 356:..\..\..\u8g2\u8g2\csrc/u8x8_d_ssd1325.c **** 
 357:..\..\..\u8g2\u8g2\csrc/u8x8_d_ssd1325.c ****   U8X8_CA(0x023, 0x003),                /* graphics accelleration: fill pixel */
 358:..\..\..\u8g2\u8g2\csrc/u8x8_d_ssd1325.c **** 
 359:..\..\..\u8g2\u8g2\csrc/u8x8_d_ssd1325.c ****   U8X8_END_TRANSFER(),                     /* disable chip */
 360:..\..\..\u8g2\u8g2\csrc/u8x8_d_ssd1325.c ****   U8X8_END()                                     /* end of sequence */
 361:..\..\..\u8g2\u8g2\csrc/u8x8_d_ssd1325.c **** };
 362:..\..\..\u8g2\u8g2\csrc/u8x8_d_ssd1325.c **** 
 363:..\..\..\u8g2\u8g2\csrc/u8x8_d_ssd1325.c **** static const uint8_t u8x8_d_ssd0323_os128064_flip0_seq[] = {
 364:..\..\..\u8g2\u8g2\csrc/u8x8_d_ssd1325.c ****   U8X8_START_TRANSFER(),                     /* enable chip, delay is part of the transfer start */
 365:..\..\..\u8g2\u8g2\csrc/u8x8_d_ssd1325.c ****   U8X8_CA(0x0a0, 0x052),                /* remap */
 366:..\..\..\u8g2\u8g2\csrc/u8x8_d_ssd1325.c ****   U8X8_CA(0x0a2, 0x040),                /* display offset, shift mapping ram counter */
 367:..\..\..\u8g2\u8g2\csrc/u8x8_d_ssd1325.c ****   U8X8_END_TRANSFER(),                     /* disable chip */
 368:..\..\..\u8g2\u8g2\csrc/u8x8_d_ssd1325.c ****   U8X8_END()                                     /* end of sequence */
 369:..\..\..\u8g2\u8g2\csrc/u8x8_d_ssd1325.c **** };
 370:..\..\..\u8g2\u8g2\csrc/u8x8_d_ssd1325.c **** 
 371:..\..\..\u8g2\u8g2\csrc/u8x8_d_ssd1325.c **** static const uint8_t u8x8_d_ssd0323_os128064_flip1_seq[] = {
 372:..\..\..\u8g2\u8g2\csrc/u8x8_d_ssd1325.c ****   U8X8_START_TRANSFER(),                     /* enable chip, delay is part of the transfer start */
 373:..\..\..\u8g2\u8g2\csrc/u8x8_d_ssd1325.c ****   U8X8_CA(0x0a0, 0x041),                /* remap */
 374:..\..\..\u8g2\u8g2\csrc/u8x8_d_ssd1325.c ****   U8X8_CA(0x0a2, 0x050),                /* display offset, shift mapping ram counter */
 375:..\..\..\u8g2\u8g2\csrc/u8x8_d_ssd1325.c ****   U8X8_END_TRANSFER(),                     /* disable chip */
 376:..\..\..\u8g2\u8g2\csrc/u8x8_d_ssd1325.c ****   U8X8_END()                                     /* end of sequence */
 377:..\..\..\u8g2\u8g2\csrc/u8x8_d_ssd1325.c **** };
 378:..\..\..\u8g2\u8g2\csrc/u8x8_d_ssd1325.c **** 
 379:..\..\..\u8g2\u8g2\csrc/u8x8_d_ssd1325.c **** 
 380:..\..\..\u8g2\u8g2\csrc/u8x8_d_ssd1325.c **** static const u8x8_display_info_t u8x8_ssd0323_os128064_display_info =
 381:..\..\..\u8g2\u8g2\csrc/u8x8_d_ssd1325.c **** {
 382:..\..\..\u8g2\u8g2\csrc/u8x8_d_ssd1325.c ****   /* chip_enable_level = */ 0,
 383:..\..\..\u8g2\u8g2\csrc/u8x8_d_ssd1325.c ****   /* chip_disable_level = */ 1,
 384:..\..\..\u8g2\u8g2\csrc/u8x8_d_ssd1325.c ****   
 385:..\..\..\u8g2\u8g2\csrc/u8x8_d_ssd1325.c ****   /* post_chip_enable_wait_ns = */ 20,
 386:..\..\..\u8g2\u8g2\csrc/u8x8_d_ssd1325.c ****   /* pre_chip_disable_wait_ns = */ 10,
 387:..\..\..\u8g2\u8g2\csrc/u8x8_d_ssd1325.c ****   /* reset_pulse_width_ms = */ 100, 	
 388:..\..\..\u8g2\u8g2\csrc/u8x8_d_ssd1325.c ****   /* post_reset_wait_ms = */ 100, 		/**/
 389:..\..\..\u8g2\u8g2\csrc/u8x8_d_ssd1325.c ****   /* sda_setup_time_ns = */ 100,		/* SSD1325  */
 390:..\..\..\u8g2\u8g2\csrc/u8x8_d_ssd1325.c ****   /* sck_pulse_width_ns = */ 100,	/* SSD1325  */
 391:..\..\..\u8g2\u8g2\csrc/u8x8_d_ssd1325.c ****   /* sck_clock_hz = */ 4000000UL,	/* since Arduino 1.6.0, the SPI bus speed in Hz. Should be  10000
 392:..\..\..\u8g2\u8g2\csrc/u8x8_d_ssd1325.c ****   /* spi_mode = */ 0,		/* active high, rising edge */
 393:..\..\..\u8g2\u8g2\csrc/u8x8_d_ssd1325.c ****   /* i2c_bus_clock_100kHz = */ 4,
 394:..\..\..\u8g2\u8g2\csrc/u8x8_d_ssd1325.c ****   /* data_setup_time_ns = */ 40,
 395:..\..\..\u8g2\u8g2\csrc/u8x8_d_ssd1325.c ****   /* write_pulse_width_ns = */ 60,	/* SSD1325 */
 396:..\..\..\u8g2\u8g2\csrc/u8x8_d_ssd1325.c ****   /* tile_width = */ 16,
 397:..\..\..\u8g2\u8g2\csrc/u8x8_d_ssd1325.c ****   /* tile_hight = */ 8,
 398:..\..\..\u8g2\u8g2\csrc/u8x8_d_ssd1325.c ****   /* default_x_offset = */ 0,		/* x_offset is used as y offset for the SSD1325 */
 399:..\..\..\u8g2\u8g2\csrc/u8x8_d_ssd1325.c ****   /* flipmode_x_offset = */ 0,		/* x_offset is used as y offset for the SSD1325 */
 400:..\..\..\u8g2\u8g2\csrc/u8x8_d_ssd1325.c ****   /* pixel_width = */ 128,
 401:..\..\..\u8g2\u8g2\csrc/u8x8_d_ssd1325.c ****   /* pixel_height = */ 64
 402:..\..\..\u8g2\u8g2\csrc/u8x8_d_ssd1325.c **** };
 403:..\..\..\u8g2\u8g2\csrc/u8x8_d_ssd1325.c **** 
 404:..\..\..\u8g2\u8g2\csrc/u8x8_d_ssd1325.c **** uint8_t u8x8_d_ssd0323_os128064(u8x8_t *u8x8, uint8_t msg, uint8_t arg_int, void *arg_ptr)
 405:..\..\..\u8g2\u8g2\csrc/u8x8_d_ssd1325.c **** {
 455              		.loc 1 405 0
 456              		.cfi_startproc
 457              		@ args = 0, pretend = 0, frame = 0
 458              		@ frame_needed = 0, uses_anonymous_args = 0
 459              	.LVL70:
ARM GAS  C:\Users\jesse\AppData\Local\Temp\cc5PybHd.s 			page 17


 406:..\..\..\u8g2\u8g2\csrc/u8x8_d_ssd1325.c ****     if ( msg == U8X8_MSG_DISPLAY_SETUP_MEMORY )
 460              		.loc 1 406 0
 461 0000 0929     		cmp	r1, #9
 405:..\..\..\u8g2\u8g2\csrc/u8x8_d_ssd1325.c ****     if ( msg == U8X8_MSG_DISPLAY_SETUP_MEMORY )
 462              		.loc 1 405 0
 463 0002 70B5     		push	{r4, r5, r6, lr}
 464              		.cfi_def_cfa_offset 16
 465              		.cfi_offset 4, -16
 466              		.cfi_offset 5, -12
 467              		.cfi_offset 6, -8
 468              		.cfi_offset 14, -4
 405:..\..\..\u8g2\u8g2\csrc/u8x8_d_ssd1325.c ****     if ( msg == U8X8_MSG_DISPLAY_SETUP_MEMORY )
 469              		.loc 1 405 0
 470 0004 0446     		mov	r4, r0
 471              		.loc 1 406 0
 472 0006 03D1     		bne	.L41
 407:..\..\..\u8g2\u8g2\csrc/u8x8_d_ssd1325.c ****     {
 408:..\..\..\u8g2\u8g2\csrc/u8x8_d_ssd1325.c ****       u8x8_d_helper_display_setup_memory(u8x8, &u8x8_ssd0323_os128064_display_info);
 473              		.loc 1 408 0
 474 0008 1149     		ldr	r1, .L47
 475              	.LVL71:
 476 000a FFF7FEFF 		bl	u8x8_d_helper_display_setup_memory
 477              	.LVL72:
 409:..\..\..\u8g2\u8g2\csrc/u8x8_d_ssd1325.c ****       return 1;
 478              		.loc 1 409 0
 479 000e 1DE0     		b	.L42
 480              	.LVL73:
 481              	.L41:
 410:..\..\..\u8g2\u8g2\csrc/u8x8_d_ssd1325.c ****     }
 411:..\..\..\u8g2\u8g2\csrc/u8x8_d_ssd1325.c ****     else if ( msg == U8X8_MSG_DISPLAY_INIT )
 482              		.loc 1 411 0
 483 0010 0A29     		cmp	r1, #10
 484 0012 06D1     		bne	.L43
 412:..\..\..\u8g2\u8g2\csrc/u8x8_d_ssd1325.c ****     {
 413:..\..\..\u8g2\u8g2\csrc/u8x8_d_ssd1325.c ****       u8x8_d_helper_display_init(u8x8);
 485              		.loc 1 413 0
 486 0014 FFF7FEFF 		bl	u8x8_d_helper_display_init
 487              	.LVL74:
 414:..\..\..\u8g2\u8g2\csrc/u8x8_d_ssd1325.c ****       u8x8_cad_SendSequence(u8x8, u8x8_d_ssd0323_os128064_init_seq);
 488              		.loc 1 414 0
 489 0018 0E49     		ldr	r1, .L47+4
 490 001a 2046     		mov	r0, r4
 491 001c FFF7FEFF 		bl	u8x8_cad_SendSequence
 492              	.LVL75:
 415:..\..\..\u8g2\u8g2\csrc/u8x8_d_ssd1325.c ****       return 1;
 493              		.loc 1 415 0
 494 0020 14E0     		b	.L42
 495              	.LVL76:
 496              	.L43:
 416:..\..\..\u8g2\u8g2\csrc/u8x8_d_ssd1325.c ****     }    
 417:..\..\..\u8g2\u8g2\csrc/u8x8_d_ssd1325.c ****     else if ( msg == U8X8_MSG_DISPLAY_SET_FLIP_MODE )
 497              		.loc 1 417 0
 498 0022 0D29     		cmp	r1, #13
 499 0024 0ED1     		bne	.L44
 418:..\..\..\u8g2\u8g2\csrc/u8x8_d_ssd1325.c ****     {
 419:..\..\..\u8g2\u8g2\csrc/u8x8_d_ssd1325.c ****       if ( arg_int == 0 )
 500              		.loc 1 419 0
ARM GAS  C:\Users\jesse\AppData\Local\Temp\cc5PybHd.s 			page 18


 501 0026 2AB9     		cbnz	r2, .L45
 420:..\..\..\u8g2\u8g2\csrc/u8x8_d_ssd1325.c ****       {
 421:..\..\..\u8g2\u8g2\csrc/u8x8_d_ssd1325.c **** 	u8x8_cad_SendSequence(u8x8, u8x8_d_ssd0323_os128064_flip0_seq);
 502              		.loc 1 421 0
 503 0028 0B49     		ldr	r1, .L47+8
 504              	.LVL77:
 505 002a FFF7FEFF 		bl	u8x8_cad_SendSequence
 506              	.LVL78:
 422:..\..\..\u8g2\u8g2\csrc/u8x8_d_ssd1325.c **** 	u8x8->x_offset = u8x8->display_info->default_x_offset;
 507              		.loc 1 422 0
 508 002e 2368     		ldr	r3, [r4]
 509 0030 9B7C     		ldrb	r3, [r3, #18]	@ zero_extendqisi2
 510 0032 04E0     		b	.L46
 511              	.LVL79:
 512              	.L45:
 423:..\..\..\u8g2\u8g2\csrc/u8x8_d_ssd1325.c ****       }
 424:..\..\..\u8g2\u8g2\csrc/u8x8_d_ssd1325.c ****       else
 425:..\..\..\u8g2\u8g2\csrc/u8x8_d_ssd1325.c ****       {
 426:..\..\..\u8g2\u8g2\csrc/u8x8_d_ssd1325.c **** 	u8x8_cad_SendSequence(u8x8, u8x8_d_ssd0323_os128064_flip1_seq);
 513              		.loc 1 426 0
 514 0034 0949     		ldr	r1, .L47+12
 515              	.LVL80:
 516 0036 FFF7FEFF 		bl	u8x8_cad_SendSequence
 517              	.LVL81:
 427:..\..\..\u8g2\u8g2\csrc/u8x8_d_ssd1325.c **** 	u8x8->x_offset = u8x8->display_info->flipmode_x_offset;
 518              		.loc 1 427 0
 519 003a 2368     		ldr	r3, [r4]
 520 003c DB7C     		ldrb	r3, [r3, #19]	@ zero_extendqisi2
 521              	.L46:
 522 003e 84F82230 		strb	r3, [r4, #34]
 523 0042 03E0     		b	.L42
 524              	.LVL82:
 525              	.L44:
 428:..\..\..\u8g2\u8g2\csrc/u8x8_d_ssd1325.c ****       }
 429:..\..\..\u8g2\u8g2\csrc/u8x8_d_ssd1325.c ****       return 1;
 430:..\..\..\u8g2\u8g2\csrc/u8x8_d_ssd1325.c ****     }
 431:..\..\..\u8g2\u8g2\csrc/u8x8_d_ssd1325.c ****     return u8x8_d_ssd1325_128x64_generic(u8x8, msg, arg_int, arg_ptr);
 432:..\..\..\u8g2\u8g2\csrc/u8x8_d_ssd1325.c **** }
 526              		.loc 1 432 0
 527 0044 BDE87040 		pop	{r4, r5, r6, lr}
 528              		.cfi_remember_state
 529              		.cfi_restore 14
 530              		.cfi_restore 6
 531              		.cfi_restore 5
 532              		.cfi_restore 4
 533              		.cfi_def_cfa_offset 0
 431:..\..\..\u8g2\u8g2\csrc/u8x8_d_ssd1325.c **** }
 534              		.loc 1 431 0
 535 0048 FFF7FEBF 		b	u8x8_d_ssd1325_128x64_generic
 536              	.LVL83:
 537              	.L42:
 538              		.cfi_restore_state
 539              		.loc 1 432 0
 540 004c 0120     		movs	r0, #1
 541 004e 70BD     		pop	{r4, r5, r6, pc}
 542              	.LVL84:
 543              	.L48:
ARM GAS  C:\Users\jesse\AppData\Local\Temp\cc5PybHd.s 			page 19


 544              		.align	2
 545              	.L47:
 546 0050 8C000000 		.word	.LANCHOR0+140
 547 0054 A4000000 		.word	.LANCHOR0+164
 548 0058 FB000000 		.word	.LANCHOR0+251
 549 005c 06010000 		.word	.LANCHOR0+262
 550              		.cfi_endproc
 551              	.LFE3:
 552              		.size	u8x8_d_ssd0323_os128064, .-u8x8_d_ssd0323_os128064
 553              		.section	.rodata
 554              		.align	2
 555              		.set	.LANCHOR0,. + 0
 556              		.type	u8x8_d_ssd1325_128x64_nhd_powersave0_seq, %object
 557              		.size	u8x8_d_ssd1325_128x64_nhd_powersave0_seq, 5
 558              	u8x8_d_ssd1325_128x64_nhd_powersave0_seq:
 559 0000 18       		.byte	24
 560 0001 15       		.byte	21
 561 0002 AF       		.byte	-81
 562 0003 19       		.byte	25
 563 0004 FF       		.byte	-1
 564              		.type	u8x8_d_ssd1325_128x64_nhd_powersave1_seq, %object
 565              		.size	u8x8_d_ssd1325_128x64_nhd_powersave1_seq, 5
 566              	u8x8_d_ssd1325_128x64_nhd_powersave1_seq:
 567 0005 18       		.byte	24
 568 0006 15       		.byte	21
 569 0007 AE       		.byte	-82
 570 0008 19       		.byte	25
 571 0009 FF       		.byte	-1
 572 000a 0000     		.space	2
 573              		.type	u8x8_nhd_ssd1325_128x64_display_info, %object
 574              		.size	u8x8_nhd_ssd1325_128x64_display_info, 24
 575              	u8x8_nhd_ssd1325_128x64_display_info:
 576 000c 00       		.byte	0
 577 000d 01       		.byte	1
 578 000e 14       		.byte	20
 579 000f 0A       		.byte	10
 580 0010 64       		.byte	100
 581 0011 64       		.byte	100
 582 0012 64       		.byte	100
 583 0013 64       		.byte	100
 584 0014 00093D00 		.word	4000000
 585 0018 00       		.byte	0
 586 0019 04       		.byte	4
 587 001a 28       		.byte	40
 588 001b 3C       		.byte	60
 589 001c 10       		.byte	16
 590 001d 08       		.byte	8
 591 001e 00       		.byte	0
 592 001f 08       		.byte	8
 593 0020 8000     		.short	128
 594 0022 4000     		.short	64
 595              		.type	u8x8_d_ssd1325_128x64_nhd_init_seq, %object
 596              		.size	u8x8_d_ssd1325_128x64_nhd_init_seq, 87
 597              	u8x8_d_ssd1325_128x64_nhd_init_seq:
 598 0024 18       		.byte	24
 599 0025 15       		.byte	21
 600 0026 AE       		.byte	-82
ARM GAS  C:\Users\jesse\AppData\Local\Temp\cc5PybHd.s 			page 20


 601 0027 15       		.byte	21
 602 0028 B3       		.byte	-77
 603 0029 16       		.byte	22
 604 002a 91       		.byte	-111
 605 002b 15       		.byte	21
 606 002c A8       		.byte	-88
 607 002d 16       		.byte	22
 608 002e 3F       		.byte	63
 609 002f 15       		.byte	21
 610 0030 A2       		.byte	-94
 611 0031 16       		.byte	22
 612 0032 4C       		.byte	76
 613 0033 15       		.byte	21
 614 0034 A1       		.byte	-95
 615 0035 16       		.byte	22
 616 0036 00       		.byte	0
 617 0037 15       		.byte	21
 618 0038 AD       		.byte	-83
 619 0039 16       		.byte	22
 620 003a 02       		.byte	2
 621 003b 15       		.byte	21
 622 003c A0       		.byte	-96
 623 003d 16       		.byte	22
 624 003e 52       		.byte	82
 625 003f 15       		.byte	21
 626 0040 86       		.byte	-122
 627 0041 15       		.byte	21
 628 0042 B8       		.byte	-72
 629 0043 16       		.byte	22
 630 0044 01       		.byte	1
 631 0045 16       		.byte	22
 632 0046 11       		.byte	17
 633 0047 16       		.byte	22
 634 0048 22       		.byte	34
 635 0049 16       		.byte	22
 636 004a 32       		.byte	50
 637 004b 16       		.byte	22
 638 004c 43       		.byte	67
 639 004d 16       		.byte	22
 640 004e 54       		.byte	84
 641 004f 16       		.byte	22
 642 0050 65       		.byte	101
 643 0051 16       		.byte	22
 644 0052 76       		.byte	118
 645 0053 15       		.byte	21
 646 0054 81       		.byte	-127
 647 0055 16       		.byte	22
 648 0056 70       		.byte	112
 649 0057 15       		.byte	21
 650 0058 B2       		.byte	-78
 651 0059 16       		.byte	22
 652 005a 51       		.byte	81
 653 005b 15       		.byte	21
 654 005c B1       		.byte	-79
 655 005d 16       		.byte	22
 656 005e 55       		.byte	85
 657 005f 15       		.byte	21
ARM GAS  C:\Users\jesse\AppData\Local\Temp\cc5PybHd.s 			page 21


 658 0060 BC       		.byte	-68
 659 0061 16       		.byte	22
 660 0062 10       		.byte	16
 661 0063 15       		.byte	21
 662 0064 B4       		.byte	-76
 663 0065 16       		.byte	22
 664 0066 02       		.byte	2
 665 0067 15       		.byte	21
 666 0068 B0       		.byte	-80
 667 0069 16       		.byte	22
 668 006a 28       		.byte	40
 669 006b 15       		.byte	21
 670 006c BE       		.byte	-66
 671 006d 16       		.byte	22
 672 006e 1C       		.byte	28
 673 006f 15       		.byte	21
 674 0070 BF       		.byte	-65
 675 0071 16       		.byte	22
 676 0072 0F       		.byte	15
 677 0073 15       		.byte	21
 678 0074 A4       		.byte	-92
 679 0075 15       		.byte	21
 680 0076 23       		.byte	35
 681 0077 16       		.byte	22
 682 0078 03       		.byte	3
 683 0079 19       		.byte	25
 684 007a FF       		.byte	-1
 685              		.type	u8x8_d_ssd1325_128x64_nhd_flip0_seq, %object
 686              		.size	u8x8_d_ssd1325_128x64_nhd_flip0_seq, 7
 687              	u8x8_d_ssd1325_128x64_nhd_flip0_seq:
 688 007b 18       		.byte	24
 689 007c 15       		.byte	21
 690 007d A0       		.byte	-96
 691 007e 16       		.byte	22
 692 007f 52       		.byte	82
 693 0080 19       		.byte	25
 694 0081 FF       		.byte	-1
 695              		.type	u8x8_d_ssd1325_128x64_nhd_flip1_seq, %object
 696              		.size	u8x8_d_ssd1325_128x64_nhd_flip1_seq, 7
 697              	u8x8_d_ssd1325_128x64_nhd_flip1_seq:
 698 0082 18       		.byte	24
 699 0083 15       		.byte	21
 700 0084 A0       		.byte	-96
 701 0085 16       		.byte	22
 702 0086 41       		.byte	65
 703 0087 19       		.byte	25
 704 0088 FF       		.byte	-1
 705 0089 000000   		.space	3
 706              		.type	u8x8_ssd0323_os128064_display_info, %object
 707              		.size	u8x8_ssd0323_os128064_display_info, 24
 708              	u8x8_ssd0323_os128064_display_info:
 709 008c 00       		.byte	0
 710 008d 01       		.byte	1
 711 008e 14       		.byte	20
 712 008f 0A       		.byte	10
 713 0090 64       		.byte	100
 714 0091 64       		.byte	100
ARM GAS  C:\Users\jesse\AppData\Local\Temp\cc5PybHd.s 			page 22


 715 0092 64       		.byte	100
 716 0093 64       		.byte	100
 717 0094 00093D00 		.word	4000000
 718 0098 00       		.byte	0
 719 0099 04       		.byte	4
 720 009a 28       		.byte	40
 721 009b 3C       		.byte	60
 722 009c 10       		.byte	16
 723 009d 08       		.byte	8
 724 009e 00       		.byte	0
 725 009f 00       		.byte	0
 726 00a0 8000     		.short	128
 727 00a2 4000     		.short	64
 728              		.type	u8x8_d_ssd0323_os128064_init_seq, %object
 729              		.size	u8x8_d_ssd0323_os128064_init_seq, 87
 730              	u8x8_d_ssd0323_os128064_init_seq:
 731 00a4 18       		.byte	24
 732 00a5 15       		.byte	21
 733 00a6 AE       		.byte	-82
 734 00a7 15       		.byte	21
 735 00a8 B3       		.byte	-77
 736 00a9 16       		.byte	22
 737 00aa 91       		.byte	-111
 738 00ab 15       		.byte	21
 739 00ac A8       		.byte	-88
 740 00ad 16       		.byte	22
 741 00ae 3F       		.byte	63
 742 00af 15       		.byte	21
 743 00b0 A2       		.byte	-94
 744 00b1 16       		.byte	22
 745 00b2 40       		.byte	64
 746 00b3 15       		.byte	21
 747 00b4 A1       		.byte	-95
 748 00b5 16       		.byte	22
 749 00b6 00       		.byte	0
 750 00b7 15       		.byte	21
 751 00b8 AD       		.byte	-83
 752 00b9 16       		.byte	22
 753 00ba 02       		.byte	2
 754 00bb 15       		.byte	21
 755 00bc A0       		.byte	-96
 756 00bd 16       		.byte	22
 757 00be 52       		.byte	82
 758 00bf 15       		.byte	21
 759 00c0 86       		.byte	-122
 760 00c1 15       		.byte	21
 761 00c2 B8       		.byte	-72
 762 00c3 16       		.byte	22
 763 00c4 01       		.byte	1
 764 00c5 16       		.byte	22
 765 00c6 11       		.byte	17
 766 00c7 16       		.byte	22
 767 00c8 22       		.byte	34
 768 00c9 16       		.byte	22
 769 00ca 32       		.byte	50
 770 00cb 16       		.byte	22
 771 00cc 43       		.byte	67
ARM GAS  C:\Users\jesse\AppData\Local\Temp\cc5PybHd.s 			page 23


 772 00cd 16       		.byte	22
 773 00ce 54       		.byte	84
 774 00cf 16       		.byte	22
 775 00d0 65       		.byte	101
 776 00d1 16       		.byte	22
 777 00d2 76       		.byte	118
 778 00d3 15       		.byte	21
 779 00d4 81       		.byte	-127
 780 00d5 16       		.byte	22
 781 00d6 70       		.byte	112
 782 00d7 15       		.byte	21
 783 00d8 B2       		.byte	-78
 784 00d9 16       		.byte	22
 785 00da 51       		.byte	81
 786 00db 15       		.byte	21
 787 00dc B1       		.byte	-79
 788 00dd 16       		.byte	22
 789 00de 55       		.byte	85
 790 00df 15       		.byte	21
 791 00e0 BC       		.byte	-68
 792 00e1 16       		.byte	22
 793 00e2 10       		.byte	16
 794 00e3 15       		.byte	21
 795 00e4 B4       		.byte	-76
 796 00e5 16       		.byte	22
 797 00e6 02       		.byte	2
 798 00e7 15       		.byte	21
 799 00e8 B0       		.byte	-80
 800 00e9 16       		.byte	22
 801 00ea 28       		.byte	40
 802 00eb 15       		.byte	21
 803 00ec BE       		.byte	-66
 804 00ed 16       		.byte	22
 805 00ee 1C       		.byte	28
 806 00ef 15       		.byte	21
 807 00f0 BF       		.byte	-65
 808 00f1 16       		.byte	22
 809 00f2 0F       		.byte	15
 810 00f3 15       		.byte	21
 811 00f4 A4       		.byte	-92
 812 00f5 15       		.byte	21
 813 00f6 23       		.byte	35
 814 00f7 16       		.byte	22
 815 00f8 03       		.byte	3
 816 00f9 19       		.byte	25
 817 00fa FF       		.byte	-1
 818              		.type	u8x8_d_ssd0323_os128064_flip0_seq, %object
 819              		.size	u8x8_d_ssd0323_os128064_flip0_seq, 11
 820              	u8x8_d_ssd0323_os128064_flip0_seq:
 821 00fb 18       		.byte	24
 822 00fc 15       		.byte	21
 823 00fd A0       		.byte	-96
 824 00fe 16       		.byte	22
 825 00ff 52       		.byte	82
 826 0100 15       		.byte	21
 827 0101 A2       		.byte	-94
 828 0102 16       		.byte	22
ARM GAS  C:\Users\jesse\AppData\Local\Temp\cc5PybHd.s 			page 24


 829 0103 40       		.byte	64
 830 0104 19       		.byte	25
 831 0105 FF       		.byte	-1
 832              		.type	u8x8_d_ssd0323_os128064_flip1_seq, %object
 833              		.size	u8x8_d_ssd0323_os128064_flip1_seq, 11
 834              	u8x8_d_ssd0323_os128064_flip1_seq:
 835 0106 18       		.byte	24
 836 0107 15       		.byte	21
 837 0108 A0       		.byte	-96
 838 0109 16       		.byte	22
 839 010a 41       		.byte	65
 840 010b 15       		.byte	21
 841 010c A2       		.byte	-94
 842 010d 16       		.byte	22
 843 010e 50       		.byte	80
 844 010f 19       		.byte	25
 845 0110 FF       		.byte	-1
 846              		.bss
 847              		.set	.LANCHOR1,. + 0
 848              		.type	u8x8_ssd1325_8to32_dest_buf, %object
 849              		.size	u8x8_ssd1325_8to32_dest_buf, 32
 850              	u8x8_ssd1325_8to32_dest_buf:
 851 0000 00000000 		.space	32
 851      00000000 
 851      00000000 
 851      00000000 
 851      00000000 
 852              		.text
 853              	.Letext0:
 854              		.file 2 "c:\\program files (x86)\\cypress\\psoc creator\\4.4\\psoc creator\\import\\gnu\\arm\\5.4.
 855              		.file 3 "c:\\program files (x86)\\cypress\\psoc creator\\4.4\\psoc creator\\import\\gnu\\arm\\5.4.
 856              		.file 4 "..\\..\\..\\u8g2\\u8g2\\csrc\\u8x8.h"