ARM GAS  C:\Users\jesse\AppData\Local\Temp\ccaDgWnX.s 			page 1


   1              		.syntax unified
   2              		.cpu cortex-m3
   3              		.fpu softvfp
   4              		.eabi_attribute 20, 1
   5              		.eabi_attribute 21, 1
   6              		.eabi_attribute 23, 3
   7              		.eabi_attribute 24, 1
   8              		.eabi_attribute 25, 1
   9              		.eabi_attribute 26, 1
  10              		.eabi_attribute 30, 4
  11              		.eabi_attribute 34, 1
  12              		.eabi_attribute 18, 4
  13              		.thumb
  14              		.syntax unified
  15              		.file	"u8x8_d_ssd1316.c"
  16              		.text
  17              	.Ltext0:
  18              		.cfi_sections	.debug_frame
  19              		.section	.text.u8x8_d_ssd1316_generic,"ax",%progbits
  20              		.align	1
  21              		.thumb
  22              		.thumb_func
  23              		.type	u8x8_d_ssd1316_generic, %function
  24              	u8x8_d_ssd1316_generic:
  25              	.LFB0:
  26              		.file 1 "..\\..\\..\\u8g2\\u8g2\\csrc\\u8x8_d_ssd1316.c"
   1:..\..\..\u8g2\u8g2\csrc/u8x8_d_ssd1316.c **** /*
   2:..\..\..\u8g2\u8g2\csrc/u8x8_d_ssd1316.c **** 
   3:..\..\..\u8g2\u8g2\csrc/u8x8_d_ssd1316.c ****   u8x8_d_ssd1316.c
   4:..\..\..\u8g2\u8g2\csrc/u8x8_d_ssd1316.c **** 
   5:..\..\..\u8g2\u8g2\csrc/u8x8_d_ssd1316.c ****   Universal 8bit Graphics Library (https://github.com/olikraus/u8g2/)
   6:..\..\..\u8g2\u8g2\csrc/u8x8_d_ssd1316.c **** 
   7:..\..\..\u8g2\u8g2\csrc/u8x8_d_ssd1316.c ****   Copyright (c) 2019, olikraus@gmail.com
   8:..\..\..\u8g2\u8g2\csrc/u8x8_d_ssd1316.c ****   All rights reserved.
   9:..\..\..\u8g2\u8g2\csrc/u8x8_d_ssd1316.c **** 
  10:..\..\..\u8g2\u8g2\csrc/u8x8_d_ssd1316.c ****   Redistribution and use in source and binary forms, with or without modification, 
  11:..\..\..\u8g2\u8g2\csrc/u8x8_d_ssd1316.c ****   are permitted provided that the following conditions are met:
  12:..\..\..\u8g2\u8g2\csrc/u8x8_d_ssd1316.c **** 
  13:..\..\..\u8g2\u8g2\csrc/u8x8_d_ssd1316.c ****   * Redistributions of source code must retain the above copyright notice, this list 
  14:..\..\..\u8g2\u8g2\csrc/u8x8_d_ssd1316.c ****     of conditions and the following disclaimer.
  15:..\..\..\u8g2\u8g2\csrc/u8x8_d_ssd1316.c ****     
  16:..\..\..\u8g2\u8g2\csrc/u8x8_d_ssd1316.c ****   * Redistributions in binary form must reproduce the above copyright notice, this 
  17:..\..\..\u8g2\u8g2\csrc/u8x8_d_ssd1316.c ****     list of conditions and the following disclaimer in the documentation and/or other 
  18:..\..\..\u8g2\u8g2\csrc/u8x8_d_ssd1316.c ****     materials provided with the distribution.
  19:..\..\..\u8g2\u8g2\csrc/u8x8_d_ssd1316.c **** 
  20:..\..\..\u8g2\u8g2\csrc/u8x8_d_ssd1316.c ****   THIS SOFTWARE IS PROVIDED BY THE COPYRIGHT HOLDERS AND 
  21:..\..\..\u8g2\u8g2\csrc/u8x8_d_ssd1316.c ****   CONTRIBUTORS "AS IS" AND ANY EXPRESS OR IMPLIED WARRANTIES, 
  22:..\..\..\u8g2\u8g2\csrc/u8x8_d_ssd1316.c ****   INCLUDING, BUT NOT LIMITED TO, THE IMPLIED WARRANTIES OF 
  23:..\..\..\u8g2\u8g2\csrc/u8x8_d_ssd1316.c ****   MERCHANTABILITY AND FITNESS FOR A PARTICULAR PURPOSE ARE 
  24:..\..\..\u8g2\u8g2\csrc/u8x8_d_ssd1316.c ****   DISCLAIMED. IN NO EVENT SHALL THE COPYRIGHT HOLDER OR 
  25:..\..\..\u8g2\u8g2\csrc/u8x8_d_ssd1316.c ****   CONTRIBUTORS BE LIABLE FOR ANY DIRECT, INDIRECT, INCIDENTAL, 
  26:..\..\..\u8g2\u8g2\csrc/u8x8_d_ssd1316.c ****   SPECIAL, EXEMPLARY, OR CONSEQUENTIAL DAMAGES (INCLUDING, BUT 
  27:..\..\..\u8g2\u8g2\csrc/u8x8_d_ssd1316.c ****   NOT LIMITED TO, PROCUREMENT OF SUBSTITUTE GOODS OR SERVICES; 
  28:..\..\..\u8g2\u8g2\csrc/u8x8_d_ssd1316.c ****   LOSS OF USE, DATA, OR PROFITS; OR BUSINESS INTERRUPTION) HOWEVER 
  29:..\..\..\u8g2\u8g2\csrc/u8x8_d_ssd1316.c ****   CAUSED AND ON ANY THEORY OF LIABILITY, WHETHER IN CONTRACT, 
  30:..\..\..\u8g2\u8g2\csrc/u8x8_d_ssd1316.c ****   STRICT LIABILITY, OR TORT (INCLUDING NEGLIGENCE OR OTHERWISE) 
  31:..\..\..\u8g2\u8g2\csrc/u8x8_d_ssd1316.c ****   ARISING IN ANY WAY OUT OF THE USE OF THIS SOFTWARE, EVEN IF 
ARM GAS  C:\Users\jesse\AppData\Local\Temp\ccaDgWnX.s 			page 2


  32:..\..\..\u8g2\u8g2\csrc/u8x8_d_ssd1316.c ****   ADVISED OF THE POSSIBILITY OF SUCH DAMAGE.  
  33:..\..\..\u8g2\u8g2\csrc/u8x8_d_ssd1316.c **** 
  34:..\..\..\u8g2\u8g2\csrc/u8x8_d_ssd1316.c **** 
  35:..\..\..\u8g2\u8g2\csrc/u8x8_d_ssd1316.c ****   SSD1316: 128x39 OLED
  36:..\..\..\u8g2\u8g2\csrc/u8x8_d_ssd1316.c ****   
  37:..\..\..\u8g2\u8g2\csrc/u8x8_d_ssd1316.c ****   https://github.com/olikraus/u8g2/issues/919
  38:..\..\..\u8g2\u8g2\csrc/u8x8_d_ssd1316.c **** 
  39:..\..\..\u8g2\u8g2\csrc/u8x8_d_ssd1316.c **** */
  40:..\..\..\u8g2\u8g2\csrc/u8x8_d_ssd1316.c **** 
  41:..\..\..\u8g2\u8g2\csrc/u8x8_d_ssd1316.c **** 
  42:..\..\..\u8g2\u8g2\csrc/u8x8_d_ssd1316.c **** #include "u8x8.h"
  43:..\..\..\u8g2\u8g2\csrc/u8x8_d_ssd1316.c **** 
  44:..\..\..\u8g2\u8g2\csrc/u8x8_d_ssd1316.c **** static const uint8_t u8x8_d_ssd1316_128x32_powersave0_seq[] = {
  45:..\..\..\u8g2\u8g2\csrc/u8x8_d_ssd1316.c ****   U8X8_START_TRANSFER(),             	/* enable chip, delay is part of the transfer start */
  46:..\..\..\u8g2\u8g2\csrc/u8x8_d_ssd1316.c ****   U8X8_C(0x0af),		                /* display on */
  47:..\..\..\u8g2\u8g2\csrc/u8x8_d_ssd1316.c ****   U8X8_END_TRANSFER(),             	/* disable chip */
  48:..\..\..\u8g2\u8g2\csrc/u8x8_d_ssd1316.c ****   U8X8_END()             			/* end of sequence */
  49:..\..\..\u8g2\u8g2\csrc/u8x8_d_ssd1316.c **** };
  50:..\..\..\u8g2\u8g2\csrc/u8x8_d_ssd1316.c **** 
  51:..\..\..\u8g2\u8g2\csrc/u8x8_d_ssd1316.c **** static const uint8_t u8x8_d_ssd1316_128x32_powersave1_seq[] = {
  52:..\..\..\u8g2\u8g2\csrc/u8x8_d_ssd1316.c ****   U8X8_START_TRANSFER(),             	/* enable chip, delay is part of the transfer start */
  53:..\..\..\u8g2\u8g2\csrc/u8x8_d_ssd1316.c ****   U8X8_C(0x0ae),		                /* display off */
  54:..\..\..\u8g2\u8g2\csrc/u8x8_d_ssd1316.c ****   U8X8_END_TRANSFER(),             	/* disable chip */
  55:..\..\..\u8g2\u8g2\csrc/u8x8_d_ssd1316.c ****   U8X8_END()             			/* end of sequence */
  56:..\..\..\u8g2\u8g2\csrc/u8x8_d_ssd1316.c **** };
  57:..\..\..\u8g2\u8g2\csrc/u8x8_d_ssd1316.c **** 
  58:..\..\..\u8g2\u8g2\csrc/u8x8_d_ssd1316.c **** static const uint8_t u8x8_d_ssd1316_128x32_flip0_seq[] = {
  59:..\..\..\u8g2\u8g2\csrc/u8x8_d_ssd1316.c ****   U8X8_START_TRANSFER(),             	/* enable chip, delay is part of the transfer start */
  60:..\..\..\u8g2\u8g2\csrc/u8x8_d_ssd1316.c ****   U8X8_C(0x0a1),				/* segment remap a0/a1*/
  61:..\..\..\u8g2\u8g2\csrc/u8x8_d_ssd1316.c ****   U8X8_C(0x0c0),				/* c0: scan dir normal, c8: reverse */
  62:..\..\..\u8g2\u8g2\csrc/u8x8_d_ssd1316.c ****   U8X8_END_TRANSFER(),             	/* disable chip */
  63:..\..\..\u8g2\u8g2\csrc/u8x8_d_ssd1316.c ****   U8X8_END()             			/* end of sequence */
  64:..\..\..\u8g2\u8g2\csrc/u8x8_d_ssd1316.c **** };
  65:..\..\..\u8g2\u8g2\csrc/u8x8_d_ssd1316.c **** 
  66:..\..\..\u8g2\u8g2\csrc/u8x8_d_ssd1316.c **** static const uint8_t u8x8_d_ssd1316_128x32_flip1_seq[] = {
  67:..\..\..\u8g2\u8g2\csrc/u8x8_d_ssd1316.c ****   U8X8_START_TRANSFER(),             	/* enable chip, delay is part of the transfer start */
  68:..\..\..\u8g2\u8g2\csrc/u8x8_d_ssd1316.c ****   U8X8_C(0x0a0),				/* segment remap a0/a1*/
  69:..\..\..\u8g2\u8g2\csrc/u8x8_d_ssd1316.c ****   U8X8_C(0x0c8),				/* c0: scan dir normal, c8: reverse */
  70:..\..\..\u8g2\u8g2\csrc/u8x8_d_ssd1316.c ****   U8X8_END_TRANSFER(),             	/* disable chip */
  71:..\..\..\u8g2\u8g2\csrc/u8x8_d_ssd1316.c ****   U8X8_END()             			/* end of sequence */
  72:..\..\..\u8g2\u8g2\csrc/u8x8_d_ssd1316.c **** };
  73:..\..\..\u8g2\u8g2\csrc/u8x8_d_ssd1316.c **** 
  74:..\..\..\u8g2\u8g2\csrc/u8x8_d_ssd1316.c **** 
  75:..\..\..\u8g2\u8g2\csrc/u8x8_d_ssd1316.c **** 
  76:..\..\..\u8g2\u8g2\csrc/u8x8_d_ssd1316.c **** 
  77:..\..\..\u8g2\u8g2\csrc/u8x8_d_ssd1316.c **** /*===================================================*/
  78:..\..\..\u8g2\u8g2\csrc/u8x8_d_ssd1316.c **** 
  79:..\..\..\u8g2\u8g2\csrc/u8x8_d_ssd1316.c **** static uint8_t u8x8_d_ssd1316_generic(u8x8_t *u8x8, uint8_t msg, uint8_t arg_int, void *arg_ptr)
  80:..\..\..\u8g2\u8g2\csrc/u8x8_d_ssd1316.c **** {
  27              		.loc 1 80 0
  28              		.cfi_startproc
  29              		@ args = 0, pretend = 0, frame = 0
  30              		@ frame_needed = 0, uses_anonymous_args = 0
  31              	.LVL0:
  81:..\..\..\u8g2\u8g2\csrc/u8x8_d_ssd1316.c ****   uint8_t x, c;
  82:..\..\..\u8g2\u8g2\csrc/u8x8_d_ssd1316.c ****   uint8_t *ptr;
  83:..\..\..\u8g2\u8g2\csrc/u8x8_d_ssd1316.c ****   switch(msg)
ARM GAS  C:\Users\jesse\AppData\Local\Temp\ccaDgWnX.s 			page 3


  32              		.loc 1 83 0
  33 0000 0B39     		subs	r1, r1, #11
  34              	.LVL1:
  80:..\..\..\u8g2\u8g2\csrc/u8x8_d_ssd1316.c ****   uint8_t x, c;
  35              		.loc 1 80 0
  36 0002 F8B5     		push	{r3, r4, r5, r6, r7, lr}
  37              		.cfi_def_cfa_offset 24
  38              		.cfi_offset 3, -24
  39              		.cfi_offset 4, -20
  40              		.cfi_offset 5, -16
  41              		.cfi_offset 6, -12
  42              		.cfi_offset 7, -8
  43              		.cfi_offset 14, -4
  80:..\..\..\u8g2\u8g2\csrc/u8x8_d_ssd1316.c ****   uint8_t x, c;
  44              		.loc 1 80 0
  45 0004 0446     		mov	r4, r0
  46 0006 1546     		mov	r5, r2
  47 0008 1F46     		mov	r7, r3
  48              		.loc 1 83 0
  49 000a 0429     		cmp	r1, #4
  50 000c 51D8     		bhi	.L11
  51 000e DFE801F0 		tbb	[pc, r1]
  52              	.LVL2:
  53              	.L4:
  54 0012 03       		.byte	(.L3-.L4)/2
  55 0013 50       		.byte	(.L11-.L4)/2
  56 0014 0B       		.byte	(.L5-.L4)/2
  57 0015 1A       		.byte	(.L6-.L4)/2
  58 0016 29       		.byte	(.L7-.L4)/2
  59 0017 00       		.p2align 1
  60              	.L3:
  84:..\..\..\u8g2\u8g2\csrc/u8x8_d_ssd1316.c ****   {
  85:..\..\..\u8g2\u8g2\csrc/u8x8_d_ssd1316.c ****     /* handled by the calling function
  86:..\..\..\u8g2\u8g2\csrc/u8x8_d_ssd1316.c ****     case U8X8_MSG_DISPLAY_SETUP_MEMORY:
  87:..\..\..\u8g2\u8g2\csrc/u8x8_d_ssd1316.c ****       u8x8_d_helper_display_setup_memory(u8x8, &u8x8_ssd1316_128x32_display_info);
  88:..\..\..\u8g2\u8g2\csrc/u8x8_d_ssd1316.c ****       break;
  89:..\..\..\u8g2\u8g2\csrc/u8x8_d_ssd1316.c ****     */
  90:..\..\..\u8g2\u8g2\csrc/u8x8_d_ssd1316.c ****     /* handled by the calling function
  91:..\..\..\u8g2\u8g2\csrc/u8x8_d_ssd1316.c ****     case U8X8_MSG_DISPLAY_INIT:
  92:..\..\..\u8g2\u8g2\csrc/u8x8_d_ssd1316.c ****       u8x8_d_helper_display_init(u8x8);
  93:..\..\..\u8g2\u8g2\csrc/u8x8_d_ssd1316.c ****       u8x8_cad_SendSequence(u8x8, u8x8_d_ssd1316_128x32_init_seq);    
  94:..\..\..\u8g2\u8g2\csrc/u8x8_d_ssd1316.c ****       break;
  95:..\..\..\u8g2\u8g2\csrc/u8x8_d_ssd1316.c ****     */
  96:..\..\..\u8g2\u8g2\csrc/u8x8_d_ssd1316.c ****     case U8X8_MSG_DISPLAY_SET_POWER_SAVE:
  97:..\..\..\u8g2\u8g2\csrc/u8x8_d_ssd1316.c ****       if ( arg_int == 0 )
  61              		.loc 1 97 0
  62 0018 0AB9     		cbnz	r2, .L8
  98:..\..\..\u8g2\u8g2\csrc/u8x8_d_ssd1316.c **** 	u8x8_cad_SendSequence(u8x8, u8x8_d_ssd1316_128x32_powersave0_seq);
  63              		.loc 1 98 0
  64 001a 2749     		ldr	r1, .L18
  65 001c 00E0     		b	.L16
  66              	.L8:
  99:..\..\..\u8g2\u8g2\csrc/u8x8_d_ssd1316.c ****       else
 100:..\..\..\u8g2\u8g2\csrc/u8x8_d_ssd1316.c **** 	u8x8_cad_SendSequence(u8x8, u8x8_d_ssd1316_128x32_powersave1_seq);
  67              		.loc 1 100 0
  68 001e 2749     		ldr	r1, .L18+4
  69              	.L16:
ARM GAS  C:\Users\jesse\AppData\Local\Temp\ccaDgWnX.s 			page 4


  70 0020 2046     		mov	r0, r4
  71              	.LVL3:
  72 0022 FFF7FEFF 		bl	u8x8_cad_SendSequence
  73              	.LVL4:
  74 0026 1BE0     		b	.L13
  75              	.LVL5:
  76              	.L5:
 101:..\..\..\u8g2\u8g2\csrc/u8x8_d_ssd1316.c ****       break;
 102:..\..\..\u8g2\u8g2\csrc/u8x8_d_ssd1316.c ****     case U8X8_MSG_DISPLAY_SET_FLIP_MODE:
 103:..\..\..\u8g2\u8g2\csrc/u8x8_d_ssd1316.c ****       if ( arg_int == 0 )
  77              		.loc 1 103 0
  78 0028 2AB9     		cbnz	r2, .L9
 104:..\..\..\u8g2\u8g2\csrc/u8x8_d_ssd1316.c ****       {
 105:..\..\..\u8g2\u8g2\csrc/u8x8_d_ssd1316.c **** 	u8x8_cad_SendSequence(u8x8, u8x8_d_ssd1316_128x32_flip0_seq);
  79              		.loc 1 105 0
  80 002a 2549     		ldr	r1, .L18+8
  81 002c FFF7FEFF 		bl	u8x8_cad_SendSequence
  82              	.LVL6:
 106:..\..\..\u8g2\u8g2\csrc/u8x8_d_ssd1316.c **** 	u8x8->x_offset = u8x8->display_info->default_x_offset;
  83              		.loc 1 106 0
  84 0030 2368     		ldr	r3, [r4]
  85 0032 9B7C     		ldrb	r3, [r3, #18]	@ zero_extendqisi2
  86 0034 04E0     		b	.L15
  87              	.LVL7:
  88              	.L9:
 107:..\..\..\u8g2\u8g2\csrc/u8x8_d_ssd1316.c ****       }
 108:..\..\..\u8g2\u8g2\csrc/u8x8_d_ssd1316.c ****       else
 109:..\..\..\u8g2\u8g2\csrc/u8x8_d_ssd1316.c ****       {
 110:..\..\..\u8g2\u8g2\csrc/u8x8_d_ssd1316.c **** 	u8x8_cad_SendSequence(u8x8, u8x8_d_ssd1316_128x32_flip1_seq);
  89              		.loc 1 110 0
  90 0036 2349     		ldr	r1, .L18+12
  91 0038 FFF7FEFF 		bl	u8x8_cad_SendSequence
  92              	.LVL8:
 111:..\..\..\u8g2\u8g2\csrc/u8x8_d_ssd1316.c **** 	u8x8->x_offset = u8x8->display_info->flipmode_x_offset;
  93              		.loc 1 111 0
  94 003c 2368     		ldr	r3, [r4]
  95 003e DB7C     		ldrb	r3, [r3, #19]	@ zero_extendqisi2
  96              	.L15:
  97 0040 84F82230 		strb	r3, [r4, #34]
  98 0044 0CE0     		b	.L13
  99              	.LVL9:
 100              	.L6:
 112:..\..\..\u8g2\u8g2\csrc/u8x8_d_ssd1316.c ****       }
 113:..\..\..\u8g2\u8g2\csrc/u8x8_d_ssd1316.c ****       break;
 114:..\..\..\u8g2\u8g2\csrc/u8x8_d_ssd1316.c **** #ifdef U8X8_WITH_SET_CONTRAST
 115:..\..\..\u8g2\u8g2\csrc/u8x8_d_ssd1316.c ****     case U8X8_MSG_DISPLAY_SET_CONTRAST:
 116:..\..\..\u8g2\u8g2\csrc/u8x8_d_ssd1316.c ****       u8x8_cad_StartTransfer(u8x8);
 101              		.loc 1 116 0
 102 0046 FFF7FEFF 		bl	u8x8_cad_StartTransfer
 103              	.LVL10:
 117:..\..\..\u8g2\u8g2\csrc/u8x8_d_ssd1316.c ****       u8x8_cad_SendCmd(u8x8, 0x081 );
 104              		.loc 1 117 0
 105 004a 8121     		movs	r1, #129
 106 004c 2046     		mov	r0, r4
 107 004e FFF7FEFF 		bl	u8x8_cad_SendCmd
 108              	.LVL11:
 118:..\..\..\u8g2\u8g2\csrc/u8x8_d_ssd1316.c ****       u8x8_cad_SendArg(u8x8, arg_int );	/* ssd1306 has range from 0 to 255 */
ARM GAS  C:\Users\jesse\AppData\Local\Temp\ccaDgWnX.s 			page 5


 109              		.loc 1 118 0
 110 0052 2946     		mov	r1, r5
 111 0054 2046     		mov	r0, r4
 112 0056 FFF7FEFF 		bl	u8x8_cad_SendArg
 113              	.LVL12:
 114              	.L14:
 119:..\..\..\u8g2\u8g2\csrc/u8x8_d_ssd1316.c ****       u8x8_cad_EndTransfer(u8x8);
 115              		.loc 1 119 0
 116 005a 2046     		mov	r0, r4
 117 005c FFF7FEFF 		bl	u8x8_cad_EndTransfer
 118              	.LVL13:
 119              	.L13:
 120:..\..\..\u8g2\u8g2\csrc/u8x8_d_ssd1316.c ****       break;
 121:..\..\..\u8g2\u8g2\csrc/u8x8_d_ssd1316.c **** #endif
 122:..\..\..\u8g2\u8g2\csrc/u8x8_d_ssd1316.c ****     case U8X8_MSG_DISPLAY_DRAW_TILE:
 123:..\..\..\u8g2\u8g2\csrc/u8x8_d_ssd1316.c ****       x = ((u8x8_tile_t *)arg_ptr)->x_pos;    
 124:..\..\..\u8g2\u8g2\csrc/u8x8_d_ssd1316.c ****       x *= 8;
 125:..\..\..\u8g2\u8g2\csrc/u8x8_d_ssd1316.c ****       x += u8x8->x_offset;
 126:..\..\..\u8g2\u8g2\csrc/u8x8_d_ssd1316.c **** 
 127:..\..\..\u8g2\u8g2\csrc/u8x8_d_ssd1316.c ****       u8x8_cad_StartTransfer(u8x8);
 128:..\..\..\u8g2\u8g2\csrc/u8x8_d_ssd1316.c ****     
 129:..\..\..\u8g2\u8g2\csrc/u8x8_d_ssd1316.c ****       u8x8_cad_SendCmd(u8x8, 0x010 | (x>>4) );
 130:..\..\..\u8g2\u8g2\csrc/u8x8_d_ssd1316.c ****       u8x8_cad_SendCmd(u8x8, 0x000 | ((x&15)));	/* probably wrong, should be SendCmd */
 131:..\..\..\u8g2\u8g2\csrc/u8x8_d_ssd1316.c ****       u8x8_cad_SendCmd(u8x8, 0x0b0 | (((u8x8_tile_t *)arg_ptr)->y_pos)); /* probably wrong, should 
 132:..\..\..\u8g2\u8g2\csrc/u8x8_d_ssd1316.c **** 
 133:..\..\..\u8g2\u8g2\csrc/u8x8_d_ssd1316.c ****       do
 134:..\..\..\u8g2\u8g2\csrc/u8x8_d_ssd1316.c ****       {
 135:..\..\..\u8g2\u8g2\csrc/u8x8_d_ssd1316.c **** 	c = ((u8x8_tile_t *)arg_ptr)->cnt;
 136:..\..\..\u8g2\u8g2\csrc/u8x8_d_ssd1316.c **** 	ptr = ((u8x8_tile_t *)arg_ptr)->tile_ptr;
 137:..\..\..\u8g2\u8g2\csrc/u8x8_d_ssd1316.c **** 	u8x8_cad_SendData(u8x8, c*8, ptr); 	/* note: SendData can not handle more than 255 bytes */
 138:..\..\..\u8g2\u8g2\csrc/u8x8_d_ssd1316.c **** 	arg_int--;
 139:..\..\..\u8g2\u8g2\csrc/u8x8_d_ssd1316.c ****       } while( arg_int > 0 );
 140:..\..\..\u8g2\u8g2\csrc/u8x8_d_ssd1316.c ****       
 141:..\..\..\u8g2\u8g2\csrc/u8x8_d_ssd1316.c ****       u8x8_cad_EndTransfer(u8x8);
 142:..\..\..\u8g2\u8g2\csrc/u8x8_d_ssd1316.c ****       break;
 143:..\..\..\u8g2\u8g2\csrc/u8x8_d_ssd1316.c ****     default:
 144:..\..\..\u8g2\u8g2\csrc/u8x8_d_ssd1316.c ****       return 0;
 145:..\..\..\u8g2\u8g2\csrc/u8x8_d_ssd1316.c ****   }
 146:..\..\..\u8g2\u8g2\csrc/u8x8_d_ssd1316.c ****   return 1;
 120              		.loc 1 146 0
 121 0060 0120     		movs	r0, #1
 120:..\..\..\u8g2\u8g2\csrc/u8x8_d_ssd1316.c ****       break;
 122              		.loc 1 120 0
 123 0062 F8BD     		pop	{r3, r4, r5, r6, r7, pc}
 124              	.LVL14:
 125              	.L7:
 125:..\..\..\u8g2\u8g2\csrc/u8x8_d_ssd1316.c **** 
 126              		.loc 1 125 0
 127 0064 90F82230 		ldrb	r3, [r0, #34]	@ zero_extendqisi2
 123:..\..\..\u8g2\u8g2\csrc/u8x8_d_ssd1316.c ****       x *= 8;
 128              		.loc 1 123 0
 129 0068 7E79     		ldrb	r6, [r7, #5]	@ zero_extendqisi2
 130              	.LVL15:
 125:..\..\..\u8g2\u8g2\csrc/u8x8_d_ssd1316.c **** 
 131              		.loc 1 125 0
 132 006a 03EBC606 		add	r6, r3, r6, lsl #3
 133              	.LVL16:
ARM GAS  C:\Users\jesse\AppData\Local\Temp\ccaDgWnX.s 			page 6


 134 006e 06F0FF06 		and	r6, r6, #255
 135              	.LVL17:
 127:..\..\..\u8g2\u8g2\csrc/u8x8_d_ssd1316.c ****     
 136              		.loc 1 127 0
 137 0072 FFF7FEFF 		bl	u8x8_cad_StartTransfer
 138              	.LVL18:
 129:..\..\..\u8g2\u8g2\csrc/u8x8_d_ssd1316.c ****       u8x8_cad_SendCmd(u8x8, 0x000 | ((x&15)));	/* probably wrong, should be SendCmd */
 139              		.loc 1 129 0
 140 0076 3109     		lsrs	r1, r6, #4
 141 0078 41F01001 		orr	r1, r1, #16
 142 007c 2046     		mov	r0, r4
 143 007e FFF7FEFF 		bl	u8x8_cad_SendCmd
 144              	.LVL19:
 130:..\..\..\u8g2\u8g2\csrc/u8x8_d_ssd1316.c ****       u8x8_cad_SendCmd(u8x8, 0x0b0 | (((u8x8_tile_t *)arg_ptr)->y_pos)); /* probably wrong, should 
 145              		.loc 1 130 0
 146 0082 06F00F01 		and	r1, r6, #15
 147 0086 2046     		mov	r0, r4
 148 0088 FFF7FEFF 		bl	u8x8_cad_SendCmd
 149              	.LVL20:
 131:..\..\..\u8g2\u8g2\csrc/u8x8_d_ssd1316.c **** 
 150              		.loc 1 131 0
 151 008c B979     		ldrb	r1, [r7, #6]	@ zero_extendqisi2
 152 008e 2046     		mov	r0, r4
 153 0090 41F0B001 		orr	r1, r1, #176
 154 0094 FFF7FEFF 		bl	u8x8_cad_SendCmd
 155              	.LVL21:
 156              	.L10:
 137:..\..\..\u8g2\u8g2\csrc/u8x8_d_ssd1316.c **** 	arg_int--;
 157              		.loc 1 137 0 discriminator 1
 158 0098 3979     		ldrb	r1, [r7, #4]	@ zero_extendqisi2
 159 009a 3A68     		ldr	r2, [r7]
 160 009c C900     		lsls	r1, r1, #3
 161 009e 01F0F801 		and	r1, r1, #248
 162 00a2 2046     		mov	r0, r4
 138:..\..\..\u8g2\u8g2\csrc/u8x8_d_ssd1316.c ****       } while( arg_int > 0 );
 163              		.loc 1 138 0 discriminator 1
 164 00a4 013D     		subs	r5, r5, #1
 165              	.LVL22:
 137:..\..\..\u8g2\u8g2\csrc/u8x8_d_ssd1316.c **** 	arg_int--;
 166              		.loc 1 137 0 discriminator 1
 167 00a6 FFF7FEFF 		bl	u8x8_cad_SendData
 168              	.LVL23:
 139:..\..\..\u8g2\u8g2\csrc/u8x8_d_ssd1316.c ****       
 169              		.loc 1 139 0 discriminator 1
 170 00aa 15F0FF05 		ands	r5, r5, #255
 171              	.LVL24:
 172 00ae F3D1     		bne	.L10
 173 00b0 D3E7     		b	.L14
 174              	.LVL25:
 175              	.L11:
 144:..\..\..\u8g2\u8g2\csrc/u8x8_d_ssd1316.c ****   }
 176              		.loc 1 144 0
 177 00b2 0020     		movs	r0, #0
 178              	.LVL26:
 147:..\..\..\u8g2\u8g2\csrc/u8x8_d_ssd1316.c **** }
 179              		.loc 1 147 0
 180 00b4 F8BD     		pop	{r3, r4, r5, r6, r7, pc}
ARM GAS  C:\Users\jesse\AppData\Local\Temp\ccaDgWnX.s 			page 7


 181              	.LVL27:
 182              	.L19:
 183 00b6 00BF     		.align	2
 184              	.L18:
 185 00b8 00000000 		.word	.LANCHOR0
 186 00bc 05000000 		.word	.LANCHOR0+5
 187 00c0 0A000000 		.word	.LANCHOR0+10
 188 00c4 11000000 		.word	.LANCHOR0+17
 189              		.cfi_endproc
 190              	.LFE0:
 191              		.size	u8x8_d_ssd1316_generic, .-u8x8_d_ssd1316_generic
 192              		.section	.text.u8x8_d_ssd1316_128x32,"ax",%progbits
 193              		.align	1
 194              		.global	u8x8_d_ssd1316_128x32
 195              		.thumb
 196              		.thumb_func
 197              		.type	u8x8_d_ssd1316_128x32, %function
 198              	u8x8_d_ssd1316_128x32:
 199              	.LFB1:
 148:..\..\..\u8g2\u8g2\csrc/u8x8_d_ssd1316.c **** 
 149:..\..\..\u8g2\u8g2\csrc/u8x8_d_ssd1316.c **** /*===================================================*/
 150:..\..\..\u8g2\u8g2\csrc/u8x8_d_ssd1316.c **** 
 151:..\..\..\u8g2\u8g2\csrc/u8x8_d_ssd1316.c **** 
 152:..\..\..\u8g2\u8g2\csrc/u8x8_d_ssd1316.c **** /* QT-2832TSWUG02/ZJY-2832TSWZG02 */
 153:..\..\..\u8g2\u8g2\csrc/u8x8_d_ssd1316.c **** static const uint8_t u8x8_d_ssd1316_128x32_init_seq[] = {
 154:..\..\..\u8g2\u8g2\csrc/u8x8_d_ssd1316.c ****     
 155:..\..\..\u8g2\u8g2\csrc/u8x8_d_ssd1316.c ****   U8X8_START_TRANSFER(),             	/* enable chip, delay is part of the transfer start */
 156:..\..\..\u8g2\u8g2\csrc/u8x8_d_ssd1316.c ****   
 157:..\..\..\u8g2\u8g2\csrc/u8x8_d_ssd1316.c ****   
 158:..\..\..\u8g2\u8g2\csrc/u8x8_d_ssd1316.c ****   U8X8_C(0x0ae),		        /* display off */
 159:..\..\..\u8g2\u8g2\csrc/u8x8_d_ssd1316.c ****   U8X8_C(0x040),		        /* start line */
 160:..\..\..\u8g2\u8g2\csrc/u8x8_d_ssd1316.c ****   U8X8_CA(0x081, 0x045), 		/* QG-2832TSWZG02 datasheet */
 161:..\..\..\u8g2\u8g2\csrc/u8x8_d_ssd1316.c **** 
 162:..\..\..\u8g2\u8g2\csrc/u8x8_d_ssd1316.c ****   U8X8_C(0x0a6),			/* none inverted normal display mode */
 163:..\..\..\u8g2\u8g2\csrc/u8x8_d_ssd1316.c ****   U8X8_CA(0x0a8, 0x01f),		/* multiplex ratio, duty = 1/32 */
 164:..\..\..\u8g2\u8g2\csrc/u8x8_d_ssd1316.c **** 
 165:..\..\..\u8g2\u8g2\csrc/u8x8_d_ssd1316.c ****   U8X8_C(0x0a1),			/* segment remap a0/a1*/
 166:..\..\..\u8g2\u8g2\csrc/u8x8_d_ssd1316.c ****   U8X8_C(0x0c0),			/* c0: scan dir normal, c8: reverse */
 167:..\..\..\u8g2\u8g2\csrc/u8x8_d_ssd1316.c **** 
 168:..\..\..\u8g2\u8g2\csrc/u8x8_d_ssd1316.c ****   U8X8_CA(0x0d3, 0x000),		/* display offset */
 169:..\..\..\u8g2\u8g2\csrc/u8x8_d_ssd1316.c ****   U8X8_CA(0x0d5, 0x080),		/* clock divide ratio (0x00=1) and oscillator frequency (0x8) */
 170:..\..\..\u8g2\u8g2\csrc/u8x8_d_ssd1316.c ****   U8X8_CA(0x0d9, 0x022), 		/* [2] pre-charge period 0x022/f1*/
 171:..\..\..\u8g2\u8g2\csrc/u8x8_d_ssd1316.c ****   U8X8_CA(0x0da, 0x012),		/* com pin HW config, sequential com pin config (bit 4), disable left/rig
 172:..\..\..\u8g2\u8g2\csrc/u8x8_d_ssd1316.c ****   U8X8_CA(0x0db, 0x020), 		/* vcomh deselect level */  
 173:..\..\..\u8g2\u8g2\csrc/u8x8_d_ssd1316.c ****   U8X8_CA(0x08d, 0x015),		/* [2] charge pump setting (p62): 0x014 enable, 0x010 disable, */
 174:..\..\..\u8g2\u8g2\csrc/u8x8_d_ssd1316.c ****   
 175:..\..\..\u8g2\u8g2\csrc/u8x8_d_ssd1316.c ****   //U8X8_CA(0x0a2, 0x000),		/* set display start line to 0 */
 176:..\..\..\u8g2\u8g2\csrc/u8x8_d_ssd1316.c ****   //U8X8_CA(0x020, 0x000),		/* horizontal addressing mode */
 177:..\..\..\u8g2\u8g2\csrc/u8x8_d_ssd1316.c ****   
 178:..\..\..\u8g2\u8g2\csrc/u8x8_d_ssd1316.c ****   
 179:..\..\..\u8g2\u8g2\csrc/u8x8_d_ssd1316.c ****   // Flipmode
 180:..\..\..\u8g2\u8g2\csrc/u8x8_d_ssd1316.c ****   //U8X8_C(0x0a1),			/* segment remap a0/a1*/
 181:..\..\..\u8g2\u8g2\csrc/u8x8_d_ssd1316.c ****   //U8X8_C(0x0c0),			/* c0: scan dir normal, c8: reverse */
 182:..\..\..\u8g2\u8g2\csrc/u8x8_d_ssd1316.c ****   
 183:..\..\..\u8g2\u8g2\csrc/u8x8_d_ssd1316.c ****   U8X8_C(0x02e),			/* Deactivate scroll */ 
 184:..\..\..\u8g2\u8g2\csrc/u8x8_d_ssd1316.c ****   //U8X8_C(0x0a4),			/* output ram to display */
 185:..\..\..\u8g2\u8g2\csrc/u8x8_d_ssd1316.c ****     
ARM GAS  C:\Users\jesse\AppData\Local\Temp\ccaDgWnX.s 			page 8


 186:..\..\..\u8g2\u8g2\csrc/u8x8_d_ssd1316.c ****   U8X8_END_TRANSFER(),             	/* disable chip */
 187:..\..\..\u8g2\u8g2\csrc/u8x8_d_ssd1316.c ****   U8X8_END()           			/* end of sequence */
 188:..\..\..\u8g2\u8g2\csrc/u8x8_d_ssd1316.c **** };
 189:..\..\..\u8g2\u8g2\csrc/u8x8_d_ssd1316.c **** 
 190:..\..\..\u8g2\u8g2\csrc/u8x8_d_ssd1316.c **** 
 191:..\..\..\u8g2\u8g2\csrc/u8x8_d_ssd1316.c **** 
 192:..\..\..\u8g2\u8g2\csrc/u8x8_d_ssd1316.c **** 
 193:..\..\..\u8g2\u8g2\csrc/u8x8_d_ssd1316.c **** static const u8x8_display_info_t u8x8_ssd1316_128x32_display_info =
 194:..\..\..\u8g2\u8g2\csrc/u8x8_d_ssd1316.c **** {
 195:..\..\..\u8g2\u8g2\csrc/u8x8_d_ssd1316.c ****   /* chip_enable_level = */ 0,
 196:..\..\..\u8g2\u8g2\csrc/u8x8_d_ssd1316.c ****   /* chip_disable_level = */ 1,
 197:..\..\..\u8g2\u8g2\csrc/u8x8_d_ssd1316.c ****   
 198:..\..\..\u8g2\u8g2\csrc/u8x8_d_ssd1316.c ****   /* post_chip_enable_wait_ns = */ 20,
 199:..\..\..\u8g2\u8g2\csrc/u8x8_d_ssd1316.c ****   /* pre_chip_disable_wait_ns = */ 10,
 200:..\..\..\u8g2\u8g2\csrc/u8x8_d_ssd1316.c ****   /* reset_pulse_width_ms = */ 100, 	/* reset time */
 201:..\..\..\u8g2\u8g2\csrc/u8x8_d_ssd1316.c ****   /* post_reset_wait_ms = */ 100, /* reset delay */
 202:..\..\..\u8g2\u8g2\csrc/u8x8_d_ssd1316.c ****   /* sda_setup_time_ns = */ 50,		/* SSD1306: 15ns, but cycle time is 100ns, so use 100/2 */
 203:..\..\..\u8g2\u8g2\csrc/u8x8_d_ssd1316.c ****   /* sck_pulse_width_ns = */ 50,	/* SSD1306: 20ns, but cycle time is 100ns, so use 100/2, AVR: belo
 204:..\..\..\u8g2\u8g2\csrc/u8x8_d_ssd1316.c ****   /* sck_clock_hz = */ 8000000UL,	/* since Arduino 1.6.0, the SPI bus speed in Hz. Should be  10000
 205:..\..\..\u8g2\u8g2\csrc/u8x8_d_ssd1316.c ****   /* spi_mode = */ 0,		/* active high, rising edge */
 206:..\..\..\u8g2\u8g2\csrc/u8x8_d_ssd1316.c ****   /* i2c_bus_clock_100kHz = */ 4,
 207:..\..\..\u8g2\u8g2\csrc/u8x8_d_ssd1316.c ****   /* data_setup_time_ns = */ 40,
 208:..\..\..\u8g2\u8g2\csrc/u8x8_d_ssd1316.c ****   /* write_pulse_width_ns = */ 150,	/* SSD1306: cycle time is 300ns, so use 300/2 = 150 */
 209:..\..\..\u8g2\u8g2\csrc/u8x8_d_ssd1316.c ****   /* tile_width = */ 16,
 210:..\..\..\u8g2\u8g2\csrc/u8x8_d_ssd1316.c ****   /* tile_hight = */ 4,
 211:..\..\..\u8g2\u8g2\csrc/u8x8_d_ssd1316.c ****   /* default_x_offset = */ 0,
 212:..\..\..\u8g2\u8g2\csrc/u8x8_d_ssd1316.c ****   /* flipmode_x_offset = */ 0,
 213:..\..\..\u8g2\u8g2\csrc/u8x8_d_ssd1316.c ****   /* pixel_width = */ 128,
 214:..\..\..\u8g2\u8g2\csrc/u8x8_d_ssd1316.c ****   /* pixel_height = */ 32
 215:..\..\..\u8g2\u8g2\csrc/u8x8_d_ssd1316.c **** };
 216:..\..\..\u8g2\u8g2\csrc/u8x8_d_ssd1316.c **** 
 217:..\..\..\u8g2\u8g2\csrc/u8x8_d_ssd1316.c **** uint8_t u8x8_d_ssd1316_128x32(u8x8_t *u8x8, uint8_t msg, uint8_t arg_int, void *arg_ptr)
 218:..\..\..\u8g2\u8g2\csrc/u8x8_d_ssd1316.c **** {
 200              		.loc 1 218 0
 201              		.cfi_startproc
 202              		@ args = 0, pretend = 0, frame = 0
 203              		@ frame_needed = 0, uses_anonymous_args = 0
 204              	.LVL28:
 205 0000 38B5     		push	{r3, r4, r5, lr}
 206              		.cfi_def_cfa_offset 16
 207              		.cfi_offset 3, -16
 208              		.cfi_offset 4, -12
 209              		.cfi_offset 5, -8
 210              		.cfi_offset 14, -4
 211              		.loc 1 218 0
 212 0002 0446     		mov	r4, r0
 213 0004 0D46     		mov	r5, r1
 219:..\..\..\u8g2\u8g2\csrc/u8x8_d_ssd1316.c ****     
 220:..\..\..\u8g2\u8g2\csrc/u8x8_d_ssd1316.c ****   if ( u8x8_d_ssd1316_generic(u8x8, msg, arg_int, arg_ptr) != 0 )
 214              		.loc 1 220 0
 215 0006 FFF7FEFF 		bl	u8x8_d_ssd1316_generic
 216              	.LVL29:
 217 000a 78B9     		cbnz	r0, .L24
 221:..\..\..\u8g2\u8g2\csrc/u8x8_d_ssd1316.c ****     return 1;
 222:..\..\..\u8g2\u8g2\csrc/u8x8_d_ssd1316.c ****   
 223:..\..\..\u8g2\u8g2\csrc/u8x8_d_ssd1316.c ****   switch(msg)
 218              		.loc 1 223 0
ARM GAS  C:\Users\jesse\AppData\Local\Temp\ccaDgWnX.s 			page 9


 219 000c 092D     		cmp	r5, #9
 220 000e 09D0     		beq	.L22
 221 0010 0A2D     		cmp	r5, #10
 222 0012 0CD1     		bne	.L21
 224:..\..\..\u8g2\u8g2\csrc/u8x8_d_ssd1316.c ****   {
 225:..\..\..\u8g2\u8g2\csrc/u8x8_d_ssd1316.c ****     case U8X8_MSG_DISPLAY_INIT:
 226:..\..\..\u8g2\u8g2\csrc/u8x8_d_ssd1316.c ****       u8x8_d_helper_display_init(u8x8);
 223              		.loc 1 226 0
 224 0014 2046     		mov	r0, r4
 225 0016 FFF7FEFF 		bl	u8x8_d_helper_display_init
 226              	.LVL30:
 227:..\..\..\u8g2\u8g2\csrc/u8x8_d_ssd1316.c ****       u8x8_cad_SendSequence(u8x8, u8x8_d_ssd1316_128x32_init_seq);    
 227              		.loc 1 227 0
 228 001a 0549     		ldr	r1, .L25
 229 001c 2046     		mov	r0, r4
 230 001e FFF7FEFF 		bl	u8x8_cad_SendSequence
 231              	.LVL31:
 232 0022 03E0     		b	.L24
 233              	.L22:
 228:..\..\..\u8g2\u8g2\csrc/u8x8_d_ssd1316.c ****       break;
 229:..\..\..\u8g2\u8g2\csrc/u8x8_d_ssd1316.c ****     case U8X8_MSG_DISPLAY_SETUP_MEMORY:
 230:..\..\..\u8g2\u8g2\csrc/u8x8_d_ssd1316.c ****       u8x8_d_helper_display_setup_memory(u8x8, &u8x8_ssd1316_128x32_display_info);
 234              		.loc 1 230 0
 235 0024 0349     		ldr	r1, .L25+4
 236 0026 2046     		mov	r0, r4
 237 0028 FFF7FEFF 		bl	u8x8_d_helper_display_setup_memory
 238              	.LVL32:
 239              	.L24:
 221:..\..\..\u8g2\u8g2\csrc/u8x8_d_ssd1316.c ****   
 240              		.loc 1 221 0
 241 002c 0120     		movs	r0, #1
 242              	.L21:
 231:..\..\..\u8g2\u8g2\csrc/u8x8_d_ssd1316.c ****       break;
 232:..\..\..\u8g2\u8g2\csrc/u8x8_d_ssd1316.c ****     default:
 233:..\..\..\u8g2\u8g2\csrc/u8x8_d_ssd1316.c ****       return 0;
 234:..\..\..\u8g2\u8g2\csrc/u8x8_d_ssd1316.c ****   }
 235:..\..\..\u8g2\u8g2\csrc/u8x8_d_ssd1316.c ****   return 1;
 236:..\..\..\u8g2\u8g2\csrc/u8x8_d_ssd1316.c **** }
 243              		.loc 1 236 0
 244 002e 38BD     		pop	{r3, r4, r5, pc}
 245              	.LVL33:
 246              	.L26:
 247              		.align	2
 248              	.L25:
 249 0030 18000000 		.word	.LANCHOR0+24
 250 0034 48000000 		.word	.LANCHOR0+72
 251              		.cfi_endproc
 252              	.LFE1:
 253              		.size	u8x8_d_ssd1316_128x32, .-u8x8_d_ssd1316_128x32
 254              		.section	.text.u8x8_d_ssd1316_96x32,"ax",%progbits
 255              		.align	1
 256              		.global	u8x8_d_ssd1316_96x32
 257              		.thumb
 258              		.thumb_func
 259              		.type	u8x8_d_ssd1316_96x32, %function
 260              	u8x8_d_ssd1316_96x32:
 261              	.LFB2:
ARM GAS  C:\Users\jesse\AppData\Local\Temp\ccaDgWnX.s 			page 10


 237:..\..\..\u8g2\u8g2\csrc/u8x8_d_ssd1316.c **** 
 238:..\..\..\u8g2\u8g2\csrc/u8x8_d_ssd1316.c **** 
 239:..\..\..\u8g2\u8g2\csrc/u8x8_d_ssd1316.c **** /*===================================================*/
 240:..\..\..\u8g2\u8g2\csrc/u8x8_d_ssd1316.c **** /*
 241:..\..\..\u8g2\u8g2\csrc/u8x8_d_ssd1316.c **** QG-9632TLBZG02
 242:..\..\..\u8g2\u8g2\csrc/u8x8_d_ssd1316.c **** https://datasheet.lcsc.com/lcsc/1804162033_Shenzhen-Allvision-Tech-QG-9632TLBZG02_C91216.pdf
 243:..\..\..\u8g2\u8g2\csrc/u8x8_d_ssd1316.c **** https://github.com/olikraus/u8g2/issues/1938
 244:..\..\..\u8g2\u8g2\csrc/u8x8_d_ssd1316.c **** 
 245:..\..\..\u8g2\u8g2\csrc/u8x8_d_ssd1316.c **** 96x32
 246:..\..\..\u8g2\u8g2\csrc/u8x8_d_ssd1316.c **** */
 247:..\..\..\u8g2\u8g2\csrc/u8x8_d_ssd1316.c **** 
 248:..\..\..\u8g2\u8g2\csrc/u8x8_d_ssd1316.c **** static const uint8_t u8x8_d_ssd1316_96x32_init_seq[] = {
 249:..\..\..\u8g2\u8g2\csrc/u8x8_d_ssd1316.c ****     
 250:..\..\..\u8g2\u8g2\csrc/u8x8_d_ssd1316.c ****   U8X8_START_TRANSFER(),             	/* enable chip, delay is part of the transfer start */
 251:..\..\..\u8g2\u8g2\csrc/u8x8_d_ssd1316.c ****   
 252:..\..\..\u8g2\u8g2\csrc/u8x8_d_ssd1316.c ****   
 253:..\..\..\u8g2\u8g2\csrc/u8x8_d_ssd1316.c ****   U8X8_C(0x0ae),		        /* display off */
 254:..\..\..\u8g2\u8g2\csrc/u8x8_d_ssd1316.c ****   U8X8_C(0x040),		        /* start line */
 255:..\..\..\u8g2\u8g2\csrc/u8x8_d_ssd1316.c ****   U8X8_CA(0x081, 0x045), 		/* QG-2832TSWZG02 datasheet: 0x081, 0x45 */
 256:..\..\..\u8g2\u8g2\csrc/u8x8_d_ssd1316.c ****                                                         /* QG-9632: 0x81, 0x60 */
 257:..\..\..\u8g2\u8g2\csrc/u8x8_d_ssd1316.c **** 
 258:..\..\..\u8g2\u8g2\csrc/u8x8_d_ssd1316.c ****   U8X8_C(0x0a6),			/* none inverted normal display mode */
 259:..\..\..\u8g2\u8g2\csrc/u8x8_d_ssd1316.c ****   U8X8_CA(0x0a8, 0x01f),		/* multiplex ratio, duty = 1/32 */
 260:..\..\..\u8g2\u8g2\csrc/u8x8_d_ssd1316.c **** 
 261:..\..\..\u8g2\u8g2\csrc/u8x8_d_ssd1316.c ****   U8X8_C(0x0a1),			/* segment remap a0/a1*/
 262:..\..\..\u8g2\u8g2\csrc/u8x8_d_ssd1316.c ****   U8X8_C(0x0c0),			/* c0: scan dir normal, c8: reverse */
 263:..\..\..\u8g2\u8g2\csrc/u8x8_d_ssd1316.c **** 
 264:..\..\..\u8g2\u8g2\csrc/u8x8_d_ssd1316.c ****   U8X8_CA(0x0d3, 0x000),		/* display offset */
 265:..\..\..\u8g2\u8g2\csrc/u8x8_d_ssd1316.c ****   U8X8_CA(0x0d5, 0x080),		/* clock divide ratio (0x00=1) and oscillator frequency (0x8) */
 266:..\..\..\u8g2\u8g2\csrc/u8x8_d_ssd1316.c ****   U8X8_CA(0x0d9, 0x022), 		/* [2] pre-charge period 0x022/f1*/
 267:..\..\..\u8g2\u8g2\csrc/u8x8_d_ssd1316.c ****   U8X8_CA(0x0da, 0x012),		/* com pin HW config, sequential com pin config (bit 4), disable left/rig
 268:..\..\..\u8g2\u8g2\csrc/u8x8_d_ssd1316.c ****   U8X8_CA(0x0db, 0x020), 		/* vcomh deselect level */  
 269:..\..\..\u8g2\u8g2\csrc/u8x8_d_ssd1316.c ****   U8X8_CA(0x08d, 0x015),		/* [2] charge pump setting (p62): 0x014 enable, 0x010 disable, */
 270:..\..\..\u8g2\u8g2\csrc/u8x8_d_ssd1316.c ****                                                         /* QG-9632: 0x8d, 0x10 */
 271:..\..\..\u8g2\u8g2\csrc/u8x8_d_ssd1316.c ****   
 272:..\..\..\u8g2\u8g2\csrc/u8x8_d_ssd1316.c ****   //U8X8_CA(0x0a2, 0x000),		/* set display start line to 0 */
 273:..\..\..\u8g2\u8g2\csrc/u8x8_d_ssd1316.c ****   //U8X8_CA(0x020, 0x000),		/* horizontal addressing mode */
 274:..\..\..\u8g2\u8g2\csrc/u8x8_d_ssd1316.c ****   
 275:..\..\..\u8g2\u8g2\csrc/u8x8_d_ssd1316.c ****   
 276:..\..\..\u8g2\u8g2\csrc/u8x8_d_ssd1316.c ****   // Flipmode
 277:..\..\..\u8g2\u8g2\csrc/u8x8_d_ssd1316.c ****   //U8X8_C(0x0a1),			/* segment remap a0/a1*/
 278:..\..\..\u8g2\u8g2\csrc/u8x8_d_ssd1316.c ****   //U8X8_C(0x0c0),			/* c0: scan dir normal, c8: reverse */
 279:..\..\..\u8g2\u8g2\csrc/u8x8_d_ssd1316.c ****   
 280:..\..\..\u8g2\u8g2\csrc/u8x8_d_ssd1316.c ****   U8X8_C(0x02e),			/* Deactivate scroll */ 
 281:..\..\..\u8g2\u8g2\csrc/u8x8_d_ssd1316.c ****   //U8X8_C(0x0a4),			/* output ram to display */
 282:..\..\..\u8g2\u8g2\csrc/u8x8_d_ssd1316.c ****     
 283:..\..\..\u8g2\u8g2\csrc/u8x8_d_ssd1316.c ****   U8X8_END_TRANSFER(),             	/* disable chip */
 284:..\..\..\u8g2\u8g2\csrc/u8x8_d_ssd1316.c ****   U8X8_END()           			/* end of sequence */
 285:..\..\..\u8g2\u8g2\csrc/u8x8_d_ssd1316.c **** };
 286:..\..\..\u8g2\u8g2\csrc/u8x8_d_ssd1316.c **** 
 287:..\..\..\u8g2\u8g2\csrc/u8x8_d_ssd1316.c **** 
 288:..\..\..\u8g2\u8g2\csrc/u8x8_d_ssd1316.c **** static const u8x8_display_info_t u8x8_ssd1316_96x32_display_info =
 289:..\..\..\u8g2\u8g2\csrc/u8x8_d_ssd1316.c **** {
 290:..\..\..\u8g2\u8g2\csrc/u8x8_d_ssd1316.c ****   /* chip_enable_level = */ 0,
 291:..\..\..\u8g2\u8g2\csrc/u8x8_d_ssd1316.c ****   /* chip_disable_level = */ 1,
 292:..\..\..\u8g2\u8g2\csrc/u8x8_d_ssd1316.c ****   
 293:..\..\..\u8g2\u8g2\csrc/u8x8_d_ssd1316.c ****   /* post_chip_enable_wait_ns = */ 20,
ARM GAS  C:\Users\jesse\AppData\Local\Temp\ccaDgWnX.s 			page 11


 294:..\..\..\u8g2\u8g2\csrc/u8x8_d_ssd1316.c ****   /* pre_chip_disable_wait_ns = */ 10,
 295:..\..\..\u8g2\u8g2\csrc/u8x8_d_ssd1316.c ****   /* reset_pulse_width_ms = */ 100, 	/* reset time */
 296:..\..\..\u8g2\u8g2\csrc/u8x8_d_ssd1316.c ****   /* post_reset_wait_ms = */ 100, /* reset delay */
 297:..\..\..\u8g2\u8g2\csrc/u8x8_d_ssd1316.c ****   /* sda_setup_time_ns = */ 50,		/* SSD1306: 15ns, but cycle time is 100ns, so use 100/2 */
 298:..\..\..\u8g2\u8g2\csrc/u8x8_d_ssd1316.c ****   /* sck_pulse_width_ns = */ 50,	/* SSD1306: 20ns, but cycle time is 100ns, so use 100/2, AVR: belo
 299:..\..\..\u8g2\u8g2\csrc/u8x8_d_ssd1316.c ****   /* sck_clock_hz = */ 8000000UL,	/* since Arduino 1.6.0, the SPI bus speed in Hz. Should be  10000
 300:..\..\..\u8g2\u8g2\csrc/u8x8_d_ssd1316.c ****   /* spi_mode = */ 0,		/* active high, rising edge */
 301:..\..\..\u8g2\u8g2\csrc/u8x8_d_ssd1316.c ****   /* i2c_bus_clock_100kHz = */ 4,
 302:..\..\..\u8g2\u8g2\csrc/u8x8_d_ssd1316.c ****   /* data_setup_time_ns = */ 40,
 303:..\..\..\u8g2\u8g2\csrc/u8x8_d_ssd1316.c ****   /* write_pulse_width_ns = */ 150,	/* SSD1306: cycle time is 300ns, so use 300/2 = 150 */
 304:..\..\..\u8g2\u8g2\csrc/u8x8_d_ssd1316.c ****   /* tile_width = */ 12,
 305:..\..\..\u8g2\u8g2\csrc/u8x8_d_ssd1316.c ****   /* tile_hight = */ 4,
 306:..\..\..\u8g2\u8g2\csrc/u8x8_d_ssd1316.c ****   /* default_x_offset = */ 0,
 307:..\..\..\u8g2\u8g2\csrc/u8x8_d_ssd1316.c ****   /* flipmode_x_offset = */ 0,
 308:..\..\..\u8g2\u8g2\csrc/u8x8_d_ssd1316.c ****   /* pixel_width = */ 96,
 309:..\..\..\u8g2\u8g2\csrc/u8x8_d_ssd1316.c ****   /* pixel_height = */ 32
 310:..\..\..\u8g2\u8g2\csrc/u8x8_d_ssd1316.c **** };
 311:..\..\..\u8g2\u8g2\csrc/u8x8_d_ssd1316.c **** 
 312:..\..\..\u8g2\u8g2\csrc/u8x8_d_ssd1316.c **** uint8_t u8x8_d_ssd1316_96x32(u8x8_t *u8x8, uint8_t msg, uint8_t arg_int, void *arg_ptr)
 313:..\..\..\u8g2\u8g2\csrc/u8x8_d_ssd1316.c **** {
 262              		.loc 1 313 0
 263              		.cfi_startproc
 264              		@ args = 0, pretend = 0, frame = 0
 265              		@ frame_needed = 0, uses_anonymous_args = 0
 266              	.LVL34:
 267 0000 38B5     		push	{r3, r4, r5, lr}
 268              		.cfi_def_cfa_offset 16
 269              		.cfi_offset 3, -16
 270              		.cfi_offset 4, -12
 271              		.cfi_offset 5, -8
 272              		.cfi_offset 14, -4
 273              		.loc 1 313 0
 274 0002 0446     		mov	r4, r0
 275 0004 0D46     		mov	r5, r1
 314:..\..\..\u8g2\u8g2\csrc/u8x8_d_ssd1316.c ****     
 315:..\..\..\u8g2\u8g2\csrc/u8x8_d_ssd1316.c ****   if ( u8x8_d_ssd1316_generic(u8x8, msg, arg_int, arg_ptr) != 0 )
 276              		.loc 1 315 0
 277 0006 FFF7FEFF 		bl	u8x8_d_ssd1316_generic
 278              	.LVL35:
 279 000a 78B9     		cbnz	r0, .L31
 316:..\..\..\u8g2\u8g2\csrc/u8x8_d_ssd1316.c ****     return 1;
 317:..\..\..\u8g2\u8g2\csrc/u8x8_d_ssd1316.c ****   
 318:..\..\..\u8g2\u8g2\csrc/u8x8_d_ssd1316.c ****   switch(msg)
 280              		.loc 1 318 0
 281 000c 092D     		cmp	r5, #9
 282 000e 09D0     		beq	.L29
 283 0010 0A2D     		cmp	r5, #10
 284 0012 0CD1     		bne	.L28
 319:..\..\..\u8g2\u8g2\csrc/u8x8_d_ssd1316.c ****   {
 320:..\..\..\u8g2\u8g2\csrc/u8x8_d_ssd1316.c ****     case U8X8_MSG_DISPLAY_INIT:
 321:..\..\..\u8g2\u8g2\csrc/u8x8_d_ssd1316.c ****       u8x8_d_helper_display_init(u8x8);
 285              		.loc 1 321 0
 286 0014 2046     		mov	r0, r4
 287 0016 FFF7FEFF 		bl	u8x8_d_helper_display_init
 288              	.LVL36:
 322:..\..\..\u8g2\u8g2\csrc/u8x8_d_ssd1316.c ****       u8x8_cad_SendSequence(u8x8, u8x8_d_ssd1316_96x32_init_seq);    
 289              		.loc 1 322 0
ARM GAS  C:\Users\jesse\AppData\Local\Temp\ccaDgWnX.s 			page 12


 290 001a 0549     		ldr	r1, .L32
 291 001c 2046     		mov	r0, r4
 292 001e FFF7FEFF 		bl	u8x8_cad_SendSequence
 293              	.LVL37:
 294 0022 03E0     		b	.L31
 295              	.L29:
 323:..\..\..\u8g2\u8g2\csrc/u8x8_d_ssd1316.c ****       break;
 324:..\..\..\u8g2\u8g2\csrc/u8x8_d_ssd1316.c ****     case U8X8_MSG_DISPLAY_SETUP_MEMORY:
 325:..\..\..\u8g2\u8g2\csrc/u8x8_d_ssd1316.c ****       u8x8_d_helper_display_setup_memory(u8x8, &u8x8_ssd1316_96x32_display_info);
 296              		.loc 1 325 0
 297 0024 0349     		ldr	r1, .L32+4
 298 0026 2046     		mov	r0, r4
 299 0028 FFF7FEFF 		bl	u8x8_d_helper_display_setup_memory
 300              	.LVL38:
 301              	.L31:
 316:..\..\..\u8g2\u8g2\csrc/u8x8_d_ssd1316.c ****   
 302              		.loc 1 316 0
 303 002c 0120     		movs	r0, #1
 304              	.L28:
 326:..\..\..\u8g2\u8g2\csrc/u8x8_d_ssd1316.c ****       break;
 327:..\..\..\u8g2\u8g2\csrc/u8x8_d_ssd1316.c ****     default:
 328:..\..\..\u8g2\u8g2\csrc/u8x8_d_ssd1316.c ****       return 0;
 329:..\..\..\u8g2\u8g2\csrc/u8x8_d_ssd1316.c ****   }
 330:..\..\..\u8g2\u8g2\csrc/u8x8_d_ssd1316.c ****   return 1;
 331:..\..\..\u8g2\u8g2\csrc/u8x8_d_ssd1316.c **** }
 305              		.loc 1 331 0
 306 002e 38BD     		pop	{r3, r4, r5, pc}
 307              	.LVL39:
 308              	.L33:
 309              		.align	2
 310              	.L32:
 311 0030 60000000 		.word	.LANCHOR0+96
 312 0034 90000000 		.word	.LANCHOR0+144
 313              		.cfi_endproc
 314              	.LFE2:
 315              		.size	u8x8_d_ssd1316_96x32, .-u8x8_d_ssd1316_96x32
 316              		.section	.rodata
 317              		.align	2
 318              		.set	.LANCHOR0,. + 0
 319              		.type	u8x8_d_ssd1316_128x32_powersave0_seq, %object
 320              		.size	u8x8_d_ssd1316_128x32_powersave0_seq, 5
 321              	u8x8_d_ssd1316_128x32_powersave0_seq:
 322 0000 18       		.byte	24
 323 0001 15       		.byte	21
 324 0002 AF       		.byte	-81
 325 0003 19       		.byte	25
 326 0004 FF       		.byte	-1
 327              		.type	u8x8_d_ssd1316_128x32_powersave1_seq, %object
 328              		.size	u8x8_d_ssd1316_128x32_powersave1_seq, 5
 329              	u8x8_d_ssd1316_128x32_powersave1_seq:
 330 0005 18       		.byte	24
 331 0006 15       		.byte	21
 332 0007 AE       		.byte	-82
 333 0008 19       		.byte	25
 334 0009 FF       		.byte	-1
 335              		.type	u8x8_d_ssd1316_128x32_flip0_seq, %object
 336              		.size	u8x8_d_ssd1316_128x32_flip0_seq, 7
ARM GAS  C:\Users\jesse\AppData\Local\Temp\ccaDgWnX.s 			page 13


 337              	u8x8_d_ssd1316_128x32_flip0_seq:
 338 000a 18       		.byte	24
 339 000b 15       		.byte	21
 340 000c A1       		.byte	-95
 341 000d 15       		.byte	21
 342 000e C0       		.byte	-64
 343 000f 19       		.byte	25
 344 0010 FF       		.byte	-1
 345              		.type	u8x8_d_ssd1316_128x32_flip1_seq, %object
 346              		.size	u8x8_d_ssd1316_128x32_flip1_seq, 7
 347              	u8x8_d_ssd1316_128x32_flip1_seq:
 348 0011 18       		.byte	24
 349 0012 15       		.byte	21
 350 0013 A0       		.byte	-96
 351 0014 15       		.byte	21
 352 0015 C8       		.byte	-56
 353 0016 19       		.byte	25
 354 0017 FF       		.byte	-1
 355              		.type	u8x8_d_ssd1316_128x32_init_seq, %object
 356              		.size	u8x8_d_ssd1316_128x32_init_seq, 47
 357              	u8x8_d_ssd1316_128x32_init_seq:
 358 0018 18       		.byte	24
 359 0019 15       		.byte	21
 360 001a AE       		.byte	-82
 361 001b 15       		.byte	21
 362 001c 40       		.byte	64
 363 001d 15       		.byte	21
 364 001e 81       		.byte	-127
 365 001f 16       		.byte	22
 366 0020 45       		.byte	69
 367 0021 15       		.byte	21
 368 0022 A6       		.byte	-90
 369 0023 15       		.byte	21
 370 0024 A8       		.byte	-88
 371 0025 16       		.byte	22
 372 0026 1F       		.byte	31
 373 0027 15       		.byte	21
 374 0028 A1       		.byte	-95
 375 0029 15       		.byte	21
 376 002a C0       		.byte	-64
 377 002b 15       		.byte	21
 378 002c D3       		.byte	-45
 379 002d 16       		.byte	22
 380 002e 00       		.byte	0
 381 002f 15       		.byte	21
 382 0030 D5       		.byte	-43
 383 0031 16       		.byte	22
 384 0032 80       		.byte	-128
 385 0033 15       		.byte	21
 386 0034 D9       		.byte	-39
 387 0035 16       		.byte	22
 388 0036 22       		.byte	34
 389 0037 15       		.byte	21
 390 0038 DA       		.byte	-38
 391 0039 16       		.byte	22
 392 003a 12       		.byte	18
 393 003b 15       		.byte	21
ARM GAS  C:\Users\jesse\AppData\Local\Temp\ccaDgWnX.s 			page 14


 394 003c DB       		.byte	-37
 395 003d 16       		.byte	22
 396 003e 20       		.byte	32
 397 003f 15       		.byte	21
 398 0040 8D       		.byte	-115
 399 0041 16       		.byte	22
 400 0042 15       		.byte	21
 401 0043 15       		.byte	21
 402 0044 2E       		.byte	46
 403 0045 19       		.byte	25
 404 0046 FF       		.byte	-1
 405 0047 00       		.space	1
 406              		.type	u8x8_ssd1316_128x32_display_info, %object
 407              		.size	u8x8_ssd1316_128x32_display_info, 24
 408              	u8x8_ssd1316_128x32_display_info:
 409 0048 00       		.byte	0
 410 0049 01       		.byte	1
 411 004a 14       		.byte	20
 412 004b 0A       		.byte	10
 413 004c 64       		.byte	100
 414 004d 64       		.byte	100
 415 004e 32       		.byte	50
 416 004f 32       		.byte	50
 417 0050 00127A00 		.word	8000000
 418 0054 00       		.byte	0
 419 0055 04       		.byte	4
 420 0056 28       		.byte	40
 421 0057 96       		.byte	-106
 422 0058 10       		.byte	16
 423 0059 04       		.byte	4
 424 005a 00       		.byte	0
 425 005b 00       		.byte	0
 426 005c 8000     		.short	128
 427 005e 2000     		.short	32
 428              		.type	u8x8_d_ssd1316_96x32_init_seq, %object
 429              		.size	u8x8_d_ssd1316_96x32_init_seq, 47
 430              	u8x8_d_ssd1316_96x32_init_seq:
 431 0060 18       		.byte	24
 432 0061 15       		.byte	21
 433 0062 AE       		.byte	-82
 434 0063 15       		.byte	21
 435 0064 40       		.byte	64
 436 0065 15       		.byte	21
 437 0066 81       		.byte	-127
 438 0067 16       		.byte	22
 439 0068 45       		.byte	69
 440 0069 15       		.byte	21
 441 006a A6       		.byte	-90
 442 006b 15       		.byte	21
 443 006c A8       		.byte	-88
 444 006d 16       		.byte	22
 445 006e 1F       		.byte	31
 446 006f 15       		.byte	21
 447 0070 A1       		.byte	-95
 448 0071 15       		.byte	21
 449 0072 C0       		.byte	-64
 450 0073 15       		.byte	21
ARM GAS  C:\Users\jesse\AppData\Local\Temp\ccaDgWnX.s 			page 15


 451 0074 D3       		.byte	-45
 452 0075 16       		.byte	22
 453 0076 00       		.byte	0
 454 0077 15       		.byte	21
 455 0078 D5       		.byte	-43
 456 0079 16       		.byte	22
 457 007a 80       		.byte	-128
 458 007b 15       		.byte	21
 459 007c D9       		.byte	-39
 460 007d 16       		.byte	22
 461 007e 22       		.byte	34
 462 007f 15       		.byte	21
 463 0080 DA       		.byte	-38
 464 0081 16       		.byte	22
 465 0082 12       		.byte	18
 466 0083 15       		.byte	21
 467 0084 DB       		.byte	-37
 468 0085 16       		.byte	22
 469 0086 20       		.byte	32
 470 0087 15       		.byte	21
 471 0088 8D       		.byte	-115
 472 0089 16       		.byte	22
 473 008a 15       		.byte	21
 474 008b 15       		.byte	21
 475 008c 2E       		.byte	46
 476 008d 19       		.byte	25
 477 008e FF       		.byte	-1
 478 008f 00       		.space	1
 479              		.type	u8x8_ssd1316_96x32_display_info, %object
 480              		.size	u8x8_ssd1316_96x32_display_info, 24
 481              	u8x8_ssd1316_96x32_display_info:
 482 0090 00       		.byte	0
 483 0091 01       		.byte	1
 484 0092 14       		.byte	20
 485 0093 0A       		.byte	10
 486 0094 64       		.byte	100
 487 0095 64       		.byte	100
 488 0096 32       		.byte	50
 489 0097 32       		.byte	50
 490 0098 00127A00 		.word	8000000
 491 009c 00       		.byte	0
 492 009d 04       		.byte	4
 493 009e 28       		.byte	40
 494 009f 96       		.byte	-106
 495 00a0 0C       		.byte	12
 496 00a1 04       		.byte	4
 497 00a2 00       		.byte	0
 498 00a3 00       		.byte	0
 499 00a4 6000     		.short	96
 500 00a6 2000     		.short	32
 501              		.text
 502              	.Letext0:
 503              		.file 2 "c:\\program files (x86)\\cypress\\psoc creator\\4.4\\psoc creator\\import\\gnu\\arm\\5.4.
 504              		.file 3 "c:\\program files (x86)\\cypress\\psoc creator\\4.4\\psoc creator\\import\\gnu\\arm\\5.4.
 505              		.file 4 "..\\..\\..\\u8g2\\u8g2\\csrc\\u8x8.h"