ARM GAS  C:\Users\jesse\AppData\Local\Temp\ccAO3Rgf.s 			page 1


   1              		.syntax unified
   2              		.cpu cortex-m3
   3              		.fpu softvfp
   4              		.eabi_attribute 20, 1
   5              		.eabi_attribute 21, 1
   6              		.eabi_attribute 23, 3
   7              		.eabi_attribute 24, 1
   8              		.eabi_attribute 25, 1
   9              		.eabi_attribute 26, 1
  10              		.eabi_attribute 30, 4
  11              		.eabi_attribute 34, 1
  12              		.eabi_attribute 18, 4
  13              		.thumb
  14              		.syntax unified
  15              		.file	"u8x8_d_ssd1306_64x48.c"
  16              		.text
  17              	.Ltext0:
  18              		.cfi_sections	.debug_frame
  19              		.section	.text.u8x8_d_ssd1306_64x48_er,"ax",%progbits
  20              		.align	1
  21              		.global	u8x8_d_ssd1306_64x48_er
  22              		.thumb
  23              		.thumb_func
  24              		.type	u8x8_d_ssd1306_64x48_er, %function
  25              	u8x8_d_ssd1306_64x48_er:
  26              	.LFB1:
  27              		.file 1 "..\\..\\..\\u8g2\\u8g2\\csrc\\u8x8_d_ssd1306_64x48.c"
   1:..\..\..\u8g2\u8g2\csrc/u8x8_d_ssd1306_64x48.c **** /*
   2:..\..\..\u8g2\u8g2\csrc/u8x8_d_ssd1306_64x48.c **** 
   3:..\..\..\u8g2\u8g2\csrc/u8x8_d_ssd1306_64x48.c ****   u8x8_d_ssd1306_64x48.c
   4:..\..\..\u8g2\u8g2\csrc/u8x8_d_ssd1306_64x48.c **** 
   5:..\..\..\u8g2\u8g2\csrc/u8x8_d_ssd1306_64x48.c ****   Universal 8bit Graphics Library (https://github.com/olikraus/u8g2/)
   6:..\..\..\u8g2\u8g2\csrc/u8x8_d_ssd1306_64x48.c **** 
   7:..\..\..\u8g2\u8g2\csrc/u8x8_d_ssd1306_64x48.c ****   Copyright (c) 2016, olikraus@gmail.com
   8:..\..\..\u8g2\u8g2\csrc/u8x8_d_ssd1306_64x48.c ****   All rights reserved.
   9:..\..\..\u8g2\u8g2\csrc/u8x8_d_ssd1306_64x48.c **** 
  10:..\..\..\u8g2\u8g2\csrc/u8x8_d_ssd1306_64x48.c ****   Redistribution and use in source and binary forms, with or without modification, 
  11:..\..\..\u8g2\u8g2\csrc/u8x8_d_ssd1306_64x48.c ****   are permitted provided that the following conditions are met:
  12:..\..\..\u8g2\u8g2\csrc/u8x8_d_ssd1306_64x48.c **** 
  13:..\..\..\u8g2\u8g2\csrc/u8x8_d_ssd1306_64x48.c ****   * Redistributions of source code must retain the above copyright notice, this list 
  14:..\..\..\u8g2\u8g2\csrc/u8x8_d_ssd1306_64x48.c ****     of conditions and the following disclaimer.
  15:..\..\..\u8g2\u8g2\csrc/u8x8_d_ssd1306_64x48.c ****     
  16:..\..\..\u8g2\u8g2\csrc/u8x8_d_ssd1306_64x48.c ****   * Redistributions in binary form must reproduce the above copyright notice, this 
  17:..\..\..\u8g2\u8g2\csrc/u8x8_d_ssd1306_64x48.c ****     list of conditions and the following disclaimer in the documentation and/or other 
  18:..\..\..\u8g2\u8g2\csrc/u8x8_d_ssd1306_64x48.c ****     materials provided with the distribution.
  19:..\..\..\u8g2\u8g2\csrc/u8x8_d_ssd1306_64x48.c **** 
  20:..\..\..\u8g2\u8g2\csrc/u8x8_d_ssd1306_64x48.c ****   THIS SOFTWARE IS PROVIDED BY THE COPYRIGHT HOLDERS AND 
  21:..\..\..\u8g2\u8g2\csrc/u8x8_d_ssd1306_64x48.c ****   CONTRIBUTORS "AS IS" AND ANY EXPRESS OR IMPLIED WARRANTIES, 
  22:..\..\..\u8g2\u8g2\csrc/u8x8_d_ssd1306_64x48.c ****   INCLUDING, BUT NOT LIMITED TO, THE IMPLIED WARRANTIES OF 
  23:..\..\..\u8g2\u8g2\csrc/u8x8_d_ssd1306_64x48.c ****   MERCHANTABILITY AND FITNESS FOR A PARTICULAR PURPOSE ARE 
  24:..\..\..\u8g2\u8g2\csrc/u8x8_d_ssd1306_64x48.c ****   DISCLAIMED. IN NO EVENT SHALL THE COPYRIGHT HOLDER OR 
  25:..\..\..\u8g2\u8g2\csrc/u8x8_d_ssd1306_64x48.c ****   CONTRIBUTORS BE LIABLE FOR ANY DIRECT, INDIRECT, INCIDENTAL, 
  26:..\..\..\u8g2\u8g2\csrc/u8x8_d_ssd1306_64x48.c ****   SPECIAL, EXEMPLARY, OR CONSEQUENTIAL DAMAGES (INCLUDING, BUT 
  27:..\..\..\u8g2\u8g2\csrc/u8x8_d_ssd1306_64x48.c ****   NOT LIMITED TO, PROCUREMENT OF SUBSTITUTE GOODS OR SERVICES; 
  28:..\..\..\u8g2\u8g2\csrc/u8x8_d_ssd1306_64x48.c ****   LOSS OF USE, DATA, OR PROFITS; OR BUSINESS INTERRUPTION) HOWEVER 
  29:..\..\..\u8g2\u8g2\csrc/u8x8_d_ssd1306_64x48.c ****   CAUSED AND ON ANY THEORY OF LIABILITY, WHETHER IN CONTRACT, 
  30:..\..\..\u8g2\u8g2\csrc/u8x8_d_ssd1306_64x48.c ****   STRICT LIABILITY, OR TORT (INCLUDING NEGLIGENCE OR OTHERWISE) 
ARM GAS  C:\Users\jesse\AppData\Local\Temp\ccAO3Rgf.s 			page 2


  31:..\..\..\u8g2\u8g2\csrc/u8x8_d_ssd1306_64x48.c ****   ARISING IN ANY WAY OUT OF THE USE OF THIS SOFTWARE, EVEN IF 
  32:..\..\..\u8g2\u8g2\csrc/u8x8_d_ssd1306_64x48.c ****   ADVISED OF THE POSSIBILITY OF SUCH DAMAGE.  
  33:..\..\..\u8g2\u8g2\csrc/u8x8_d_ssd1306_64x48.c ****   
  34:..\..\..\u8g2\u8g2\csrc/u8x8_d_ssd1306_64x48.c **** */
  35:..\..\..\u8g2\u8g2\csrc/u8x8_d_ssd1306_64x48.c **** 
  36:..\..\..\u8g2\u8g2\csrc/u8x8_d_ssd1306_64x48.c **** 
  37:..\..\..\u8g2\u8g2\csrc/u8x8_d_ssd1306_64x48.c **** #include "u8x8.h"
  38:..\..\..\u8g2\u8g2\csrc/u8x8_d_ssd1306_64x48.c **** 
  39:..\..\..\u8g2\u8g2\csrc/u8x8_d_ssd1306_64x48.c **** 
  40:..\..\..\u8g2\u8g2\csrc/u8x8_d_ssd1306_64x48.c **** 
  41:..\..\..\u8g2\u8g2\csrc/u8x8_d_ssd1306_64x48.c **** /* EastRising 0.66 OLED */
  42:..\..\..\u8g2\u8g2\csrc/u8x8_d_ssd1306_64x48.c **** static const uint8_t u8x8_d_ssd1306_64x48_er_init_seq[] = {
  43:..\..\..\u8g2\u8g2\csrc/u8x8_d_ssd1306_64x48.c ****     
  44:..\..\..\u8g2\u8g2\csrc/u8x8_d_ssd1306_64x48.c ****   U8X8_START_TRANSFER(),             	/* enable chip, delay is part of the transfer start */
  45:..\..\..\u8g2\u8g2\csrc/u8x8_d_ssd1306_64x48.c ****   
  46:..\..\..\u8g2\u8g2\csrc/u8x8_d_ssd1306_64x48.c ****   
  47:..\..\..\u8g2\u8g2\csrc/u8x8_d_ssd1306_64x48.c ****   U8X8_C(0x0ae),		                /* display off */
  48:..\..\..\u8g2\u8g2\csrc/u8x8_d_ssd1306_64x48.c ****   U8X8_CA(0x0d5, 0x080),		/* clock divide ratio (0x00=1) and oscillator frequency (0x8) */
  49:..\..\..\u8g2\u8g2\csrc/u8x8_d_ssd1306_64x48.c ****   U8X8_CA(0x0a8, 0x02f),		/* multiplex ratio, 0.66 OLED: changed from 0x1f to 0x2f */
  50:..\..\..\u8g2\u8g2\csrc/u8x8_d_ssd1306_64x48.c ****   U8X8_CA(0x0d3, 0x000),		/* display offset, 0.66 OLED  */
  51:..\..\..\u8g2\u8g2\csrc/u8x8_d_ssd1306_64x48.c ****   U8X8_C(0x040),		                /* set display start line to 0, 0.66 OLED */
  52:..\..\..\u8g2\u8g2\csrc/u8x8_d_ssd1306_64x48.c ****   U8X8_CA(0x08d, 0x014),		/* [2] charge pump setting (p62): 0x014 enable, 0x010 disable, 0.66 OLED 
  53:..\..\..\u8g2\u8g2\csrc/u8x8_d_ssd1306_64x48.c ****   U8X8_CA(0x020, 0x000),		/* horizontal addressing mode */
  54:..\..\..\u8g2\u8g2\csrc/u8x8_d_ssd1306_64x48.c ****   
  55:..\..\..\u8g2\u8g2\csrc/u8x8_d_ssd1306_64x48.c ****   U8X8_C(0x0a1),				/* segment remap a0/a1, 0.66 OLED  */
  56:..\..\..\u8g2\u8g2\csrc/u8x8_d_ssd1306_64x48.c ****   U8X8_C(0x0c8),				/* c0: scan dir normal, c8: reverse, 0.66 OLED  */
  57:..\..\..\u8g2\u8g2\csrc/u8x8_d_ssd1306_64x48.c ****   // Flipmode
  58:..\..\..\u8g2\u8g2\csrc/u8x8_d_ssd1306_64x48.c ****   // U8X8_C(0x0a0),				/* segment remap a0/a1*/
  59:..\..\..\u8g2\u8g2\csrc/u8x8_d_ssd1306_64x48.c ****   // U8X8_C(0x0c0),				/* c0: scan dir normal, c8: reverse */
  60:..\..\..\u8g2\u8g2\csrc/u8x8_d_ssd1306_64x48.c ****   
  61:..\..\..\u8g2\u8g2\csrc/u8x8_d_ssd1306_64x48.c ****   U8X8_CA(0x0da, 0x012),		/* com pin HW config, sequential com pin config (bit 4), disable left/rig
  62:..\..\..\u8g2\u8g2\csrc/u8x8_d_ssd1306_64x48.c ****   U8X8_CA(0x081, 0x0cf),		/* [2] set contrast control, 0.66 OLED datasheet: 0xcf */
  63:..\..\..\u8g2\u8g2\csrc/u8x8_d_ssd1306_64x48.c ****   U8X8_CA(0x0d9, 0x022),		/* [2] pre-charge period 0x022/f1, 0.66 OLED datasheet: 0x22 */
  64:..\..\..\u8g2\u8g2\csrc/u8x8_d_ssd1306_64x48.c ****   U8X8_CA(0x0db, 0x000),		/* vcomh deselect level, 0.66 OLED datasheet: 0x00 */
  65:..\..\..\u8g2\u8g2\csrc/u8x8_d_ssd1306_64x48.c ****   
  66:..\..\..\u8g2\u8g2\csrc/u8x8_d_ssd1306_64x48.c ****   U8X8_C(0x02e),				/* Deactivate scroll */ 
  67:..\..\..\u8g2\u8g2\csrc/u8x8_d_ssd1306_64x48.c ****   U8X8_C(0x0a4),				/* output ram to display */
  68:..\..\..\u8g2\u8g2\csrc/u8x8_d_ssd1306_64x48.c ****   U8X8_C(0x0a6),				/* none inverted normal display mode */
  69:..\..\..\u8g2\u8g2\csrc/u8x8_d_ssd1306_64x48.c ****     
  70:..\..\..\u8g2\u8g2\csrc/u8x8_d_ssd1306_64x48.c ****   U8X8_END_TRANSFER(),             	/* disable chip */
  71:..\..\..\u8g2\u8g2\csrc/u8x8_d_ssd1306_64x48.c ****   U8X8_END()             			/* end of sequence */
  72:..\..\..\u8g2\u8g2\csrc/u8x8_d_ssd1306_64x48.c **** };
  73:..\..\..\u8g2\u8g2\csrc/u8x8_d_ssd1306_64x48.c **** 
  74:..\..\..\u8g2\u8g2\csrc/u8x8_d_ssd1306_64x48.c **** static const uint8_t u8x8_d_ssd1306_64x48_powersave0_seq[] = {
  75:..\..\..\u8g2\u8g2\csrc/u8x8_d_ssd1306_64x48.c ****   U8X8_START_TRANSFER(),             	/* enable chip, delay is part of the transfer start */
  76:..\..\..\u8g2\u8g2\csrc/u8x8_d_ssd1306_64x48.c ****   U8X8_C(0x0af),		                /* display on */
  77:..\..\..\u8g2\u8g2\csrc/u8x8_d_ssd1306_64x48.c ****   U8X8_END_TRANSFER(),             	/* disable chip */
  78:..\..\..\u8g2\u8g2\csrc/u8x8_d_ssd1306_64x48.c ****   U8X8_END()             			/* end of sequence */
  79:..\..\..\u8g2\u8g2\csrc/u8x8_d_ssd1306_64x48.c **** };
  80:..\..\..\u8g2\u8g2\csrc/u8x8_d_ssd1306_64x48.c **** 
  81:..\..\..\u8g2\u8g2\csrc/u8x8_d_ssd1306_64x48.c **** static const uint8_t u8x8_d_ssd1306_64x48_powersave1_seq[] = {
  82:..\..\..\u8g2\u8g2\csrc/u8x8_d_ssd1306_64x48.c ****   U8X8_START_TRANSFER(),             	/* enable chip, delay is part of the transfer start */
  83:..\..\..\u8g2\u8g2\csrc/u8x8_d_ssd1306_64x48.c ****   U8X8_C(0x0ae),		                /* display off */
  84:..\..\..\u8g2\u8g2\csrc/u8x8_d_ssd1306_64x48.c ****   U8X8_END_TRANSFER(),             	/* disable chip */
  85:..\..\..\u8g2\u8g2\csrc/u8x8_d_ssd1306_64x48.c ****   U8X8_END()             			/* end of sequence */
  86:..\..\..\u8g2\u8g2\csrc/u8x8_d_ssd1306_64x48.c **** };
  87:..\..\..\u8g2\u8g2\csrc/u8x8_d_ssd1306_64x48.c **** 
ARM GAS  C:\Users\jesse\AppData\Local\Temp\ccAO3Rgf.s 			page 3


  88:..\..\..\u8g2\u8g2\csrc/u8x8_d_ssd1306_64x48.c **** static const uint8_t u8x8_d_ssd1306_64x48_flip0_seq[] = {
  89:..\..\..\u8g2\u8g2\csrc/u8x8_d_ssd1306_64x48.c ****   U8X8_START_TRANSFER(),             	/* enable chip, delay is part of the transfer start */
  90:..\..\..\u8g2\u8g2\csrc/u8x8_d_ssd1306_64x48.c ****   U8X8_C(0x0a1),				/* segment remap a0/a1*/
  91:..\..\..\u8g2\u8g2\csrc/u8x8_d_ssd1306_64x48.c ****   U8X8_C(0x0c8),				/* c0: scan dir normal, c8: reverse */
  92:..\..\..\u8g2\u8g2\csrc/u8x8_d_ssd1306_64x48.c ****   U8X8_END_TRANSFER(),             	/* disable chip */
  93:..\..\..\u8g2\u8g2\csrc/u8x8_d_ssd1306_64x48.c ****   U8X8_END()             			/* end of sequence */
  94:..\..\..\u8g2\u8g2\csrc/u8x8_d_ssd1306_64x48.c **** };
  95:..\..\..\u8g2\u8g2\csrc/u8x8_d_ssd1306_64x48.c **** 
  96:..\..\..\u8g2\u8g2\csrc/u8x8_d_ssd1306_64x48.c **** static const uint8_t u8x8_d_ssd1306_64x48_flip1_seq[] = {
  97:..\..\..\u8g2\u8g2\csrc/u8x8_d_ssd1306_64x48.c ****   U8X8_START_TRANSFER(),             	/* enable chip, delay is part of the transfer start */
  98:..\..\..\u8g2\u8g2\csrc/u8x8_d_ssd1306_64x48.c ****   U8X8_C(0x0a0),				/* segment remap a0/a1*/
  99:..\..\..\u8g2\u8g2\csrc/u8x8_d_ssd1306_64x48.c ****   U8X8_C(0x0c0),				/* c0: scan dir normal, c8: reverse */
 100:..\..\..\u8g2\u8g2\csrc/u8x8_d_ssd1306_64x48.c ****   U8X8_END_TRANSFER(),             	/* disable chip */
 101:..\..\..\u8g2\u8g2\csrc/u8x8_d_ssd1306_64x48.c ****   U8X8_END()             			/* end of sequence */
 102:..\..\..\u8g2\u8g2\csrc/u8x8_d_ssd1306_64x48.c **** };
 103:..\..\..\u8g2\u8g2\csrc/u8x8_d_ssd1306_64x48.c **** 
 104:..\..\..\u8g2\u8g2\csrc/u8x8_d_ssd1306_64x48.c **** 
 105:..\..\..\u8g2\u8g2\csrc/u8x8_d_ssd1306_64x48.c **** static uint8_t u8x8_d_ssd1306_64x48_generic(u8x8_t *u8x8, uint8_t msg, uint8_t arg_int, void *arg_p
 106:..\..\..\u8g2\u8g2\csrc/u8x8_d_ssd1306_64x48.c **** {
 107:..\..\..\u8g2\u8g2\csrc/u8x8_d_ssd1306_64x48.c ****   uint8_t x, c;
 108:..\..\..\u8g2\u8g2\csrc/u8x8_d_ssd1306_64x48.c ****   uint8_t *ptr;
 109:..\..\..\u8g2\u8g2\csrc/u8x8_d_ssd1306_64x48.c ****   switch(msg)
 110:..\..\..\u8g2\u8g2\csrc/u8x8_d_ssd1306_64x48.c ****   {
 111:..\..\..\u8g2\u8g2\csrc/u8x8_d_ssd1306_64x48.c ****     /* handled by the calling function
 112:..\..\..\u8g2\u8g2\csrc/u8x8_d_ssd1306_64x48.c ****     case U8X8_MSG_DISPLAY_SETUP_MEMORY:
 113:..\..\..\u8g2\u8g2\csrc/u8x8_d_ssd1306_64x48.c ****       u8x8_d_helper_display_setup_memory(u8x8, &u8x8_ssd1306_64x48_display_info);
 114:..\..\..\u8g2\u8g2\csrc/u8x8_d_ssd1306_64x48.c ****       break;
 115:..\..\..\u8g2\u8g2\csrc/u8x8_d_ssd1306_64x48.c ****     case U8X8_MSG_DISPLAY_INIT:
 116:..\..\..\u8g2\u8g2\csrc/u8x8_d_ssd1306_64x48.c ****       u8x8_d_helper_display_init(u8x8);
 117:..\..\..\u8g2\u8g2\csrc/u8x8_d_ssd1306_64x48.c ****       u8x8_cad_SendSequence(u8x8, u8x8_d_ssd1306_64x48_er_init_seq);    
 118:..\..\..\u8g2\u8g2\csrc/u8x8_d_ssd1306_64x48.c ****       break;
 119:..\..\..\u8g2\u8g2\csrc/u8x8_d_ssd1306_64x48.c ****     */
 120:..\..\..\u8g2\u8g2\csrc/u8x8_d_ssd1306_64x48.c ****     case U8X8_MSG_DISPLAY_SET_POWER_SAVE:
 121:..\..\..\u8g2\u8g2\csrc/u8x8_d_ssd1306_64x48.c ****       if ( arg_int == 0 )
 122:..\..\..\u8g2\u8g2\csrc/u8x8_d_ssd1306_64x48.c **** 	u8x8_cad_SendSequence(u8x8, u8x8_d_ssd1306_64x48_powersave0_seq);
 123:..\..\..\u8g2\u8g2\csrc/u8x8_d_ssd1306_64x48.c ****       else
 124:..\..\..\u8g2\u8g2\csrc/u8x8_d_ssd1306_64x48.c **** 	u8x8_cad_SendSequence(u8x8, u8x8_d_ssd1306_64x48_powersave1_seq);
 125:..\..\..\u8g2\u8g2\csrc/u8x8_d_ssd1306_64x48.c ****       break;
 126:..\..\..\u8g2\u8g2\csrc/u8x8_d_ssd1306_64x48.c ****     case U8X8_MSG_DISPLAY_SET_FLIP_MODE:
 127:..\..\..\u8g2\u8g2\csrc/u8x8_d_ssd1306_64x48.c ****       if ( arg_int == 0 )
 128:..\..\..\u8g2\u8g2\csrc/u8x8_d_ssd1306_64x48.c ****       {
 129:..\..\..\u8g2\u8g2\csrc/u8x8_d_ssd1306_64x48.c **** 	u8x8_cad_SendSequence(u8x8, u8x8_d_ssd1306_64x48_flip0_seq);
 130:..\..\..\u8g2\u8g2\csrc/u8x8_d_ssd1306_64x48.c **** 	u8x8->x_offset = u8x8->display_info->default_x_offset;
 131:..\..\..\u8g2\u8g2\csrc/u8x8_d_ssd1306_64x48.c ****       }
 132:..\..\..\u8g2\u8g2\csrc/u8x8_d_ssd1306_64x48.c ****       else
 133:..\..\..\u8g2\u8g2\csrc/u8x8_d_ssd1306_64x48.c ****       {
 134:..\..\..\u8g2\u8g2\csrc/u8x8_d_ssd1306_64x48.c **** 	u8x8_cad_SendSequence(u8x8, u8x8_d_ssd1306_64x48_flip1_seq);
 135:..\..\..\u8g2\u8g2\csrc/u8x8_d_ssd1306_64x48.c **** 	u8x8->x_offset = u8x8->display_info->flipmode_x_offset;
 136:..\..\..\u8g2\u8g2\csrc/u8x8_d_ssd1306_64x48.c ****       }
 137:..\..\..\u8g2\u8g2\csrc/u8x8_d_ssd1306_64x48.c ****       break;
 138:..\..\..\u8g2\u8g2\csrc/u8x8_d_ssd1306_64x48.c **** #ifdef U8X8_WITH_SET_CONTRAST
 139:..\..\..\u8g2\u8g2\csrc/u8x8_d_ssd1306_64x48.c ****     case U8X8_MSG_DISPLAY_SET_CONTRAST:
 140:..\..\..\u8g2\u8g2\csrc/u8x8_d_ssd1306_64x48.c ****       u8x8_cad_StartTransfer(u8x8);
 141:..\..\..\u8g2\u8g2\csrc/u8x8_d_ssd1306_64x48.c ****       u8x8_cad_SendCmd(u8x8, 0x081 );
 142:..\..\..\u8g2\u8g2\csrc/u8x8_d_ssd1306_64x48.c ****       u8x8_cad_SendArg(u8x8, arg_int );	/* ssd1306 has range from 0 to 255 */
 143:..\..\..\u8g2\u8g2\csrc/u8x8_d_ssd1306_64x48.c ****       u8x8_cad_EndTransfer(u8x8);
 144:..\..\..\u8g2\u8g2\csrc/u8x8_d_ssd1306_64x48.c ****       break;
ARM GAS  C:\Users\jesse\AppData\Local\Temp\ccAO3Rgf.s 			page 4


 145:..\..\..\u8g2\u8g2\csrc/u8x8_d_ssd1306_64x48.c **** #endif
 146:..\..\..\u8g2\u8g2\csrc/u8x8_d_ssd1306_64x48.c ****     case U8X8_MSG_DISPLAY_DRAW_TILE:
 147:..\..\..\u8g2\u8g2\csrc/u8x8_d_ssd1306_64x48.c ****       u8x8_cad_StartTransfer(u8x8);
 148:..\..\..\u8g2\u8g2\csrc/u8x8_d_ssd1306_64x48.c ****       x = ((u8x8_tile_t *)arg_ptr)->x_pos;    
 149:..\..\..\u8g2\u8g2\csrc/u8x8_d_ssd1306_64x48.c ****       x *= 8;
 150:..\..\..\u8g2\u8g2\csrc/u8x8_d_ssd1306_64x48.c ****       x += u8x8->x_offset;
 151:..\..\..\u8g2\u8g2\csrc/u8x8_d_ssd1306_64x48.c ****       u8x8_cad_SendCmd(u8x8, 0x010 | (x>>4) );
 152:..\..\..\u8g2\u8g2\csrc/u8x8_d_ssd1306_64x48.c ****       u8x8_cad_SendCmd(u8x8, 0x000 | ((x&15)));
 153:..\..\..\u8g2\u8g2\csrc/u8x8_d_ssd1306_64x48.c ****       u8x8_cad_SendCmd(u8x8, 0x0b0 | (((u8x8_tile_t *)arg_ptr)->y_pos));
 154:..\..\..\u8g2\u8g2\csrc/u8x8_d_ssd1306_64x48.c ****       
 155:..\..\..\u8g2\u8g2\csrc/u8x8_d_ssd1306_64x48.c ****       do
 156:..\..\..\u8g2\u8g2\csrc/u8x8_d_ssd1306_64x48.c ****       {
 157:..\..\..\u8g2\u8g2\csrc/u8x8_d_ssd1306_64x48.c **** 	c = ((u8x8_tile_t *)arg_ptr)->cnt;
 158:..\..\..\u8g2\u8g2\csrc/u8x8_d_ssd1306_64x48.c **** 	ptr = ((u8x8_tile_t *)arg_ptr)->tile_ptr;
 159:..\..\..\u8g2\u8g2\csrc/u8x8_d_ssd1306_64x48.c **** 	u8x8_cad_SendData(u8x8, c*8, ptr); 	/* note: SendData can not handle more than 255 bytes */
 160:..\..\..\u8g2\u8g2\csrc/u8x8_d_ssd1306_64x48.c **** 	arg_int--;
 161:..\..\..\u8g2\u8g2\csrc/u8x8_d_ssd1306_64x48.c ****       } while( arg_int > 0 );
 162:..\..\..\u8g2\u8g2\csrc/u8x8_d_ssd1306_64x48.c ****       
 163:..\..\..\u8g2\u8g2\csrc/u8x8_d_ssd1306_64x48.c ****       u8x8_cad_EndTransfer(u8x8);
 164:..\..\..\u8g2\u8g2\csrc/u8x8_d_ssd1306_64x48.c ****       break;
 165:..\..\..\u8g2\u8g2\csrc/u8x8_d_ssd1306_64x48.c ****     default:
 166:..\..\..\u8g2\u8g2\csrc/u8x8_d_ssd1306_64x48.c ****       return 0;
 167:..\..\..\u8g2\u8g2\csrc/u8x8_d_ssd1306_64x48.c ****   }
 168:..\..\..\u8g2\u8g2\csrc/u8x8_d_ssd1306_64x48.c ****   return 1;
 169:..\..\..\u8g2\u8g2\csrc/u8x8_d_ssd1306_64x48.c **** }
 170:..\..\..\u8g2\u8g2\csrc/u8x8_d_ssd1306_64x48.c **** 
 171:..\..\..\u8g2\u8g2\csrc/u8x8_d_ssd1306_64x48.c **** 
 172:..\..\..\u8g2\u8g2\csrc/u8x8_d_ssd1306_64x48.c **** static const u8x8_display_info_t u8x8_ssd1306_64x48_display_info =
 173:..\..\..\u8g2\u8g2\csrc/u8x8_d_ssd1306_64x48.c **** {
 174:..\..\..\u8g2\u8g2\csrc/u8x8_d_ssd1306_64x48.c ****   /* chip_enable_level = */ 0,
 175:..\..\..\u8g2\u8g2\csrc/u8x8_d_ssd1306_64x48.c ****   /* chip_disable_level = */ 1,
 176:..\..\..\u8g2\u8g2\csrc/u8x8_d_ssd1306_64x48.c ****   
 177:..\..\..\u8g2\u8g2\csrc/u8x8_d_ssd1306_64x48.c ****   /* post_chip_enable_wait_ns = */ 20,
 178:..\..\..\u8g2\u8g2\csrc/u8x8_d_ssd1306_64x48.c ****   /* pre_chip_disable_wait_ns = */ 10,
 179:..\..\..\u8g2\u8g2\csrc/u8x8_d_ssd1306_64x48.c ****   /* reset_pulse_width_ms = */ 100, 	/* SSD1306: 3 us */
 180:..\..\..\u8g2\u8g2\csrc/u8x8_d_ssd1306_64x48.c ****   /* post_reset_wait_ms = */ 100, /* far east OLEDs need much longer setup time */
 181:..\..\..\u8g2\u8g2\csrc/u8x8_d_ssd1306_64x48.c ****   /* sda_setup_time_ns = */ 50,		/* SSD1306: 15ns, but cycle time is 100ns, so use 100/2 */
 182:..\..\..\u8g2\u8g2\csrc/u8x8_d_ssd1306_64x48.c ****   /* sck_pulse_width_ns = */ 50,	/* SSD1306: 20ns, but cycle time is 100ns, so use 100/2, AVR: belo
 183:..\..\..\u8g2\u8g2\csrc/u8x8_d_ssd1306_64x48.c ****   /* sck_clock_hz = */ 8000000UL,	/* since Arduino 1.6.0, the SPI bus speed in Hz. Should be  10000
 184:..\..\..\u8g2\u8g2\csrc/u8x8_d_ssd1306_64x48.c ****   /* spi_mode = */ 0,		/* active high, rising edge */
 185:..\..\..\u8g2\u8g2\csrc/u8x8_d_ssd1306_64x48.c ****   /* i2c_bus_clock_100kHz = */ 4,
 186:..\..\..\u8g2\u8g2\csrc/u8x8_d_ssd1306_64x48.c ****   /* data_setup_time_ns = */ 40,
 187:..\..\..\u8g2\u8g2\csrc/u8x8_d_ssd1306_64x48.c ****   /* write_pulse_width_ns = */ 150,	/* SSD1306: cycle time is 300ns, so use 300/2 = 150 */
 188:..\..\..\u8g2\u8g2\csrc/u8x8_d_ssd1306_64x48.c ****   /* tile_width = */ 8,
 189:..\..\..\u8g2\u8g2\csrc/u8x8_d_ssd1306_64x48.c ****   /* tile_hight = */ 6,
 190:..\..\..\u8g2\u8g2\csrc/u8x8_d_ssd1306_64x48.c ****   /* default_x_offset = */ 32,
 191:..\..\..\u8g2\u8g2\csrc/u8x8_d_ssd1306_64x48.c ****   /* flipmode_x_offset = */ 32,
 192:..\..\..\u8g2\u8g2\csrc/u8x8_d_ssd1306_64x48.c ****   /* pixel_width = */ 64,
 193:..\..\..\u8g2\u8g2\csrc/u8x8_d_ssd1306_64x48.c ****   /* pixel_height = */ 48
 194:..\..\..\u8g2\u8g2\csrc/u8x8_d_ssd1306_64x48.c **** };
 195:..\..\..\u8g2\u8g2\csrc/u8x8_d_ssd1306_64x48.c **** 
 196:..\..\..\u8g2\u8g2\csrc/u8x8_d_ssd1306_64x48.c **** /* East Rising 0.66" OLED */
 197:..\..\..\u8g2\u8g2\csrc/u8x8_d_ssd1306_64x48.c **** uint8_t u8x8_d_ssd1306_64x48_er(u8x8_t *u8x8, uint8_t msg, uint8_t arg_int, void *arg_ptr)
 198:..\..\..\u8g2\u8g2\csrc/u8x8_d_ssd1306_64x48.c **** {
  28              		.loc 1 198 0
  29              		.cfi_startproc
  30              		@ args = 0, pretend = 0, frame = 0
ARM GAS  C:\Users\jesse\AppData\Local\Temp\ccAO3Rgf.s 			page 5


  31              		@ frame_needed = 0, uses_anonymous_args = 0
  32              	.LVL0:
 199:..\..\..\u8g2\u8g2\csrc/u8x8_d_ssd1306_64x48.c ****     if ( msg == U8X8_MSG_DISPLAY_SETUP_MEMORY )
  33              		.loc 1 199 0
  34 0000 0929     		cmp	r1, #9
 198:..\..\..\u8g2\u8g2\csrc/u8x8_d_ssd1306_64x48.c ****     if ( msg == U8X8_MSG_DISPLAY_SETUP_MEMORY )
  35              		.loc 1 198 0
  36 0002 F8B5     		push	{r3, r4, r5, r6, r7, lr}
  37              		.cfi_def_cfa_offset 24
  38              		.cfi_offset 3, -24
  39              		.cfi_offset 4, -20
  40              		.cfi_offset 5, -16
  41              		.cfi_offset 6, -12
  42              		.cfi_offset 7, -8
  43              		.cfi_offset 14, -4
 198:..\..\..\u8g2\u8g2\csrc/u8x8_d_ssd1306_64x48.c ****     if ( msg == U8X8_MSG_DISPLAY_SETUP_MEMORY )
  44              		.loc 1 198 0
  45 0004 0446     		mov	r4, r0
  46 0006 1546     		mov	r5, r2
  47 0008 1F46     		mov	r7, r3
  48              		.loc 1 199 0
  49 000a 03D1     		bne	.L2
 200:..\..\..\u8g2\u8g2\csrc/u8x8_d_ssd1306_64x48.c ****     {
 201:..\..\..\u8g2\u8g2\csrc/u8x8_d_ssd1306_64x48.c ****       u8x8_d_helper_display_setup_memory(u8x8, &u8x8_ssd1306_64x48_display_info);
  50              		.loc 1 201 0
  51 000c 3049     		ldr	r1, .L20
  52              	.LVL1:
  53 000e FFF7FEFF 		bl	u8x8_d_helper_display_setup_memory
  54              	.LVL2:
  55 0012 58E0     		b	.L16
  56              	.LVL3:
  57              	.L2:
 202:..\..\..\u8g2\u8g2\csrc/u8x8_d_ssd1306_64x48.c ****       return 1;
 203:..\..\..\u8g2\u8g2\csrc/u8x8_d_ssd1306_64x48.c ****     }
 204:..\..\..\u8g2\u8g2\csrc/u8x8_d_ssd1306_64x48.c ****     else if ( msg == U8X8_MSG_DISPLAY_INIT )
  58              		.loc 1 204 0
  59 0014 0A29     		cmp	r1, #10
  60 0016 03D1     		bne	.L4
 205:..\..\..\u8g2\u8g2\csrc/u8x8_d_ssd1306_64x48.c ****     {
 206:..\..\..\u8g2\u8g2\csrc/u8x8_d_ssd1306_64x48.c ****       u8x8_d_helper_display_init(u8x8);
  61              		.loc 1 206 0
  62 0018 FFF7FEFF 		bl	u8x8_d_helper_display_init
  63              	.LVL4:
 207:..\..\..\u8g2\u8g2\csrc/u8x8_d_ssd1306_64x48.c ****       u8x8_cad_SendSequence(u8x8, u8x8_d_ssd1306_64x48_er_init_seq);    
  64              		.loc 1 207 0
  65 001c 2D49     		ldr	r1, .L20+4
  66 001e 0BE0     		b	.L18
  67              	.LVL5:
  68              	.L4:
  69              	.LBB4:
  70              	.LBB5:
 109:..\..\..\u8g2\u8g2\csrc/u8x8_d_ssd1306_64x48.c ****   {
  71              		.loc 1 109 0
  72 0020 0B39     		subs	r1, r1, #11
  73              	.LVL6:
  74 0022 0429     		cmp	r1, #4
  75 0024 51D8     		bhi	.L13
ARM GAS  C:\Users\jesse\AppData\Local\Temp\ccAO3Rgf.s 			page 6


  76 0026 DFE801F0 		tbb	[pc, r1]
  77              	.LVL7:
  78              	.L6:
  79 002a 03       		.byte	(.L5-.L6)/2
  80 002b 50       		.byte	(.L13-.L6)/2
  81 002c 0B       		.byte	(.L7-.L6)/2
  82 002d 1A       		.byte	(.L8-.L6)/2
  83 002e 25       		.byte	(.L9-.L6)/2
  84 002f 00       		.p2align 1
  85              	.L5:
 121:..\..\..\u8g2\u8g2\csrc/u8x8_d_ssd1306_64x48.c **** 	u8x8_cad_SendSequence(u8x8, u8x8_d_ssd1306_64x48_powersave0_seq);
  86              		.loc 1 121 0
  87 0030 0AB9     		cbnz	r2, .L10
 122:..\..\..\u8g2\u8g2\csrc/u8x8_d_ssd1306_64x48.c ****       else
  88              		.loc 1 122 0
  89 0032 2949     		ldr	r1, .L20+8
  90 0034 00E0     		b	.L18
  91              	.L10:
 124:..\..\..\u8g2\u8g2\csrc/u8x8_d_ssd1306_64x48.c ****       break;
  92              		.loc 1 124 0
  93 0036 2949     		ldr	r1, .L20+12
  94              	.LVL8:
  95              	.L18:
  96 0038 2046     		mov	r0, r4
  97 003a FFF7FEFF 		bl	u8x8_cad_SendSequence
  98              	.LVL9:
  99 003e 42E0     		b	.L16
 100              	.LVL10:
 101              	.L7:
 127:..\..\..\u8g2\u8g2\csrc/u8x8_d_ssd1306_64x48.c ****       {
 102              		.loc 1 127 0
 103 0040 2AB9     		cbnz	r2, .L11
 129:..\..\..\u8g2\u8g2\csrc/u8x8_d_ssd1306_64x48.c **** 	u8x8->x_offset = u8x8->display_info->default_x_offset;
 104              		.loc 1 129 0
 105 0042 2749     		ldr	r1, .L20+16
 106 0044 FFF7FEFF 		bl	u8x8_cad_SendSequence
 107              	.LVL11:
 130:..\..\..\u8g2\u8g2\csrc/u8x8_d_ssd1306_64x48.c ****       }
 108              		.loc 1 130 0
 109 0048 2368     		ldr	r3, [r4]
 110 004a 9B7C     		ldrb	r3, [r3, #18]	@ zero_extendqisi2
 111 004c 04E0     		b	.L17
 112              	.LVL12:
 113              	.L11:
 134:..\..\..\u8g2\u8g2\csrc/u8x8_d_ssd1306_64x48.c **** 	u8x8->x_offset = u8x8->display_info->flipmode_x_offset;
 114              		.loc 1 134 0
 115 004e 2549     		ldr	r1, .L20+20
 116 0050 FFF7FEFF 		bl	u8x8_cad_SendSequence
 117              	.LVL13:
 135:..\..\..\u8g2\u8g2\csrc/u8x8_d_ssd1306_64x48.c ****       }
 118              		.loc 1 135 0
 119 0054 2368     		ldr	r3, [r4]
 120 0056 DB7C     		ldrb	r3, [r3, #19]	@ zero_extendqisi2
 121              	.L17:
 122 0058 84F82230 		strb	r3, [r4, #34]
 123 005c 33E0     		b	.L16
 124              	.LVL14:
ARM GAS  C:\Users\jesse\AppData\Local\Temp\ccAO3Rgf.s 			page 7


 125              	.L8:
 140:..\..\..\u8g2\u8g2\csrc/u8x8_d_ssd1306_64x48.c ****       u8x8_cad_SendCmd(u8x8, 0x081 );
 126              		.loc 1 140 0
 127 005e FFF7FEFF 		bl	u8x8_cad_StartTransfer
 128              	.LVL15:
 141:..\..\..\u8g2\u8g2\csrc/u8x8_d_ssd1306_64x48.c ****       u8x8_cad_SendArg(u8x8, arg_int );	/* ssd1306 has range from 0 to 255 */
 129              		.loc 1 141 0
 130 0062 8121     		movs	r1, #129
 131 0064 2046     		mov	r0, r4
 132 0066 FFF7FEFF 		bl	u8x8_cad_SendCmd
 133              	.LVL16:
 142:..\..\..\u8g2\u8g2\csrc/u8x8_d_ssd1306_64x48.c ****       u8x8_cad_EndTransfer(u8x8);
 134              		.loc 1 142 0
 135 006a 2946     		mov	r1, r5
 136 006c 2046     		mov	r0, r4
 137 006e FFF7FEFF 		bl	u8x8_cad_SendArg
 138              	.LVL17:
 139 0072 25E0     		b	.L15
 140              	.LVL18:
 141              	.L9:
 147:..\..\..\u8g2\u8g2\csrc/u8x8_d_ssd1306_64x48.c ****       x = ((u8x8_tile_t *)arg_ptr)->x_pos;    
 142              		.loc 1 147 0
 143 0074 FFF7FEFF 		bl	u8x8_cad_StartTransfer
 144              	.LVL19:
 150:..\..\..\u8g2\u8g2\csrc/u8x8_d_ssd1306_64x48.c ****       u8x8_cad_SendCmd(u8x8, 0x010 | (x>>4) );
 145              		.loc 1 150 0
 146 0078 94F82230 		ldrb	r3, [r4, #34]	@ zero_extendqisi2
 148:..\..\..\u8g2\u8g2\csrc/u8x8_d_ssd1306_64x48.c ****       x *= 8;
 147              		.loc 1 148 0
 148 007c 7E79     		ldrb	r6, [r7, #5]	@ zero_extendqisi2
 149              	.LVL20:
 151:..\..\..\u8g2\u8g2\csrc/u8x8_d_ssd1306_64x48.c ****       u8x8_cad_SendCmd(u8x8, 0x000 | ((x&15)));
 150              		.loc 1 151 0
 151 007e 2046     		mov	r0, r4
 150:..\..\..\u8g2\u8g2\csrc/u8x8_d_ssd1306_64x48.c ****       u8x8_cad_SendCmd(u8x8, 0x010 | (x>>4) );
 152              		.loc 1 150 0
 153 0080 03EBC606 		add	r6, r3, r6, lsl #3
 154              	.LVL21:
 155 0084 06F0FF06 		and	r6, r6, #255
 156              	.LVL22:
 151:..\..\..\u8g2\u8g2\csrc/u8x8_d_ssd1306_64x48.c ****       u8x8_cad_SendCmd(u8x8, 0x000 | ((x&15)));
 157              		.loc 1 151 0
 158 0088 3109     		lsrs	r1, r6, #4
 159 008a 41F01001 		orr	r1, r1, #16
 160 008e FFF7FEFF 		bl	u8x8_cad_SendCmd
 161              	.LVL23:
 152:..\..\..\u8g2\u8g2\csrc/u8x8_d_ssd1306_64x48.c ****       u8x8_cad_SendCmd(u8x8, 0x0b0 | (((u8x8_tile_t *)arg_ptr)->y_pos));
 162              		.loc 1 152 0
 163 0092 06F00F01 		and	r1, r6, #15
 164 0096 2046     		mov	r0, r4
 165 0098 FFF7FEFF 		bl	u8x8_cad_SendCmd
 166              	.LVL24:
 153:..\..\..\u8g2\u8g2\csrc/u8x8_d_ssd1306_64x48.c ****       
 167              		.loc 1 153 0
 168 009c B979     		ldrb	r1, [r7, #6]	@ zero_extendqisi2
 169 009e 2046     		mov	r0, r4
 170 00a0 41F0B001 		orr	r1, r1, #176
ARM GAS  C:\Users\jesse\AppData\Local\Temp\ccAO3Rgf.s 			page 8


 171 00a4 FFF7FEFF 		bl	u8x8_cad_SendCmd
 172              	.LVL25:
 173              	.L12:
 159:..\..\..\u8g2\u8g2\csrc/u8x8_d_ssd1306_64x48.c **** 	arg_int--;
 174              		.loc 1 159 0
 175 00a8 3979     		ldrb	r1, [r7, #4]	@ zero_extendqisi2
 176 00aa 3A68     		ldr	r2, [r7]
 177 00ac C900     		lsls	r1, r1, #3
 178 00ae 01F0F801 		and	r1, r1, #248
 179 00b2 2046     		mov	r0, r4
 160:..\..\..\u8g2\u8g2\csrc/u8x8_d_ssd1306_64x48.c ****       } while( arg_int > 0 );
 180              		.loc 1 160 0
 181 00b4 013D     		subs	r5, r5, #1
 182              	.LVL26:
 159:..\..\..\u8g2\u8g2\csrc/u8x8_d_ssd1306_64x48.c **** 	arg_int--;
 183              		.loc 1 159 0
 184 00b6 FFF7FEFF 		bl	u8x8_cad_SendData
 185              	.LVL27:
 161:..\..\..\u8g2\u8g2\csrc/u8x8_d_ssd1306_64x48.c ****       
 186              		.loc 1 161 0
 187 00ba 15F0FF05 		ands	r5, r5, #255
 188              	.LVL28:
 189 00be F3D1     		bne	.L12
 190              	.LVL29:
 191              	.L15:
 163:..\..\..\u8g2\u8g2\csrc/u8x8_d_ssd1306_64x48.c ****       break;
 192              		.loc 1 163 0
 193 00c0 2046     		mov	r0, r4
 194 00c2 FFF7FEFF 		bl	u8x8_cad_EndTransfer
 195              	.LVL30:
 196              	.L16:
 168:..\..\..\u8g2\u8g2\csrc/u8x8_d_ssd1306_64x48.c **** }
 197              		.loc 1 168 0
 198 00c6 0120     		movs	r0, #1
 199 00c8 F8BD     		pop	{r3, r4, r5, r6, r7, pc}
 200              	.LVL31:
 201              	.L13:
 166:..\..\..\u8g2\u8g2\csrc/u8x8_d_ssd1306_64x48.c ****   }
 202              		.loc 1 166 0
 203 00ca 0020     		movs	r0, #0
 204              	.LVL32:
 205              	.LBE5:
 206              	.LBE4:
 208:..\..\..\u8g2\u8g2\csrc/u8x8_d_ssd1306_64x48.c ****       return 1;
 209:..\..\..\u8g2\u8g2\csrc/u8x8_d_ssd1306_64x48.c ****     }
 210:..\..\..\u8g2\u8g2\csrc/u8x8_d_ssd1306_64x48.c ****     return u8x8_d_ssd1306_64x48_generic(u8x8, msg, arg_int, arg_ptr);
 211:..\..\..\u8g2\u8g2\csrc/u8x8_d_ssd1306_64x48.c **** }
 207              		.loc 1 211 0
 208 00cc F8BD     		pop	{r3, r4, r5, r6, r7, pc}
 209              	.LVL33:
 210              	.L21:
 211 00ce 00BF     		.align	2
 212              	.L20:
 213 00d0 00000000 		.word	.LANCHOR0
 214 00d4 18000000 		.word	.LANCHOR0+24
 215 00d8 4D000000 		.word	.LANCHOR0+77
 216 00dc 52000000 		.word	.LANCHOR0+82
ARM GAS  C:\Users\jesse\AppData\Local\Temp\ccAO3Rgf.s 			page 9


 217 00e0 57000000 		.word	.LANCHOR0+87
 218 00e4 5E000000 		.word	.LANCHOR0+94
 219              		.cfi_endproc
 220              	.LFE1:
 221              		.size	u8x8_d_ssd1306_64x48_er, .-u8x8_d_ssd1306_64x48_er
 222              		.section	.rodata
 223              		.align	2
 224              		.set	.LANCHOR0,. + 0
 225              		.type	u8x8_ssd1306_64x48_display_info, %object
 226              		.size	u8x8_ssd1306_64x48_display_info, 24
 227              	u8x8_ssd1306_64x48_display_info:
 228 0000 00       		.byte	0
 229 0001 01       		.byte	1
 230 0002 14       		.byte	20
 231 0003 0A       		.byte	10
 232 0004 64       		.byte	100
 233 0005 64       		.byte	100
 234 0006 32       		.byte	50
 235 0007 32       		.byte	50
 236 0008 00127A00 		.word	8000000
 237 000c 00       		.byte	0
 238 000d 04       		.byte	4
 239 000e 28       		.byte	40
 240 000f 96       		.byte	-106
 241 0010 08       		.byte	8
 242 0011 06       		.byte	6
 243 0012 20       		.byte	32
 244 0013 20       		.byte	32
 245 0014 4000     		.short	64
 246 0016 3000     		.short	48
 247              		.type	u8x8_d_ssd1306_64x48_er_init_seq, %object
 248              		.size	u8x8_d_ssd1306_64x48_er_init_seq, 53
 249              	u8x8_d_ssd1306_64x48_er_init_seq:
 250 0018 18       		.byte	24
 251 0019 15       		.byte	21
 252 001a AE       		.byte	-82
 253 001b 15       		.byte	21
 254 001c D5       		.byte	-43
 255 001d 16       		.byte	22
 256 001e 80       		.byte	-128
 257 001f 15       		.byte	21
 258 0020 A8       		.byte	-88
 259 0021 16       		.byte	22
 260 0022 2F       		.byte	47
 261 0023 15       		.byte	21
 262 0024 D3       		.byte	-45
 263 0025 16       		.byte	22
 264 0026 00       		.byte	0
 265 0027 15       		.byte	21
 266 0028 40       		.byte	64
 267 0029 15       		.byte	21
 268 002a 8D       		.byte	-115
 269 002b 16       		.byte	22
 270 002c 14       		.byte	20
 271 002d 15       		.byte	21
 272 002e 20       		.byte	32
 273 002f 16       		.byte	22
ARM GAS  C:\Users\jesse\AppData\Local\Temp\ccAO3Rgf.s 			page 10


 274 0030 00       		.byte	0
 275 0031 15       		.byte	21
 276 0032 A1       		.byte	-95
 277 0033 15       		.byte	21
 278 0034 C8       		.byte	-56
 279 0035 15       		.byte	21
 280 0036 DA       		.byte	-38
 281 0037 16       		.byte	22
 282 0038 12       		.byte	18
 283 0039 15       		.byte	21
 284 003a 81       		.byte	-127
 285 003b 16       		.byte	22
 286 003c CF       		.byte	-49
 287 003d 15       		.byte	21
 288 003e D9       		.byte	-39
 289 003f 16       		.byte	22
 290 0040 22       		.byte	34
 291 0041 15       		.byte	21
 292 0042 DB       		.byte	-37
 293 0043 16       		.byte	22
 294 0044 00       		.byte	0
 295 0045 15       		.byte	21
 296 0046 2E       		.byte	46
 297 0047 15       		.byte	21
 298 0048 A4       		.byte	-92
 299 0049 15       		.byte	21
 300 004a A6       		.byte	-90
 301 004b 19       		.byte	25
 302 004c FF       		.byte	-1
 303              		.type	u8x8_d_ssd1306_64x48_powersave0_seq, %object
 304              		.size	u8x8_d_ssd1306_64x48_powersave0_seq, 5
 305              	u8x8_d_ssd1306_64x48_powersave0_seq:
 306 004d 18       		.byte	24
 307 004e 15       		.byte	21
 308 004f AF       		.byte	-81
 309 0050 19       		.byte	25
 310 0051 FF       		.byte	-1
 311              		.type	u8x8_d_ssd1306_64x48_powersave1_seq, %object
 312              		.size	u8x8_d_ssd1306_64x48_powersave1_seq, 5
 313              	u8x8_d_ssd1306_64x48_powersave1_seq:
 314 0052 18       		.byte	24
 315 0053 15       		.byte	21
 316 0054 AE       		.byte	-82
 317 0055 19       		.byte	25
 318 0056 FF       		.byte	-1
 319              		.type	u8x8_d_ssd1306_64x48_flip0_seq, %object
 320              		.size	u8x8_d_ssd1306_64x48_flip0_seq, 7
 321              	u8x8_d_ssd1306_64x48_flip0_seq:
 322 0057 18       		.byte	24
 323 0058 15       		.byte	21
 324 0059 A1       		.byte	-95
 325 005a 15       		.byte	21
 326 005b C8       		.byte	-56
 327 005c 19       		.byte	25
 328 005d FF       		.byte	-1
 329              		.type	u8x8_d_ssd1306_64x48_flip1_seq, %object
 330              		.size	u8x8_d_ssd1306_64x48_flip1_seq, 7
ARM GAS  C:\Users\jesse\AppData\Local\Temp\ccAO3Rgf.s 			page 11


 331              	u8x8_d_ssd1306_64x48_flip1_seq:
 332 005e 18       		.byte	24
 333 005f 15       		.byte	21
 334 0060 A0       		.byte	-96
 335 0061 15       		.byte	21
 336 0062 C0       		.byte	-64
 337 0063 19       		.byte	25
 338 0064 FF       		.byte	-1
 339              		.text
 340              	.Letext0:
 341              		.file 2 "c:\\program files (x86)\\cypress\\psoc creator\\4.4\\psoc creator\\import\\gnu\\arm\\5.4.
 342              		.file 3 "c:\\program files (x86)\\cypress\\psoc creator\\4.4\\psoc creator\\import\\gnu\\arm\\5.4.
 343              		.file 4 "..\\..\\..\\u8g2\\u8g2\\csrc\\u8x8.h"