ARM GAS  C:\Users\jesse\AppData\Local\Temp\ccencdYt.s 			page 1


   1              		.syntax unified
   2              		.cpu cortex-m3
   3              		.fpu softvfp
   4              		.eabi_attribute 20, 1
   5              		.eabi_attribute 21, 1
   6              		.eabi_attribute 23, 3
   7              		.eabi_attribute 24, 1
   8              		.eabi_attribute 25, 1
   9              		.eabi_attribute 26, 1
  10              		.eabi_attribute 30, 4
  11              		.eabi_attribute 34, 1
  12              		.eabi_attribute 18, 4
  13              		.thumb
  14              		.syntax unified
  15              		.file	"u8x8_d_ssd1306_96x40.c"
  16              		.text
  17              	.Ltext0:
  18              		.cfi_sections	.debug_frame
  19              		.section	.text.u8x8_d_ssd1306_96x40_generic,"ax",%progbits
  20              		.align	1
  21              		.thumb
  22              		.thumb_func
  23              		.type	u8x8_d_ssd1306_96x40_generic, %function
  24              	u8x8_d_ssd1306_96x40_generic:
  25              	.LFB0:
  26              		.file 1 "..\\..\\..\\u8g2\\u8g2\\csrc\\u8x8_d_ssd1306_96x40.c"
   1:..\..\..\u8g2\u8g2\csrc/u8x8_d_ssd1306_96x40.c **** /*
   2:..\..\..\u8g2\u8g2\csrc/u8x8_d_ssd1306_96x40.c **** 
   3:..\..\..\u8g2\u8g2\csrc/u8x8_d_ssd1306_96x40.c ****   u8x8_d_ssd1306_96x40.c
   4:..\..\..\u8g2\u8g2\csrc/u8x8_d_ssd1306_96x40.c **** 
   5:..\..\..\u8g2\u8g2\csrc/u8x8_d_ssd1306_96x40.c ****   Universal 8bit Graphics Library (https://github.com/olikraus/u8g2/)
   6:..\..\..\u8g2\u8g2\csrc/u8x8_d_ssd1306_96x40.c **** 
   7:..\..\..\u8g2\u8g2\csrc/u8x8_d_ssd1306_96x40.c ****   Copyright (c) 2016, olikraus@gmail.com
   8:..\..\..\u8g2\u8g2\csrc/u8x8_d_ssd1306_96x40.c ****   All rights reserved.
   9:..\..\..\u8g2\u8g2\csrc/u8x8_d_ssd1306_96x40.c **** 
  10:..\..\..\u8g2\u8g2\csrc/u8x8_d_ssd1306_96x40.c ****   Redistribution and use in source and binary forms, with or without modification, 
  11:..\..\..\u8g2\u8g2\csrc/u8x8_d_ssd1306_96x40.c ****   are permitted provided that the following conditions are met:
  12:..\..\..\u8g2\u8g2\csrc/u8x8_d_ssd1306_96x40.c **** 
  13:..\..\..\u8g2\u8g2\csrc/u8x8_d_ssd1306_96x40.c ****   * Redistributions of source code must retain the above copyright notice, this list 
  14:..\..\..\u8g2\u8g2\csrc/u8x8_d_ssd1306_96x40.c ****     of conditions and the following disclaimer.
  15:..\..\..\u8g2\u8g2\csrc/u8x8_d_ssd1306_96x40.c ****     
  16:..\..\..\u8g2\u8g2\csrc/u8x8_d_ssd1306_96x40.c ****   * Redistributions in binary form must reproduce the above copyright notice, this 
  17:..\..\..\u8g2\u8g2\csrc/u8x8_d_ssd1306_96x40.c ****     list of conditions and the following disclaimer in the documentation and/or other 
  18:..\..\..\u8g2\u8g2\csrc/u8x8_d_ssd1306_96x40.c ****     materials provided with the distribution.
  19:..\..\..\u8g2\u8g2\csrc/u8x8_d_ssd1306_96x40.c **** 
  20:..\..\..\u8g2\u8g2\csrc/u8x8_d_ssd1306_96x40.c ****   THIS SOFTWARE IS PROVIDED BY THE COPYRIGHT HOLDERS AND 
  21:..\..\..\u8g2\u8g2\csrc/u8x8_d_ssd1306_96x40.c ****   CONTRIBUTORS "AS IS" AND ANY EXPRESS OR IMPLIED WARRANTIES, 
  22:..\..\..\u8g2\u8g2\csrc/u8x8_d_ssd1306_96x40.c ****   INCLUDING, BUT NOT LIMITED TO, THE IMPLIED WARRANTIES OF 
  23:..\..\..\u8g2\u8g2\csrc/u8x8_d_ssd1306_96x40.c ****   MERCHANTABILITY AND FITNESS FOR A PARTICULAR PURPOSE ARE 
  24:..\..\..\u8g2\u8g2\csrc/u8x8_d_ssd1306_96x40.c ****   DISCLAIMED. IN NO EVENT SHALL THE COPYRIGHT HOLDER OR 
  25:..\..\..\u8g2\u8g2\csrc/u8x8_d_ssd1306_96x40.c ****   CONTRIBUTORS BE LIABLE FOR ANY DIRECT, INDIRECT, INCIDENTAL, 
  26:..\..\..\u8g2\u8g2\csrc/u8x8_d_ssd1306_96x40.c ****   SPECIAL, EXEMPLARY, OR CONSEQUENTIAL DAMAGES (INCLUDING, BUT 
  27:..\..\..\u8g2\u8g2\csrc/u8x8_d_ssd1306_96x40.c ****   NOT LIMITED TO, PROCUREMENT OF SUBSTITUTE GOODS OR SERVICES; 
  28:..\..\..\u8g2\u8g2\csrc/u8x8_d_ssd1306_96x40.c ****   LOSS OF USE, DATA, OR PROFITS; OR BUSINESS INTERRUPTION) HOWEVER 
  29:..\..\..\u8g2\u8g2\csrc/u8x8_d_ssd1306_96x40.c ****   CAUSED AND ON ANY THEORY OF LIABILITY, WHETHER IN CONTRACT, 
  30:..\..\..\u8g2\u8g2\csrc/u8x8_d_ssd1306_96x40.c ****   STRICT LIABILITY, OR TORT (INCLUDING NEGLIGENCE OR OTHERWISE) 
  31:..\..\..\u8g2\u8g2\csrc/u8x8_d_ssd1306_96x40.c ****   ARISING IN ANY WAY OUT OF THE USE OF THIS SOFTWARE, EVEN IF 
ARM GAS  C:\Users\jesse\AppData\Local\Temp\ccencdYt.s 			page 2


  32:..\..\..\u8g2\u8g2\csrc/u8x8_d_ssd1306_96x40.c ****   ADVISED OF THE POSSIBILITY OF SUCH DAMAGE.  
  33:..\..\..\u8g2\u8g2\csrc/u8x8_d_ssd1306_96x40.c ****   
  34:..\..\..\u8g2\u8g2\csrc/u8x8_d_ssd1306_96x40.c ****   takeover from 96x16 OLED
  35:..\..\..\u8g2\u8g2\csrc/u8x8_d_ssd1306_96x40.c ****   
  36:..\..\..\u8g2\u8g2\csrc/u8x8_d_ssd1306_96x40.c ****   21 Sep 2022: Also added the 96x39 variant here....
  37:..\..\..\u8g2\u8g2\csrc/u8x8_d_ssd1306_96x40.c ****   
  38:..\..\..\u8g2\u8g2\csrc/u8x8_d_ssd1306_96x40.c **** */
  39:..\..\..\u8g2\u8g2\csrc/u8x8_d_ssd1306_96x40.c **** 
  40:..\..\..\u8g2\u8g2\csrc/u8x8_d_ssd1306_96x40.c **** 
  41:..\..\..\u8g2\u8g2\csrc/u8x8_d_ssd1306_96x40.c **** #include "u8x8.h"
  42:..\..\..\u8g2\u8g2\csrc/u8x8_d_ssd1306_96x40.c **** 
  43:..\..\..\u8g2\u8g2\csrc/u8x8_d_ssd1306_96x40.c **** 
  44:..\..\..\u8g2\u8g2\csrc/u8x8_d_ssd1306_96x40.c **** 
  45:..\..\..\u8g2\u8g2\csrc/u8x8_d_ssd1306_96x40.c **** static const uint8_t u8x8_d_ssd1306_96x40_powersave0_seq[] = {
  46:..\..\..\u8g2\u8g2\csrc/u8x8_d_ssd1306_96x40.c ****   U8X8_START_TRANSFER(),             	/* enable chip, delay is part of the transfer start */
  47:..\..\..\u8g2\u8g2\csrc/u8x8_d_ssd1306_96x40.c ****   U8X8_C(0x0af),		                /* display on */
  48:..\..\..\u8g2\u8g2\csrc/u8x8_d_ssd1306_96x40.c ****   U8X8_END_TRANSFER(),             	/* disable chip */
  49:..\..\..\u8g2\u8g2\csrc/u8x8_d_ssd1306_96x40.c ****   U8X8_END()             			/* end of sequence */
  50:..\..\..\u8g2\u8g2\csrc/u8x8_d_ssd1306_96x40.c **** };
  51:..\..\..\u8g2\u8g2\csrc/u8x8_d_ssd1306_96x40.c **** 
  52:..\..\..\u8g2\u8g2\csrc/u8x8_d_ssd1306_96x40.c **** static const uint8_t u8x8_d_ssd1306_96x40_powersave1_seq[] = {
  53:..\..\..\u8g2\u8g2\csrc/u8x8_d_ssd1306_96x40.c ****   U8X8_START_TRANSFER(),             	/* enable chip, delay is part of the transfer start */
  54:..\..\..\u8g2\u8g2\csrc/u8x8_d_ssd1306_96x40.c ****   U8X8_C(0x0ae),		                /* display off */
  55:..\..\..\u8g2\u8g2\csrc/u8x8_d_ssd1306_96x40.c ****   U8X8_END_TRANSFER(),             	/* disable chip */
  56:..\..\..\u8g2\u8g2\csrc/u8x8_d_ssd1306_96x40.c ****   U8X8_END()             			/* end of sequence */
  57:..\..\..\u8g2\u8g2\csrc/u8x8_d_ssd1306_96x40.c **** };
  58:..\..\..\u8g2\u8g2\csrc/u8x8_d_ssd1306_96x40.c **** 
  59:..\..\..\u8g2\u8g2\csrc/u8x8_d_ssd1306_96x40.c **** static const uint8_t u8x8_d_ssd1306_96x40_flip0_seq[] = {
  60:..\..\..\u8g2\u8g2\csrc/u8x8_d_ssd1306_96x40.c ****   U8X8_START_TRANSFER(),             	/* enable chip, delay is part of the transfer start */
  61:..\..\..\u8g2\u8g2\csrc/u8x8_d_ssd1306_96x40.c ****   U8X8_C(0x0a1),				/* segment remap a0/a1*/
  62:..\..\..\u8g2\u8g2\csrc/u8x8_d_ssd1306_96x40.c ****   U8X8_C(0x0c8),				/* c0: scan dir normal, c8: reverse */
  63:..\..\..\u8g2\u8g2\csrc/u8x8_d_ssd1306_96x40.c ****   U8X8_END_TRANSFER(),             	/* disable chip */
  64:..\..\..\u8g2\u8g2\csrc/u8x8_d_ssd1306_96x40.c ****   U8X8_END()             			/* end of sequence */
  65:..\..\..\u8g2\u8g2\csrc/u8x8_d_ssd1306_96x40.c **** };
  66:..\..\..\u8g2\u8g2\csrc/u8x8_d_ssd1306_96x40.c **** 
  67:..\..\..\u8g2\u8g2\csrc/u8x8_d_ssd1306_96x40.c **** static const uint8_t u8x8_d_ssd1306_96x40_flip1_seq[] = {
  68:..\..\..\u8g2\u8g2\csrc/u8x8_d_ssd1306_96x40.c ****   U8X8_START_TRANSFER(),             	/* enable chip, delay is part of the transfer start */
  69:..\..\..\u8g2\u8g2\csrc/u8x8_d_ssd1306_96x40.c ****   U8X8_C(0x0a0),				/* segment remap a0/a1*/
  70:..\..\..\u8g2\u8g2\csrc/u8x8_d_ssd1306_96x40.c ****   U8X8_C(0x0c0),				/* c0: scan dir normal, c8: reverse */
  71:..\..\..\u8g2\u8g2\csrc/u8x8_d_ssd1306_96x40.c ****   U8X8_END_TRANSFER(),             	/* disable chip */
  72:..\..\..\u8g2\u8g2\csrc/u8x8_d_ssd1306_96x40.c ****   U8X8_END()             			/* end of sequence */
  73:..\..\..\u8g2\u8g2\csrc/u8x8_d_ssd1306_96x40.c **** };
  74:..\..\..\u8g2\u8g2\csrc/u8x8_d_ssd1306_96x40.c **** 
  75:..\..\..\u8g2\u8g2\csrc/u8x8_d_ssd1306_96x40.c **** 
  76:..\..\..\u8g2\u8g2\csrc/u8x8_d_ssd1306_96x40.c **** static uint8_t u8x8_d_ssd1306_96x40_generic(u8x8_t *u8x8, uint8_t msg, uint8_t arg_int, void *arg_p
  77:..\..\..\u8g2\u8g2\csrc/u8x8_d_ssd1306_96x40.c **** {
  27              		.loc 1 77 0
  28              		.cfi_startproc
  29              		@ args = 0, pretend = 0, frame = 0
  30              		@ frame_needed = 0, uses_anonymous_args = 0
  31              	.LVL0:
  78:..\..\..\u8g2\u8g2\csrc/u8x8_d_ssd1306_96x40.c ****   uint8_t x, c;
  79:..\..\..\u8g2\u8g2\csrc/u8x8_d_ssd1306_96x40.c ****   uint8_t *ptr;
  80:..\..\..\u8g2\u8g2\csrc/u8x8_d_ssd1306_96x40.c ****   switch(msg)
  32              		.loc 1 80 0
  33 0000 0B39     		subs	r1, r1, #11
  34              	.LVL1:
ARM GAS  C:\Users\jesse\AppData\Local\Temp\ccencdYt.s 			page 3


  77:..\..\..\u8g2\u8g2\csrc/u8x8_d_ssd1306_96x40.c ****   uint8_t x, c;
  35              		.loc 1 77 0
  36 0002 F8B5     		push	{r3, r4, r5, r6, r7, lr}
  37              		.cfi_def_cfa_offset 24
  38              		.cfi_offset 3, -24
  39              		.cfi_offset 4, -20
  40              		.cfi_offset 5, -16
  41              		.cfi_offset 6, -12
  42              		.cfi_offset 7, -8
  43              		.cfi_offset 14, -4
  77:..\..\..\u8g2\u8g2\csrc/u8x8_d_ssd1306_96x40.c ****   uint8_t x, c;
  44              		.loc 1 77 0
  45 0004 0446     		mov	r4, r0
  46 0006 1546     		mov	r5, r2
  47 0008 1F46     		mov	r7, r3
  48              		.loc 1 80 0
  49 000a 0429     		cmp	r1, #4
  50 000c 51D8     		bhi	.L11
  51 000e DFE801F0 		tbb	[pc, r1]
  52              	.LVL2:
  53              	.L4:
  54 0012 03       		.byte	(.L3-.L4)/2
  55 0013 50       		.byte	(.L11-.L4)/2
  56 0014 0B       		.byte	(.L5-.L4)/2
  57 0015 1A       		.byte	(.L6-.L4)/2
  58 0016 29       		.byte	(.L7-.L4)/2
  59 0017 00       		.p2align 1
  60              	.L3:
  81:..\..\..\u8g2\u8g2\csrc/u8x8_d_ssd1306_96x40.c ****   {
  82:..\..\..\u8g2\u8g2\csrc/u8x8_d_ssd1306_96x40.c ****     /* handled by the calling function
  83:..\..\..\u8g2\u8g2\csrc/u8x8_d_ssd1306_96x40.c ****     case U8X8_MSG_DISPLAY_SETUP_MEMORY:
  84:..\..\..\u8g2\u8g2\csrc/u8x8_d_ssd1306_96x40.c ****       u8x8_d_helper_display_setup_memory(u8x8, &u8x8_ssd1306_96x40_display_info);
  85:..\..\..\u8g2\u8g2\csrc/u8x8_d_ssd1306_96x40.c ****       break;
  86:..\..\..\u8g2\u8g2\csrc/u8x8_d_ssd1306_96x40.c ****     case U8X8_MSG_DISPLAY_INIT:
  87:..\..\..\u8g2\u8g2\csrc/u8x8_d_ssd1306_96x40.c ****       u8x8_d_helper_display_init(u8x8);
  88:..\..\..\u8g2\u8g2\csrc/u8x8_d_ssd1306_96x40.c ****       u8x8_cad_SendSequence(u8x8, u8x8_d_ssd1306_96x40_er_init_seq);    
  89:..\..\..\u8g2\u8g2\csrc/u8x8_d_ssd1306_96x40.c ****       break;
  90:..\..\..\u8g2\u8g2\csrc/u8x8_d_ssd1306_96x40.c ****     */
  91:..\..\..\u8g2\u8g2\csrc/u8x8_d_ssd1306_96x40.c ****     case U8X8_MSG_DISPLAY_SET_POWER_SAVE:
  92:..\..\..\u8g2\u8g2\csrc/u8x8_d_ssd1306_96x40.c ****       if ( arg_int == 0 )
  61              		.loc 1 92 0
  62 0018 0AB9     		cbnz	r2, .L8
  93:..\..\..\u8g2\u8g2\csrc/u8x8_d_ssd1306_96x40.c **** 	u8x8_cad_SendSequence(u8x8, u8x8_d_ssd1306_96x40_powersave0_seq);
  63              		.loc 1 93 0
  64 001a 2749     		ldr	r1, .L18
  65 001c 00E0     		b	.L16
  66              	.L8:
  94:..\..\..\u8g2\u8g2\csrc/u8x8_d_ssd1306_96x40.c ****       else
  95:..\..\..\u8g2\u8g2\csrc/u8x8_d_ssd1306_96x40.c **** 	u8x8_cad_SendSequence(u8x8, u8x8_d_ssd1306_96x40_powersave1_seq);
  67              		.loc 1 95 0
  68 001e 2749     		ldr	r1, .L18+4
  69              	.L16:
  70 0020 2046     		mov	r0, r4
  71              	.LVL3:
  72 0022 FFF7FEFF 		bl	u8x8_cad_SendSequence
  73              	.LVL4:
  74 0026 1BE0     		b	.L13
ARM GAS  C:\Users\jesse\AppData\Local\Temp\ccencdYt.s 			page 4


  75              	.LVL5:
  76              	.L5:
  96:..\..\..\u8g2\u8g2\csrc/u8x8_d_ssd1306_96x40.c ****       break;
  97:..\..\..\u8g2\u8g2\csrc/u8x8_d_ssd1306_96x40.c ****     case U8X8_MSG_DISPLAY_SET_FLIP_MODE:
  98:..\..\..\u8g2\u8g2\csrc/u8x8_d_ssd1306_96x40.c ****       if ( arg_int == 0 )
  77              		.loc 1 98 0
  78 0028 2AB9     		cbnz	r2, .L9
  99:..\..\..\u8g2\u8g2\csrc/u8x8_d_ssd1306_96x40.c ****       {
 100:..\..\..\u8g2\u8g2\csrc/u8x8_d_ssd1306_96x40.c **** 	u8x8_cad_SendSequence(u8x8, u8x8_d_ssd1306_96x40_flip0_seq);
  79              		.loc 1 100 0
  80 002a 2549     		ldr	r1, .L18+8
  81 002c FFF7FEFF 		bl	u8x8_cad_SendSequence
  82              	.LVL6:
 101:..\..\..\u8g2\u8g2\csrc/u8x8_d_ssd1306_96x40.c **** 	u8x8->x_offset = u8x8->display_info->default_x_offset;
  83              		.loc 1 101 0
  84 0030 2368     		ldr	r3, [r4]
  85 0032 9B7C     		ldrb	r3, [r3, #18]	@ zero_extendqisi2
  86 0034 04E0     		b	.L15
  87              	.LVL7:
  88              	.L9:
 102:..\..\..\u8g2\u8g2\csrc/u8x8_d_ssd1306_96x40.c ****       }
 103:..\..\..\u8g2\u8g2\csrc/u8x8_d_ssd1306_96x40.c ****       else
 104:..\..\..\u8g2\u8g2\csrc/u8x8_d_ssd1306_96x40.c ****       {
 105:..\..\..\u8g2\u8g2\csrc/u8x8_d_ssd1306_96x40.c **** 	u8x8_cad_SendSequence(u8x8, u8x8_d_ssd1306_96x40_flip1_seq);
  89              		.loc 1 105 0
  90 0036 2349     		ldr	r1, .L18+12
  91 0038 FFF7FEFF 		bl	u8x8_cad_SendSequence
  92              	.LVL8:
 106:..\..\..\u8g2\u8g2\csrc/u8x8_d_ssd1306_96x40.c **** 	u8x8->x_offset = u8x8->display_info->flipmode_x_offset;
  93              		.loc 1 106 0
  94 003c 2368     		ldr	r3, [r4]
  95 003e DB7C     		ldrb	r3, [r3, #19]	@ zero_extendqisi2
  96              	.L15:
  97 0040 84F82230 		strb	r3, [r4, #34]
  98 0044 0CE0     		b	.L13
  99              	.LVL9:
 100              	.L6:
 107:..\..\..\u8g2\u8g2\csrc/u8x8_d_ssd1306_96x40.c ****       }
 108:..\..\..\u8g2\u8g2\csrc/u8x8_d_ssd1306_96x40.c ****       break;
 109:..\..\..\u8g2\u8g2\csrc/u8x8_d_ssd1306_96x40.c **** #ifdef U8X8_WITH_SET_CONTRAST
 110:..\..\..\u8g2\u8g2\csrc/u8x8_d_ssd1306_96x40.c ****     case U8X8_MSG_DISPLAY_SET_CONTRAST:
 111:..\..\..\u8g2\u8g2\csrc/u8x8_d_ssd1306_96x40.c ****       u8x8_cad_StartTransfer(u8x8);
 101              		.loc 1 111 0
 102 0046 FFF7FEFF 		bl	u8x8_cad_StartTransfer
 103              	.LVL10:
 112:..\..\..\u8g2\u8g2\csrc/u8x8_d_ssd1306_96x40.c ****       u8x8_cad_SendCmd(u8x8, 0x081 );
 104              		.loc 1 112 0
 105 004a 8121     		movs	r1, #129
 106 004c 2046     		mov	r0, r4
 107 004e FFF7FEFF 		bl	u8x8_cad_SendCmd
 108              	.LVL11:
 113:..\..\..\u8g2\u8g2\csrc/u8x8_d_ssd1306_96x40.c ****       u8x8_cad_SendArg(u8x8, arg_int );	/* ssd1306 has range from 0 to 255 */
 109              		.loc 1 113 0
 110 0052 2946     		mov	r1, r5
 111 0054 2046     		mov	r0, r4
 112 0056 FFF7FEFF 		bl	u8x8_cad_SendArg
 113              	.LVL12:
ARM GAS  C:\Users\jesse\AppData\Local\Temp\ccencdYt.s 			page 5


 114              	.L14:
 114:..\..\..\u8g2\u8g2\csrc/u8x8_d_ssd1306_96x40.c ****       u8x8_cad_EndTransfer(u8x8);
 115              		.loc 1 114 0
 116 005a 2046     		mov	r0, r4
 117 005c FFF7FEFF 		bl	u8x8_cad_EndTransfer
 118              	.LVL13:
 119              	.L13:
 115:..\..\..\u8g2\u8g2\csrc/u8x8_d_ssd1306_96x40.c ****       break;
 116:..\..\..\u8g2\u8g2\csrc/u8x8_d_ssd1306_96x40.c **** #endif
 117:..\..\..\u8g2\u8g2\csrc/u8x8_d_ssd1306_96x40.c ****     case U8X8_MSG_DISPLAY_DRAW_TILE:
 118:..\..\..\u8g2\u8g2\csrc/u8x8_d_ssd1306_96x40.c ****       u8x8_cad_StartTransfer(u8x8);
 119:..\..\..\u8g2\u8g2\csrc/u8x8_d_ssd1306_96x40.c ****       x = ((u8x8_tile_t *)arg_ptr)->x_pos;    
 120:..\..\..\u8g2\u8g2\csrc/u8x8_d_ssd1306_96x40.c ****       x *= 8;
 121:..\..\..\u8g2\u8g2\csrc/u8x8_d_ssd1306_96x40.c ****       x += u8x8->x_offset;
 122:..\..\..\u8g2\u8g2\csrc/u8x8_d_ssd1306_96x40.c ****       u8x8_cad_SendCmd(u8x8, 0x010 | (x>>4) );
 123:..\..\..\u8g2\u8g2\csrc/u8x8_d_ssd1306_96x40.c ****       u8x8_cad_SendCmd(u8x8, 0x000 | ((x&15)));
 124:..\..\..\u8g2\u8g2\csrc/u8x8_d_ssd1306_96x40.c ****       u8x8_cad_SendCmd(u8x8, 0x0b0 | (((u8x8_tile_t *)arg_ptr)->y_pos));
 125:..\..\..\u8g2\u8g2\csrc/u8x8_d_ssd1306_96x40.c ****       
 126:..\..\..\u8g2\u8g2\csrc/u8x8_d_ssd1306_96x40.c ****       do
 127:..\..\..\u8g2\u8g2\csrc/u8x8_d_ssd1306_96x40.c ****       {
 128:..\..\..\u8g2\u8g2\csrc/u8x8_d_ssd1306_96x40.c **** 	c = ((u8x8_tile_t *)arg_ptr)->cnt;
 129:..\..\..\u8g2\u8g2\csrc/u8x8_d_ssd1306_96x40.c **** 	ptr = ((u8x8_tile_t *)arg_ptr)->tile_ptr;
 130:..\..\..\u8g2\u8g2\csrc/u8x8_d_ssd1306_96x40.c **** 	u8x8_cad_SendData(u8x8, c*8, ptr); 	/* note: SendData can not handle more than 255 bytes */
 131:..\..\..\u8g2\u8g2\csrc/u8x8_d_ssd1306_96x40.c **** 	arg_int--;
 132:..\..\..\u8g2\u8g2\csrc/u8x8_d_ssd1306_96x40.c ****       } while( arg_int > 0 );
 133:..\..\..\u8g2\u8g2\csrc/u8x8_d_ssd1306_96x40.c ****       
 134:..\..\..\u8g2\u8g2\csrc/u8x8_d_ssd1306_96x40.c ****       u8x8_cad_EndTransfer(u8x8);
 135:..\..\..\u8g2\u8g2\csrc/u8x8_d_ssd1306_96x40.c ****       break;
 136:..\..\..\u8g2\u8g2\csrc/u8x8_d_ssd1306_96x40.c ****     default:
 137:..\..\..\u8g2\u8g2\csrc/u8x8_d_ssd1306_96x40.c ****       return 0;
 138:..\..\..\u8g2\u8g2\csrc/u8x8_d_ssd1306_96x40.c ****   }
 139:..\..\..\u8g2\u8g2\csrc/u8x8_d_ssd1306_96x40.c ****   return 1;
 120              		.loc 1 139 0
 121 0060 0120     		movs	r0, #1
 115:..\..\..\u8g2\u8g2\csrc/u8x8_d_ssd1306_96x40.c ****       break;
 122              		.loc 1 115 0
 123 0062 F8BD     		pop	{r3, r4, r5, r6, r7, pc}
 124              	.LVL14:
 125              	.L7:
 118:..\..\..\u8g2\u8g2\csrc/u8x8_d_ssd1306_96x40.c ****       x = ((u8x8_tile_t *)arg_ptr)->x_pos;    
 126              		.loc 1 118 0
 127 0064 FFF7FEFF 		bl	u8x8_cad_StartTransfer
 128              	.LVL15:
 121:..\..\..\u8g2\u8g2\csrc/u8x8_d_ssd1306_96x40.c ****       u8x8_cad_SendCmd(u8x8, 0x010 | (x>>4) );
 129              		.loc 1 121 0
 130 0068 94F82230 		ldrb	r3, [r4, #34]	@ zero_extendqisi2
 119:..\..\..\u8g2\u8g2\csrc/u8x8_d_ssd1306_96x40.c ****       x *= 8;
 131              		.loc 1 119 0
 132 006c 7E79     		ldrb	r6, [r7, #5]	@ zero_extendqisi2
 133              	.LVL16:
 122:..\..\..\u8g2\u8g2\csrc/u8x8_d_ssd1306_96x40.c ****       u8x8_cad_SendCmd(u8x8, 0x000 | ((x&15)));
 134              		.loc 1 122 0
 135 006e 2046     		mov	r0, r4
 121:..\..\..\u8g2\u8g2\csrc/u8x8_d_ssd1306_96x40.c ****       u8x8_cad_SendCmd(u8x8, 0x010 | (x>>4) );
 136              		.loc 1 121 0
 137 0070 03EBC606 		add	r6, r3, r6, lsl #3
 138              	.LVL17:
ARM GAS  C:\Users\jesse\AppData\Local\Temp\ccencdYt.s 			page 6


 139 0074 06F0FF06 		and	r6, r6, #255
 140              	.LVL18:
 122:..\..\..\u8g2\u8g2\csrc/u8x8_d_ssd1306_96x40.c ****       u8x8_cad_SendCmd(u8x8, 0x000 | ((x&15)));
 141              		.loc 1 122 0
 142 0078 3109     		lsrs	r1, r6, #4
 143 007a 41F01001 		orr	r1, r1, #16
 144 007e FFF7FEFF 		bl	u8x8_cad_SendCmd
 145              	.LVL19:
 123:..\..\..\u8g2\u8g2\csrc/u8x8_d_ssd1306_96x40.c ****       u8x8_cad_SendCmd(u8x8, 0x0b0 | (((u8x8_tile_t *)arg_ptr)->y_pos));
 146              		.loc 1 123 0
 147 0082 06F00F01 		and	r1, r6, #15
 148 0086 2046     		mov	r0, r4
 149 0088 FFF7FEFF 		bl	u8x8_cad_SendCmd
 150              	.LVL20:
 124:..\..\..\u8g2\u8g2\csrc/u8x8_d_ssd1306_96x40.c ****       
 151              		.loc 1 124 0
 152 008c B979     		ldrb	r1, [r7, #6]	@ zero_extendqisi2
 153 008e 2046     		mov	r0, r4
 154 0090 41F0B001 		orr	r1, r1, #176
 155 0094 FFF7FEFF 		bl	u8x8_cad_SendCmd
 156              	.LVL21:
 157              	.L10:
 130:..\..\..\u8g2\u8g2\csrc/u8x8_d_ssd1306_96x40.c **** 	arg_int--;
 158              		.loc 1 130 0 discriminator 1
 159 0098 3979     		ldrb	r1, [r7, #4]	@ zero_extendqisi2
 160 009a 3A68     		ldr	r2, [r7]
 161 009c C900     		lsls	r1, r1, #3
 162 009e 01F0F801 		and	r1, r1, #248
 163 00a2 2046     		mov	r0, r4
 131:..\..\..\u8g2\u8g2\csrc/u8x8_d_ssd1306_96x40.c ****       } while( arg_int > 0 );
 164              		.loc 1 131 0 discriminator 1
 165 00a4 013D     		subs	r5, r5, #1
 166              	.LVL22:
 130:..\..\..\u8g2\u8g2\csrc/u8x8_d_ssd1306_96x40.c **** 	arg_int--;
 167              		.loc 1 130 0 discriminator 1
 168 00a6 FFF7FEFF 		bl	u8x8_cad_SendData
 169              	.LVL23:
 132:..\..\..\u8g2\u8g2\csrc/u8x8_d_ssd1306_96x40.c ****       
 170              		.loc 1 132 0 discriminator 1
 171 00aa 15F0FF05 		ands	r5, r5, #255
 172              	.LVL24:
 173 00ae F3D1     		bne	.L10
 174 00b0 D3E7     		b	.L14
 175              	.LVL25:
 176              	.L11:
 137:..\..\..\u8g2\u8g2\csrc/u8x8_d_ssd1306_96x40.c ****   }
 177              		.loc 1 137 0
 178 00b2 0020     		movs	r0, #0
 179              	.LVL26:
 140:..\..\..\u8g2\u8g2\csrc/u8x8_d_ssd1306_96x40.c **** }
 180              		.loc 1 140 0
 181 00b4 F8BD     		pop	{r3, r4, r5, r6, r7, pc}
 182              	.LVL27:
 183              	.L19:
 184 00b6 00BF     		.align	2
 185              	.L18:
 186 00b8 00000000 		.word	.LANCHOR0
ARM GAS  C:\Users\jesse\AppData\Local\Temp\ccencdYt.s 			page 7


 187 00bc 05000000 		.word	.LANCHOR0+5
 188 00c0 0A000000 		.word	.LANCHOR0+10
 189 00c4 11000000 		.word	.LANCHOR0+17
 190              		.cfi_endproc
 191              	.LFE0:
 192              		.size	u8x8_d_ssd1306_96x40_generic, .-u8x8_d_ssd1306_96x40_generic
 193              		.section	.text.u8x8_d_ssd1306_96x40,"ax",%progbits
 194              		.align	1
 195              		.global	u8x8_d_ssd1306_96x40
 196              		.thumb
 197              		.thumb_func
 198              		.type	u8x8_d_ssd1306_96x40, %function
 199              	u8x8_d_ssd1306_96x40:
 200              	.LFB1:
 141:..\..\..\u8g2\u8g2\csrc/u8x8_d_ssd1306_96x40.c **** 
 142:..\..\..\u8g2\u8g2\csrc/u8x8_d_ssd1306_96x40.c **** /*===============================================*/
 143:..\..\..\u8g2\u8g2\csrc/u8x8_d_ssd1306_96x40.c **** 
 144:..\..\..\u8g2\u8g2\csrc/u8x8_d_ssd1306_96x40.c **** /* https://github.com/olikraus/u8g2/issues/1812 */
 145:..\..\..\u8g2\u8g2\csrc/u8x8_d_ssd1306_96x40.c **** static const uint8_t u8x8_d_ssd1306_96x40_init_seq[] = {
 146:..\..\..\u8g2\u8g2\csrc/u8x8_d_ssd1306_96x40.c ****     
 147:..\..\..\u8g2\u8g2\csrc/u8x8_d_ssd1306_96x40.c ****   U8X8_START_TRANSFER(),             	/* enable chip, delay is part of the transfer start */
 148:..\..\..\u8g2\u8g2\csrc/u8x8_d_ssd1306_96x40.c ****   
 149:..\..\..\u8g2\u8g2\csrc/u8x8_d_ssd1306_96x40.c ****   
 150:..\..\..\u8g2\u8g2\csrc/u8x8_d_ssd1306_96x40.c ****   U8X8_C(0x0ae),		                /* display off */
 151:..\..\..\u8g2\u8g2\csrc/u8x8_d_ssd1306_96x40.c ****   U8X8_CA(0x0d5, 0x080),		/* clock divide ratio (0x00=1) and oscillator frequency (0x8) */
 152:..\..\..\u8g2\u8g2\csrc/u8x8_d_ssd1306_96x40.c ****   U8X8_CA(0x0a8, 0x027),		/* multiplex ratio */
 153:..\..\..\u8g2\u8g2\csrc/u8x8_d_ssd1306_96x40.c ****   U8X8_CA(0x0d3, 0x000),		/* display offset  */
 154:..\..\..\u8g2\u8g2\csrc/u8x8_d_ssd1306_96x40.c ****   U8X8_C(0x040),		                /* set display start line to 0 */
 155:..\..\..\u8g2\u8g2\csrc/u8x8_d_ssd1306_96x40.c ****   U8X8_CA(0x08d, 0x014),		/* [2] charge pump setting (p62): 0x014 enable, 0x010 disable, 0.66 OLED 
 156:..\..\..\u8g2\u8g2\csrc/u8x8_d_ssd1306_96x40.c ****   U8X8_CA(0x020, 0x000),		/* horizontal addressing mode */
 157:..\..\..\u8g2\u8g2\csrc/u8x8_d_ssd1306_96x40.c ****   
 158:..\..\..\u8g2\u8g2\csrc/u8x8_d_ssd1306_96x40.c ****   U8X8_C(0x0a1),				/* segment remap a0/a1, 0.66 OLED  */
 159:..\..\..\u8g2\u8g2\csrc/u8x8_d_ssd1306_96x40.c ****   U8X8_C(0x0c8),				/* c0: scan dir normal, c8: reverse, 0.66 OLED  */
 160:..\..\..\u8g2\u8g2\csrc/u8x8_d_ssd1306_96x40.c ****   // Flipmode
 161:..\..\..\u8g2\u8g2\csrc/u8x8_d_ssd1306_96x40.c ****   // U8X8_C(0x0a0),				/* segment remap a0/a1*/
 162:..\..\..\u8g2\u8g2\csrc/u8x8_d_ssd1306_96x40.c ****   // U8X8_C(0x0c0),				/* c0: scan dir normal, c8: reverse */
 163:..\..\..\u8g2\u8g2\csrc/u8x8_d_ssd1306_96x40.c ****   
 164:..\..\..\u8g2\u8g2\csrc/u8x8_d_ssd1306_96x40.c ****   U8X8_CA(0x0da, 0x002),		/* com pin HW config, sequential com pin config (bit 4), disable left/rig
 165:..\..\..\u8g2\u8g2\csrc/u8x8_d_ssd1306_96x40.c ****   U8X8_CA(0x081, 0x0af),		/* [2] set contrast control */
 166:..\..\..\u8g2\u8g2\csrc/u8x8_d_ssd1306_96x40.c ****   U8X8_CA(0x0d9, 0x0f1),		/* [2] pre-charge period 0x0f1 */
 167:..\..\..\u8g2\u8g2\csrc/u8x8_d_ssd1306_96x40.c ****   U8X8_CA(0x0db, 0x020),		/* vcomh deselect level */
 168:..\..\..\u8g2\u8g2\csrc/u8x8_d_ssd1306_96x40.c ****   
 169:..\..\..\u8g2\u8g2\csrc/u8x8_d_ssd1306_96x40.c ****   U8X8_C(0x02e),				/* Deactivate scroll */ 
 170:..\..\..\u8g2\u8g2\csrc/u8x8_d_ssd1306_96x40.c ****   U8X8_C(0x0a4),				/* output ram to display */
 171:..\..\..\u8g2\u8g2\csrc/u8x8_d_ssd1306_96x40.c ****   U8X8_C(0x0a6),				/* none inverted normal display mode */
 172:..\..\..\u8g2\u8g2\csrc/u8x8_d_ssd1306_96x40.c ****     
 173:..\..\..\u8g2\u8g2\csrc/u8x8_d_ssd1306_96x40.c ****   U8X8_END_TRANSFER(),             	/* disable chip */
 174:..\..\..\u8g2\u8g2\csrc/u8x8_d_ssd1306_96x40.c ****   U8X8_END()             			/* end of sequence */
 175:..\..\..\u8g2\u8g2\csrc/u8x8_d_ssd1306_96x40.c **** };
 176:..\..\..\u8g2\u8g2\csrc/u8x8_d_ssd1306_96x40.c **** 
 177:..\..\..\u8g2\u8g2\csrc/u8x8_d_ssd1306_96x40.c **** 
 178:..\..\..\u8g2\u8g2\csrc/u8x8_d_ssd1306_96x40.c **** 
 179:..\..\..\u8g2\u8g2\csrc/u8x8_d_ssd1306_96x40.c **** static const u8x8_display_info_t u8x8_ssd1306_96x40_display_info =
 180:..\..\..\u8g2\u8g2\csrc/u8x8_d_ssd1306_96x40.c **** {
 181:..\..\..\u8g2\u8g2\csrc/u8x8_d_ssd1306_96x40.c ****   /* chip_enable_level = */ 0,
 182:..\..\..\u8g2\u8g2\csrc/u8x8_d_ssd1306_96x40.c ****   /* chip_disable_level = */ 1,
 183:..\..\..\u8g2\u8g2\csrc/u8x8_d_ssd1306_96x40.c ****   
ARM GAS  C:\Users\jesse\AppData\Local\Temp\ccencdYt.s 			page 8


 184:..\..\..\u8g2\u8g2\csrc/u8x8_d_ssd1306_96x40.c ****   /* post_chip_enable_wait_ns = */ 20,
 185:..\..\..\u8g2\u8g2\csrc/u8x8_d_ssd1306_96x40.c ****   /* pre_chip_disable_wait_ns = */ 10,
 186:..\..\..\u8g2\u8g2\csrc/u8x8_d_ssd1306_96x40.c ****   /* reset_pulse_width_ms = */ 100, 	/* SSD1306: 3 us */
 187:..\..\..\u8g2\u8g2\csrc/u8x8_d_ssd1306_96x40.c ****   /* post_reset_wait_ms = */ 100, 	/* OLEDs need much longer setup time */
 188:..\..\..\u8g2\u8g2\csrc/u8x8_d_ssd1306_96x40.c ****   /* sda_setup_time_ns = */ 50,		/* SSD1306: 15ns, but cycle time is 100ns, so use 100/2 */
 189:..\..\..\u8g2\u8g2\csrc/u8x8_d_ssd1306_96x40.c ****   /* sck_pulse_width_ns = */ 50,	/* SSD1306: 20ns, but cycle time is 100ns, so use 100/2, AVR: belo
 190:..\..\..\u8g2\u8g2\csrc/u8x8_d_ssd1306_96x40.c ****   /* sck_clock_hz = */ 8000000UL,	/* since Arduino 1.6.0, the SPI bus speed in Hz. Should be  10000
 191:..\..\..\u8g2\u8g2\csrc/u8x8_d_ssd1306_96x40.c ****   /* spi_mode = */ 0,		/* active high, rising edge */
 192:..\..\..\u8g2\u8g2\csrc/u8x8_d_ssd1306_96x40.c ****   /* i2c_bus_clock_100kHz = */ 4,
 193:..\..\..\u8g2\u8g2\csrc/u8x8_d_ssd1306_96x40.c ****   /* data_setup_time_ns = */ 40,
 194:..\..\..\u8g2\u8g2\csrc/u8x8_d_ssd1306_96x40.c ****   /* write_pulse_width_ns = */ 150,	/* SSD1306: cycle time is 300ns, so use 300/2 = 150 */
 195:..\..\..\u8g2\u8g2\csrc/u8x8_d_ssd1306_96x40.c ****   /* tile_width = */ 12,
 196:..\..\..\u8g2\u8g2\csrc/u8x8_d_ssd1306_96x40.c ****   /* tile_hight = */ 5,
 197:..\..\..\u8g2\u8g2\csrc/u8x8_d_ssd1306_96x40.c ****   /* default_x_offset = */ 0,
 198:..\..\..\u8g2\u8g2\csrc/u8x8_d_ssd1306_96x40.c ****   /* flipmode_x_offset = */ 32,
 199:..\..\..\u8g2\u8g2\csrc/u8x8_d_ssd1306_96x40.c ****   /* pixel_width = */ 96,
 200:..\..\..\u8g2\u8g2\csrc/u8x8_d_ssd1306_96x40.c ****   /* pixel_height = */ 40
 201:..\..\..\u8g2\u8g2\csrc/u8x8_d_ssd1306_96x40.c **** };
 202:..\..\..\u8g2\u8g2\csrc/u8x8_d_ssd1306_96x40.c **** 
 203:..\..\..\u8g2\u8g2\csrc/u8x8_d_ssd1306_96x40.c **** uint8_t u8x8_d_ssd1306_96x40(u8x8_t *u8x8, uint8_t msg, uint8_t arg_int, void *arg_ptr)
 204:..\..\..\u8g2\u8g2\csrc/u8x8_d_ssd1306_96x40.c **** {
 201              		.loc 1 204 0
 202              		.cfi_startproc
 203              		@ args = 0, pretend = 0, frame = 0
 204              		@ frame_needed = 0, uses_anonymous_args = 0
 205              	.LVL28:
 205:..\..\..\u8g2\u8g2\csrc/u8x8_d_ssd1306_96x40.c ****     if ( msg == U8X8_MSG_DISPLAY_SETUP_MEMORY )
 206              		.loc 1 205 0
 207 0000 0929     		cmp	r1, #9
 204:..\..\..\u8g2\u8g2\csrc/u8x8_d_ssd1306_96x40.c ****     if ( msg == U8X8_MSG_DISPLAY_SETUP_MEMORY )
 208              		.loc 1 204 0
 209 0002 70B5     		push	{r4, r5, r6, lr}
 210              		.cfi_def_cfa_offset 16
 211              		.cfi_offset 4, -16
 212              		.cfi_offset 5, -12
 213              		.cfi_offset 6, -8
 214              		.cfi_offset 14, -4
 204:..\..\..\u8g2\u8g2\csrc/u8x8_d_ssd1306_96x40.c ****     if ( msg == U8X8_MSG_DISPLAY_SETUP_MEMORY )
 215              		.loc 1 204 0
 216 0004 0546     		mov	r5, r0
 217              		.loc 1 205 0
 218 0006 03D1     		bne	.L21
 206:..\..\..\u8g2\u8g2\csrc/u8x8_d_ssd1306_96x40.c ****     {
 207:..\..\..\u8g2\u8g2\csrc/u8x8_d_ssd1306_96x40.c ****       u8x8_d_helper_display_setup_memory(u8x8, &u8x8_ssd1306_96x40_display_info);
 219              		.loc 1 207 0
 220 0008 0949     		ldr	r1, .L24
 221              	.LVL29:
 222 000a FFF7FEFF 		bl	u8x8_d_helper_display_setup_memory
 223              	.LVL30:
 208:..\..\..\u8g2\u8g2\csrc/u8x8_d_ssd1306_96x40.c ****       return 1;
 224              		.loc 1 208 0
 225 000e 0CE0     		b	.L22
 226              	.LVL31:
 227              	.L21:
 209:..\..\..\u8g2\u8g2\csrc/u8x8_d_ssd1306_96x40.c ****     }
 210:..\..\..\u8g2\u8g2\csrc/u8x8_d_ssd1306_96x40.c ****     else if ( msg == U8X8_MSG_DISPLAY_INIT )
 228              		.loc 1 210 0
ARM GAS  C:\Users\jesse\AppData\Local\Temp\ccencdYt.s 			page 9


 229 0010 0A29     		cmp	r1, #10
 230 0012 06D1     		bne	.L23
 211:..\..\..\u8g2\u8g2\csrc/u8x8_d_ssd1306_96x40.c ****     {
 212:..\..\..\u8g2\u8g2\csrc/u8x8_d_ssd1306_96x40.c ****       u8x8_d_helper_display_init(u8x8);
 231              		.loc 1 212 0
 232 0014 FFF7FEFF 		bl	u8x8_d_helper_display_init
 233              	.LVL32:
 213:..\..\..\u8g2\u8g2\csrc/u8x8_d_ssd1306_96x40.c ****       u8x8_cad_SendSequence(u8x8, u8x8_d_ssd1306_96x40_init_seq);    
 234              		.loc 1 213 0
 235 0018 0649     		ldr	r1, .L24+4
 236 001a 2846     		mov	r0, r5
 237 001c FFF7FEFF 		bl	u8x8_cad_SendSequence
 238              	.LVL33:
 214:..\..\..\u8g2\u8g2\csrc/u8x8_d_ssd1306_96x40.c ****       return 1;
 239              		.loc 1 214 0
 240 0020 03E0     		b	.L22
 241              	.LVL34:
 242              	.L23:
 215:..\..\..\u8g2\u8g2\csrc/u8x8_d_ssd1306_96x40.c ****     }
 216:..\..\..\u8g2\u8g2\csrc/u8x8_d_ssd1306_96x40.c ****     return u8x8_d_ssd1306_96x40_generic(u8x8, msg, arg_int, arg_ptr);
 217:..\..\..\u8g2\u8g2\csrc/u8x8_d_ssd1306_96x40.c **** }
 243              		.loc 1 217 0
 244 0022 BDE87040 		pop	{r4, r5, r6, lr}
 245              		.cfi_remember_state
 246              		.cfi_restore 14
 247              		.cfi_restore 6
 248              		.cfi_restore 5
 249              		.cfi_restore 4
 250              		.cfi_def_cfa_offset 0
 216:..\..\..\u8g2\u8g2\csrc/u8x8_d_ssd1306_96x40.c **** }
 251              		.loc 1 216 0
 252 0026 FFF7FEBF 		b	u8x8_d_ssd1306_96x40_generic
 253              	.LVL35:
 254              	.L22:
 255              		.cfi_restore_state
 256              		.loc 1 217 0
 257 002a 0120     		movs	r0, #1
 258 002c 70BD     		pop	{r4, r5, r6, pc}
 259              	.LVL36:
 260              	.L25:
 261 002e 00BF     		.align	2
 262              	.L24:
 263 0030 18000000 		.word	.LANCHOR0+24
 264 0034 30000000 		.word	.LANCHOR0+48
 265              		.cfi_endproc
 266              	.LFE1:
 267              		.size	u8x8_d_ssd1306_96x40, .-u8x8_d_ssd1306_96x40
 268              		.section	.text.u8x8_d_ssd1306_96x39,"ax",%progbits
 269              		.align	1
 270              		.global	u8x8_d_ssd1306_96x39
 271              		.thumb
 272              		.thumb_func
 273              		.type	u8x8_d_ssd1306_96x39, %function
 274              	u8x8_d_ssd1306_96x39:
 275              	.LFB2:
 218:..\..\..\u8g2\u8g2\csrc/u8x8_d_ssd1306_96x40.c **** 
 219:..\..\..\u8g2\u8g2\csrc/u8x8_d_ssd1306_96x40.c **** /*===============================================*/
ARM GAS  C:\Users\jesse\AppData\Local\Temp\ccencdYt.s 			page 10


 220:..\..\..\u8g2\u8g2\csrc/u8x8_d_ssd1306_96x40.c **** 
 221:..\..\..\u8g2\u8g2\csrc/u8x8_d_ssd1306_96x40.c **** /* 96x39 OLED */
 222:..\..\..\u8g2\u8g2\csrc/u8x8_d_ssd1306_96x40.c **** /* https://github.com/olikraus/u8g2/issues/1959 */
 223:..\..\..\u8g2\u8g2\csrc/u8x8_d_ssd1306_96x40.c **** static const uint8_t u8x8_d_ssd1306_96x39_init_seq[] = {
 224:..\..\..\u8g2\u8g2\csrc/u8x8_d_ssd1306_96x40.c ****     
 225:..\..\..\u8g2\u8g2\csrc/u8x8_d_ssd1306_96x40.c ****   U8X8_START_TRANSFER(),             	/* enable chip, delay is part of the transfer start */
 226:..\..\..\u8g2\u8g2\csrc/u8x8_d_ssd1306_96x40.c ****   
 227:..\..\..\u8g2\u8g2\csrc/u8x8_d_ssd1306_96x40.c ****   
 228:..\..\..\u8g2\u8g2\csrc/u8x8_d_ssd1306_96x40.c ****   U8X8_C(0x0ae),		                /* display off */
 229:..\..\..\u8g2\u8g2\csrc/u8x8_d_ssd1306_96x40.c ****   U8X8_CA(0x0d5, 0x080),		/* clock divide ratio (0x00=1) and oscillator frequency (0x8) */
 230:..\..\..\u8g2\u8g2\csrc/u8x8_d_ssd1306_96x40.c ****   U8X8_CA(0x0a8, 0x027),		/* multiplex ratio */
 231:..\..\..\u8g2\u8g2\csrc/u8x8_d_ssd1306_96x40.c ****   U8X8_CA(0x0d3, 0),		        /* display offset, issue 1959 */
 232:..\..\..\u8g2\u8g2\csrc/u8x8_d_ssd1306_96x40.c ****   U8X8_C(0x040),		                /* set display start line to 0 */
 233:..\..\..\u8g2\u8g2\csrc/u8x8_d_ssd1306_96x40.c ****   U8X8_CA(0x08d, 0x014),		/* [2] charge pump setting (p62): 0x014 enable, 0x010 disable, 0.66 OLED 
 234:..\..\..\u8g2\u8g2\csrc/u8x8_d_ssd1306_96x40.c ****   U8X8_CA(0x020, 0x000),		/* horizontal addressing mode */
 235:..\..\..\u8g2\u8g2\csrc/u8x8_d_ssd1306_96x40.c ****   
 236:..\..\..\u8g2\u8g2\csrc/u8x8_d_ssd1306_96x40.c ****   U8X8_C(0x0a1),				/* segment remap a0/a1, 0.66 OLED  */
 237:..\..\..\u8g2\u8g2\csrc/u8x8_d_ssd1306_96x40.c ****   U8X8_C(0x0c8),				/* c0: scan dir normal, c8: reverse, 0.66 OLED  */
 238:..\..\..\u8g2\u8g2\csrc/u8x8_d_ssd1306_96x40.c ****   // Flipmode
 239:..\..\..\u8g2\u8g2\csrc/u8x8_d_ssd1306_96x40.c ****   // U8X8_C(0x0a0),				/* segment remap a0/a1*/
 240:..\..\..\u8g2\u8g2\csrc/u8x8_d_ssd1306_96x40.c ****   // U8X8_C(0x0c0),				/* c0: scan dir normal, c8: reverse */
 241:..\..\..\u8g2\u8g2\csrc/u8x8_d_ssd1306_96x40.c ****   
 242:..\..\..\u8g2\u8g2\csrc/u8x8_d_ssd1306_96x40.c ****   U8X8_CA(0x0da, 0x010),		/* com pin HW config, sequential com pin config (bit 4), disable left/rig
 243:..\..\..\u8g2\u8g2\csrc/u8x8_d_ssd1306_96x40.c ****   U8X8_CA(0x081, 0x0af),		/* [2] set contrast control */
 244:..\..\..\u8g2\u8g2\csrc/u8x8_d_ssd1306_96x40.c ****   U8X8_CA(0x0d9, 0x0f1),		/* [2] pre-charge period 0x0f1 */
 245:..\..\..\u8g2\u8g2\csrc/u8x8_d_ssd1306_96x40.c ****   U8X8_CA(0x0db, 0x020),		/* vcomh deselect level */
 246:..\..\..\u8g2\u8g2\csrc/u8x8_d_ssd1306_96x40.c ****   
 247:..\..\..\u8g2\u8g2\csrc/u8x8_d_ssd1306_96x40.c ****   U8X8_C(0x02e),				/* Deactivate scroll */ 
 248:..\..\..\u8g2\u8g2\csrc/u8x8_d_ssd1306_96x40.c ****   U8X8_C(0x0a4),				/* output ram to display */
 249:..\..\..\u8g2\u8g2\csrc/u8x8_d_ssd1306_96x40.c ****   U8X8_C(0x0a6),				/* none inverted normal display mode */
 250:..\..\..\u8g2\u8g2\csrc/u8x8_d_ssd1306_96x40.c ****     
 251:..\..\..\u8g2\u8g2\csrc/u8x8_d_ssd1306_96x40.c ****   U8X8_END_TRANSFER(),             	/* disable chip */
 252:..\..\..\u8g2\u8g2\csrc/u8x8_d_ssd1306_96x40.c ****   U8X8_END()             			/* end of sequence */
 253:..\..\..\u8g2\u8g2\csrc/u8x8_d_ssd1306_96x40.c **** };
 254:..\..\..\u8g2\u8g2\csrc/u8x8_d_ssd1306_96x40.c **** 
 255:..\..\..\u8g2\u8g2\csrc/u8x8_d_ssd1306_96x40.c **** static const uint8_t u8x8_d_ssd1306_96x39_flip0_seq[] = {
 256:..\..\..\u8g2\u8g2\csrc/u8x8_d_ssd1306_96x40.c ****   U8X8_START_TRANSFER(),             	/* enable chip, delay is part of the transfer start */
 257:..\..\..\u8g2\u8g2\csrc/u8x8_d_ssd1306_96x40.c ****   U8X8_C(0x0a1),				/* segment remap a0/a1*/
 258:..\..\..\u8g2\u8g2\csrc/u8x8_d_ssd1306_96x40.c ****   U8X8_C(0x0c8),				/* c0: scan dir normal, c8: reverse */
 259:..\..\..\u8g2\u8g2\csrc/u8x8_d_ssd1306_96x40.c ****   U8X8_C(0x041),		                /* set display start line to 1 */
 260:..\..\..\u8g2\u8g2\csrc/u8x8_d_ssd1306_96x40.c ****   U8X8_END_TRANSFER(),             	/* disable chip */
 261:..\..\..\u8g2\u8g2\csrc/u8x8_d_ssd1306_96x40.c ****   U8X8_END()             			/* end of sequence */
 262:..\..\..\u8g2\u8g2\csrc/u8x8_d_ssd1306_96x40.c **** };
 263:..\..\..\u8g2\u8g2\csrc/u8x8_d_ssd1306_96x40.c **** 
 264:..\..\..\u8g2\u8g2\csrc/u8x8_d_ssd1306_96x40.c **** static const uint8_t u8x8_d_ssd1306_96x39_flip1_seq[] = {
 265:..\..\..\u8g2\u8g2\csrc/u8x8_d_ssd1306_96x40.c ****   U8X8_START_TRANSFER(),             	/* enable chip, delay is part of the transfer start */
 266:..\..\..\u8g2\u8g2\csrc/u8x8_d_ssd1306_96x40.c ****   U8X8_C(0x0a0),				/* segment remap a0/a1*/
 267:..\..\..\u8g2\u8g2\csrc/u8x8_d_ssd1306_96x40.c ****   U8X8_C(0x0c0),				/* c0: scan dir normal, c8: reverse */
 268:..\..\..\u8g2\u8g2\csrc/u8x8_d_ssd1306_96x40.c ****   U8X8_C(0x040),		                /* set display start line to 0 */
 269:..\..\..\u8g2\u8g2\csrc/u8x8_d_ssd1306_96x40.c ****   U8X8_END_TRANSFER(),             	/* disable chip */
 270:..\..\..\u8g2\u8g2\csrc/u8x8_d_ssd1306_96x40.c ****   U8X8_END()             			/* end of sequence */
 271:..\..\..\u8g2\u8g2\csrc/u8x8_d_ssd1306_96x40.c **** };
 272:..\..\..\u8g2\u8g2\csrc/u8x8_d_ssd1306_96x40.c **** 
 273:..\..\..\u8g2\u8g2\csrc/u8x8_d_ssd1306_96x40.c **** 
 274:..\..\..\u8g2\u8g2\csrc/u8x8_d_ssd1306_96x40.c **** static const u8x8_display_info_t u8x8_ssd1306_96x39_display_info =
 275:..\..\..\u8g2\u8g2\csrc/u8x8_d_ssd1306_96x40.c **** {
 276:..\..\..\u8g2\u8g2\csrc/u8x8_d_ssd1306_96x40.c ****   /* chip_enable_level = */ 0,
ARM GAS  C:\Users\jesse\AppData\Local\Temp\ccencdYt.s 			page 11


 277:..\..\..\u8g2\u8g2\csrc/u8x8_d_ssd1306_96x40.c ****   /* chip_disable_level = */ 1,
 278:..\..\..\u8g2\u8g2\csrc/u8x8_d_ssd1306_96x40.c ****   
 279:..\..\..\u8g2\u8g2\csrc/u8x8_d_ssd1306_96x40.c ****   /* post_chip_enable_wait_ns = */ 20,
 280:..\..\..\u8g2\u8g2\csrc/u8x8_d_ssd1306_96x40.c ****   /* pre_chip_disable_wait_ns = */ 10,
 281:..\..\..\u8g2\u8g2\csrc/u8x8_d_ssd1306_96x40.c ****   /* reset_pulse_width_ms = */ 100, 	/* SSD1306: 3 us */
 282:..\..\..\u8g2\u8g2\csrc/u8x8_d_ssd1306_96x40.c ****   /* post_reset_wait_ms = */ 100, 	/* OLEDs need much longer setup time */
 283:..\..\..\u8g2\u8g2\csrc/u8x8_d_ssd1306_96x40.c ****   /* sda_setup_time_ns = */ 50,		/* SSD1306: 15ns, but cycle time is 100ns, so use 100/2 */
 284:..\..\..\u8g2\u8g2\csrc/u8x8_d_ssd1306_96x40.c ****   /* sck_pulse_width_ns = */ 50,	/* SSD1306: 20ns, but cycle time is 100ns, so use 100/2, AVR: belo
 285:..\..\..\u8g2\u8g2\csrc/u8x8_d_ssd1306_96x40.c ****   /* sck_clock_hz = */ 8000000UL,	/* since Arduino 1.6.0, the SPI bus speed in Hz. Should be  10000
 286:..\..\..\u8g2\u8g2\csrc/u8x8_d_ssd1306_96x40.c ****   /* spi_mode = */ 0,		/* active high, rising edge */
 287:..\..\..\u8g2\u8g2\csrc/u8x8_d_ssd1306_96x40.c ****   /* i2c_bus_clock_100kHz = */ 4,
 288:..\..\..\u8g2\u8g2\csrc/u8x8_d_ssd1306_96x40.c ****   /* data_setup_time_ns = */ 40,
 289:..\..\..\u8g2\u8g2\csrc/u8x8_d_ssd1306_96x40.c ****   /* write_pulse_width_ns = */ 150,	/* SSD1306: cycle time is 300ns, so use 300/2 = 150 */
 290:..\..\..\u8g2\u8g2\csrc/u8x8_d_ssd1306_96x40.c ****   /* tile_width = */ 12,
 291:..\..\..\u8g2\u8g2\csrc/u8x8_d_ssd1306_96x40.c ****   /* tile_hight = */ 5,
 292:..\..\..\u8g2\u8g2\csrc/u8x8_d_ssd1306_96x40.c ****   /* default_x_offset = */ 32,
 293:..\..\..\u8g2\u8g2\csrc/u8x8_d_ssd1306_96x40.c ****   /* flipmode_x_offset = */ 0,
 294:..\..\..\u8g2\u8g2\csrc/u8x8_d_ssd1306_96x40.c ****   /* pixel_width = */ 96,
 295:..\..\..\u8g2\u8g2\csrc/u8x8_d_ssd1306_96x40.c ****   /* pixel_height = */ 39
 296:..\..\..\u8g2\u8g2\csrc/u8x8_d_ssd1306_96x40.c **** };
 297:..\..\..\u8g2\u8g2\csrc/u8x8_d_ssd1306_96x40.c **** 
 298:..\..\..\u8g2\u8g2\csrc/u8x8_d_ssd1306_96x40.c **** uint8_t u8x8_d_ssd1306_96x39(u8x8_t *u8x8, uint8_t msg, uint8_t arg_int, void *arg_ptr)
 299:..\..\..\u8g2\u8g2\csrc/u8x8_d_ssd1306_96x40.c **** {
 276              		.loc 1 299 0
 277              		.cfi_startproc
 278              		@ args = 0, pretend = 0, frame = 0
 279              		@ frame_needed = 0, uses_anonymous_args = 0
 280              	.LVL37:
 300:..\..\..\u8g2\u8g2\csrc/u8x8_d_ssd1306_96x40.c ****     if ( msg == U8X8_MSG_DISPLAY_SETUP_MEMORY )
 281              		.loc 1 300 0
 282 0000 0929     		cmp	r1, #9
 299:..\..\..\u8g2\u8g2\csrc/u8x8_d_ssd1306_96x40.c ****     if ( msg == U8X8_MSG_DISPLAY_SETUP_MEMORY )
 283              		.loc 1 299 0
 284 0002 2DE9F041 		push	{r4, r5, r6, r7, r8, lr}
 285              		.cfi_def_cfa_offset 24
 286              		.cfi_offset 4, -24
 287              		.cfi_offset 5, -20
 288              		.cfi_offset 6, -16
 289              		.cfi_offset 7, -12
 290              		.cfi_offset 8, -8
 291              		.cfi_offset 14, -4
 299:..\..\..\u8g2\u8g2\csrc/u8x8_d_ssd1306_96x40.c ****     if ( msg == U8X8_MSG_DISPLAY_SETUP_MEMORY )
 292              		.loc 1 299 0
 293 0006 0446     		mov	r4, r0
 294 0008 0D46     		mov	r5, r1
 295 000a 1646     		mov	r6, r2
 296 000c 1F46     		mov	r7, r3
 297              		.loc 1 300 0
 298 000e 03D1     		bne	.L27
 301:..\..\..\u8g2\u8g2\csrc/u8x8_d_ssd1306_96x40.c ****     {
 302:..\..\..\u8g2\u8g2\csrc/u8x8_d_ssd1306_96x40.c ****       u8x8_d_helper_display_setup_memory(u8x8, &u8x8_ssd1306_96x39_display_info);
 299              		.loc 1 302 0
 300 0010 1349     		ldr	r1, .L33
 301              	.LVL38:
 302 0012 FFF7FEFF 		bl	u8x8_d_helper_display_setup_memory
 303              	.LVL39:
 303:..\..\..\u8g2\u8g2\csrc/u8x8_d_ssd1306_96x40.c ****       return 1;
ARM GAS  C:\Users\jesse\AppData\Local\Temp\ccencdYt.s 			page 12


 304              		.loc 1 303 0
 305 0016 20E0     		b	.L28
 306              	.LVL40:
 307              	.L27:
 304:..\..\..\u8g2\u8g2\csrc/u8x8_d_ssd1306_96x40.c ****     }
 305:..\..\..\u8g2\u8g2\csrc/u8x8_d_ssd1306_96x40.c ****     else if ( msg == U8X8_MSG_DISPLAY_INIT )
 308              		.loc 1 305 0
 309 0018 0A29     		cmp	r1, #10
 310 001a 06D1     		bne	.L29
 306:..\..\..\u8g2\u8g2\csrc/u8x8_d_ssd1306_96x40.c ****     {
 307:..\..\..\u8g2\u8g2\csrc/u8x8_d_ssd1306_96x40.c ****       u8x8_d_helper_display_init(u8x8);
 311              		.loc 1 307 0
 312 001c FFF7FEFF 		bl	u8x8_d_helper_display_init
 313              	.LVL41:
 308:..\..\..\u8g2\u8g2\csrc/u8x8_d_ssd1306_96x40.c ****       u8x8_cad_SendSequence(u8x8, u8x8_d_ssd1306_96x39_init_seq);    
 314              		.loc 1 308 0
 315 0020 1049     		ldr	r1, .L33+4
 316 0022 2046     		mov	r0, r4
 317 0024 FFF7FEFF 		bl	u8x8_cad_SendSequence
 318              	.LVL42:
 309:..\..\..\u8g2\u8g2\csrc/u8x8_d_ssd1306_96x40.c ****       return 1;
 319              		.loc 1 309 0
 320 0028 17E0     		b	.L28
 321              	.LVL43:
 322              	.L29:
 310:..\..\..\u8g2\u8g2\csrc/u8x8_d_ssd1306_96x40.c ****     }
 311:..\..\..\u8g2\u8g2\csrc/u8x8_d_ssd1306_96x40.c ****     else if ( msg == U8X8_MSG_DISPLAY_SET_FLIP_MODE )
 323              		.loc 1 311 0
 324 002a 0D29     		cmp	r1, #13
 325 002c 0DD1     		bne	.L30
 312:..\..\..\u8g2\u8g2\csrc/u8x8_d_ssd1306_96x40.c ****     {
 313:..\..\..\u8g2\u8g2\csrc/u8x8_d_ssd1306_96x40.c ****       if ( arg_int == 0 )
 326              		.loc 1 313 0
 327 002e 2AB9     		cbnz	r2, .L31
 314:..\..\..\u8g2\u8g2\csrc/u8x8_d_ssd1306_96x40.c ****       {
 315:..\..\..\u8g2\u8g2\csrc/u8x8_d_ssd1306_96x40.c **** 	u8x8_cad_SendSequence(u8x8, u8x8_d_ssd1306_96x39_flip0_seq);
 328              		.loc 1 315 0
 329 0030 0D49     		ldr	r1, .L33+8
 330              	.LVL44:
 331 0032 FFF7FEFF 		bl	u8x8_cad_SendSequence
 332              	.LVL45:
 316:..\..\..\u8g2\u8g2\csrc/u8x8_d_ssd1306_96x40.c **** 	u8x8->x_offset = u8x8->display_info->default_x_offset;
 333              		.loc 1 316 0
 334 0036 2368     		ldr	r3, [r4]
 335 0038 9B7C     		ldrb	r3, [r3, #18]	@ zero_extendqisi2
 336 003a 04E0     		b	.L32
 337              	.LVL46:
 338              	.L31:
 317:..\..\..\u8g2\u8g2\csrc/u8x8_d_ssd1306_96x40.c ****       }
 318:..\..\..\u8g2\u8g2\csrc/u8x8_d_ssd1306_96x40.c ****       else
 319:..\..\..\u8g2\u8g2\csrc/u8x8_d_ssd1306_96x40.c ****       {
 320:..\..\..\u8g2\u8g2\csrc/u8x8_d_ssd1306_96x40.c **** 	u8x8_cad_SendSequence(u8x8, u8x8_d_ssd1306_96x39_flip1_seq);
 339              		.loc 1 320 0
 340 003c 0B49     		ldr	r1, .L33+12
 341              	.LVL47:
 342 003e FFF7FEFF 		bl	u8x8_cad_SendSequence
 343              	.LVL48:
ARM GAS  C:\Users\jesse\AppData\Local\Temp\ccencdYt.s 			page 13


 321:..\..\..\u8g2\u8g2\csrc/u8x8_d_ssd1306_96x40.c **** 	u8x8->x_offset = u8x8->display_info->flipmode_x_offset;
 344              		.loc 1 321 0
 345 0042 2368     		ldr	r3, [r4]
 346 0044 DB7C     		ldrb	r3, [r3, #19]	@ zero_extendqisi2
 347              	.L32:
 348 0046 84F82230 		strb	r3, [r4, #34]
 349              	.L30:
 322:..\..\..\u8g2\u8g2\csrc/u8x8_d_ssd1306_96x40.c ****       }
 323:..\..\..\u8g2\u8g2\csrc/u8x8_d_ssd1306_96x40.c ****     }
 324:..\..\..\u8g2\u8g2\csrc/u8x8_d_ssd1306_96x40.c ****     return u8x8_d_ssd1306_96x40_generic(u8x8, msg, arg_int, arg_ptr);
 350              		.loc 1 324 0
 351 004a 3B46     		mov	r3, r7
 352 004c 3246     		mov	r2, r6
 353 004e 2946     		mov	r1, r5
 354 0050 2046     		mov	r0, r4
 325:..\..\..\u8g2\u8g2\csrc/u8x8_d_ssd1306_96x40.c **** }
 355              		.loc 1 325 0
 356 0052 BDE8F041 		pop	{r4, r5, r6, r7, r8, lr}
 357              		.cfi_remember_state
 358              		.cfi_restore 14
 359              		.cfi_restore 8
 360              		.cfi_restore 7
 361              		.cfi_restore 6
 362              		.cfi_restore 5
 363              		.cfi_restore 4
 364              		.cfi_def_cfa_offset 0
 365              	.LVL49:
 324:..\..\..\u8g2\u8g2\csrc/u8x8_d_ssd1306_96x40.c **** }
 366              		.loc 1 324 0
 367 0056 FFF7FEBF 		b	u8x8_d_ssd1306_96x40_generic
 368              	.LVL50:
 369              	.L28:
 370              		.cfi_restore_state
 371              		.loc 1 325 0
 372 005a 0120     		movs	r0, #1
 373 005c BDE8F081 		pop	{r4, r5, r6, r7, r8, pc}
 374              	.LVL51:
 375              	.L34:
 376              		.align	2
 377              	.L33:
 378 0060 68000000 		.word	.LANCHOR0+104
 379 0064 80000000 		.word	.LANCHOR0+128
 380 0068 B5000000 		.word	.LANCHOR0+181
 381 006c BE000000 		.word	.LANCHOR0+190
 382              		.cfi_endproc
 383              	.LFE2:
 384              		.size	u8x8_d_ssd1306_96x39, .-u8x8_d_ssd1306_96x39
 385              		.section	.rodata
 386              		.align	2
 387              		.set	.LANCHOR0,. + 0
 388              		.type	u8x8_d_ssd1306_96x40_powersave0_seq, %object
 389              		.size	u8x8_d_ssd1306_96x40_powersave0_seq, 5
 390              	u8x8_d_ssd1306_96x40_powersave0_seq:
 391 0000 18       		.byte	24
 392 0001 15       		.byte	21
 393 0002 AF       		.byte	-81
 394 0003 19       		.byte	25
ARM GAS  C:\Users\jesse\AppData\Local\Temp\ccencdYt.s 			page 14


 395 0004 FF       		.byte	-1
 396              		.type	u8x8_d_ssd1306_96x40_powersave1_seq, %object
 397              		.size	u8x8_d_ssd1306_96x40_powersave1_seq, 5
 398              	u8x8_d_ssd1306_96x40_powersave1_seq:
 399 0005 18       		.byte	24
 400 0006 15       		.byte	21
 401 0007 AE       		.byte	-82
 402 0008 19       		.byte	25
 403 0009 FF       		.byte	-1
 404              		.type	u8x8_d_ssd1306_96x40_flip0_seq, %object
 405              		.size	u8x8_d_ssd1306_96x40_flip0_seq, 7
 406              	u8x8_d_ssd1306_96x40_flip0_seq:
 407 000a 18       		.byte	24
 408 000b 15       		.byte	21
 409 000c A1       		.byte	-95
 410 000d 15       		.byte	21
 411 000e C8       		.byte	-56
 412 000f 19       		.byte	25
 413 0010 FF       		.byte	-1
 414              		.type	u8x8_d_ssd1306_96x40_flip1_seq, %object
 415              		.size	u8x8_d_ssd1306_96x40_flip1_seq, 7
 416              	u8x8_d_ssd1306_96x40_flip1_seq:
 417 0011 18       		.byte	24
 418 0012 15       		.byte	21
 419 0013 A0       		.byte	-96
 420 0014 15       		.byte	21
 421 0015 C0       		.byte	-64
 422 0016 19       		.byte	25
 423 0017 FF       		.byte	-1
 424              		.type	u8x8_ssd1306_96x40_display_info, %object
 425              		.size	u8x8_ssd1306_96x40_display_info, 24
 426              	u8x8_ssd1306_96x40_display_info:
 427 0018 00       		.byte	0
 428 0019 01       		.byte	1
 429 001a 14       		.byte	20
 430 001b 0A       		.byte	10
 431 001c 64       		.byte	100
 432 001d 64       		.byte	100
 433 001e 32       		.byte	50
 434 001f 32       		.byte	50
 435 0020 00127A00 		.word	8000000
 436 0024 00       		.byte	0
 437 0025 04       		.byte	4
 438 0026 28       		.byte	40
 439 0027 96       		.byte	-106
 440 0028 0C       		.byte	12
 441 0029 05       		.byte	5
 442 002a 00       		.byte	0
 443 002b 20       		.byte	32
 444 002c 6000     		.short	96
 445 002e 2800     		.short	40
 446              		.type	u8x8_d_ssd1306_96x40_init_seq, %object
 447              		.size	u8x8_d_ssd1306_96x40_init_seq, 53
 448              	u8x8_d_ssd1306_96x40_init_seq:
 449 0030 18       		.byte	24
 450 0031 15       		.byte	21
 451 0032 AE       		.byte	-82
ARM GAS  C:\Users\jesse\AppData\Local\Temp\ccencdYt.s 			page 15


 452 0033 15       		.byte	21
 453 0034 D5       		.byte	-43
 454 0035 16       		.byte	22
 455 0036 80       		.byte	-128
 456 0037 15       		.byte	21
 457 0038 A8       		.byte	-88
 458 0039 16       		.byte	22
 459 003a 27       		.byte	39
 460 003b 15       		.byte	21
 461 003c D3       		.byte	-45
 462 003d 16       		.byte	22
 463 003e 00       		.byte	0
 464 003f 15       		.byte	21
 465 0040 40       		.byte	64
 466 0041 15       		.byte	21
 467 0042 8D       		.byte	-115
 468 0043 16       		.byte	22
 469 0044 14       		.byte	20
 470 0045 15       		.byte	21
 471 0046 20       		.byte	32
 472 0047 16       		.byte	22
 473 0048 00       		.byte	0
 474 0049 15       		.byte	21
 475 004a A1       		.byte	-95
 476 004b 15       		.byte	21
 477 004c C8       		.byte	-56
 478 004d 15       		.byte	21
 479 004e DA       		.byte	-38
 480 004f 16       		.byte	22
 481 0050 02       		.byte	2
 482 0051 15       		.byte	21
 483 0052 81       		.byte	-127
 484 0053 16       		.byte	22
 485 0054 AF       		.byte	-81
 486 0055 15       		.byte	21
 487 0056 D9       		.byte	-39
 488 0057 16       		.byte	22
 489 0058 F1       		.byte	-15
 490 0059 15       		.byte	21
 491 005a DB       		.byte	-37
 492 005b 16       		.byte	22
 493 005c 20       		.byte	32
 494 005d 15       		.byte	21
 495 005e 2E       		.byte	46
 496 005f 15       		.byte	21
 497 0060 A4       		.byte	-92
 498 0061 15       		.byte	21
 499 0062 A6       		.byte	-90
 500 0063 19       		.byte	25
 501 0064 FF       		.byte	-1
 502 0065 000000   		.space	3
 503              		.type	u8x8_ssd1306_96x39_display_info, %object
 504              		.size	u8x8_ssd1306_96x39_display_info, 24
 505              	u8x8_ssd1306_96x39_display_info:
 506 0068 00       		.byte	0
 507 0069 01       		.byte	1
 508 006a 14       		.byte	20
ARM GAS  C:\Users\jesse\AppData\Local\Temp\ccencdYt.s 			page 16


 509 006b 0A       		.byte	10
 510 006c 64       		.byte	100
 511 006d 64       		.byte	100
 512 006e 32       		.byte	50
 513 006f 32       		.byte	50
 514 0070 00127A00 		.word	8000000
 515 0074 00       		.byte	0
 516 0075 04       		.byte	4
 517 0076 28       		.byte	40
 518 0077 96       		.byte	-106
 519 0078 0C       		.byte	12
 520 0079 05       		.byte	5
 521 007a 20       		.byte	32
 522 007b 00       		.byte	0
 523 007c 6000     		.short	96
 524 007e 2700     		.short	39
 525              		.type	u8x8_d_ssd1306_96x39_init_seq, %object
 526              		.size	u8x8_d_ssd1306_96x39_init_seq, 53
 527              	u8x8_d_ssd1306_96x39_init_seq:
 528 0080 18       		.byte	24
 529 0081 15       		.byte	21
 530 0082 AE       		.byte	-82
 531 0083 15       		.byte	21
 532 0084 D5       		.byte	-43
 533 0085 16       		.byte	22
 534 0086 80       		.byte	-128
 535 0087 15       		.byte	21
 536 0088 A8       		.byte	-88
 537 0089 16       		.byte	22
 538 008a 27       		.byte	39
 539 008b 15       		.byte	21
 540 008c D3       		.byte	-45
 541 008d 16       		.byte	22
 542 008e 00       		.byte	0
 543 008f 15       		.byte	21
 544 0090 40       		.byte	64
 545 0091 15       		.byte	21
 546 0092 8D       		.byte	-115
 547 0093 16       		.byte	22
 548 0094 14       		.byte	20
 549 0095 15       		.byte	21
 550 0096 20       		.byte	32
 551 0097 16       		.byte	22
 552 0098 00       		.byte	0
 553 0099 15       		.byte	21
 554 009a A1       		.byte	-95
 555 009b 15       		.byte	21
 556 009c C8       		.byte	-56
 557 009d 15       		.byte	21
 558 009e DA       		.byte	-38
 559 009f 16       		.byte	22
 560 00a0 10       		.byte	16
 561 00a1 15       		.byte	21
 562 00a2 81       		.byte	-127
 563 00a3 16       		.byte	22
 564 00a4 AF       		.byte	-81
 565 00a5 15       		.byte	21
ARM GAS  C:\Users\jesse\AppData\Local\Temp\ccencdYt.s 			page 17


 566 00a6 D9       		.byte	-39
 567 00a7 16       		.byte	22
 568 00a8 F1       		.byte	-15
 569 00a9 15       		.byte	21
 570 00aa DB       		.byte	-37
 571 00ab 16       		.byte	22
 572 00ac 20       		.byte	32
 573 00ad 15       		.byte	21
 574 00ae 2E       		.byte	46
 575 00af 15       		.byte	21
 576 00b0 A4       		.byte	-92
 577 00b1 15       		.byte	21
 578 00b2 A6       		.byte	-90
 579 00b3 19       		.byte	25
 580 00b4 FF       		.byte	-1
 581              		.type	u8x8_d_ssd1306_96x39_flip0_seq, %object
 582              		.size	u8x8_d_ssd1306_96x39_flip0_seq, 9
 583              	u8x8_d_ssd1306_96x39_flip0_seq:
 584 00b5 18       		.byte	24
 585 00b6 15       		.byte	21
 586 00b7 A1       		.byte	-95
 587 00b8 15       		.byte	21
 588 00b9 C8       		.byte	-56
 589 00ba 15       		.byte	21
 590 00bb 41       		.byte	65
 591 00bc 19       		.byte	25
 592 00bd FF       		.byte	-1
 593              		.type	u8x8_d_ssd1306_96x39_flip1_seq, %object
 594              		.size	u8x8_d_ssd1306_96x39_flip1_seq, 9
 595              	u8x8_d_ssd1306_96x39_flip1_seq:
 596 00be 18       		.byte	24
 597 00bf 15       		.byte	21
 598 00c0 A0       		.byte	-96
 599 00c1 15       		.byte	21
 600 00c2 C0       		.byte	-64
 601 00c3 15       		.byte	21
 602 00c4 40       		.byte	64
 603 00c5 19       		.byte	25
 604 00c6 FF       		.byte	-1
 605              		.text
 606              	.Letext0:
 607              		.file 2 "c:\\program files (x86)\\cypress\\psoc creator\\4.4\\psoc creator\\import\\gnu\\arm\\5.4.
 608              		.file 3 "c:\\program files (x86)\\cypress\\psoc creator\\4.4\\psoc creator\\import\\gnu\\arm\\5.4.
 609              		.file 4 "..\\..\\..\\u8g2\\u8g2\\csrc\\u8x8.h"