ARM GAS  C:\Users\jesse\AppData\Local\Temp\ccr21w6F.s 			page 1


   1              		.syntax unified
   2              		.cpu cortex-m3
   3              		.fpu softvfp
   4              		.eabi_attribute 20, 1
   5              		.eabi_attribute 21, 1
   6              		.eabi_attribute 23, 3
   7              		.eabi_attribute 24, 1
   8              		.eabi_attribute 25, 1
   9              		.eabi_attribute 26, 1
  10              		.eabi_attribute 30, 4
  11              		.eabi_attribute 34, 1
  12              		.eabi_attribute 18, 4
  13              		.thumb
  14              		.syntax unified
  15              		.file	"u8x8_d_sed1330.c"
  16              		.text
  17              	.Ltext0:
  18              		.cfi_sections	.debug_frame
  19              		.section	.text.u8x8_d_sed1330_common,"ax",%progbits
  20              		.align	1
  21              		.global	u8x8_d_sed1330_common
  22              		.thumb
  23              		.thumb_func
  24              		.type	u8x8_d_sed1330_common, %function
  25              	u8x8_d_sed1330_common:
  26              	.LFB0:
  27              		.file 1 "..\\..\\..\\u8g2\\u8g2\\csrc\\u8x8_d_sed1330.c"
   1:..\..\..\u8g2\u8g2\csrc/u8x8_d_sed1330.c **** /*
   2:..\..\..\u8g2\u8g2\csrc/u8x8_d_sed1330.c **** 
   3:..\..\..\u8g2\u8g2\csrc/u8x8_d_sed1330.c ****   u8x8_d_sed1330.c
   4:..\..\..\u8g2\u8g2\csrc/u8x8_d_sed1330.c ****   
   5:..\..\..\u8g2\u8g2\csrc/u8x8_d_sed1330.c ****   Universal 8bit Graphics Library (https://github.com/olikraus/u8g2/)
   6:..\..\..\u8g2\u8g2\csrc/u8x8_d_sed1330.c **** 
   7:..\..\..\u8g2\u8g2\csrc/u8x8_d_sed1330.c ****   Copyright (c) 2016, olikraus@gmail.com
   8:..\..\..\u8g2\u8g2\csrc/u8x8_d_sed1330.c ****   All rights reserved.
   9:..\..\..\u8g2\u8g2\csrc/u8x8_d_sed1330.c **** 
  10:..\..\..\u8g2\u8g2\csrc/u8x8_d_sed1330.c ****   Redistribution and use in source and binary forms, with or without modification, 
  11:..\..\..\u8g2\u8g2\csrc/u8x8_d_sed1330.c ****   are permitted provided that the following conditions are met:
  12:..\..\..\u8g2\u8g2\csrc/u8x8_d_sed1330.c **** 
  13:..\..\..\u8g2\u8g2\csrc/u8x8_d_sed1330.c ****   * Redistributions of source code must retain the above copyright notice, this list 
  14:..\..\..\u8g2\u8g2\csrc/u8x8_d_sed1330.c ****     of conditions and the following disclaimer.
  15:..\..\..\u8g2\u8g2\csrc/u8x8_d_sed1330.c ****     
  16:..\..\..\u8g2\u8g2\csrc/u8x8_d_sed1330.c ****   * Redistributions in binary form must reproduce the above copyright notice, this 
  17:..\..\..\u8g2\u8g2\csrc/u8x8_d_sed1330.c ****     list of conditions and the following disclaimer in the documentation and/or other 
  18:..\..\..\u8g2\u8g2\csrc/u8x8_d_sed1330.c ****     materials provided with the distribution.
  19:..\..\..\u8g2\u8g2\csrc/u8x8_d_sed1330.c **** 
  20:..\..\..\u8g2\u8g2\csrc/u8x8_d_sed1330.c ****   THIS SOFTWARE IS PROVIDED BY THE COPYRIGHT HOLDERS AND 
  21:..\..\..\u8g2\u8g2\csrc/u8x8_d_sed1330.c ****   CONTRIBUTORS "AS IS" AND ANY EXPRESS OR IMPLIED WARRANTIES, 
  22:..\..\..\u8g2\u8g2\csrc/u8x8_d_sed1330.c ****   INCLUDING, BUT NOT LIMITED TO, THE IMPLIED WARRANTIES OF 
  23:..\..\..\u8g2\u8g2\csrc/u8x8_d_sed1330.c ****   MERCHANTABILITY AND FITNESS FOR A PARTICULAR PURPOSE ARE 
  24:..\..\..\u8g2\u8g2\csrc/u8x8_d_sed1330.c ****   DISCLAIMED. IN NO EVENT SHALL THE COPYRIGHT HOLDER OR 
  25:..\..\..\u8g2\u8g2\csrc/u8x8_d_sed1330.c ****   CONTRIBUTORS BE LIABLE FOR ANY DIRECT, INDIRECT, INCIDENTAL, 
  26:..\..\..\u8g2\u8g2\csrc/u8x8_d_sed1330.c ****   SPECIAL, EXEMPLARY, OR CONSEQUENTIAL DAMAGES (INCLUDING, BUT 
  27:..\..\..\u8g2\u8g2\csrc/u8x8_d_sed1330.c ****   NOT LIMITED TO, PROCUREMENT OF SUBSTITUTE GOODS OR SERVICES; 
  28:..\..\..\u8g2\u8g2\csrc/u8x8_d_sed1330.c ****   LOSS OF USE, DATA, OR PROFITS; OR BUSINESS INTERRUPTION) HOWEVER 
  29:..\..\..\u8g2\u8g2\csrc/u8x8_d_sed1330.c ****   CAUSED AND ON ANY THEORY OF LIABILITY, WHETHER IN CONTRACT, 
  30:..\..\..\u8g2\u8g2\csrc/u8x8_d_sed1330.c ****   STRICT LIABILITY, OR TORT (INCLUDING NEGLIGENCE OR OTHERWISE) 
ARM GAS  C:\Users\jesse\AppData\Local\Temp\ccr21w6F.s 			page 2


  31:..\..\..\u8g2\u8g2\csrc/u8x8_d_sed1330.c ****   ARISING IN ANY WAY OUT OF THE USE OF THIS SOFTWARE, EVEN IF 
  32:..\..\..\u8g2\u8g2\csrc/u8x8_d_sed1330.c ****   ADVISED OF THE POSSIBILITY OF SUCH DAMAGE.  
  33:..\..\..\u8g2\u8g2\csrc/u8x8_d_sed1330.c **** 
  34:..\..\..\u8g2\u8g2\csrc/u8x8_d_sed1330.c **** 
  35:..\..\..\u8g2\u8g2\csrc/u8x8_d_sed1330.c ****   The device might also work with the RA8835, SED1335 and SED1336 controller.
  36:..\..\..\u8g2\u8g2\csrc/u8x8_d_sed1330.c ****   The following devices might be compatible:
  37:..\..\..\u8g2\u8g2\csrc/u8x8_d_sed1330.c ****     RA8835
  38:..\..\..\u8g2\u8g2\csrc/u8x8_d_sed1330.c ****     SED1330
  39:..\..\..\u8g2\u8g2\csrc/u8x8_d_sed1330.c ****     SED1335
  40:..\..\..\u8g2\u8g2\csrc/u8x8_d_sed1330.c ****     S1D13700
  41:..\..\..\u8g2\u8g2\csrc/u8x8_d_sed1330.c **** 
  42:..\..\..\u8g2\u8g2\csrc/u8x8_d_sed1330.c **** 
  43:..\..\..\u8g2\u8g2\csrc/u8x8_d_sed1330.c **** */
  44:..\..\..\u8g2\u8g2\csrc/u8x8_d_sed1330.c **** #include "u8x8.h"
  45:..\..\..\u8g2\u8g2\csrc/u8x8_d_sed1330.c **** 
  46:..\..\..\u8g2\u8g2\csrc/u8x8_d_sed1330.c **** 
  47:..\..\..\u8g2\u8g2\csrc/u8x8_d_sed1330.c **** 
  48:..\..\..\u8g2\u8g2\csrc/u8x8_d_sed1330.c **** static const uint8_t u8x8_d_sed1330_powersave0_seq[] = {
  49:..\..\..\u8g2\u8g2\csrc/u8x8_d_sed1330.c ****   U8X8_START_TRANSFER(),             	/* enable chip, delay is part of the transfer start */
  50:..\..\..\u8g2\u8g2\csrc/u8x8_d_sed1330.c ****   U8X8_CA(0x040, 0x030),		/* sys init (0x040) with one arg, where 0x030 is a wild guess */
  51:..\..\..\u8g2\u8g2\csrc/u8x8_d_sed1330.c ****   U8X8_CA(0x059, 0x004),               /* send display on command (hex 0x059, see p37 ) */
  52:..\..\..\u8g2\u8g2\csrc/u8x8_d_sed1330.c **** 							/* display cmd has one arg: 01010100 should enable all three blocks, but disable the cursor*
  53:..\..\..\u8g2\u8g2\csrc/u8x8_d_sed1330.c ****   
  54:..\..\..\u8g2\u8g2\csrc/u8x8_d_sed1330.c ****   U8X8_END_TRANSFER(),             	/* disable chip */
  55:..\..\..\u8g2\u8g2\csrc/u8x8_d_sed1330.c ****   U8X8_END()             			/* end of sequence */
  56:..\..\..\u8g2\u8g2\csrc/u8x8_d_sed1330.c **** };
  57:..\..\..\u8g2\u8g2\csrc/u8x8_d_sed1330.c **** 
  58:..\..\..\u8g2\u8g2\csrc/u8x8_d_sed1330.c **** static const uint8_t u8x8_d_sed1330_powersave1_seq[] = {
  59:..\..\..\u8g2\u8g2\csrc/u8x8_d_sed1330.c ****   U8X8_START_TRANSFER(),             	/* enable chip, delay is part of the transfer start */
  60:..\..\..\u8g2\u8g2\csrc/u8x8_d_sed1330.c ****   U8X8_CA(0x058, 0x000),               /* send display off command (hex 0x059, see p37) and turn of
  61:..\..\..\u8g2\u8g2\csrc/u8x8_d_sed1330.c ****   /* maybe send a sleep in cmd */
  62:..\..\..\u8g2\u8g2\csrc/u8x8_d_sed1330.c ****   //U8X8_C(0x053)				/* sleep in: 0x053 */
  63:..\..\..\u8g2\u8g2\csrc/u8x8_d_sed1330.c ****   U8X8_END_TRANSFER(),             	/* disable chip */
  64:..\..\..\u8g2\u8g2\csrc/u8x8_d_sed1330.c ****   U8X8_END()             			/* end of sequence */
  65:..\..\..\u8g2\u8g2\csrc/u8x8_d_sed1330.c **** };
  66:..\..\..\u8g2\u8g2\csrc/u8x8_d_sed1330.c **** 
  67:..\..\..\u8g2\u8g2\csrc/u8x8_d_sed1330.c **** 
  68:..\..\..\u8g2\u8g2\csrc/u8x8_d_sed1330.c **** uint8_t u8x8_d_sed1330_common(u8x8_t *u8x8, uint8_t msg, uint8_t arg_int, void *arg_ptr)
  69:..\..\..\u8g2\u8g2\csrc/u8x8_d_sed1330.c **** {
  28              		.loc 1 69 0
  29              		.cfi_startproc
  30              		@ args = 0, pretend = 0, frame = 0
  31              		@ frame_needed = 0, uses_anonymous_args = 0
  32              	.LVL0:
  70:..\..\..\u8g2\u8g2\csrc/u8x8_d_sed1330.c ****   uint8_t c, i;
  71:..\..\..\u8g2\u8g2\csrc/u8x8_d_sed1330.c ****   uint16_t y;
  72:..\..\..\u8g2\u8g2\csrc/u8x8_d_sed1330.c ****   uint8_t *ptr;
  73:..\..\..\u8g2\u8g2\csrc/u8x8_d_sed1330.c ****   switch(msg)
  33              		.loc 1 73 0
  34 0000 0B29     		cmp	r1, #11
  69:..\..\..\u8g2\u8g2\csrc/u8x8_d_sed1330.c ****   uint8_t c, i;
  35              		.loc 1 69 0
  36 0002 2DE9F041 		push	{r4, r5, r6, r7, r8, lr}
  37              		.cfi_def_cfa_offset 24
  38              		.cfi_offset 4, -24
  39              		.cfi_offset 5, -20
  40              		.cfi_offset 6, -16
ARM GAS  C:\Users\jesse\AppData\Local\Temp\ccr21w6F.s 			page 3


  41              		.cfi_offset 7, -12
  42              		.cfi_offset 8, -8
  43              		.cfi_offset 14, -4
  69:..\..\..\u8g2\u8g2\csrc/u8x8_d_sed1330.c ****   uint8_t c, i;
  44              		.loc 1 69 0
  45 0006 0446     		mov	r4, r0
  46 0008 1E46     		mov	r6, r3
  47              		.loc 1 73 0
  48 000a 0ED0     		beq	.L3
  49 000c 0F29     		cmp	r1, #15
  50 000e 3FD1     		bne	.L13
  51              	.LVL1:
  52              	.LBB4:
  53              	.LBB5:
  74:..\..\..\u8g2\u8g2\csrc/u8x8_d_sed1330.c ****   {
  75:..\..\..\u8g2\u8g2\csrc/u8x8_d_sed1330.c ****     /* U8X8_MSG_DISPLAY_SETUP_MEMORY is handled by the calling function */
  76:..\..\..\u8g2\u8g2\csrc/u8x8_d_sed1330.c ****     /*
  77:..\..\..\u8g2\u8g2\csrc/u8x8_d_sed1330.c ****     case U8X8_MSG_DISPLAY_SETUP_MEMORY:
  78:..\..\..\u8g2\u8g2\csrc/u8x8_d_sed1330.c ****       break;
  79:..\..\..\u8g2\u8g2\csrc/u8x8_d_sed1330.c ****     case U8X8_MSG_DISPLAY_INIT:
  80:..\..\..\u8g2\u8g2\csrc/u8x8_d_sed1330.c ****       break;
  81:..\..\..\u8g2\u8g2\csrc/u8x8_d_sed1330.c ****     */
  82:..\..\..\u8g2\u8g2\csrc/u8x8_d_sed1330.c ****     case U8X8_MSG_DISPLAY_SET_POWER_SAVE:
  83:..\..\..\u8g2\u8g2\csrc/u8x8_d_sed1330.c ****       if ( arg_int == 0 )
  84:..\..\..\u8g2\u8g2\csrc/u8x8_d_sed1330.c **** 	u8x8_cad_SendSequence(u8x8, u8x8_d_sed1330_powersave0_seq);
  85:..\..\..\u8g2\u8g2\csrc/u8x8_d_sed1330.c ****       else
  86:..\..\..\u8g2\u8g2\csrc/u8x8_d_sed1330.c **** 	u8x8_cad_SendSequence(u8x8, u8x8_d_sed1330_powersave1_seq);
  87:..\..\..\u8g2\u8g2\csrc/u8x8_d_sed1330.c ****       break;
  88:..\..\..\u8g2\u8g2\csrc/u8x8_d_sed1330.c ****     case U8X8_MSG_DISPLAY_DRAW_TILE:
  89:..\..\..\u8g2\u8g2\csrc/u8x8_d_sed1330.c ****       y = (((u8x8_tile_t *)arg_ptr)->y_pos);
  90:..\..\..\u8g2\u8g2\csrc/u8x8_d_sed1330.c ****       y*=8;
  91:..\..\..\u8g2\u8g2\csrc/u8x8_d_sed1330.c ****       y*= u8x8->display_info->tile_width;
  54              		.loc 1 91 0
  55 0010 0368     		ldr	r3, [r0]
  56              	.LVL2:
  57 0012 B579     		ldrb	r5, [r6, #6]	@ zero_extendqisi2
  58 0014 1A7C     		ldrb	r2, [r3, #16]	@ zero_extendqisi2
  59              	.LVL3:
  60 0016 5543     		muls	r5, r2, r5
  61 0018 ED00     		lsls	r5, r5, #3
  92:..\..\..\u8g2\u8g2\csrc/u8x8_d_sed1330.c ****     
  93:..\..\..\u8g2\u8g2\csrc/u8x8_d_sed1330.c ****       u8x8_cad_StartTransfer(u8x8);
  62              		.loc 1 93 0
  63 001a FFF7FEFF 		bl	u8x8_cad_StartTransfer
  64              	.LVL4:
  91:..\..\..\u8g2\u8g2\csrc/u8x8_d_sed1330.c ****     
  65              		.loc 1 91 0
  66 001e ADB2     		uxth	r5, r5
  67              	.LVL5:
  94:..\..\..\u8g2\u8g2\csrc/u8x8_d_sed1330.c ****     
  95:..\..\..\u8g2\u8g2\csrc/u8x8_d_sed1330.c ****       c = ((u8x8_tile_t *)arg_ptr)->cnt;	/* number of tiles */
  68              		.loc 1 95 0
  69 0020 96F80480 		ldrb	r8, [r6, #4]	@ zero_extendqisi2
  70              	.LVL6:
  96:..\..\..\u8g2\u8g2\csrc/u8x8_d_sed1330.c ****       ptr = ((u8x8_tile_t *)arg_ptr)->tile_ptr;	/* data ptr to the tiles */
  71              		.loc 1 96 0
  72 0024 3768     		ldr	r7, [r6]
ARM GAS  C:\Users\jesse\AppData\Local\Temp\ccr21w6F.s 			page 4


  73              	.LVL7:
  74 0026 0826     		movs	r6, #8
  75              	.LVL8:
  76 0028 06E0     		b	.L6
  77              	.LVL9:
  78              	.L3:
  79              	.LBE5:
  80              	.LBE4:
  83:..\..\..\u8g2\u8g2\csrc/u8x8_d_sed1330.c **** 	u8x8_cad_SendSequence(u8x8, u8x8_d_sed1330_powersave0_seq);
  81              		.loc 1 83 0
  82 002a 0AB9     		cbnz	r2, .L5
  84:..\..\..\u8g2\u8g2\csrc/u8x8_d_sed1330.c ****       else
  83              		.loc 1 84 0
  84 002c 1A49     		ldr	r1, .L14
  85              	.LVL10:
  86 002e 00E0     		b	.L11
  87              	.LVL11:
  88              	.L5:
  86:..\..\..\u8g2\u8g2\csrc/u8x8_d_sed1330.c ****       break;
  89              		.loc 1 86 0
  90 0030 1A49     		ldr	r1, .L14+4
  91              	.LVL12:
  92              	.L11:
  93 0032 FFF7FEFF 		bl	u8x8_cad_SendSequence
  94              	.LVL13:
  95 0036 28E0     		b	.L10
  96              	.LVL14:
  97              	.L6:
  98              	.LBB7:
  99              	.LBB6:
  97:..\..\..\u8g2\u8g2\csrc/u8x8_d_sed1330.c ****       for( i = 0; i < 8; i++ )
  98:..\..\..\u8g2\u8g2\csrc/u8x8_d_sed1330.c ****       {
  99:..\..\..\u8g2\u8g2\csrc/u8x8_d_sed1330.c **** 	u8x8_cad_SendCmd(u8x8, 0x046 );	/* CSRW command*/
 100              		.loc 1 99 0
 101 0038 4621     		movs	r1, #70
 102 003a 2046     		mov	r0, r4
 103 003c FFF7FEFF 		bl	u8x8_cad_SendCmd
 104              	.LVL15:
 100:..\..\..\u8g2\u8g2\csrc/u8x8_d_sed1330.c **** 	u8x8_cad_SendArg(u8x8, y&255);		/* CSRW low adr byte */
 105              		.loc 1 100 0
 106 0040 E9B2     		uxtb	r1, r5
 107 0042 2046     		mov	r0, r4
 108 0044 FFF7FEFF 		bl	u8x8_cad_SendArg
 109              	.LVL16:
 101:..\..\..\u8g2\u8g2\csrc/u8x8_d_sed1330.c **** 	u8x8_cad_SendArg(u8x8, y>>8);		/* CSRW high adr byte */
 110              		.loc 1 101 0
 111 0048 290A     		lsrs	r1, r5, #8
 112 004a 2046     		mov	r0, r4
 113 004c FFF7FEFF 		bl	u8x8_cad_SendArg
 114              	.LVL17:
 102:..\..\..\u8g2\u8g2\csrc/u8x8_d_sed1330.c **** 	u8x8_cad_SendCmd(u8x8, 0x042 );	/* MWRITE */
 115              		.loc 1 102 0
 116 0050 4221     		movs	r1, #66
 117 0052 2046     		mov	r0, r4
 118 0054 FFF7FEFF 		bl	u8x8_cad_SendCmd
 119              	.LVL18:
 103:..\..\..\u8g2\u8g2\csrc/u8x8_d_sed1330.c **** 	
ARM GAS  C:\Users\jesse\AppData\Local\Temp\ccr21w6F.s 			page 5


 104:..\..\..\u8g2\u8g2\csrc/u8x8_d_sed1330.c **** 	u8x8_cad_SendData(u8x8, c, ptr);	/* note: SendData can not handle more than 255 bytes, send one li
 120              		.loc 1 104 0
 121 0058 3A46     		mov	r2, r7
 122 005a 4146     		mov	r1, r8
 123 005c 2046     		mov	r0, r4
 124 005e FFF7FEFF 		bl	u8x8_cad_SendData
 125              	.LVL19:
 105:..\..\..\u8g2\u8g2\csrc/u8x8_d_sed1330.c **** 	
 106:..\..\..\u8g2\u8g2\csrc/u8x8_d_sed1330.c **** 	ptr += u8x8->display_info->tile_width;
 126              		.loc 1 106 0
 127 0062 2368     		ldr	r3, [r4]
 128 0064 013E     		subs	r6, r6, #1
 129              	.LVL20:
 130 0066 1B7C     		ldrb	r3, [r3, #16]	@ zero_extendqisi2
  97:..\..\..\u8g2\u8g2\csrc/u8x8_d_sed1330.c ****       {
 131              		.loc 1 97 0
 132 0068 16F0FF06 		ands	r6, r6, #255
 107:..\..\..\u8g2\u8g2\csrc/u8x8_d_sed1330.c **** 	y += u8x8->display_info->tile_width;
 133              		.loc 1 107 0
 134 006c 1D44     		add	r5, r5, r3
 135              	.LVL21:
 106:..\..\..\u8g2\u8g2\csrc/u8x8_d_sed1330.c **** 	y += u8x8->display_info->tile_width;
 136              		.loc 1 106 0
 137 006e 1F44     		add	r7, r7, r3
 138              	.LVL22:
 139              		.loc 1 107 0
 140 0070 ADB2     		uxth	r5, r5
 141              	.LVL23:
  97:..\..\..\u8g2\u8g2\csrc/u8x8_d_sed1330.c ****       {
 142              		.loc 1 97 0
 143 0072 E1D1     		bne	.L6
 108:..\..\..\u8g2\u8g2\csrc/u8x8_d_sed1330.c ****       }
 109:..\..\..\u8g2\u8g2\csrc/u8x8_d_sed1330.c **** 
 110:..\..\..\u8g2\u8g2\csrc/u8x8_d_sed1330.c ****       /* sometimes the display switches off... so just sent a display on command */
 111:..\..\..\u8g2\u8g2\csrc/u8x8_d_sed1330.c ****       u8x8_cad_SendCmd(u8x8, 0x059 );	/* display on */
 144              		.loc 1 111 0
 145 0074 5921     		movs	r1, #89
 146 0076 2046     		mov	r0, r4
 147 0078 FFF7FEFF 		bl	u8x8_cad_SendCmd
 148              	.LVL24:
 112:..\..\..\u8g2\u8g2\csrc/u8x8_d_sed1330.c ****       u8x8_cad_SendArg(u8x8, 0x004);	/* arg for display on */
 149              		.loc 1 112 0
 150 007c 0421     		movs	r1, #4
 151 007e 2046     		mov	r0, r4
 152 0080 FFF7FEFF 		bl	u8x8_cad_SendArg
 153              	.LVL25:
 113:..\..\..\u8g2\u8g2\csrc/u8x8_d_sed1330.c **** 
 114:..\..\..\u8g2\u8g2\csrc/u8x8_d_sed1330.c ****       u8x8_cad_EndTransfer(u8x8);
 154              		.loc 1 114 0
 155 0084 2046     		mov	r0, r4
 156 0086 FFF7FEFF 		bl	u8x8_cad_EndTransfer
 157              	.LVL26:
 158              	.L10:
 159 008a 0120     		movs	r0, #1
 160 008c BDE8F081 		pop	{r4, r5, r6, r7, r8, pc}
 161              	.LVL27:
 162              	.L13:
ARM GAS  C:\Users\jesse\AppData\Local\Temp\ccr21w6F.s 			page 6


 163              	.LBE6:
 164              	.LBE7:
 115:..\..\..\u8g2\u8g2\csrc/u8x8_d_sed1330.c ****       //u8x8->gpio_and_delay_cb(u8x8, U8X8_MSG_DELAY_NANO, 200, NULL);	/* extra dely required */
 116:..\..\..\u8g2\u8g2\csrc/u8x8_d_sed1330.c **** 
 117:..\..\..\u8g2\u8g2\csrc/u8x8_d_sed1330.c ****       break;
 118:..\..\..\u8g2\u8g2\csrc/u8x8_d_sed1330.c ****     default:
 119:..\..\..\u8g2\u8g2\csrc/u8x8_d_sed1330.c ****       return 0;
 165              		.loc 1 119 0
 166 0090 0020     		movs	r0, #0
 167              	.LVL28:
 120:..\..\..\u8g2\u8g2\csrc/u8x8_d_sed1330.c ****   }
 121:..\..\..\u8g2\u8g2\csrc/u8x8_d_sed1330.c ****   return 1;
 122:..\..\..\u8g2\u8g2\csrc/u8x8_d_sed1330.c **** }
 168              		.loc 1 122 0
 169 0092 BDE8F081 		pop	{r4, r5, r6, r7, r8, pc}
 170              	.LVL29:
 171              	.L15:
 172 0096 00BF     		.align	2
 173              	.L14:
 174 0098 00000000 		.word	.LANCHOR0
 175 009c 0B000000 		.word	.LANCHOR0+11
 176              		.cfi_endproc
 177              	.LFE0:
 178              		.size	u8x8_d_sed1330_common, .-u8x8_d_sed1330_common
 179              		.section	.text.u8x8_d_sed1330_240x128,"ax",%progbits
 180              		.align	1
 181              		.global	u8x8_d_sed1330_240x128
 182              		.thumb
 183              		.thumb_func
 184              		.type	u8x8_d_sed1330_240x128, %function
 185              	u8x8_d_sed1330_240x128:
 186              	.LFB1:
 123:..\..\..\u8g2\u8g2\csrc/u8x8_d_sed1330.c **** 
 124:..\..\..\u8g2\u8g2\csrc/u8x8_d_sed1330.c **** /*=============================================*/
 125:..\..\..\u8g2\u8g2\csrc/u8x8_d_sed1330.c **** 
 126:..\..\..\u8g2\u8g2\csrc/u8x8_d_sed1330.c **** 
 127:..\..\..\u8g2\u8g2\csrc/u8x8_d_sed1330.c **** static const u8x8_display_info_t u8x8_sed1330_240x128_display_info =
 128:..\..\..\u8g2\u8g2\csrc/u8x8_d_sed1330.c **** {
 129:..\..\..\u8g2\u8g2\csrc/u8x8_d_sed1330.c ****   /* chip_enable_level = */ 0,
 130:..\..\..\u8g2\u8g2\csrc/u8x8_d_sed1330.c ****   /* chip_disable_level = */ 1,
 131:..\..\..\u8g2\u8g2\csrc/u8x8_d_sed1330.c ****   
 132:..\..\..\u8g2\u8g2\csrc/u8x8_d_sed1330.c ****   /* post_chip_enable_wait_ns = */ 30,	/* G242CX Datasheet p5 */
 133:..\..\..\u8g2\u8g2\csrc/u8x8_d_sed1330.c ****   /* pre_chip_disable_wait_ns = */ 10,	/* G242CX Datasheet p5 */
 134:..\..\..\u8g2\u8g2\csrc/u8x8_d_sed1330.c ****   /* reset_pulse_width_ms = */ 1, 
 135:..\..\..\u8g2\u8g2\csrc/u8x8_d_sed1330.c ****   /* post_reset_wait_ms = */ 6, 
 136:..\..\..\u8g2\u8g2\csrc/u8x8_d_sed1330.c ****   /* sda_setup_time_ns = */ 20,		
 137:..\..\..\u8g2\u8g2\csrc/u8x8_d_sed1330.c ****   /* sck_pulse_width_ns = */  140,	
 138:..\..\..\u8g2\u8g2\csrc/u8x8_d_sed1330.c ****   /* sck_clock_hz = */ 1000000UL,	/* since Arduino 1.6.0, the SPI bus speed in Hz. Should be  10000
 139:..\..\..\u8g2\u8g2\csrc/u8x8_d_sed1330.c ****   /* spi_mode = */ 0,		
 140:..\..\..\u8g2\u8g2\csrc/u8x8_d_sed1330.c ****   /* i2c_bus_clock_100kHz = */ 4,
 141:..\..\..\u8g2\u8g2\csrc/u8x8_d_sed1330.c ****   /* data_setup_time_ns = */ 120,		/* G242CX Datasheet p5 */
 142:..\..\..\u8g2\u8g2\csrc/u8x8_d_sed1330.c ****   /* write_pulse_width_ns = */ 220,		/* G242CX Datasheet p5 */
 143:..\..\..\u8g2\u8g2\csrc/u8x8_d_sed1330.c ****   /* tile_width = */ 0x01e,
 144:..\..\..\u8g2\u8g2\csrc/u8x8_d_sed1330.c ****   /* tile_hight = */ 16,
 145:..\..\..\u8g2\u8g2\csrc/u8x8_d_sed1330.c ****   /* default_x_offset = */ 0,
 146:..\..\..\u8g2\u8g2\csrc/u8x8_d_sed1330.c ****   /* flipmode_x_offset = */ 0,
 147:..\..\..\u8g2\u8g2\csrc/u8x8_d_sed1330.c ****   /* pixel_width = */ 240,
ARM GAS  C:\Users\jesse\AppData\Local\Temp\ccr21w6F.s 			page 7


 148:..\..\..\u8g2\u8g2\csrc/u8x8_d_sed1330.c ****   /* pixel_height = */ 128
 149:..\..\..\u8g2\u8g2\csrc/u8x8_d_sed1330.c **** };
 150:..\..\..\u8g2\u8g2\csrc/u8x8_d_sed1330.c **** 
 151:..\..\..\u8g2\u8g2\csrc/u8x8_d_sed1330.c **** /* 240x128 Seiko G242C */
 152:..\..\..\u8g2\u8g2\csrc/u8x8_d_sed1330.c **** static const uint8_t u8x8_d_sed1330_240x128_init_seq[] = {
 153:..\..\..\u8g2\u8g2\csrc/u8x8_d_sed1330.c ****   U8X8_DLY(100),
 154:..\..\..\u8g2\u8g2\csrc/u8x8_d_sed1330.c ****   U8X8_START_TRANSFER(),             	/* enable chip, delay is part of the transfer start */
 155:..\..\..\u8g2\u8g2\csrc/u8x8_d_sed1330.c ****   U8X8_DLY(100),
 156:..\..\..\u8g2\u8g2\csrc/u8x8_d_sed1330.c **** 
 157:..\..\..\u8g2\u8g2\csrc/u8x8_d_sed1330.c ****   /* system init command, see also u8x8_d_sed1330_powersave0_seq */
 158:..\..\..\u8g2\u8g2\csrc/u8x8_d_sed1330.c ****   U8X8_CA(0x040, 0x030),		/* sys init (0x040) with one arg, where 0x030 is a wild guess */
 159:..\..\..\u8g2\u8g2\csrc/u8x8_d_sed1330.c ****   /* system init has total 8 parameters, so 7 more are here */
 160:..\..\..\u8g2\u8g2\csrc/u8x8_d_sed1330.c ****   U8X8_A(0x087),				/* no idea here... WF (topmost bit) is set to one because it is suggested in th
 161:..\..\..\u8g2\u8g2\csrc/u8x8_d_sed1330.c ****   U8X8_A(0x007),				/* FY: height of a char+1, does not matter here (hopefully), because we use gra
 162:..\..\..\u8g2\u8g2\csrc/u8x8_d_sed1330.c ****   U8X8_A(0x01d),				/* C/R: this could be the number of horizontal bytes - 1 (Value confirmed with 
 163:..\..\..\u8g2\u8g2\csrc/u8x8_d_sed1330.c ****   U8X8_A(0x050),					/* TC/R: According to app notes fOSC=6Mhz fFF=70Hz --> TC/R = 74d*/
 164:..\..\..\u8g2\u8g2\csrc/u8x8_d_sed1330.c ****   U8X8_A(0x080),				/* L/F: Lines per frame - 1, probably this is the height of the display - 1 (va
 165:..\..\..\u8g2\u8g2\csrc/u8x8_d_sed1330.c ****   U8X8_A(0x01e),				/* Low byte of the virtual screen size. (Value confirmed with app notes p41)   
 166:..\..\..\u8g2\u8g2\csrc/u8x8_d_sed1330.c ****   U8X8_A(0),					/* High byte of the virtual screen size, see also section 9.1.2 */
 167:..\..\..\u8g2\u8g2\csrc/u8x8_d_sed1330.c **** 	
 168:..\..\..\u8g2\u8g2\csrc/u8x8_d_sed1330.c ****   U8X8_C(0x044),				/* SCROLL */
 169:..\..\..\u8g2\u8g2\csrc/u8x8_d_sed1330.c ****   U8X8_A(0x000),				
 170:..\..\..\u8g2\u8g2\csrc/u8x8_d_sed1330.c ****   U8X8_A(0x000),				
 171:..\..\..\u8g2\u8g2\csrc/u8x8_d_sed1330.c ****   U8X8_A(0x080),
 172:..\..\..\u8g2\u8g2\csrc/u8x8_d_sed1330.c ****   U8X8_A(0x000),
 173:..\..\..\u8g2\u8g2\csrc/u8x8_d_sed1330.c ****   U8X8_A(0x040),
 174:..\..\..\u8g2\u8g2\csrc/u8x8_d_sed1330.c ****   U8X8_A(0x080),
 175:..\..\..\u8g2\u8g2\csrc/u8x8_d_sed1330.c ****   U8X8_A(0x000),
 176:..\..\..\u8g2\u8g2\csrc/u8x8_d_sed1330.c ****   U8X8_A(0x000),
 177:..\..\..\u8g2\u8g2\csrc/u8x8_d_sed1330.c ****   U8X8_A(0x000),
 178:..\..\..\u8g2\u8g2\csrc/u8x8_d_sed1330.c ****   U8X8_A(0x000),
 179:..\..\..\u8g2\u8g2\csrc/u8x8_d_sed1330.c **** 	
 180:..\..\..\u8g2\u8g2\csrc/u8x8_d_sed1330.c ****   U8X8_CA(0x05a, 0),			/* HDOT SCR: Horizontal dotwise scroll... set to 0 */
 181:..\..\..\u8g2\u8g2\csrc/u8x8_d_sed1330.c **** 	
 182:..\..\..\u8g2\u8g2\csrc/u8x8_d_sed1330.c ****   U8X8_CA(0x05b, 0x0c),			/* OVLAY: 2-layer, all graphics, OR between layer 1 and 2 */
 183:..\..\..\u8g2\u8g2\csrc/u8x8_d_sed1330.c **** 
 184:..\..\..\u8g2\u8g2\csrc/u8x8_d_sed1330.c **** 
 185:..\..\..\u8g2\u8g2\csrc/u8x8_d_sed1330.c ****   U8X8_DLY(100),
 186:..\..\..\u8g2\u8g2\csrc/u8x8_d_sed1330.c ****   U8X8_END_TRANSFER(),             	/* disable chip */
 187:..\..\..\u8g2\u8g2\csrc/u8x8_d_sed1330.c ****   U8X8_DLY(100),
 188:..\..\..\u8g2\u8g2\csrc/u8x8_d_sed1330.c **** };
 189:..\..\..\u8g2\u8g2\csrc/u8x8_d_sed1330.c **** 
 190:..\..\..\u8g2\u8g2\csrc/u8x8_d_sed1330.c **** /* RA8835 NHD-240128BZ */
 191:..\..\..\u8g2\u8g2\csrc/u8x8_d_sed1330.c **** static const uint8_t u8x8_d_rh8835_nhd_240128_init_seq[] = {
 192:..\..\..\u8g2\u8g2\csrc/u8x8_d_sed1330.c ****   U8X8_DLY(100),
 193:..\..\..\u8g2\u8g2\csrc/u8x8_d_sed1330.c ****   U8X8_START_TRANSFER(),             	/* enable chip, delay is part of the transfer start */
 194:..\..\..\u8g2\u8g2\csrc/u8x8_d_sed1330.c ****   U8X8_DLY(100),
 195:..\..\..\u8g2\u8g2\csrc/u8x8_d_sed1330.c **** 
 196:..\..\..\u8g2\u8g2\csrc/u8x8_d_sed1330.c ****   /* system init command, see also u8x8_d_sed1330_powersave0_seq */
 197:..\..\..\u8g2\u8g2\csrc/u8x8_d_sed1330.c ****   U8X8_CA(0x040, 0x030),		/* sys init (0x040) with one arg, where 0x030 is a wild guess */
 198:..\..\..\u8g2\u8g2\csrc/u8x8_d_sed1330.c ****   /* system init has total 8 parameters, so 7 more are here */
 199:..\..\..\u8g2\u8g2\csrc/u8x8_d_sed1330.c ****   U8X8_A(0x087),				/* no idea here... WF (topmost bit) is set to one because it is suggested in th
 200:..\..\..\u8g2\u8g2\csrc/u8x8_d_sed1330.c ****   U8X8_A(0x007),				/* FY: height of a char+1, does not matter here (hopefully), because we use gra
 201:..\..\..\u8g2\u8g2\csrc/u8x8_d_sed1330.c ****   U8X8_A(0x01d),				/* C/R: this could be the number of horizontal bytes - 1 (Value confirmed with 
 202:..\..\..\u8g2\u8g2\csrc/u8x8_d_sed1330.c ****   U8X8_A(0x050),					/* TC/R: According to app notes fOSC=6Mhz fFF=70Hz --> TC/R = 74d*/
 203:..\..\..\u8g2\u8g2\csrc/u8x8_d_sed1330.c ****   U8X8_A(0x080),				/* L/F: Lines per frame - 1, probably this is the height of the display - 1 (va
 204:..\..\..\u8g2\u8g2\csrc/u8x8_d_sed1330.c ****   U8X8_A(0x01e),				/* Low byte of the virtual screen size. (Value confirmed with app notes p41)   
ARM GAS  C:\Users\jesse\AppData\Local\Temp\ccr21w6F.s 			page 8


 205:..\..\..\u8g2\u8g2\csrc/u8x8_d_sed1330.c ****   U8X8_A(0),					/* High byte of the virtual screen size, see also section 9.1.2 */
 206:..\..\..\u8g2\u8g2\csrc/u8x8_d_sed1330.c **** 
 207:..\..\..\u8g2\u8g2\csrc/u8x8_d_sed1330.c ****   U8X8_C(0x044),				/* SCROLL */
 208:..\..\..\u8g2\u8g2\csrc/u8x8_d_sed1330.c ****   U8X8_A(0x000),				
 209:..\..\..\u8g2\u8g2\csrc/u8x8_d_sed1330.c ****   U8X8_A(0x000),				
 210:..\..\..\u8g2\u8g2\csrc/u8x8_d_sed1330.c ****   U8X8_A(0x080),
 211:..\..\..\u8g2\u8g2\csrc/u8x8_d_sed1330.c ****   U8X8_A(0x000),
 212:..\..\..\u8g2\u8g2\csrc/u8x8_d_sed1330.c ****   U8X8_A(0x040),
 213:..\..\..\u8g2\u8g2\csrc/u8x8_d_sed1330.c ****   U8X8_A(0x080),
 214:..\..\..\u8g2\u8g2\csrc/u8x8_d_sed1330.c ****   U8X8_A(0x000),
 215:..\..\..\u8g2\u8g2\csrc/u8x8_d_sed1330.c ****   U8X8_A(0x000),
 216:..\..\..\u8g2\u8g2\csrc/u8x8_d_sed1330.c ****   U8X8_A(0x000),
 217:..\..\..\u8g2\u8g2\csrc/u8x8_d_sed1330.c ****   U8X8_A(0x000),
 218:..\..\..\u8g2\u8g2\csrc/u8x8_d_sed1330.c **** 	
 219:..\..\..\u8g2\u8g2\csrc/u8x8_d_sed1330.c ****   //U8X8_CA(0x05a, 0),			/* HDOT SCR: Horizontal dotwise scroll... set to 0 */
 220:..\..\..\u8g2\u8g2\csrc/u8x8_d_sed1330.c **** 	
 221:..\..\..\u8g2\u8g2\csrc/u8x8_d_sed1330.c ****   U8X8_CA(0x05b, 0x0c),			/* OVLAY: 2-layer, all graphics, OR between layer 1 and 2 */
 222:..\..\..\u8g2\u8g2\csrc/u8x8_d_sed1330.c **** 
 223:..\..\..\u8g2\u8g2\csrc/u8x8_d_sed1330.c ****   //U8X8_CA(0x059, 0x04),               /* send display on command (hex 0x059, see p37 ) */
 224:..\..\..\u8g2\u8g2\csrc/u8x8_d_sed1330.c ****   
 225:..\..\..\u8g2\u8g2\csrc/u8x8_d_sed1330.c ****   U8X8_DLY(100),
 226:..\..\..\u8g2\u8g2\csrc/u8x8_d_sed1330.c ****   U8X8_END_TRANSFER(),             	/* disable chip */
 227:..\..\..\u8g2\u8g2\csrc/u8x8_d_sed1330.c ****   U8X8_DLY(100),
 228:..\..\..\u8g2\u8g2\csrc/u8x8_d_sed1330.c ****   
 229:..\..\..\u8g2\u8g2\csrc/u8x8_d_sed1330.c **** };
 230:..\..\..\u8g2\u8g2\csrc/u8x8_d_sed1330.c **** 
 231:..\..\..\u8g2\u8g2\csrc/u8x8_d_sed1330.c **** 
 232:..\..\..\u8g2\u8g2\csrc/u8x8_d_sed1330.c **** uint8_t u8x8_d_sed1330_240x128(u8x8_t *u8x8, uint8_t msg, uint8_t arg_int, void *arg_ptr)
 233:..\..\..\u8g2\u8g2\csrc/u8x8_d_sed1330.c **** {
 187              		.loc 1 233 0
 188              		.cfi_startproc
 189              		@ args = 0, pretend = 0, frame = 0
 190              		@ frame_needed = 0, uses_anonymous_args = 0
 191              	.LVL30:
 234:..\..\..\u8g2\u8g2\csrc/u8x8_d_sed1330.c ****   switch(msg)
 192              		.loc 1 234 0
 193 0000 0929     		cmp	r1, #9
 233:..\..\..\u8g2\u8g2\csrc/u8x8_d_sed1330.c ****   switch(msg)
 194              		.loc 1 233 0
 195 0002 70B5     		push	{r4, r5, r6, lr}
 196              		.cfi_def_cfa_offset 16
 197              		.cfi_offset 4, -16
 198              		.cfi_offset 5, -12
 199              		.cfi_offset 6, -8
 200              		.cfi_offset 14, -4
 233:..\..\..\u8g2\u8g2\csrc/u8x8_d_sed1330.c ****   switch(msg)
 201              		.loc 1 233 0
 202 0004 0546     		mov	r5, r0
 203              		.loc 1 234 0
 204 0006 08D0     		beq	.L18
 205 0008 0A29     		cmp	r1, #10
 206 000a 0AD1     		bne	.L22
 235:..\..\..\u8g2\u8g2\csrc/u8x8_d_sed1330.c ****   {
 236:..\..\..\u8g2\u8g2\csrc/u8x8_d_sed1330.c ****     case U8X8_MSG_DISPLAY_SETUP_MEMORY:
 237:..\..\..\u8g2\u8g2\csrc/u8x8_d_sed1330.c ****       u8x8_d_helper_display_setup_memory(u8x8, &u8x8_sed1330_240x128_display_info);
 238:..\..\..\u8g2\u8g2\csrc/u8x8_d_sed1330.c ****       break;
 239:..\..\..\u8g2\u8g2\csrc/u8x8_d_sed1330.c ****     case U8X8_MSG_DISPLAY_INIT:
ARM GAS  C:\Users\jesse\AppData\Local\Temp\ccr21w6F.s 			page 9


 240:..\..\..\u8g2\u8g2\csrc/u8x8_d_sed1330.c ****       u8x8_d_helper_display_init(u8x8);
 207              		.loc 1 240 0
 208 000c FFF7FEFF 		bl	u8x8_d_helper_display_init
 209              	.LVL31:
 241:..\..\..\u8g2\u8g2\csrc/u8x8_d_sed1330.c ****       u8x8_cad_SendSequence(u8x8, u8x8_d_sed1330_240x128_init_seq);
 210              		.loc 1 241 0
 211 0010 0749     		ldr	r1, .L23
 212 0012 2846     		mov	r0, r5
 213 0014 FFF7FEFF 		bl	u8x8_cad_SendSequence
 214              	.LVL32:
 242:..\..\..\u8g2\u8g2\csrc/u8x8_d_sed1330.c ****       break;
 215              		.loc 1 242 0
 216 0018 07E0     		b	.L20
 217              	.LVL33:
 218              	.L18:
 237:..\..\..\u8g2\u8g2\csrc/u8x8_d_sed1330.c ****       break;
 219              		.loc 1 237 0
 220 001a 0649     		ldr	r1, .L23+4
 221              	.LVL34:
 222 001c FFF7FEFF 		bl	u8x8_d_helper_display_setup_memory
 223              	.LVL35:
 238:..\..\..\u8g2\u8g2\csrc/u8x8_d_sed1330.c ****     case U8X8_MSG_DISPLAY_INIT:
 224              		.loc 1 238 0
 225 0020 03E0     		b	.L20
 226              	.LVL36:
 227              	.L22:
 243:..\..\..\u8g2\u8g2\csrc/u8x8_d_sed1330.c ****     default:
 244:..\..\..\u8g2\u8g2\csrc/u8x8_d_sed1330.c ****       return u8x8_d_sed1330_common(u8x8, msg, arg_int, arg_ptr);
 245:..\..\..\u8g2\u8g2\csrc/u8x8_d_sed1330.c ****   }
 246:..\..\..\u8g2\u8g2\csrc/u8x8_d_sed1330.c ****   return 1;
 247:..\..\..\u8g2\u8g2\csrc/u8x8_d_sed1330.c **** }
 228              		.loc 1 247 0
 229 0022 BDE87040 		pop	{r4, r5, r6, lr}
 230              		.cfi_remember_state
 231              		.cfi_restore 14
 232              		.cfi_restore 6
 233              		.cfi_restore 5
 234              		.cfi_restore 4
 235              		.cfi_def_cfa_offset 0
 244:..\..\..\u8g2\u8g2\csrc/u8x8_d_sed1330.c ****   }
 236              		.loc 1 244 0
 237 0026 FFF7FEBF 		b	u8x8_d_sed1330_common
 238              	.LVL37:
 239              	.L20:
 240              		.cfi_restore_state
 241              		.loc 1 247 0
 242 002a 0120     		movs	r0, #1
 243 002c 70BD     		pop	{r4, r5, r6, pc}
 244              	.LVL38:
 245              	.L24:
 246 002e 00BF     		.align	2
 247              	.L23:
 248 0030 2C000000 		.word	.LANCHOR0+44
 249 0034 14000000 		.word	.LANCHOR0+20
 250              		.cfi_endproc
 251              	.LFE1:
 252              		.size	u8x8_d_sed1330_240x128, .-u8x8_d_sed1330_240x128
ARM GAS  C:\Users\jesse\AppData\Local\Temp\ccr21w6F.s 			page 10


 253              		.section	.text.u8x8_d_ra8835_nhd_240x128,"ax",%progbits
 254              		.align	1
 255              		.global	u8x8_d_ra8835_nhd_240x128
 256              		.thumb
 257              		.thumb_func
 258              		.type	u8x8_d_ra8835_nhd_240x128, %function
 259              	u8x8_d_ra8835_nhd_240x128:
 260              	.LFB2:
 248:..\..\..\u8g2\u8g2\csrc/u8x8_d_sed1330.c **** 
 249:..\..\..\u8g2\u8g2\csrc/u8x8_d_sed1330.c **** 
 250:..\..\..\u8g2\u8g2\csrc/u8x8_d_sed1330.c **** uint8_t u8x8_d_ra8835_nhd_240x128(u8x8_t *u8x8, uint8_t msg, uint8_t arg_int, void *arg_ptr)
 251:..\..\..\u8g2\u8g2\csrc/u8x8_d_sed1330.c **** {
 261              		.loc 1 251 0
 262              		.cfi_startproc
 263              		@ args = 0, pretend = 0, frame = 0
 264              		@ frame_needed = 0, uses_anonymous_args = 0
 265              	.LVL39:
 252:..\..\..\u8g2\u8g2\csrc/u8x8_d_sed1330.c ****   switch(msg)
 266              		.loc 1 252 0
 267 0000 0929     		cmp	r1, #9
 251:..\..\..\u8g2\u8g2\csrc/u8x8_d_sed1330.c ****   switch(msg)
 268              		.loc 1 251 0
 269 0002 70B5     		push	{r4, r5, r6, lr}
 270              		.cfi_def_cfa_offset 16
 271              		.cfi_offset 4, -16
 272              		.cfi_offset 5, -12
 273              		.cfi_offset 6, -8
 274              		.cfi_offset 14, -4
 251:..\..\..\u8g2\u8g2\csrc/u8x8_d_sed1330.c ****   switch(msg)
 275              		.loc 1 251 0
 276 0004 0546     		mov	r5, r0
 277              		.loc 1 252 0
 278 0006 08D0     		beq	.L27
 279 0008 0A29     		cmp	r1, #10
 280 000a 0AD1     		bne	.L31
 253:..\..\..\u8g2\u8g2\csrc/u8x8_d_sed1330.c ****   {
 254:..\..\..\u8g2\u8g2\csrc/u8x8_d_sed1330.c ****     case U8X8_MSG_DISPLAY_SETUP_MEMORY:
 255:..\..\..\u8g2\u8g2\csrc/u8x8_d_sed1330.c ****       u8x8_d_helper_display_setup_memory(u8x8, &u8x8_sed1330_240x128_display_info);
 256:..\..\..\u8g2\u8g2\csrc/u8x8_d_sed1330.c ****       break;
 257:..\..\..\u8g2\u8g2\csrc/u8x8_d_sed1330.c ****     case U8X8_MSG_DISPLAY_INIT:
 258:..\..\..\u8g2\u8g2\csrc/u8x8_d_sed1330.c ****       u8x8_d_helper_display_init(u8x8);
 281              		.loc 1 258 0
 282 000c FFF7FEFF 		bl	u8x8_d_helper_display_init
 283              	.LVL40:
 259:..\..\..\u8g2\u8g2\csrc/u8x8_d_sed1330.c ****       u8x8_cad_SendSequence(u8x8, u8x8_d_rh8835_nhd_240128_init_seq);
 284              		.loc 1 259 0
 285 0010 0749     		ldr	r1, .L32
 286 0012 2846     		mov	r0, r5
 287 0014 FFF7FEFF 		bl	u8x8_cad_SendSequence
 288              	.LVL41:
 260:..\..\..\u8g2\u8g2\csrc/u8x8_d_sed1330.c ****       break;
 289              		.loc 1 260 0
 290 0018 07E0     		b	.L29
 291              	.LVL42:
 292              	.L27:
 255:..\..\..\u8g2\u8g2\csrc/u8x8_d_sed1330.c ****       break;
 293              		.loc 1 255 0
ARM GAS  C:\Users\jesse\AppData\Local\Temp\ccr21w6F.s 			page 11


 294 001a 0649     		ldr	r1, .L32+4
 295              	.LVL43:
 296 001c FFF7FEFF 		bl	u8x8_d_helper_display_setup_memory
 297              	.LVL44:
 256:..\..\..\u8g2\u8g2\csrc/u8x8_d_sed1330.c ****     case U8X8_MSG_DISPLAY_INIT:
 298              		.loc 1 256 0
 299 0020 03E0     		b	.L29
 300              	.LVL45:
 301              	.L31:
 261:..\..\..\u8g2\u8g2\csrc/u8x8_d_sed1330.c ****     default:
 262:..\..\..\u8g2\u8g2\csrc/u8x8_d_sed1330.c ****       return u8x8_d_sed1330_common(u8x8, msg, arg_int, arg_ptr);
 263:..\..\..\u8g2\u8g2\csrc/u8x8_d_sed1330.c ****   }
 264:..\..\..\u8g2\u8g2\csrc/u8x8_d_sed1330.c ****   return 1;
 265:..\..\..\u8g2\u8g2\csrc/u8x8_d_sed1330.c **** }
 302              		.loc 1 265 0
 303 0022 BDE87040 		pop	{r4, r5, r6, lr}
 304              		.cfi_remember_state
 305              		.cfi_restore 14
 306              		.cfi_restore 6
 307              		.cfi_restore 5
 308              		.cfi_restore 4
 309              		.cfi_def_cfa_offset 0
 262:..\..\..\u8g2\u8g2\csrc/u8x8_d_sed1330.c ****   }
 310              		.loc 1 262 0
 311 0026 FFF7FEBF 		b	u8x8_d_sed1330_common
 312              	.LVL46:
 313              	.L29:
 314              		.cfi_restore_state
 315              		.loc 1 265 0
 316 002a 0120     		movs	r0, #1
 317 002c 70BD     		pop	{r4, r5, r6, pc}
 318              	.LVL47:
 319              	.L33:
 320 002e 00BF     		.align	2
 321              	.L32:
 322 0030 66000000 		.word	.LANCHOR0+102
 323 0034 14000000 		.word	.LANCHOR0+20
 324              		.cfi_endproc
 325              	.LFE2:
 326              		.size	u8x8_d_ra8835_nhd_240x128, .-u8x8_d_ra8835_nhd_240x128
 327              		.section	.text.u8x8_d_ra8835_320x240,"ax",%progbits
 328              		.align	1
 329              		.global	u8x8_d_ra8835_320x240
 330              		.thumb
 331              		.thumb_func
 332              		.type	u8x8_d_ra8835_320x240, %function
 333              	u8x8_d_ra8835_320x240:
 334              	.LFB3:
 266:..\..\..\u8g2\u8g2\csrc/u8x8_d_sed1330.c **** 
 267:..\..\..\u8g2\u8g2\csrc/u8x8_d_sed1330.c **** 
 268:..\..\..\u8g2\u8g2\csrc/u8x8_d_sed1330.c **** 
 269:..\..\..\u8g2\u8g2\csrc/u8x8_d_sed1330.c **** /*=============================================*/
 270:..\..\..\u8g2\u8g2\csrc/u8x8_d_sed1330.c **** 
 271:..\..\..\u8g2\u8g2\csrc/u8x8_d_sed1330.c **** 
 272:..\..\..\u8g2\u8g2\csrc/u8x8_d_sed1330.c **** static const u8x8_display_info_t u8x8_sed1330_320x240_display_info =
 273:..\..\..\u8g2\u8g2\csrc/u8x8_d_sed1330.c **** {
 274:..\..\..\u8g2\u8g2\csrc/u8x8_d_sed1330.c ****   /* chip_enable_level = */ 0,
ARM GAS  C:\Users\jesse\AppData\Local\Temp\ccr21w6F.s 			page 12


 275:..\..\..\u8g2\u8g2\csrc/u8x8_d_sed1330.c ****   /* chip_disable_level = */ 1,
 276:..\..\..\u8g2\u8g2\csrc/u8x8_d_sed1330.c ****   
 277:..\..\..\u8g2\u8g2\csrc/u8x8_d_sed1330.c ****   /* post_chip_enable_wait_ns = */ 30,	/* G242CX Datasheet p5 */
 278:..\..\..\u8g2\u8g2\csrc/u8x8_d_sed1330.c ****   /* pre_chip_disable_wait_ns = */ 10,	/* G242CX Datasheet p5 */
 279:..\..\..\u8g2\u8g2\csrc/u8x8_d_sed1330.c ****   /* reset_pulse_width_ms = */ 1, 
 280:..\..\..\u8g2\u8g2\csrc/u8x8_d_sed1330.c ****   /* post_reset_wait_ms = */ 6, 
 281:..\..\..\u8g2\u8g2\csrc/u8x8_d_sed1330.c ****   /* sda_setup_time_ns = */ 20,		
 282:..\..\..\u8g2\u8g2\csrc/u8x8_d_sed1330.c ****   /* sck_pulse_width_ns = */  140,	
 283:..\..\..\u8g2\u8g2\csrc/u8x8_d_sed1330.c ****   /* sck_clock_hz = */ 1000000UL,	/* since Arduino 1.6.0, the SPI bus speed in Hz. Should be  10000
 284:..\..\..\u8g2\u8g2\csrc/u8x8_d_sed1330.c ****   /* spi_mode = */ 0,		
 285:..\..\..\u8g2\u8g2\csrc/u8x8_d_sed1330.c ****   /* i2c_bus_clock_100kHz = */ 4,
 286:..\..\..\u8g2\u8g2\csrc/u8x8_d_sed1330.c ****   /* data_setup_time_ns = */ 120,		/* G242CX Datasheet p5 */
 287:..\..\..\u8g2\u8g2\csrc/u8x8_d_sed1330.c ****   /* write_pulse_width_ns = */ 220,		/* G242CX Datasheet p5 */
 288:..\..\..\u8g2\u8g2\csrc/u8x8_d_sed1330.c ****   /* tile_width = */ 40,
 289:..\..\..\u8g2\u8g2\csrc/u8x8_d_sed1330.c ****   /* tile_hight = */ 30,
 290:..\..\..\u8g2\u8g2\csrc/u8x8_d_sed1330.c ****   /* default_x_offset = */ 0,
 291:..\..\..\u8g2\u8g2\csrc/u8x8_d_sed1330.c ****   /* flipmode_x_offset = */ 0,
 292:..\..\..\u8g2\u8g2\csrc/u8x8_d_sed1330.c ****   /* pixel_width = */ 320,
 293:..\..\..\u8g2\u8g2\csrc/u8x8_d_sed1330.c ****   /* pixel_height = */ 240
 294:..\..\..\u8g2\u8g2\csrc/u8x8_d_sed1330.c **** };
 295:..\..\..\u8g2\u8g2\csrc/u8x8_d_sed1330.c **** 
 296:..\..\..\u8g2\u8g2\csrc/u8x8_d_sed1330.c **** static const uint8_t u8x8_d_sed1330_320x240_init_seq[] = {
 297:..\..\..\u8g2\u8g2\csrc/u8x8_d_sed1330.c ****   U8X8_DLY(100),
 298:..\..\..\u8g2\u8g2\csrc/u8x8_d_sed1330.c ****   U8X8_START_TRANSFER(),             	/* enable chip, delay is part of the transfer start */
 299:..\..\..\u8g2\u8g2\csrc/u8x8_d_sed1330.c ****   U8X8_DLY(100),
 300:..\..\..\u8g2\u8g2\csrc/u8x8_d_sed1330.c **** 
 301:..\..\..\u8g2\u8g2\csrc/u8x8_d_sed1330.c ****   /* system init command, see also u8x8_d_sed1330_powersave0_seq */
 302:..\..\..\u8g2\u8g2\csrc/u8x8_d_sed1330.c ****   U8X8_CA(0x040, 0x030),		/* sys init (0x040) with one arg, where 0x030 is a wild guess */
 303:..\..\..\u8g2\u8g2\csrc/u8x8_d_sed1330.c ****   /* system init has total 8 parameters, so 7 more are here */
 304:..\..\..\u8g2\u8g2\csrc/u8x8_d_sed1330.c ****   U8X8_A(0x087),				/* no idea here... WF (topmost bit) is set to one because it is suggested in th
 305:..\..\..\u8g2\u8g2\csrc/u8x8_d_sed1330.c ****   U8X8_A(0x007),				/* FY: height of a char+1, does not matter here (hopefully), because we use gra
 306:..\..\..\u8g2\u8g2\csrc/u8x8_d_sed1330.c ****   U8X8_A(0x027),	/* 40-1 */		/* C/R: this could be the number of horizontal bytes - 1 (Value confir
 307:..\..\..\u8g2\u8g2\csrc/u8x8_d_sed1330.c ****   U8X8_A(0x039),					/* TC/R: According to app notes fOSC=6Mhz fFF=70Hz --> TC/R = 74d*/
 308:..\..\..\u8g2\u8g2\csrc/u8x8_d_sed1330.c ****   U8X8_A(0x0ef),				/* L/F: Lines per frame - 1, probably this is the height of the display - 1 (va
 309:..\..\..\u8g2\u8g2\csrc/u8x8_d_sed1330.c ****   U8X8_A(0x028),				/* Low byte of the virtual screen size. (Value confirmed with app notes p41)   
 310:..\..\..\u8g2\u8g2\csrc/u8x8_d_sed1330.c ****   U8X8_A(0),					/* High byte of the virtual screen size, see also section 9.1.2 */
 311:..\..\..\u8g2\u8g2\csrc/u8x8_d_sed1330.c **** 	
 312:..\..\..\u8g2\u8g2\csrc/u8x8_d_sed1330.c ****   U8X8_C(0x044),				/* SCROLL */
 313:..\..\..\u8g2\u8g2\csrc/u8x8_d_sed1330.c ****   U8X8_A(0x000),				
 314:..\..\..\u8g2\u8g2\csrc/u8x8_d_sed1330.c ****   U8X8_A(0x000),				
 315:..\..\..\u8g2\u8g2\csrc/u8x8_d_sed1330.c ****   U8X8_A(0x0ef),
 316:..\..\..\u8g2\u8g2\csrc/u8x8_d_sed1330.c ****   U8X8_A(0x0b0),
 317:..\..\..\u8g2\u8g2\csrc/u8x8_d_sed1330.c ****   U8X8_A(0x004),
 318:..\..\..\u8g2\u8g2\csrc/u8x8_d_sed1330.c ****   U8X8_A(0x0ef),
 319:..\..\..\u8g2\u8g2\csrc/u8x8_d_sed1330.c ****   U8X8_A(0x000),
 320:..\..\..\u8g2\u8g2\csrc/u8x8_d_sed1330.c ****   U8X8_A(0x000),
 321:..\..\..\u8g2\u8g2\csrc/u8x8_d_sed1330.c ****   U8X8_A(0x000),
 322:..\..\..\u8g2\u8g2\csrc/u8x8_d_sed1330.c ****   U8X8_A(0x000),
 323:..\..\..\u8g2\u8g2\csrc/u8x8_d_sed1330.c **** 	
 324:..\..\..\u8g2\u8g2\csrc/u8x8_d_sed1330.c ****   U8X8_CA(0x05a, 0),			/* HDOT SCR: Horizontal dotwise scroll... set to 0 */
 325:..\..\..\u8g2\u8g2\csrc/u8x8_d_sed1330.c **** 	
 326:..\..\..\u8g2\u8g2\csrc/u8x8_d_sed1330.c ****   U8X8_CA(0x05b, 0x0c),			/* OVLAY: 2-layer, all graphics, OR between layer 1 and 2 */
 327:..\..\..\u8g2\u8g2\csrc/u8x8_d_sed1330.c **** 
 328:..\..\..\u8g2\u8g2\csrc/u8x8_d_sed1330.c **** 
 329:..\..\..\u8g2\u8g2\csrc/u8x8_d_sed1330.c ****   U8X8_DLY(100),
 330:..\..\..\u8g2\u8g2\csrc/u8x8_d_sed1330.c ****   U8X8_END_TRANSFER(),             	/* disable chip */
 331:..\..\..\u8g2\u8g2\csrc/u8x8_d_sed1330.c ****   U8X8_DLY(100),
ARM GAS  C:\Users\jesse\AppData\Local\Temp\ccr21w6F.s 			page 13


 332:..\..\..\u8g2\u8g2\csrc/u8x8_d_sed1330.c **** };
 333:..\..\..\u8g2\u8g2\csrc/u8x8_d_sed1330.c **** 
 334:..\..\..\u8g2\u8g2\csrc/u8x8_d_sed1330.c **** 
 335:..\..\..\u8g2\u8g2\csrc/u8x8_d_sed1330.c **** 
 336:..\..\..\u8g2\u8g2\csrc/u8x8_d_sed1330.c **** uint8_t u8x8_d_ra8835_320x240(u8x8_t *u8x8, uint8_t msg, uint8_t arg_int, void *arg_ptr)
 337:..\..\..\u8g2\u8g2\csrc/u8x8_d_sed1330.c **** {
 335              		.loc 1 337 0
 336              		.cfi_startproc
 337              		@ args = 0, pretend = 0, frame = 0
 338              		@ frame_needed = 0, uses_anonymous_args = 0
 339              	.LVL48:
 338:..\..\..\u8g2\u8g2\csrc/u8x8_d_sed1330.c ****   switch(msg)
 340              		.loc 1 338 0
 341 0000 0929     		cmp	r1, #9
 337:..\..\..\u8g2\u8g2\csrc/u8x8_d_sed1330.c ****   switch(msg)
 342              		.loc 1 337 0
 343 0002 70B5     		push	{r4, r5, r6, lr}
 344              		.cfi_def_cfa_offset 16
 345              		.cfi_offset 4, -16
 346              		.cfi_offset 5, -12
 347              		.cfi_offset 6, -8
 348              		.cfi_offset 14, -4
 337:..\..\..\u8g2\u8g2\csrc/u8x8_d_sed1330.c ****   switch(msg)
 349              		.loc 1 337 0
 350 0004 0546     		mov	r5, r0
 351              		.loc 1 338 0
 352 0006 08D0     		beq	.L36
 353 0008 0A29     		cmp	r1, #10
 354 000a 0AD1     		bne	.L40
 339:..\..\..\u8g2\u8g2\csrc/u8x8_d_sed1330.c ****   {
 340:..\..\..\u8g2\u8g2\csrc/u8x8_d_sed1330.c ****     case U8X8_MSG_DISPLAY_SETUP_MEMORY:
 341:..\..\..\u8g2\u8g2\csrc/u8x8_d_sed1330.c ****       u8x8_d_helper_display_setup_memory(u8x8, &u8x8_sed1330_320x240_display_info);
 342:..\..\..\u8g2\u8g2\csrc/u8x8_d_sed1330.c ****       break;
 343:..\..\..\u8g2\u8g2\csrc/u8x8_d_sed1330.c ****     case U8X8_MSG_DISPLAY_INIT:
 344:..\..\..\u8g2\u8g2\csrc/u8x8_d_sed1330.c ****       u8x8_d_helper_display_init(u8x8);
 355              		.loc 1 344 0
 356 000c FFF7FEFF 		bl	u8x8_d_helper_display_init
 357              	.LVL49:
 345:..\..\..\u8g2\u8g2\csrc/u8x8_d_sed1330.c ****       u8x8_cad_SendSequence(u8x8, u8x8_d_sed1330_320x240_init_seq);
 358              		.loc 1 345 0
 359 0010 0749     		ldr	r1, .L41
 360 0012 2846     		mov	r0, r5
 361 0014 FFF7FEFF 		bl	u8x8_cad_SendSequence
 362              	.LVL50:
 346:..\..\..\u8g2\u8g2\csrc/u8x8_d_sed1330.c ****       break;
 363              		.loc 1 346 0
 364 0018 07E0     		b	.L38
 365              	.LVL51:
 366              	.L36:
 341:..\..\..\u8g2\u8g2\csrc/u8x8_d_sed1330.c ****       break;
 367              		.loc 1 341 0
 368 001a 0649     		ldr	r1, .L41+4
 369              	.LVL52:
 370 001c FFF7FEFF 		bl	u8x8_d_helper_display_setup_memory
 371              	.LVL53:
 342:..\..\..\u8g2\u8g2\csrc/u8x8_d_sed1330.c ****     case U8X8_MSG_DISPLAY_INIT:
 372              		.loc 1 342 0
ARM GAS  C:\Users\jesse\AppData\Local\Temp\ccr21w6F.s 			page 14


 373 0020 03E0     		b	.L38
 374              	.LVL54:
 375              	.L40:
 347:..\..\..\u8g2\u8g2\csrc/u8x8_d_sed1330.c ****     default:
 348:..\..\..\u8g2\u8g2\csrc/u8x8_d_sed1330.c ****       return u8x8_d_sed1330_common(u8x8, msg, arg_int, arg_ptr);
 349:..\..\..\u8g2\u8g2\csrc/u8x8_d_sed1330.c ****   }
 350:..\..\..\u8g2\u8g2\csrc/u8x8_d_sed1330.c ****   return 1;
 351:..\..\..\u8g2\u8g2\csrc/u8x8_d_sed1330.c **** }
 376              		.loc 1 351 0
 377 0022 BDE87040 		pop	{r4, r5, r6, lr}
 378              		.cfi_remember_state
 379              		.cfi_restore 14
 380              		.cfi_restore 6
 381              		.cfi_restore 5
 382              		.cfi_restore 4
 383              		.cfi_def_cfa_offset 0
 348:..\..\..\u8g2\u8g2\csrc/u8x8_d_sed1330.c ****   }
 384              		.loc 1 348 0
 385 0026 FFF7FEBF 		b	u8x8_d_sed1330_common
 386              	.LVL55:
 387              	.L38:
 388              		.cfi_restore_state
 389              		.loc 1 351 0
 390 002a 0120     		movs	r0, #1
 391 002c 70BD     		pop	{r4, r5, r6, pc}
 392              	.LVL56:
 393              	.L42:
 394 002e 00BF     		.align	2
 395              	.L41:
 396 0030 B4000000 		.word	.LANCHOR0+180
 397 0034 9C000000 		.word	.LANCHOR0+156
 398              		.cfi_endproc
 399              	.LFE3:
 400              		.size	u8x8_d_ra8835_320x240, .-u8x8_d_ra8835_320x240
 401              		.section	.rodata
 402              		.align	2
 403              		.set	.LANCHOR0,. + 0
 404              		.type	u8x8_d_sed1330_powersave0_seq, %object
 405              		.size	u8x8_d_sed1330_powersave0_seq, 11
 406              	u8x8_d_sed1330_powersave0_seq:
 407 0000 18       		.byte	24
 408 0001 15       		.byte	21
 409 0002 40       		.byte	64
 410 0003 16       		.byte	22
 411 0004 30       		.byte	48
 412 0005 15       		.byte	21
 413 0006 59       		.byte	89
 414 0007 16       		.byte	22
 415 0008 04       		.byte	4
 416 0009 19       		.byte	25
 417 000a FF       		.byte	-1
 418              		.type	u8x8_d_sed1330_powersave1_seq, %object
 419              		.size	u8x8_d_sed1330_powersave1_seq, 7
 420              	u8x8_d_sed1330_powersave1_seq:
 421 000b 18       		.byte	24
 422 000c 15       		.byte	21
 423 000d 58       		.byte	88
ARM GAS  C:\Users\jesse\AppData\Local\Temp\ccr21w6F.s 			page 15


 424 000e 16       		.byte	22
 425 000f 00       		.byte	0
 426 0010 19       		.byte	25
 427 0011 FF       		.byte	-1
 428 0012 0000     		.space	2
 429              		.type	u8x8_sed1330_240x128_display_info, %object
 430              		.size	u8x8_sed1330_240x128_display_info, 24
 431              	u8x8_sed1330_240x128_display_info:
 432 0014 00       		.byte	0
 433 0015 01       		.byte	1
 434 0016 1E       		.byte	30
 435 0017 0A       		.byte	10
 436 0018 01       		.byte	1
 437 0019 06       		.byte	6
 438 001a 14       		.byte	20
 439 001b 8C       		.byte	-116
 440 001c 40420F00 		.word	1000000
 441 0020 00       		.byte	0
 442 0021 04       		.byte	4
 443 0022 78       		.byte	120
 444 0023 DC       		.byte	-36
 445 0024 1E       		.byte	30
 446 0025 10       		.byte	16
 447 0026 00       		.byte	0
 448 0027 00       		.byte	0
 449 0028 F000     		.short	240
 450 002a 8000     		.short	128
 451              		.type	u8x8_d_sed1330_240x128_init_seq, %object
 452              		.size	u8x8_d_sed1330_240x128_init_seq, 58
 453              	u8x8_d_sed1330_240x128_init_seq:
 454 002c FE       		.byte	-2
 455 002d 64       		.byte	100
 456 002e 18       		.byte	24
 457 002f FE       		.byte	-2
 458 0030 64       		.byte	100
 459 0031 15       		.byte	21
 460 0032 40       		.byte	64
 461 0033 16       		.byte	22
 462 0034 30       		.byte	48
 463 0035 16       		.byte	22
 464 0036 87       		.byte	-121
 465 0037 16       		.byte	22
 466 0038 07       		.byte	7
 467 0039 16       		.byte	22
 468 003a 1D       		.byte	29
 469 003b 16       		.byte	22
 470 003c 50       		.byte	80
 471 003d 16       		.byte	22
 472 003e 80       		.byte	-128
 473 003f 16       		.byte	22
 474 0040 1E       		.byte	30
 475 0041 16       		.byte	22
 476 0042 00       		.byte	0
 477 0043 15       		.byte	21
 478 0044 44       		.byte	68
 479 0045 16       		.byte	22
 480 0046 00       		.byte	0
ARM GAS  C:\Users\jesse\AppData\Local\Temp\ccr21w6F.s 			page 16


 481 0047 16       		.byte	22
 482 0048 00       		.byte	0
 483 0049 16       		.byte	22
 484 004a 80       		.byte	-128
 485 004b 16       		.byte	22
 486 004c 00       		.byte	0
 487 004d 16       		.byte	22
 488 004e 40       		.byte	64
 489 004f 16       		.byte	22
 490 0050 80       		.byte	-128
 491 0051 16       		.byte	22
 492 0052 00       		.byte	0
 493 0053 16       		.byte	22
 494 0054 00       		.byte	0
 495 0055 16       		.byte	22
 496 0056 00       		.byte	0
 497 0057 16       		.byte	22
 498 0058 00       		.byte	0
 499 0059 15       		.byte	21
 500 005a 5A       		.byte	90
 501 005b 16       		.byte	22
 502 005c 00       		.byte	0
 503 005d 15       		.byte	21
 504 005e 5B       		.byte	91
 505 005f 16       		.byte	22
 506 0060 0C       		.byte	12
 507 0061 FE       		.byte	-2
 508 0062 64       		.byte	100
 509 0063 19       		.byte	25
 510 0064 FE       		.byte	-2
 511 0065 64       		.byte	100
 512              		.type	u8x8_d_rh8835_nhd_240128_init_seq, %object
 513              		.size	u8x8_d_rh8835_nhd_240128_init_seq, 54
 514              	u8x8_d_rh8835_nhd_240128_init_seq:
 515 0066 FE       		.byte	-2
 516 0067 64       		.byte	100
 517 0068 18       		.byte	24
 518 0069 FE       		.byte	-2
 519 006a 64       		.byte	100
 520 006b 15       		.byte	21
 521 006c 40       		.byte	64
 522 006d 16       		.byte	22
 523 006e 30       		.byte	48
 524 006f 16       		.byte	22
 525 0070 87       		.byte	-121
 526 0071 16       		.byte	22
 527 0072 07       		.byte	7
 528 0073 16       		.byte	22
 529 0074 1D       		.byte	29
 530 0075 16       		.byte	22
 531 0076 50       		.byte	80
 532 0077 16       		.byte	22
 533 0078 80       		.byte	-128
 534 0079 16       		.byte	22
 535 007a 1E       		.byte	30
 536 007b 16       		.byte	22
 537 007c 00       		.byte	0
ARM GAS  C:\Users\jesse\AppData\Local\Temp\ccr21w6F.s 			page 17


 538 007d 15       		.byte	21
 539 007e 44       		.byte	68
 540 007f 16       		.byte	22
 541 0080 00       		.byte	0
 542 0081 16       		.byte	22
 543 0082 00       		.byte	0
 544 0083 16       		.byte	22
 545 0084 80       		.byte	-128
 546 0085 16       		.byte	22
 547 0086 00       		.byte	0
 548 0087 16       		.byte	22
 549 0088 40       		.byte	64
 550 0089 16       		.byte	22
 551 008a 80       		.byte	-128
 552 008b 16       		.byte	22
 553 008c 00       		.byte	0
 554 008d 16       		.byte	22
 555 008e 00       		.byte	0
 556 008f 16       		.byte	22
 557 0090 00       		.byte	0
 558 0091 16       		.byte	22
 559 0092 00       		.byte	0
 560 0093 15       		.byte	21
 561 0094 5B       		.byte	91
 562 0095 16       		.byte	22
 563 0096 0C       		.byte	12
 564 0097 FE       		.byte	-2
 565 0098 64       		.byte	100
 566 0099 19       		.byte	25
 567 009a FE       		.byte	-2
 568 009b 64       		.byte	100
 569              		.type	u8x8_sed1330_320x240_display_info, %object
 570              		.size	u8x8_sed1330_320x240_display_info, 24
 571              	u8x8_sed1330_320x240_display_info:
 572 009c 00       		.byte	0
 573 009d 01       		.byte	1
 574 009e 1E       		.byte	30
 575 009f 0A       		.byte	10
 576 00a0 01       		.byte	1
 577 00a1 06       		.byte	6
 578 00a2 14       		.byte	20
 579 00a3 8C       		.byte	-116
 580 00a4 40420F00 		.word	1000000
 581 00a8 00       		.byte	0
 582 00a9 04       		.byte	4
 583 00aa 78       		.byte	120
 584 00ab DC       		.byte	-36
 585 00ac 28       		.byte	40
 586 00ad 1E       		.byte	30
 587 00ae 00       		.byte	0
 588 00af 00       		.byte	0
 589 00b0 4001     		.short	320
 590 00b2 F000     		.short	240
 591              		.type	u8x8_d_sed1330_320x240_init_seq, %object
 592              		.size	u8x8_d_sed1330_320x240_init_seq, 58
 593              	u8x8_d_sed1330_320x240_init_seq:
 594 00b4 FE       		.byte	-2
ARM GAS  C:\Users\jesse\AppData\Local\Temp\ccr21w6F.s 			page 18


 595 00b5 64       		.byte	100
 596 00b6 18       		.byte	24
 597 00b7 FE       		.byte	-2
 598 00b8 64       		.byte	100
 599 00b9 15       		.byte	21
 600 00ba 40       		.byte	64
 601 00bb 16       		.byte	22
 602 00bc 30       		.byte	48
 603 00bd 16       		.byte	22
 604 00be 87       		.byte	-121
 605 00bf 16       		.byte	22
 606 00c0 07       		.byte	7
 607 00c1 16       		.byte	22
 608 00c2 27       		.byte	39
 609 00c3 16       		.byte	22
 610 00c4 39       		.byte	57
 611 00c5 16       		.byte	22
 612 00c6 EF       		.byte	-17
 613 00c7 16       		.byte	22
 614 00c8 28       		.byte	40
 615 00c9 16       		.byte	22
 616 00ca 00       		.byte	0
 617 00cb 15       		.byte	21
 618 00cc 44       		.byte	68
 619 00cd 16       		.byte	22
 620 00ce 00       		.byte	0
 621 00cf 16       		.byte	22
 622 00d0 00       		.byte	0
 623 00d1 16       		.byte	22
 624 00d2 EF       		.byte	-17
 625 00d3 16       		.byte	22
 626 00d4 B0       		.byte	-80
 627 00d5 16       		.byte	22
 628 00d6 04       		.byte	4
 629 00d7 16       		.byte	22
 630 00d8 EF       		.byte	-17
 631 00d9 16       		.byte	22
 632 00da 00       		.byte	0
 633 00db 16       		.byte	22
 634 00dc 00       		.byte	0
 635 00dd 16       		.byte	22
 636 00de 00       		.byte	0
 637 00df 16       		.byte	22
 638 00e0 00       		.byte	0
 639 00e1 15       		.byte	21
 640 00e2 5A       		.byte	90
 641 00e3 16       		.byte	22
 642 00e4 00       		.byte	0
 643 00e5 15       		.byte	21
 644 00e6 5B       		.byte	91
 645 00e7 16       		.byte	22
 646 00e8 0C       		.byte	12
 647 00e9 FE       		.byte	-2
 648 00ea 64       		.byte	100
 649 00eb 19       		.byte	25
 650 00ec FE       		.byte	-2
 651 00ed 64       		.byte	100
ARM GAS  C:\Users\jesse\AppData\Local\Temp\ccr21w6F.s 			page 19


 652              		.text
 653              	.Letext0:
 654              		.file 2 "c:\\program files (x86)\\cypress\\psoc creator\\4.4\\psoc creator\\import\\gnu\\arm\\5.4.
 655              		.file 3 "c:\\program files (x86)\\cypress\\psoc creator\\4.4\\psoc creator\\import\\gnu\\arm\\5.4.
 656              		.file 4 "..\\..\\..\\u8g2\\u8g2\\csrc\\u8x8.h"