ARM GAS  C:\Users\jesse\AppData\Local\Temp\cc6zNusR.s 			page 1


   1              		.syntax unified
   2              		.cpu cortex-m3
   3              		.fpu softvfp
   4              		.eabi_attribute 20, 1
   5              		.eabi_attribute 21, 1
   6              		.eabi_attribute 23, 3
   7              		.eabi_attribute 24, 1
   8              		.eabi_attribute 25, 1
   9              		.eabi_attribute 26, 1
  10              		.eabi_attribute 30, 4
  11              		.eabi_attribute 34, 1
  12              		.eabi_attribute 18, 4
  13              		.thumb
  14              		.syntax unified
  15              		.file	"u8x8_d_st75256.c"
  16              		.text
  17              	.Ltext0:
  18              		.cfi_sections	.debug_frame
  19              		.section	.text.u8x8_d_st75256_256x128_generic,"ax",%progbits
  20              		.align	1
  21              		.thumb
  22              		.thumb_func
  23              		.type	u8x8_d_st75256_256x128_generic, %function
  24              	u8x8_d_st75256_256x128_generic:
  25              	.LFB0:
  26              		.file 1 "..\\..\\..\\u8g2\\u8g2\\csrc\\u8x8_d_st75256.c"
   1:..\..\..\u8g2\u8g2\csrc/u8x8_d_st75256.c **** /*
   2:..\..\..\u8g2\u8g2\csrc/u8x8_d_st75256.c **** 
   3:..\..\..\u8g2\u8g2\csrc/u8x8_d_st75256.c ****   u8x8_d_st75256.c
   4:..\..\..\u8g2\u8g2\csrc/u8x8_d_st75256.c **** 
   5:..\..\..\u8g2\u8g2\csrc/u8x8_d_st75256.c ****   Universal 8bit Graphics Library (https://github.com/olikraus/u8g2/)
   6:..\..\..\u8g2\u8g2\csrc/u8x8_d_st75256.c **** 
   7:..\..\..\u8g2\u8g2\csrc/u8x8_d_st75256.c ****   Copyright (c) 2017, olikraus@gmail.com
   8:..\..\..\u8g2\u8g2\csrc/u8x8_d_st75256.c ****   All rights reserved.
   9:..\..\..\u8g2\u8g2\csrc/u8x8_d_st75256.c **** 
  10:..\..\..\u8g2\u8g2\csrc/u8x8_d_st75256.c ****   Redistribution and use in source and binary forms, with or without modification, 
  11:..\..\..\u8g2\u8g2\csrc/u8x8_d_st75256.c ****   are permitted provided that the following conditions are met:
  12:..\..\..\u8g2\u8g2\csrc/u8x8_d_st75256.c **** 
  13:..\..\..\u8g2\u8g2\csrc/u8x8_d_st75256.c ****   * Redistributions of source code must retain the above copyright notice, this list 
  14:..\..\..\u8g2\u8g2\csrc/u8x8_d_st75256.c ****     of conditions and the following disclaimer.
  15:..\..\..\u8g2\u8g2\csrc/u8x8_d_st75256.c ****     
  16:..\..\..\u8g2\u8g2\csrc/u8x8_d_st75256.c ****   * Redistributions in binary form must reproduce the above copyright notice, this 
  17:..\..\..\u8g2\u8g2\csrc/u8x8_d_st75256.c ****     list of conditions and the following disclaimer in the documentation and/or other 
  18:..\..\..\u8g2\u8g2\csrc/u8x8_d_st75256.c ****     materials provided with the distribution.
  19:..\..\..\u8g2\u8g2\csrc/u8x8_d_st75256.c **** 
  20:..\..\..\u8g2\u8g2\csrc/u8x8_d_st75256.c ****   THIS SOFTWARE IS PROVIDED BY THE COPYRIGHT HOLDERS AND 
  21:..\..\..\u8g2\u8g2\csrc/u8x8_d_st75256.c ****   CONTRIBUTORS "AS IS" AND ANY EXPRESS OR IMPLIED WARRANTIES, 
  22:..\..\..\u8g2\u8g2\csrc/u8x8_d_st75256.c ****   INCLUDING, BUT NOT LIMITED TO, THE IMPLIED WARRANTIES OF 
  23:..\..\..\u8g2\u8g2\csrc/u8x8_d_st75256.c ****   MERCHANTABILITY AND FITNESS FOR A PARTICULAR PURPOSE ARE 
  24:..\..\..\u8g2\u8g2\csrc/u8x8_d_st75256.c ****   DISCLAIMED. IN NO EVENT SHALL THE COPYRIGHT HOLDER OR 
  25:..\..\..\u8g2\u8g2\csrc/u8x8_d_st75256.c ****   CONTRIBUTORS BE LIABLE FOR ANY DIRECT, INDIRECT, INCIDENTAL, 
  26:..\..\..\u8g2\u8g2\csrc/u8x8_d_st75256.c ****   SPECIAL, EXEMPLARY, OR CONSEQUENTIAL DAMAGES (INCLUDING, BUT 
  27:..\..\..\u8g2\u8g2\csrc/u8x8_d_st75256.c ****   NOT LIMITED TO, PROCUREMENT OF SUBSTITUTE GOODS OR SERVICES; 
  28:..\..\..\u8g2\u8g2\csrc/u8x8_d_st75256.c ****   LOSS OF USE, DATA, OR PROFITS; OR BUSINESS INTERRUPTION) HOWEVER 
  29:..\..\..\u8g2\u8g2\csrc/u8x8_d_st75256.c ****   CAUSED AND ON ANY THEORY OF LIABILITY, WHETHER IN CONTRACT, 
  30:..\..\..\u8g2\u8g2\csrc/u8x8_d_st75256.c ****   STRICT LIABILITY, OR TORT (INCLUDING NEGLIGENCE OR OTHERWISE) 
  31:..\..\..\u8g2\u8g2\csrc/u8x8_d_st75256.c ****   ARISING IN ANY WAY OUT OF THE USE OF THIS SOFTWARE, EVEN IF 
ARM GAS  C:\Users\jesse\AppData\Local\Temp\cc6zNusR.s 			page 2


  32:..\..\..\u8g2\u8g2\csrc/u8x8_d_st75256.c ****   ADVISED OF THE POSSIBILITY OF SUCH DAMAGE.  
  33:..\..\..\u8g2\u8g2\csrc/u8x8_d_st75256.c **** 
  34:..\..\..\u8g2\u8g2\csrc/u8x8_d_st75256.c ****   0x030	ext 00
  35:..\..\..\u8g2\u8g2\csrc/u8x8_d_st75256.c ****   0x031	ext 01
  36:..\..\..\u8g2\u8g2\csrc/u8x8_d_st75256.c ****   0x038	ext 10
  37:..\..\..\u8g2\u8g2\csrc/u8x8_d_st75256.c ****   0x039	ext 11
  38:..\..\..\u8g2\u8g2\csrc/u8x8_d_st75256.c ****   
  39:..\..\..\u8g2\u8g2\csrc/u8x8_d_st75256.c ****   cad 011
  40:..\..\..\u8g2\u8g2\csrc/u8x8_d_st75256.c ****   
  41:..\..\..\u8g2\u8g2\csrc/u8x8_d_st75256.c ****   
  42:..\..\..\u8g2\u8g2\csrc/u8x8_d_st75256.c ****   code examples:
  43:..\..\..\u8g2\u8g2\csrc/u8x8_d_st75256.c ****   http://www.it610.com/article/2601023.htm
  44:..\..\..\u8g2\u8g2\csrc/u8x8_d_st75256.c ****   
  45:..\..\..\u8g2\u8g2\csrc/u8x8_d_st75256.c ****   normal mode:
  46:..\..\..\u8g2\u8g2\csrc/u8x8_d_st75256.c **** 	0x00c	bit format
  47:..\..\..\u8g2\u8g2\csrc/u8x8_d_st75256.c ****   U8X8_CA( 0xbc, 0x00 ),	data scan dir 
  48:..\..\..\u8g2\u8g2\csrc/u8x8_d_st75256.c ****   U8X8_A( 0xa6 ),				
  49:..\..\..\u8g2\u8g2\csrc/u8x8_d_st75256.c ****   y: 0 offset
  50:..\..\..\u8g2\u8g2\csrc/u8x8_d_st75256.c ****   
  51:..\..\..\u8g2\u8g2\csrc/u8x8_d_st75256.c ****   flip mode:
  52:..\..\..\u8g2\u8g2\csrc/u8x8_d_st75256.c **** 	0x008	bit format
  53:..\..\..\u8g2\u8g2\csrc/u8x8_d_st75256.c ****   U8X8_CA( 0xbc, 0x03 ),	data scan dir 
  54:..\..\..\u8g2\u8g2\csrc/u8x8_d_st75256.c ****   U8X8_A( 0xa6 ),				
  55:..\..\..\u8g2\u8g2\csrc/u8x8_d_st75256.c ****   y: 5 offset
  56:..\..\..\u8g2\u8g2\csrc/u8x8_d_st75256.c **** 	
  57:..\..\..\u8g2\u8g2\csrc/u8x8_d_st75256.c ****   
  58:..\..\..\u8g2\u8g2\csrc/u8x8_d_st75256.c **** */
  59:..\..\..\u8g2\u8g2\csrc/u8x8_d_st75256.c **** 
  60:..\..\..\u8g2\u8g2\csrc/u8x8_d_st75256.c **** 
  61:..\..\..\u8g2\u8g2\csrc/u8x8_d_st75256.c **** #include "u8x8.h"
  62:..\..\..\u8g2\u8g2\csrc/u8x8_d_st75256.c **** 
  63:..\..\..\u8g2\u8g2\csrc/u8x8_d_st75256.c **** 
  64:..\..\..\u8g2\u8g2\csrc/u8x8_d_st75256.c **** /* not a real power down for the st75256... just a display off */
  65:..\..\..\u8g2\u8g2\csrc/u8x8_d_st75256.c **** static const uint8_t u8x8_d_st75256_256x128_powersave0_seq[] = {
  66:..\..\..\u8g2\u8g2\csrc/u8x8_d_st75256.c ****   U8X8_START_TRANSFER(),             	/* enable chip, delay is part of the transfer start */
  67:..\..\..\u8g2\u8g2\csrc/u8x8_d_st75256.c ****   U8X8_C( 0x030 ),				/* select 00 commands */  
  68:..\..\..\u8g2\u8g2\csrc/u8x8_d_st75256.c ****   U8X8_C( 0x94 ),				/* sleep out */
  69:..\..\..\u8g2\u8g2\csrc/u8x8_d_st75256.c ****   U8X8_DLY(10),
  70:..\..\..\u8g2\u8g2\csrc/u8x8_d_st75256.c ****   U8X8_C( 0xaf ),				/* display on */
  71:..\..\..\u8g2\u8g2\csrc/u8x8_d_st75256.c ****   U8X8_END_TRANSFER(),             	/* disable chip */
  72:..\..\..\u8g2\u8g2\csrc/u8x8_d_st75256.c ****   U8X8_END()             			/* end of sequence */
  73:..\..\..\u8g2\u8g2\csrc/u8x8_d_st75256.c **** };
  74:..\..\..\u8g2\u8g2\csrc/u8x8_d_st75256.c **** 
  75:..\..\..\u8g2\u8g2\csrc/u8x8_d_st75256.c **** static const uint8_t u8x8_d_st75256_256x128_powersave1_seq[] = {
  76:..\..\..\u8g2\u8g2\csrc/u8x8_d_st75256.c ****   U8X8_START_TRANSFER(),             	/* enable chip, delay is part of the transfer start */
  77:..\..\..\u8g2\u8g2\csrc/u8x8_d_st75256.c ****   U8X8_C( 0x030 ),				/* select 00 commands */
  78:..\..\..\u8g2\u8g2\csrc/u8x8_d_st75256.c ****   U8X8_C( 0xae ),				/* display off */
  79:..\..\..\u8g2\u8g2\csrc/u8x8_d_st75256.c ****   U8X8_C( 0x95 ),				/* sleep in */
  80:..\..\..\u8g2\u8g2\csrc/u8x8_d_st75256.c ****   U8X8_END_TRANSFER(),             	/* disable chip */
  81:..\..\..\u8g2\u8g2\csrc/u8x8_d_st75256.c ****   U8X8_END()             			/* end of sequence */
  82:..\..\..\u8g2\u8g2\csrc/u8x8_d_st75256.c **** };
  83:..\..\..\u8g2\u8g2\csrc/u8x8_d_st75256.c **** 
  84:..\..\..\u8g2\u8g2\csrc/u8x8_d_st75256.c **** static const uint8_t u8x8_d_st75256_jlx256128_flip0_seq[] = {
  85:..\..\..\u8g2\u8g2\csrc/u8x8_d_st75256.c ****   U8X8_START_TRANSFER(),             	/* enable chip, delay is part of the transfer start */
  86:..\..\..\u8g2\u8g2\csrc/u8x8_d_st75256.c ****   U8X8_C( 0x030 ),				/* select 00 commands */
  87:..\..\..\u8g2\u8g2\csrc/u8x8_d_st75256.c ****   U8X8_CA( 0xbc, 0x00 ),			/* data scan dir */
  88:..\..\..\u8g2\u8g2\csrc/u8x8_d_st75256.c ****   U8X8_A( 0xa6 ),				/* ??? */
ARM GAS  C:\Users\jesse\AppData\Local\Temp\cc6zNusR.s 			page 3


  89:..\..\..\u8g2\u8g2\csrc/u8x8_d_st75256.c **** 
  90:..\..\..\u8g2\u8g2\csrc/u8x8_d_st75256.c ****   //U8X8_C( 0x030 ),				/* select 00 commands */
  91:..\..\..\u8g2\u8g2\csrc/u8x8_d_st75256.c ****   U8X8_C( 0x00c ),				/* data format LSB top */
  92:..\..\..\u8g2\u8g2\csrc/u8x8_d_st75256.c ****   U8X8_END_TRANSFER(),             	/* disable chip */
  93:..\..\..\u8g2\u8g2\csrc/u8x8_d_st75256.c ****   U8X8_END()             			/* end of sequence */
  94:..\..\..\u8g2\u8g2\csrc/u8x8_d_st75256.c **** };
  95:..\..\..\u8g2\u8g2\csrc/u8x8_d_st75256.c **** 
  96:..\..\..\u8g2\u8g2\csrc/u8x8_d_st75256.c **** static const uint8_t u8x8_d_st75256_jlx256128_flip1_seq[] = {
  97:..\..\..\u8g2\u8g2\csrc/u8x8_d_st75256.c ****   U8X8_START_TRANSFER(),             	/* enable chip, delay is part of the transfer start */
  98:..\..\..\u8g2\u8g2\csrc/u8x8_d_st75256.c ****   U8X8_C( 0x030 ),				/* select 00 commands */
  99:..\..\..\u8g2\u8g2\csrc/u8x8_d_st75256.c ****   U8X8_CA( 0xbc, 0x03 ),			/* data scan dir */
 100:..\..\..\u8g2\u8g2\csrc/u8x8_d_st75256.c ****   U8X8_A( 0xa6 ),				/* ??? */
 101:..\..\..\u8g2\u8g2\csrc/u8x8_d_st75256.c **** 
 102:..\..\..\u8g2\u8g2\csrc/u8x8_d_st75256.c ****   //U8X8_C( 0x030 ),				/* select 00 commands */
 103:..\..\..\u8g2\u8g2\csrc/u8x8_d_st75256.c ****   U8X8_C( 0x008 ),				/* data format MSB top */
 104:..\..\..\u8g2\u8g2\csrc/u8x8_d_st75256.c ****   U8X8_END_TRANSFER(),             	/* disable chip */
 105:..\..\..\u8g2\u8g2\csrc/u8x8_d_st75256.c ****   U8X8_END()             			/* end of sequence */
 106:..\..\..\u8g2\u8g2\csrc/u8x8_d_st75256.c **** };
 107:..\..\..\u8g2\u8g2\csrc/u8x8_d_st75256.c **** 
 108:..\..\..\u8g2\u8g2\csrc/u8x8_d_st75256.c **** static const uint8_t u8x8_d_st75256_jlx172104_flip0_seq[] = {
 109:..\..\..\u8g2\u8g2\csrc/u8x8_d_st75256.c ****   U8X8_START_TRANSFER(),             	/* enable chip, delay is part of the transfer start */
 110:..\..\..\u8g2\u8g2\csrc/u8x8_d_st75256.c ****   U8X8_C( 0x030 ),				/* select 00 commands */
 111:..\..\..\u8g2\u8g2\csrc/u8x8_d_st75256.c ****   U8X8_CA( 0xbc, 0x02 ),			/* data scan dir */
 112:..\..\..\u8g2\u8g2\csrc/u8x8_d_st75256.c ****   U8X8_A( 0xa6 ),				/* ??? */
 113:..\..\..\u8g2\u8g2\csrc/u8x8_d_st75256.c **** 
 114:..\..\..\u8g2\u8g2\csrc/u8x8_d_st75256.c ****   //U8X8_C( 0x030 ),				/* select 00 commands */
 115:..\..\..\u8g2\u8g2\csrc/u8x8_d_st75256.c ****   U8X8_C( 0x00c ),				/* data format LSB top */
 116:..\..\..\u8g2\u8g2\csrc/u8x8_d_st75256.c ****   U8X8_END_TRANSFER(),             	/* disable chip */
 117:..\..\..\u8g2\u8g2\csrc/u8x8_d_st75256.c ****   U8X8_END()             			/* end of sequence */
 118:..\..\..\u8g2\u8g2\csrc/u8x8_d_st75256.c **** };
 119:..\..\..\u8g2\u8g2\csrc/u8x8_d_st75256.c **** 
 120:..\..\..\u8g2\u8g2\csrc/u8x8_d_st75256.c **** static const uint8_t u8x8_d_st75256_jlx172104_flip1_seq[] = {
 121:..\..\..\u8g2\u8g2\csrc/u8x8_d_st75256.c ****   U8X8_START_TRANSFER(),             	/* enable chip, delay is part of the transfer start */
 122:..\..\..\u8g2\u8g2\csrc/u8x8_d_st75256.c ****   U8X8_C( 0x030 ),				/* select 00 commands */
 123:..\..\..\u8g2\u8g2\csrc/u8x8_d_st75256.c ****   U8X8_CA( 0xbc, 0x01 ),			/* data scan dir */
 124:..\..\..\u8g2\u8g2\csrc/u8x8_d_st75256.c ****   U8X8_A( 0xa6 ),				/* ??? */
 125:..\..\..\u8g2\u8g2\csrc/u8x8_d_st75256.c **** 
 126:..\..\..\u8g2\u8g2\csrc/u8x8_d_st75256.c ****   //U8X8_C( 0x030 ),				/* select 00 commands */
 127:..\..\..\u8g2\u8g2\csrc/u8x8_d_st75256.c ****   U8X8_C( 0x008 ),				/* data format MSB top */
 128:..\..\..\u8g2\u8g2\csrc/u8x8_d_st75256.c ****   U8X8_END_TRANSFER(),             	/* disable chip */
 129:..\..\..\u8g2\u8g2\csrc/u8x8_d_st75256.c ****   U8X8_END()             			/* end of sequence */
 130:..\..\..\u8g2\u8g2\csrc/u8x8_d_st75256.c **** };
 131:..\..\..\u8g2\u8g2\csrc/u8x8_d_st75256.c **** 
 132:..\..\..\u8g2\u8g2\csrc/u8x8_d_st75256.c **** static const uint8_t u8x8_d_st75256_jlx256160_flip0_seq[] = {
 133:..\..\..\u8g2\u8g2\csrc/u8x8_d_st75256.c ****   U8X8_START_TRANSFER(),             	/* enable chip, delay is part of the transfer start */
 134:..\..\..\u8g2\u8g2\csrc/u8x8_d_st75256.c ****   U8X8_C( 0x030 ),				/* select 00 commands */
 135:..\..\..\u8g2\u8g2\csrc/u8x8_d_st75256.c ****   U8X8_CA( 0xbc, 0x00 ),			/* data scan dir */
 136:..\..\..\u8g2\u8g2\csrc/u8x8_d_st75256.c ****   U8X8_A( 0xa6 ),				/* ??? */
 137:..\..\..\u8g2\u8g2\csrc/u8x8_d_st75256.c **** 
 138:..\..\..\u8g2\u8g2\csrc/u8x8_d_st75256.c ****   //U8X8_C( 0x030 ),				/* select 00 commands */
 139:..\..\..\u8g2\u8g2\csrc/u8x8_d_st75256.c ****   U8X8_C( 0x00c ),				/* data format LSB top */
 140:..\..\..\u8g2\u8g2\csrc/u8x8_d_st75256.c ****   U8X8_END_TRANSFER(),             	/* disable chip */
 141:..\..\..\u8g2\u8g2\csrc/u8x8_d_st75256.c ****   U8X8_END()             			/* end of sequence */
 142:..\..\..\u8g2\u8g2\csrc/u8x8_d_st75256.c **** };
 143:..\..\..\u8g2\u8g2\csrc/u8x8_d_st75256.c **** 
 144:..\..\..\u8g2\u8g2\csrc/u8x8_d_st75256.c **** static const uint8_t u8x8_d_st75256_jlx256160_flip1_seq[] = {
 145:..\..\..\u8g2\u8g2\csrc/u8x8_d_st75256.c ****   U8X8_START_TRANSFER(),             	/* enable chip, delay is part of the transfer start */
ARM GAS  C:\Users\jesse\AppData\Local\Temp\cc6zNusR.s 			page 4


 146:..\..\..\u8g2\u8g2\csrc/u8x8_d_st75256.c ****   U8X8_C( 0x030 ),				/* select 00 commands */
 147:..\..\..\u8g2\u8g2\csrc/u8x8_d_st75256.c ****   U8X8_CA( 0xbc, 0x03 ),			/* data scan dir */
 148:..\..\..\u8g2\u8g2\csrc/u8x8_d_st75256.c ****   U8X8_A( 0xa6 ),				/* ??? */
 149:..\..\..\u8g2\u8g2\csrc/u8x8_d_st75256.c **** 
 150:..\..\..\u8g2\u8g2\csrc/u8x8_d_st75256.c ****   //U8X8_C( 0x030 ),				/* select 00 commands */
 151:..\..\..\u8g2\u8g2\csrc/u8x8_d_st75256.c ****   U8X8_C( 0x008 ),				/* data format MSB top */
 152:..\..\..\u8g2\u8g2\csrc/u8x8_d_st75256.c ****   U8X8_END_TRANSFER(),             	/* disable chip */
 153:..\..\..\u8g2\u8g2\csrc/u8x8_d_st75256.c ****   U8X8_END()             			/* end of sequence */
 154:..\..\..\u8g2\u8g2\csrc/u8x8_d_st75256.c **** };
 155:..\..\..\u8g2\u8g2\csrc/u8x8_d_st75256.c **** 
 156:..\..\..\u8g2\u8g2\csrc/u8x8_d_st75256.c **** 
 157:..\..\..\u8g2\u8g2\csrc/u8x8_d_st75256.c **** static uint8_t u8x8_d_st75256_256x128_generic(u8x8_t *u8x8, uint8_t msg, uint8_t arg_int, void *arg
 158:..\..\..\u8g2\u8g2\csrc/u8x8_d_st75256.c **** {
  27              		.loc 1 158 0
  28              		.cfi_startproc
  29              		@ args = 0, pretend = 0, frame = 0
  30              		@ frame_needed = 0, uses_anonymous_args = 0
  31              	.LVL0:
 159:..\..\..\u8g2\u8g2\csrc/u8x8_d_st75256.c ****   uint8_t x, c;
 160:..\..\..\u8g2\u8g2\csrc/u8x8_d_st75256.c ****   uint8_t *ptr;
 161:..\..\..\u8g2\u8g2\csrc/u8x8_d_st75256.c ****   switch(msg)
  32              		.loc 1 161 0
  33 0000 0E29     		cmp	r1, #14
 158:..\..\..\u8g2\u8g2\csrc/u8x8_d_st75256.c ****   uint8_t x, c;
  34              		.loc 1 158 0
  35 0002 2DE9F041 		push	{r4, r5, r6, r7, r8, lr}
  36              		.cfi_def_cfa_offset 24
  37              		.cfi_offset 4, -24
  38              		.cfi_offset 5, -20
  39              		.cfi_offset 6, -16
  40              		.cfi_offset 7, -12
  41              		.cfi_offset 8, -8
  42              		.cfi_offset 14, -4
 158:..\..\..\u8g2\u8g2\csrc/u8x8_d_st75256.c ****   uint8_t x, c;
  43              		.loc 1 158 0
  44 0006 0446     		mov	r4, r0
  45 0008 1546     		mov	r5, r2
  46 000a 9846     		mov	r8, r3
  47              		.loc 1 161 0
  48 000c 0AD0     		beq	.L3
  49 000e 0F29     		cmp	r1, #15
  50 0010 22D0     		beq	.L4
  51 0012 0B29     		cmp	r1, #11
  52 0014 65D1     		bne	.L11
 162:..\..\..\u8g2\u8g2\csrc/u8x8_d_st75256.c ****   {
 163:..\..\..\u8g2\u8g2\csrc/u8x8_d_st75256.c ****     /* handled by the calling function
 164:..\..\..\u8g2\u8g2\csrc/u8x8_d_st75256.c ****     case U8X8_MSG_DISPLAY_SETUP_MEMORY:
 165:..\..\..\u8g2\u8g2\csrc/u8x8_d_st75256.c ****       u8x8_d_helper_display_setup_memory(u8x8, &u8x8_st75256_256x128_display_info);
 166:..\..\..\u8g2\u8g2\csrc/u8x8_d_st75256.c ****       break;
 167:..\..\..\u8g2\u8g2\csrc/u8x8_d_st75256.c ****     */
 168:..\..\..\u8g2\u8g2\csrc/u8x8_d_st75256.c ****     /* handled by the calling function
 169:..\..\..\u8g2\u8g2\csrc/u8x8_d_st75256.c ****     case U8X8_MSG_DISPLAY_INIT:
 170:..\..\..\u8g2\u8g2\csrc/u8x8_d_st75256.c ****       u8x8_d_helper_display_init(u8x8);
 171:..\..\..\u8g2\u8g2\csrc/u8x8_d_st75256.c ****       u8x8_cad_SendSequence(u8x8, u8x8_d_st75256_256x128_init_seq);    
 172:..\..\..\u8g2\u8g2\csrc/u8x8_d_st75256.c ****       break;
 173:..\..\..\u8g2\u8g2\csrc/u8x8_d_st75256.c ****     */
 174:..\..\..\u8g2\u8g2\csrc/u8x8_d_st75256.c ****     case U8X8_MSG_DISPLAY_SET_POWER_SAVE:
ARM GAS  C:\Users\jesse\AppData\Local\Temp\cc6zNusR.s 			page 5


 175:..\..\..\u8g2\u8g2\csrc/u8x8_d_st75256.c ****       if ( arg_int == 0 )
  53              		.loc 1 175 0
  54 0016 0AB9     		cbnz	r2, .L6
 176:..\..\..\u8g2\u8g2\csrc/u8x8_d_st75256.c ****         u8x8_cad_SendSequence(u8x8, u8x8_d_st75256_256x128_powersave0_seq);
  55              		.loc 1 176 0
  56 0018 3349     		ldr	r1, .L16
  57              	.LVL1:
  58 001a 00E0     		b	.L14
  59              	.LVL2:
  60              	.L6:
 177:..\..\..\u8g2\u8g2\csrc/u8x8_d_st75256.c ****       else
 178:..\..\..\u8g2\u8g2\csrc/u8x8_d_st75256.c ****         u8x8_cad_SendSequence(u8x8, u8x8_d_st75256_256x128_powersave1_seq);
  61              		.loc 1 178 0
  62 001c 3349     		ldr	r1, .L16+4
  63              	.LVL3:
  64              	.L14:
  65 001e FFF7FEFF 		bl	u8x8_cad_SendSequence
  66              	.LVL4:
  67 0022 16E0     		b	.L12
  68              	.LVL5:
  69              	.L3:
 179:..\..\..\u8g2\u8g2\csrc/u8x8_d_st75256.c **** 
 180:..\..\..\u8g2\u8g2\csrc/u8x8_d_st75256.c ****       break;
 181:..\..\..\u8g2\u8g2\csrc/u8x8_d_st75256.c **** #ifdef U8X8_WITH_SET_CONTRAST
 182:..\..\..\u8g2\u8g2\csrc/u8x8_d_st75256.c ****     case U8X8_MSG_DISPLAY_SET_CONTRAST:
 183:..\..\..\u8g2\u8g2\csrc/u8x8_d_st75256.c **** 
 184:..\..\..\u8g2\u8g2\csrc/u8x8_d_st75256.c ****       u8x8_cad_StartTransfer(u8x8);
  70              		.loc 1 184 0
  71 0024 FFF7FEFF 		bl	u8x8_cad_StartTransfer
  72              	.LVL6:
 185:..\..\..\u8g2\u8g2\csrc/u8x8_d_st75256.c ****       
 186:..\..\..\u8g2\u8g2\csrc/u8x8_d_st75256.c ****       u8x8_cad_SendCmd(u8x8, 0x030 );
  73              		.loc 1 186 0
  74 0028 3021     		movs	r1, #48
  75 002a 2046     		mov	r0, r4
  76 002c FFF7FEFF 		bl	u8x8_cad_SendCmd
  77              	.LVL7:
 187:..\..\..\u8g2\u8g2\csrc/u8x8_d_st75256.c ****       u8x8_cad_SendCmd(u8x8, 0x081 );  /* there are 9 bit for the volume control */
  78              		.loc 1 187 0
  79 0030 8121     		movs	r1, #129
  80 0032 2046     		mov	r0, r4
  81 0034 FFF7FEFF 		bl	u8x8_cad_SendCmd
  82              	.LVL8:
 188:..\..\..\u8g2\u8g2\csrc/u8x8_d_st75256.c ****       u8x8_cad_SendArg(u8x8, (arg_int & 0x1f)<<1 );	/* lower 6 bit */
  83              		.loc 1 188 0
  84 0038 6900     		lsls	r1, r5, #1
  85 003a 01F03E01 		and	r1, r1, #62
  86 003e 2046     		mov	r0, r4
  87 0040 FFF7FEFF 		bl	u8x8_cad_SendArg
  88              	.LVL9:
 189:..\..\..\u8g2\u8g2\csrc/u8x8_d_st75256.c ****       u8x8_cad_SendArg(u8x8, (arg_int>>5));		/* upper 3 bit */
  89              		.loc 1 189 0
  90 0044 6909     		lsrs	r1, r5, #5
  91 0046 2046     		mov	r0, r4
  92 0048 FFF7FEFF 		bl	u8x8_cad_SendArg
  93              	.LVL10:
  94              	.L13:
ARM GAS  C:\Users\jesse\AppData\Local\Temp\cc6zNusR.s 			page 6


 190:..\..\..\u8g2\u8g2\csrc/u8x8_d_st75256.c ****       
 191:..\..\..\u8g2\u8g2\csrc/u8x8_d_st75256.c ****       u8x8_cad_EndTransfer(u8x8);
  95              		.loc 1 191 0
  96 004c 2046     		mov	r0, r4
  97 004e FFF7FEFF 		bl	u8x8_cad_EndTransfer
  98              	.LVL11:
  99              	.L12:
 192:..\..\..\u8g2\u8g2\csrc/u8x8_d_st75256.c ****       break;
 193:..\..\..\u8g2\u8g2\csrc/u8x8_d_st75256.c **** #endif
 194:..\..\..\u8g2\u8g2\csrc/u8x8_d_st75256.c ****     case U8X8_MSG_DISPLAY_DRAW_TILE:
 195:..\..\..\u8g2\u8g2\csrc/u8x8_d_st75256.c ****       
 196:..\..\..\u8g2\u8g2\csrc/u8x8_d_st75256.c ****       u8x8_cad_StartTransfer(u8x8);
 197:..\..\..\u8g2\u8g2\csrc/u8x8_d_st75256.c ****       x = ((u8x8_tile_t *)arg_ptr)->x_pos;    
 198:..\..\..\u8g2\u8g2\csrc/u8x8_d_st75256.c ****       x *= 8;
 199:..\..\..\u8g2\u8g2\csrc/u8x8_d_st75256.c ****       
 200:..\..\..\u8g2\u8g2\csrc/u8x8_d_st75256.c ****       u8x8_cad_SendCmd(u8x8, 0x030 );	/* select command set */
 201:..\..\..\u8g2\u8g2\csrc/u8x8_d_st75256.c ****       u8x8_cad_SendCmd(u8x8, 0x075 );	/* row */
 202:..\..\..\u8g2\u8g2\csrc/u8x8_d_st75256.c ****       u8x8_cad_SendArg(u8x8, u8x8->x_offset + (((u8x8_tile_t *)arg_ptr)->y_pos));	/* x offset is us
 203:..\..\..\u8g2\u8g2\csrc/u8x8_d_st75256.c ****       u8x8_cad_SendArg(u8x8, 0x04f);
 204:..\..\..\u8g2\u8g2\csrc/u8x8_d_st75256.c ****       //u8x8_cad_SendArg(u8x8, (((u8x8_tile_t *)arg_ptr)->y_pos));
 205:..\..\..\u8g2\u8g2\csrc/u8x8_d_st75256.c ****       u8x8_cad_SendCmd(u8x8, 0x015 );	/* col */
 206:..\..\..\u8g2\u8g2\csrc/u8x8_d_st75256.c ****       u8x8_cad_SendArg(u8x8, x);
 207:..\..\..\u8g2\u8g2\csrc/u8x8_d_st75256.c ****       u8x8_cad_SendArg(u8x8, 255);
 208:..\..\..\u8g2\u8g2\csrc/u8x8_d_st75256.c ****       u8x8_cad_SendCmd(u8x8, 0x05c );	
 209:..\..\..\u8g2\u8g2\csrc/u8x8_d_st75256.c ****           
 210:..\..\..\u8g2\u8g2\csrc/u8x8_d_st75256.c ****       do
 211:..\..\..\u8g2\u8g2\csrc/u8x8_d_st75256.c ****       {
 212:..\..\..\u8g2\u8g2\csrc/u8x8_d_st75256.c ****         c = ((u8x8_tile_t *)arg_ptr)->cnt;
 213:..\..\..\u8g2\u8g2\csrc/u8x8_d_st75256.c ****         ptr = ((u8x8_tile_t *)arg_ptr)->tile_ptr;
 214:..\..\..\u8g2\u8g2\csrc/u8x8_d_st75256.c ****         /* SendData can not handle more than 255 bytes, treat c > 31 correctly  */
 215:..\..\..\u8g2\u8g2\csrc/u8x8_d_st75256.c ****         if ( c > 31 )
 216:..\..\..\u8g2\u8g2\csrc/u8x8_d_st75256.c ****         {
 217:..\..\..\u8g2\u8g2\csrc/u8x8_d_st75256.c ****           u8x8_cad_SendData(u8x8, 248, ptr); 	/* 31*8=248 */
 218:..\..\..\u8g2\u8g2\csrc/u8x8_d_st75256.c ****           ptr+=248;
 219:..\..\..\u8g2\u8g2\csrc/u8x8_d_st75256.c ****           c -= 31;
 220:..\..\..\u8g2\u8g2\csrc/u8x8_d_st75256.c ****         }
 221:..\..\..\u8g2\u8g2\csrc/u8x8_d_st75256.c ****         
 222:..\..\..\u8g2\u8g2\csrc/u8x8_d_st75256.c ****         u8x8_cad_SendData(u8x8, c*8, ptr); 	
 223:..\..\..\u8g2\u8g2\csrc/u8x8_d_st75256.c ****         arg_int--;
 224:..\..\..\u8g2\u8g2\csrc/u8x8_d_st75256.c ****       } while( arg_int > 0 );
 225:..\..\..\u8g2\u8g2\csrc/u8x8_d_st75256.c ****       
 226:..\..\..\u8g2\u8g2\csrc/u8x8_d_st75256.c ****       u8x8_cad_EndTransfer(u8x8);
 227:..\..\..\u8g2\u8g2\csrc/u8x8_d_st75256.c ****       break;
 228:..\..\..\u8g2\u8g2\csrc/u8x8_d_st75256.c ****     default:
 229:..\..\..\u8g2\u8g2\csrc/u8x8_d_st75256.c ****       return 0;
 230:..\..\..\u8g2\u8g2\csrc/u8x8_d_st75256.c ****   }
 231:..\..\..\u8g2\u8g2\csrc/u8x8_d_st75256.c ****   return 1;
 100              		.loc 1 231 0
 101 0052 0120     		movs	r0, #1
 192:..\..\..\u8g2\u8g2\csrc/u8x8_d_st75256.c ****       break;
 102              		.loc 1 192 0
 103 0054 BDE8F081 		pop	{r4, r5, r6, r7, r8, pc}
 104              	.LVL12:
 105              	.L4:
 196:..\..\..\u8g2\u8g2\csrc/u8x8_d_st75256.c ****       x = ((u8x8_tile_t *)arg_ptr)->x_pos;    
 106              		.loc 1 196 0
 107 0058 FFF7FEFF 		bl	u8x8_cad_StartTransfer
ARM GAS  C:\Users\jesse\AppData\Local\Temp\cc6zNusR.s 			page 7


 108              	.LVL13:
 200:..\..\..\u8g2\u8g2\csrc/u8x8_d_st75256.c ****       u8x8_cad_SendCmd(u8x8, 0x075 );	/* row */
 109              		.loc 1 200 0
 110 005c 3021     		movs	r1, #48
 111 005e 2046     		mov	r0, r4
 197:..\..\..\u8g2\u8g2\csrc/u8x8_d_st75256.c ****       x *= 8;
 112              		.loc 1 197 0
 113 0060 98F80560 		ldrb	r6, [r8, #5]	@ zero_extendqisi2
 114              	.LVL14:
 200:..\..\..\u8g2\u8g2\csrc/u8x8_d_st75256.c ****       u8x8_cad_SendCmd(u8x8, 0x075 );	/* row */
 115              		.loc 1 200 0
 116 0064 FFF7FEFF 		bl	u8x8_cad_SendCmd
 117              	.LVL15:
 201:..\..\..\u8g2\u8g2\csrc/u8x8_d_st75256.c ****       u8x8_cad_SendArg(u8x8, u8x8->x_offset + (((u8x8_tile_t *)arg_ptr)->y_pos));	/* x offset is us
 118              		.loc 1 201 0
 119 0068 7521     		movs	r1, #117
 120 006a 2046     		mov	r0, r4
 121 006c FFF7FEFF 		bl	u8x8_cad_SendCmd
 122              	.LVL16:
 202:..\..\..\u8g2\u8g2\csrc/u8x8_d_st75256.c ****       u8x8_cad_SendArg(u8x8, 0x04f);
 123              		.loc 1 202 0
 124 0070 98F80630 		ldrb	r3, [r8, #6]	@ zero_extendqisi2
 125 0074 94F82210 		ldrb	r1, [r4, #34]	@ zero_extendqisi2
 126 0078 2046     		mov	r0, r4
 127 007a 1944     		add	r1, r1, r3
 128 007c C9B2     		uxtb	r1, r1
 129 007e FFF7FEFF 		bl	u8x8_cad_SendArg
 130              	.LVL17:
 203:..\..\..\u8g2\u8g2\csrc/u8x8_d_st75256.c ****       //u8x8_cad_SendArg(u8x8, (((u8x8_tile_t *)arg_ptr)->y_pos));
 131              		.loc 1 203 0
 132 0082 4F21     		movs	r1, #79
 133 0084 2046     		mov	r0, r4
 134 0086 FFF7FEFF 		bl	u8x8_cad_SendArg
 135              	.LVL18:
 205:..\..\..\u8g2\u8g2\csrc/u8x8_d_st75256.c ****       u8x8_cad_SendArg(u8x8, x);
 136              		.loc 1 205 0
 137 008a 1521     		movs	r1, #21
 138 008c 2046     		mov	r0, r4
 139 008e FFF7FEFF 		bl	u8x8_cad_SendCmd
 140              	.LVL19:
 206:..\..\..\u8g2\u8g2\csrc/u8x8_d_st75256.c ****       u8x8_cad_SendArg(u8x8, 255);
 141              		.loc 1 206 0
 142 0092 F100     		lsls	r1, r6, #3
 143 0094 01F0F801 		and	r1, r1, #248
 144 0098 2046     		mov	r0, r4
 145 009a FFF7FEFF 		bl	u8x8_cad_SendArg
 146              	.LVL20:
 207:..\..\..\u8g2\u8g2\csrc/u8x8_d_st75256.c ****       u8x8_cad_SendCmd(u8x8, 0x05c );	
 147              		.loc 1 207 0
 148 009e FF21     		movs	r1, #255
 149 00a0 2046     		mov	r0, r4
 150 00a2 FFF7FEFF 		bl	u8x8_cad_SendArg
 151              	.LVL21:
 208:..\..\..\u8g2\u8g2\csrc/u8x8_d_st75256.c ****           
 152              		.loc 1 208 0
 153 00a6 5C21     		movs	r1, #92
 154 00a8 2046     		mov	r0, r4
ARM GAS  C:\Users\jesse\AppData\Local\Temp\cc6zNusR.s 			page 8


 155 00aa FFF7FEFF 		bl	u8x8_cad_SendCmd
 156              	.LVL22:
 157              	.L8:
 212:..\..\..\u8g2\u8g2\csrc/u8x8_d_st75256.c ****         ptr = ((u8x8_tile_t *)arg_ptr)->tile_ptr;
 158              		.loc 1 212 0
 159 00ae 98F80460 		ldrb	r6, [r8, #4]	@ zero_extendqisi2
 160              	.LVL23:
 213:..\..\..\u8g2\u8g2\csrc/u8x8_d_st75256.c ****         /* SendData can not handle more than 255 bytes, treat c > 31 correctly  */
 161              		.loc 1 213 0
 162 00b2 D8F80070 		ldr	r7, [r8]
 163              	.LVL24:
 215:..\..\..\u8g2\u8g2\csrc/u8x8_d_st75256.c ****         {
 164              		.loc 1 215 0
 165 00b6 1F2E     		cmp	r6, #31
 166 00b8 07D9     		bls	.L7
 217:..\..\..\u8g2\u8g2\csrc/u8x8_d_st75256.c ****           ptr+=248;
 167              		.loc 1 217 0
 168 00ba 3A46     		mov	r2, r7
 169 00bc F821     		movs	r1, #248
 170 00be 2046     		mov	r0, r4
 171 00c0 FFF7FEFF 		bl	u8x8_cad_SendData
 172              	.LVL25:
 219:..\..\..\u8g2\u8g2\csrc/u8x8_d_st75256.c ****         }
 173              		.loc 1 219 0
 174 00c4 1F3E     		subs	r6, r6, #31
 175              	.LVL26:
 218:..\..\..\u8g2\u8g2\csrc/u8x8_d_st75256.c ****           c -= 31;
 176              		.loc 1 218 0
 177 00c6 F837     		adds	r7, r7, #248
 178              	.LVL27:
 219:..\..\..\u8g2\u8g2\csrc/u8x8_d_st75256.c ****         }
 179              		.loc 1 219 0
 180 00c8 F6B2     		uxtb	r6, r6
 181              	.LVL28:
 182              	.L7:
 222:..\..\..\u8g2\u8g2\csrc/u8x8_d_st75256.c ****         arg_int--;
 183              		.loc 1 222 0
 184 00ca F100     		lsls	r1, r6, #3
 185 00cc 3A46     		mov	r2, r7
 186 00ce 01F0F801 		and	r1, r1, #248
 187 00d2 2046     		mov	r0, r4
 223:..\..\..\u8g2\u8g2\csrc/u8x8_d_st75256.c ****       } while( arg_int > 0 );
 188              		.loc 1 223 0
 189 00d4 013D     		subs	r5, r5, #1
 190              	.LVL29:
 222:..\..\..\u8g2\u8g2\csrc/u8x8_d_st75256.c ****         arg_int--;
 191              		.loc 1 222 0
 192 00d6 FFF7FEFF 		bl	u8x8_cad_SendData
 193              	.LVL30:
 224:..\..\..\u8g2\u8g2\csrc/u8x8_d_st75256.c ****       
 194              		.loc 1 224 0
 195 00da 15F0FF05 		ands	r5, r5, #255
 196              	.LVL31:
 197 00de E6D1     		bne	.L8
 198 00e0 B4E7     		b	.L13
 199              	.LVL32:
 200              	.L11:
ARM GAS  C:\Users\jesse\AppData\Local\Temp\cc6zNusR.s 			page 9


 229:..\..\..\u8g2\u8g2\csrc/u8x8_d_st75256.c ****   }
 201              		.loc 1 229 0
 202 00e2 0020     		movs	r0, #0
 203              	.LVL33:
 232:..\..\..\u8g2\u8g2\csrc/u8x8_d_st75256.c **** }
 204              		.loc 1 232 0
 205 00e4 BDE8F081 		pop	{r4, r5, r6, r7, r8, pc}
 206              	.LVL34:
 207              	.L17:
 208              		.align	2
 209              	.L16:
 210 00e8 00000000 		.word	.LANCHOR0
 211 00ec 0B000000 		.word	.LANCHOR0+11
 212              		.cfi_endproc
 213              	.LFE0:
 214              		.size	u8x8_d_st75256_256x128_generic, .-u8x8_d_st75256_256x128_generic
 215              		.section	.text.u8x8_d_st75256_jlx256128,"ax",%progbits
 216              		.align	1
 217              		.global	u8x8_d_st75256_jlx256128
 218              		.thumb
 219              		.thumb_func
 220              		.type	u8x8_d_st75256_jlx256128, %function
 221              	u8x8_d_st75256_jlx256128:
 222              	.LFB1:
 233:..\..\..\u8g2\u8g2\csrc/u8x8_d_st75256.c **** 
 234:..\..\..\u8g2\u8g2\csrc/u8x8_d_st75256.c **** /*=============================================*/
 235:..\..\..\u8g2\u8g2\csrc/u8x8_d_st75256.c **** /* JLX256128 */
 236:..\..\..\u8g2\u8g2\csrc/u8x8_d_st75256.c **** 
 237:..\..\..\u8g2\u8g2\csrc/u8x8_d_st75256.c **** static const u8x8_display_info_t u8x8_st75256_256x128_display_info =
 238:..\..\..\u8g2\u8g2\csrc/u8x8_d_st75256.c **** {
 239:..\..\..\u8g2\u8g2\csrc/u8x8_d_st75256.c ****   /* chip_enable_level = */ 0,
 240:..\..\..\u8g2\u8g2\csrc/u8x8_d_st75256.c ****   /* chip_disable_level = */ 1,
 241:..\..\..\u8g2\u8g2\csrc/u8x8_d_st75256.c ****   
 242:..\..\..\u8g2\u8g2\csrc/u8x8_d_st75256.c ****   /* post_chip_enable_wait_ns = */ 20,
 243:..\..\..\u8g2\u8g2\csrc/u8x8_d_st75256.c ****   /* pre_chip_disable_wait_ns = */ 20,
 244:..\..\..\u8g2\u8g2\csrc/u8x8_d_st75256.c ****   /* reset_pulse_width_ms = */ 5, 	
 245:..\..\..\u8g2\u8g2\csrc/u8x8_d_st75256.c ****   /* post_reset_wait_ms = */ 5, 		/**/
 246:..\..\..\u8g2\u8g2\csrc/u8x8_d_st75256.c ****   /* sda_setup_time_ns = */ 20,		/* */
 247:..\..\..\u8g2\u8g2\csrc/u8x8_d_st75256.c ****   /* sck_pulse_width_ns = */ 40,	/*  */
 248:..\..\..\u8g2\u8g2\csrc/u8x8_d_st75256.c ****   /* sck_clock_hz = */ 4000000UL,	/* since Arduino 1.6.0, the SPI bus speed in Hz. Should be  10000
 249:..\..\..\u8g2\u8g2\csrc/u8x8_d_st75256.c ****   /* spi_mode = */ 0,		/* active high, rising edge */
 250:..\..\..\u8g2\u8g2\csrc/u8x8_d_st75256.c ****   /* i2c_bus_clock_100kHz = */ 4,	/* 400KHz */
 251:..\..\..\u8g2\u8g2\csrc/u8x8_d_st75256.c ****   /* data_setup_time_ns = */ 15,
 252:..\..\..\u8g2\u8g2\csrc/u8x8_d_st75256.c ****   /* write_pulse_width_ns = */ 70,	
 253:..\..\..\u8g2\u8g2\csrc/u8x8_d_st75256.c ****   /* tile_width = */ 32,
 254:..\..\..\u8g2\u8g2\csrc/u8x8_d_st75256.c ****   /* tile_hight = */ 16,
 255:..\..\..\u8g2\u8g2\csrc/u8x8_d_st75256.c ****   /* default_x_offset = */ 0,	/* must be 0, because this is checked also for normal mode */
 256:..\..\..\u8g2\u8g2\csrc/u8x8_d_st75256.c ****   /* flipmode_x_offset = */ 5,		/* used as y offset */
 257:..\..\..\u8g2\u8g2\csrc/u8x8_d_st75256.c ****   /* pixel_width = */ 256,
 258:..\..\..\u8g2\u8g2\csrc/u8x8_d_st75256.c ****   /* pixel_height = */ 128
 259:..\..\..\u8g2\u8g2\csrc/u8x8_d_st75256.c **** };
 260:..\..\..\u8g2\u8g2\csrc/u8x8_d_st75256.c **** 
 261:..\..\..\u8g2\u8g2\csrc/u8x8_d_st75256.c **** 
 262:..\..\..\u8g2\u8g2\csrc/u8x8_d_st75256.c **** static const uint8_t u8x8_d_st75256_256x128_init_seq[] = {
 263:..\..\..\u8g2\u8g2\csrc/u8x8_d_st75256.c ****   U8X8_START_TRANSFER(),             	/* enable chip, delay is part of the transfer start */
 264:..\..\..\u8g2\u8g2\csrc/u8x8_d_st75256.c ****   
 265:..\..\..\u8g2\u8g2\csrc/u8x8_d_st75256.c ****   U8X8_DLY(20),
ARM GAS  C:\Users\jesse\AppData\Local\Temp\cc6zNusR.s 			page 10


 266:..\..\..\u8g2\u8g2\csrc/u8x8_d_st75256.c **** 
 267:..\..\..\u8g2\u8g2\csrc/u8x8_d_st75256.c ****   U8X8_C( 0x030 ),				/* select 00 commands */
 268:..\..\..\u8g2\u8g2\csrc/u8x8_d_st75256.c ****   U8X8_C( 0x094 ),				/* sleep out */
 269:..\..\..\u8g2\u8g2\csrc/u8x8_d_st75256.c **** 
 270:..\..\..\u8g2\u8g2\csrc/u8x8_d_st75256.c ****   //U8X8_C( 0x030 ),				/* select 00 commands */
 271:..\..\..\u8g2\u8g2\csrc/u8x8_d_st75256.c ****   U8X8_C( 0x0ae ),				/* display off */
 272:..\..\..\u8g2\u8g2\csrc/u8x8_d_st75256.c **** 
 273:..\..\..\u8g2\u8g2\csrc/u8x8_d_st75256.c ****   U8X8_C( 0x031 ),				/* select 01 commands */
 274:..\..\..\u8g2\u8g2\csrc/u8x8_d_st75256.c ****   U8X8_CA( 0x0d7, 0x09f ),		/* disable auto read */  
 275:..\..\..\u8g2\u8g2\csrc/u8x8_d_st75256.c **** 
 276:..\..\..\u8g2\u8g2\csrc/u8x8_d_st75256.c ****   //U8X8_C( 0x031 ),				/* select 01 commands */
 277:..\..\..\u8g2\u8g2\csrc/u8x8_d_st75256.c ****   U8X8_C( 0x032 ),				/* analog circuit set */
 278:..\..\..\u8g2\u8g2\csrc/u8x8_d_st75256.c ****   U8X8_A( 0x000 ),				/* code example: OSC Frequency adjustment */
 279:..\..\..\u8g2\u8g2\csrc/u8x8_d_st75256.c ****   U8X8_A( 0x001 ),				/* Frequency on booster capacitors 1 = 6KHz? */
 280:..\..\..\u8g2\u8g2\csrc/u8x8_d_st75256.c ****   U8X8_A( 0x000 ),				/* Bias: 1: 1/13, 2: 1/12, 3: 1/11, 4:1/10, 5:1/9 */
 281:..\..\..\u8g2\u8g2\csrc/u8x8_d_st75256.c ****     
 282:..\..\..\u8g2\u8g2\csrc/u8x8_d_st75256.c ****   //U8X8_C( 0x031 ),				/* select 01 commands */
 283:..\..\..\u8g2\u8g2\csrc/u8x8_d_st75256.c ****   U8X8_C( 0x020 ),				/* gray levels */
 284:..\..\..\u8g2\u8g2\csrc/u8x8_d_st75256.c ****   U8X8_A( 0x01 ),
 285:..\..\..\u8g2\u8g2\csrc/u8x8_d_st75256.c ****   U8X8_A( 0x03 ),
 286:..\..\..\u8g2\u8g2\csrc/u8x8_d_st75256.c ****   U8X8_A( 0x05 ),
 287:..\..\..\u8g2\u8g2\csrc/u8x8_d_st75256.c ****   U8X8_A( 0x07 ),
 288:..\..\..\u8g2\u8g2\csrc/u8x8_d_st75256.c ****   U8X8_A( 0x09),
 289:..\..\..\u8g2\u8g2\csrc/u8x8_d_st75256.c ****   U8X8_A( 0x0b ),
 290:..\..\..\u8g2\u8g2\csrc/u8x8_d_st75256.c ****   U8X8_A( 0x0d ),
 291:..\..\..\u8g2\u8g2\csrc/u8x8_d_st75256.c ****   U8X8_A( 0x10 ),
 292:..\..\..\u8g2\u8g2\csrc/u8x8_d_st75256.c ****   U8X8_A( 0x11 ),
 293:..\..\..\u8g2\u8g2\csrc/u8x8_d_st75256.c ****   U8X8_A( 0x13 ),
 294:..\..\..\u8g2\u8g2\csrc/u8x8_d_st75256.c ****   U8X8_A( 0x15 ),
 295:..\..\..\u8g2\u8g2\csrc/u8x8_d_st75256.c ****   U8X8_A( 0x17 ),
 296:..\..\..\u8g2\u8g2\csrc/u8x8_d_st75256.c ****   U8X8_A( 0x19 ),
 297:..\..\..\u8g2\u8g2\csrc/u8x8_d_st75256.c ****   U8X8_A( 0x1b ),
 298:..\..\..\u8g2\u8g2\csrc/u8x8_d_st75256.c ****   U8X8_A( 0x1d ),
 299:..\..\..\u8g2\u8g2\csrc/u8x8_d_st75256.c ****   U8X8_A( 0x1f ),
 300:..\..\..\u8g2\u8g2\csrc/u8x8_d_st75256.c ****  
 301:..\..\..\u8g2\u8g2\csrc/u8x8_d_st75256.c ****   
 302:..\..\..\u8g2\u8g2\csrc/u8x8_d_st75256.c ****   U8X8_C( 0x030 ),				/* select 00 commands */
 303:..\..\..\u8g2\u8g2\csrc/u8x8_d_st75256.c ****   U8X8_CAA(0x75, 0, 0x4f),		/* row range */
 304:..\..\..\u8g2\u8g2\csrc/u8x8_d_st75256.c ****   U8X8_CAA(0x15, 0, 255),		/* col range */
 305:..\..\..\u8g2\u8g2\csrc/u8x8_d_st75256.c ****   
 306:..\..\..\u8g2\u8g2\csrc/u8x8_d_st75256.c ****   //U8X8_C( 0x030 ),				/* select 00 commands */
 307:..\..\..\u8g2\u8g2\csrc/u8x8_d_st75256.c ****   U8X8_CA( 0xbc, 0x00 ),			/* data scan dir */
 308:..\..\..\u8g2\u8g2\csrc/u8x8_d_st75256.c ****   U8X8_A( 0xa6 ),				/* ??? */
 309:..\..\..\u8g2\u8g2\csrc/u8x8_d_st75256.c **** 
 310:..\..\..\u8g2\u8g2\csrc/u8x8_d_st75256.c ****   //U8X8_C( 0x030 ),				/* select 00 commands */
 311:..\..\..\u8g2\u8g2\csrc/u8x8_d_st75256.c ****   U8X8_C( 0x00c ),				/* data format LSB top */
 312:..\..\..\u8g2\u8g2\csrc/u8x8_d_st75256.c **** 
 313:..\..\..\u8g2\u8g2\csrc/u8x8_d_st75256.c ****   //U8X8_C( 0x030 ),				/* select 00 commands */ 
 314:..\..\..\u8g2\u8g2\csrc/u8x8_d_st75256.c ****   U8X8_C( 0xca ),				/* display control, 3 args follow  */
 315:..\..\..\u8g2\u8g2\csrc/u8x8_d_st75256.c ****   U8X8_A( 0x00 ),				/* 0x00: no clock division, 0x04: devide clock */
 316:..\..\..\u8g2\u8g2\csrc/u8x8_d_st75256.c ****   U8X8_A( 0x7f ),				/* 1/160 duty value from the DS example code */
 317:..\..\..\u8g2\u8g2\csrc/u8x8_d_st75256.c ****   U8X8_A( 0x20 ),				/* nline off */ 
 318:..\..\..\u8g2\u8g2\csrc/u8x8_d_st75256.c **** 
 319:..\..\..\u8g2\u8g2\csrc/u8x8_d_st75256.c ****   //U8X8_C( 0x030 ),				/* select 00 commands */ 
 320:..\..\..\u8g2\u8g2\csrc/u8x8_d_st75256.c ****   U8X8_CA( 0x0f0, 0x010 ),		/* monochrome mode  = 0x010*/
 321:..\..\..\u8g2\u8g2\csrc/u8x8_d_st75256.c **** 
 322:..\..\..\u8g2\u8g2\csrc/u8x8_d_st75256.c ****   //U8X8_C( 0x030 ),				/* select 00 commands */
ARM GAS  C:\Users\jesse\AppData\Local\Temp\cc6zNusR.s 			page 11


 323:..\..\..\u8g2\u8g2\csrc/u8x8_d_st75256.c ****   U8X8_CAA( 0x81, 0x36, 0x05 ),	/* Volume control */
 324:..\..\..\u8g2\u8g2\csrc/u8x8_d_st75256.c **** 
 325:..\..\..\u8g2\u8g2\csrc/u8x8_d_st75256.c ****   //U8X8_C( 0x030 ),				/* select 00 commands */
 326:..\..\..\u8g2\u8g2\csrc/u8x8_d_st75256.c ****   U8X8_CA( 0x020, 0x00b ),		/* Power control: Regulator, follower & booster on */
 327:..\..\..\u8g2\u8g2\csrc/u8x8_d_st75256.c ****   U8X8_DLY(100),
 328:..\..\..\u8g2\u8g2\csrc/u8x8_d_st75256.c **** 
 329:..\..\..\u8g2\u8g2\csrc/u8x8_d_st75256.c ****   U8X8_END_TRANSFER(),             	/* disable chip */
 330:..\..\..\u8g2\u8g2\csrc/u8x8_d_st75256.c ****   U8X8_END()             			/* end of sequence */
 331:..\..\..\u8g2\u8g2\csrc/u8x8_d_st75256.c **** };
 332:..\..\..\u8g2\u8g2\csrc/u8x8_d_st75256.c **** 
 333:..\..\..\u8g2\u8g2\csrc/u8x8_d_st75256.c **** 
 334:..\..\..\u8g2\u8g2\csrc/u8x8_d_st75256.c **** uint8_t u8x8_d_st75256_jlx256128(u8x8_t *u8x8, uint8_t msg, uint8_t arg_int, void *arg_ptr)
 335:..\..\..\u8g2\u8g2\csrc/u8x8_d_st75256.c **** {
 223              		.loc 1 335 0
 224              		.cfi_startproc
 225              		@ args = 0, pretend = 0, frame = 0
 226              		@ frame_needed = 0, uses_anonymous_args = 0
 227              	.LVL35:
 228 0000 70B5     		push	{r4, r5, r6, lr}
 229              		.cfi_def_cfa_offset 16
 230              		.cfi_offset 4, -16
 231              		.cfi_offset 5, -12
 232              		.cfi_offset 6, -8
 233              		.cfi_offset 14, -4
 234              		.loc 1 335 0
 235 0002 0446     		mov	r4, r0
 236 0004 0D46     		mov	r5, r1
 237 0006 1646     		mov	r6, r2
 336:..\..\..\u8g2\u8g2\csrc/u8x8_d_st75256.c ****   if ( u8x8_d_st75256_256x128_generic(u8x8, msg, arg_int, arg_ptr) != 0 )
 238              		.loc 1 336 0
 239 0008 FFF7FEFF 		bl	u8x8_d_st75256_256x128_generic
 240              	.LVL36:
 241 000c 10BB     		cbnz	r0, .L23
 337:..\..\..\u8g2\u8g2\csrc/u8x8_d_st75256.c ****     return 1;
 338:..\..\..\u8g2\u8g2\csrc/u8x8_d_st75256.c ****   if ( msg == U8X8_MSG_DISPLAY_SETUP_MEMORY )
 242              		.loc 1 338 0
 243 000e 092D     		cmp	r5, #9
 244 0010 04D1     		bne	.L20
 339:..\..\..\u8g2\u8g2\csrc/u8x8_d_st75256.c ****   {
 340:..\..\..\u8g2\u8g2\csrc/u8x8_d_st75256.c ****     //u8x8_SetI2CAddress(u8x8, 0x078);		/* lowest I2C adr of the ST75256 */
 341:..\..\..\u8g2\u8g2\csrc/u8x8_d_st75256.c ****     u8x8_d_helper_display_setup_memory(u8x8, &u8x8_st75256_256x128_display_info);
 245              		.loc 1 341 0
 246 0012 1149     		ldr	r1, .L25
 247 0014 2046     		mov	r0, r4
 248 0016 FFF7FEFF 		bl	u8x8_d_helper_display_setup_memory
 249              	.LVL37:
 250 001a 1BE0     		b	.L23
 251              	.L20:
 342:..\..\..\u8g2\u8g2\csrc/u8x8_d_st75256.c ****     return 1;
 343:..\..\..\u8g2\u8g2\csrc/u8x8_d_st75256.c ****   }
 344:..\..\..\u8g2\u8g2\csrc/u8x8_d_st75256.c ****   else if ( msg == U8X8_MSG_DISPLAY_INIT )
 252              		.loc 1 344 0
 253 001c 0A2D     		cmp	r5, #10
 254 001e 07D1     		bne	.L21
 345:..\..\..\u8g2\u8g2\csrc/u8x8_d_st75256.c ****   {
 346:..\..\..\u8g2\u8g2\csrc/u8x8_d_st75256.c ****     u8x8_d_helper_display_init(u8x8);
 255              		.loc 1 346 0
ARM GAS  C:\Users\jesse\AppData\Local\Temp\cc6zNusR.s 			page 12


 256 0020 2046     		mov	r0, r4
 257 0022 FFF7FEFF 		bl	u8x8_d_helper_display_init
 258              	.LVL38:
 347:..\..\..\u8g2\u8g2\csrc/u8x8_d_st75256.c ****     u8x8_cad_SendSequence(u8x8, u8x8_d_st75256_256x128_init_seq);    
 259              		.loc 1 347 0
 260 0026 0D49     		ldr	r1, .L25+4
 261 0028 2046     		mov	r0, r4
 262 002a FFF7FEFF 		bl	u8x8_cad_SendSequence
 263              	.LVL39:
 264 002e 11E0     		b	.L23
 265              	.L21:
 348:..\..\..\u8g2\u8g2\csrc/u8x8_d_st75256.c ****     return 1;
 349:..\..\..\u8g2\u8g2\csrc/u8x8_d_st75256.c ****   }
 350:..\..\..\u8g2\u8g2\csrc/u8x8_d_st75256.c ****   else if  ( msg == U8X8_MSG_DISPLAY_SET_FLIP_MODE )
 266              		.loc 1 350 0
 267 0030 0D2D     		cmp	r5, #13
 268 0032 10D1     		bne	.L19
 351:..\..\..\u8g2\u8g2\csrc/u8x8_d_st75256.c ****   {
 352:..\..\..\u8g2\u8g2\csrc/u8x8_d_st75256.c ****     if ( arg_int == 0 )
 269              		.loc 1 352 0
 270 0034 36B9     		cbnz	r6, .L22
 353:..\..\..\u8g2\u8g2\csrc/u8x8_d_st75256.c ****     {
 354:..\..\..\u8g2\u8g2\csrc/u8x8_d_st75256.c ****       u8x8_cad_SendSequence(u8x8, u8x8_d_st75256_jlx256128_flip0_seq);
 271              		.loc 1 354 0
 272 0036 0A49     		ldr	r1, .L25+8
 273 0038 2046     		mov	r0, r4
 274 003a FFF7FEFF 		bl	u8x8_cad_SendSequence
 275              	.LVL40:
 355:..\..\..\u8g2\u8g2\csrc/u8x8_d_st75256.c ****       u8x8->x_offset = u8x8->display_info->default_x_offset;
 276              		.loc 1 355 0
 277 003e 2368     		ldr	r3, [r4]
 278 0040 9B7C     		ldrb	r3, [r3, #18]	@ zero_extendqisi2
 279 0042 05E0     		b	.L24
 280              	.L22:
 356:..\..\..\u8g2\u8g2\csrc/u8x8_d_st75256.c ****     }
 357:..\..\..\u8g2\u8g2\csrc/u8x8_d_st75256.c ****     else
 358:..\..\..\u8g2\u8g2\csrc/u8x8_d_st75256.c ****     {
 359:..\..\..\u8g2\u8g2\csrc/u8x8_d_st75256.c ****       u8x8_cad_SendSequence(u8x8, u8x8_d_st75256_jlx256128_flip1_seq);
 281              		.loc 1 359 0
 282 0044 0749     		ldr	r1, .L25+12
 283 0046 2046     		mov	r0, r4
 284 0048 FFF7FEFF 		bl	u8x8_cad_SendSequence
 285              	.LVL41:
 360:..\..\..\u8g2\u8g2\csrc/u8x8_d_st75256.c ****       u8x8->x_offset = u8x8->display_info->flipmode_x_offset;
 286              		.loc 1 360 0
 287 004c 2368     		ldr	r3, [r4]
 288 004e DB7C     		ldrb	r3, [r3, #19]	@ zero_extendqisi2
 289              	.L24:
 290 0050 84F82230 		strb	r3, [r4, #34]
 291              	.L23:
 337:..\..\..\u8g2\u8g2\csrc/u8x8_d_st75256.c ****   if ( msg == U8X8_MSG_DISPLAY_SETUP_MEMORY )
 292              		.loc 1 337 0
 293 0054 0120     		movs	r0, #1
 294              	.L19:
 361:..\..\..\u8g2\u8g2\csrc/u8x8_d_st75256.c ****     }
 362:..\..\..\u8g2\u8g2\csrc/u8x8_d_st75256.c ****     return 1;
 363:..\..\..\u8g2\u8g2\csrc/u8x8_d_st75256.c ****   }
ARM GAS  C:\Users\jesse\AppData\Local\Temp\cc6zNusR.s 			page 13


 364:..\..\..\u8g2\u8g2\csrc/u8x8_d_st75256.c ****   return 0;
 365:..\..\..\u8g2\u8g2\csrc/u8x8_d_st75256.c **** }
 295              		.loc 1 365 0
 296 0056 70BD     		pop	{r4, r5, r6, pc}
 297              	.LVL42:
 298              	.L26:
 299              		.align	2
 300              	.L25:
 301 0058 14000000 		.word	.LANCHOR0+20
 302 005c 2C000000 		.word	.LANCHOR0+44
 303 0060 95000000 		.word	.LANCHOR0+149
 304 0064 A2000000 		.word	.LANCHOR0+162
 305              		.cfi_endproc
 306              	.LFE1:
 307              		.size	u8x8_d_st75256_jlx256128, .-u8x8_d_st75256_jlx256128
 308              		.section	.text.u8x8_d_st75256_wo256x128,"ax",%progbits
 309              		.align	1
 310              		.global	u8x8_d_st75256_wo256x128
 311              		.thumb
 312              		.thumb_func
 313              		.type	u8x8_d_st75256_wo256x128, %function
 314              	u8x8_d_st75256_wo256x128:
 315              	.LFB2:
 366:..\..\..\u8g2\u8g2\csrc/u8x8_d_st75256.c **** 
 367:..\..\..\u8g2\u8g2\csrc/u8x8_d_st75256.c **** 
 368:..\..\..\u8g2\u8g2\csrc/u8x8_d_st75256.c **** 
 369:..\..\..\u8g2\u8g2\csrc/u8x8_d_st75256.c **** /*=============================================*/
 370:..\..\..\u8g2\u8g2\csrc/u8x8_d_st75256.c **** /* WO256X128, https://github.com/olikraus/u8g2/issues/891  */
 371:..\..\..\u8g2\u8g2\csrc/u8x8_d_st75256.c **** 
 372:..\..\..\u8g2\u8g2\csrc/u8x8_d_st75256.c **** static const u8x8_display_info_t u8x8_st75256_wo256x128_display_info =
 373:..\..\..\u8g2\u8g2\csrc/u8x8_d_st75256.c **** {
 374:..\..\..\u8g2\u8g2\csrc/u8x8_d_st75256.c ****   /* chip_enable_level = */ 0,
 375:..\..\..\u8g2\u8g2\csrc/u8x8_d_st75256.c ****   /* chip_disable_level = */ 1,
 376:..\..\..\u8g2\u8g2\csrc/u8x8_d_st75256.c ****   
 377:..\..\..\u8g2\u8g2\csrc/u8x8_d_st75256.c ****   /* post_chip_enable_wait_ns = */ 20,
 378:..\..\..\u8g2\u8g2\csrc/u8x8_d_st75256.c ****   /* pre_chip_disable_wait_ns = */ 20,
 379:..\..\..\u8g2\u8g2\csrc/u8x8_d_st75256.c ****   /* reset_pulse_width_ms = */ 5, 	
 380:..\..\..\u8g2\u8g2\csrc/u8x8_d_st75256.c ****   /* post_reset_wait_ms = */ 5, 		/**/
 381:..\..\..\u8g2\u8g2\csrc/u8x8_d_st75256.c ****   /* sda_setup_time_ns = */ 20,		/* */
 382:..\..\..\u8g2\u8g2\csrc/u8x8_d_st75256.c ****   /* sck_pulse_width_ns = */ 40,	/*  */
 383:..\..\..\u8g2\u8g2\csrc/u8x8_d_st75256.c ****   /* sck_clock_hz = */ 4000000UL,	/* since Arduino 1.6.0, the SPI bus speed in Hz. Should be  10000
 384:..\..\..\u8g2\u8g2\csrc/u8x8_d_st75256.c ****   /* spi_mode = */ 0,		/* active high, rising edge */
 385:..\..\..\u8g2\u8g2\csrc/u8x8_d_st75256.c ****   /* i2c_bus_clock_100kHz = */ 4,	/* 400KHz */
 386:..\..\..\u8g2\u8g2\csrc/u8x8_d_st75256.c ****   /* data_setup_time_ns = */ 15,
 387:..\..\..\u8g2\u8g2\csrc/u8x8_d_st75256.c ****   /* write_pulse_width_ns = */ 70,	
 388:..\..\..\u8g2\u8g2\csrc/u8x8_d_st75256.c ****   /* tile_width = */ 32,
 389:..\..\..\u8g2\u8g2\csrc/u8x8_d_st75256.c ****   /* tile_hight = */ 16,
 390:..\..\..\u8g2\u8g2\csrc/u8x8_d_st75256.c ****   /* default_x_offset = */ 5,	/* must be 0, because this is checked also for normal mode */
 391:..\..\..\u8g2\u8g2\csrc/u8x8_d_st75256.c ****   /* flipmode_x_offset = */ 0,		/* used as y offset */
 392:..\..\..\u8g2\u8g2\csrc/u8x8_d_st75256.c ****   /* pixel_width = */ 256,
 393:..\..\..\u8g2\u8g2\csrc/u8x8_d_st75256.c ****   /* pixel_height = */ 128
 394:..\..\..\u8g2\u8g2\csrc/u8x8_d_st75256.c **** };
 395:..\..\..\u8g2\u8g2\csrc/u8x8_d_st75256.c **** 
 396:..\..\..\u8g2\u8g2\csrc/u8x8_d_st75256.c **** 
 397:..\..\..\u8g2\u8g2\csrc/u8x8_d_st75256.c **** static const uint8_t u8x8_d_st75256_wo256x128_init_seq[] = {
 398:..\..\..\u8g2\u8g2\csrc/u8x8_d_st75256.c ****   U8X8_START_TRANSFER(),             	/* enable chip, delay is part of the transfer start */
 399:..\..\..\u8g2\u8g2\csrc/u8x8_d_st75256.c ****   
ARM GAS  C:\Users\jesse\AppData\Local\Temp\cc6zNusR.s 			page 14


 400:..\..\..\u8g2\u8g2\csrc/u8x8_d_st75256.c ****   U8X8_DLY(20),
 401:..\..\..\u8g2\u8g2\csrc/u8x8_d_st75256.c **** 
 402:..\..\..\u8g2\u8g2\csrc/u8x8_d_st75256.c ****   U8X8_C( 0x030 ),				/* select 00 commands */
 403:..\..\..\u8g2\u8g2\csrc/u8x8_d_st75256.c ****   U8X8_C( 0x094 ),				/* sleep out */
 404:..\..\..\u8g2\u8g2\csrc/u8x8_d_st75256.c **** 
 405:..\..\..\u8g2\u8g2\csrc/u8x8_d_st75256.c ****   //U8X8_C( 0x030 ),				/* select 00 commands */
 406:..\..\..\u8g2\u8g2\csrc/u8x8_d_st75256.c ****   U8X8_C( 0x0ae ),				/* display off */
 407:..\..\..\u8g2\u8g2\csrc/u8x8_d_st75256.c **** 
 408:..\..\..\u8g2\u8g2\csrc/u8x8_d_st75256.c ****   U8X8_C( 0x031 ),				/* select 01 commands */
 409:..\..\..\u8g2\u8g2\csrc/u8x8_d_st75256.c ****   U8X8_CA( 0x0d7, 0x09f ),		/* disable auto read */  
 410:..\..\..\u8g2\u8g2\csrc/u8x8_d_st75256.c **** 
 411:..\..\..\u8g2\u8g2\csrc/u8x8_d_st75256.c ****   //U8X8_C( 0x031 ),				/* select 01 commands */
 412:..\..\..\u8g2\u8g2\csrc/u8x8_d_st75256.c ****   U8X8_C( 0x032 ),				/* analog circuit set */
 413:..\..\..\u8g2\u8g2\csrc/u8x8_d_st75256.c ****   U8X8_A( 0x000 ),				/* code example: OSC Frequency adjustment */
 414:..\..\..\u8g2\u8g2\csrc/u8x8_d_st75256.c ****   U8X8_A( 0x001 ),				/* Frequency on booster capacitors 1 = 6KHz? */
 415:..\..\..\u8g2\u8g2\csrc/u8x8_d_st75256.c ****   U8X8_A( 0x000 ),				/* Bias: 1: 1/13, 2: 1/12, 3: 1/11, 4:1/10, 5:1/9 */
 416:..\..\..\u8g2\u8g2\csrc/u8x8_d_st75256.c ****     
 417:..\..\..\u8g2\u8g2\csrc/u8x8_d_st75256.c ****   //U8X8_C( 0x031 ),				/* select 01 commands */
 418:..\..\..\u8g2\u8g2\csrc/u8x8_d_st75256.c ****   U8X8_C( 0x020 ),				/* gray levels */
 419:..\..\..\u8g2\u8g2\csrc/u8x8_d_st75256.c ****   U8X8_A( 0x01 ),
 420:..\..\..\u8g2\u8g2\csrc/u8x8_d_st75256.c ****   U8X8_A( 0x03 ),
 421:..\..\..\u8g2\u8g2\csrc/u8x8_d_st75256.c ****   U8X8_A( 0x05 ),
 422:..\..\..\u8g2\u8g2\csrc/u8x8_d_st75256.c ****   U8X8_A( 0x07 ),
 423:..\..\..\u8g2\u8g2\csrc/u8x8_d_st75256.c ****   U8X8_A( 0x09),
 424:..\..\..\u8g2\u8g2\csrc/u8x8_d_st75256.c ****   U8X8_A( 0x0b ),
 425:..\..\..\u8g2\u8g2\csrc/u8x8_d_st75256.c ****   U8X8_A( 0x0d ),
 426:..\..\..\u8g2\u8g2\csrc/u8x8_d_st75256.c ****   U8X8_A( 0x10 ),
 427:..\..\..\u8g2\u8g2\csrc/u8x8_d_st75256.c ****   U8X8_A( 0x11 ),
 428:..\..\..\u8g2\u8g2\csrc/u8x8_d_st75256.c ****   U8X8_A( 0x13 ),
 429:..\..\..\u8g2\u8g2\csrc/u8x8_d_st75256.c ****   U8X8_A( 0x15 ),
 430:..\..\..\u8g2\u8g2\csrc/u8x8_d_st75256.c ****   U8X8_A( 0x17 ),
 431:..\..\..\u8g2\u8g2\csrc/u8x8_d_st75256.c ****   U8X8_A( 0x19 ),
 432:..\..\..\u8g2\u8g2\csrc/u8x8_d_st75256.c ****   U8X8_A( 0x1b ),
 433:..\..\..\u8g2\u8g2\csrc/u8x8_d_st75256.c ****   U8X8_A( 0x1d ),
 434:..\..\..\u8g2\u8g2\csrc/u8x8_d_st75256.c ****   U8X8_A( 0x1f ),
 435:..\..\..\u8g2\u8g2\csrc/u8x8_d_st75256.c ****  
 436:..\..\..\u8g2\u8g2\csrc/u8x8_d_st75256.c ****   
 437:..\..\..\u8g2\u8g2\csrc/u8x8_d_st75256.c ****   U8X8_C( 0x030 ),				/* select 00 commands */
 438:..\..\..\u8g2\u8g2\csrc/u8x8_d_st75256.c ****   U8X8_CAA(0x75, 0, 0x4f),		/* row range */
 439:..\..\..\u8g2\u8g2\csrc/u8x8_d_st75256.c ****   U8X8_CAA(0x15, 0, 255),		/* col range */
 440:..\..\..\u8g2\u8g2\csrc/u8x8_d_st75256.c ****   
 441:..\..\..\u8g2\u8g2\csrc/u8x8_d_st75256.c ****   //U8X8_C( 0x030 ),				/* select 00 commands */
 442:..\..\..\u8g2\u8g2\csrc/u8x8_d_st75256.c ****   U8X8_CA( 0xbc, 0x01 ),			/* data scan dir */
 443:..\..\..\u8g2\u8g2\csrc/u8x8_d_st75256.c ****   U8X8_A( 0xa6 ),				/* ??? */
 444:..\..\..\u8g2\u8g2\csrc/u8x8_d_st75256.c **** 
 445:..\..\..\u8g2\u8g2\csrc/u8x8_d_st75256.c ****   //U8X8_C( 0x030 ),				/* select 00 commands */
 446:..\..\..\u8g2\u8g2\csrc/u8x8_d_st75256.c ****   U8X8_C( 0x008 ),				/* data format LSB top */
 447:..\..\..\u8g2\u8g2\csrc/u8x8_d_st75256.c **** 
 448:..\..\..\u8g2\u8g2\csrc/u8x8_d_st75256.c ****   //U8X8_C( 0x030 ),				/* select 00 commands */ 
 449:..\..\..\u8g2\u8g2\csrc/u8x8_d_st75256.c ****   U8X8_C( 0xca ),				/* display control, 3 args follow  */
 450:..\..\..\u8g2\u8g2\csrc/u8x8_d_st75256.c ****   U8X8_A( 0x00 ),				/* 0x00: no clock division, 0x04: devide clock */
 451:..\..\..\u8g2\u8g2\csrc/u8x8_d_st75256.c ****   U8X8_A( 0x7f ),				/* 1/160 duty value from the DS example code */
 452:..\..\..\u8g2\u8g2\csrc/u8x8_d_st75256.c ****   U8X8_A( 0x20 ),				/* nline off */ 
 453:..\..\..\u8g2\u8g2\csrc/u8x8_d_st75256.c **** 
 454:..\..\..\u8g2\u8g2\csrc/u8x8_d_st75256.c ****   //U8X8_C( 0x030 ),				/* select 00 commands */ 
 455:..\..\..\u8g2\u8g2\csrc/u8x8_d_st75256.c ****   U8X8_CA( 0x0f0, 0x010 ),		/* monochrome mode  = 0x010*/
 456:..\..\..\u8g2\u8g2\csrc/u8x8_d_st75256.c **** 
ARM GAS  C:\Users\jesse\AppData\Local\Temp\cc6zNusR.s 			page 15


 457:..\..\..\u8g2\u8g2\csrc/u8x8_d_st75256.c ****   //U8X8_C( 0x030 ),				/* select 00 commands */
 458:..\..\..\u8g2\u8g2\csrc/u8x8_d_st75256.c ****   U8X8_CAA( 0x81, 0x36, 0x05 ),	/* Volume control */
 459:..\..\..\u8g2\u8g2\csrc/u8x8_d_st75256.c **** 
 460:..\..\..\u8g2\u8g2\csrc/u8x8_d_st75256.c ****   //U8X8_C( 0x030 ),				/* select 00 commands */
 461:..\..\..\u8g2\u8g2\csrc/u8x8_d_st75256.c ****   U8X8_CA( 0x020, 0x00b ),		/* Power control: Regulator, follower & booster on */
 462:..\..\..\u8g2\u8g2\csrc/u8x8_d_st75256.c ****   U8X8_DLY(100),
 463:..\..\..\u8g2\u8g2\csrc/u8x8_d_st75256.c **** 
 464:..\..\..\u8g2\u8g2\csrc/u8x8_d_st75256.c ****   U8X8_END_TRANSFER(),             	/* disable chip */
 465:..\..\..\u8g2\u8g2\csrc/u8x8_d_st75256.c ****   U8X8_END()             			/* end of sequence */
 466:..\..\..\u8g2\u8g2\csrc/u8x8_d_st75256.c **** };
 467:..\..\..\u8g2\u8g2\csrc/u8x8_d_st75256.c **** 
 468:..\..\..\u8g2\u8g2\csrc/u8x8_d_st75256.c **** 
 469:..\..\..\u8g2\u8g2\csrc/u8x8_d_st75256.c **** uint8_t u8x8_d_st75256_wo256x128(u8x8_t *u8x8, uint8_t msg, uint8_t arg_int, void *arg_ptr)
 470:..\..\..\u8g2\u8g2\csrc/u8x8_d_st75256.c **** {
 316              		.loc 1 470 0
 317              		.cfi_startproc
 318              		@ args = 0, pretend = 0, frame = 0
 319              		@ frame_needed = 0, uses_anonymous_args = 0
 320              	.LVL43:
 321 0000 70B5     		push	{r4, r5, r6, lr}
 322              		.cfi_def_cfa_offset 16
 323              		.cfi_offset 4, -16
 324              		.cfi_offset 5, -12
 325              		.cfi_offset 6, -8
 326              		.cfi_offset 14, -4
 327              		.loc 1 470 0
 328 0002 0446     		mov	r4, r0
 329 0004 0D46     		mov	r5, r1
 330 0006 1646     		mov	r6, r2
 471:..\..\..\u8g2\u8g2\csrc/u8x8_d_st75256.c ****   if ( u8x8_d_st75256_256x128_generic(u8x8, msg, arg_int, arg_ptr) != 0 )
 331              		.loc 1 471 0
 332 0008 FFF7FEFF 		bl	u8x8_d_st75256_256x128_generic
 333              	.LVL44:
 334 000c 10BB     		cbnz	r0, .L32
 472:..\..\..\u8g2\u8g2\csrc/u8x8_d_st75256.c ****     return 1;
 473:..\..\..\u8g2\u8g2\csrc/u8x8_d_st75256.c ****   if ( msg == U8X8_MSG_DISPLAY_SETUP_MEMORY )
 335              		.loc 1 473 0
 336 000e 092D     		cmp	r5, #9
 337 0010 04D1     		bne	.L29
 474:..\..\..\u8g2\u8g2\csrc/u8x8_d_st75256.c ****   {
 475:..\..\..\u8g2\u8g2\csrc/u8x8_d_st75256.c ****     //u8x8_SetI2CAddress(u8x8, 0x078);		/* lowest I2C adr of the ST75256 */
 476:..\..\..\u8g2\u8g2\csrc/u8x8_d_st75256.c ****     u8x8_d_helper_display_setup_memory(u8x8, &u8x8_st75256_wo256x128_display_info);
 338              		.loc 1 476 0
 339 0012 1149     		ldr	r1, .L34
 340 0014 2046     		mov	r0, r4
 341 0016 FFF7FEFF 		bl	u8x8_d_helper_display_setup_memory
 342              	.LVL45:
 343 001a 1BE0     		b	.L32
 344              	.L29:
 477:..\..\..\u8g2\u8g2\csrc/u8x8_d_st75256.c ****     return 1;
 478:..\..\..\u8g2\u8g2\csrc/u8x8_d_st75256.c ****   }
 479:..\..\..\u8g2\u8g2\csrc/u8x8_d_st75256.c ****   else if ( msg == U8X8_MSG_DISPLAY_INIT )
 345              		.loc 1 479 0
 346 001c 0A2D     		cmp	r5, #10
 347 001e 07D1     		bne	.L30
 480:..\..\..\u8g2\u8g2\csrc/u8x8_d_st75256.c ****   {
 481:..\..\..\u8g2\u8g2\csrc/u8x8_d_st75256.c ****     u8x8_d_helper_display_init(u8x8);
ARM GAS  C:\Users\jesse\AppData\Local\Temp\cc6zNusR.s 			page 16


 348              		.loc 1 481 0
 349 0020 2046     		mov	r0, r4
 350 0022 FFF7FEFF 		bl	u8x8_d_helper_display_init
 351              	.LVL46:
 482:..\..\..\u8g2\u8g2\csrc/u8x8_d_st75256.c ****     u8x8_cad_SendSequence(u8x8, u8x8_d_st75256_wo256x128_init_seq);    
 352              		.loc 1 482 0
 353 0026 0D49     		ldr	r1, .L34+4
 354 0028 2046     		mov	r0, r4
 355 002a FFF7FEFF 		bl	u8x8_cad_SendSequence
 356              	.LVL47:
 357 002e 11E0     		b	.L32
 358              	.L30:
 483:..\..\..\u8g2\u8g2\csrc/u8x8_d_st75256.c ****     return 1;
 484:..\..\..\u8g2\u8g2\csrc/u8x8_d_st75256.c ****   }
 485:..\..\..\u8g2\u8g2\csrc/u8x8_d_st75256.c ****   else if  ( msg == U8X8_MSG_DISPLAY_SET_FLIP_MODE )
 359              		.loc 1 485 0
 360 0030 0D2D     		cmp	r5, #13
 361 0032 10D1     		bne	.L28
 486:..\..\..\u8g2\u8g2\csrc/u8x8_d_st75256.c ****   {
 487:..\..\..\u8g2\u8g2\csrc/u8x8_d_st75256.c ****     if ( arg_int == 0 )
 362              		.loc 1 487 0
 363 0034 36B9     		cbnz	r6, .L31
 488:..\..\..\u8g2\u8g2\csrc/u8x8_d_st75256.c ****     {
 489:..\..\..\u8g2\u8g2\csrc/u8x8_d_st75256.c ****       u8x8_cad_SendSequence(u8x8, u8x8_d_st75256_jlx172104_flip1_seq);	// this matches the init seq
 364              		.loc 1 489 0
 365 0036 0A49     		ldr	r1, .L34+8
 366 0038 2046     		mov	r0, r4
 367 003a FFF7FEFF 		bl	u8x8_cad_SendSequence
 368              	.LVL48:
 490:..\..\..\u8g2\u8g2\csrc/u8x8_d_st75256.c ****       u8x8->x_offset = u8x8->display_info->default_x_offset;
 369              		.loc 1 490 0
 370 003e 2368     		ldr	r3, [r4]
 371 0040 9B7C     		ldrb	r3, [r3, #18]	@ zero_extendqisi2
 372 0042 05E0     		b	.L33
 373              	.L31:
 491:..\..\..\u8g2\u8g2\csrc/u8x8_d_st75256.c ****     }
 492:..\..\..\u8g2\u8g2\csrc/u8x8_d_st75256.c ****     else
 493:..\..\..\u8g2\u8g2\csrc/u8x8_d_st75256.c ****     {
 494:..\..\..\u8g2\u8g2\csrc/u8x8_d_st75256.c ****       u8x8_cad_SendSequence(u8x8, u8x8_d_st75256_jlx172104_flip0_seq);
 374              		.loc 1 494 0
 375 0044 0749     		ldr	r1, .L34+12
 376 0046 2046     		mov	r0, r4
 377 0048 FFF7FEFF 		bl	u8x8_cad_SendSequence
 378              	.LVL49:
 495:..\..\..\u8g2\u8g2\csrc/u8x8_d_st75256.c ****       u8x8->x_offset = u8x8->display_info->flipmode_x_offset;
 379              		.loc 1 495 0
 380 004c 2368     		ldr	r3, [r4]
 381 004e DB7C     		ldrb	r3, [r3, #19]	@ zero_extendqisi2
 382              	.L33:
 383 0050 84F82230 		strb	r3, [r4, #34]
 384              	.L32:
 472:..\..\..\u8g2\u8g2\csrc/u8x8_d_st75256.c ****   if ( msg == U8X8_MSG_DISPLAY_SETUP_MEMORY )
 385              		.loc 1 472 0
 386 0054 0120     		movs	r0, #1
 387              	.L28:
 496:..\..\..\u8g2\u8g2\csrc/u8x8_d_st75256.c ****     }
 497:..\..\..\u8g2\u8g2\csrc/u8x8_d_st75256.c ****     return 1;
ARM GAS  C:\Users\jesse\AppData\Local\Temp\cc6zNusR.s 			page 17


 498:..\..\..\u8g2\u8g2\csrc/u8x8_d_st75256.c ****   }
 499:..\..\..\u8g2\u8g2\csrc/u8x8_d_st75256.c ****   return 0;
 500:..\..\..\u8g2\u8g2\csrc/u8x8_d_st75256.c **** }
 388              		.loc 1 500 0
 389 0056 70BD     		pop	{r4, r5, r6, pc}
 390              	.LVL50:
 391              	.L35:
 392              		.align	2
 393              	.L34:
 394 0058 B0000000 		.word	.LANCHOR0+176
 395 005c C8000000 		.word	.LANCHOR0+200
 396 0060 31010000 		.word	.LANCHOR0+305
 397 0064 3E010000 		.word	.LANCHOR0+318
 398              		.cfi_endproc
 399              	.LFE2:
 400              		.size	u8x8_d_st75256_wo256x128, .-u8x8_d_st75256_wo256x128
 401              		.section	.text.u8x8_d_st75256_jlx25664,"ax",%progbits
 402              		.align	1
 403              		.global	u8x8_d_st75256_jlx25664
 404              		.thumb
 405              		.thumb_func
 406              		.type	u8x8_d_st75256_jlx25664, %function
 407              	u8x8_d_st75256_jlx25664:
 408              	.LFB3:
 501:..\..\..\u8g2\u8g2\csrc/u8x8_d_st75256.c **** 
 502:..\..\..\u8g2\u8g2\csrc/u8x8_d_st75256.c **** 
 503:..\..\..\u8g2\u8g2\csrc/u8x8_d_st75256.c **** /*=============================================*/
 504:..\..\..\u8g2\u8g2\csrc/u8x8_d_st75256.c **** /* JLX25664 */
 505:..\..\..\u8g2\u8g2\csrc/u8x8_d_st75256.c **** 
 506:..\..\..\u8g2\u8g2\csrc/u8x8_d_st75256.c **** static const u8x8_display_info_t u8x8_st75256_256x64_display_info =
 507:..\..\..\u8g2\u8g2\csrc/u8x8_d_st75256.c **** {
 508:..\..\..\u8g2\u8g2\csrc/u8x8_d_st75256.c ****   /* chip_enable_level = */ 0,
 509:..\..\..\u8g2\u8g2\csrc/u8x8_d_st75256.c ****   /* chip_disable_level = */ 1,
 510:..\..\..\u8g2\u8g2\csrc/u8x8_d_st75256.c ****   
 511:..\..\..\u8g2\u8g2\csrc/u8x8_d_st75256.c ****   /* post_chip_enable_wait_ns = */ 20,
 512:..\..\..\u8g2\u8g2\csrc/u8x8_d_st75256.c ****   /* pre_chip_disable_wait_ns = */ 20,
 513:..\..\..\u8g2\u8g2\csrc/u8x8_d_st75256.c ****   /* reset_pulse_width_ms = */ 5, 	
 514:..\..\..\u8g2\u8g2\csrc/u8x8_d_st75256.c ****   /* post_reset_wait_ms = */ 5, 		/**/
 515:..\..\..\u8g2\u8g2\csrc/u8x8_d_st75256.c ****   /* sda_setup_time_ns = */ 20,		/* */
 516:..\..\..\u8g2\u8g2\csrc/u8x8_d_st75256.c ****   /* sck_pulse_width_ns = */ 40,	/*  */
 517:..\..\..\u8g2\u8g2\csrc/u8x8_d_st75256.c ****   /* sck_clock_hz = */ 4000000UL,	/* since Arduino 1.6.0, the SPI bus speed in Hz. Should be  10000
 518:..\..\..\u8g2\u8g2\csrc/u8x8_d_st75256.c ****   /* spi_mode = */ 0,		/* active high, rising edge */
 519:..\..\..\u8g2\u8g2\csrc/u8x8_d_st75256.c ****   /* i2c_bus_clock_100kHz = */ 4,	/* 400KHz */
 520:..\..\..\u8g2\u8g2\csrc/u8x8_d_st75256.c ****   /* data_setup_time_ns = */ 15,
 521:..\..\..\u8g2\u8g2\csrc/u8x8_d_st75256.c ****   /* write_pulse_width_ns = */ 70,	
 522:..\..\..\u8g2\u8g2\csrc/u8x8_d_st75256.c ****   /* tile_width = */ 32,
 523:..\..\..\u8g2\u8g2\csrc/u8x8_d_st75256.c ****   /* tile_hight = */ 8,
 524:..\..\..\u8g2\u8g2\csrc/u8x8_d_st75256.c ****   /* default_x_offset = */ 0,	/* must be 0, because this is checked also for normal mode */
 525:..\..\..\u8g2\u8g2\csrc/u8x8_d_st75256.c ****   /* flipmode_x_offset = */ 13,		/* used as y offset */
 526:..\..\..\u8g2\u8g2\csrc/u8x8_d_st75256.c ****   /* pixel_width = */ 256,
 527:..\..\..\u8g2\u8g2\csrc/u8x8_d_st75256.c ****   /* pixel_height = */ 64
 528:..\..\..\u8g2\u8g2\csrc/u8x8_d_st75256.c **** };
 529:..\..\..\u8g2\u8g2\csrc/u8x8_d_st75256.c **** 
 530:..\..\..\u8g2\u8g2\csrc/u8x8_d_st75256.c **** 
 531:..\..\..\u8g2\u8g2\csrc/u8x8_d_st75256.c **** static const uint8_t u8x8_d_st75256_256x64_init_seq[] = {
 532:..\..\..\u8g2\u8g2\csrc/u8x8_d_st75256.c ****   U8X8_START_TRANSFER(),             	/* enable chip, delay is part of the transfer start */
 533:..\..\..\u8g2\u8g2\csrc/u8x8_d_st75256.c ****   
ARM GAS  C:\Users\jesse\AppData\Local\Temp\cc6zNusR.s 			page 18


 534:..\..\..\u8g2\u8g2\csrc/u8x8_d_st75256.c ****   U8X8_DLY(20),
 535:..\..\..\u8g2\u8g2\csrc/u8x8_d_st75256.c **** 
 536:..\..\..\u8g2\u8g2\csrc/u8x8_d_st75256.c ****   U8X8_C( 0x030 ),				/* select 00 commands */
 537:..\..\..\u8g2\u8g2\csrc/u8x8_d_st75256.c ****   U8X8_C( 0x094 ),				/* sleep out */
 538:..\..\..\u8g2\u8g2\csrc/u8x8_d_st75256.c **** 
 539:..\..\..\u8g2\u8g2\csrc/u8x8_d_st75256.c ****   //U8X8_C( 0x030 ),				/* select 00 commands */
 540:..\..\..\u8g2\u8g2\csrc/u8x8_d_st75256.c ****   U8X8_C( 0x0ae ),				/* display off */
 541:..\..\..\u8g2\u8g2\csrc/u8x8_d_st75256.c **** 
 542:..\..\..\u8g2\u8g2\csrc/u8x8_d_st75256.c ****   U8X8_C( 0x031 ),				/* select 01 commands */
 543:..\..\..\u8g2\u8g2\csrc/u8x8_d_st75256.c ****   U8X8_CA( 0x0d7, 0x09f ),		/* disable auto read */  
 544:..\..\..\u8g2\u8g2\csrc/u8x8_d_st75256.c **** 
 545:..\..\..\u8g2\u8g2\csrc/u8x8_d_st75256.c ****   //U8X8_C( 0x031 ),				/* select 01 commands */
 546:..\..\..\u8g2\u8g2\csrc/u8x8_d_st75256.c ****   U8X8_C( 0x032 ),				/* analog circuit set */
 547:..\..\..\u8g2\u8g2\csrc/u8x8_d_st75256.c ****   U8X8_A( 0x000 ),				/* code example: OSC Frequency adjustment */
 548:..\..\..\u8g2\u8g2\csrc/u8x8_d_st75256.c ****   U8X8_A( 0x001 ),				/* Frequency on booster capacitors 1 = 6KHz? */
 549:..\..\..\u8g2\u8g2\csrc/u8x8_d_st75256.c ****   U8X8_A( 0x005 ),				/* Bias: 1: 1/13, 2: 1/12, 3: 1/11, 4:1/10, 5:1/9 */
 550:..\..\..\u8g2\u8g2\csrc/u8x8_d_st75256.c ****     
 551:..\..\..\u8g2\u8g2\csrc/u8x8_d_st75256.c ****   //U8X8_C( 0x031 ),				/* select 01 commands */
 552:..\..\..\u8g2\u8g2\csrc/u8x8_d_st75256.c ****   U8X8_C( 0x020 ),				/* gray levels */
 553:..\..\..\u8g2\u8g2\csrc/u8x8_d_st75256.c ****   U8X8_A( 0x01 ),
 554:..\..\..\u8g2\u8g2\csrc/u8x8_d_st75256.c ****   U8X8_A( 0x03 ),
 555:..\..\..\u8g2\u8g2\csrc/u8x8_d_st75256.c ****   U8X8_A( 0x05 ),
 556:..\..\..\u8g2\u8g2\csrc/u8x8_d_st75256.c ****   U8X8_A( 0x07 ),
 557:..\..\..\u8g2\u8g2\csrc/u8x8_d_st75256.c ****   U8X8_A( 0x09),
 558:..\..\..\u8g2\u8g2\csrc/u8x8_d_st75256.c ****   U8X8_A( 0x0b ),
 559:..\..\..\u8g2\u8g2\csrc/u8x8_d_st75256.c ****   U8X8_A( 0x0d ),
 560:..\..\..\u8g2\u8g2\csrc/u8x8_d_st75256.c ****   U8X8_A( 0x10 ),
 561:..\..\..\u8g2\u8g2\csrc/u8x8_d_st75256.c ****   U8X8_A( 0x11 ),
 562:..\..\..\u8g2\u8g2\csrc/u8x8_d_st75256.c ****   U8X8_A( 0x13 ),
 563:..\..\..\u8g2\u8g2\csrc/u8x8_d_st75256.c ****   U8X8_A( 0x15 ),
 564:..\..\..\u8g2\u8g2\csrc/u8x8_d_st75256.c ****   U8X8_A( 0x17 ),
 565:..\..\..\u8g2\u8g2\csrc/u8x8_d_st75256.c ****   U8X8_A( 0x19 ),
 566:..\..\..\u8g2\u8g2\csrc/u8x8_d_st75256.c ****   U8X8_A( 0x1b ),
 567:..\..\..\u8g2\u8g2\csrc/u8x8_d_st75256.c ****   U8X8_A( 0x1d ),
 568:..\..\..\u8g2\u8g2\csrc/u8x8_d_st75256.c ****   U8X8_A( 0x1f ),
 569:..\..\..\u8g2\u8g2\csrc/u8x8_d_st75256.c ****  
 570:..\..\..\u8g2\u8g2\csrc/u8x8_d_st75256.c ****   
 571:..\..\..\u8g2\u8g2\csrc/u8x8_d_st75256.c ****   U8X8_C( 0x030 ),				/* select 00 commands */
 572:..\..\..\u8g2\u8g2\csrc/u8x8_d_st75256.c ****   U8X8_CAA(0x75, 0, 0x1f),		/* row range */
 573:..\..\..\u8g2\u8g2\csrc/u8x8_d_st75256.c ****   U8X8_CAA(0x15, 0, 255),		/* col range */
 574:..\..\..\u8g2\u8g2\csrc/u8x8_d_st75256.c ****   
 575:..\..\..\u8g2\u8g2\csrc/u8x8_d_st75256.c ****   //U8X8_C( 0x030 ),				/* select 00 commands */
 576:..\..\..\u8g2\u8g2\csrc/u8x8_d_st75256.c ****   U8X8_CA( 0xbc, 0x00 ),			/* data scan dir */
 577:..\..\..\u8g2\u8g2\csrc/u8x8_d_st75256.c ****   U8X8_A( 0xa6 ),				/* ??? */
 578:..\..\..\u8g2\u8g2\csrc/u8x8_d_st75256.c **** 
 579:..\..\..\u8g2\u8g2\csrc/u8x8_d_st75256.c ****   //U8X8_C( 0x030 ),				/* select 00 commands */
 580:..\..\..\u8g2\u8g2\csrc/u8x8_d_st75256.c ****   U8X8_C( 0x00c ),				/* data format LSB top */
 581:..\..\..\u8g2\u8g2\csrc/u8x8_d_st75256.c **** 
 582:..\..\..\u8g2\u8g2\csrc/u8x8_d_st75256.c ****   //U8X8_C( 0x030 ),				/* select 00 commands */ 
 583:..\..\..\u8g2\u8g2\csrc/u8x8_d_st75256.c ****   U8X8_C( 0xca ),				/* display control, 3 args follow  */
 584:..\..\..\u8g2\u8g2\csrc/u8x8_d_st75256.c ****   U8X8_A( 0x00 ),				/* 0x00: no clock division, 0x04: devide clock */
 585:..\..\..\u8g2\u8g2\csrc/u8x8_d_st75256.c ****   U8X8_A( 0x3f ),				/* 64 duty value from the DS example code */
 586:..\..\..\u8g2\u8g2\csrc/u8x8_d_st75256.c ****   U8X8_A( 0x20 ),				/* nline off */ 
 587:..\..\..\u8g2\u8g2\csrc/u8x8_d_st75256.c **** 
 588:..\..\..\u8g2\u8g2\csrc/u8x8_d_st75256.c ****   //U8X8_C( 0x030 ),				/* select 00 commands */ 
 589:..\..\..\u8g2\u8g2\csrc/u8x8_d_st75256.c ****   U8X8_CA( 0x0f0, 0x010 ),		/* monochrome mode  = 0x010*/
 590:..\..\..\u8g2\u8g2\csrc/u8x8_d_st75256.c **** 
ARM GAS  C:\Users\jesse\AppData\Local\Temp\cc6zNusR.s 			page 19


 591:..\..\..\u8g2\u8g2\csrc/u8x8_d_st75256.c ****   //U8X8_C( 0x030 ),				/* select 00 commands */
 592:..\..\..\u8g2\u8g2\csrc/u8x8_d_st75256.c ****   U8X8_CAA( 0x81, 012, 0x02 ),	/* Volume control */
 593:..\..\..\u8g2\u8g2\csrc/u8x8_d_st75256.c **** 
 594:..\..\..\u8g2\u8g2\csrc/u8x8_d_st75256.c ****   //U8X8_C( 0x030 ),				/* select 00 commands */
 595:..\..\..\u8g2\u8g2\csrc/u8x8_d_st75256.c ****   U8X8_CA( 0x020, 0x00b ),		/* Power control: Regulator, follower & booster on */
 596:..\..\..\u8g2\u8g2\csrc/u8x8_d_st75256.c ****   U8X8_DLY(100),
 597:..\..\..\u8g2\u8g2\csrc/u8x8_d_st75256.c **** 
 598:..\..\..\u8g2\u8g2\csrc/u8x8_d_st75256.c ****   U8X8_END_TRANSFER(),             	/* disable chip */
 599:..\..\..\u8g2\u8g2\csrc/u8x8_d_st75256.c ****   U8X8_END()             			/* end of sequence */
 600:..\..\..\u8g2\u8g2\csrc/u8x8_d_st75256.c **** };
 601:..\..\..\u8g2\u8g2\csrc/u8x8_d_st75256.c **** 
 602:..\..\..\u8g2\u8g2\csrc/u8x8_d_st75256.c **** 
 603:..\..\..\u8g2\u8g2\csrc/u8x8_d_st75256.c **** uint8_t u8x8_d_st75256_jlx25664(u8x8_t *u8x8, uint8_t msg, uint8_t arg_int, void *arg_ptr)
 604:..\..\..\u8g2\u8g2\csrc/u8x8_d_st75256.c **** {
 409              		.loc 1 604 0
 410              		.cfi_startproc
 411              		@ args = 0, pretend = 0, frame = 0
 412              		@ frame_needed = 0, uses_anonymous_args = 0
 413              	.LVL51:
 414 0000 70B5     		push	{r4, r5, r6, lr}
 415              		.cfi_def_cfa_offset 16
 416              		.cfi_offset 4, -16
 417              		.cfi_offset 5, -12
 418              		.cfi_offset 6, -8
 419              		.cfi_offset 14, -4
 420              		.loc 1 604 0
 421 0002 0446     		mov	r4, r0
 422 0004 0D46     		mov	r5, r1
 423 0006 1646     		mov	r6, r2
 605:..\..\..\u8g2\u8g2\csrc/u8x8_d_st75256.c ****   if ( u8x8_d_st75256_256x128_generic(u8x8, msg, arg_int, arg_ptr) != 0 )
 424              		.loc 1 605 0
 425 0008 FFF7FEFF 		bl	u8x8_d_st75256_256x128_generic
 426              	.LVL52:
 427 000c 10BB     		cbnz	r0, .L41
 606:..\..\..\u8g2\u8g2\csrc/u8x8_d_st75256.c ****     return 1;
 607:..\..\..\u8g2\u8g2\csrc/u8x8_d_st75256.c ****   if ( msg == U8X8_MSG_DISPLAY_SETUP_MEMORY )
 428              		.loc 1 607 0
 429 000e 092D     		cmp	r5, #9
 430 0010 04D1     		bne	.L38
 608:..\..\..\u8g2\u8g2\csrc/u8x8_d_st75256.c ****   {
 609:..\..\..\u8g2\u8g2\csrc/u8x8_d_st75256.c ****     //u8x8_SetI2CAddress(u8x8, 0x078);		/* lowest I2C adr of the ST75256 */
 610:..\..\..\u8g2\u8g2\csrc/u8x8_d_st75256.c ****     u8x8_d_helper_display_setup_memory(u8x8, &u8x8_st75256_256x64_display_info);
 431              		.loc 1 610 0
 432 0012 1149     		ldr	r1, .L43
 433 0014 2046     		mov	r0, r4
 434 0016 FFF7FEFF 		bl	u8x8_d_helper_display_setup_memory
 435              	.LVL53:
 436 001a 1BE0     		b	.L41
 437              	.L38:
 611:..\..\..\u8g2\u8g2\csrc/u8x8_d_st75256.c ****     return 1;
 612:..\..\..\u8g2\u8g2\csrc/u8x8_d_st75256.c ****   }
 613:..\..\..\u8g2\u8g2\csrc/u8x8_d_st75256.c ****   else if ( msg == U8X8_MSG_DISPLAY_INIT )
 438              		.loc 1 613 0
 439 001c 0A2D     		cmp	r5, #10
 440 001e 07D1     		bne	.L39
 614:..\..\..\u8g2\u8g2\csrc/u8x8_d_st75256.c ****   {
 615:..\..\..\u8g2\u8g2\csrc/u8x8_d_st75256.c ****     u8x8_d_helper_display_init(u8x8);
ARM GAS  C:\Users\jesse\AppData\Local\Temp\cc6zNusR.s 			page 20


 441              		.loc 1 615 0
 442 0020 2046     		mov	r0, r4
 443 0022 FFF7FEFF 		bl	u8x8_d_helper_display_init
 444              	.LVL54:
 616:..\..\..\u8g2\u8g2\csrc/u8x8_d_st75256.c ****     u8x8_cad_SendSequence(u8x8, u8x8_d_st75256_256x64_init_seq);    
 445              		.loc 1 616 0
 446 0026 0D49     		ldr	r1, .L43+4
 447 0028 2046     		mov	r0, r4
 448 002a FFF7FEFF 		bl	u8x8_cad_SendSequence
 449              	.LVL55:
 450 002e 11E0     		b	.L41
 451              	.L39:
 617:..\..\..\u8g2\u8g2\csrc/u8x8_d_st75256.c ****     return 1;
 618:..\..\..\u8g2\u8g2\csrc/u8x8_d_st75256.c ****   }
 619:..\..\..\u8g2\u8g2\csrc/u8x8_d_st75256.c ****   else if  ( msg == U8X8_MSG_DISPLAY_SET_FLIP_MODE )
 452              		.loc 1 619 0
 453 0030 0D2D     		cmp	r5, #13
 454 0032 10D1     		bne	.L37
 620:..\..\..\u8g2\u8g2\csrc/u8x8_d_st75256.c ****   {
 621:..\..\..\u8g2\u8g2\csrc/u8x8_d_st75256.c ****     if ( arg_int == 0 )
 455              		.loc 1 621 0
 456 0034 36B9     		cbnz	r6, .L40
 622:..\..\..\u8g2\u8g2\csrc/u8x8_d_st75256.c ****     {
 623:..\..\..\u8g2\u8g2\csrc/u8x8_d_st75256.c ****       u8x8_cad_SendSequence(u8x8, u8x8_d_st75256_jlx256128_flip0_seq);
 457              		.loc 1 623 0
 458 0036 0A49     		ldr	r1, .L43+8
 459 0038 2046     		mov	r0, r4
 460 003a FFF7FEFF 		bl	u8x8_cad_SendSequence
 461              	.LVL56:
 624:..\..\..\u8g2\u8g2\csrc/u8x8_d_st75256.c ****       u8x8->x_offset = u8x8->display_info->default_x_offset;
 462              		.loc 1 624 0
 463 003e 2368     		ldr	r3, [r4]
 464 0040 9B7C     		ldrb	r3, [r3, #18]	@ zero_extendqisi2
 465 0042 05E0     		b	.L42
 466              	.L40:
 625:..\..\..\u8g2\u8g2\csrc/u8x8_d_st75256.c ****     }
 626:..\..\..\u8g2\u8g2\csrc/u8x8_d_st75256.c ****     else
 627:..\..\..\u8g2\u8g2\csrc/u8x8_d_st75256.c ****     {
 628:..\..\..\u8g2\u8g2\csrc/u8x8_d_st75256.c ****       u8x8_cad_SendSequence(u8x8, u8x8_d_st75256_jlx256128_flip1_seq);
 467              		.loc 1 628 0
 468 0044 0749     		ldr	r1, .L43+12
 469 0046 2046     		mov	r0, r4
 470 0048 FFF7FEFF 		bl	u8x8_cad_SendSequence
 471              	.LVL57:
 629:..\..\..\u8g2\u8g2\csrc/u8x8_d_st75256.c ****       u8x8->x_offset = u8x8->display_info->flipmode_x_offset;
 472              		.loc 1 629 0
 473 004c 2368     		ldr	r3, [r4]
 474 004e DB7C     		ldrb	r3, [r3, #19]	@ zero_extendqisi2
 475              	.L42:
 476 0050 84F82230 		strb	r3, [r4, #34]
 477              	.L41:
 606:..\..\..\u8g2\u8g2\csrc/u8x8_d_st75256.c ****   if ( msg == U8X8_MSG_DISPLAY_SETUP_MEMORY )
 478              		.loc 1 606 0
 479 0054 0120     		movs	r0, #1
 480              	.L37:
 630:..\..\..\u8g2\u8g2\csrc/u8x8_d_st75256.c ****     }
 631:..\..\..\u8g2\u8g2\csrc/u8x8_d_st75256.c ****     return 1;
ARM GAS  C:\Users\jesse\AppData\Local\Temp\cc6zNusR.s 			page 21


 632:..\..\..\u8g2\u8g2\csrc/u8x8_d_st75256.c ****   }
 633:..\..\..\u8g2\u8g2\csrc/u8x8_d_st75256.c ****   return 0;
 634:..\..\..\u8g2\u8g2\csrc/u8x8_d_st75256.c **** }
 481              		.loc 1 634 0
 482 0056 70BD     		pop	{r4, r5, r6, pc}
 483              	.LVL58:
 484              	.L44:
 485              		.align	2
 486              	.L43:
 487 0058 4C010000 		.word	.LANCHOR0+332
 488 005c 64010000 		.word	.LANCHOR0+356
 489 0060 95000000 		.word	.LANCHOR0+149
 490 0064 A2000000 		.word	.LANCHOR0+162
 491              		.cfi_endproc
 492              	.LFE3:
 493              		.size	u8x8_d_st75256_jlx25664, .-u8x8_d_st75256_jlx25664
 494              		.section	.text.u8x8_d_st75256_jlx172104,"ax",%progbits
 495              		.align	1
 496              		.global	u8x8_d_st75256_jlx172104
 497              		.thumb
 498              		.thumb_func
 499              		.type	u8x8_d_st75256_jlx172104, %function
 500              	u8x8_d_st75256_jlx172104:
 501              	.LFB4:
 635:..\..\..\u8g2\u8g2\csrc/u8x8_d_st75256.c **** 
 636:..\..\..\u8g2\u8g2\csrc/u8x8_d_st75256.c **** 
 637:..\..\..\u8g2\u8g2\csrc/u8x8_d_st75256.c **** /*=============================================*/
 638:..\..\..\u8g2\u8g2\csrc/u8x8_d_st75256.c **** /* JLX172104 LCD */
 639:..\..\..\u8g2\u8g2\csrc/u8x8_d_st75256.c **** 
 640:..\..\..\u8g2\u8g2\csrc/u8x8_d_st75256.c **** static const u8x8_display_info_t u8x8_st75256_172x104_display_info =
 641:..\..\..\u8g2\u8g2\csrc/u8x8_d_st75256.c **** {
 642:..\..\..\u8g2\u8g2\csrc/u8x8_d_st75256.c ****   /* chip_enable_level = */ 0,
 643:..\..\..\u8g2\u8g2\csrc/u8x8_d_st75256.c ****   /* chip_disable_level = */ 1,
 644:..\..\..\u8g2\u8g2\csrc/u8x8_d_st75256.c ****   
 645:..\..\..\u8g2\u8g2\csrc/u8x8_d_st75256.c ****   /* post_chip_enable_wait_ns = */ 20,
 646:..\..\..\u8g2\u8g2\csrc/u8x8_d_st75256.c ****   /* pre_chip_disable_wait_ns = */ 20,
 647:..\..\..\u8g2\u8g2\csrc/u8x8_d_st75256.c ****   /* reset_pulse_width_ms = */ 5, 	
 648:..\..\..\u8g2\u8g2\csrc/u8x8_d_st75256.c ****   /* post_reset_wait_ms = */ 5, 		/**/
 649:..\..\..\u8g2\u8g2\csrc/u8x8_d_st75256.c ****   /* sda_setup_time_ns = */ 20,		/* */
 650:..\..\..\u8g2\u8g2\csrc/u8x8_d_st75256.c ****   /* sck_pulse_width_ns = */ 40,	/*  */
 651:..\..\..\u8g2\u8g2\csrc/u8x8_d_st75256.c ****   /* sck_clock_hz = */ 4000000UL,	/* since Arduino 1.6.0, the SPI bus speed in Hz. Should be  10000
 652:..\..\..\u8g2\u8g2\csrc/u8x8_d_st75256.c ****   /* spi_mode = */ 0,		/* active high, rising edge */
 653:..\..\..\u8g2\u8g2\csrc/u8x8_d_st75256.c ****   /* i2c_bus_clock_100kHz = */ 4,	/* 400KHz */
 654:..\..\..\u8g2\u8g2\csrc/u8x8_d_st75256.c ****   /* data_setup_time_ns = */ 15,
 655:..\..\..\u8g2\u8g2\csrc/u8x8_d_st75256.c ****   /* write_pulse_width_ns = */ 70,	
 656:..\..\..\u8g2\u8g2\csrc/u8x8_d_st75256.c ****   /* tile_width = */ 22,			/* 22=176 */
 657:..\..\..\u8g2\u8g2\csrc/u8x8_d_st75256.c ****   /* tile_hight = */ 13,
 658:..\..\..\u8g2\u8g2\csrc/u8x8_d_st75256.c ****   /* default_x_offset = */ 84,	/*  */
 659:..\..\..\u8g2\u8g2\csrc/u8x8_d_st75256.c ****   /* flipmode_x_offset = */ 0,		
 660:..\..\..\u8g2\u8g2\csrc/u8x8_d_st75256.c ****   /* pixel_width = */ 172,
 661:..\..\..\u8g2\u8g2\csrc/u8x8_d_st75256.c ****   /* pixel_height = */ 104
 662:..\..\..\u8g2\u8g2\csrc/u8x8_d_st75256.c **** };
 663:..\..\..\u8g2\u8g2\csrc/u8x8_d_st75256.c **** 
 664:..\..\..\u8g2\u8g2\csrc/u8x8_d_st75256.c **** static const uint8_t u8x8_d_st75256_jlx172104_init_seq[] = {
 665:..\..\..\u8g2\u8g2\csrc/u8x8_d_st75256.c ****   U8X8_START_TRANSFER(),             	/* enable chip, delay is part of the transfer start */
 666:..\..\..\u8g2\u8g2\csrc/u8x8_d_st75256.c ****   
 667:..\..\..\u8g2\u8g2\csrc/u8x8_d_st75256.c ****   U8X8_DLY(20),
ARM GAS  C:\Users\jesse\AppData\Local\Temp\cc6zNusR.s 			page 22


 668:..\..\..\u8g2\u8g2\csrc/u8x8_d_st75256.c **** 
 669:..\..\..\u8g2\u8g2\csrc/u8x8_d_st75256.c ****   U8X8_C( 0x030 ),				/* select 00 commands */
 670:..\..\..\u8g2\u8g2\csrc/u8x8_d_st75256.c ****   U8X8_C( 0x094 ),				/* sleep out */
 671:..\..\..\u8g2\u8g2\csrc/u8x8_d_st75256.c **** 
 672:..\..\..\u8g2\u8g2\csrc/u8x8_d_st75256.c ****   //U8X8_C( 0x030 ),				/* select 00 commands */
 673:..\..\..\u8g2\u8g2\csrc/u8x8_d_st75256.c ****   U8X8_C( 0x0ae ),				/* display off */
 674:..\..\..\u8g2\u8g2\csrc/u8x8_d_st75256.c **** 
 675:..\..\..\u8g2\u8g2\csrc/u8x8_d_st75256.c ****   U8X8_C( 0x031 ),				/* select 01 commands */
 676:..\..\..\u8g2\u8g2\csrc/u8x8_d_st75256.c ****   U8X8_CA( 0x0d7, 0x09f ),		/* disable auto read */  
 677:..\..\..\u8g2\u8g2\csrc/u8x8_d_st75256.c **** 
 678:..\..\..\u8g2\u8g2\csrc/u8x8_d_st75256.c ****   //U8X8_C( 0x031 ),				/* select 01 commands */
 679:..\..\..\u8g2\u8g2\csrc/u8x8_d_st75256.c ****   U8X8_C( 0x032 ),				/* analog circuit set */
 680:..\..\..\u8g2\u8g2\csrc/u8x8_d_st75256.c ****   U8X8_A( 0x000 ),				/* code example: OSC Frequency adjustment */
 681:..\..\..\u8g2\u8g2\csrc/u8x8_d_st75256.c ****   U8X8_A( 0x001 ),				/* Frequency on booster capacitors 1 = 6KHz? */
 682:..\..\..\u8g2\u8g2\csrc/u8x8_d_st75256.c ****   U8X8_A( 0x003 ),				/* Bias: 1: 1/13, 2: 1/12, 3: 1/11, 4:1/10, 5:1/9 */
 683:..\..\..\u8g2\u8g2\csrc/u8x8_d_st75256.c ****     
 684:..\..\..\u8g2\u8g2\csrc/u8x8_d_st75256.c ****   //U8X8_C( 0x031 ),				/* select 01 commands */
 685:..\..\..\u8g2\u8g2\csrc/u8x8_d_st75256.c ****   U8X8_C( 0x020 ),				/* gray levels */
 686:..\..\..\u8g2\u8g2\csrc/u8x8_d_st75256.c ****   U8X8_A( 0x01 ),
 687:..\..\..\u8g2\u8g2\csrc/u8x8_d_st75256.c ****   U8X8_A( 0x03 ),
 688:..\..\..\u8g2\u8g2\csrc/u8x8_d_st75256.c ****   U8X8_A( 0x05 ),
 689:..\..\..\u8g2\u8g2\csrc/u8x8_d_st75256.c ****   U8X8_A( 0x07 ),
 690:..\..\..\u8g2\u8g2\csrc/u8x8_d_st75256.c ****   U8X8_A( 0x09),
 691:..\..\..\u8g2\u8g2\csrc/u8x8_d_st75256.c ****   U8X8_A( 0x0b ),
 692:..\..\..\u8g2\u8g2\csrc/u8x8_d_st75256.c ****   U8X8_A( 0x0d ),
 693:..\..\..\u8g2\u8g2\csrc/u8x8_d_st75256.c ****   U8X8_A( 0x10 ),
 694:..\..\..\u8g2\u8g2\csrc/u8x8_d_st75256.c ****   U8X8_A( 0x11 ),
 695:..\..\..\u8g2\u8g2\csrc/u8x8_d_st75256.c ****   U8X8_A( 0x13 ),
 696:..\..\..\u8g2\u8g2\csrc/u8x8_d_st75256.c ****   U8X8_A( 0x15 ),
 697:..\..\..\u8g2\u8g2\csrc/u8x8_d_st75256.c ****   U8X8_A( 0x17 ),
 698:..\..\..\u8g2\u8g2\csrc/u8x8_d_st75256.c ****   U8X8_A( 0x19 ),
 699:..\..\..\u8g2\u8g2\csrc/u8x8_d_st75256.c ****   U8X8_A( 0x1b ),
 700:..\..\..\u8g2\u8g2\csrc/u8x8_d_st75256.c ****   U8X8_A( 0x1d ),
 701:..\..\..\u8g2\u8g2\csrc/u8x8_d_st75256.c ****   U8X8_A( 0x1f ),
 702:..\..\..\u8g2\u8g2\csrc/u8x8_d_st75256.c ****  
 703:..\..\..\u8g2\u8g2\csrc/u8x8_d_st75256.c ****   
 704:..\..\..\u8g2\u8g2\csrc/u8x8_d_st75256.c ****   U8X8_C( 0x030 ),				/* select 00 commands */
 705:..\..\..\u8g2\u8g2\csrc/u8x8_d_st75256.c ****   U8X8_CAA(0x75, 0, 0x4f),		/* row range */
 706:..\..\..\u8g2\u8g2\csrc/u8x8_d_st75256.c ****   U8X8_CAA(0x15, 0, 255),		/* col range */
 707:..\..\..\u8g2\u8g2\csrc/u8x8_d_st75256.c ****   
 708:..\..\..\u8g2\u8g2\csrc/u8x8_d_st75256.c ****   //U8X8_C( 0x030 ),				/* select 00 commands */
 709:..\..\..\u8g2\u8g2\csrc/u8x8_d_st75256.c ****   U8X8_CA( 0xbc, 0x02 ),			/* data scan dir */
 710:..\..\..\u8g2\u8g2\csrc/u8x8_d_st75256.c ****   U8X8_A( 0xa6 ),				/* ??? */
 711:..\..\..\u8g2\u8g2\csrc/u8x8_d_st75256.c **** 
 712:..\..\..\u8g2\u8g2\csrc/u8x8_d_st75256.c ****   //U8X8_C( 0x030 ),				/* select 00 commands */
 713:..\..\..\u8g2\u8g2\csrc/u8x8_d_st75256.c ****   U8X8_C( 0x00c ),				/* data format LSB top */
 714:..\..\..\u8g2\u8g2\csrc/u8x8_d_st75256.c **** 
 715:..\..\..\u8g2\u8g2\csrc/u8x8_d_st75256.c ****   //U8X8_C( 0x030 ),				/* select 00 commands */ 
 716:..\..\..\u8g2\u8g2\csrc/u8x8_d_st75256.c ****   U8X8_C( 0xca ),				/* display control, 3 args follow  */
 717:..\..\..\u8g2\u8g2\csrc/u8x8_d_st75256.c ****   U8X8_A( 0x00 ),				/* 0x00: no clock division, 0x04: devide clock */
 718:..\..\..\u8g2\u8g2\csrc/u8x8_d_st75256.c ****   U8X8_A( 0x9f ),				/* 1/160 duty value from the DS example code */
 719:..\..\..\u8g2\u8g2\csrc/u8x8_d_st75256.c ****   U8X8_A( 0x20 ),				/* nline off */ 
 720:..\..\..\u8g2\u8g2\csrc/u8x8_d_st75256.c **** 
 721:..\..\..\u8g2\u8g2\csrc/u8x8_d_st75256.c ****   //U8X8_C( 0x030 ),				/* select 00 commands */ 
 722:..\..\..\u8g2\u8g2\csrc/u8x8_d_st75256.c ****   U8X8_CA( 0x0f0, 0x010 ),		/* monochrome mode  = 0x010*/
 723:..\..\..\u8g2\u8g2\csrc/u8x8_d_st75256.c **** 
 724:..\..\..\u8g2\u8g2\csrc/u8x8_d_st75256.c ****   //U8X8_C( 0x030 ),				/* select 00 commands */
ARM GAS  C:\Users\jesse\AppData\Local\Temp\cc6zNusR.s 			page 23


 725:..\..\..\u8g2\u8g2\csrc/u8x8_d_st75256.c ****   U8X8_CAA( 0x81, 0x08, 0x04 ),	/* Volume control */
 726:..\..\..\u8g2\u8g2\csrc/u8x8_d_st75256.c **** 
 727:..\..\..\u8g2\u8g2\csrc/u8x8_d_st75256.c ****   //U8X8_C( 0x030 ),				/* select 00 commands */
 728:..\..\..\u8g2\u8g2\csrc/u8x8_d_st75256.c ****   U8X8_CA( 0x020, 0x00b ),		/* Power control: Regulator, follower & booster on */
 729:..\..\..\u8g2\u8g2\csrc/u8x8_d_st75256.c ****   U8X8_DLY(100),
 730:..\..\..\u8g2\u8g2\csrc/u8x8_d_st75256.c **** 
 731:..\..\..\u8g2\u8g2\csrc/u8x8_d_st75256.c ****   U8X8_END_TRANSFER(),             	/* disable chip */
 732:..\..\..\u8g2\u8g2\csrc/u8x8_d_st75256.c ****   U8X8_END()             			/* end of sequence */
 733:..\..\..\u8g2\u8g2\csrc/u8x8_d_st75256.c **** };    
 734:..\..\..\u8g2\u8g2\csrc/u8x8_d_st75256.c **** 
 735:..\..\..\u8g2\u8g2\csrc/u8x8_d_st75256.c **** 
 736:..\..\..\u8g2\u8g2\csrc/u8x8_d_st75256.c **** uint8_t u8x8_d_st75256_jlx172104(u8x8_t *u8x8, uint8_t msg, uint8_t arg_int, void *arg_ptr)
 737:..\..\..\u8g2\u8g2\csrc/u8x8_d_st75256.c **** {
 502              		.loc 1 737 0
 503              		.cfi_startproc
 504              		@ args = 0, pretend = 0, frame = 0
 505              		@ frame_needed = 0, uses_anonymous_args = 0
 506              	.LVL59:
 738:..\..\..\u8g2\u8g2\csrc/u8x8_d_st75256.c ****   uint8_t x, c;
 739:..\..\..\u8g2\u8g2\csrc/u8x8_d_st75256.c ****   uint8_t *ptr;
 740:..\..\..\u8g2\u8g2\csrc/u8x8_d_st75256.c **** 
 741:..\..\..\u8g2\u8g2\csrc/u8x8_d_st75256.c ****   switch(msg)
 507              		.loc 1 741 0
 508 0000 0939     		subs	r1, r1, #9
 509              	.LVL60:
 737:..\..\..\u8g2\u8g2\csrc/u8x8_d_st75256.c ****   uint8_t x, c;
 510              		.loc 1 737 0
 511 0002 2DE9F041 		push	{r4, r5, r6, r7, r8, lr}
 512              		.cfi_def_cfa_offset 24
 513              		.cfi_offset 4, -24
 514              		.cfi_offset 5, -20
 515              		.cfi_offset 6, -16
 516              		.cfi_offset 7, -12
 517              		.cfi_offset 8, -8
 518              		.cfi_offset 14, -4
 737:..\..\..\u8g2\u8g2\csrc/u8x8_d_st75256.c ****   uint8_t x, c;
 519              		.loc 1 737 0
 520 0006 0446     		mov	r4, r0
 521 0008 1646     		mov	r6, r2
 522 000a 1F46     		mov	r7, r3
 523              		.loc 1 741 0
 524 000c 0629     		cmp	r1, #6
 525 000e 00F28480 		bhi	.L60
 526 0012 DFE801F0 		tbb	[pc, r1]
 527              	.LVL61:
 528              	.L48:
 529 0016 49       		.byte	(.L47-.L48)/2
 530 0017 4D       		.byte	(.L49-.L48)/2
 531 0018 51       		.byte	(.L50-.L48)/2
 532 0019 82       		.byte	(.L60-.L48)/2
 533 001a 59       		.byte	(.L51-.L48)/2
 534 001b 68       		.byte	(.L52-.L48)/2
 535 001c 04       		.byte	(.L53-.L48)/2
 536 001d 00       		.p2align 1
 537              	.L53:
 742:..\..\..\u8g2\u8g2\csrc/u8x8_d_st75256.c ****   {
 743:..\..\..\u8g2\u8g2\csrc/u8x8_d_st75256.c ****             case U8X8_MSG_DISPLAY_DRAW_TILE:
ARM GAS  C:\Users\jesse\AppData\Local\Temp\cc6zNusR.s 			page 24


 744:..\..\..\u8g2\u8g2\csrc/u8x8_d_st75256.c ****               
 745:..\..\..\u8g2\u8g2\csrc/u8x8_d_st75256.c ****               u8x8_cad_StartTransfer(u8x8);
 538              		.loc 1 745 0
 539 001e FFF7FEFF 		bl	u8x8_cad_StartTransfer
 540              	.LVL62:
 746:..\..\..\u8g2\u8g2\csrc/u8x8_d_st75256.c ****               x = ((u8x8_tile_t *)arg_ptr)->x_pos;    
 747:..\..\..\u8g2\u8g2\csrc/u8x8_d_st75256.c ****               x *= 8;
 748:..\..\..\u8g2\u8g2\csrc/u8x8_d_st75256.c ****               
 749:..\..\..\u8g2\u8g2\csrc/u8x8_d_st75256.c ****               u8x8_cad_SendCmd(u8x8, 0x030 );	/* select command set */
 541              		.loc 1 749 0
 542 0022 3021     		movs	r1, #48
 543 0024 2046     		mov	r0, r4
 746:..\..\..\u8g2\u8g2\csrc/u8x8_d_st75256.c ****               x = ((u8x8_tile_t *)arg_ptr)->x_pos;    
 544              		.loc 1 746 0
 545 0026 7D79     		ldrb	r5, [r7, #5]	@ zero_extendqisi2
 546              	.LVL63:
 547              		.loc 1 749 0
 548 0028 FFF7FEFF 		bl	u8x8_cad_SendCmd
 549              	.LVL64:
 750:..\..\..\u8g2\u8g2\csrc/u8x8_d_st75256.c ****               u8x8_cad_SendCmd(u8x8, 0x075 );	/* row */
 550              		.loc 1 750 0
 551 002c 7521     		movs	r1, #117
 552 002e 2046     		mov	r0, r4
 553 0030 FFF7FEFF 		bl	u8x8_cad_SendCmd
 554              	.LVL65:
 751:..\..\..\u8g2\u8g2\csrc/u8x8_d_st75256.c **** 	      if ( u8x8->x_offset == 0 )		/* 0 means flip mode 1, then adjust y value */
 555              		.loc 1 751 0
 556 0034 94F82230 		ldrb	r3, [r4, #34]	@ zero_extendqisi2
 747:..\..\..\u8g2\u8g2\csrc/u8x8_d_st75256.c ****               
 557              		.loc 1 747 0
 558 0038 ED00     		lsls	r5, r5, #3
 559              	.LVL66:
 560 003a 5FFA85F8 		uxtb	r8, r5
 561              	.LVL67:
 562 003e B979     		ldrb	r1, [r7, #6]	@ zero_extendqisi2
 563              		.loc 1 751 0
 564 0040 0BB9     		cbnz	r3, .L54
 752:..\..\..\u8g2\u8g2\csrc/u8x8_d_st75256.c **** 		u8x8_cad_SendArg(u8x8, 8+(((u8x8_tile_t *)arg_ptr)->y_pos));
 565              		.loc 1 752 0
 566 0042 0831     		adds	r1, r1, #8
 567 0044 C9B2     		uxtb	r1, r1
 568              	.L54:
 753:..\..\..\u8g2\u8g2\csrc/u8x8_d_st75256.c **** 	      else
 754:..\..\..\u8g2\u8g2\csrc/u8x8_d_st75256.c **** 		u8x8_cad_SendArg(u8x8, (((u8x8_tile_t *)arg_ptr)->y_pos));
 569              		.loc 1 754 0
 570 0046 2046     		mov	r0, r4
 571 0048 FFF7FEFF 		bl	u8x8_cad_SendArg
 572              	.LVL68:
 755:..\..\..\u8g2\u8g2\csrc/u8x8_d_st75256.c ****               u8x8_cad_SendArg(u8x8, 0x04f);
 573              		.loc 1 755 0
 574 004c 4F21     		movs	r1, #79
 575 004e 2046     		mov	r0, r4
 576 0050 FFF7FEFF 		bl	u8x8_cad_SendArg
 577              	.LVL69:
 756:..\..\..\u8g2\u8g2\csrc/u8x8_d_st75256.c ****               //u8x8_cad_SendArg(u8x8, (((u8x8_tile_t *)arg_ptr)->y_pos));
 757:..\..\..\u8g2\u8g2\csrc/u8x8_d_st75256.c ****               u8x8_cad_SendCmd(u8x8, 0x015 );	/* col */
 578              		.loc 1 757 0
ARM GAS  C:\Users\jesse\AppData\Local\Temp\cc6zNusR.s 			page 25


 579 0054 1521     		movs	r1, #21
 580 0056 2046     		mov	r0, r4
 581 0058 FFF7FEFF 		bl	u8x8_cad_SendCmd
 582              	.LVL70:
 758:..\..\..\u8g2\u8g2\csrc/u8x8_d_st75256.c ****               u8x8_cad_SendArg(u8x8, x+u8x8->x_offset);
 583              		.loc 1 758 0
 584 005c 94F82210 		ldrb	r1, [r4, #34]	@ zero_extendqisi2
 585 0060 2046     		mov	r0, r4
 586 0062 4144     		add	r1, r1, r8
 587 0064 C9B2     		uxtb	r1, r1
 588 0066 FFF7FEFF 		bl	u8x8_cad_SendArg
 589              	.LVL71:
 759:..\..\..\u8g2\u8g2\csrc/u8x8_d_st75256.c ****               u8x8_cad_SendArg(u8x8, 255);
 590              		.loc 1 759 0
 591 006a FF21     		movs	r1, #255
 592 006c 2046     		mov	r0, r4
 593 006e FFF7FEFF 		bl	u8x8_cad_SendArg
 594              	.LVL72:
 760:..\..\..\u8g2\u8g2\csrc/u8x8_d_st75256.c ****               u8x8_cad_SendCmd(u8x8, 0x05c );	
 595              		.loc 1 760 0
 596 0072 5C21     		movs	r1, #92
 597 0074 2046     		mov	r0, r4
 598 0076 FFF7FEFF 		bl	u8x8_cad_SendCmd
 599              	.LVL73:
 600              	.L57:
 761:..\..\..\u8g2\u8g2\csrc/u8x8_d_st75256.c ****             
 762:..\..\..\u8g2\u8g2\csrc/u8x8_d_st75256.c ****               
 763:..\..\..\u8g2\u8g2\csrc/u8x8_d_st75256.c ****               /* this procedure assumes, that the overall width is 172 */
 764:..\..\..\u8g2\u8g2\csrc/u8x8_d_st75256.c ****               do
 765:..\..\..\u8g2\u8g2\csrc/u8x8_d_st75256.c ****               {
 766:..\..\..\u8g2\u8g2\csrc/u8x8_d_st75256.c ****                 c = ((u8x8_tile_t *)arg_ptr)->cnt;
 601              		.loc 1 766 0
 602 007a 3B79     		ldrb	r3, [r7, #4]	@ zero_extendqisi2
 603              	.LVL74:
 767:..\..\..\u8g2\u8g2\csrc/u8x8_d_st75256.c ****                 ptr = ((u8x8_tile_t *)arg_ptr)->tile_ptr;
 604              		.loc 1 767 0
 605 007c 3A68     		ldr	r2, [r7]
 606              	.LVL75:
 768:..\..\..\u8g2\u8g2\csrc/u8x8_d_st75256.c ****                 c *= 8;
 607              		.loc 1 768 0
 608 007e DB00     		lsls	r3, r3, #3
 609              	.LVL76:
 610 0080 DDB2     		uxtb	r5, r3
 611              	.LVL77:
 769:..\..\..\u8g2\u8g2\csrc/u8x8_d_st75256.c **** 
 770:..\..\..\u8g2\u8g2\csrc/u8x8_d_st75256.c ****                 if ( c + x > 172u )
 612              		.loc 1 770 0
 613 0082 05EB0803 		add	r3, r5, r8
 614 0086 AC2B     		cmp	r3, #172
 615              	.LVL78:
 771:..\..\..\u8g2\u8g2\csrc/u8x8_d_st75256.c ****                 {
 772:..\..\..\u8g2\u8g2\csrc/u8x8_d_st75256.c ****                         c = 172u;
 773:..\..\..\u8g2\u8g2\csrc/u8x8_d_st75256.c ****                         c -= x;
 616              		.loc 1 773 0
 617 0088 C4BF     		itt	gt
 618 008a C8F1AC03 		rsbgt	r3, r8, #172
 619 008e DDB2     		uxtbgt	r5, r3
ARM GAS  C:\Users\jesse\AppData\Local\Temp\cc6zNusR.s 			page 26


 620              	.LVL79:
 774:..\..\..\u8g2\u8g2\csrc/u8x8_d_st75256.c ****                 }
 775:..\..\..\u8g2\u8g2\csrc/u8x8_d_st75256.c ****                       
 776:..\..\..\u8g2\u8g2\csrc/u8x8_d_st75256.c ****                 u8x8_cad_SendData(u8x8, c, ptr); 	
 621              		.loc 1 776 0
 622 0090 2946     		mov	r1, r5
 623 0092 2046     		mov	r0, r4
 777:..\..\..\u8g2\u8g2\csrc/u8x8_d_st75256.c ****                 x += c;
 778:..\..\..\u8g2\u8g2\csrc/u8x8_d_st75256.c ****                 arg_int--;
 624              		.loc 1 778 0
 625 0094 013E     		subs	r6, r6, #1
 626              	.LVL80:
 776:..\..\..\u8g2\u8g2\csrc/u8x8_d_st75256.c ****                 x += c;
 627              		.loc 1 776 0
 628 0096 FFF7FEFF 		bl	u8x8_cad_SendData
 629              	.LVL81:
 777:..\..\..\u8g2\u8g2\csrc/u8x8_d_st75256.c ****                 x += c;
 630              		.loc 1 777 0
 631 009a 4544     		add	r5, r5, r8
 632              	.LVL82:
 779:..\..\..\u8g2\u8g2\csrc/u8x8_d_st75256.c ****               } while( arg_int > 0 );
 633              		.loc 1 779 0
 634 009c 16F0FF06 		ands	r6, r6, #255
 777:..\..\..\u8g2\u8g2\csrc/u8x8_d_st75256.c ****                 x += c;
 635              		.loc 1 777 0
 636 00a0 5FFA85F8 		uxtb	r8, r5
 637              	.LVL83:
 638              		.loc 1 779 0
 639 00a4 E9D1     		bne	.L57
 640 00a6 32E0     		b	.L63
 641              	.LVL84:
 642              	.L47:
 780:..\..\..\u8g2\u8g2\csrc/u8x8_d_st75256.c ****               
 781:..\..\..\u8g2\u8g2\csrc/u8x8_d_st75256.c ****               u8x8_cad_EndTransfer(u8x8);
 782:..\..\..\u8g2\u8g2\csrc/u8x8_d_st75256.c ****               return 1;
 783:..\..\..\u8g2\u8g2\csrc/u8x8_d_st75256.c ****         case U8X8_MSG_DISPLAY_SETUP_MEMORY:
 784:..\..\..\u8g2\u8g2\csrc/u8x8_d_st75256.c ****             //u8x8_SetI2CAddress(u8x8, 0x078);		/* lowest I2C adr of the ST75256 */
 785:..\..\..\u8g2\u8g2\csrc/u8x8_d_st75256.c ****             u8x8_d_helper_display_setup_memory(u8x8, &u8x8_st75256_172x104_display_info);
 643              		.loc 1 785 0
 644 00a8 1D49     		ldr	r1, .L66
 645 00aa FFF7FEFF 		bl	u8x8_d_helper_display_setup_memory
 646              	.LVL85:
 647 00ae 31E0     		b	.L62
 648              	.LVL86:
 649              	.L49:
 786:..\..\..\u8g2\u8g2\csrc/u8x8_d_st75256.c ****             return 1;
 787:..\..\..\u8g2\u8g2\csrc/u8x8_d_st75256.c ****         case U8X8_MSG_DISPLAY_INIT:
 788:..\..\..\u8g2\u8g2\csrc/u8x8_d_st75256.c ****             u8x8_d_helper_display_init(u8x8);
 650              		.loc 1 788 0
 651 00b0 FFF7FEFF 		bl	u8x8_d_helper_display_init
 652              	.LVL87:
 789:..\..\..\u8g2\u8g2\csrc/u8x8_d_st75256.c ****             u8x8_cad_SendSequence(u8x8, u8x8_d_st75256_jlx172104_init_seq);
 653              		.loc 1 789 0
 654 00b4 1B49     		ldr	r1, .L66+4
 655 00b6 03E0     		b	.L64
 656              	.LVL88:
 657              	.L50:
ARM GAS  C:\Users\jesse\AppData\Local\Temp\cc6zNusR.s 			page 27


 790:..\..\..\u8g2\u8g2\csrc/u8x8_d_st75256.c ****             return 1;
 791:..\..\..\u8g2\u8g2\csrc/u8x8_d_st75256.c ****         case U8X8_MSG_DISPLAY_SET_POWER_SAVE:
 792:..\..\..\u8g2\u8g2\csrc/u8x8_d_st75256.c ****               if ( arg_int == 0 )
 658              		.loc 1 792 0
 659 00b8 0AB9     		cbnz	r2, .L58
 793:..\..\..\u8g2\u8g2\csrc/u8x8_d_st75256.c ****                 u8x8_cad_SendSequence(u8x8, u8x8_d_st75256_256x128_powersave0_seq);
 660              		.loc 1 793 0
 661 00ba 1B49     		ldr	r1, .L66+8
 662 00bc 00E0     		b	.L64
 663              	.L58:
 794:..\..\..\u8g2\u8g2\csrc/u8x8_d_st75256.c ****               else
 795:..\..\..\u8g2\u8g2\csrc/u8x8_d_st75256.c ****                 u8x8_cad_SendSequence(u8x8, u8x8_d_st75256_256x128_powersave1_seq);
 664              		.loc 1 795 0
 665 00be 1B49     		ldr	r1, .L66+12
 666              	.LVL89:
 667              	.L64:
 668 00c0 2046     		mov	r0, r4
 669 00c2 FFF7FEFF 		bl	u8x8_cad_SendSequence
 670              	.LVL90:
 671 00c6 25E0     		b	.L62
 672              	.LVL91:
 673              	.L51:
 796:..\..\..\u8g2\u8g2\csrc/u8x8_d_st75256.c **** 
 797:..\..\..\u8g2\u8g2\csrc/u8x8_d_st75256.c ****               return 1;
 798:..\..\..\u8g2\u8g2\csrc/u8x8_d_st75256.c **** 	case U8X8_MSG_DISPLAY_SET_FLIP_MODE:
 799:..\..\..\u8g2\u8g2\csrc/u8x8_d_st75256.c **** 	    if ( arg_int == 0 )
 674              		.loc 1 799 0
 675 00c8 2AB9     		cbnz	r2, .L59
 800:..\..\..\u8g2\u8g2\csrc/u8x8_d_st75256.c **** 	    {
 801:..\..\..\u8g2\u8g2\csrc/u8x8_d_st75256.c **** 	      u8x8_cad_SendSequence(u8x8, u8x8_d_st75256_jlx172104_flip0_seq);
 676              		.loc 1 801 0
 677 00ca 1949     		ldr	r1, .L66+16
 678 00cc FFF7FEFF 		bl	u8x8_cad_SendSequence
 679              	.LVL92:
 802:..\..\..\u8g2\u8g2\csrc/u8x8_d_st75256.c **** 	      u8x8->x_offset = u8x8->display_info->default_x_offset;
 680              		.loc 1 802 0
 681 00d0 2368     		ldr	r3, [r4]
 682 00d2 9B7C     		ldrb	r3, [r3, #18]	@ zero_extendqisi2
 683 00d4 04E0     		b	.L65
 684              	.LVL93:
 685              	.L59:
 803:..\..\..\u8g2\u8g2\csrc/u8x8_d_st75256.c **** 	    }
 804:..\..\..\u8g2\u8g2\csrc/u8x8_d_st75256.c **** 	    else
 805:..\..\..\u8g2\u8g2\csrc/u8x8_d_st75256.c **** 	    {
 806:..\..\..\u8g2\u8g2\csrc/u8x8_d_st75256.c **** 	      u8x8_cad_SendSequence(u8x8, u8x8_d_st75256_jlx172104_flip1_seq); 
 686              		.loc 1 806 0
 687 00d6 1749     		ldr	r1, .L66+20
 688 00d8 FFF7FEFF 		bl	u8x8_cad_SendSequence
 689              	.LVL94:
 807:..\..\..\u8g2\u8g2\csrc/u8x8_d_st75256.c **** 	      u8x8->x_offset = u8x8->display_info->flipmode_x_offset;
 690              		.loc 1 807 0
 691 00dc 2368     		ldr	r3, [r4]
 692 00de DB7C     		ldrb	r3, [r3, #19]	@ zero_extendqisi2
 693              	.L65:
 694 00e0 84F82230 		strb	r3, [r4, #34]
 695 00e4 16E0     		b	.L62
 696              	.LVL95:
ARM GAS  C:\Users\jesse\AppData\Local\Temp\cc6zNusR.s 			page 28


 697              	.L52:
 808:..\..\..\u8g2\u8g2\csrc/u8x8_d_st75256.c **** 	    }
 809:..\..\..\u8g2\u8g2\csrc/u8x8_d_st75256.c **** 	    return 1;
 810:..\..\..\u8g2\u8g2\csrc/u8x8_d_st75256.c **** 		
 811:..\..\..\u8g2\u8g2\csrc/u8x8_d_st75256.c **** #ifdef U8X8_WITH_SET_CONTRAST
 812:..\..\..\u8g2\u8g2\csrc/u8x8_d_st75256.c ****         case U8X8_MSG_DISPLAY_SET_CONTRAST:
 813:..\..\..\u8g2\u8g2\csrc/u8x8_d_st75256.c **** 
 814:..\..\..\u8g2\u8g2\csrc/u8x8_d_st75256.c ****               u8x8_cad_StartTransfer(u8x8);
 698              		.loc 1 814 0
 699 00e6 FFF7FEFF 		bl	u8x8_cad_StartTransfer
 700              	.LVL96:
 815:..\..\..\u8g2\u8g2\csrc/u8x8_d_st75256.c ****               
 816:..\..\..\u8g2\u8g2\csrc/u8x8_d_st75256.c ****               u8x8_cad_SendCmd(u8x8, 0x030 );
 701              		.loc 1 816 0
 702 00ea 3021     		movs	r1, #48
 703 00ec 2046     		mov	r0, r4
 704 00ee FFF7FEFF 		bl	u8x8_cad_SendCmd
 705              	.LVL97:
 817:..\..\..\u8g2\u8g2\csrc/u8x8_d_st75256.c ****               u8x8_cad_SendCmd(u8x8, 0x081 );  /* there are 9 bit for the volume control */
 706              		.loc 1 817 0
 707 00f2 8121     		movs	r1, #129
 708 00f4 2046     		mov	r0, r4
 709 00f6 FFF7FEFF 		bl	u8x8_cad_SendCmd
 710              	.LVL98:
 818:..\..\..\u8g2\u8g2\csrc/u8x8_d_st75256.c ****               u8x8_cad_SendArg(u8x8, (arg_int & 0x1f)<<1 );	/* lower 6 bit */
 711              		.loc 1 818 0
 712 00fa 7100     		lsls	r1, r6, #1
 713 00fc 01F03E01 		and	r1, r1, #62
 714 0100 2046     		mov	r0, r4
 715 0102 FFF7FEFF 		bl	u8x8_cad_SendArg
 716              	.LVL99:
 819:..\..\..\u8g2\u8g2\csrc/u8x8_d_st75256.c ****               u8x8_cad_SendArg(u8x8, (arg_int>>5));		/* upper 3 bit */
 717              		.loc 1 819 0
 718 0106 7109     		lsrs	r1, r6, #5
 719 0108 2046     		mov	r0, r4
 720 010a FFF7FEFF 		bl	u8x8_cad_SendArg
 721              	.LVL100:
 722              	.L63:
 820:..\..\..\u8g2\u8g2\csrc/u8x8_d_st75256.c ****               
 821:..\..\..\u8g2\u8g2\csrc/u8x8_d_st75256.c ****               u8x8_cad_EndTransfer(u8x8);
 723              		.loc 1 821 0
 724 010e 2046     		mov	r0, r4
 725 0110 FFF7FEFF 		bl	u8x8_cad_EndTransfer
 726              	.LVL101:
 727              	.L62:
 822:..\..\..\u8g2\u8g2\csrc/u8x8_d_st75256.c ****               return 1;
 728              		.loc 1 822 0
 729 0114 0120     		movs	r0, #1
 730 0116 BDE8F081 		pop	{r4, r5, r6, r7, r8, pc}
 731              	.LVL102:
 732              	.L60:
 823:..\..\..\u8g2\u8g2\csrc/u8x8_d_st75256.c **** #endif
 824:..\..\..\u8g2\u8g2\csrc/u8x8_d_st75256.c ****   }
 825:..\..\..\u8g2\u8g2\csrc/u8x8_d_st75256.c ****   return 0;
 733              		.loc 1 825 0
 734 011a 0020     		movs	r0, #0
 735              	.LVL103:
ARM GAS  C:\Users\jesse\AppData\Local\Temp\cc6zNusR.s 			page 29


 826:..\..\..\u8g2\u8g2\csrc/u8x8_d_st75256.c **** }
 736              		.loc 1 826 0
 737 011c BDE8F081 		pop	{r4, r5, r6, r7, r8, pc}
 738              	.LVL104:
 739              	.L67:
 740              		.align	2
 741              	.L66:
 742 0120 D0010000 		.word	.LANCHOR0+464
 743 0124 E8010000 		.word	.LANCHOR0+488
 744 0128 00000000 		.word	.LANCHOR0
 745 012c 0B000000 		.word	.LANCHOR0+11
 746 0130 3E010000 		.word	.LANCHOR0+318
 747 0134 31010000 		.word	.LANCHOR0+305
 748              		.cfi_endproc
 749              	.LFE4:
 750              		.size	u8x8_d_st75256_jlx172104, .-u8x8_d_st75256_jlx172104
 751              		.section	.text.u8x8_d_st75256_jlx240160,"ax",%progbits
 752              		.align	1
 753              		.global	u8x8_d_st75256_jlx240160
 754              		.thumb
 755              		.thumb_func
 756              		.type	u8x8_d_st75256_jlx240160, %function
 757              	u8x8_d_st75256_jlx240160:
 758              	.LFB5:
 827:..\..\..\u8g2\u8g2\csrc/u8x8_d_st75256.c **** 
 828:..\..\..\u8g2\u8g2\csrc/u8x8_d_st75256.c **** /*=============================================*/
 829:..\..\..\u8g2\u8g2\csrc/u8x8_d_st75256.c **** /* JLX240160 */
 830:..\..\..\u8g2\u8g2\csrc/u8x8_d_st75256.c **** 
 831:..\..\..\u8g2\u8g2\csrc/u8x8_d_st75256.c **** static const u8x8_display_info_t u8x8_st75256_240x160_display_info =
 832:..\..\..\u8g2\u8g2\csrc/u8x8_d_st75256.c **** {
 833:..\..\..\u8g2\u8g2\csrc/u8x8_d_st75256.c ****   /* chip_enable_level = */ 0,
 834:..\..\..\u8g2\u8g2\csrc/u8x8_d_st75256.c ****   /* chip_disable_level = */ 1,
 835:..\..\..\u8g2\u8g2\csrc/u8x8_d_st75256.c ****   
 836:..\..\..\u8g2\u8g2\csrc/u8x8_d_st75256.c ****   /* post_chip_enable_wait_ns = */ 20,
 837:..\..\..\u8g2\u8g2\csrc/u8x8_d_st75256.c ****   /* pre_chip_disable_wait_ns = */ 20,
 838:..\..\..\u8g2\u8g2\csrc/u8x8_d_st75256.c ****   /* reset_pulse_width_ms = */ 5, 	
 839:..\..\..\u8g2\u8g2\csrc/u8x8_d_st75256.c ****   /* post_reset_wait_ms = */ 5, 		/**/
 840:..\..\..\u8g2\u8g2\csrc/u8x8_d_st75256.c ****   /* sda_setup_time_ns = */ 20,		/* */
 841:..\..\..\u8g2\u8g2\csrc/u8x8_d_st75256.c ****   /* sck_pulse_width_ns = */ 40,	/*  */
 842:..\..\..\u8g2\u8g2\csrc/u8x8_d_st75256.c ****   /* sck_clock_hz = */ 4000000UL,	/* since Arduino 1.6.0, the SPI bus speed in Hz. Should be  10000
 843:..\..\..\u8g2\u8g2\csrc/u8x8_d_st75256.c ****   /* spi_mode = */ 0,		/* active high, rising edge */
 844:..\..\..\u8g2\u8g2\csrc/u8x8_d_st75256.c ****   /* i2c_bus_clock_100kHz = */ 4,	/* 400KHz */
 845:..\..\..\u8g2\u8g2\csrc/u8x8_d_st75256.c ****   /* data_setup_time_ns = */ 15,
 846:..\..\..\u8g2\u8g2\csrc/u8x8_d_st75256.c ****   /* write_pulse_width_ns = */ 70,	
 847:..\..\..\u8g2\u8g2\csrc/u8x8_d_st75256.c ****   /* tile_width = */ 30,
 848:..\..\..\u8g2\u8g2\csrc/u8x8_d_st75256.c ****   /* tile_hight = */ 20,
 849:..\..\..\u8g2\u8g2\csrc/u8x8_d_st75256.c ****   /* default_x_offset = */ 16,	/*  x offset in flipmode 0 */
 850:..\..\..\u8g2\u8g2\csrc/u8x8_d_st75256.c ****   /* flipmode_x_offset = */ 0,		/* */
 851:..\..\..\u8g2\u8g2\csrc/u8x8_d_st75256.c ****   /* pixel_width = */ 240,
 852:..\..\..\u8g2\u8g2\csrc/u8x8_d_st75256.c ****   /* pixel_height = */ 160
 853:..\..\..\u8g2\u8g2\csrc/u8x8_d_st75256.c **** };
 854:..\..\..\u8g2\u8g2\csrc/u8x8_d_st75256.c **** 
 855:..\..\..\u8g2\u8g2\csrc/u8x8_d_st75256.c **** 
 856:..\..\..\u8g2\u8g2\csrc/u8x8_d_st75256.c **** static const uint8_t u8x8_d_st75256_240x160_init_seq[] = {
 857:..\..\..\u8g2\u8g2\csrc/u8x8_d_st75256.c ****   U8X8_START_TRANSFER(),             	/* enable chip, delay is part of the transfer start */
 858:..\..\..\u8g2\u8g2\csrc/u8x8_d_st75256.c ****   
 859:..\..\..\u8g2\u8g2\csrc/u8x8_d_st75256.c ****   U8X8_DLY(20),
ARM GAS  C:\Users\jesse\AppData\Local\Temp\cc6zNusR.s 			page 30


 860:..\..\..\u8g2\u8g2\csrc/u8x8_d_st75256.c **** 
 861:..\..\..\u8g2\u8g2\csrc/u8x8_d_st75256.c ****   U8X8_C( 0x030 ),				/* select 00 commands */
 862:..\..\..\u8g2\u8g2\csrc/u8x8_d_st75256.c ****   U8X8_C( 0x094 ),				/* sleep out */
 863:..\..\..\u8g2\u8g2\csrc/u8x8_d_st75256.c **** 
 864:..\..\..\u8g2\u8g2\csrc/u8x8_d_st75256.c ****   //U8X8_C( 0x030 ),				/* select 00 commands */
 865:..\..\..\u8g2\u8g2\csrc/u8x8_d_st75256.c ****   U8X8_C( 0x0ae ),				/* display off */
 866:..\..\..\u8g2\u8g2\csrc/u8x8_d_st75256.c **** 
 867:..\..\..\u8g2\u8g2\csrc/u8x8_d_st75256.c ****   U8X8_C( 0x031 ),				/* select 01 commands */
 868:..\..\..\u8g2\u8g2\csrc/u8x8_d_st75256.c ****   U8X8_CA( 0x0d7, 0x09f ),		/* disable auto read */  
 869:..\..\..\u8g2\u8g2\csrc/u8x8_d_st75256.c **** 
 870:..\..\..\u8g2\u8g2\csrc/u8x8_d_st75256.c ****   //U8X8_C( 0x031 ),				/* select 01 commands */
 871:..\..\..\u8g2\u8g2\csrc/u8x8_d_st75256.c ****   U8X8_C( 0x032 ),				/* analog circuit set */
 872:..\..\..\u8g2\u8g2\csrc/u8x8_d_st75256.c ****   U8X8_A( 0x000 ),				/* code example: OSC Frequency adjustment */
 873:..\..\..\u8g2\u8g2\csrc/u8x8_d_st75256.c ****   U8X8_A( 0x001 ),				/* Frequency on booster capacitors 1 = 6KHz? */
 874:..\..\..\u8g2\u8g2\csrc/u8x8_d_st75256.c ****   U8X8_A( 0x000 ),				/* Bias: 1: 1/13, 2: 1/12, 3: 1/11, 4:1/10, 5:1/9 */
 875:..\..\..\u8g2\u8g2\csrc/u8x8_d_st75256.c ****     
 876:..\..\..\u8g2\u8g2\csrc/u8x8_d_st75256.c ****   //U8X8_C( 0x031 ),				/* select 01 commands */
 877:..\..\..\u8g2\u8g2\csrc/u8x8_d_st75256.c ****   U8X8_C( 0x020 ),				/* gray levels */
 878:..\..\..\u8g2\u8g2\csrc/u8x8_d_st75256.c ****   U8X8_A( 0x01 ),
 879:..\..\..\u8g2\u8g2\csrc/u8x8_d_st75256.c ****   U8X8_A( 0x03 ),
 880:..\..\..\u8g2\u8g2\csrc/u8x8_d_st75256.c ****   U8X8_A( 0x05 ),
 881:..\..\..\u8g2\u8g2\csrc/u8x8_d_st75256.c ****   U8X8_A( 0x07 ),
 882:..\..\..\u8g2\u8g2\csrc/u8x8_d_st75256.c ****   U8X8_A( 0x09),
 883:..\..\..\u8g2\u8g2\csrc/u8x8_d_st75256.c ****   U8X8_A( 0x0b ),
 884:..\..\..\u8g2\u8g2\csrc/u8x8_d_st75256.c ****   U8X8_A( 0x0d ),
 885:..\..\..\u8g2\u8g2\csrc/u8x8_d_st75256.c ****   U8X8_A( 0x10 ),
 886:..\..\..\u8g2\u8g2\csrc/u8x8_d_st75256.c ****   U8X8_A( 0x11 ),
 887:..\..\..\u8g2\u8g2\csrc/u8x8_d_st75256.c ****   U8X8_A( 0x13 ),
 888:..\..\..\u8g2\u8g2\csrc/u8x8_d_st75256.c ****   U8X8_A( 0x15 ),
 889:..\..\..\u8g2\u8g2\csrc/u8x8_d_st75256.c ****   U8X8_A( 0x17 ),
 890:..\..\..\u8g2\u8g2\csrc/u8x8_d_st75256.c ****   U8X8_A( 0x19 ),
 891:..\..\..\u8g2\u8g2\csrc/u8x8_d_st75256.c ****   U8X8_A( 0x1b ),
 892:..\..\..\u8g2\u8g2\csrc/u8x8_d_st75256.c ****   U8X8_A( 0x1d ),
 893:..\..\..\u8g2\u8g2\csrc/u8x8_d_st75256.c ****   U8X8_A( 0x1f ),
 894:..\..\..\u8g2\u8g2\csrc/u8x8_d_st75256.c ****  
 895:..\..\..\u8g2\u8g2\csrc/u8x8_d_st75256.c ****   
 896:..\..\..\u8g2\u8g2\csrc/u8x8_d_st75256.c ****   U8X8_C( 0x030 ),				/* select 00 commands */
 897:..\..\..\u8g2\u8g2\csrc/u8x8_d_st75256.c ****   U8X8_CAA(0x75, 0, 0x4f),		/* row range */
 898:..\..\..\u8g2\u8g2\csrc/u8x8_d_st75256.c ****   U8X8_CAA(0x15, 0, 239),		/* col range */
 899:..\..\..\u8g2\u8g2\csrc/u8x8_d_st75256.c ****   
 900:..\..\..\u8g2\u8g2\csrc/u8x8_d_st75256.c ****   //U8X8_C( 0x030 ),				/* select 00 commands */
 901:..\..\..\u8g2\u8g2\csrc/u8x8_d_st75256.c ****   U8X8_CA( 0xbc, 0x02 ),			/* data scan dir */
 902:..\..\..\u8g2\u8g2\csrc/u8x8_d_st75256.c ****   U8X8_A( 0xa6 ),				/* ??? */
 903:..\..\..\u8g2\u8g2\csrc/u8x8_d_st75256.c **** 
 904:..\..\..\u8g2\u8g2\csrc/u8x8_d_st75256.c ****   //U8X8_C( 0x030 ),				/* select 00 commands */
 905:..\..\..\u8g2\u8g2\csrc/u8x8_d_st75256.c ****   U8X8_C( 0x00c ),				/* data format LSB top */
 906:..\..\..\u8g2\u8g2\csrc/u8x8_d_st75256.c **** 
 907:..\..\..\u8g2\u8g2\csrc/u8x8_d_st75256.c ****   //U8X8_C( 0x030 ),				/* select 00 commands */ 
 908:..\..\..\u8g2\u8g2\csrc/u8x8_d_st75256.c ****   U8X8_C( 0xca ),				/* display control, 3 args follow  */
 909:..\..\..\u8g2\u8g2\csrc/u8x8_d_st75256.c ****   U8X8_A( 0x00 ),				/* 0x00: no clock division, 0x04: devide clock */
 910:..\..\..\u8g2\u8g2\csrc/u8x8_d_st75256.c ****   U8X8_A( 159 ),				/* 1/160 duty value from the DS example code */
 911:..\..\..\u8g2\u8g2\csrc/u8x8_d_st75256.c ****   U8X8_A( 0x20 ),				/* nline off */ 
 912:..\..\..\u8g2\u8g2\csrc/u8x8_d_st75256.c **** 
 913:..\..\..\u8g2\u8g2\csrc/u8x8_d_st75256.c ****   //U8X8_C( 0x030 ),				/* select 00 commands */ 
 914:..\..\..\u8g2\u8g2\csrc/u8x8_d_st75256.c ****   U8X8_CA( 0x0f0, 0x010 ),		/* monochrome mode  = 0x010*/
 915:..\..\..\u8g2\u8g2\csrc/u8x8_d_st75256.c **** 
 916:..\..\..\u8g2\u8g2\csrc/u8x8_d_st75256.c ****   //U8X8_C( 0x030 ),				/* select 00 commands */
ARM GAS  C:\Users\jesse\AppData\Local\Temp\cc6zNusR.s 			page 31


 917:..\..\..\u8g2\u8g2\csrc/u8x8_d_st75256.c ****   U8X8_CAA( 0x81, 0x18, 0x04 ),	/* Volume control */
 918:..\..\..\u8g2\u8g2\csrc/u8x8_d_st75256.c **** 
 919:..\..\..\u8g2\u8g2\csrc/u8x8_d_st75256.c ****   //U8X8_C( 0x030 ),				/* select 00 commands */
 920:..\..\..\u8g2\u8g2\csrc/u8x8_d_st75256.c ****   U8X8_CA( 0x020, 0x00b ),		/* Power control: Regulator, follower & booster on */
 921:..\..\..\u8g2\u8g2\csrc/u8x8_d_st75256.c ****   U8X8_DLY(100),
 922:..\..\..\u8g2\u8g2\csrc/u8x8_d_st75256.c **** 
 923:..\..\..\u8g2\u8g2\csrc/u8x8_d_st75256.c ****   U8X8_END_TRANSFER(),             	/* disable chip */
 924:..\..\..\u8g2\u8g2\csrc/u8x8_d_st75256.c ****   U8X8_END()             			/* end of sequence */
 925:..\..\..\u8g2\u8g2\csrc/u8x8_d_st75256.c **** };
 926:..\..\..\u8g2\u8g2\csrc/u8x8_d_st75256.c **** 
 927:..\..\..\u8g2\u8g2\csrc/u8x8_d_st75256.c **** 
 928:..\..\..\u8g2\u8g2\csrc/u8x8_d_st75256.c **** uint8_t u8x8_d_st75256_jlx240160(u8x8_t *u8x8, uint8_t msg, uint8_t arg_int, void *arg_ptr)
 929:..\..\..\u8g2\u8g2\csrc/u8x8_d_st75256.c **** {
 759              		.loc 1 929 0
 760              		.cfi_startproc
 761              		@ args = 0, pretend = 0, frame = 0
 762              		@ frame_needed = 0, uses_anonymous_args = 0
 763              	.LVL105:
 930:..\..\..\u8g2\u8g2\csrc/u8x8_d_st75256.c ****   uint8_t x, c;
 931:..\..\..\u8g2\u8g2\csrc/u8x8_d_st75256.c ****   uint8_t *ptr;
 932:..\..\..\u8g2\u8g2\csrc/u8x8_d_st75256.c **** 
 933:..\..\..\u8g2\u8g2\csrc/u8x8_d_st75256.c ****   switch(msg)
 764              		.loc 1 933 0
 765 0000 0939     		subs	r1, r1, #9
 766              	.LVL106:
 929:..\..\..\u8g2\u8g2\csrc/u8x8_d_st75256.c ****   uint8_t x, c;
 767              		.loc 1 929 0
 768 0002 2DE9F041 		push	{r4, r5, r6, r7, r8, lr}
 769              		.cfi_def_cfa_offset 24
 770              		.cfi_offset 4, -24
 771              		.cfi_offset 5, -20
 772              		.cfi_offset 6, -16
 773              		.cfi_offset 7, -12
 774              		.cfi_offset 8, -8
 775              		.cfi_offset 14, -4
 929:..\..\..\u8g2\u8g2\csrc/u8x8_d_st75256.c ****   uint8_t x, c;
 776              		.loc 1 929 0
 777 0006 0446     		mov	r4, r0
 778 0008 1646     		mov	r6, r2
 779 000a 1F46     		mov	r7, r3
 780              		.loc 1 933 0
 781 000c 0629     		cmp	r1, #6
 782 000e 00F28480 		bhi	.L83
 783 0012 DFE801F0 		tbb	[pc, r1]
 784              	.LVL107:
 785              	.L71:
 786 0016 49       		.byte	(.L70-.L71)/2
 787 0017 4D       		.byte	(.L72-.L71)/2
 788 0018 51       		.byte	(.L73-.L71)/2
 789 0019 82       		.byte	(.L83-.L71)/2
 790 001a 59       		.byte	(.L74-.L71)/2
 791 001b 68       		.byte	(.L75-.L71)/2
 792 001c 04       		.byte	(.L76-.L71)/2
 793 001d 00       		.p2align 1
 794              	.L76:
 934:..\..\..\u8g2\u8g2\csrc/u8x8_d_st75256.c ****   {
 935:..\..\..\u8g2\u8g2\csrc/u8x8_d_st75256.c ****             case U8X8_MSG_DISPLAY_DRAW_TILE:
ARM GAS  C:\Users\jesse\AppData\Local\Temp\cc6zNusR.s 			page 32


 936:..\..\..\u8g2\u8g2\csrc/u8x8_d_st75256.c ****               
 937:..\..\..\u8g2\u8g2\csrc/u8x8_d_st75256.c ****               u8x8_cad_StartTransfer(u8x8);
 795              		.loc 1 937 0
 796 001e FFF7FEFF 		bl	u8x8_cad_StartTransfer
 797              	.LVL108:
 938:..\..\..\u8g2\u8g2\csrc/u8x8_d_st75256.c ****               x = ((u8x8_tile_t *)arg_ptr)->x_pos;    
 939:..\..\..\u8g2\u8g2\csrc/u8x8_d_st75256.c ****               x *= 8;
 940:..\..\..\u8g2\u8g2\csrc/u8x8_d_st75256.c ****               
 941:..\..\..\u8g2\u8g2\csrc/u8x8_d_st75256.c ****               u8x8_cad_SendCmd(u8x8, 0x030 );	/* select command set */
 798              		.loc 1 941 0
 799 0022 3021     		movs	r1, #48
 800 0024 2046     		mov	r0, r4
 938:..\..\..\u8g2\u8g2\csrc/u8x8_d_st75256.c ****               x = ((u8x8_tile_t *)arg_ptr)->x_pos;    
 801              		.loc 1 938 0
 802 0026 7D79     		ldrb	r5, [r7, #5]	@ zero_extendqisi2
 803              	.LVL109:
 804              		.loc 1 941 0
 805 0028 FFF7FEFF 		bl	u8x8_cad_SendCmd
 806              	.LVL110:
 942:..\..\..\u8g2\u8g2\csrc/u8x8_d_st75256.c ****               u8x8_cad_SendCmd(u8x8, 0x075 );	/* row */
 807              		.loc 1 942 0
 808 002c 7521     		movs	r1, #117
 809 002e 2046     		mov	r0, r4
 810 0030 FFF7FEFF 		bl	u8x8_cad_SendCmd
 811              	.LVL111:
 943:..\..\..\u8g2\u8g2\csrc/u8x8_d_st75256.c **** 	      if ( u8x8->x_offset == 0 )		/* 0 means flip mode 1 */
 812              		.loc 1 943 0
 813 0034 94F82230 		ldrb	r3, [r4, #34]	@ zero_extendqisi2
 939:..\..\..\u8g2\u8g2\csrc/u8x8_d_st75256.c ****               
 814              		.loc 1 939 0
 815 0038 ED00     		lsls	r5, r5, #3
 816              	.LVL112:
 817 003a 5FFA85F8 		uxtb	r8, r5
 818              	.LVL113:
 819 003e B979     		ldrb	r1, [r7, #6]	@ zero_extendqisi2
 820              		.loc 1 943 0
 821 0040 0BB9     		cbnz	r3, .L77
 944:..\..\..\u8g2\u8g2\csrc/u8x8_d_st75256.c **** 		u8x8_cad_SendArg(u8x8, 1+(((u8x8_tile_t *)arg_ptr)->y_pos));
 822              		.loc 1 944 0
 823 0042 0131     		adds	r1, r1, #1
 824 0044 C9B2     		uxtb	r1, r1
 825              	.L77:
 945:..\..\..\u8g2\u8g2\csrc/u8x8_d_st75256.c **** 	      else
 946:..\..\..\u8g2\u8g2\csrc/u8x8_d_st75256.c **** 		u8x8_cad_SendArg(u8x8, (((u8x8_tile_t *)arg_ptr)->y_pos));
 826              		.loc 1 946 0
 827 0046 2046     		mov	r0, r4
 828 0048 FFF7FEFF 		bl	u8x8_cad_SendArg
 829              	.LVL114:
 947:..\..\..\u8g2\u8g2\csrc/u8x8_d_st75256.c ****               u8x8_cad_SendArg(u8x8, 0x04f);
 830              		.loc 1 947 0
 831 004c 4F21     		movs	r1, #79
 832 004e 2046     		mov	r0, r4
 833 0050 FFF7FEFF 		bl	u8x8_cad_SendArg
 834              	.LVL115:
 948:..\..\..\u8g2\u8g2\csrc/u8x8_d_st75256.c ****               //u8x8_cad_SendArg(u8x8, (((u8x8_tile_t *)arg_ptr)->y_pos));
 949:..\..\..\u8g2\u8g2\csrc/u8x8_d_st75256.c ****               u8x8_cad_SendCmd(u8x8, 0x015 );	/* col */
 835              		.loc 1 949 0
ARM GAS  C:\Users\jesse\AppData\Local\Temp\cc6zNusR.s 			page 33


 836 0054 1521     		movs	r1, #21
 837 0056 2046     		mov	r0, r4
 838 0058 FFF7FEFF 		bl	u8x8_cad_SendCmd
 839              	.LVL116:
 950:..\..\..\u8g2\u8g2\csrc/u8x8_d_st75256.c ****               u8x8_cad_SendArg(u8x8, x+u8x8->x_offset);
 840              		.loc 1 950 0
 841 005c 94F82210 		ldrb	r1, [r4, #34]	@ zero_extendqisi2
 842 0060 2046     		mov	r0, r4
 843 0062 4144     		add	r1, r1, r8
 844 0064 C9B2     		uxtb	r1, r1
 845 0066 FFF7FEFF 		bl	u8x8_cad_SendArg
 846              	.LVL117:
 951:..\..\..\u8g2\u8g2\csrc/u8x8_d_st75256.c ****               u8x8_cad_SendArg(u8x8, 255);
 847              		.loc 1 951 0
 848 006a FF21     		movs	r1, #255
 849 006c 2046     		mov	r0, r4
 850 006e FFF7FEFF 		bl	u8x8_cad_SendArg
 851              	.LVL118:
 952:..\..\..\u8g2\u8g2\csrc/u8x8_d_st75256.c ****               u8x8_cad_SendCmd(u8x8, 0x05c );	
 852              		.loc 1 952 0
 853 0072 5C21     		movs	r1, #92
 854 0074 2046     		mov	r0, r4
 855 0076 FFF7FEFF 		bl	u8x8_cad_SendCmd
 856              	.LVL119:
 857              	.L80:
 953:..\..\..\u8g2\u8g2\csrc/u8x8_d_st75256.c ****             
 954:..\..\..\u8g2\u8g2\csrc/u8x8_d_st75256.c ****               
 955:..\..\..\u8g2\u8g2\csrc/u8x8_d_st75256.c ****               do
 956:..\..\..\u8g2\u8g2\csrc/u8x8_d_st75256.c ****               {
 957:..\..\..\u8g2\u8g2\csrc/u8x8_d_st75256.c ****                 c = ((u8x8_tile_t *)arg_ptr)->cnt;
 858              		.loc 1 957 0
 859 007a 3B79     		ldrb	r3, [r7, #4]	@ zero_extendqisi2
 860              	.LVL120:
 958:..\..\..\u8g2\u8g2\csrc/u8x8_d_st75256.c ****                 ptr = ((u8x8_tile_t *)arg_ptr)->tile_ptr;
 861              		.loc 1 958 0
 862 007c 3A68     		ldr	r2, [r7]
 863              	.LVL121:
 959:..\..\..\u8g2\u8g2\csrc/u8x8_d_st75256.c ****                 c *= 8;
 864              		.loc 1 959 0
 865 007e DB00     		lsls	r3, r3, #3
 866              	.LVL122:
 867 0080 DDB2     		uxtb	r5, r3
 868              	.LVL123:
 960:..\..\..\u8g2\u8g2\csrc/u8x8_d_st75256.c **** 
 961:..\..\..\u8g2\u8g2\csrc/u8x8_d_st75256.c ****                 if ( c + x > 240u )
 869              		.loc 1 961 0
 870 0082 05EB0803 		add	r3, r5, r8
 871 0086 F02B     		cmp	r3, #240
 872              	.LVL124:
 962:..\..\..\u8g2\u8g2\csrc/u8x8_d_st75256.c ****                 {
 963:..\..\..\u8g2\u8g2\csrc/u8x8_d_st75256.c ****                         c = 240u;
 964:..\..\..\u8g2\u8g2\csrc/u8x8_d_st75256.c ****                         c -= x;
 873              		.loc 1 964 0
 874 0088 C4BF     		itt	gt
 875 008a C8F1F003 		rsbgt	r3, r8, #240
 876 008e DDB2     		uxtbgt	r5, r3
 877              	.LVL125:
ARM GAS  C:\Users\jesse\AppData\Local\Temp\cc6zNusR.s 			page 34


 965:..\..\..\u8g2\u8g2\csrc/u8x8_d_st75256.c ****                 }
 966:..\..\..\u8g2\u8g2\csrc/u8x8_d_st75256.c ****                       
 967:..\..\..\u8g2\u8g2\csrc/u8x8_d_st75256.c ****                 u8x8_cad_SendData(u8x8, c, ptr); 	
 878              		.loc 1 967 0
 879 0090 2946     		mov	r1, r5
 880 0092 2046     		mov	r0, r4
 968:..\..\..\u8g2\u8g2\csrc/u8x8_d_st75256.c ****                 x += c;
 969:..\..\..\u8g2\u8g2\csrc/u8x8_d_st75256.c ****                 arg_int--;
 881              		.loc 1 969 0
 882 0094 013E     		subs	r6, r6, #1
 883              	.LVL126:
 967:..\..\..\u8g2\u8g2\csrc/u8x8_d_st75256.c ****                 x += c;
 884              		.loc 1 967 0
 885 0096 FFF7FEFF 		bl	u8x8_cad_SendData
 886              	.LVL127:
 968:..\..\..\u8g2\u8g2\csrc/u8x8_d_st75256.c ****                 x += c;
 887              		.loc 1 968 0
 888 009a 4544     		add	r5, r5, r8
 889              	.LVL128:
 970:..\..\..\u8g2\u8g2\csrc/u8x8_d_st75256.c ****               } while( arg_int > 0 );
 890              		.loc 1 970 0
 891 009c 16F0FF06 		ands	r6, r6, #255
 968:..\..\..\u8g2\u8g2\csrc/u8x8_d_st75256.c ****                 x += c;
 892              		.loc 1 968 0
 893 00a0 5FFA85F8 		uxtb	r8, r5
 894              	.LVL129:
 895              		.loc 1 970 0
 896 00a4 E9D1     		bne	.L80
 897 00a6 32E0     		b	.L86
 898              	.LVL130:
 899              	.L70:
 971:..\..\..\u8g2\u8g2\csrc/u8x8_d_st75256.c ****               
 972:..\..\..\u8g2\u8g2\csrc/u8x8_d_st75256.c ****               u8x8_cad_EndTransfer(u8x8);
 973:..\..\..\u8g2\u8g2\csrc/u8x8_d_st75256.c ****               return 1;
 974:..\..\..\u8g2\u8g2\csrc/u8x8_d_st75256.c ****         case U8X8_MSG_DISPLAY_SETUP_MEMORY:
 975:..\..\..\u8g2\u8g2\csrc/u8x8_d_st75256.c ****             //u8x8_SetI2CAddress(u8x8, 0x078);		/* lowest I2C adr of the ST75256 */
 976:..\..\..\u8g2\u8g2\csrc/u8x8_d_st75256.c **** 	    u8x8_d_helper_display_setup_memory(u8x8, &u8x8_st75256_240x160_display_info);
 900              		.loc 1 976 0
 901 00a8 1D49     		ldr	r1, .L89
 902 00aa FFF7FEFF 		bl	u8x8_d_helper_display_setup_memory
 903              	.LVL131:
 904 00ae 31E0     		b	.L85
 905              	.LVL132:
 906              	.L72:
 977:..\..\..\u8g2\u8g2\csrc/u8x8_d_st75256.c ****             return 1;
 978:..\..\..\u8g2\u8g2\csrc/u8x8_d_st75256.c ****         case U8X8_MSG_DISPLAY_INIT:
 979:..\..\..\u8g2\u8g2\csrc/u8x8_d_st75256.c **** 	    u8x8_d_helper_display_init(u8x8);
 907              		.loc 1 979 0
 908 00b0 FFF7FEFF 		bl	u8x8_d_helper_display_init
 909              	.LVL133:
 980:..\..\..\u8g2\u8g2\csrc/u8x8_d_st75256.c **** 	    u8x8_cad_SendSequence(u8x8, u8x8_d_st75256_240x160_init_seq);    
 910              		.loc 1 980 0
 911 00b4 1B49     		ldr	r1, .L89+4
 912 00b6 03E0     		b	.L87
 913              	.LVL134:
 914              	.L73:
 981:..\..\..\u8g2\u8g2\csrc/u8x8_d_st75256.c ****             return 1;
ARM GAS  C:\Users\jesse\AppData\Local\Temp\cc6zNusR.s 			page 35


 982:..\..\..\u8g2\u8g2\csrc/u8x8_d_st75256.c ****         case U8X8_MSG_DISPLAY_SET_POWER_SAVE:
 983:..\..\..\u8g2\u8g2\csrc/u8x8_d_st75256.c ****               if ( arg_int == 0 )
 915              		.loc 1 983 0
 916 00b8 0AB9     		cbnz	r2, .L81
 984:..\..\..\u8g2\u8g2\csrc/u8x8_d_st75256.c ****                 u8x8_cad_SendSequence(u8x8, u8x8_d_st75256_256x128_powersave0_seq);
 917              		.loc 1 984 0
 918 00ba 1B49     		ldr	r1, .L89+8
 919 00bc 00E0     		b	.L87
 920              	.L81:
 985:..\..\..\u8g2\u8g2\csrc/u8x8_d_st75256.c ****               else
 986:..\..\..\u8g2\u8g2\csrc/u8x8_d_st75256.c ****                 u8x8_cad_SendSequence(u8x8, u8x8_d_st75256_256x128_powersave1_seq);
 921              		.loc 1 986 0
 922 00be 1B49     		ldr	r1, .L89+12
 923              	.LVL135:
 924              	.L87:
 925 00c0 2046     		mov	r0, r4
 926 00c2 FFF7FEFF 		bl	u8x8_cad_SendSequence
 927              	.LVL136:
 928 00c6 25E0     		b	.L85
 929              	.LVL137:
 930              	.L74:
 987:..\..\..\u8g2\u8g2\csrc/u8x8_d_st75256.c **** 
 988:..\..\..\u8g2\u8g2\csrc/u8x8_d_st75256.c ****               return 1;
 989:..\..\..\u8g2\u8g2\csrc/u8x8_d_st75256.c **** 	case U8X8_MSG_DISPLAY_SET_FLIP_MODE:
 990:..\..\..\u8g2\u8g2\csrc/u8x8_d_st75256.c **** 	    if ( arg_int == 0 )
 931              		.loc 1 990 0
 932 00c8 2AB9     		cbnz	r2, .L82
 991:..\..\..\u8g2\u8g2\csrc/u8x8_d_st75256.c **** 	    {
 992:..\..\..\u8g2\u8g2\csrc/u8x8_d_st75256.c **** 	      u8x8_cad_SendSequence(u8x8, u8x8_d_st75256_jlx172104_flip0_seq);
 933              		.loc 1 992 0
 934 00ca 1949     		ldr	r1, .L89+16
 935 00cc FFF7FEFF 		bl	u8x8_cad_SendSequence
 936              	.LVL138:
 993:..\..\..\u8g2\u8g2\csrc/u8x8_d_st75256.c **** 	      u8x8->x_offset = u8x8->display_info->default_x_offset;
 937              		.loc 1 993 0
 938 00d0 2368     		ldr	r3, [r4]
 939 00d2 9B7C     		ldrb	r3, [r3, #18]	@ zero_extendqisi2
 940 00d4 04E0     		b	.L88
 941              	.LVL139:
 942              	.L82:
 994:..\..\..\u8g2\u8g2\csrc/u8x8_d_st75256.c **** 	    }
 995:..\..\..\u8g2\u8g2\csrc/u8x8_d_st75256.c **** 	    else
 996:..\..\..\u8g2\u8g2\csrc/u8x8_d_st75256.c **** 	    {
 997:..\..\..\u8g2\u8g2\csrc/u8x8_d_st75256.c **** 	      u8x8_cad_SendSequence(u8x8, u8x8_d_st75256_jlx172104_flip1_seq);
 943              		.loc 1 997 0
 944 00d6 1749     		ldr	r1, .L89+20
 945 00d8 FFF7FEFF 		bl	u8x8_cad_SendSequence
 946              	.LVL140:
 998:..\..\..\u8g2\u8g2\csrc/u8x8_d_st75256.c **** 	      u8x8->x_offset = u8x8->display_info->flipmode_x_offset;
 947              		.loc 1 998 0
 948 00dc 2368     		ldr	r3, [r4]
 949 00de DB7C     		ldrb	r3, [r3, #19]	@ zero_extendqisi2
 950              	.L88:
 951 00e0 84F82230 		strb	r3, [r4, #34]
 952 00e4 16E0     		b	.L85
 953              	.LVL141:
 954              	.L75:
ARM GAS  C:\Users\jesse\AppData\Local\Temp\cc6zNusR.s 			page 36


 999:..\..\..\u8g2\u8g2\csrc/u8x8_d_st75256.c **** 	    }
1000:..\..\..\u8g2\u8g2\csrc/u8x8_d_st75256.c **** 	    return 1;
1001:..\..\..\u8g2\u8g2\csrc/u8x8_d_st75256.c **** 		
1002:..\..\..\u8g2\u8g2\csrc/u8x8_d_st75256.c **** #ifdef U8X8_WITH_SET_CONTRAST
1003:..\..\..\u8g2\u8g2\csrc/u8x8_d_st75256.c ****         case U8X8_MSG_DISPLAY_SET_CONTRAST:
1004:..\..\..\u8g2\u8g2\csrc/u8x8_d_st75256.c **** 
1005:..\..\..\u8g2\u8g2\csrc/u8x8_d_st75256.c ****               u8x8_cad_StartTransfer(u8x8);
 955              		.loc 1 1005 0
 956 00e6 FFF7FEFF 		bl	u8x8_cad_StartTransfer
 957              	.LVL142:
1006:..\..\..\u8g2\u8g2\csrc/u8x8_d_st75256.c ****               
1007:..\..\..\u8g2\u8g2\csrc/u8x8_d_st75256.c ****               u8x8_cad_SendCmd(u8x8, 0x030 );
 958              		.loc 1 1007 0
 959 00ea 3021     		movs	r1, #48
 960 00ec 2046     		mov	r0, r4
 961 00ee FFF7FEFF 		bl	u8x8_cad_SendCmd
 962              	.LVL143:
1008:..\..\..\u8g2\u8g2\csrc/u8x8_d_st75256.c ****               u8x8_cad_SendCmd(u8x8, 0x081 );  /* there are 9 bit for the volume control */
 963              		.loc 1 1008 0
 964 00f2 8121     		movs	r1, #129
 965 00f4 2046     		mov	r0, r4
 966 00f6 FFF7FEFF 		bl	u8x8_cad_SendCmd
 967              	.LVL144:
1009:..\..\..\u8g2\u8g2\csrc/u8x8_d_st75256.c ****               u8x8_cad_SendArg(u8x8, (arg_int & 0x1f)<<1 );	/* lower 6 bit */
 968              		.loc 1 1009 0
 969 00fa 7100     		lsls	r1, r6, #1
 970 00fc 01F03E01 		and	r1, r1, #62
 971 0100 2046     		mov	r0, r4
 972 0102 FFF7FEFF 		bl	u8x8_cad_SendArg
 973              	.LVL145:
1010:..\..\..\u8g2\u8g2\csrc/u8x8_d_st75256.c ****               u8x8_cad_SendArg(u8x8, (arg_int>>5));		/* upper 3 bit */
 974              		.loc 1 1010 0
 975 0106 7109     		lsrs	r1, r6, #5
 976 0108 2046     		mov	r0, r4
 977 010a FFF7FEFF 		bl	u8x8_cad_SendArg
 978              	.LVL146:
 979              	.L86:
1011:..\..\..\u8g2\u8g2\csrc/u8x8_d_st75256.c ****               
1012:..\..\..\u8g2\u8g2\csrc/u8x8_d_st75256.c ****               u8x8_cad_EndTransfer(u8x8);
 980              		.loc 1 1012 0
 981 010e 2046     		mov	r0, r4
 982 0110 FFF7FEFF 		bl	u8x8_cad_EndTransfer
 983              	.LVL147:
 984              	.L85:
1013:..\..\..\u8g2\u8g2\csrc/u8x8_d_st75256.c ****               return 1;
 985              		.loc 1 1013 0
 986 0114 0120     		movs	r0, #1
 987 0116 BDE8F081 		pop	{r4, r5, r6, r7, r8, pc}
 988              	.LVL148:
 989              	.L83:
1014:..\..\..\u8g2\u8g2\csrc/u8x8_d_st75256.c **** #endif
1015:..\..\..\u8g2\u8g2\csrc/u8x8_d_st75256.c ****   }
1016:..\..\..\u8g2\u8g2\csrc/u8x8_d_st75256.c ****   return 0;
 990              		.loc 1 1016 0
 991 011a 0020     		movs	r0, #0
 992              	.LVL149:
1017:..\..\..\u8g2\u8g2\csrc/u8x8_d_st75256.c ****   
ARM GAS  C:\Users\jesse\AppData\Local\Temp\cc6zNusR.s 			page 37


1018:..\..\..\u8g2\u8g2\csrc/u8x8_d_st75256.c ****   
1019:..\..\..\u8g2\u8g2\csrc/u8x8_d_st75256.c ****   
1020:..\..\..\u8g2\u8g2\csrc/u8x8_d_st75256.c **** }
 993              		.loc 1 1020 0
 994 011c BDE8F081 		pop	{r4, r5, r6, r7, r8, pc}
 995              	.LVL150:
 996              	.L90:
 997              		.align	2
 998              	.L89:
 999 0120 54020000 		.word	.LANCHOR0+596
 1000 0124 6C020000 		.word	.LANCHOR0+620
 1001 0128 00000000 		.word	.LANCHOR0
 1002 012c 0B000000 		.word	.LANCHOR0+11
 1003 0130 3E010000 		.word	.LANCHOR0+318
 1004 0134 31010000 		.word	.LANCHOR0+305
 1005              		.cfi_endproc
 1006              	.LFE5:
 1007              		.size	u8x8_d_st75256_jlx240160, .-u8x8_d_st75256_jlx240160
 1008              		.section	.text.u8x8_d_st75256_jlx256160,"ax",%progbits
 1009              		.align	1
 1010              		.global	u8x8_d_st75256_jlx256160
 1011              		.thumb
 1012              		.thumb_func
 1013              		.type	u8x8_d_st75256_jlx256160, %function
 1014              	u8x8_d_st75256_jlx256160:
 1015              	.LFB6:
1021:..\..\..\u8g2\u8g2\csrc/u8x8_d_st75256.c **** 
1022:..\..\..\u8g2\u8g2\csrc/u8x8_d_st75256.c **** 
1023:..\..\..\u8g2\u8g2\csrc/u8x8_d_st75256.c **** /*=============================================*/
1024:..\..\..\u8g2\u8g2\csrc/u8x8_d_st75256.c **** /* JLX256160 */
1025:..\..\..\u8g2\u8g2\csrc/u8x8_d_st75256.c **** 
1026:..\..\..\u8g2\u8g2\csrc/u8x8_d_st75256.c **** static const u8x8_display_info_t u8x8_st75256_256x160_display_info =
1027:..\..\..\u8g2\u8g2\csrc/u8x8_d_st75256.c **** {
1028:..\..\..\u8g2\u8g2\csrc/u8x8_d_st75256.c ****   /* chip_enable_level = */ 0,
1029:..\..\..\u8g2\u8g2\csrc/u8x8_d_st75256.c ****   /* chip_disable_level = */ 1,
1030:..\..\..\u8g2\u8g2\csrc/u8x8_d_st75256.c ****   
1031:..\..\..\u8g2\u8g2\csrc/u8x8_d_st75256.c ****   /* post_chip_enable_wait_ns = */ 20,
1032:..\..\..\u8g2\u8g2\csrc/u8x8_d_st75256.c ****   /* pre_chip_disable_wait_ns = */ 20,
1033:..\..\..\u8g2\u8g2\csrc/u8x8_d_st75256.c ****   /* reset_pulse_width_ms = */ 5, 	
1034:..\..\..\u8g2\u8g2\csrc/u8x8_d_st75256.c ****   /* post_reset_wait_ms = */ 5, 		/**/
1035:..\..\..\u8g2\u8g2\csrc/u8x8_d_st75256.c ****   /* sda_setup_time_ns = */ 20,		/* */
1036:..\..\..\u8g2\u8g2\csrc/u8x8_d_st75256.c ****   /* sck_pulse_width_ns = */ 40,	/*  */
1037:..\..\..\u8g2\u8g2\csrc/u8x8_d_st75256.c ****   /* sck_clock_hz = */ 4000000UL,	/* since Arduino 1.6.0, the SPI bus speed in Hz. Should be  10000
1038:..\..\..\u8g2\u8g2\csrc/u8x8_d_st75256.c ****   /* spi_mode = */ 0,		/* active high, rising edge */
1039:..\..\..\u8g2\u8g2\csrc/u8x8_d_st75256.c ****   /* i2c_bus_clock_100kHz = */ 4,	/* 400KHz */
1040:..\..\..\u8g2\u8g2\csrc/u8x8_d_st75256.c ****   /* data_setup_time_ns = */ 15,
1041:..\..\..\u8g2\u8g2\csrc/u8x8_d_st75256.c ****   /* write_pulse_width_ns = */ 70,	
1042:..\..\..\u8g2\u8g2\csrc/u8x8_d_st75256.c ****   /* tile_width = */ 32,
1043:..\..\..\u8g2\u8g2\csrc/u8x8_d_st75256.c ****   /* tile_hight = */ 20,
1044:..\..\..\u8g2\u8g2\csrc/u8x8_d_st75256.c ****   /* default_x_offset = */ 0,
1045:..\..\..\u8g2\u8g2\csrc/u8x8_d_st75256.c ****   /* flipmode_x_offset = */ 1,	/* x offset is used as y offset in flipmode */
1046:..\..\..\u8g2\u8g2\csrc/u8x8_d_st75256.c ****   /* pixel_width = */ 256,
1047:..\..\..\u8g2\u8g2\csrc/u8x8_d_st75256.c ****   /* pixel_height = */ 160
1048:..\..\..\u8g2\u8g2\csrc/u8x8_d_st75256.c **** };
1049:..\..\..\u8g2\u8g2\csrc/u8x8_d_st75256.c **** 
1050:..\..\..\u8g2\u8g2\csrc/u8x8_d_st75256.c **** 
1051:..\..\..\u8g2\u8g2\csrc/u8x8_d_st75256.c **** static const uint8_t u8x8_d_st75256_256x160_init_seq[] = {
ARM GAS  C:\Users\jesse\AppData\Local\Temp\cc6zNusR.s 			page 38


1052:..\..\..\u8g2\u8g2\csrc/u8x8_d_st75256.c ****   U8X8_START_TRANSFER(),             	/* enable chip, delay is part of the transfer start */
1053:..\..\..\u8g2\u8g2\csrc/u8x8_d_st75256.c ****   
1054:..\..\..\u8g2\u8g2\csrc/u8x8_d_st75256.c ****   U8X8_DLY(20),
1055:..\..\..\u8g2\u8g2\csrc/u8x8_d_st75256.c **** 
1056:..\..\..\u8g2\u8g2\csrc/u8x8_d_st75256.c ****   U8X8_C( 0x030 ),				/* select 00 commands */
1057:..\..\..\u8g2\u8g2\csrc/u8x8_d_st75256.c ****   U8X8_C( 0x094 ),				/* sleep out */
1058:..\..\..\u8g2\u8g2\csrc/u8x8_d_st75256.c **** 
1059:..\..\..\u8g2\u8g2\csrc/u8x8_d_st75256.c ****   //U8X8_C( 0x030 ),				/* select 00 commands */
1060:..\..\..\u8g2\u8g2\csrc/u8x8_d_st75256.c ****   U8X8_C( 0x0ae ),				/* display off */
1061:..\..\..\u8g2\u8g2\csrc/u8x8_d_st75256.c **** 
1062:..\..\..\u8g2\u8g2\csrc/u8x8_d_st75256.c ****   U8X8_C( 0x031 ),				/* select 01 commands */
1063:..\..\..\u8g2\u8g2\csrc/u8x8_d_st75256.c ****   U8X8_CA( 0x0d7, 0x09f ),		/* disable auto read */  
1064:..\..\..\u8g2\u8g2\csrc/u8x8_d_st75256.c **** 
1065:..\..\..\u8g2\u8g2\csrc/u8x8_d_st75256.c ****   //U8X8_C( 0x031 ),				/* select 01 commands */
1066:..\..\..\u8g2\u8g2\csrc/u8x8_d_st75256.c ****   U8X8_C( 0x032 ),				/* analog circuit set */
1067:..\..\..\u8g2\u8g2\csrc/u8x8_d_st75256.c ****   U8X8_A( 0x000 ),				/* code example: OSC Frequency adjustment */
1068:..\..\..\u8g2\u8g2\csrc/u8x8_d_st75256.c ****   U8X8_A( 0x001 ),				/* Frequency on booster capacitors 1 = 6KHz? */
1069:..\..\..\u8g2\u8g2\csrc/u8x8_d_st75256.c ****   U8X8_A( 0x000 ),				/* Bias: 1: 1/13, 2: 1/12, 3: 1/11, 4:1/10, 5:1/9 */
1070:..\..\..\u8g2\u8g2\csrc/u8x8_d_st75256.c ****     
1071:..\..\..\u8g2\u8g2\csrc/u8x8_d_st75256.c ****   //U8X8_C( 0x031 ),				/* select 01 commands */
1072:..\..\..\u8g2\u8g2\csrc/u8x8_d_st75256.c ****   U8X8_C( 0x020 ),				/* gray levels */
1073:..\..\..\u8g2\u8g2\csrc/u8x8_d_st75256.c ****   U8X8_A( 0x01 ),
1074:..\..\..\u8g2\u8g2\csrc/u8x8_d_st75256.c ****   U8X8_A( 0x03 ),
1075:..\..\..\u8g2\u8g2\csrc/u8x8_d_st75256.c ****   U8X8_A( 0x05 ),
1076:..\..\..\u8g2\u8g2\csrc/u8x8_d_st75256.c ****   U8X8_A( 0x07 ),
1077:..\..\..\u8g2\u8g2\csrc/u8x8_d_st75256.c ****   U8X8_A( 0x09),
1078:..\..\..\u8g2\u8g2\csrc/u8x8_d_st75256.c ****   U8X8_A( 0x0b ),
1079:..\..\..\u8g2\u8g2\csrc/u8x8_d_st75256.c ****   U8X8_A( 0x0d ),
1080:..\..\..\u8g2\u8g2\csrc/u8x8_d_st75256.c ****   U8X8_A( 0x10 ),
1081:..\..\..\u8g2\u8g2\csrc/u8x8_d_st75256.c ****   U8X8_A( 0x11 ),
1082:..\..\..\u8g2\u8g2\csrc/u8x8_d_st75256.c ****   U8X8_A( 0x13 ),
1083:..\..\..\u8g2\u8g2\csrc/u8x8_d_st75256.c ****   U8X8_A( 0x15 ),
1084:..\..\..\u8g2\u8g2\csrc/u8x8_d_st75256.c ****   U8X8_A( 0x17 ),
1085:..\..\..\u8g2\u8g2\csrc/u8x8_d_st75256.c ****   U8X8_A( 0x19 ),
1086:..\..\..\u8g2\u8g2\csrc/u8x8_d_st75256.c ****   U8X8_A( 0x1b ),
1087:..\..\..\u8g2\u8g2\csrc/u8x8_d_st75256.c ****   U8X8_A( 0x1d ),
1088:..\..\..\u8g2\u8g2\csrc/u8x8_d_st75256.c ****   U8X8_A( 0x1f ),
1089:..\..\..\u8g2\u8g2\csrc/u8x8_d_st75256.c ****  
1090:..\..\..\u8g2\u8g2\csrc/u8x8_d_st75256.c ****   
1091:..\..\..\u8g2\u8g2\csrc/u8x8_d_st75256.c ****   U8X8_C( 0x030 ),				/* select 00 commands */
1092:..\..\..\u8g2\u8g2\csrc/u8x8_d_st75256.c ****   U8X8_CAA(0x75, 0, 0x28),		/* row range */
1093:..\..\..\u8g2\u8g2\csrc/u8x8_d_st75256.c ****   U8X8_CAA(0x15, 0, 0xFF),		/* col range */
1094:..\..\..\u8g2\u8g2\csrc/u8x8_d_st75256.c ****   
1095:..\..\..\u8g2\u8g2\csrc/u8x8_d_st75256.c ****   //U8X8_C( 0x030 ),				/* select 00 commands */
1096:..\..\..\u8g2\u8g2\csrc/u8x8_d_st75256.c ****   U8X8_CA( 0xbc, 0x00 ),			/* data scan dir */
1097:..\..\..\u8g2\u8g2\csrc/u8x8_d_st75256.c ****   U8X8_A( 0xa6 ),				/* ??? */
1098:..\..\..\u8g2\u8g2\csrc/u8x8_d_st75256.c **** 
1099:..\..\..\u8g2\u8g2\csrc/u8x8_d_st75256.c ****   //U8X8_C( 0x030 ),				/* select 00 commands */
1100:..\..\..\u8g2\u8g2\csrc/u8x8_d_st75256.c ****   U8X8_C( 0x00c ),				/* data format LSB top */
1101:..\..\..\u8g2\u8g2\csrc/u8x8_d_st75256.c **** 
1102:..\..\..\u8g2\u8g2\csrc/u8x8_d_st75256.c ****   //U8X8_C( 0x030 ),				/* select 00 commands */ 
1103:..\..\..\u8g2\u8g2\csrc/u8x8_d_st75256.c ****   U8X8_C( 0xca ),				/* display control, 3 args follow  */
1104:..\..\..\u8g2\u8g2\csrc/u8x8_d_st75256.c ****   U8X8_A( 0x00 ),				/* 0x00: no clock division, 0x04: devide clock */
1105:..\..\..\u8g2\u8g2\csrc/u8x8_d_st75256.c ****   U8X8_A( 159 ),				/* 1/160 duty value from the DS example code */
1106:..\..\..\u8g2\u8g2\csrc/u8x8_d_st75256.c ****   U8X8_A( 0x20 ),				/* nline off */ 
1107:..\..\..\u8g2\u8g2\csrc/u8x8_d_st75256.c **** 
1108:..\..\..\u8g2\u8g2\csrc/u8x8_d_st75256.c ****   //U8X8_C( 0x030 ),				/* select 00 commands */ 
ARM GAS  C:\Users\jesse\AppData\Local\Temp\cc6zNusR.s 			page 39


1109:..\..\..\u8g2\u8g2\csrc/u8x8_d_st75256.c ****   U8X8_CA( 0x0f0, 0x010 ),		/* monochrome mode  = 0x010*/
1110:..\..\..\u8g2\u8g2\csrc/u8x8_d_st75256.c **** 
1111:..\..\..\u8g2\u8g2\csrc/u8x8_d_st75256.c ****   //U8X8_C( 0x030 ),				/* select 00 commands */
1112:..\..\..\u8g2\u8g2\csrc/u8x8_d_st75256.c ****   U8X8_CAA( 0x81, 0x18, 0x05 ),	/* Volume control */
1113:..\..\..\u8g2\u8g2\csrc/u8x8_d_st75256.c **** 
1114:..\..\..\u8g2\u8g2\csrc/u8x8_d_st75256.c ****   //U8X8_C( 0x030 ),				/* select 00 commands */
1115:..\..\..\u8g2\u8g2\csrc/u8x8_d_st75256.c ****   U8X8_CA( 0x020, 0x00b ),		/* Power control: Regulator, follower & booster on */
1116:..\..\..\u8g2\u8g2\csrc/u8x8_d_st75256.c ****   U8X8_DLY(100),
1117:..\..\..\u8g2\u8g2\csrc/u8x8_d_st75256.c **** 
1118:..\..\..\u8g2\u8g2\csrc/u8x8_d_st75256.c ****   U8X8_END_TRANSFER(),             	/* disable chip */
1119:..\..\..\u8g2\u8g2\csrc/u8x8_d_st75256.c ****   U8X8_END()             			/* end of sequence */
1120:..\..\..\u8g2\u8g2\csrc/u8x8_d_st75256.c **** };
1121:..\..\..\u8g2\u8g2\csrc/u8x8_d_st75256.c **** 
1122:..\..\..\u8g2\u8g2\csrc/u8x8_d_st75256.c **** 
1123:..\..\..\u8g2\u8g2\csrc/u8x8_d_st75256.c **** uint8_t u8x8_d_st75256_jlx256160(u8x8_t *u8x8, uint8_t msg, uint8_t arg_int, void *arg_ptr)
1124:..\..\..\u8g2\u8g2\csrc/u8x8_d_st75256.c **** {
 1016              		.loc 1 1124 0
 1017              		.cfi_startproc
 1018              		@ args = 0, pretend = 0, frame = 0
 1019              		@ frame_needed = 0, uses_anonymous_args = 0
 1020              	.LVL151:
1125:..\..\..\u8g2\u8g2\csrc/u8x8_d_st75256.c ****   uint8_t x, c;
1126:..\..\..\u8g2\u8g2\csrc/u8x8_d_st75256.c ****   uint8_t *ptr;
1127:..\..\..\u8g2\u8g2\csrc/u8x8_d_st75256.c **** 
1128:..\..\..\u8g2\u8g2\csrc/u8x8_d_st75256.c ****   switch(msg)
 1021              		.loc 1 1128 0
 1022 0000 0939     		subs	r1, r1, #9
 1023              	.LVL152:
1124:..\..\..\u8g2\u8g2\csrc/u8x8_d_st75256.c ****   uint8_t x, c;
 1024              		.loc 1 1124 0
 1025 0002 2DE9F041 		push	{r4, r5, r6, r7, r8, lr}
 1026              		.cfi_def_cfa_offset 24
 1027              		.cfi_offset 4, -24
 1028              		.cfi_offset 5, -20
 1029              		.cfi_offset 6, -16
 1030              		.cfi_offset 7, -12
 1031              		.cfi_offset 8, -8
 1032              		.cfi_offset 14, -4
1124:..\..\..\u8g2\u8g2\csrc/u8x8_d_st75256.c ****   uint8_t x, c;
 1033              		.loc 1 1124 0
 1034 0006 0446     		mov	r4, r0
 1035 0008 1546     		mov	r5, r2
 1036 000a 9846     		mov	r8, r3
 1037              		.loc 1 1128 0
 1038 000c 0629     		cmp	r1, #6
 1039 000e 00F28980 		bhi	.L106
 1040 0012 DFE801F0 		tbb	[pc, r1]
 1041              	.LVL153:
 1042              	.L94:
 1043 0016 4E       		.byte	(.L93-.L94)/2
 1044 0017 52       		.byte	(.L95-.L94)/2
 1045 0018 56       		.byte	(.L96-.L94)/2
 1046 0019 87       		.byte	(.L106-.L94)/2
 1047 001a 5E       		.byte	(.L97-.L94)/2
 1048 001b 6D       		.byte	(.L98-.L94)/2
 1049 001c 04       		.byte	(.L99-.L94)/2
 1050 001d 00       		.p2align 1
ARM GAS  C:\Users\jesse\AppData\Local\Temp\cc6zNusR.s 			page 40


 1051              	.L99:
1129:..\..\..\u8g2\u8g2\csrc/u8x8_d_st75256.c ****   {
1130:..\..\..\u8g2\u8g2\csrc/u8x8_d_st75256.c ****             case U8X8_MSG_DISPLAY_DRAW_TILE:
1131:..\..\..\u8g2\u8g2\csrc/u8x8_d_st75256.c ****               
1132:..\..\..\u8g2\u8g2\csrc/u8x8_d_st75256.c ****               u8x8_cad_StartTransfer(u8x8);
 1052              		.loc 1 1132 0
 1053 001e FFF7FEFF 		bl	u8x8_cad_StartTransfer
 1054              	.LVL154:
1133:..\..\..\u8g2\u8g2\csrc/u8x8_d_st75256.c ****               x = ((u8x8_tile_t *)arg_ptr)->x_pos;    
1134:..\..\..\u8g2\u8g2\csrc/u8x8_d_st75256.c ****               x *= 8;
1135:..\..\..\u8g2\u8g2\csrc/u8x8_d_st75256.c ****               
1136:..\..\..\u8g2\u8g2\csrc/u8x8_d_st75256.c ****               u8x8_cad_SendCmd(u8x8, 0x030 );	/* select command set */
 1055              		.loc 1 1136 0
 1056 0022 3021     		movs	r1, #48
 1057 0024 2046     		mov	r0, r4
1133:..\..\..\u8g2\u8g2\csrc/u8x8_d_st75256.c ****               x = ((u8x8_tile_t *)arg_ptr)->x_pos;    
 1058              		.loc 1 1133 0
 1059 0026 98F80560 		ldrb	r6, [r8, #5]	@ zero_extendqisi2
 1060              	.LVL155:
 1061              		.loc 1 1136 0
 1062 002a FFF7FEFF 		bl	u8x8_cad_SendCmd
 1063              	.LVL156:
1137:..\..\..\u8g2\u8g2\csrc/u8x8_d_st75256.c ****               u8x8_cad_SendCmd(u8x8, 0x075 );	/* row */
 1064              		.loc 1 1137 0
 1065 002e 7521     		movs	r1, #117
 1066 0030 2046     		mov	r0, r4
 1067 0032 FFF7FEFF 		bl	u8x8_cad_SendCmd
 1068              	.LVL157:
1138:..\..\..\u8g2\u8g2\csrc/u8x8_d_st75256.c **** 	      if ( u8x8->x_offset == 1 )		/* 1 means flip mode 1 */
 1069              		.loc 1 1138 0
 1070 0036 94F82230 		ldrb	r3, [r4, #34]	@ zero_extendqisi2
 1071 003a 98F80610 		ldrb	r1, [r8, #6]	@ zero_extendqisi2
 1072 003e 012B     		cmp	r3, #1
1139:..\..\..\u8g2\u8g2\csrc/u8x8_d_st75256.c **** 		u8x8_cad_SendArg(u8x8, 1+(((u8x8_tile_t *)arg_ptr)->y_pos));
 1073              		.loc 1 1139 0
 1074 0040 04BF     		itt	eq
 1075 0042 0131     		addeq	r1, r1, #1
 1076 0044 C9B2     		uxtbeq	r1, r1
1140:..\..\..\u8g2\u8g2\csrc/u8x8_d_st75256.c **** 	      else
1141:..\..\..\u8g2\u8g2\csrc/u8x8_d_st75256.c **** 		u8x8_cad_SendArg(u8x8, (((u8x8_tile_t *)arg_ptr)->y_pos));
 1077              		.loc 1 1141 0
 1078 0046 2046     		mov	r0, r4
 1079 0048 FFF7FEFF 		bl	u8x8_cad_SendArg
 1080              	.LVL158:
1142:..\..\..\u8g2\u8g2\csrc/u8x8_d_st75256.c ****               u8x8_cad_SendArg(u8x8, 0x04f);
 1081              		.loc 1 1142 0
 1082 004c 4F21     		movs	r1, #79
 1083 004e 2046     		mov	r0, r4
 1084 0050 FFF7FEFF 		bl	u8x8_cad_SendArg
 1085              	.LVL159:
1143:..\..\..\u8g2\u8g2\csrc/u8x8_d_st75256.c ****               //u8x8_cad_SendArg(u8x8, (((u8x8_tile_t *)arg_ptr)->y_pos));
1144:..\..\..\u8g2\u8g2\csrc/u8x8_d_st75256.c ****               u8x8_cad_SendCmd(u8x8, 0x015 );	/* col */
 1086              		.loc 1 1144 0
 1087 0054 1521     		movs	r1, #21
 1088 0056 2046     		mov	r0, r4
 1089 0058 FFF7FEFF 		bl	u8x8_cad_SendCmd
 1090              	.LVL160:
ARM GAS  C:\Users\jesse\AppData\Local\Temp\cc6zNusR.s 			page 41


1145:..\..\..\u8g2\u8g2\csrc/u8x8_d_st75256.c ****               u8x8_cad_SendArg(u8x8, x+u8x8->display_info->default_x_offset);
 1091              		.loc 1 1145 0
 1092 005c 2368     		ldr	r3, [r4]
1134:..\..\..\u8g2\u8g2\csrc/u8x8_d_st75256.c ****               
 1093              		.loc 1 1134 0
 1094 005e F600     		lsls	r6, r6, #3
 1095              	.LVL161:
 1096              		.loc 1 1145 0
 1097 0060 997C     		ldrb	r1, [r3, #18]	@ zero_extendqisi2
1134:..\..\..\u8g2\u8g2\csrc/u8x8_d_st75256.c ****               
 1098              		.loc 1 1134 0
 1099 0062 F6B2     		uxtb	r6, r6
 1100              	.LVL162:
 1101              		.loc 1 1145 0
 1102 0064 3144     		add	r1, r1, r6
 1103 0066 C9B2     		uxtb	r1, r1
 1104 0068 2046     		mov	r0, r4
 1105 006a FFF7FEFF 		bl	u8x8_cad_SendArg
 1106              	.LVL163:
1146:..\..\..\u8g2\u8g2\csrc/u8x8_d_st75256.c ****               u8x8_cad_SendArg(u8x8, 255);
 1107              		.loc 1 1146 0
 1108 006e FF21     		movs	r1, #255
 1109 0070 2046     		mov	r0, r4
 1110 0072 FFF7FEFF 		bl	u8x8_cad_SendArg
 1111              	.LVL164:
1147:..\..\..\u8g2\u8g2\csrc/u8x8_d_st75256.c ****               u8x8_cad_SendCmd(u8x8, 0x05c );	
 1112              		.loc 1 1147 0
 1113 0076 5C21     		movs	r1, #92
 1114 0078 2046     		mov	r0, r4
 1115 007a FFF7FEFF 		bl	u8x8_cad_SendCmd
 1116              	.LVL165:
 1117              	.L103:
1148:..\..\..\u8g2\u8g2\csrc/u8x8_d_st75256.c ****             
1149:..\..\..\u8g2\u8g2\csrc/u8x8_d_st75256.c ****               
1150:..\..\..\u8g2\u8g2\csrc/u8x8_d_st75256.c ****               do
1151:..\..\..\u8g2\u8g2\csrc/u8x8_d_st75256.c ****               {
1152:..\..\..\u8g2\u8g2\csrc/u8x8_d_st75256.c ****                 c = ((u8x8_tile_t *)arg_ptr)->cnt;
 1118              		.loc 1 1152 0
 1119 007e 98F80460 		ldrb	r6, [r8, #4]	@ zero_extendqisi2
 1120              	.LVL166:
1153:..\..\..\u8g2\u8g2\csrc/u8x8_d_st75256.c ****                 ptr = ((u8x8_tile_t *)arg_ptr)->tile_ptr;
 1121              		.loc 1 1153 0
 1122 0082 D8F80070 		ldr	r7, [r8]
 1123              	.LVL167:
1154:..\..\..\u8g2\u8g2\csrc/u8x8_d_st75256.c **** 		/* SendData can not handle more than 255 bytes, treat c > 31 correctly  */
1155:..\..\..\u8g2\u8g2\csrc/u8x8_d_st75256.c **** 		if ( c > 31 )
 1124              		.loc 1 1155 0
 1125 0086 1F2E     		cmp	r6, #31
 1126 0088 07D9     		bls	.L102
1156:..\..\..\u8g2\u8g2\csrc/u8x8_d_st75256.c **** 		{
1157:..\..\..\u8g2\u8g2\csrc/u8x8_d_st75256.c **** 		  u8x8_cad_SendData(u8x8, 248, ptr); 	/* 31*8=248 */
 1127              		.loc 1 1157 0
 1128 008a 3A46     		mov	r2, r7
 1129 008c F821     		movs	r1, #248
 1130 008e 2046     		mov	r0, r4
 1131 0090 FFF7FEFF 		bl	u8x8_cad_SendData
 1132              	.LVL168:
ARM GAS  C:\Users\jesse\AppData\Local\Temp\cc6zNusR.s 			page 42


1158:..\..\..\u8g2\u8g2\csrc/u8x8_d_st75256.c **** 		  ptr+=248;
1159:..\..\..\u8g2\u8g2\csrc/u8x8_d_st75256.c **** 		  c -= 31;
 1133              		.loc 1 1159 0
 1134 0094 1F3E     		subs	r6, r6, #31
 1135              	.LVL169:
1158:..\..\..\u8g2\u8g2\csrc/u8x8_d_st75256.c **** 		  ptr+=248;
 1136              		.loc 1 1158 0
 1137 0096 F837     		adds	r7, r7, #248
 1138              	.LVL170:
 1139              		.loc 1 1159 0
 1140 0098 F6B2     		uxtb	r6, r6
 1141              	.LVL171:
 1142              	.L102:
1160:..\..\..\u8g2\u8g2\csrc/u8x8_d_st75256.c **** 		}
1161:..\..\..\u8g2\u8g2\csrc/u8x8_d_st75256.c **** 		
1162:..\..\..\u8g2\u8g2\csrc/u8x8_d_st75256.c **** 		u8x8_cad_SendData(u8x8, c*8, ptr); 	
 1143              		.loc 1 1162 0
 1144 009a F100     		lsls	r1, r6, #3
 1145 009c 3A46     		mov	r2, r7
 1146 009e 01F0F801 		and	r1, r1, #248
 1147 00a2 2046     		mov	r0, r4
1163:..\..\..\u8g2\u8g2\csrc/u8x8_d_st75256.c ****                 arg_int--;
 1148              		.loc 1 1163 0
 1149 00a4 013D     		subs	r5, r5, #1
 1150              	.LVL172:
1162:..\..\..\u8g2\u8g2\csrc/u8x8_d_st75256.c ****                 arg_int--;
 1151              		.loc 1 1162 0
 1152 00a6 FFF7FEFF 		bl	u8x8_cad_SendData
 1153              	.LVL173:
1164:..\..\..\u8g2\u8g2\csrc/u8x8_d_st75256.c ****               } while( arg_int > 0 );
 1154              		.loc 1 1164 0
 1155 00aa 15F0FF05 		ands	r5, r5, #255
 1156              	.LVL174:
 1157 00ae E6D1     		bne	.L103
 1158 00b0 32E0     		b	.L109
 1159              	.LVL175:
 1160              	.L93:
1165:..\..\..\u8g2\u8g2\csrc/u8x8_d_st75256.c ****               
1166:..\..\..\u8g2\u8g2\csrc/u8x8_d_st75256.c ****               u8x8_cad_EndTransfer(u8x8);
1167:..\..\..\u8g2\u8g2\csrc/u8x8_d_st75256.c ****               return 1;
1168:..\..\..\u8g2\u8g2\csrc/u8x8_d_st75256.c ****         case U8X8_MSG_DISPLAY_SETUP_MEMORY:
1169:..\..\..\u8g2\u8g2\csrc/u8x8_d_st75256.c ****             //u8x8_SetI2CAddress(u8x8, 0x078);		/* lowest I2C adr of the ST75256 */
1170:..\..\..\u8g2\u8g2\csrc/u8x8_d_st75256.c **** 	    u8x8_d_helper_display_setup_memory(u8x8, &u8x8_st75256_256x160_display_info);
 1161              		.loc 1 1170 0
 1162 00b2 1E49     		ldr	r1, .L112
 1163 00b4 FFF7FEFF 		bl	u8x8_d_helper_display_setup_memory
 1164              	.LVL176:
 1165 00b8 31E0     		b	.L108
 1166              	.LVL177:
 1167              	.L95:
1171:..\..\..\u8g2\u8g2\csrc/u8x8_d_st75256.c ****             return 1;
1172:..\..\..\u8g2\u8g2\csrc/u8x8_d_st75256.c ****         case U8X8_MSG_DISPLAY_INIT:
1173:..\..\..\u8g2\u8g2\csrc/u8x8_d_st75256.c **** 	    u8x8_d_helper_display_init(u8x8);
 1168              		.loc 1 1173 0
 1169 00ba FFF7FEFF 		bl	u8x8_d_helper_display_init
 1170              	.LVL178:
1174:..\..\..\u8g2\u8g2\csrc/u8x8_d_st75256.c **** 	    u8x8_cad_SendSequence(u8x8, u8x8_d_st75256_256x160_init_seq);    
ARM GAS  C:\Users\jesse\AppData\Local\Temp\cc6zNusR.s 			page 43


 1171              		.loc 1 1174 0
 1172 00be 1C49     		ldr	r1, .L112+4
 1173 00c0 03E0     		b	.L110
 1174              	.LVL179:
 1175              	.L96:
1175:..\..\..\u8g2\u8g2\csrc/u8x8_d_st75256.c ****             return 1;
1176:..\..\..\u8g2\u8g2\csrc/u8x8_d_st75256.c ****         case U8X8_MSG_DISPLAY_SET_POWER_SAVE:
1177:..\..\..\u8g2\u8g2\csrc/u8x8_d_st75256.c ****               if ( arg_int == 0 )
 1176              		.loc 1 1177 0
 1177 00c2 0AB9     		cbnz	r2, .L104
1178:..\..\..\u8g2\u8g2\csrc/u8x8_d_st75256.c ****                 u8x8_cad_SendSequence(u8x8, u8x8_d_st75256_256x128_powersave0_seq);
 1178              		.loc 1 1178 0
 1179 00c4 1B49     		ldr	r1, .L112+8
 1180 00c6 00E0     		b	.L110
 1181              	.L104:
1179:..\..\..\u8g2\u8g2\csrc/u8x8_d_st75256.c ****               else
1180:..\..\..\u8g2\u8g2\csrc/u8x8_d_st75256.c ****                 u8x8_cad_SendSequence(u8x8, u8x8_d_st75256_256x128_powersave1_seq);
 1182              		.loc 1 1180 0
 1183 00c8 1B49     		ldr	r1, .L112+12
 1184              	.LVL180:
 1185              	.L110:
 1186 00ca 2046     		mov	r0, r4
 1187 00cc FFF7FEFF 		bl	u8x8_cad_SendSequence
 1188              	.LVL181:
 1189 00d0 25E0     		b	.L108
 1190              	.LVL182:
 1191              	.L97:
1181:..\..\..\u8g2\u8g2\csrc/u8x8_d_st75256.c **** 
1182:..\..\..\u8g2\u8g2\csrc/u8x8_d_st75256.c ****               return 1;
1183:..\..\..\u8g2\u8g2\csrc/u8x8_d_st75256.c **** 	case U8X8_MSG_DISPLAY_SET_FLIP_MODE:
1184:..\..\..\u8g2\u8g2\csrc/u8x8_d_st75256.c **** 	    if ( arg_int == 0 )
 1192              		.loc 1 1184 0
 1193 00d2 2AB9     		cbnz	r2, .L105
1185:..\..\..\u8g2\u8g2\csrc/u8x8_d_st75256.c **** 	    {
1186:..\..\..\u8g2\u8g2\csrc/u8x8_d_st75256.c **** 	      u8x8_cad_SendSequence(u8x8, u8x8_d_st75256_jlx256160_flip0_seq);
 1194              		.loc 1 1186 0
 1195 00d4 1949     		ldr	r1, .L112+16
 1196 00d6 FFF7FEFF 		bl	u8x8_cad_SendSequence
 1197              	.LVL183:
1187:..\..\..\u8g2\u8g2\csrc/u8x8_d_st75256.c **** 	      u8x8->x_offset = u8x8->display_info->default_x_offset;
 1198              		.loc 1 1187 0
 1199 00da 2368     		ldr	r3, [r4]
 1200 00dc 9B7C     		ldrb	r3, [r3, #18]	@ zero_extendqisi2
 1201 00de 04E0     		b	.L111
 1202              	.LVL184:
 1203              	.L105:
1188:..\..\..\u8g2\u8g2\csrc/u8x8_d_st75256.c **** 	    }
1189:..\..\..\u8g2\u8g2\csrc/u8x8_d_st75256.c **** 	    else
1190:..\..\..\u8g2\u8g2\csrc/u8x8_d_st75256.c **** 	    {
1191:..\..\..\u8g2\u8g2\csrc/u8x8_d_st75256.c **** 	      u8x8_cad_SendSequence(u8x8, u8x8_d_st75256_jlx256160_flip1_seq);
 1204              		.loc 1 1191 0
 1205 00e0 1749     		ldr	r1, .L112+20
 1206 00e2 FFF7FEFF 		bl	u8x8_cad_SendSequence
 1207              	.LVL185:
1192:..\..\..\u8g2\u8g2\csrc/u8x8_d_st75256.c **** 	      u8x8->x_offset = u8x8->display_info->flipmode_x_offset;
 1208              		.loc 1 1192 0
 1209 00e6 2368     		ldr	r3, [r4]
ARM GAS  C:\Users\jesse\AppData\Local\Temp\cc6zNusR.s 			page 44


 1210 00e8 DB7C     		ldrb	r3, [r3, #19]	@ zero_extendqisi2
 1211              	.L111:
 1212 00ea 84F82230 		strb	r3, [r4, #34]
 1213 00ee 16E0     		b	.L108
 1214              	.LVL186:
 1215              	.L98:
1193:..\..\..\u8g2\u8g2\csrc/u8x8_d_st75256.c **** 	    }
1194:..\..\..\u8g2\u8g2\csrc/u8x8_d_st75256.c **** 	    return 1;
1195:..\..\..\u8g2\u8g2\csrc/u8x8_d_st75256.c **** 		
1196:..\..\..\u8g2\u8g2\csrc/u8x8_d_st75256.c **** #ifdef U8X8_WITH_SET_CONTRAST
1197:..\..\..\u8g2\u8g2\csrc/u8x8_d_st75256.c ****         case U8X8_MSG_DISPLAY_SET_CONTRAST:
1198:..\..\..\u8g2\u8g2\csrc/u8x8_d_st75256.c **** 
1199:..\..\..\u8g2\u8g2\csrc/u8x8_d_st75256.c ****               u8x8_cad_StartTransfer(u8x8);
 1216              		.loc 1 1199 0
 1217 00f0 FFF7FEFF 		bl	u8x8_cad_StartTransfer
 1218              	.LVL187:
1200:..\..\..\u8g2\u8g2\csrc/u8x8_d_st75256.c ****               
1201:..\..\..\u8g2\u8g2\csrc/u8x8_d_st75256.c ****               u8x8_cad_SendCmd(u8x8, 0x030 );
 1219              		.loc 1 1201 0
 1220 00f4 3021     		movs	r1, #48
 1221 00f6 2046     		mov	r0, r4
 1222 00f8 FFF7FEFF 		bl	u8x8_cad_SendCmd
 1223              	.LVL188:
1202:..\..\..\u8g2\u8g2\csrc/u8x8_d_st75256.c ****               u8x8_cad_SendCmd(u8x8, 0x081 );  /* there are 9 bit for the volume control */
 1224              		.loc 1 1202 0
 1225 00fc 8121     		movs	r1, #129
 1226 00fe 2046     		mov	r0, r4
 1227 0100 FFF7FEFF 		bl	u8x8_cad_SendCmd
 1228              	.LVL189:
1203:..\..\..\u8g2\u8g2\csrc/u8x8_d_st75256.c ****               u8x8_cad_SendArg(u8x8, (arg_int & 0x1f)<<1 );	/* lower 6 bit */
 1229              		.loc 1 1203 0
 1230 0104 6900     		lsls	r1, r5, #1
 1231 0106 01F03E01 		and	r1, r1, #62
 1232 010a 2046     		mov	r0, r4
 1233 010c FFF7FEFF 		bl	u8x8_cad_SendArg
 1234              	.LVL190:
1204:..\..\..\u8g2\u8g2\csrc/u8x8_d_st75256.c ****               u8x8_cad_SendArg(u8x8, (arg_int>>5));		/* upper 3 bit */
 1235              		.loc 1 1204 0
 1236 0110 6909     		lsrs	r1, r5, #5
 1237 0112 2046     		mov	r0, r4
 1238 0114 FFF7FEFF 		bl	u8x8_cad_SendArg
 1239              	.LVL191:
 1240              	.L109:
1205:..\..\..\u8g2\u8g2\csrc/u8x8_d_st75256.c ****               
1206:..\..\..\u8g2\u8g2\csrc/u8x8_d_st75256.c ****               u8x8_cad_EndTransfer(u8x8);
 1241              		.loc 1 1206 0
 1242 0118 2046     		mov	r0, r4
 1243 011a FFF7FEFF 		bl	u8x8_cad_EndTransfer
 1244              	.LVL192:
 1245              	.L108:
1207:..\..\..\u8g2\u8g2\csrc/u8x8_d_st75256.c ****               return 1;
 1246              		.loc 1 1207 0
 1247 011e 0120     		movs	r0, #1
 1248 0120 BDE8F081 		pop	{r4, r5, r6, r7, r8, pc}
 1249              	.LVL193:
 1250              	.L106:
1208:..\..\..\u8g2\u8g2\csrc/u8x8_d_st75256.c **** #endif
ARM GAS  C:\Users\jesse\AppData\Local\Temp\cc6zNusR.s 			page 45


1209:..\..\..\u8g2\u8g2\csrc/u8x8_d_st75256.c ****   }
1210:..\..\..\u8g2\u8g2\csrc/u8x8_d_st75256.c ****   return 0;
 1251              		.loc 1 1210 0
 1252 0124 0020     		movs	r0, #0
 1253              	.LVL194:
1211:..\..\..\u8g2\u8g2\csrc/u8x8_d_st75256.c **** }
 1254              		.loc 1 1211 0
 1255 0126 BDE8F081 		pop	{r4, r5, r6, r7, r8, pc}
 1256              	.LVL195:
 1257              	.L113:
 1258 012a 00BF     		.align	2
 1259              	.L112:
 1260 012c D8020000 		.word	.LANCHOR0+728
 1261 0130 F0020000 		.word	.LANCHOR0+752
 1262 0134 00000000 		.word	.LANCHOR0
 1263 0138 0B000000 		.word	.LANCHOR0+11
 1264 013c 59030000 		.word	.LANCHOR0+857
 1265 0140 66030000 		.word	.LANCHOR0+870
 1266              		.cfi_endproc
 1267              	.LFE6:
 1268              		.size	u8x8_d_st75256_jlx256160, .-u8x8_d_st75256_jlx256160
 1269              		.section	.text.u8x8_d_st75256_jlx256160m,"ax",%progbits
 1270              		.align	1
 1271              		.global	u8x8_d_st75256_jlx256160m
 1272              		.thumb
 1273              		.thumb_func
 1274              		.type	u8x8_d_st75256_jlx256160m, %function
 1275              	u8x8_d_st75256_jlx256160m:
 1276              	.LFB7:
1212:..\..\..\u8g2\u8g2\csrc/u8x8_d_st75256.c **** 
1213:..\..\..\u8g2\u8g2\csrc/u8x8_d_st75256.c **** 
1214:..\..\..\u8g2\u8g2\csrc/u8x8_d_st75256.c **** /*=============================================*/
1215:..\..\..\u8g2\u8g2\csrc/u8x8_d_st75256.c **** /* JLX256160 mirror version #930 */
1216:..\..\..\u8g2\u8g2\csrc/u8x8_d_st75256.c **** 
1217:..\..\..\u8g2\u8g2\csrc/u8x8_d_st75256.c **** 
1218:..\..\..\u8g2\u8g2\csrc/u8x8_d_st75256.c **** static const uint8_t u8x8_d_st75256_256x160m_init_seq[] = {
1219:..\..\..\u8g2\u8g2\csrc/u8x8_d_st75256.c ****   U8X8_START_TRANSFER(),             	/* enable chip, delay is part of the transfer start */
1220:..\..\..\u8g2\u8g2\csrc/u8x8_d_st75256.c ****   
1221:..\..\..\u8g2\u8g2\csrc/u8x8_d_st75256.c ****   U8X8_DLY(20),
1222:..\..\..\u8g2\u8g2\csrc/u8x8_d_st75256.c **** 
1223:..\..\..\u8g2\u8g2\csrc/u8x8_d_st75256.c ****   U8X8_C( 0x030 ),				/* select 00 commands */
1224:..\..\..\u8g2\u8g2\csrc/u8x8_d_st75256.c ****   U8X8_C( 0x094 ),				/* sleep out */
1225:..\..\..\u8g2\u8g2\csrc/u8x8_d_st75256.c **** 
1226:..\..\..\u8g2\u8g2\csrc/u8x8_d_st75256.c ****   //U8X8_C( 0x030 ),				/* select 00 commands */
1227:..\..\..\u8g2\u8g2\csrc/u8x8_d_st75256.c ****   U8X8_C( 0x0ae ),				/* display off */
1228:..\..\..\u8g2\u8g2\csrc/u8x8_d_st75256.c **** 
1229:..\..\..\u8g2\u8g2\csrc/u8x8_d_st75256.c ****   U8X8_C( 0x031 ),				/* select 01 commands */
1230:..\..\..\u8g2\u8g2\csrc/u8x8_d_st75256.c ****   U8X8_CA( 0x0d7, 0x09f ),		/* disable auto read */  
1231:..\..\..\u8g2\u8g2\csrc/u8x8_d_st75256.c **** 
1232:..\..\..\u8g2\u8g2\csrc/u8x8_d_st75256.c ****   //U8X8_C( 0x031 ),				/* select 01 commands */
1233:..\..\..\u8g2\u8g2\csrc/u8x8_d_st75256.c ****   U8X8_C( 0x032 ),				/* analog circuit set */
1234:..\..\..\u8g2\u8g2\csrc/u8x8_d_st75256.c ****   U8X8_A( 0x000 ),				/* code example: OSC Frequency adjustment */
1235:..\..\..\u8g2\u8g2\csrc/u8x8_d_st75256.c ****   U8X8_A( 0x001 ),				/* Frequency on booster capacitors 1 = 6KHz? */
1236:..\..\..\u8g2\u8g2\csrc/u8x8_d_st75256.c ****   U8X8_A( 0x000 ),				/* Bias: 1: 1/13, 2: 1/12, 3: 1/11, 4:1/10, 5:1/9 */
1237:..\..\..\u8g2\u8g2\csrc/u8x8_d_st75256.c ****     
1238:..\..\..\u8g2\u8g2\csrc/u8x8_d_st75256.c ****   //U8X8_C( 0x031 ),				/* select 01 commands */
1239:..\..\..\u8g2\u8g2\csrc/u8x8_d_st75256.c ****   U8X8_C( 0x020 ),				/* gray levels */
ARM GAS  C:\Users\jesse\AppData\Local\Temp\cc6zNusR.s 			page 46


1240:..\..\..\u8g2\u8g2\csrc/u8x8_d_st75256.c ****   U8X8_A( 0x01 ),
1241:..\..\..\u8g2\u8g2\csrc/u8x8_d_st75256.c ****   U8X8_A( 0x03 ),
1242:..\..\..\u8g2\u8g2\csrc/u8x8_d_st75256.c ****   U8X8_A( 0x05 ),
1243:..\..\..\u8g2\u8g2\csrc/u8x8_d_st75256.c ****   U8X8_A( 0x07 ),
1244:..\..\..\u8g2\u8g2\csrc/u8x8_d_st75256.c ****   U8X8_A( 0x09),
1245:..\..\..\u8g2\u8g2\csrc/u8x8_d_st75256.c ****   U8X8_A( 0x0b ),
1246:..\..\..\u8g2\u8g2\csrc/u8x8_d_st75256.c ****   U8X8_A( 0x0d ),
1247:..\..\..\u8g2\u8g2\csrc/u8x8_d_st75256.c ****   U8X8_A( 0x10 ),
1248:..\..\..\u8g2\u8g2\csrc/u8x8_d_st75256.c ****   U8X8_A( 0x11 ),
1249:..\..\..\u8g2\u8g2\csrc/u8x8_d_st75256.c ****   U8X8_A( 0x13 ),
1250:..\..\..\u8g2\u8g2\csrc/u8x8_d_st75256.c ****   U8X8_A( 0x15 ),
1251:..\..\..\u8g2\u8g2\csrc/u8x8_d_st75256.c ****   U8X8_A( 0x17 ),
1252:..\..\..\u8g2\u8g2\csrc/u8x8_d_st75256.c ****   U8X8_A( 0x19 ),
1253:..\..\..\u8g2\u8g2\csrc/u8x8_d_st75256.c ****   U8X8_A( 0x1b ),
1254:..\..\..\u8g2\u8g2\csrc/u8x8_d_st75256.c ****   U8X8_A( 0x1d ),
1255:..\..\..\u8g2\u8g2\csrc/u8x8_d_st75256.c ****   U8X8_A( 0x1f ),
1256:..\..\..\u8g2\u8g2\csrc/u8x8_d_st75256.c ****  
1257:..\..\..\u8g2\u8g2\csrc/u8x8_d_st75256.c ****   
1258:..\..\..\u8g2\u8g2\csrc/u8x8_d_st75256.c ****   U8X8_C( 0x030 ),				/* select 00 commands */
1259:..\..\..\u8g2\u8g2\csrc/u8x8_d_st75256.c ****   U8X8_CAA(0x75, 0, 0x28),		/* row range */
1260:..\..\..\u8g2\u8g2\csrc/u8x8_d_st75256.c ****   U8X8_CAA(0x15, 0, 0xFF),		/* col range */
1261:..\..\..\u8g2\u8g2\csrc/u8x8_d_st75256.c ****   
1262:..\..\..\u8g2\u8g2\csrc/u8x8_d_st75256.c ****   //U8X8_C( 0x030 ),				/* select 00 commands */
1263:..\..\..\u8g2\u8g2\csrc/u8x8_d_st75256.c ****   U8X8_CA( 0xbc, 0x02 ),			/* data scan dir  ( CHANGED FOR MIRROR VERSION ) */
1264:..\..\..\u8g2\u8g2\csrc/u8x8_d_st75256.c ****   U8X8_A( 0xa6 ),				/* ??? */
1265:..\..\..\u8g2\u8g2\csrc/u8x8_d_st75256.c **** 
1266:..\..\..\u8g2\u8g2\csrc/u8x8_d_st75256.c ****   //U8X8_C( 0x030 ),				/* select 00 commands */
1267:..\..\..\u8g2\u8g2\csrc/u8x8_d_st75256.c ****   U8X8_C( 0x00c ),				/* data format LSB top */
1268:..\..\..\u8g2\u8g2\csrc/u8x8_d_st75256.c **** 
1269:..\..\..\u8g2\u8g2\csrc/u8x8_d_st75256.c ****   //U8X8_C( 0x030 ),				/* select 00 commands */ 
1270:..\..\..\u8g2\u8g2\csrc/u8x8_d_st75256.c ****   U8X8_C( 0xca ),				/* display control, 3 args follow  */
1271:..\..\..\u8g2\u8g2\csrc/u8x8_d_st75256.c ****   U8X8_A( 0x00 ),				/* 0x00: no clock division, 0x04: devide clock */
1272:..\..\..\u8g2\u8g2\csrc/u8x8_d_st75256.c ****   U8X8_A( 159 ),				/* 1/160 duty value from the DS example code */
1273:..\..\..\u8g2\u8g2\csrc/u8x8_d_st75256.c ****   U8X8_A( 0x20 ),				/* nline off */ 
1274:..\..\..\u8g2\u8g2\csrc/u8x8_d_st75256.c **** 
1275:..\..\..\u8g2\u8g2\csrc/u8x8_d_st75256.c ****   //U8X8_C( 0x030 ),				/* select 00 commands */ 
1276:..\..\..\u8g2\u8g2\csrc/u8x8_d_st75256.c ****   U8X8_CA( 0x0f0, 0x010 ),		/* monochrome mode  = 0x010*/
1277:..\..\..\u8g2\u8g2\csrc/u8x8_d_st75256.c **** 
1278:..\..\..\u8g2\u8g2\csrc/u8x8_d_st75256.c ****   //U8X8_C( 0x030 ),				/* select 00 commands */
1279:..\..\..\u8g2\u8g2\csrc/u8x8_d_st75256.c ****   U8X8_CAA( 0x81, 0x18, 0x05 ),	/* Volume control */
1280:..\..\..\u8g2\u8g2\csrc/u8x8_d_st75256.c **** 
1281:..\..\..\u8g2\u8g2\csrc/u8x8_d_st75256.c ****   //U8X8_C( 0x030 ),				/* select 00 commands */
1282:..\..\..\u8g2\u8g2\csrc/u8x8_d_st75256.c ****   U8X8_CA( 0x020, 0x00b ),		/* Power control: Regulator, follower & booster on */
1283:..\..\..\u8g2\u8g2\csrc/u8x8_d_st75256.c ****   U8X8_DLY(100),
1284:..\..\..\u8g2\u8g2\csrc/u8x8_d_st75256.c **** 
1285:..\..\..\u8g2\u8g2\csrc/u8x8_d_st75256.c ****   U8X8_END_TRANSFER(),             	/* disable chip */
1286:..\..\..\u8g2\u8g2\csrc/u8x8_d_st75256.c ****   U8X8_END()             			/* end of sequence */
1287:..\..\..\u8g2\u8g2\csrc/u8x8_d_st75256.c **** };
1288:..\..\..\u8g2\u8g2\csrc/u8x8_d_st75256.c **** 
1289:..\..\..\u8g2\u8g2\csrc/u8x8_d_st75256.c **** uint8_t u8x8_d_st75256_jlx256160m(u8x8_t *u8x8, uint8_t msg, uint8_t arg_int, void *arg_ptr)
1290:..\..\..\u8g2\u8g2\csrc/u8x8_d_st75256.c **** {
 1277              		.loc 1 1290 0
 1278              		.cfi_startproc
 1279              		@ args = 0, pretend = 0, frame = 0
 1280              		@ frame_needed = 0, uses_anonymous_args = 0
 1281              	.LVL196:
1291:..\..\..\u8g2\u8g2\csrc/u8x8_d_st75256.c ****   uint8_t x, c;
ARM GAS  C:\Users\jesse\AppData\Local\Temp\cc6zNusR.s 			page 47


1292:..\..\..\u8g2\u8g2\csrc/u8x8_d_st75256.c ****   uint8_t *ptr;
1293:..\..\..\u8g2\u8g2\csrc/u8x8_d_st75256.c **** 
1294:..\..\..\u8g2\u8g2\csrc/u8x8_d_st75256.c ****   switch(msg)
 1282              		.loc 1 1294 0
 1283 0000 0939     		subs	r1, r1, #9
 1284              	.LVL197:
1290:..\..\..\u8g2\u8g2\csrc/u8x8_d_st75256.c ****   uint8_t x, c;
 1285              		.loc 1 1290 0
 1286 0002 2DE9F041 		push	{r4, r5, r6, r7, r8, lr}
 1287              		.cfi_def_cfa_offset 24
 1288              		.cfi_offset 4, -24
 1289              		.cfi_offset 5, -20
 1290              		.cfi_offset 6, -16
 1291              		.cfi_offset 7, -12
 1292              		.cfi_offset 8, -8
 1293              		.cfi_offset 14, -4
1290:..\..\..\u8g2\u8g2\csrc/u8x8_d_st75256.c ****   uint8_t x, c;
 1294              		.loc 1 1290 0
 1295 0006 0446     		mov	r4, r0
 1296 0008 1546     		mov	r5, r2
 1297 000a 9846     		mov	r8, r3
 1298              		.loc 1 1294 0
 1299 000c 0629     		cmp	r1, #6
 1300 000e 00F28980 		bhi	.L129
 1301 0012 DFE801F0 		tbb	[pc, r1]
 1302              	.LVL198:
 1303              	.L117:
 1304 0016 4E       		.byte	(.L116-.L117)/2
 1305 0017 52       		.byte	(.L118-.L117)/2
 1306 0018 56       		.byte	(.L119-.L117)/2
 1307 0019 87       		.byte	(.L129-.L117)/2
 1308 001a 5E       		.byte	(.L120-.L117)/2
 1309 001b 6D       		.byte	(.L121-.L117)/2
 1310 001c 04       		.byte	(.L122-.L117)/2
 1311 001d 00       		.p2align 1
 1312              	.L122:
1295:..\..\..\u8g2\u8g2\csrc/u8x8_d_st75256.c ****   {
1296:..\..\..\u8g2\u8g2\csrc/u8x8_d_st75256.c ****             case U8X8_MSG_DISPLAY_DRAW_TILE:
1297:..\..\..\u8g2\u8g2\csrc/u8x8_d_st75256.c ****               
1298:..\..\..\u8g2\u8g2\csrc/u8x8_d_st75256.c ****               u8x8_cad_StartTransfer(u8x8);
 1313              		.loc 1 1298 0
 1314 001e FFF7FEFF 		bl	u8x8_cad_StartTransfer
 1315              	.LVL199:
1299:..\..\..\u8g2\u8g2\csrc/u8x8_d_st75256.c ****               x = ((u8x8_tile_t *)arg_ptr)->x_pos;    
1300:..\..\..\u8g2\u8g2\csrc/u8x8_d_st75256.c ****               x *= 8;
1301:..\..\..\u8g2\u8g2\csrc/u8x8_d_st75256.c ****               
1302:..\..\..\u8g2\u8g2\csrc/u8x8_d_st75256.c ****               u8x8_cad_SendCmd(u8x8, 0x030 );	/* select command set */
 1316              		.loc 1 1302 0
 1317 0022 3021     		movs	r1, #48
 1318 0024 2046     		mov	r0, r4
1299:..\..\..\u8g2\u8g2\csrc/u8x8_d_st75256.c ****               x = ((u8x8_tile_t *)arg_ptr)->x_pos;    
 1319              		.loc 1 1299 0
 1320 0026 98F80560 		ldrb	r6, [r8, #5]	@ zero_extendqisi2
 1321              	.LVL200:
 1322              		.loc 1 1302 0
 1323 002a FFF7FEFF 		bl	u8x8_cad_SendCmd
 1324              	.LVL201:
ARM GAS  C:\Users\jesse\AppData\Local\Temp\cc6zNusR.s 			page 48


1303:..\..\..\u8g2\u8g2\csrc/u8x8_d_st75256.c ****               u8x8_cad_SendCmd(u8x8, 0x075 );	/* row */
 1325              		.loc 1 1303 0
 1326 002e 7521     		movs	r1, #117
 1327 0030 2046     		mov	r0, r4
 1328 0032 FFF7FEFF 		bl	u8x8_cad_SendCmd
 1329              	.LVL202:
1304:..\..\..\u8g2\u8g2\csrc/u8x8_d_st75256.c **** 	      if ( u8x8->x_offset == 1 )		/* 1 means flip mode 1 */
 1330              		.loc 1 1304 0
 1331 0036 94F82230 		ldrb	r3, [r4, #34]	@ zero_extendqisi2
 1332 003a 98F80610 		ldrb	r1, [r8, #6]	@ zero_extendqisi2
 1333 003e 012B     		cmp	r3, #1
1305:..\..\..\u8g2\u8g2\csrc/u8x8_d_st75256.c **** 		u8x8_cad_SendArg(u8x8, 1+(((u8x8_tile_t *)arg_ptr)->y_pos));
 1334              		.loc 1 1305 0
 1335 0040 04BF     		itt	eq
 1336 0042 0131     		addeq	r1, r1, #1
 1337 0044 C9B2     		uxtbeq	r1, r1
1306:..\..\..\u8g2\u8g2\csrc/u8x8_d_st75256.c **** 	      else
1307:..\..\..\u8g2\u8g2\csrc/u8x8_d_st75256.c **** 		u8x8_cad_SendArg(u8x8, (((u8x8_tile_t *)arg_ptr)->y_pos));
 1338              		.loc 1 1307 0
 1339 0046 2046     		mov	r0, r4
 1340 0048 FFF7FEFF 		bl	u8x8_cad_SendArg
 1341              	.LVL203:
1308:..\..\..\u8g2\u8g2\csrc/u8x8_d_st75256.c ****               u8x8_cad_SendArg(u8x8, 0x04f);
 1342              		.loc 1 1308 0
 1343 004c 4F21     		movs	r1, #79
 1344 004e 2046     		mov	r0, r4
 1345 0050 FFF7FEFF 		bl	u8x8_cad_SendArg
 1346              	.LVL204:
1309:..\..\..\u8g2\u8g2\csrc/u8x8_d_st75256.c ****               //u8x8_cad_SendArg(u8x8, (((u8x8_tile_t *)arg_ptr)->y_pos));
1310:..\..\..\u8g2\u8g2\csrc/u8x8_d_st75256.c ****               u8x8_cad_SendCmd(u8x8, 0x015 );	/* col */
 1347              		.loc 1 1310 0
 1348 0054 1521     		movs	r1, #21
 1349 0056 2046     		mov	r0, r4
 1350 0058 FFF7FEFF 		bl	u8x8_cad_SendCmd
 1351              	.LVL205:
1311:..\..\..\u8g2\u8g2\csrc/u8x8_d_st75256.c ****               u8x8_cad_SendArg(u8x8, x+u8x8->display_info->default_x_offset);
 1352              		.loc 1 1311 0
 1353 005c 2368     		ldr	r3, [r4]
1300:..\..\..\u8g2\u8g2\csrc/u8x8_d_st75256.c ****               
 1354              		.loc 1 1300 0
 1355 005e F600     		lsls	r6, r6, #3
 1356              	.LVL206:
 1357              		.loc 1 1311 0
 1358 0060 997C     		ldrb	r1, [r3, #18]	@ zero_extendqisi2
1300:..\..\..\u8g2\u8g2\csrc/u8x8_d_st75256.c ****               
 1359              		.loc 1 1300 0
 1360 0062 F6B2     		uxtb	r6, r6
 1361              	.LVL207:
 1362              		.loc 1 1311 0
 1363 0064 3144     		add	r1, r1, r6
 1364 0066 C9B2     		uxtb	r1, r1
 1365 0068 2046     		mov	r0, r4
 1366 006a FFF7FEFF 		bl	u8x8_cad_SendArg
 1367              	.LVL208:
1312:..\..\..\u8g2\u8g2\csrc/u8x8_d_st75256.c ****               u8x8_cad_SendArg(u8x8, 255);
 1368              		.loc 1 1312 0
 1369 006e FF21     		movs	r1, #255
ARM GAS  C:\Users\jesse\AppData\Local\Temp\cc6zNusR.s 			page 49


 1370 0070 2046     		mov	r0, r4
 1371 0072 FFF7FEFF 		bl	u8x8_cad_SendArg
 1372              	.LVL209:
1313:..\..\..\u8g2\u8g2\csrc/u8x8_d_st75256.c ****               u8x8_cad_SendCmd(u8x8, 0x05c );	
 1373              		.loc 1 1313 0
 1374 0076 5C21     		movs	r1, #92
 1375 0078 2046     		mov	r0, r4
 1376 007a FFF7FEFF 		bl	u8x8_cad_SendCmd
 1377              	.LVL210:
 1378              	.L126:
1314:..\..\..\u8g2\u8g2\csrc/u8x8_d_st75256.c ****             
1315:..\..\..\u8g2\u8g2\csrc/u8x8_d_st75256.c ****               
1316:..\..\..\u8g2\u8g2\csrc/u8x8_d_st75256.c ****               do
1317:..\..\..\u8g2\u8g2\csrc/u8x8_d_st75256.c ****               {
1318:..\..\..\u8g2\u8g2\csrc/u8x8_d_st75256.c ****                 c = ((u8x8_tile_t *)arg_ptr)->cnt;
 1379              		.loc 1 1318 0
 1380 007e 98F80460 		ldrb	r6, [r8, #4]	@ zero_extendqisi2
 1381              	.LVL211:
1319:..\..\..\u8g2\u8g2\csrc/u8x8_d_st75256.c ****                 ptr = ((u8x8_tile_t *)arg_ptr)->tile_ptr;
 1382              		.loc 1 1319 0
 1383 0082 D8F80070 		ldr	r7, [r8]
 1384              	.LVL212:
1320:..\..\..\u8g2\u8g2\csrc/u8x8_d_st75256.c **** 		/* SendData can not handle more than 255 bytes, treat c > 31 correctly  */
1321:..\..\..\u8g2\u8g2\csrc/u8x8_d_st75256.c **** 		if ( c > 31 )
 1385              		.loc 1 1321 0
 1386 0086 1F2E     		cmp	r6, #31
 1387 0088 07D9     		bls	.L125
1322:..\..\..\u8g2\u8g2\csrc/u8x8_d_st75256.c **** 		{
1323:..\..\..\u8g2\u8g2\csrc/u8x8_d_st75256.c **** 		  u8x8_cad_SendData(u8x8, 248, ptr); 	/* 31*8=248 */
 1388              		.loc 1 1323 0
 1389 008a 3A46     		mov	r2, r7
 1390 008c F821     		movs	r1, #248
 1391 008e 2046     		mov	r0, r4
 1392 0090 FFF7FEFF 		bl	u8x8_cad_SendData
 1393              	.LVL213:
1324:..\..\..\u8g2\u8g2\csrc/u8x8_d_st75256.c **** 		  ptr+=248;
1325:..\..\..\u8g2\u8g2\csrc/u8x8_d_st75256.c **** 		  c -= 31;
 1394              		.loc 1 1325 0
 1395 0094 1F3E     		subs	r6, r6, #31
 1396              	.LVL214:
1324:..\..\..\u8g2\u8g2\csrc/u8x8_d_st75256.c **** 		  ptr+=248;
 1397              		.loc 1 1324 0
 1398 0096 F837     		adds	r7, r7, #248
 1399              	.LVL215:
 1400              		.loc 1 1325 0
 1401 0098 F6B2     		uxtb	r6, r6
 1402              	.LVL216:
 1403              	.L125:
1326:..\..\..\u8g2\u8g2\csrc/u8x8_d_st75256.c **** 		}
1327:..\..\..\u8g2\u8g2\csrc/u8x8_d_st75256.c **** 		
1328:..\..\..\u8g2\u8g2\csrc/u8x8_d_st75256.c **** 		u8x8_cad_SendData(u8x8, c*8, ptr); 	
 1404              		.loc 1 1328 0
 1405 009a F100     		lsls	r1, r6, #3
 1406 009c 3A46     		mov	r2, r7
 1407 009e 01F0F801 		and	r1, r1, #248
 1408 00a2 2046     		mov	r0, r4
1329:..\..\..\u8g2\u8g2\csrc/u8x8_d_st75256.c ****                 arg_int--;
ARM GAS  C:\Users\jesse\AppData\Local\Temp\cc6zNusR.s 			page 50


 1409              		.loc 1 1329 0
 1410 00a4 013D     		subs	r5, r5, #1
 1411              	.LVL217:
1328:..\..\..\u8g2\u8g2\csrc/u8x8_d_st75256.c ****                 arg_int--;
 1412              		.loc 1 1328 0
 1413 00a6 FFF7FEFF 		bl	u8x8_cad_SendData
 1414              	.LVL218:
1330:..\..\..\u8g2\u8g2\csrc/u8x8_d_st75256.c ****               } while( arg_int > 0 );
 1415              		.loc 1 1330 0
 1416 00aa 15F0FF05 		ands	r5, r5, #255
 1417              	.LVL219:
 1418 00ae E6D1     		bne	.L126
 1419 00b0 32E0     		b	.L132
 1420              	.LVL220:
 1421              	.L116:
1331:..\..\..\u8g2\u8g2\csrc/u8x8_d_st75256.c ****               
1332:..\..\..\u8g2\u8g2\csrc/u8x8_d_st75256.c ****               u8x8_cad_EndTransfer(u8x8);
1333:..\..\..\u8g2\u8g2\csrc/u8x8_d_st75256.c ****               return 1;
1334:..\..\..\u8g2\u8g2\csrc/u8x8_d_st75256.c ****         case U8X8_MSG_DISPLAY_SETUP_MEMORY:
1335:..\..\..\u8g2\u8g2\csrc/u8x8_d_st75256.c ****             //u8x8_SetI2CAddress(u8x8, 0x078);		/* lowest I2C adr of the ST75256 */
1336:..\..\..\u8g2\u8g2\csrc/u8x8_d_st75256.c **** 	    u8x8_d_helper_display_setup_memory(u8x8, &u8x8_st75256_256x160_display_info);
 1422              		.loc 1 1336 0
 1423 00b2 1E49     		ldr	r1, .L135
 1424 00b4 FFF7FEFF 		bl	u8x8_d_helper_display_setup_memory
 1425              	.LVL221:
 1426 00b8 31E0     		b	.L131
 1427              	.LVL222:
 1428              	.L118:
1337:..\..\..\u8g2\u8g2\csrc/u8x8_d_st75256.c ****             return 1;
1338:..\..\..\u8g2\u8g2\csrc/u8x8_d_st75256.c ****         case U8X8_MSG_DISPLAY_INIT:
1339:..\..\..\u8g2\u8g2\csrc/u8x8_d_st75256.c **** 	    u8x8_d_helper_display_init(u8x8);
 1429              		.loc 1 1339 0
 1430 00ba FFF7FEFF 		bl	u8x8_d_helper_display_init
 1431              	.LVL223:
1340:..\..\..\u8g2\u8g2\csrc/u8x8_d_st75256.c **** 	    u8x8_cad_SendSequence(u8x8, u8x8_d_st75256_256x160m_init_seq);    
 1432              		.loc 1 1340 0
 1433 00be 1C49     		ldr	r1, .L135+4
 1434 00c0 03E0     		b	.L133
 1435              	.LVL224:
 1436              	.L119:
1341:..\..\..\u8g2\u8g2\csrc/u8x8_d_st75256.c ****             return 1;
1342:..\..\..\u8g2\u8g2\csrc/u8x8_d_st75256.c ****         case U8X8_MSG_DISPLAY_SET_POWER_SAVE:
1343:..\..\..\u8g2\u8g2\csrc/u8x8_d_st75256.c ****               if ( arg_int == 0 )
 1437              		.loc 1 1343 0
 1438 00c2 0AB9     		cbnz	r2, .L127
1344:..\..\..\u8g2\u8g2\csrc/u8x8_d_st75256.c ****                 u8x8_cad_SendSequence(u8x8, u8x8_d_st75256_256x128_powersave0_seq);
 1439              		.loc 1 1344 0
 1440 00c4 1B49     		ldr	r1, .L135+8
 1441 00c6 00E0     		b	.L133
 1442              	.L127:
1345:..\..\..\u8g2\u8g2\csrc/u8x8_d_st75256.c ****               else
1346:..\..\..\u8g2\u8g2\csrc/u8x8_d_st75256.c ****                 u8x8_cad_SendSequence(u8x8, u8x8_d_st75256_256x128_powersave1_seq);
 1443              		.loc 1 1346 0
 1444 00c8 1B49     		ldr	r1, .L135+12
 1445              	.LVL225:
 1446              	.L133:
 1447 00ca 2046     		mov	r0, r4
ARM GAS  C:\Users\jesse\AppData\Local\Temp\cc6zNusR.s 			page 51


 1448 00cc FFF7FEFF 		bl	u8x8_cad_SendSequence
 1449              	.LVL226:
 1450 00d0 25E0     		b	.L131
 1451              	.LVL227:
 1452              	.L120:
1347:..\..\..\u8g2\u8g2\csrc/u8x8_d_st75256.c **** 
1348:..\..\..\u8g2\u8g2\csrc/u8x8_d_st75256.c ****               return 1;
1349:..\..\..\u8g2\u8g2\csrc/u8x8_d_st75256.c **** 	case U8X8_MSG_DISPLAY_SET_FLIP_MODE:
1350:..\..\..\u8g2\u8g2\csrc/u8x8_d_st75256.c **** 	    if ( arg_int == 0 )
 1453              		.loc 1 1350 0
 1454 00d2 2AB9     		cbnz	r2, .L128
1351:..\..\..\u8g2\u8g2\csrc/u8x8_d_st75256.c **** 	    {
1352:..\..\..\u8g2\u8g2\csrc/u8x8_d_st75256.c **** 	      u8x8_cad_SendSequence(u8x8, u8x8_d_st75256_jlx172104_flip0_seq);
 1455              		.loc 1 1352 0
 1456 00d4 1949     		ldr	r1, .L135+16
 1457 00d6 FFF7FEFF 		bl	u8x8_cad_SendSequence
 1458              	.LVL228:
1353:..\..\..\u8g2\u8g2\csrc/u8x8_d_st75256.c **** 	      u8x8->x_offset = u8x8->display_info->default_x_offset;
 1459              		.loc 1 1353 0
 1460 00da 2368     		ldr	r3, [r4]
 1461 00dc 9B7C     		ldrb	r3, [r3, #18]	@ zero_extendqisi2
 1462 00de 04E0     		b	.L134
 1463              	.LVL229:
 1464              	.L128:
1354:..\..\..\u8g2\u8g2\csrc/u8x8_d_st75256.c **** 	    }
1355:..\..\..\u8g2\u8g2\csrc/u8x8_d_st75256.c **** 	    else
1356:..\..\..\u8g2\u8g2\csrc/u8x8_d_st75256.c **** 	    {
1357:..\..\..\u8g2\u8g2\csrc/u8x8_d_st75256.c **** 	      u8x8_cad_SendSequence(u8x8, u8x8_d_st75256_jlx172104_flip1_seq);
 1465              		.loc 1 1357 0
 1466 00e0 1749     		ldr	r1, .L135+20
 1467 00e2 FFF7FEFF 		bl	u8x8_cad_SendSequence
 1468              	.LVL230:
1358:..\..\..\u8g2\u8g2\csrc/u8x8_d_st75256.c **** 	      u8x8->x_offset = u8x8->display_info->flipmode_x_offset;
 1469              		.loc 1 1358 0
 1470 00e6 2368     		ldr	r3, [r4]
 1471 00e8 DB7C     		ldrb	r3, [r3, #19]	@ zero_extendqisi2
 1472              	.L134:
 1473 00ea 84F82230 		strb	r3, [r4, #34]
 1474 00ee 16E0     		b	.L131
 1475              	.LVL231:
 1476              	.L121:
1359:..\..\..\u8g2\u8g2\csrc/u8x8_d_st75256.c **** 	    }
1360:..\..\..\u8g2\u8g2\csrc/u8x8_d_st75256.c **** 	    return 1;
1361:..\..\..\u8g2\u8g2\csrc/u8x8_d_st75256.c **** 		
1362:..\..\..\u8g2\u8g2\csrc/u8x8_d_st75256.c **** #ifdef U8X8_WITH_SET_CONTRAST
1363:..\..\..\u8g2\u8g2\csrc/u8x8_d_st75256.c ****         case U8X8_MSG_DISPLAY_SET_CONTRAST:
1364:..\..\..\u8g2\u8g2\csrc/u8x8_d_st75256.c **** 
1365:..\..\..\u8g2\u8g2\csrc/u8x8_d_st75256.c ****               u8x8_cad_StartTransfer(u8x8);
 1477              		.loc 1 1365 0
 1478 00f0 FFF7FEFF 		bl	u8x8_cad_StartTransfer
 1479              	.LVL232:
1366:..\..\..\u8g2\u8g2\csrc/u8x8_d_st75256.c ****               
1367:..\..\..\u8g2\u8g2\csrc/u8x8_d_st75256.c ****               u8x8_cad_SendCmd(u8x8, 0x030 );
 1480              		.loc 1 1367 0
 1481 00f4 3021     		movs	r1, #48
 1482 00f6 2046     		mov	r0, r4
 1483 00f8 FFF7FEFF 		bl	u8x8_cad_SendCmd
ARM GAS  C:\Users\jesse\AppData\Local\Temp\cc6zNusR.s 			page 52


 1484              	.LVL233:
1368:..\..\..\u8g2\u8g2\csrc/u8x8_d_st75256.c ****               u8x8_cad_SendCmd(u8x8, 0x081 );  /* there are 9 bit for the volume control */
 1485              		.loc 1 1368 0
 1486 00fc 8121     		movs	r1, #129
 1487 00fe 2046     		mov	r0, r4
 1488 0100 FFF7FEFF 		bl	u8x8_cad_SendCmd
 1489              	.LVL234:
1369:..\..\..\u8g2\u8g2\csrc/u8x8_d_st75256.c ****               u8x8_cad_SendArg(u8x8, (arg_int & 0x1f)<<1 );	/* lower 6 bit */
 1490              		.loc 1 1369 0
 1491 0104 6900     		lsls	r1, r5, #1
 1492 0106 01F03E01 		and	r1, r1, #62
 1493 010a 2046     		mov	r0, r4
 1494 010c FFF7FEFF 		bl	u8x8_cad_SendArg
 1495              	.LVL235:
1370:..\..\..\u8g2\u8g2\csrc/u8x8_d_st75256.c ****               u8x8_cad_SendArg(u8x8, (arg_int>>5));		/* upper 3 bit */
 1496              		.loc 1 1370 0
 1497 0110 6909     		lsrs	r1, r5, #5
 1498 0112 2046     		mov	r0, r4
 1499 0114 FFF7FEFF 		bl	u8x8_cad_SendArg
 1500              	.LVL236:
 1501              	.L132:
1371:..\..\..\u8g2\u8g2\csrc/u8x8_d_st75256.c ****               
1372:..\..\..\u8g2\u8g2\csrc/u8x8_d_st75256.c ****               u8x8_cad_EndTransfer(u8x8);
 1502              		.loc 1 1372 0
 1503 0118 2046     		mov	r0, r4
 1504 011a FFF7FEFF 		bl	u8x8_cad_EndTransfer
 1505              	.LVL237:
 1506              	.L131:
1373:..\..\..\u8g2\u8g2\csrc/u8x8_d_st75256.c ****               return 1;
 1507              		.loc 1 1373 0
 1508 011e 0120     		movs	r0, #1
 1509 0120 BDE8F081 		pop	{r4, r5, r6, r7, r8, pc}
 1510              	.LVL238:
 1511              	.L129:
1374:..\..\..\u8g2\u8g2\csrc/u8x8_d_st75256.c **** #endif
1375:..\..\..\u8g2\u8g2\csrc/u8x8_d_st75256.c ****   }
1376:..\..\..\u8g2\u8g2\csrc/u8x8_d_st75256.c ****   return 0;
 1512              		.loc 1 1376 0
 1513 0124 0020     		movs	r0, #0
 1514              	.LVL239:
1377:..\..\..\u8g2\u8g2\csrc/u8x8_d_st75256.c **** }
 1515              		.loc 1 1377 0
 1516 0126 BDE8F081 		pop	{r4, r5, r6, r7, r8, pc}
 1517              	.LVL240:
 1518              	.L136:
 1519 012a 00BF     		.align	2
 1520              	.L135:
 1521 012c D8020000 		.word	.LANCHOR0+728
 1522 0130 73030000 		.word	.LANCHOR0+883
 1523 0134 00000000 		.word	.LANCHOR0
 1524 0138 0B000000 		.word	.LANCHOR0+11
 1525 013c 3E010000 		.word	.LANCHOR0+318
 1526 0140 31010000 		.word	.LANCHOR0+305
 1527              		.cfi_endproc
 1528              	.LFE7:
 1529              		.size	u8x8_d_st75256_jlx256160m, .-u8x8_d_st75256_jlx256160m
 1530              		.section	.text.u8x8_d_st75256_jlx256160_alt,"ax",%progbits
ARM GAS  C:\Users\jesse\AppData\Local\Temp\cc6zNusR.s 			page 53


 1531              		.align	1
 1532              		.global	u8x8_d_st75256_jlx256160_alt
 1533              		.thumb
 1534              		.thumb_func
 1535              		.type	u8x8_d_st75256_jlx256160_alt, %function
 1536              	u8x8_d_st75256_jlx256160_alt:
 1537              	.LFB8:
1378:..\..\..\u8g2\u8g2\csrc/u8x8_d_st75256.c **** 
1379:..\..\..\u8g2\u8g2\csrc/u8x8_d_st75256.c **** 
1380:..\..\..\u8g2\u8g2\csrc/u8x8_d_st75256.c **** 
1381:..\..\..\u8g2\u8g2\csrc/u8x8_d_st75256.c **** 
1382:..\..\..\u8g2\u8g2\csrc/u8x8_d_st75256.c **** /*=============================================*/
1383:..\..\..\u8g2\u8g2\csrc/u8x8_d_st75256.c **** /* JLX256160 alternative version from issue #561 */
1384:..\..\..\u8g2\u8g2\csrc/u8x8_d_st75256.c **** 
1385:..\..\..\u8g2\u8g2\csrc/u8x8_d_st75256.c **** static const u8x8_display_info_t u8x8_st75256_256x160_alt_display_info =
1386:..\..\..\u8g2\u8g2\csrc/u8x8_d_st75256.c **** {
1387:..\..\..\u8g2\u8g2\csrc/u8x8_d_st75256.c ****   /* chip_enable_level = */ 0,
1388:..\..\..\u8g2\u8g2\csrc/u8x8_d_st75256.c ****   /* chip_disable_level = */ 1,
1389:..\..\..\u8g2\u8g2\csrc/u8x8_d_st75256.c ****   
1390:..\..\..\u8g2\u8g2\csrc/u8x8_d_st75256.c ****   /* post_chip_enable_wait_ns = */ 20,
1391:..\..\..\u8g2\u8g2\csrc/u8x8_d_st75256.c ****   /* pre_chip_disable_wait_ns = */ 20,
1392:..\..\..\u8g2\u8g2\csrc/u8x8_d_st75256.c ****   /* reset_pulse_width_ms = */ 5, 	
1393:..\..\..\u8g2\u8g2\csrc/u8x8_d_st75256.c ****   /* post_reset_wait_ms = */ 5, 		/**/
1394:..\..\..\u8g2\u8g2\csrc/u8x8_d_st75256.c ****   /* sda_setup_time_ns = */ 20,		/* */
1395:..\..\..\u8g2\u8g2\csrc/u8x8_d_st75256.c ****   /* sck_pulse_width_ns = */ 40,	/*  */
1396:..\..\..\u8g2\u8g2\csrc/u8x8_d_st75256.c ****   /* sck_clock_hz = */ 4000000UL,	/* since Arduino 1.6.0, the SPI bus speed in Hz. Should be  10000
1397:..\..\..\u8g2\u8g2\csrc/u8x8_d_st75256.c ****   /* spi_mode = */ 0,		/* active high, rising edge */
1398:..\..\..\u8g2\u8g2\csrc/u8x8_d_st75256.c ****   /* i2c_bus_clock_100kHz = */ 4,	/* 400KHz */
1399:..\..\..\u8g2\u8g2\csrc/u8x8_d_st75256.c ****   /* data_setup_time_ns = */ 15,
1400:..\..\..\u8g2\u8g2\csrc/u8x8_d_st75256.c ****   /* write_pulse_width_ns = */ 70,	
1401:..\..\..\u8g2\u8g2\csrc/u8x8_d_st75256.c ****   /* tile_width = */ 32,
1402:..\..\..\u8g2\u8g2\csrc/u8x8_d_st75256.c ****   /* tile_hight = */ 20,
1403:..\..\..\u8g2\u8g2\csrc/u8x8_d_st75256.c ****   /* default_x_offset = */ 0,	/*  x offset in flipmode 0 */
1404:..\..\..\u8g2\u8g2\csrc/u8x8_d_st75256.c ****   /* flipmode_x_offset = */ 0,		/* */
1405:..\..\..\u8g2\u8g2\csrc/u8x8_d_st75256.c ****   /* pixel_width = */ 256,
1406:..\..\..\u8g2\u8g2\csrc/u8x8_d_st75256.c ****   /* pixel_height = */ 160
1407:..\..\..\u8g2\u8g2\csrc/u8x8_d_st75256.c **** };
1408:..\..\..\u8g2\u8g2\csrc/u8x8_d_st75256.c **** 
1409:..\..\..\u8g2\u8g2\csrc/u8x8_d_st75256.c **** 
1410:..\..\..\u8g2\u8g2\csrc/u8x8_d_st75256.c **** static const uint8_t u8x8_d_st75256_256x160_alt_init_seq[] = {
1411:..\..\..\u8g2\u8g2\csrc/u8x8_d_st75256.c ****   U8X8_START_TRANSFER(),             	/* enable chip, delay is part of the transfer start */
1412:..\..\..\u8g2\u8g2\csrc/u8x8_d_st75256.c ****   
1413:..\..\..\u8g2\u8g2\csrc/u8x8_d_st75256.c ****   U8X8_DLY(20),
1414:..\..\..\u8g2\u8g2\csrc/u8x8_d_st75256.c **** 
1415:..\..\..\u8g2\u8g2\csrc/u8x8_d_st75256.c ****   U8X8_C( 0x030 ),				/* select 00 commands */
1416:..\..\..\u8g2\u8g2\csrc/u8x8_d_st75256.c ****   U8X8_C( 0x094 ),				/* sleep out */
1417:..\..\..\u8g2\u8g2\csrc/u8x8_d_st75256.c **** 
1418:..\..\..\u8g2\u8g2\csrc/u8x8_d_st75256.c ****   //U8X8_C( 0x030 ),				/* select 00 commands */
1419:..\..\..\u8g2\u8g2\csrc/u8x8_d_st75256.c ****   U8X8_C( 0x0ae ),				/* display off */
1420:..\..\..\u8g2\u8g2\csrc/u8x8_d_st75256.c **** 
1421:..\..\..\u8g2\u8g2\csrc/u8x8_d_st75256.c ****   U8X8_C( 0x031 ),				/* select 01 commands */
1422:..\..\..\u8g2\u8g2\csrc/u8x8_d_st75256.c ****   U8X8_CA( 0x0d7, 0x09f ),		/* disable auto read */  
1423:..\..\..\u8g2\u8g2\csrc/u8x8_d_st75256.c **** 
1424:..\..\..\u8g2\u8g2\csrc/u8x8_d_st75256.c ****   //U8X8_C( 0x031 ),				/* select 01 commands */
1425:..\..\..\u8g2\u8g2\csrc/u8x8_d_st75256.c ****   U8X8_C( 0x032 ),				/* analog circuit set */
1426:..\..\..\u8g2\u8g2\csrc/u8x8_d_st75256.c ****   U8X8_A( 0x000 ),				/* code example: OSC Frequency adjustment */
1427:..\..\..\u8g2\u8g2\csrc/u8x8_d_st75256.c ****   U8X8_A( 0x001 ),				/* Frequency on booster capacitors 1 = 6KHz? */
ARM GAS  C:\Users\jesse\AppData\Local\Temp\cc6zNusR.s 			page 54


1428:..\..\..\u8g2\u8g2\csrc/u8x8_d_st75256.c ****   U8X8_A( 0x000 ),				/* Bias: 1: 1/13, 2: 1/12, 3: 1/11, 4:1/10, 5:1/9 */
1429:..\..\..\u8g2\u8g2\csrc/u8x8_d_st75256.c ****     
1430:..\..\..\u8g2\u8g2\csrc/u8x8_d_st75256.c ****   //U8X8_C( 0x031 ),				/* select 01 commands */
1431:..\..\..\u8g2\u8g2\csrc/u8x8_d_st75256.c ****   U8X8_C( 0x020 ),				/* gray levels */
1432:..\..\..\u8g2\u8g2\csrc/u8x8_d_st75256.c ****   U8X8_A( 0x01 ),
1433:..\..\..\u8g2\u8g2\csrc/u8x8_d_st75256.c ****   U8X8_A( 0x03 ),
1434:..\..\..\u8g2\u8g2\csrc/u8x8_d_st75256.c ****   U8X8_A( 0x05 ),
1435:..\..\..\u8g2\u8g2\csrc/u8x8_d_st75256.c ****   U8X8_A( 0x07 ),
1436:..\..\..\u8g2\u8g2\csrc/u8x8_d_st75256.c ****   U8X8_A( 0x09),
1437:..\..\..\u8g2\u8g2\csrc/u8x8_d_st75256.c ****   U8X8_A( 0x0b ),
1438:..\..\..\u8g2\u8g2\csrc/u8x8_d_st75256.c ****   U8X8_A( 0x0d ),
1439:..\..\..\u8g2\u8g2\csrc/u8x8_d_st75256.c ****   U8X8_A( 0x10 ),
1440:..\..\..\u8g2\u8g2\csrc/u8x8_d_st75256.c ****   U8X8_A( 0x11 ),
1441:..\..\..\u8g2\u8g2\csrc/u8x8_d_st75256.c ****   U8X8_A( 0x13 ),
1442:..\..\..\u8g2\u8g2\csrc/u8x8_d_st75256.c ****   U8X8_A( 0x15 ),
1443:..\..\..\u8g2\u8g2\csrc/u8x8_d_st75256.c ****   U8X8_A( 0x17 ),
1444:..\..\..\u8g2\u8g2\csrc/u8x8_d_st75256.c ****   U8X8_A( 0x19 ),
1445:..\..\..\u8g2\u8g2\csrc/u8x8_d_st75256.c ****   U8X8_A( 0x1b ),
1446:..\..\..\u8g2\u8g2\csrc/u8x8_d_st75256.c ****   U8X8_A( 0x1d ),
1447:..\..\..\u8g2\u8g2\csrc/u8x8_d_st75256.c ****   U8X8_A( 0x1f ),
1448:..\..\..\u8g2\u8g2\csrc/u8x8_d_st75256.c ****  
1449:..\..\..\u8g2\u8g2\csrc/u8x8_d_st75256.c ****   
1450:..\..\..\u8g2\u8g2\csrc/u8x8_d_st75256.c ****   U8X8_C( 0x030 ),				/* select 00 commands */
1451:..\..\..\u8g2\u8g2\csrc/u8x8_d_st75256.c ****   U8X8_CAA(0x75, 0, 0x4f),		/* row range */
1452:..\..\..\u8g2\u8g2\csrc/u8x8_d_st75256.c ****   U8X8_CAA(0x15, 0, 255),		/* col range */
1453:..\..\..\u8g2\u8g2\csrc/u8x8_d_st75256.c ****   
1454:..\..\..\u8g2\u8g2\csrc/u8x8_d_st75256.c ****   //U8X8_C( 0x030 ),				/* select 00 commands */
1455:..\..\..\u8g2\u8g2\csrc/u8x8_d_st75256.c ****   U8X8_CA( 0xbc, 0x02 ),			/* data scan dir */
1456:..\..\..\u8g2\u8g2\csrc/u8x8_d_st75256.c ****   U8X8_A( 0xa6 ),				/* ??? */
1457:..\..\..\u8g2\u8g2\csrc/u8x8_d_st75256.c **** 
1458:..\..\..\u8g2\u8g2\csrc/u8x8_d_st75256.c ****   //U8X8_C( 0x030 ),				/* select 00 commands */
1459:..\..\..\u8g2\u8g2\csrc/u8x8_d_st75256.c ****   U8X8_C( 0x00c ),				/* data format LSB top */
1460:..\..\..\u8g2\u8g2\csrc/u8x8_d_st75256.c **** 
1461:..\..\..\u8g2\u8g2\csrc/u8x8_d_st75256.c ****   //U8X8_C( 0x030 ),				/* select 00 commands */ 
1462:..\..\..\u8g2\u8g2\csrc/u8x8_d_st75256.c ****   U8X8_C( 0xca ),				/* display control, 3 args follow  */
1463:..\..\..\u8g2\u8g2\csrc/u8x8_d_st75256.c ****   U8X8_A( 0x00 ),				/* 0x00: no clock division, 0x04: devide clock */
1464:..\..\..\u8g2\u8g2\csrc/u8x8_d_st75256.c ****   U8X8_A( 159 ),				/* 1/160 duty value from the DS example code */
1465:..\..\..\u8g2\u8g2\csrc/u8x8_d_st75256.c ****   U8X8_A( 0x20 ),				/* nline off */ 
1466:..\..\..\u8g2\u8g2\csrc/u8x8_d_st75256.c **** 
1467:..\..\..\u8g2\u8g2\csrc/u8x8_d_st75256.c ****   //U8X8_C( 0x030 ),				/* select 00 commands */ 
1468:..\..\..\u8g2\u8g2\csrc/u8x8_d_st75256.c ****   U8X8_CA( 0x0f0, 0x010 ),		/* monochrome mode  = 0x010*/
1469:..\..\..\u8g2\u8g2\csrc/u8x8_d_st75256.c **** 
1470:..\..\..\u8g2\u8g2\csrc/u8x8_d_st75256.c ****   //U8X8_C( 0x030 ),				/* select 00 commands */
1471:..\..\..\u8g2\u8g2\csrc/u8x8_d_st75256.c ****   U8X8_CAA( 0x81, 0x18, 0x05 ),	/* Volume control */
1472:..\..\..\u8g2\u8g2\csrc/u8x8_d_st75256.c **** 
1473:..\..\..\u8g2\u8g2\csrc/u8x8_d_st75256.c ****   //U8X8_C( 0x030 ),				/* select 00 commands */
1474:..\..\..\u8g2\u8g2\csrc/u8x8_d_st75256.c ****   U8X8_CA( 0x020, 0x00b ),		/* Power control: Regulator, follower & booster on */
1475:..\..\..\u8g2\u8g2\csrc/u8x8_d_st75256.c ****   U8X8_DLY(100),
1476:..\..\..\u8g2\u8g2\csrc/u8x8_d_st75256.c **** 
1477:..\..\..\u8g2\u8g2\csrc/u8x8_d_st75256.c ****   U8X8_END_TRANSFER(),             	/* disable chip */
1478:..\..\..\u8g2\u8g2\csrc/u8x8_d_st75256.c ****   U8X8_END()             			/* end of sequence */
1479:..\..\..\u8g2\u8g2\csrc/u8x8_d_st75256.c **** };
1480:..\..\..\u8g2\u8g2\csrc/u8x8_d_st75256.c **** 
1481:..\..\..\u8g2\u8g2\csrc/u8x8_d_st75256.c **** 
1482:..\..\..\u8g2\u8g2\csrc/u8x8_d_st75256.c **** uint8_t u8x8_d_st75256_jlx256160_alt(u8x8_t *u8x8, uint8_t msg, uint8_t arg_int, void *arg_ptr)
1483:..\..\..\u8g2\u8g2\csrc/u8x8_d_st75256.c **** {
 1538              		.loc 1 1483 0
ARM GAS  C:\Users\jesse\AppData\Local\Temp\cc6zNusR.s 			page 55


 1539              		.cfi_startproc
 1540              		@ args = 0, pretend = 0, frame = 0
 1541              		@ frame_needed = 0, uses_anonymous_args = 0
 1542              	.LVL241:
1484:..\..\..\u8g2\u8g2\csrc/u8x8_d_st75256.c ****   uint8_t x, c;
1485:..\..\..\u8g2\u8g2\csrc/u8x8_d_st75256.c ****   uint8_t *ptr;
1486:..\..\..\u8g2\u8g2\csrc/u8x8_d_st75256.c **** 
1487:..\..\..\u8g2\u8g2\csrc/u8x8_d_st75256.c ****   switch(msg)
 1543              		.loc 1 1487 0
 1544 0000 0939     		subs	r1, r1, #9
 1545              	.LVL242:
1483:..\..\..\u8g2\u8g2\csrc/u8x8_d_st75256.c ****   uint8_t x, c;
 1546              		.loc 1 1483 0
 1547 0002 2DE9F041 		push	{r4, r5, r6, r7, r8, lr}
 1548              		.cfi_def_cfa_offset 24
 1549              		.cfi_offset 4, -24
 1550              		.cfi_offset 5, -20
 1551              		.cfi_offset 6, -16
 1552              		.cfi_offset 7, -12
 1553              		.cfi_offset 8, -8
 1554              		.cfi_offset 14, -4
1483:..\..\..\u8g2\u8g2\csrc/u8x8_d_st75256.c ****   uint8_t x, c;
 1555              		.loc 1 1483 0
 1556 0006 0446     		mov	r4, r0
 1557 0008 1546     		mov	r5, r2
 1558 000a 1F46     		mov	r7, r3
 1559              		.loc 1 1487 0
 1560 000c 0629     		cmp	r1, #6
 1561 000e 00F28680 		bhi	.L152
 1562 0012 DFE801F0 		tbb	[pc, r1]
 1563              	.LVL243:
 1564              	.L140:
 1565 0016 4B       		.byte	(.L139-.L140)/2
 1566 0017 4F       		.byte	(.L141-.L140)/2
 1567 0018 53       		.byte	(.L142-.L140)/2
 1568 0019 84       		.byte	(.L152-.L140)/2
 1569 001a 5B       		.byte	(.L143-.L140)/2
 1570 001b 6A       		.byte	(.L144-.L140)/2
 1571 001c 04       		.byte	(.L145-.L140)/2
 1572 001d 00       		.p2align 1
 1573              	.L145:
1488:..\..\..\u8g2\u8g2\csrc/u8x8_d_st75256.c ****   {
1489:..\..\..\u8g2\u8g2\csrc/u8x8_d_st75256.c ****             case U8X8_MSG_DISPLAY_DRAW_TILE:
1490:..\..\..\u8g2\u8g2\csrc/u8x8_d_st75256.c ****               
1491:..\..\..\u8g2\u8g2\csrc/u8x8_d_st75256.c ****               u8x8_cad_StartTransfer(u8x8);
 1574              		.loc 1 1491 0
 1575 001e FFF7FEFF 		bl	u8x8_cad_StartTransfer
 1576              	.LVL244:
1492:..\..\..\u8g2\u8g2\csrc/u8x8_d_st75256.c ****               x = ((u8x8_tile_t *)arg_ptr)->x_pos;    
1493:..\..\..\u8g2\u8g2\csrc/u8x8_d_st75256.c ****               x *= 8;
1494:..\..\..\u8g2\u8g2\csrc/u8x8_d_st75256.c ****               
1495:..\..\..\u8g2\u8g2\csrc/u8x8_d_st75256.c ****               u8x8_cad_SendCmd(u8x8, 0x030 );	/* select command set */
 1577              		.loc 1 1495 0
 1578 0022 3021     		movs	r1, #48
 1579 0024 2046     		mov	r0, r4
1492:..\..\..\u8g2\u8g2\csrc/u8x8_d_st75256.c ****               x = ((u8x8_tile_t *)arg_ptr)->x_pos;    
 1580              		.loc 1 1492 0
ARM GAS  C:\Users\jesse\AppData\Local\Temp\cc6zNusR.s 			page 56


 1581 0026 7E79     		ldrb	r6, [r7, #5]	@ zero_extendqisi2
 1582              	.LVL245:
 1583              		.loc 1 1495 0
 1584 0028 FFF7FEFF 		bl	u8x8_cad_SendCmd
 1585              	.LVL246:
1496:..\..\..\u8g2\u8g2\csrc/u8x8_d_st75256.c ****               u8x8_cad_SendCmd(u8x8, 0x075 );	/* row */
 1586              		.loc 1 1496 0
 1587 002c 7521     		movs	r1, #117
 1588 002e 2046     		mov	r0, r4
 1589 0030 FFF7FEFF 		bl	u8x8_cad_SendCmd
 1590              	.LVL247:
1497:..\..\..\u8g2\u8g2\csrc/u8x8_d_st75256.c **** 	      if ( u8x8->x_offset == 0 )		/* 0 means flip mode 1 */
 1591              		.loc 1 1497 0
 1592 0034 94F82230 		ldrb	r3, [r4, #34]	@ zero_extendqisi2
1493:..\..\..\u8g2\u8g2\csrc/u8x8_d_st75256.c ****               
 1593              		.loc 1 1493 0
 1594 0038 F600     		lsls	r6, r6, #3
 1595              	.LVL248:
 1596 003a F6B2     		uxtb	r6, r6
 1597              	.LVL249:
 1598 003c B979     		ldrb	r1, [r7, #6]	@ zero_extendqisi2
 1599              		.loc 1 1497 0
 1600 003e 0BB9     		cbnz	r3, .L146
1498:..\..\..\u8g2\u8g2\csrc/u8x8_d_st75256.c **** 		u8x8_cad_SendArg(u8x8, 1+(((u8x8_tile_t *)arg_ptr)->y_pos));
 1601              		.loc 1 1498 0
 1602 0040 0131     		adds	r1, r1, #1
 1603 0042 C9B2     		uxtb	r1, r1
 1604              	.L146:
1499:..\..\..\u8g2\u8g2\csrc/u8x8_d_st75256.c **** 	      else
1500:..\..\..\u8g2\u8g2\csrc/u8x8_d_st75256.c **** 		u8x8_cad_SendArg(u8x8, (((u8x8_tile_t *)arg_ptr)->y_pos));
 1605              		.loc 1 1500 0
 1606 0044 2046     		mov	r0, r4
 1607 0046 FFF7FEFF 		bl	u8x8_cad_SendArg
 1608              	.LVL250:
1501:..\..\..\u8g2\u8g2\csrc/u8x8_d_st75256.c ****               u8x8_cad_SendArg(u8x8, 0x04f);
 1609              		.loc 1 1501 0
 1610 004a 4F21     		movs	r1, #79
 1611 004c 2046     		mov	r0, r4
 1612 004e FFF7FEFF 		bl	u8x8_cad_SendArg
 1613              	.LVL251:
1502:..\..\..\u8g2\u8g2\csrc/u8x8_d_st75256.c ****               //u8x8_cad_SendArg(u8x8, (((u8x8_tile_t *)arg_ptr)->y_pos));
1503:..\..\..\u8g2\u8g2\csrc/u8x8_d_st75256.c ****               u8x8_cad_SendCmd(u8x8, 0x015 );	/* col */
 1614              		.loc 1 1503 0
 1615 0052 1521     		movs	r1, #21
 1616 0054 2046     		mov	r0, r4
 1617 0056 FFF7FEFF 		bl	u8x8_cad_SendCmd
 1618              	.LVL252:
1504:..\..\..\u8g2\u8g2\csrc/u8x8_d_st75256.c ****               u8x8_cad_SendArg(u8x8, x+u8x8->x_offset);
 1619              		.loc 1 1504 0
 1620 005a 94F82210 		ldrb	r1, [r4, #34]	@ zero_extendqisi2
 1621 005e 2046     		mov	r0, r4
 1622 0060 3144     		add	r1, r1, r6
 1623 0062 C9B2     		uxtb	r1, r1
 1624 0064 FFF7FEFF 		bl	u8x8_cad_SendArg
 1625              	.LVL253:
1505:..\..\..\u8g2\u8g2\csrc/u8x8_d_st75256.c ****               u8x8_cad_SendArg(u8x8, 255);
 1626              		.loc 1 1505 0
ARM GAS  C:\Users\jesse\AppData\Local\Temp\cc6zNusR.s 			page 57


 1627 0068 FF21     		movs	r1, #255
 1628 006a 2046     		mov	r0, r4
 1629 006c FFF7FEFF 		bl	u8x8_cad_SendArg
 1630              	.LVL254:
1506:..\..\..\u8g2\u8g2\csrc/u8x8_d_st75256.c ****               u8x8_cad_SendCmd(u8x8, 0x05c );	
 1631              		.loc 1 1506 0
 1632 0070 5C21     		movs	r1, #92
 1633 0072 2046     		mov	r0, r4
 1634 0074 FFF7FEFF 		bl	u8x8_cad_SendCmd
 1635              	.LVL255:
 1636              	.L149:
1507:..\..\..\u8g2\u8g2\csrc/u8x8_d_st75256.c ****             
1508:..\..\..\u8g2\u8g2\csrc/u8x8_d_st75256.c ****               
1509:..\..\..\u8g2\u8g2\csrc/u8x8_d_st75256.c ****               do
1510:..\..\..\u8g2\u8g2\csrc/u8x8_d_st75256.c ****               {
1511:..\..\..\u8g2\u8g2\csrc/u8x8_d_st75256.c ****                 c = ((u8x8_tile_t *)arg_ptr)->cnt;
 1637              		.loc 1 1511 0
 1638 0078 3E79     		ldrb	r6, [r7, #4]	@ zero_extendqisi2
 1639              	.LVL256:
1512:..\..\..\u8g2\u8g2\csrc/u8x8_d_st75256.c ****                 ptr = ((u8x8_tile_t *)arg_ptr)->tile_ptr;
 1640              		.loc 1 1512 0
 1641 007a D7F80080 		ldr	r8, [r7]
 1642              	.LVL257:
1513:..\..\..\u8g2\u8g2\csrc/u8x8_d_st75256.c **** 		/* SendData can not handle more than 255 bytes, treat c > 31 correctly  */
1514:..\..\..\u8g2\u8g2\csrc/u8x8_d_st75256.c **** 		if ( c > 31 )
 1643              		.loc 1 1514 0
 1644 007e 1F2E     		cmp	r6, #31
 1645 0080 08D9     		bls	.L148
1515:..\..\..\u8g2\u8g2\csrc/u8x8_d_st75256.c **** 		{
1516:..\..\..\u8g2\u8g2\csrc/u8x8_d_st75256.c **** 		  u8x8_cad_SendData(u8x8, 248, ptr); 	/* 31*8=248 */
 1646              		.loc 1 1516 0
 1647 0082 4246     		mov	r2, r8
 1648 0084 F821     		movs	r1, #248
 1649 0086 2046     		mov	r0, r4
 1650 0088 FFF7FEFF 		bl	u8x8_cad_SendData
 1651              	.LVL258:
1517:..\..\..\u8g2\u8g2\csrc/u8x8_d_st75256.c **** 		  ptr+=248;
1518:..\..\..\u8g2\u8g2\csrc/u8x8_d_st75256.c **** 		  c -= 31;
 1652              		.loc 1 1518 0
 1653 008c 1F3E     		subs	r6, r6, #31
 1654              	.LVL259:
1517:..\..\..\u8g2\u8g2\csrc/u8x8_d_st75256.c **** 		  ptr+=248;
 1655              		.loc 1 1517 0
 1656 008e 08F1F808 		add	r8, r8, #248
 1657              	.LVL260:
 1658              		.loc 1 1518 0
 1659 0092 F6B2     		uxtb	r6, r6
 1660              	.LVL261:
 1661              	.L148:
1519:..\..\..\u8g2\u8g2\csrc/u8x8_d_st75256.c **** 		}
1520:..\..\..\u8g2\u8g2\csrc/u8x8_d_st75256.c **** 		
1521:..\..\..\u8g2\u8g2\csrc/u8x8_d_st75256.c **** 		u8x8_cad_SendData(u8x8, c*8, ptr); 	
 1662              		.loc 1 1521 0
 1663 0094 F100     		lsls	r1, r6, #3
 1664 0096 4246     		mov	r2, r8
 1665 0098 01F0F801 		and	r1, r1, #248
 1666 009c 2046     		mov	r0, r4
ARM GAS  C:\Users\jesse\AppData\Local\Temp\cc6zNusR.s 			page 58


1522:..\..\..\u8g2\u8g2\csrc/u8x8_d_st75256.c ****                 arg_int--;
 1667              		.loc 1 1522 0
 1668 009e 013D     		subs	r5, r5, #1
 1669              	.LVL262:
1521:..\..\..\u8g2\u8g2\csrc/u8x8_d_st75256.c ****                 arg_int--;
 1670              		.loc 1 1521 0
 1671 00a0 FFF7FEFF 		bl	u8x8_cad_SendData
 1672              	.LVL263:
1523:..\..\..\u8g2\u8g2\csrc/u8x8_d_st75256.c ****               } while( arg_int > 0 );
 1673              		.loc 1 1523 0
 1674 00a4 15F0FF05 		ands	r5, r5, #255
 1675              	.LVL264:
 1676 00a8 E6D1     		bne	.L149
 1677 00aa 32E0     		b	.L155
 1678              	.LVL265:
 1679              	.L139:
1524:..\..\..\u8g2\u8g2\csrc/u8x8_d_st75256.c ****               
1525:..\..\..\u8g2\u8g2\csrc/u8x8_d_st75256.c ****               u8x8_cad_EndTransfer(u8x8);
1526:..\..\..\u8g2\u8g2\csrc/u8x8_d_st75256.c ****               return 1;
1527:..\..\..\u8g2\u8g2\csrc/u8x8_d_st75256.c ****         case U8X8_MSG_DISPLAY_SETUP_MEMORY:
1528:..\..\..\u8g2\u8g2\csrc/u8x8_d_st75256.c ****             //u8x8_SetI2CAddress(u8x8, 0x078);		/* lowest I2C adr of the ST75256 */
1529:..\..\..\u8g2\u8g2\csrc/u8x8_d_st75256.c **** 	    u8x8_d_helper_display_setup_memory(u8x8, &u8x8_st75256_256x160_alt_display_info);
 1680              		.loc 1 1529 0
 1681 00ac 1D49     		ldr	r1, .L158
 1682 00ae FFF7FEFF 		bl	u8x8_d_helper_display_setup_memory
 1683              	.LVL266:
 1684 00b2 31E0     		b	.L154
 1685              	.LVL267:
 1686              	.L141:
1530:..\..\..\u8g2\u8g2\csrc/u8x8_d_st75256.c ****             return 1;
1531:..\..\..\u8g2\u8g2\csrc/u8x8_d_st75256.c ****         case U8X8_MSG_DISPLAY_INIT:
1532:..\..\..\u8g2\u8g2\csrc/u8x8_d_st75256.c **** 	    u8x8_d_helper_display_init(u8x8);
 1687              		.loc 1 1532 0
 1688 00b4 FFF7FEFF 		bl	u8x8_d_helper_display_init
 1689              	.LVL268:
1533:..\..\..\u8g2\u8g2\csrc/u8x8_d_st75256.c **** 	    u8x8_cad_SendSequence(u8x8, u8x8_d_st75256_256x160_alt_init_seq);    
 1690              		.loc 1 1533 0
 1691 00b8 1B49     		ldr	r1, .L158+4
 1692 00ba 03E0     		b	.L156
 1693              	.LVL269:
 1694              	.L142:
1534:..\..\..\u8g2\u8g2\csrc/u8x8_d_st75256.c ****             return 1;
1535:..\..\..\u8g2\u8g2\csrc/u8x8_d_st75256.c ****         case U8X8_MSG_DISPLAY_SET_POWER_SAVE:
1536:..\..\..\u8g2\u8g2\csrc/u8x8_d_st75256.c ****               if ( arg_int == 0 )
 1695              		.loc 1 1536 0
 1696 00bc 0AB9     		cbnz	r2, .L150
1537:..\..\..\u8g2\u8g2\csrc/u8x8_d_st75256.c ****                 u8x8_cad_SendSequence(u8x8, u8x8_d_st75256_256x128_powersave0_seq);
 1697              		.loc 1 1537 0
 1698 00be 1B49     		ldr	r1, .L158+8
 1699 00c0 00E0     		b	.L156
 1700              	.L150:
1538:..\..\..\u8g2\u8g2\csrc/u8x8_d_st75256.c ****               else
1539:..\..\..\u8g2\u8g2\csrc/u8x8_d_st75256.c ****                 u8x8_cad_SendSequence(u8x8, u8x8_d_st75256_256x128_powersave1_seq);
 1701              		.loc 1 1539 0
 1702 00c2 1B49     		ldr	r1, .L158+12
 1703              	.LVL270:
 1704              	.L156:
ARM GAS  C:\Users\jesse\AppData\Local\Temp\cc6zNusR.s 			page 59


 1705 00c4 2046     		mov	r0, r4
 1706 00c6 FFF7FEFF 		bl	u8x8_cad_SendSequence
 1707              	.LVL271:
 1708 00ca 25E0     		b	.L154
 1709              	.LVL272:
 1710              	.L143:
1540:..\..\..\u8g2\u8g2\csrc/u8x8_d_st75256.c **** 
1541:..\..\..\u8g2\u8g2\csrc/u8x8_d_st75256.c ****               return 1;
1542:..\..\..\u8g2\u8g2\csrc/u8x8_d_st75256.c **** 	case U8X8_MSG_DISPLAY_SET_FLIP_MODE:
1543:..\..\..\u8g2\u8g2\csrc/u8x8_d_st75256.c **** 	    if ( arg_int == 0 )
 1711              		.loc 1 1543 0
 1712 00cc 2AB9     		cbnz	r2, .L151
1544:..\..\..\u8g2\u8g2\csrc/u8x8_d_st75256.c **** 	    {
1545:..\..\..\u8g2\u8g2\csrc/u8x8_d_st75256.c **** 	      u8x8_cad_SendSequence(u8x8, u8x8_d_st75256_jlx172104_flip0_seq);
 1713              		.loc 1 1545 0
 1714 00ce 1949     		ldr	r1, .L158+16
 1715 00d0 FFF7FEFF 		bl	u8x8_cad_SendSequence
 1716              	.LVL273:
1546:..\..\..\u8g2\u8g2\csrc/u8x8_d_st75256.c **** 	      u8x8->x_offset = u8x8->display_info->default_x_offset;
 1717              		.loc 1 1546 0
 1718 00d4 2368     		ldr	r3, [r4]
 1719 00d6 9B7C     		ldrb	r3, [r3, #18]	@ zero_extendqisi2
 1720 00d8 04E0     		b	.L157
 1721              	.LVL274:
 1722              	.L151:
1547:..\..\..\u8g2\u8g2\csrc/u8x8_d_st75256.c **** 	    }
1548:..\..\..\u8g2\u8g2\csrc/u8x8_d_st75256.c **** 	    else
1549:..\..\..\u8g2\u8g2\csrc/u8x8_d_st75256.c **** 	    {
1550:..\..\..\u8g2\u8g2\csrc/u8x8_d_st75256.c **** 	      u8x8_cad_SendSequence(u8x8, u8x8_d_st75256_jlx172104_flip1_seq);
 1723              		.loc 1 1550 0
 1724 00da 1749     		ldr	r1, .L158+20
 1725 00dc FFF7FEFF 		bl	u8x8_cad_SendSequence
 1726              	.LVL275:
1551:..\..\..\u8g2\u8g2\csrc/u8x8_d_st75256.c **** 	      u8x8->x_offset = u8x8->display_info->flipmode_x_offset;
 1727              		.loc 1 1551 0
 1728 00e0 2368     		ldr	r3, [r4]
 1729 00e2 DB7C     		ldrb	r3, [r3, #19]	@ zero_extendqisi2
 1730              	.L157:
 1731 00e4 84F82230 		strb	r3, [r4, #34]
 1732 00e8 16E0     		b	.L154
 1733              	.LVL276:
 1734              	.L144:
1552:..\..\..\u8g2\u8g2\csrc/u8x8_d_st75256.c **** 	    }
1553:..\..\..\u8g2\u8g2\csrc/u8x8_d_st75256.c **** 	    return 1;
1554:..\..\..\u8g2\u8g2\csrc/u8x8_d_st75256.c **** 		
1555:..\..\..\u8g2\u8g2\csrc/u8x8_d_st75256.c **** #ifdef U8X8_WITH_SET_CONTRAST
1556:..\..\..\u8g2\u8g2\csrc/u8x8_d_st75256.c ****         case U8X8_MSG_DISPLAY_SET_CONTRAST:
1557:..\..\..\u8g2\u8g2\csrc/u8x8_d_st75256.c **** 
1558:..\..\..\u8g2\u8g2\csrc/u8x8_d_st75256.c ****               u8x8_cad_StartTransfer(u8x8);
 1735              		.loc 1 1558 0
 1736 00ea FFF7FEFF 		bl	u8x8_cad_StartTransfer
 1737              	.LVL277:
1559:..\..\..\u8g2\u8g2\csrc/u8x8_d_st75256.c ****               
1560:..\..\..\u8g2\u8g2\csrc/u8x8_d_st75256.c ****               u8x8_cad_SendCmd(u8x8, 0x030 );
 1738              		.loc 1 1560 0
 1739 00ee 3021     		movs	r1, #48
 1740 00f0 2046     		mov	r0, r4
ARM GAS  C:\Users\jesse\AppData\Local\Temp\cc6zNusR.s 			page 60


 1741 00f2 FFF7FEFF 		bl	u8x8_cad_SendCmd
 1742              	.LVL278:
1561:..\..\..\u8g2\u8g2\csrc/u8x8_d_st75256.c ****               u8x8_cad_SendCmd(u8x8, 0x081 );  /* there are 9 bit for the volume control */
 1743              		.loc 1 1561 0
 1744 00f6 8121     		movs	r1, #129
 1745 00f8 2046     		mov	r0, r4
 1746 00fa FFF7FEFF 		bl	u8x8_cad_SendCmd
 1747              	.LVL279:
1562:..\..\..\u8g2\u8g2\csrc/u8x8_d_st75256.c ****               u8x8_cad_SendArg(u8x8, (arg_int & 0x1f)<<1 );	/* lower 6 bit */
 1748              		.loc 1 1562 0
 1749 00fe 6900     		lsls	r1, r5, #1
 1750 0100 01F03E01 		and	r1, r1, #62
 1751 0104 2046     		mov	r0, r4
 1752 0106 FFF7FEFF 		bl	u8x8_cad_SendArg
 1753              	.LVL280:
1563:..\..\..\u8g2\u8g2\csrc/u8x8_d_st75256.c ****               u8x8_cad_SendArg(u8x8, (arg_int>>5));		/* upper 3 bit */
 1754              		.loc 1 1563 0
 1755 010a 6909     		lsrs	r1, r5, #5
 1756 010c 2046     		mov	r0, r4
 1757 010e FFF7FEFF 		bl	u8x8_cad_SendArg
 1758              	.LVL281:
 1759              	.L155:
1564:..\..\..\u8g2\u8g2\csrc/u8x8_d_st75256.c ****               
1565:..\..\..\u8g2\u8g2\csrc/u8x8_d_st75256.c ****               u8x8_cad_EndTransfer(u8x8);
 1760              		.loc 1 1565 0
 1761 0112 2046     		mov	r0, r4
 1762 0114 FFF7FEFF 		bl	u8x8_cad_EndTransfer
 1763              	.LVL282:
 1764              	.L154:
1566:..\..\..\u8g2\u8g2\csrc/u8x8_d_st75256.c ****               return 1;
 1765              		.loc 1 1566 0
 1766 0118 0120     		movs	r0, #1
 1767 011a BDE8F081 		pop	{r4, r5, r6, r7, r8, pc}
 1768              	.LVL283:
 1769              	.L152:
1567:..\..\..\u8g2\u8g2\csrc/u8x8_d_st75256.c **** #endif
1568:..\..\..\u8g2\u8g2\csrc/u8x8_d_st75256.c ****   }
1569:..\..\..\u8g2\u8g2\csrc/u8x8_d_st75256.c ****   return 0;
 1770              		.loc 1 1569 0
 1771 011e 0020     		movs	r0, #0
 1772              	.LVL284:
1570:..\..\..\u8g2\u8g2\csrc/u8x8_d_st75256.c **** 
1571:..\..\..\u8g2\u8g2\csrc/u8x8_d_st75256.c **** } 
 1773              		.loc 1 1571 0
 1774 0120 BDE8F081 		pop	{r4, r5, r6, r7, r8, pc}
 1775              	.LVL285:
 1776              	.L159:
 1777              		.align	2
 1778              	.L158:
 1779 0124 DC030000 		.word	.LANCHOR0+988
 1780 0128 F4030000 		.word	.LANCHOR0+1012
 1781 012c 00000000 		.word	.LANCHOR0
 1782 0130 0B000000 		.word	.LANCHOR0+11
 1783 0134 3E010000 		.word	.LANCHOR0+318
 1784 0138 31010000 		.word	.LANCHOR0+305
 1785              		.cfi_endproc
 1786              	.LFE8:
ARM GAS  C:\Users\jesse\AppData\Local\Temp\cc6zNusR.s 			page 61


 1787              		.size	u8x8_d_st75256_jlx256160_alt, .-u8x8_d_st75256_jlx256160_alt
 1788              		.section	.text.u8x8_d_st75256_jlx19296,"ax",%progbits
 1789              		.align	1
 1790              		.global	u8x8_d_st75256_jlx19296
 1791              		.thumb
 1792              		.thumb_func
 1793              		.type	u8x8_d_st75256_jlx19296, %function
 1794              	u8x8_d_st75256_jlx19296:
 1795              	.LFB9:
1572:..\..\..\u8g2\u8g2\csrc/u8x8_d_st75256.c **** 
1573:..\..\..\u8g2\u8g2\csrc/u8x8_d_st75256.c **** 
1574:..\..\..\u8g2\u8g2\csrc/u8x8_d_st75256.c **** /*=============================================*/
1575:..\..\..\u8g2\u8g2\csrc/u8x8_d_st75256.c **** /* JLX19296 LCD */
1576:..\..\..\u8g2\u8g2\csrc/u8x8_d_st75256.c **** 
1577:..\..\..\u8g2\u8g2\csrc/u8x8_d_st75256.c **** static const u8x8_display_info_t u8x8_st75256_192x96_display_info =
1578:..\..\..\u8g2\u8g2\csrc/u8x8_d_st75256.c **** {
1579:..\..\..\u8g2\u8g2\csrc/u8x8_d_st75256.c ****   /* chip_enable_level = */ 0,
1580:..\..\..\u8g2\u8g2\csrc/u8x8_d_st75256.c ****   /* chip_disable_level = */ 1,
1581:..\..\..\u8g2\u8g2\csrc/u8x8_d_st75256.c ****   
1582:..\..\..\u8g2\u8g2\csrc/u8x8_d_st75256.c ****   /* post_chip_enable_wait_ns = */ 20,
1583:..\..\..\u8g2\u8g2\csrc/u8x8_d_st75256.c ****   /* pre_chip_disable_wait_ns = */ 20,
1584:..\..\..\u8g2\u8g2\csrc/u8x8_d_st75256.c ****   /* reset_pulse_width_ms = */ 5, 	
1585:..\..\..\u8g2\u8g2\csrc/u8x8_d_st75256.c ****   /* post_reset_wait_ms = */ 5, 		/**/
1586:..\..\..\u8g2\u8g2\csrc/u8x8_d_st75256.c ****   /* sda_setup_time_ns = */ 20,		/* */
1587:..\..\..\u8g2\u8g2\csrc/u8x8_d_st75256.c ****   /* sck_pulse_width_ns = */ 40,	/*  */
1588:..\..\..\u8g2\u8g2\csrc/u8x8_d_st75256.c ****   /* sck_clock_hz = */ 4000000UL,	/* since Arduino 1.6.0, the SPI bus speed in Hz. Should be  10000
1589:..\..\..\u8g2\u8g2\csrc/u8x8_d_st75256.c ****   /* spi_mode = */ 0,		/* active high, rising edge */
1590:..\..\..\u8g2\u8g2\csrc/u8x8_d_st75256.c ****   /* i2c_bus_clock_100kHz = */ 4,	/* 400KHz */
1591:..\..\..\u8g2\u8g2\csrc/u8x8_d_st75256.c ****   /* data_setup_time_ns = */ 15,
1592:..\..\..\u8g2\u8g2\csrc/u8x8_d_st75256.c ****   /* write_pulse_width_ns = */ 70,	
1593:..\..\..\u8g2\u8g2\csrc/u8x8_d_st75256.c ****   /* tile_width = */ 24,	
1594:..\..\..\u8g2\u8g2\csrc/u8x8_d_st75256.c ****   /* tile_hight = */ 12,
1595:..\..\..\u8g2\u8g2\csrc/u8x8_d_st75256.c ****   /* default_x_offset = */ 0,	/*  */
1596:..\..\..\u8g2\u8g2\csrc/u8x8_d_st75256.c ****   /* flipmode_x_offset = */ 64,
1597:..\..\..\u8g2\u8g2\csrc/u8x8_d_st75256.c ****   /* pixel_width = */ 192,
1598:..\..\..\u8g2\u8g2\csrc/u8x8_d_st75256.c ****   /* pixel_height = */ 96
1599:..\..\..\u8g2\u8g2\csrc/u8x8_d_st75256.c **** };
1600:..\..\..\u8g2\u8g2\csrc/u8x8_d_st75256.c **** 
1601:..\..\..\u8g2\u8g2\csrc/u8x8_d_st75256.c **** static const uint8_t u8x8_d_st75256_jlx19296_init_seq[] = {
1602:..\..\..\u8g2\u8g2\csrc/u8x8_d_st75256.c ****   U8X8_START_TRANSFER(),             	/* enable chip, delay is part of the transfer start */
1603:..\..\..\u8g2\u8g2\csrc/u8x8_d_st75256.c ****   
1604:..\..\..\u8g2\u8g2\csrc/u8x8_d_st75256.c ****   U8X8_DLY(20),
1605:..\..\..\u8g2\u8g2\csrc/u8x8_d_st75256.c **** 
1606:..\..\..\u8g2\u8g2\csrc/u8x8_d_st75256.c ****   U8X8_C( 0x030 ),				/* select 00 commands */
1607:..\..\..\u8g2\u8g2\csrc/u8x8_d_st75256.c ****   U8X8_C( 0x094 ),				/* sleep out */
1608:..\..\..\u8g2\u8g2\csrc/u8x8_d_st75256.c **** 
1609:..\..\..\u8g2\u8g2\csrc/u8x8_d_st75256.c ****   //U8X8_C( 0x030 ),				/* select 00 commands */
1610:..\..\..\u8g2\u8g2\csrc/u8x8_d_st75256.c ****   U8X8_C( 0x0ae ),				/* display off */
1611:..\..\..\u8g2\u8g2\csrc/u8x8_d_st75256.c **** 
1612:..\..\..\u8g2\u8g2\csrc/u8x8_d_st75256.c ****   U8X8_C( 0x031 ),				/* select 01 commands */
1613:..\..\..\u8g2\u8g2\csrc/u8x8_d_st75256.c ****   U8X8_CA( 0x0d7, 0x09f ),		/* disable auto read */  
1614:..\..\..\u8g2\u8g2\csrc/u8x8_d_st75256.c **** 
1615:..\..\..\u8g2\u8g2\csrc/u8x8_d_st75256.c ****   //U8X8_C( 0x031 ),				/* select 01 commands */
1616:..\..\..\u8g2\u8g2\csrc/u8x8_d_st75256.c ****   U8X8_C( 0x032 ),				/* analog circuit set */
1617:..\..\..\u8g2\u8g2\csrc/u8x8_d_st75256.c ****   U8X8_A( 0x000 ),				/* code example: OSC Frequency adjustment */
1618:..\..\..\u8g2\u8g2\csrc/u8x8_d_st75256.c ****   U8X8_A( 0x001 ),				/* Frequency on booster capacitors 1 = 6KHz? */
1619:..\..\..\u8g2\u8g2\csrc/u8x8_d_st75256.c ****   U8X8_A( 0x003 ),				/* Bias: 1: 1/13, 2: 1/12, 3: 1/11, 4:1/10, 5:1/9 */
ARM GAS  C:\Users\jesse\AppData\Local\Temp\cc6zNusR.s 			page 62


1620:..\..\..\u8g2\u8g2\csrc/u8x8_d_st75256.c ****     
1621:..\..\..\u8g2\u8g2\csrc/u8x8_d_st75256.c ****   //U8X8_C( 0x031 ),				/* select 01 commands */
1622:..\..\..\u8g2\u8g2\csrc/u8x8_d_st75256.c ****   U8X8_C( 0x020 ),				/* gray levels */
1623:..\..\..\u8g2\u8g2\csrc/u8x8_d_st75256.c ****   U8X8_A( 0x01 ),
1624:..\..\..\u8g2\u8g2\csrc/u8x8_d_st75256.c ****   U8X8_A( 0x03 ),
1625:..\..\..\u8g2\u8g2\csrc/u8x8_d_st75256.c ****   U8X8_A( 0x05 ),
1626:..\..\..\u8g2\u8g2\csrc/u8x8_d_st75256.c ****   U8X8_A( 0x07 ),
1627:..\..\..\u8g2\u8g2\csrc/u8x8_d_st75256.c ****   U8X8_A( 0x09),
1628:..\..\..\u8g2\u8g2\csrc/u8x8_d_st75256.c ****   U8X8_A( 0x0b ),
1629:..\..\..\u8g2\u8g2\csrc/u8x8_d_st75256.c ****   U8X8_A( 0x0d ),
1630:..\..\..\u8g2\u8g2\csrc/u8x8_d_st75256.c ****   U8X8_A( 0x10 ),
1631:..\..\..\u8g2\u8g2\csrc/u8x8_d_st75256.c ****   U8X8_A( 0x11 ),
1632:..\..\..\u8g2\u8g2\csrc/u8x8_d_st75256.c ****   U8X8_A( 0x13 ),
1633:..\..\..\u8g2\u8g2\csrc/u8x8_d_st75256.c ****   U8X8_A( 0x15 ),
1634:..\..\..\u8g2\u8g2\csrc/u8x8_d_st75256.c ****   U8X8_A( 0x17 ),
1635:..\..\..\u8g2\u8g2\csrc/u8x8_d_st75256.c ****   U8X8_A( 0x19 ),
1636:..\..\..\u8g2\u8g2\csrc/u8x8_d_st75256.c ****   U8X8_A( 0x1b ),
1637:..\..\..\u8g2\u8g2\csrc/u8x8_d_st75256.c ****   U8X8_A( 0x1d ),
1638:..\..\..\u8g2\u8g2\csrc/u8x8_d_st75256.c ****   U8X8_A( 0x1f ),
1639:..\..\..\u8g2\u8g2\csrc/u8x8_d_st75256.c ****  
1640:..\..\..\u8g2\u8g2\csrc/u8x8_d_st75256.c ****   
1641:..\..\..\u8g2\u8g2\csrc/u8x8_d_st75256.c ****   U8X8_C( 0x030 ),				/* select 00 commands */
1642:..\..\..\u8g2\u8g2\csrc/u8x8_d_st75256.c ****   U8X8_CAA(0x75, 0, 0x4f),		/* row range */
1643:..\..\..\u8g2\u8g2\csrc/u8x8_d_st75256.c ****   U8X8_CAA(0x15, 0, 255),		/* col range */
1644:..\..\..\u8g2\u8g2\csrc/u8x8_d_st75256.c ****   
1645:..\..\..\u8g2\u8g2\csrc/u8x8_d_st75256.c ****   //U8X8_C( 0x030 ),				/* select 00 commands */
1646:..\..\..\u8g2\u8g2\csrc/u8x8_d_st75256.c ****   U8X8_CA( 0xbc, 0x00 ),			/* data scan dir */
1647:..\..\..\u8g2\u8g2\csrc/u8x8_d_st75256.c ****   U8X8_A( 0xa6 ),				/* ??? */
1648:..\..\..\u8g2\u8g2\csrc/u8x8_d_st75256.c **** 
1649:..\..\..\u8g2\u8g2\csrc/u8x8_d_st75256.c ****   //U8X8_C( 0x030 ),				/* select 00 commands */
1650:..\..\..\u8g2\u8g2\csrc/u8x8_d_st75256.c ****   U8X8_C( 0x00c ),				/* data format LSB top */
1651:..\..\..\u8g2\u8g2\csrc/u8x8_d_st75256.c **** 
1652:..\..\..\u8g2\u8g2\csrc/u8x8_d_st75256.c ****   //U8X8_C( 0x030 ),				/* select 00 commands */ 
1653:..\..\..\u8g2\u8g2\csrc/u8x8_d_st75256.c ****   U8X8_C( 0xca ),				/* display control, 3 args follow  */
1654:..\..\..\u8g2\u8g2\csrc/u8x8_d_st75256.c ****   U8X8_A( 0x00 ),				/* 0x00: no clock division, 0x04: devide clock */
1655:..\..\..\u8g2\u8g2\csrc/u8x8_d_st75256.c ****   U8X8_A( 0x9f ),				/* 1/160 duty value from the DS example code */
1656:..\..\..\u8g2\u8g2\csrc/u8x8_d_st75256.c ****   U8X8_A( 0x20 ),				/* nline off */ 
1657:..\..\..\u8g2\u8g2\csrc/u8x8_d_st75256.c **** 
1658:..\..\..\u8g2\u8g2\csrc/u8x8_d_st75256.c ****   //U8X8_C( 0x030 ),				/* select 00 commands */ 
1659:..\..\..\u8g2\u8g2\csrc/u8x8_d_st75256.c ****   U8X8_CA( 0x0f0, 0x010 ),		/* monochrome mode  = 0x010*/
1660:..\..\..\u8g2\u8g2\csrc/u8x8_d_st75256.c **** 
1661:..\..\..\u8g2\u8g2\csrc/u8x8_d_st75256.c ****   //U8X8_C( 0x030 ),				/* select 00 commands */
1662:..\..\..\u8g2\u8g2\csrc/u8x8_d_st75256.c ****   U8X8_CAA( 0x81, 0x2e, 0x03 ),	/* Volume control */
1663:..\..\..\u8g2\u8g2\csrc/u8x8_d_st75256.c **** 
1664:..\..\..\u8g2\u8g2\csrc/u8x8_d_st75256.c ****   //U8X8_C( 0x030 ),				/* select 00 commands */
1665:..\..\..\u8g2\u8g2\csrc/u8x8_d_st75256.c ****   U8X8_CA( 0x020, 0x00b ),		/* Power control: Regulator, follower & booster on */
1666:..\..\..\u8g2\u8g2\csrc/u8x8_d_st75256.c ****   U8X8_DLY(100),
1667:..\..\..\u8g2\u8g2\csrc/u8x8_d_st75256.c **** 
1668:..\..\..\u8g2\u8g2\csrc/u8x8_d_st75256.c ****   U8X8_END_TRANSFER(),             	/* disable chip */
1669:..\..\..\u8g2\u8g2\csrc/u8x8_d_st75256.c ****   U8X8_END()             			/* end of sequence */
1670:..\..\..\u8g2\u8g2\csrc/u8x8_d_st75256.c **** };    
1671:..\..\..\u8g2\u8g2\csrc/u8x8_d_st75256.c **** 
1672:..\..\..\u8g2\u8g2\csrc/u8x8_d_st75256.c **** 
1673:..\..\..\u8g2\u8g2\csrc/u8x8_d_st75256.c **** uint8_t u8x8_d_st75256_jlx19296(u8x8_t *u8x8, uint8_t msg, uint8_t arg_int, void *arg_ptr)
1674:..\..\..\u8g2\u8g2\csrc/u8x8_d_st75256.c **** {
 1796              		.loc 1 1674 0
 1797              		.cfi_startproc
ARM GAS  C:\Users\jesse\AppData\Local\Temp\cc6zNusR.s 			page 63


 1798              		@ args = 0, pretend = 0, frame = 0
 1799              		@ frame_needed = 0, uses_anonymous_args = 0
 1800              	.LVL286:
1675:..\..\..\u8g2\u8g2\csrc/u8x8_d_st75256.c ****   uint8_t x, c;
1676:..\..\..\u8g2\u8g2\csrc/u8x8_d_st75256.c ****   uint8_t *ptr;
1677:..\..\..\u8g2\u8g2\csrc/u8x8_d_st75256.c **** 
1678:..\..\..\u8g2\u8g2\csrc/u8x8_d_st75256.c ****   switch(msg)
 1801              		.loc 1 1678 0
 1802 0000 0939     		subs	r1, r1, #9
 1803              	.LVL287:
1674:..\..\..\u8g2\u8g2\csrc/u8x8_d_st75256.c ****   uint8_t x, c;
 1804              		.loc 1 1674 0
 1805 0002 2DE9F041 		push	{r4, r5, r6, r7, r8, lr}
 1806              		.cfi_def_cfa_offset 24
 1807              		.cfi_offset 4, -24
 1808              		.cfi_offset 5, -20
 1809              		.cfi_offset 6, -16
 1810              		.cfi_offset 7, -12
 1811              		.cfi_offset 8, -8
 1812              		.cfi_offset 14, -4
1674:..\..\..\u8g2\u8g2\csrc/u8x8_d_st75256.c ****   uint8_t x, c;
 1813              		.loc 1 1674 0
 1814 0006 0446     		mov	r4, r0
 1815 0008 1646     		mov	r6, r2
 1816 000a 1F46     		mov	r7, r3
 1817              		.loc 1 1678 0
 1818 000c 0629     		cmp	r1, #6
 1819 000e 00F28680 		bhi	.L175
 1820 0012 DFE801F0 		tbb	[pc, r1]
 1821              	.LVL288:
 1822              	.L163:
 1823 0016 4B       		.byte	(.L162-.L163)/2
 1824 0017 4F       		.byte	(.L164-.L163)/2
 1825 0018 53       		.byte	(.L165-.L163)/2
 1826 0019 84       		.byte	(.L175-.L163)/2
 1827 001a 5B       		.byte	(.L166-.L163)/2
 1828 001b 6A       		.byte	(.L167-.L163)/2
 1829 001c 04       		.byte	(.L168-.L163)/2
 1830 001d 00       		.p2align 1
 1831              	.L168:
1679:..\..\..\u8g2\u8g2\csrc/u8x8_d_st75256.c ****   {
1680:..\..\..\u8g2\u8g2\csrc/u8x8_d_st75256.c ****             case U8X8_MSG_DISPLAY_DRAW_TILE:
1681:..\..\..\u8g2\u8g2\csrc/u8x8_d_st75256.c ****               
1682:..\..\..\u8g2\u8g2\csrc/u8x8_d_st75256.c ****               u8x8_cad_StartTransfer(u8x8);
 1832              		.loc 1 1682 0
 1833 001e FFF7FEFF 		bl	u8x8_cad_StartTransfer
 1834              	.LVL289:
1683:..\..\..\u8g2\u8g2\csrc/u8x8_d_st75256.c ****               x = ((u8x8_tile_t *)arg_ptr)->x_pos;    
1684:..\..\..\u8g2\u8g2\csrc/u8x8_d_st75256.c ****               x *= 8;
1685:..\..\..\u8g2\u8g2\csrc/u8x8_d_st75256.c ****               
1686:..\..\..\u8g2\u8g2\csrc/u8x8_d_st75256.c ****               u8x8_cad_SendCmd(u8x8, 0x030 );	/* select command set */
 1835              		.loc 1 1686 0
 1836 0022 3021     		movs	r1, #48
 1837 0024 2046     		mov	r0, r4
1683:..\..\..\u8g2\u8g2\csrc/u8x8_d_st75256.c ****               x = ((u8x8_tile_t *)arg_ptr)->x_pos;    
 1838              		.loc 1 1683 0
 1839 0026 7D79     		ldrb	r5, [r7, #5]	@ zero_extendqisi2
ARM GAS  C:\Users\jesse\AppData\Local\Temp\cc6zNusR.s 			page 64


 1840              	.LVL290:
 1841              		.loc 1 1686 0
 1842 0028 FFF7FEFF 		bl	u8x8_cad_SendCmd
 1843              	.LVL291:
1687:..\..\..\u8g2\u8g2\csrc/u8x8_d_st75256.c ****               u8x8_cad_SendCmd(u8x8, 0x075 );	/* row */
 1844              		.loc 1 1687 0
 1845 002c 7521     		movs	r1, #117
 1846 002e 2046     		mov	r0, r4
 1847 0030 FFF7FEFF 		bl	u8x8_cad_SendCmd
 1848              	.LVL292:
1688:..\..\..\u8g2\u8g2\csrc/u8x8_d_st75256.c **** 	      if ( u8x8->x_offset == 0 )		/* 0 means flip mode 1, then adjust y value */
 1849              		.loc 1 1688 0
 1850 0034 94F82230 		ldrb	r3, [r4, #34]	@ zero_extendqisi2
1684:..\..\..\u8g2\u8g2\csrc/u8x8_d_st75256.c ****               
 1851              		.loc 1 1684 0
 1852 0038 ED00     		lsls	r5, r5, #3
 1853              	.LVL293:
 1854 003a 5FFA85F8 		uxtb	r8, r5
 1855              	.LVL294:
 1856 003e B979     		ldrb	r1, [r7, #6]	@ zero_extendqisi2
 1857              		.loc 1 1688 0
 1858 0040 0BB9     		cbnz	r3, .L169
1689:..\..\..\u8g2\u8g2\csrc/u8x8_d_st75256.c **** 		u8x8_cad_SendArg(u8x8, 8+(((u8x8_tile_t *)arg_ptr)->y_pos));
 1859              		.loc 1 1689 0
 1860 0042 0831     		adds	r1, r1, #8
 1861 0044 00E0     		b	.L177
 1862              	.L169:
1690:..\..\..\u8g2\u8g2\csrc/u8x8_d_st75256.c **** 	      else
1691:..\..\..\u8g2\u8g2\csrc/u8x8_d_st75256.c **** 		u8x8_cad_SendArg(u8x8, 1+(((u8x8_tile_t *)arg_ptr)->y_pos));
 1863              		.loc 1 1691 0
 1864 0046 0131     		adds	r1, r1, #1
 1865              	.L177:
 1866 0048 C9B2     		uxtb	r1, r1
 1867 004a 2046     		mov	r0, r4
 1868 004c FFF7FEFF 		bl	u8x8_cad_SendArg
 1869              	.LVL295:
1692:..\..\..\u8g2\u8g2\csrc/u8x8_d_st75256.c ****               u8x8_cad_SendArg(u8x8, 0x04f);
 1870              		.loc 1 1692 0
 1871 0050 4F21     		movs	r1, #79
 1872 0052 2046     		mov	r0, r4
 1873 0054 FFF7FEFF 		bl	u8x8_cad_SendArg
 1874              	.LVL296:
1693:..\..\..\u8g2\u8g2\csrc/u8x8_d_st75256.c ****               //u8x8_cad_SendArg(u8x8, (((u8x8_tile_t *)arg_ptr)->y_pos));
1694:..\..\..\u8g2\u8g2\csrc/u8x8_d_st75256.c ****               u8x8_cad_SendCmd(u8x8, 0x015 );	/* col */
 1875              		.loc 1 1694 0
 1876 0058 1521     		movs	r1, #21
 1877 005a 2046     		mov	r0, r4
 1878 005c FFF7FEFF 		bl	u8x8_cad_SendCmd
 1879              	.LVL297:
1695:..\..\..\u8g2\u8g2\csrc/u8x8_d_st75256.c ****               u8x8_cad_SendArg(u8x8, x+u8x8->x_offset);
 1880              		.loc 1 1695 0
 1881 0060 94F82210 		ldrb	r1, [r4, #34]	@ zero_extendqisi2
 1882 0064 2046     		mov	r0, r4
 1883 0066 4144     		add	r1, r1, r8
 1884 0068 C9B2     		uxtb	r1, r1
 1885 006a FFF7FEFF 		bl	u8x8_cad_SendArg
 1886              	.LVL298:
ARM GAS  C:\Users\jesse\AppData\Local\Temp\cc6zNusR.s 			page 65


1696:..\..\..\u8g2\u8g2\csrc/u8x8_d_st75256.c ****               u8x8_cad_SendArg(u8x8, 255);
 1887              		.loc 1 1696 0
 1888 006e FF21     		movs	r1, #255
 1889 0070 2046     		mov	r0, r4
 1890 0072 FFF7FEFF 		bl	u8x8_cad_SendArg
 1891              	.LVL299:
1697:..\..\..\u8g2\u8g2\csrc/u8x8_d_st75256.c ****               u8x8_cad_SendCmd(u8x8, 0x05c );	
 1892              		.loc 1 1697 0
 1893 0076 5C21     		movs	r1, #92
 1894 0078 2046     		mov	r0, r4
 1895 007a FFF7FEFF 		bl	u8x8_cad_SendCmd
 1896              	.LVL300:
 1897              	.L172:
1698:..\..\..\u8g2\u8g2\csrc/u8x8_d_st75256.c ****             
1699:..\..\..\u8g2\u8g2\csrc/u8x8_d_st75256.c ****               
1700:..\..\..\u8g2\u8g2\csrc/u8x8_d_st75256.c ****               do
1701:..\..\..\u8g2\u8g2\csrc/u8x8_d_st75256.c ****               {
1702:..\..\..\u8g2\u8g2\csrc/u8x8_d_st75256.c ****                 c = ((u8x8_tile_t *)arg_ptr)->cnt;
 1898              		.loc 1 1702 0
 1899 007e 3B79     		ldrb	r3, [r7, #4]	@ zero_extendqisi2
 1900              	.LVL301:
1703:..\..\..\u8g2\u8g2\csrc/u8x8_d_st75256.c ****                 ptr = ((u8x8_tile_t *)arg_ptr)->tile_ptr;
 1901              		.loc 1 1703 0
 1902 0080 3A68     		ldr	r2, [r7]
 1903              	.LVL302:
1704:..\..\..\u8g2\u8g2\csrc/u8x8_d_st75256.c ****                 c *= 8;
 1904              		.loc 1 1704 0
 1905 0082 DB00     		lsls	r3, r3, #3
 1906              	.LVL303:
 1907 0084 DDB2     		uxtb	r5, r3
 1908              	.LVL304:
1705:..\..\..\u8g2\u8g2\csrc/u8x8_d_st75256.c **** 
1706:..\..\..\u8g2\u8g2\csrc/u8x8_d_st75256.c ****                 if ( c + x > 192u )
 1909              		.loc 1 1706 0
 1910 0086 05EB0803 		add	r3, r5, r8
 1911 008a C02B     		cmp	r3, #192
 1912              	.LVL305:
1707:..\..\..\u8g2\u8g2\csrc/u8x8_d_st75256.c ****                 {
1708:..\..\..\u8g2\u8g2\csrc/u8x8_d_st75256.c ****                         c = 192u;
1709:..\..\..\u8g2\u8g2\csrc/u8x8_d_st75256.c ****                         c -= x;
 1913              		.loc 1 1709 0
 1914 008c C4BF     		itt	gt
 1915 008e C8F1C003 		rsbgt	r3, r8, #192
 1916 0092 DDB2     		uxtbgt	r5, r3
 1917              	.LVL306:
1710:..\..\..\u8g2\u8g2\csrc/u8x8_d_st75256.c ****                 }
1711:..\..\..\u8g2\u8g2\csrc/u8x8_d_st75256.c ****                       
1712:..\..\..\u8g2\u8g2\csrc/u8x8_d_st75256.c ****                 u8x8_cad_SendData(u8x8, c, ptr); 	
 1918              		.loc 1 1712 0
 1919 0094 2946     		mov	r1, r5
 1920 0096 2046     		mov	r0, r4
1713:..\..\..\u8g2\u8g2\csrc/u8x8_d_st75256.c ****                 x += c;
1714:..\..\..\u8g2\u8g2\csrc/u8x8_d_st75256.c ****                 arg_int--;
 1921              		.loc 1 1714 0
 1922 0098 013E     		subs	r6, r6, #1
 1923              	.LVL307:
1712:..\..\..\u8g2\u8g2\csrc/u8x8_d_st75256.c ****                 x += c;
ARM GAS  C:\Users\jesse\AppData\Local\Temp\cc6zNusR.s 			page 66


 1924              		.loc 1 1712 0
 1925 009a FFF7FEFF 		bl	u8x8_cad_SendData
 1926              	.LVL308:
1713:..\..\..\u8g2\u8g2\csrc/u8x8_d_st75256.c ****                 x += c;
 1927              		.loc 1 1713 0
 1928 009e 4544     		add	r5, r5, r8
 1929              	.LVL309:
1715:..\..\..\u8g2\u8g2\csrc/u8x8_d_st75256.c ****               } while( arg_int > 0 );
 1930              		.loc 1 1715 0
 1931 00a0 16F0FF06 		ands	r6, r6, #255
1713:..\..\..\u8g2\u8g2\csrc/u8x8_d_st75256.c ****                 x += c;
 1932              		.loc 1 1713 0
 1933 00a4 5FFA85F8 		uxtb	r8, r5
 1934              	.LVL310:
 1935              		.loc 1 1715 0
 1936 00a8 E9D1     		bne	.L172
 1937 00aa 32E0     		b	.L179
 1938              	.LVL311:
 1939              	.L162:
1716:..\..\..\u8g2\u8g2\csrc/u8x8_d_st75256.c ****               
1717:..\..\..\u8g2\u8g2\csrc/u8x8_d_st75256.c ****               u8x8_cad_EndTransfer(u8x8);
1718:..\..\..\u8g2\u8g2\csrc/u8x8_d_st75256.c ****               return 1;
1719:..\..\..\u8g2\u8g2\csrc/u8x8_d_st75256.c ****         case U8X8_MSG_DISPLAY_SETUP_MEMORY:
1720:..\..\..\u8g2\u8g2\csrc/u8x8_d_st75256.c ****             //u8x8_SetI2CAddress(u8x8, 0x078);		/* lowest I2C adr of the ST75256 */
1721:..\..\..\u8g2\u8g2\csrc/u8x8_d_st75256.c ****             u8x8_d_helper_display_setup_memory(u8x8, &u8x8_st75256_192x96_display_info);
 1940              		.loc 1 1721 0
 1941 00ac 1D49     		ldr	r1, .L182
 1942 00ae FFF7FEFF 		bl	u8x8_d_helper_display_setup_memory
 1943              	.LVL312:
 1944 00b2 31E0     		b	.L178
 1945              	.LVL313:
 1946              	.L164:
1722:..\..\..\u8g2\u8g2\csrc/u8x8_d_st75256.c ****             return 1;
1723:..\..\..\u8g2\u8g2\csrc/u8x8_d_st75256.c ****         case U8X8_MSG_DISPLAY_INIT:
1724:..\..\..\u8g2\u8g2\csrc/u8x8_d_st75256.c ****             u8x8_d_helper_display_init(u8x8);
 1947              		.loc 1 1724 0
 1948 00b4 FFF7FEFF 		bl	u8x8_d_helper_display_init
 1949              	.LVL314:
1725:..\..\..\u8g2\u8g2\csrc/u8x8_d_st75256.c ****             u8x8_cad_SendSequence(u8x8, u8x8_d_st75256_jlx19296_init_seq);
 1950              		.loc 1 1725 0
 1951 00b8 1B49     		ldr	r1, .L182+4
 1952 00ba 03E0     		b	.L180
 1953              	.LVL315:
 1954              	.L165:
1726:..\..\..\u8g2\u8g2\csrc/u8x8_d_st75256.c ****             return 1;
1727:..\..\..\u8g2\u8g2\csrc/u8x8_d_st75256.c ****         case U8X8_MSG_DISPLAY_SET_POWER_SAVE:
1728:..\..\..\u8g2\u8g2\csrc/u8x8_d_st75256.c ****               if ( arg_int == 0 )
 1955              		.loc 1 1728 0
 1956 00bc 0AB9     		cbnz	r2, .L173
1729:..\..\..\u8g2\u8g2\csrc/u8x8_d_st75256.c ****                 u8x8_cad_SendSequence(u8x8, u8x8_d_st75256_256x128_powersave0_seq);
 1957              		.loc 1 1729 0
 1958 00be 1B49     		ldr	r1, .L182+8
 1959 00c0 00E0     		b	.L180
 1960              	.L173:
1730:..\..\..\u8g2\u8g2\csrc/u8x8_d_st75256.c ****               else
1731:..\..\..\u8g2\u8g2\csrc/u8x8_d_st75256.c ****                 u8x8_cad_SendSequence(u8x8, u8x8_d_st75256_256x128_powersave1_seq);
 1961              		.loc 1 1731 0
ARM GAS  C:\Users\jesse\AppData\Local\Temp\cc6zNusR.s 			page 67


 1962 00c2 1B49     		ldr	r1, .L182+12
 1963              	.LVL316:
 1964              	.L180:
 1965 00c4 2046     		mov	r0, r4
 1966 00c6 FFF7FEFF 		bl	u8x8_cad_SendSequence
 1967              	.LVL317:
 1968 00ca 25E0     		b	.L178
 1969              	.LVL318:
 1970              	.L166:
1732:..\..\..\u8g2\u8g2\csrc/u8x8_d_st75256.c **** 
1733:..\..\..\u8g2\u8g2\csrc/u8x8_d_st75256.c ****               return 1;
1734:..\..\..\u8g2\u8g2\csrc/u8x8_d_st75256.c **** 	case U8X8_MSG_DISPLAY_SET_FLIP_MODE:
1735:..\..\..\u8g2\u8g2\csrc/u8x8_d_st75256.c **** 	    if ( arg_int == 0 )
 1971              		.loc 1 1735 0
 1972 00cc 2AB9     		cbnz	r2, .L174
1736:..\..\..\u8g2\u8g2\csrc/u8x8_d_st75256.c **** 	    {
1737:..\..\..\u8g2\u8g2\csrc/u8x8_d_st75256.c **** 	      u8x8_cad_SendSequence(u8x8, u8x8_d_st75256_jlx256160_flip0_seq);
 1973              		.loc 1 1737 0
 1974 00ce 1949     		ldr	r1, .L182+16
 1975 00d0 FFF7FEFF 		bl	u8x8_cad_SendSequence
 1976              	.LVL319:
1738:..\..\..\u8g2\u8g2\csrc/u8x8_d_st75256.c **** 	      u8x8->x_offset = u8x8->display_info->default_x_offset;
 1977              		.loc 1 1738 0
 1978 00d4 2368     		ldr	r3, [r4]
 1979 00d6 9B7C     		ldrb	r3, [r3, #18]	@ zero_extendqisi2
 1980 00d8 04E0     		b	.L181
 1981              	.LVL320:
 1982              	.L174:
1739:..\..\..\u8g2\u8g2\csrc/u8x8_d_st75256.c **** 	    }
1740:..\..\..\u8g2\u8g2\csrc/u8x8_d_st75256.c **** 	    else
1741:..\..\..\u8g2\u8g2\csrc/u8x8_d_st75256.c **** 	    {
1742:..\..\..\u8g2\u8g2\csrc/u8x8_d_st75256.c **** 	      u8x8_cad_SendSequence(u8x8, u8x8_d_st75256_jlx256160_flip1_seq);
 1983              		.loc 1 1742 0
 1984 00da 1749     		ldr	r1, .L182+20
 1985 00dc FFF7FEFF 		bl	u8x8_cad_SendSequence
 1986              	.LVL321:
1743:..\..\..\u8g2\u8g2\csrc/u8x8_d_st75256.c **** 	      u8x8->x_offset = u8x8->display_info->flipmode_x_offset;
 1987              		.loc 1 1743 0
 1988 00e0 2368     		ldr	r3, [r4]
 1989 00e2 DB7C     		ldrb	r3, [r3, #19]	@ zero_extendqisi2
 1990              	.L181:
 1991 00e4 84F82230 		strb	r3, [r4, #34]
 1992 00e8 16E0     		b	.L178
 1993              	.LVL322:
 1994              	.L167:
1744:..\..\..\u8g2\u8g2\csrc/u8x8_d_st75256.c **** 	    }
1745:..\..\..\u8g2\u8g2\csrc/u8x8_d_st75256.c **** 	    return 1;
1746:..\..\..\u8g2\u8g2\csrc/u8x8_d_st75256.c **** 	    /*
1747:..\..\..\u8g2\u8g2\csrc/u8x8_d_st75256.c **** 	    if ( arg_int == 0 )
1748:..\..\..\u8g2\u8g2\csrc/u8x8_d_st75256.c **** 	    {
1749:..\..\..\u8g2\u8g2\csrc/u8x8_d_st75256.c **** 	      u8x8_cad_SendSequence(u8x8, u8x8_d_st75256_jlx172104_flip0_seq);
1750:..\..\..\u8g2\u8g2\csrc/u8x8_d_st75256.c **** 	      u8x8->x_offset = u8x8->display_info->default_x_offset;
1751:..\..\..\u8g2\u8g2\csrc/u8x8_d_st75256.c **** 	    }
1752:..\..\..\u8g2\u8g2\csrc/u8x8_d_st75256.c **** 	    else
1753:..\..\..\u8g2\u8g2\csrc/u8x8_d_st75256.c **** 	    {
1754:..\..\..\u8g2\u8g2\csrc/u8x8_d_st75256.c **** 	      u8x8_cad_SendSequence(u8x8, u8x8_d_st75256_jlx172104_flip1_seq); 
1755:..\..\..\u8g2\u8g2\csrc/u8x8_d_st75256.c **** 	      u8x8->x_offset = u8x8->display_info->flipmode_x_offset;
ARM GAS  C:\Users\jesse\AppData\Local\Temp\cc6zNusR.s 			page 68


1756:..\..\..\u8g2\u8g2\csrc/u8x8_d_st75256.c **** 	    }
1757:..\..\..\u8g2\u8g2\csrc/u8x8_d_st75256.c **** 	    return 1;
1758:..\..\..\u8g2\u8g2\csrc/u8x8_d_st75256.c **** 	    */
1759:..\..\..\u8g2\u8g2\csrc/u8x8_d_st75256.c **** 		
1760:..\..\..\u8g2\u8g2\csrc/u8x8_d_st75256.c **** #ifdef U8X8_WITH_SET_CONTRAST
1761:..\..\..\u8g2\u8g2\csrc/u8x8_d_st75256.c ****         case U8X8_MSG_DISPLAY_SET_CONTRAST:
1762:..\..\..\u8g2\u8g2\csrc/u8x8_d_st75256.c **** 
1763:..\..\..\u8g2\u8g2\csrc/u8x8_d_st75256.c ****               u8x8_cad_StartTransfer(u8x8);
 1995              		.loc 1 1763 0
 1996 00ea FFF7FEFF 		bl	u8x8_cad_StartTransfer
 1997              	.LVL323:
1764:..\..\..\u8g2\u8g2\csrc/u8x8_d_st75256.c ****               
1765:..\..\..\u8g2\u8g2\csrc/u8x8_d_st75256.c ****               u8x8_cad_SendCmd(u8x8, 0x030 );
 1998              		.loc 1 1765 0
 1999 00ee 3021     		movs	r1, #48
 2000 00f0 2046     		mov	r0, r4
 2001 00f2 FFF7FEFF 		bl	u8x8_cad_SendCmd
 2002              	.LVL324:
1766:..\..\..\u8g2\u8g2\csrc/u8x8_d_st75256.c ****               u8x8_cad_SendCmd(u8x8, 0x081 );  /* there are 9 bit for the volume control */
 2003              		.loc 1 1766 0
 2004 00f6 8121     		movs	r1, #129
 2005 00f8 2046     		mov	r0, r4
 2006 00fa FFF7FEFF 		bl	u8x8_cad_SendCmd
 2007              	.LVL325:
1767:..\..\..\u8g2\u8g2\csrc/u8x8_d_st75256.c ****               u8x8_cad_SendArg(u8x8, (arg_int & 0x1f)<<1 );	/* lower 6 bit */
 2008              		.loc 1 1767 0
 2009 00fe 7100     		lsls	r1, r6, #1
 2010 0100 01F03E01 		and	r1, r1, #62
 2011 0104 2046     		mov	r0, r4
 2012 0106 FFF7FEFF 		bl	u8x8_cad_SendArg
 2013              	.LVL326:
1768:..\..\..\u8g2\u8g2\csrc/u8x8_d_st75256.c ****               u8x8_cad_SendArg(u8x8, (arg_int>>5));		/* upper 3 bit */
 2014              		.loc 1 1768 0
 2015 010a 7109     		lsrs	r1, r6, #5
 2016 010c 2046     		mov	r0, r4
 2017 010e FFF7FEFF 		bl	u8x8_cad_SendArg
 2018              	.LVL327:
 2019              	.L179:
1769:..\..\..\u8g2\u8g2\csrc/u8x8_d_st75256.c ****               
1770:..\..\..\u8g2\u8g2\csrc/u8x8_d_st75256.c ****               u8x8_cad_EndTransfer(u8x8);
 2020              		.loc 1 1770 0
 2021 0112 2046     		mov	r0, r4
 2022 0114 FFF7FEFF 		bl	u8x8_cad_EndTransfer
 2023              	.LVL328:
 2024              	.L178:
1771:..\..\..\u8g2\u8g2\csrc/u8x8_d_st75256.c ****               return 1;
 2025              		.loc 1 1771 0
 2026 0118 0120     		movs	r0, #1
 2027 011a BDE8F081 		pop	{r4, r5, r6, r7, r8, pc}
 2028              	.LVL329:
 2029              	.L175:
1772:..\..\..\u8g2\u8g2\csrc/u8x8_d_st75256.c **** #endif
1773:..\..\..\u8g2\u8g2\csrc/u8x8_d_st75256.c ****   }
1774:..\..\..\u8g2\u8g2\csrc/u8x8_d_st75256.c ****   return 0;
 2030              		.loc 1 1774 0
 2031 011e 0020     		movs	r0, #0
 2032              	.LVL330:
ARM GAS  C:\Users\jesse\AppData\Local\Temp\cc6zNusR.s 			page 69


1775:..\..\..\u8g2\u8g2\csrc/u8x8_d_st75256.c **** }
 2033              		.loc 1 1775 0
 2034 0120 BDE8F081 		pop	{r4, r5, r6, r7, r8, pc}
 2035              	.LVL331:
 2036              	.L183:
 2037              		.align	2
 2038              	.L182:
 2039 0124 60040000 		.word	.LANCHOR0+1120
 2040 0128 78040000 		.word	.LANCHOR0+1144
 2041 012c 00000000 		.word	.LANCHOR0
 2042 0130 0B000000 		.word	.LANCHOR0+11
 2043 0134 59030000 		.word	.LANCHOR0+857
 2044 0138 66030000 		.word	.LANCHOR0+870
 2045              		.cfi_endproc
 2046              	.LFE9:
 2047              		.size	u8x8_d_st75256_jlx19296, .-u8x8_d_st75256_jlx19296
 2048              		.section	.rodata
 2049              		.align	2
 2050              		.set	.LANCHOR0,. + 0
 2051              		.type	u8x8_d_st75256_256x128_powersave0_seq, %object
 2052              		.size	u8x8_d_st75256_256x128_powersave0_seq, 11
 2053              	u8x8_d_st75256_256x128_powersave0_seq:
 2054 0000 18       		.byte	24
 2055 0001 15       		.byte	21
 2056 0002 30       		.byte	48
 2057 0003 15       		.byte	21
 2058 0004 94       		.byte	-108
 2059 0005 FE       		.byte	-2
 2060 0006 0A       		.byte	10
 2061 0007 15       		.byte	21
 2062 0008 AF       		.byte	-81
 2063 0009 19       		.byte	25
 2064 000a FF       		.byte	-1
 2065              		.type	u8x8_d_st75256_256x128_powersave1_seq, %object
 2066              		.size	u8x8_d_st75256_256x128_powersave1_seq, 9
 2067              	u8x8_d_st75256_256x128_powersave1_seq:
 2068 000b 18       		.byte	24
 2069 000c 15       		.byte	21
 2070 000d 30       		.byte	48
 2071 000e 15       		.byte	21
 2072 000f AE       		.byte	-82
 2073 0010 15       		.byte	21
 2074 0011 95       		.byte	-107
 2075 0012 19       		.byte	25
 2076 0013 FF       		.byte	-1
 2077              		.type	u8x8_st75256_256x128_display_info, %object
 2078              		.size	u8x8_st75256_256x128_display_info, 24
 2079              	u8x8_st75256_256x128_display_info:
 2080 0014 00       		.byte	0
 2081 0015 01       		.byte	1
 2082 0016 14       		.byte	20
 2083 0017 14       		.byte	20
 2084 0018 05       		.byte	5
 2085 0019 05       		.byte	5
 2086 001a 14       		.byte	20
 2087 001b 28       		.byte	40
 2088 001c 00093D00 		.word	4000000
ARM GAS  C:\Users\jesse\AppData\Local\Temp\cc6zNusR.s 			page 70


 2089 0020 00       		.byte	0
 2090 0021 04       		.byte	4
 2091 0022 0F       		.byte	15
 2092 0023 46       		.byte	70
 2093 0024 20       		.byte	32
 2094 0025 10       		.byte	16
 2095 0026 00       		.byte	0
 2096 0027 05       		.byte	5
 2097 0028 0001     		.short	256
 2098 002a 8000     		.short	128
 2099              		.type	u8x8_d_st75256_256x128_init_seq, %object
 2100              		.size	u8x8_d_st75256_256x128_init_seq, 105
 2101              	u8x8_d_st75256_256x128_init_seq:
 2102 002c 18       		.byte	24
 2103 002d FE       		.byte	-2
 2104 002e 14       		.byte	20
 2105 002f 15       		.byte	21
 2106 0030 30       		.byte	48
 2107 0031 15       		.byte	21
 2108 0032 94       		.byte	-108
 2109 0033 15       		.byte	21
 2110 0034 AE       		.byte	-82
 2111 0035 15       		.byte	21
 2112 0036 31       		.byte	49
 2113 0037 15       		.byte	21
 2114 0038 D7       		.byte	-41
 2115 0039 16       		.byte	22
 2116 003a 9F       		.byte	-97
 2117 003b 15       		.byte	21
 2118 003c 32       		.byte	50
 2119 003d 16       		.byte	22
 2120 003e 00       		.byte	0
 2121 003f 16       		.byte	22
 2122 0040 01       		.byte	1
 2123 0041 16       		.byte	22
 2124 0042 00       		.byte	0
 2125 0043 15       		.byte	21
 2126 0044 20       		.byte	32
 2127 0045 16       		.byte	22
 2128 0046 01       		.byte	1
 2129 0047 16       		.byte	22
 2130 0048 03       		.byte	3
 2131 0049 16       		.byte	22
 2132 004a 05       		.byte	5
 2133 004b 16       		.byte	22
 2134 004c 07       		.byte	7
 2135 004d 16       		.byte	22
 2136 004e 09       		.byte	9
 2137 004f 16       		.byte	22
 2138 0050 0B       		.byte	11
 2139 0051 16       		.byte	22
 2140 0052 0D       		.byte	13
 2141 0053 16       		.byte	22
 2142 0054 10       		.byte	16
 2143 0055 16       		.byte	22
 2144 0056 11       		.byte	17
 2145 0057 16       		.byte	22
ARM GAS  C:\Users\jesse\AppData\Local\Temp\cc6zNusR.s 			page 71


 2146 0058 13       		.byte	19
 2147 0059 16       		.byte	22
 2148 005a 15       		.byte	21
 2149 005b 16       		.byte	22
 2150 005c 17       		.byte	23
 2151 005d 16       		.byte	22
 2152 005e 19       		.byte	25
 2153 005f 16       		.byte	22
 2154 0060 1B       		.byte	27
 2155 0061 16       		.byte	22
 2156 0062 1D       		.byte	29
 2157 0063 16       		.byte	22
 2158 0064 1F       		.byte	31
 2159 0065 15       		.byte	21
 2160 0066 30       		.byte	48
 2161 0067 15       		.byte	21
 2162 0068 75       		.byte	117
 2163 0069 16       		.byte	22
 2164 006a 00       		.byte	0
 2165 006b 16       		.byte	22
 2166 006c 4F       		.byte	79
 2167 006d 15       		.byte	21
 2168 006e 15       		.byte	21
 2169 006f 16       		.byte	22
 2170 0070 00       		.byte	0
 2171 0071 16       		.byte	22
 2172 0072 FF       		.byte	-1
 2173 0073 15       		.byte	21
 2174 0074 BC       		.byte	-68
 2175 0075 16       		.byte	22
 2176 0076 00       		.byte	0
 2177 0077 16       		.byte	22
 2178 0078 A6       		.byte	-90
 2179 0079 15       		.byte	21
 2180 007a 0C       		.byte	12
 2181 007b 15       		.byte	21
 2182 007c CA       		.byte	-54
 2183 007d 16       		.byte	22
 2184 007e 00       		.byte	0
 2185 007f 16       		.byte	22
 2186 0080 7F       		.byte	127
 2187 0081 16       		.byte	22
 2188 0082 20       		.byte	32
 2189 0083 15       		.byte	21
 2190 0084 F0       		.byte	-16
 2191 0085 16       		.byte	22
 2192 0086 10       		.byte	16
 2193 0087 15       		.byte	21
 2194 0088 81       		.byte	-127
 2195 0089 16       		.byte	22
 2196 008a 36       		.byte	54
 2197 008b 16       		.byte	22
 2198 008c 05       		.byte	5
 2199 008d 15       		.byte	21
 2200 008e 20       		.byte	32
 2201 008f 16       		.byte	22
 2202 0090 0B       		.byte	11
ARM GAS  C:\Users\jesse\AppData\Local\Temp\cc6zNusR.s 			page 72


 2203 0091 FE       		.byte	-2
 2204 0092 64       		.byte	100
 2205 0093 19       		.byte	25
 2206 0094 FF       		.byte	-1
 2207              		.type	u8x8_d_st75256_jlx256128_flip0_seq, %object
 2208              		.size	u8x8_d_st75256_jlx256128_flip0_seq, 13
 2209              	u8x8_d_st75256_jlx256128_flip0_seq:
 2210 0095 18       		.byte	24
 2211 0096 15       		.byte	21
 2212 0097 30       		.byte	48
 2213 0098 15       		.byte	21
 2214 0099 BC       		.byte	-68
 2215 009a 16       		.byte	22
 2216 009b 00       		.byte	0
 2217 009c 16       		.byte	22
 2218 009d A6       		.byte	-90
 2219 009e 15       		.byte	21
 2220 009f 0C       		.byte	12
 2221 00a0 19       		.byte	25
 2222 00a1 FF       		.byte	-1
 2223              		.type	u8x8_d_st75256_jlx256128_flip1_seq, %object
 2224              		.size	u8x8_d_st75256_jlx256128_flip1_seq, 13
 2225              	u8x8_d_st75256_jlx256128_flip1_seq:
 2226 00a2 18       		.byte	24
 2227 00a3 15       		.byte	21
 2228 00a4 30       		.byte	48
 2229 00a5 15       		.byte	21
 2230 00a6 BC       		.byte	-68
 2231 00a7 16       		.byte	22
 2232 00a8 03       		.byte	3
 2233 00a9 16       		.byte	22
 2234 00aa A6       		.byte	-90
 2235 00ab 15       		.byte	21
 2236 00ac 08       		.byte	8
 2237 00ad 19       		.byte	25
 2238 00ae FF       		.byte	-1
 2239 00af 00       		.space	1
 2240              		.type	u8x8_st75256_wo256x128_display_info, %object
 2241              		.size	u8x8_st75256_wo256x128_display_info, 24
 2242              	u8x8_st75256_wo256x128_display_info:
 2243 00b0 00       		.byte	0
 2244 00b1 01       		.byte	1
 2245 00b2 14       		.byte	20
 2246 00b3 14       		.byte	20
 2247 00b4 05       		.byte	5
 2248 00b5 05       		.byte	5
 2249 00b6 14       		.byte	20
 2250 00b7 28       		.byte	40
 2251 00b8 00093D00 		.word	4000000
 2252 00bc 00       		.byte	0
 2253 00bd 04       		.byte	4
 2254 00be 0F       		.byte	15
 2255 00bf 46       		.byte	70
 2256 00c0 20       		.byte	32
 2257 00c1 10       		.byte	16
 2258 00c2 05       		.byte	5
 2259 00c3 00       		.byte	0
ARM GAS  C:\Users\jesse\AppData\Local\Temp\cc6zNusR.s 			page 73


 2260 00c4 0001     		.short	256
 2261 00c6 8000     		.short	128
 2262              		.type	u8x8_d_st75256_wo256x128_init_seq, %object
 2263              		.size	u8x8_d_st75256_wo256x128_init_seq, 105
 2264              	u8x8_d_st75256_wo256x128_init_seq:
 2265 00c8 18       		.byte	24
 2266 00c9 FE       		.byte	-2
 2267 00ca 14       		.byte	20
 2268 00cb 15       		.byte	21
 2269 00cc 30       		.byte	48
 2270 00cd 15       		.byte	21
 2271 00ce 94       		.byte	-108
 2272 00cf 15       		.byte	21
 2273 00d0 AE       		.byte	-82
 2274 00d1 15       		.byte	21
 2275 00d2 31       		.byte	49
 2276 00d3 15       		.byte	21
 2277 00d4 D7       		.byte	-41
 2278 00d5 16       		.byte	22
 2279 00d6 9F       		.byte	-97
 2280 00d7 15       		.byte	21
 2281 00d8 32       		.byte	50
 2282 00d9 16       		.byte	22
 2283 00da 00       		.byte	0
 2284 00db 16       		.byte	22
 2285 00dc 01       		.byte	1
 2286 00dd 16       		.byte	22
 2287 00de 00       		.byte	0
 2288 00df 15       		.byte	21
 2289 00e0 20       		.byte	32
 2290 00e1 16       		.byte	22
 2291 00e2 01       		.byte	1
 2292 00e3 16       		.byte	22
 2293 00e4 03       		.byte	3
 2294 00e5 16       		.byte	22
 2295 00e6 05       		.byte	5
 2296 00e7 16       		.byte	22
 2297 00e8 07       		.byte	7
 2298 00e9 16       		.byte	22
 2299 00ea 09       		.byte	9
 2300 00eb 16       		.byte	22
 2301 00ec 0B       		.byte	11
 2302 00ed 16       		.byte	22
 2303 00ee 0D       		.byte	13
 2304 00ef 16       		.byte	22
 2305 00f0 10       		.byte	16
 2306 00f1 16       		.byte	22
 2307 00f2 11       		.byte	17
 2308 00f3 16       		.byte	22
 2309 00f4 13       		.byte	19
 2310 00f5 16       		.byte	22
 2311 00f6 15       		.byte	21
 2312 00f7 16       		.byte	22
 2313 00f8 17       		.byte	23
 2314 00f9 16       		.byte	22
 2315 00fa 19       		.byte	25
 2316 00fb 16       		.byte	22
ARM GAS  C:\Users\jesse\AppData\Local\Temp\cc6zNusR.s 			page 74


 2317 00fc 1B       		.byte	27
 2318 00fd 16       		.byte	22
 2319 00fe 1D       		.byte	29
 2320 00ff 16       		.byte	22
 2321 0100 1F       		.byte	31
 2322 0101 15       		.byte	21
 2323 0102 30       		.byte	48
 2324 0103 15       		.byte	21
 2325 0104 75       		.byte	117
 2326 0105 16       		.byte	22
 2327 0106 00       		.byte	0
 2328 0107 16       		.byte	22
 2329 0108 4F       		.byte	79
 2330 0109 15       		.byte	21
 2331 010a 15       		.byte	21
 2332 010b 16       		.byte	22
 2333 010c 00       		.byte	0
 2334 010d 16       		.byte	22
 2335 010e FF       		.byte	-1
 2336 010f 15       		.byte	21
 2337 0110 BC       		.byte	-68
 2338 0111 16       		.byte	22
 2339 0112 01       		.byte	1
 2340 0113 16       		.byte	22
 2341 0114 A6       		.byte	-90
 2342 0115 15       		.byte	21
 2343 0116 08       		.byte	8
 2344 0117 15       		.byte	21
 2345 0118 CA       		.byte	-54
 2346 0119 16       		.byte	22
 2347 011a 00       		.byte	0
 2348 011b 16       		.byte	22
 2349 011c 7F       		.byte	127
 2350 011d 16       		.byte	22
 2351 011e 20       		.byte	32
 2352 011f 15       		.byte	21
 2353 0120 F0       		.byte	-16
 2354 0121 16       		.byte	22
 2355 0122 10       		.byte	16
 2356 0123 15       		.byte	21
 2357 0124 81       		.byte	-127
 2358 0125 16       		.byte	22
 2359 0126 36       		.byte	54
 2360 0127 16       		.byte	22
 2361 0128 05       		.byte	5
 2362 0129 15       		.byte	21
 2363 012a 20       		.byte	32
 2364 012b 16       		.byte	22
 2365 012c 0B       		.byte	11
 2366 012d FE       		.byte	-2
 2367 012e 64       		.byte	100
 2368 012f 19       		.byte	25
 2369 0130 FF       		.byte	-1
 2370              		.type	u8x8_d_st75256_jlx172104_flip1_seq, %object
 2371              		.size	u8x8_d_st75256_jlx172104_flip1_seq, 13
 2372              	u8x8_d_st75256_jlx172104_flip1_seq:
 2373 0131 18       		.byte	24
ARM GAS  C:\Users\jesse\AppData\Local\Temp\cc6zNusR.s 			page 75


 2374 0132 15       		.byte	21
 2375 0133 30       		.byte	48
 2376 0134 15       		.byte	21
 2377 0135 BC       		.byte	-68
 2378 0136 16       		.byte	22
 2379 0137 01       		.byte	1
 2380 0138 16       		.byte	22
 2381 0139 A6       		.byte	-90
 2382 013a 15       		.byte	21
 2383 013b 08       		.byte	8
 2384 013c 19       		.byte	25
 2385 013d FF       		.byte	-1
 2386              		.type	u8x8_d_st75256_jlx172104_flip0_seq, %object
 2387              		.size	u8x8_d_st75256_jlx172104_flip0_seq, 13
 2388              	u8x8_d_st75256_jlx172104_flip0_seq:
 2389 013e 18       		.byte	24
 2390 013f 15       		.byte	21
 2391 0140 30       		.byte	48
 2392 0141 15       		.byte	21
 2393 0142 BC       		.byte	-68
 2394 0143 16       		.byte	22
 2395 0144 02       		.byte	2
 2396 0145 16       		.byte	22
 2397 0146 A6       		.byte	-90
 2398 0147 15       		.byte	21
 2399 0148 0C       		.byte	12
 2400 0149 19       		.byte	25
 2401 014a FF       		.byte	-1
 2402 014b 00       		.space	1
 2403              		.type	u8x8_st75256_256x64_display_info, %object
 2404              		.size	u8x8_st75256_256x64_display_info, 24
 2405              	u8x8_st75256_256x64_display_info:
 2406 014c 00       		.byte	0
 2407 014d 01       		.byte	1
 2408 014e 14       		.byte	20
 2409 014f 14       		.byte	20
 2410 0150 05       		.byte	5
 2411 0151 05       		.byte	5
 2412 0152 14       		.byte	20
 2413 0153 28       		.byte	40
 2414 0154 00093D00 		.word	4000000
 2415 0158 00       		.byte	0
 2416 0159 04       		.byte	4
 2417 015a 0F       		.byte	15
 2418 015b 46       		.byte	70
 2419 015c 20       		.byte	32
 2420 015d 08       		.byte	8
 2421 015e 00       		.byte	0
 2422 015f 0D       		.byte	13
 2423 0160 0001     		.short	256
 2424 0162 4000     		.short	64
 2425              		.type	u8x8_d_st75256_256x64_init_seq, %object
 2426              		.size	u8x8_d_st75256_256x64_init_seq, 105
 2427              	u8x8_d_st75256_256x64_init_seq:
 2428 0164 18       		.byte	24
 2429 0165 FE       		.byte	-2
 2430 0166 14       		.byte	20
ARM GAS  C:\Users\jesse\AppData\Local\Temp\cc6zNusR.s 			page 76


 2431 0167 15       		.byte	21
 2432 0168 30       		.byte	48
 2433 0169 15       		.byte	21
 2434 016a 94       		.byte	-108
 2435 016b 15       		.byte	21
 2436 016c AE       		.byte	-82
 2437 016d 15       		.byte	21
 2438 016e 31       		.byte	49
 2439 016f 15       		.byte	21
 2440 0170 D7       		.byte	-41
 2441 0171 16       		.byte	22
 2442 0172 9F       		.byte	-97
 2443 0173 15       		.byte	21
 2444 0174 32       		.byte	50
 2445 0175 16       		.byte	22
 2446 0176 00       		.byte	0
 2447 0177 16       		.byte	22
 2448 0178 01       		.byte	1
 2449 0179 16       		.byte	22
 2450 017a 05       		.byte	5
 2451 017b 15       		.byte	21
 2452 017c 20       		.byte	32
 2453 017d 16       		.byte	22
 2454 017e 01       		.byte	1
 2455 017f 16       		.byte	22
 2456 0180 03       		.byte	3
 2457 0181 16       		.byte	22
 2458 0182 05       		.byte	5
 2459 0183 16       		.byte	22
 2460 0184 07       		.byte	7
 2461 0185 16       		.byte	22
 2462 0186 09       		.byte	9
 2463 0187 16       		.byte	22
 2464 0188 0B       		.byte	11
 2465 0189 16       		.byte	22
 2466 018a 0D       		.byte	13
 2467 018b 16       		.byte	22
 2468 018c 10       		.byte	16
 2469 018d 16       		.byte	22
 2470 018e 11       		.byte	17
 2471 018f 16       		.byte	22
 2472 0190 13       		.byte	19
 2473 0191 16       		.byte	22
 2474 0192 15       		.byte	21
 2475 0193 16       		.byte	22
 2476 0194 17       		.byte	23
 2477 0195 16       		.byte	22
 2478 0196 19       		.byte	25
 2479 0197 16       		.byte	22
 2480 0198 1B       		.byte	27
 2481 0199 16       		.byte	22
 2482 019a 1D       		.byte	29
 2483 019b 16       		.byte	22
 2484 019c 1F       		.byte	31
 2485 019d 15       		.byte	21
 2486 019e 30       		.byte	48
 2487 019f 15       		.byte	21
ARM GAS  C:\Users\jesse\AppData\Local\Temp\cc6zNusR.s 			page 77


 2488 01a0 75       		.byte	117
 2489 01a1 16       		.byte	22
 2490 01a2 00       		.byte	0
 2491 01a3 16       		.byte	22
 2492 01a4 1F       		.byte	31
 2493 01a5 15       		.byte	21
 2494 01a6 15       		.byte	21
 2495 01a7 16       		.byte	22
 2496 01a8 00       		.byte	0
 2497 01a9 16       		.byte	22
 2498 01aa FF       		.byte	-1
 2499 01ab 15       		.byte	21
 2500 01ac BC       		.byte	-68
 2501 01ad 16       		.byte	22
 2502 01ae 00       		.byte	0
 2503 01af 16       		.byte	22
 2504 01b0 A6       		.byte	-90
 2505 01b1 15       		.byte	21
 2506 01b2 0C       		.byte	12
 2507 01b3 15       		.byte	21
 2508 01b4 CA       		.byte	-54
 2509 01b5 16       		.byte	22
 2510 01b6 00       		.byte	0
 2511 01b7 16       		.byte	22
 2512 01b8 3F       		.byte	63
 2513 01b9 16       		.byte	22
 2514 01ba 20       		.byte	32
 2515 01bb 15       		.byte	21
 2516 01bc F0       		.byte	-16
 2517 01bd 16       		.byte	22
 2518 01be 10       		.byte	16
 2519 01bf 15       		.byte	21
 2520 01c0 81       		.byte	-127
 2521 01c1 16       		.byte	22
 2522 01c2 0A       		.byte	10
 2523 01c3 16       		.byte	22
 2524 01c4 02       		.byte	2
 2525 01c5 15       		.byte	21
 2526 01c6 20       		.byte	32
 2527 01c7 16       		.byte	22
 2528 01c8 0B       		.byte	11
 2529 01c9 FE       		.byte	-2
 2530 01ca 64       		.byte	100
 2531 01cb 19       		.byte	25
 2532 01cc FF       		.byte	-1
 2533 01cd 000000   		.space	3
 2534              		.type	u8x8_st75256_172x104_display_info, %object
 2535              		.size	u8x8_st75256_172x104_display_info, 24
 2536              	u8x8_st75256_172x104_display_info:
 2537 01d0 00       		.byte	0
 2538 01d1 01       		.byte	1
 2539 01d2 14       		.byte	20
 2540 01d3 14       		.byte	20
 2541 01d4 05       		.byte	5
 2542 01d5 05       		.byte	5
 2543 01d6 14       		.byte	20
 2544 01d7 28       		.byte	40
ARM GAS  C:\Users\jesse\AppData\Local\Temp\cc6zNusR.s 			page 78


 2545 01d8 00093D00 		.word	4000000
 2546 01dc 00       		.byte	0
 2547 01dd 04       		.byte	4
 2548 01de 0F       		.byte	15
 2549 01df 46       		.byte	70
 2550 01e0 16       		.byte	22
 2551 01e1 0D       		.byte	13
 2552 01e2 54       		.byte	84
 2553 01e3 00       		.byte	0
 2554 01e4 AC00     		.short	172
 2555 01e6 6800     		.short	104
 2556              		.type	u8x8_d_st75256_jlx172104_init_seq, %object
 2557              		.size	u8x8_d_st75256_jlx172104_init_seq, 105
 2558              	u8x8_d_st75256_jlx172104_init_seq:
 2559 01e8 18       		.byte	24
 2560 01e9 FE       		.byte	-2
 2561 01ea 14       		.byte	20
 2562 01eb 15       		.byte	21
 2563 01ec 30       		.byte	48
 2564 01ed 15       		.byte	21
 2565 01ee 94       		.byte	-108
 2566 01ef 15       		.byte	21
 2567 01f0 AE       		.byte	-82
 2568 01f1 15       		.byte	21
 2569 01f2 31       		.byte	49
 2570 01f3 15       		.byte	21
 2571 01f4 D7       		.byte	-41
 2572 01f5 16       		.byte	22
 2573 01f6 9F       		.byte	-97
 2574 01f7 15       		.byte	21
 2575 01f8 32       		.byte	50
 2576 01f9 16       		.byte	22
 2577 01fa 00       		.byte	0
 2578 01fb 16       		.byte	22
 2579 01fc 01       		.byte	1
 2580 01fd 16       		.byte	22
 2581 01fe 03       		.byte	3
 2582 01ff 15       		.byte	21
 2583 0200 20       		.byte	32
 2584 0201 16       		.byte	22
 2585 0202 01       		.byte	1
 2586 0203 16       		.byte	22
 2587 0204 03       		.byte	3
 2588 0205 16       		.byte	22
 2589 0206 05       		.byte	5
 2590 0207 16       		.byte	22
 2591 0208 07       		.byte	7
 2592 0209 16       		.byte	22
 2593 020a 09       		.byte	9
 2594 020b 16       		.byte	22
 2595 020c 0B       		.byte	11
 2596 020d 16       		.byte	22
 2597 020e 0D       		.byte	13
 2598 020f 16       		.byte	22
 2599 0210 10       		.byte	16
 2600 0211 16       		.byte	22
 2601 0212 11       		.byte	17
ARM GAS  C:\Users\jesse\AppData\Local\Temp\cc6zNusR.s 			page 79


 2602 0213 16       		.byte	22
 2603 0214 13       		.byte	19
 2604 0215 16       		.byte	22
 2605 0216 15       		.byte	21
 2606 0217 16       		.byte	22
 2607 0218 17       		.byte	23
 2608 0219 16       		.byte	22
 2609 021a 19       		.byte	25
 2610 021b 16       		.byte	22
 2611 021c 1B       		.byte	27
 2612 021d 16       		.byte	22
 2613 021e 1D       		.byte	29
 2614 021f 16       		.byte	22
 2615 0220 1F       		.byte	31
 2616 0221 15       		.byte	21
 2617 0222 30       		.byte	48
 2618 0223 15       		.byte	21
 2619 0224 75       		.byte	117
 2620 0225 16       		.byte	22
 2621 0226 00       		.byte	0
 2622 0227 16       		.byte	22
 2623 0228 4F       		.byte	79
 2624 0229 15       		.byte	21
 2625 022a 15       		.byte	21
 2626 022b 16       		.byte	22
 2627 022c 00       		.byte	0
 2628 022d 16       		.byte	22
 2629 022e FF       		.byte	-1
 2630 022f 15       		.byte	21
 2631 0230 BC       		.byte	-68
 2632 0231 16       		.byte	22
 2633 0232 02       		.byte	2
 2634 0233 16       		.byte	22
 2635 0234 A6       		.byte	-90
 2636 0235 15       		.byte	21
 2637 0236 0C       		.byte	12
 2638 0237 15       		.byte	21
 2639 0238 CA       		.byte	-54
 2640 0239 16       		.byte	22
 2641 023a 00       		.byte	0
 2642 023b 16       		.byte	22
 2643 023c 9F       		.byte	-97
 2644 023d 16       		.byte	22
 2645 023e 20       		.byte	32
 2646 023f 15       		.byte	21
 2647 0240 F0       		.byte	-16
 2648 0241 16       		.byte	22
 2649 0242 10       		.byte	16
 2650 0243 15       		.byte	21
 2651 0244 81       		.byte	-127
 2652 0245 16       		.byte	22
 2653 0246 08       		.byte	8
 2654 0247 16       		.byte	22
 2655 0248 04       		.byte	4
 2656 0249 15       		.byte	21
 2657 024a 20       		.byte	32
 2658 024b 16       		.byte	22
ARM GAS  C:\Users\jesse\AppData\Local\Temp\cc6zNusR.s 			page 80


 2659 024c 0B       		.byte	11
 2660 024d FE       		.byte	-2
 2661 024e 64       		.byte	100
 2662 024f 19       		.byte	25
 2663 0250 FF       		.byte	-1
 2664 0251 000000   		.space	3
 2665              		.type	u8x8_st75256_240x160_display_info, %object
 2666              		.size	u8x8_st75256_240x160_display_info, 24
 2667              	u8x8_st75256_240x160_display_info:
 2668 0254 00       		.byte	0
 2669 0255 01       		.byte	1
 2670 0256 14       		.byte	20
 2671 0257 14       		.byte	20
 2672 0258 05       		.byte	5
 2673 0259 05       		.byte	5
 2674 025a 14       		.byte	20
 2675 025b 28       		.byte	40
 2676 025c 00093D00 		.word	4000000
 2677 0260 00       		.byte	0
 2678 0261 04       		.byte	4
 2679 0262 0F       		.byte	15
 2680 0263 46       		.byte	70
 2681 0264 1E       		.byte	30
 2682 0265 14       		.byte	20
 2683 0266 10       		.byte	16
 2684 0267 00       		.byte	0
 2685 0268 F000     		.short	240
 2686 026a A000     		.short	160
 2687              		.type	u8x8_d_st75256_240x160_init_seq, %object
 2688              		.size	u8x8_d_st75256_240x160_init_seq, 105
 2689              	u8x8_d_st75256_240x160_init_seq:
 2690 026c 18       		.byte	24
 2691 026d FE       		.byte	-2
 2692 026e 14       		.byte	20
 2693 026f 15       		.byte	21
 2694 0270 30       		.byte	48
 2695 0271 15       		.byte	21
 2696 0272 94       		.byte	-108
 2697 0273 15       		.byte	21
 2698 0274 AE       		.byte	-82
 2699 0275 15       		.byte	21
 2700 0276 31       		.byte	49
 2701 0277 15       		.byte	21
 2702 0278 D7       		.byte	-41
 2703 0279 16       		.byte	22
 2704 027a 9F       		.byte	-97
 2705 027b 15       		.byte	21
 2706 027c 32       		.byte	50
 2707 027d 16       		.byte	22
 2708 027e 00       		.byte	0
 2709 027f 16       		.byte	22
 2710 0280 01       		.byte	1
 2711 0281 16       		.byte	22
 2712 0282 00       		.byte	0
 2713 0283 15       		.byte	21
 2714 0284 20       		.byte	32
 2715 0285 16       		.byte	22
ARM GAS  C:\Users\jesse\AppData\Local\Temp\cc6zNusR.s 			page 81


 2716 0286 01       		.byte	1
 2717 0287 16       		.byte	22
 2718 0288 03       		.byte	3
 2719 0289 16       		.byte	22
 2720 028a 05       		.byte	5
 2721 028b 16       		.byte	22
 2722 028c 07       		.byte	7
 2723 028d 16       		.byte	22
 2724 028e 09       		.byte	9
 2725 028f 16       		.byte	22
 2726 0290 0B       		.byte	11
 2727 0291 16       		.byte	22
 2728 0292 0D       		.byte	13
 2729 0293 16       		.byte	22
 2730 0294 10       		.byte	16
 2731 0295 16       		.byte	22
 2732 0296 11       		.byte	17
 2733 0297 16       		.byte	22
 2734 0298 13       		.byte	19
 2735 0299 16       		.byte	22
 2736 029a 15       		.byte	21
 2737 029b 16       		.byte	22
 2738 029c 17       		.byte	23
 2739 029d 16       		.byte	22
 2740 029e 19       		.byte	25
 2741 029f 16       		.byte	22
 2742 02a0 1B       		.byte	27
 2743 02a1 16       		.byte	22
 2744 02a2 1D       		.byte	29
 2745 02a3 16       		.byte	22
 2746 02a4 1F       		.byte	31
 2747 02a5 15       		.byte	21
 2748 02a6 30       		.byte	48
 2749 02a7 15       		.byte	21
 2750 02a8 75       		.byte	117
 2751 02a9 16       		.byte	22
 2752 02aa 00       		.byte	0
 2753 02ab 16       		.byte	22
 2754 02ac 4F       		.byte	79
 2755 02ad 15       		.byte	21
 2756 02ae 15       		.byte	21
 2757 02af 16       		.byte	22
 2758 02b0 00       		.byte	0
 2759 02b1 16       		.byte	22
 2760 02b2 EF       		.byte	-17
 2761 02b3 15       		.byte	21
 2762 02b4 BC       		.byte	-68
 2763 02b5 16       		.byte	22
 2764 02b6 02       		.byte	2
 2765 02b7 16       		.byte	22
 2766 02b8 A6       		.byte	-90
 2767 02b9 15       		.byte	21
 2768 02ba 0C       		.byte	12
 2769 02bb 15       		.byte	21
 2770 02bc CA       		.byte	-54
 2771 02bd 16       		.byte	22
 2772 02be 00       		.byte	0
ARM GAS  C:\Users\jesse\AppData\Local\Temp\cc6zNusR.s 			page 82


 2773 02bf 16       		.byte	22
 2774 02c0 9F       		.byte	-97
 2775 02c1 16       		.byte	22
 2776 02c2 20       		.byte	32
 2777 02c3 15       		.byte	21
 2778 02c4 F0       		.byte	-16
 2779 02c5 16       		.byte	22
 2780 02c6 10       		.byte	16
 2781 02c7 15       		.byte	21
 2782 02c8 81       		.byte	-127
 2783 02c9 16       		.byte	22
 2784 02ca 18       		.byte	24
 2785 02cb 16       		.byte	22
 2786 02cc 04       		.byte	4
 2787 02cd 15       		.byte	21
 2788 02ce 20       		.byte	32
 2789 02cf 16       		.byte	22
 2790 02d0 0B       		.byte	11
 2791 02d1 FE       		.byte	-2
 2792 02d2 64       		.byte	100
 2793 02d3 19       		.byte	25
 2794 02d4 FF       		.byte	-1
 2795 02d5 000000   		.space	3
 2796              		.type	u8x8_st75256_256x160_display_info, %object
 2797              		.size	u8x8_st75256_256x160_display_info, 24
 2798              	u8x8_st75256_256x160_display_info:
 2799 02d8 00       		.byte	0
 2800 02d9 01       		.byte	1
 2801 02da 14       		.byte	20
 2802 02db 14       		.byte	20
 2803 02dc 05       		.byte	5
 2804 02dd 05       		.byte	5
 2805 02de 14       		.byte	20
 2806 02df 28       		.byte	40
 2807 02e0 00093D00 		.word	4000000
 2808 02e4 00       		.byte	0
 2809 02e5 04       		.byte	4
 2810 02e6 0F       		.byte	15
 2811 02e7 46       		.byte	70
 2812 02e8 20       		.byte	32
 2813 02e9 14       		.byte	20
 2814 02ea 00       		.byte	0
 2815 02eb 01       		.byte	1
 2816 02ec 0001     		.short	256
 2817 02ee A000     		.short	160
 2818              		.type	u8x8_d_st75256_256x160_init_seq, %object
 2819              		.size	u8x8_d_st75256_256x160_init_seq, 105
 2820              	u8x8_d_st75256_256x160_init_seq:
 2821 02f0 18       		.byte	24
 2822 02f1 FE       		.byte	-2
 2823 02f2 14       		.byte	20
 2824 02f3 15       		.byte	21
 2825 02f4 30       		.byte	48
 2826 02f5 15       		.byte	21
 2827 02f6 94       		.byte	-108
 2828 02f7 15       		.byte	21
 2829 02f8 AE       		.byte	-82
ARM GAS  C:\Users\jesse\AppData\Local\Temp\cc6zNusR.s 			page 83


 2830 02f9 15       		.byte	21
 2831 02fa 31       		.byte	49
 2832 02fb 15       		.byte	21
 2833 02fc D7       		.byte	-41
 2834 02fd 16       		.byte	22
 2835 02fe 9F       		.byte	-97
 2836 02ff 15       		.byte	21
 2837 0300 32       		.byte	50
 2838 0301 16       		.byte	22
 2839 0302 00       		.byte	0
 2840 0303 16       		.byte	22
 2841 0304 01       		.byte	1
 2842 0305 16       		.byte	22
 2843 0306 00       		.byte	0
 2844 0307 15       		.byte	21
 2845 0308 20       		.byte	32
 2846 0309 16       		.byte	22
 2847 030a 01       		.byte	1
 2848 030b 16       		.byte	22
 2849 030c 03       		.byte	3
 2850 030d 16       		.byte	22
 2851 030e 05       		.byte	5
 2852 030f 16       		.byte	22
 2853 0310 07       		.byte	7
 2854 0311 16       		.byte	22
 2855 0312 09       		.byte	9
 2856 0313 16       		.byte	22
 2857 0314 0B       		.byte	11
 2858 0315 16       		.byte	22
 2859 0316 0D       		.byte	13
 2860 0317 16       		.byte	22
 2861 0318 10       		.byte	16
 2862 0319 16       		.byte	22
 2863 031a 11       		.byte	17
 2864 031b 16       		.byte	22
 2865 031c 13       		.byte	19
 2866 031d 16       		.byte	22
 2867 031e 15       		.byte	21
 2868 031f 16       		.byte	22
 2869 0320 17       		.byte	23
 2870 0321 16       		.byte	22
 2871 0322 19       		.byte	25
 2872 0323 16       		.byte	22
 2873 0324 1B       		.byte	27
 2874 0325 16       		.byte	22
 2875 0326 1D       		.byte	29
 2876 0327 16       		.byte	22
 2877 0328 1F       		.byte	31
 2878 0329 15       		.byte	21
 2879 032a 30       		.byte	48
 2880 032b 15       		.byte	21
 2881 032c 75       		.byte	117
 2882 032d 16       		.byte	22
 2883 032e 00       		.byte	0
 2884 032f 16       		.byte	22
 2885 0330 28       		.byte	40
 2886 0331 15       		.byte	21
ARM GAS  C:\Users\jesse\AppData\Local\Temp\cc6zNusR.s 			page 84


 2887 0332 15       		.byte	21
 2888 0333 16       		.byte	22
 2889 0334 00       		.byte	0
 2890 0335 16       		.byte	22
 2891 0336 FF       		.byte	-1
 2892 0337 15       		.byte	21
 2893 0338 BC       		.byte	-68
 2894 0339 16       		.byte	22
 2895 033a 00       		.byte	0
 2896 033b 16       		.byte	22
 2897 033c A6       		.byte	-90
 2898 033d 15       		.byte	21
 2899 033e 0C       		.byte	12
 2900 033f 15       		.byte	21
 2901 0340 CA       		.byte	-54
 2902 0341 16       		.byte	22
 2903 0342 00       		.byte	0
 2904 0343 16       		.byte	22
 2905 0344 9F       		.byte	-97
 2906 0345 16       		.byte	22
 2907 0346 20       		.byte	32
 2908 0347 15       		.byte	21
 2909 0348 F0       		.byte	-16
 2910 0349 16       		.byte	22
 2911 034a 10       		.byte	16
 2912 034b 15       		.byte	21
 2913 034c 81       		.byte	-127
 2914 034d 16       		.byte	22
 2915 034e 18       		.byte	24
 2916 034f 16       		.byte	22
 2917 0350 05       		.byte	5
 2918 0351 15       		.byte	21
 2919 0352 20       		.byte	32
 2920 0353 16       		.byte	22
 2921 0354 0B       		.byte	11
 2922 0355 FE       		.byte	-2
 2923 0356 64       		.byte	100
 2924 0357 19       		.byte	25
 2925 0358 FF       		.byte	-1
 2926              		.type	u8x8_d_st75256_jlx256160_flip0_seq, %object
 2927              		.size	u8x8_d_st75256_jlx256160_flip0_seq, 13
 2928              	u8x8_d_st75256_jlx256160_flip0_seq:
 2929 0359 18       		.byte	24
 2930 035a 15       		.byte	21
 2931 035b 30       		.byte	48
 2932 035c 15       		.byte	21
 2933 035d BC       		.byte	-68
 2934 035e 16       		.byte	22
 2935 035f 00       		.byte	0
 2936 0360 16       		.byte	22
 2937 0361 A6       		.byte	-90
 2938 0362 15       		.byte	21
 2939 0363 0C       		.byte	12
 2940 0364 19       		.byte	25
 2941 0365 FF       		.byte	-1
 2942              		.type	u8x8_d_st75256_jlx256160_flip1_seq, %object
 2943              		.size	u8x8_d_st75256_jlx256160_flip1_seq, 13
ARM GAS  C:\Users\jesse\AppData\Local\Temp\cc6zNusR.s 			page 85


 2944              	u8x8_d_st75256_jlx256160_flip1_seq:
 2945 0366 18       		.byte	24
 2946 0367 15       		.byte	21
 2947 0368 30       		.byte	48
 2948 0369 15       		.byte	21
 2949 036a BC       		.byte	-68
 2950 036b 16       		.byte	22
 2951 036c 03       		.byte	3
 2952 036d 16       		.byte	22
 2953 036e A6       		.byte	-90
 2954 036f 15       		.byte	21
 2955 0370 08       		.byte	8
 2956 0371 19       		.byte	25
 2957 0372 FF       		.byte	-1
 2958              		.type	u8x8_d_st75256_256x160m_init_seq, %object
 2959              		.size	u8x8_d_st75256_256x160m_init_seq, 105
 2960              	u8x8_d_st75256_256x160m_init_seq:
 2961 0373 18       		.byte	24
 2962 0374 FE       		.byte	-2
 2963 0375 14       		.byte	20
 2964 0376 15       		.byte	21
 2965 0377 30       		.byte	48
 2966 0378 15       		.byte	21
 2967 0379 94       		.byte	-108
 2968 037a 15       		.byte	21
 2969 037b AE       		.byte	-82
 2970 037c 15       		.byte	21
 2971 037d 31       		.byte	49
 2972 037e 15       		.byte	21
 2973 037f D7       		.byte	-41
 2974 0380 16       		.byte	22
 2975 0381 9F       		.byte	-97
 2976 0382 15       		.byte	21
 2977 0383 32       		.byte	50
 2978 0384 16       		.byte	22
 2979 0385 00       		.byte	0
 2980 0386 16       		.byte	22
 2981 0387 01       		.byte	1
 2982 0388 16       		.byte	22
 2983 0389 00       		.byte	0
 2984 038a 15       		.byte	21
 2985 038b 20       		.byte	32
 2986 038c 16       		.byte	22
 2987 038d 01       		.byte	1
 2988 038e 16       		.byte	22
 2989 038f 03       		.byte	3
 2990 0390 16       		.byte	22
 2991 0391 05       		.byte	5
 2992 0392 16       		.byte	22
 2993 0393 07       		.byte	7
 2994 0394 16       		.byte	22
 2995 0395 09       		.byte	9
 2996 0396 16       		.byte	22
 2997 0397 0B       		.byte	11
 2998 0398 16       		.byte	22
 2999 0399 0D       		.byte	13
 3000 039a 16       		.byte	22
ARM GAS  C:\Users\jesse\AppData\Local\Temp\cc6zNusR.s 			page 86


 3001 039b 10       		.byte	16
 3002 039c 16       		.byte	22
 3003 039d 11       		.byte	17
 3004 039e 16       		.byte	22
 3005 039f 13       		.byte	19
 3006 03a0 16       		.byte	22
 3007 03a1 15       		.byte	21
 3008 03a2 16       		.byte	22
 3009 03a3 17       		.byte	23
 3010 03a4 16       		.byte	22
 3011 03a5 19       		.byte	25
 3012 03a6 16       		.byte	22
 3013 03a7 1B       		.byte	27
 3014 03a8 16       		.byte	22
 3015 03a9 1D       		.byte	29
 3016 03aa 16       		.byte	22
 3017 03ab 1F       		.byte	31
 3018 03ac 15       		.byte	21
 3019 03ad 30       		.byte	48
 3020 03ae 15       		.byte	21
 3021 03af 75       		.byte	117
 3022 03b0 16       		.byte	22
 3023 03b1 00       		.byte	0
 3024 03b2 16       		.byte	22
 3025 03b3 28       		.byte	40
 3026 03b4 15       		.byte	21
 3027 03b5 15       		.byte	21
 3028 03b6 16       		.byte	22
 3029 03b7 00       		.byte	0
 3030 03b8 16       		.byte	22
 3031 03b9 FF       		.byte	-1
 3032 03ba 15       		.byte	21
 3033 03bb BC       		.byte	-68
 3034 03bc 16       		.byte	22
 3035 03bd 02       		.byte	2
 3036 03be 16       		.byte	22
 3037 03bf A6       		.byte	-90
 3038 03c0 15       		.byte	21
 3039 03c1 0C       		.byte	12
 3040 03c2 15       		.byte	21
 3041 03c3 CA       		.byte	-54
 3042 03c4 16       		.byte	22
 3043 03c5 00       		.byte	0
 3044 03c6 16       		.byte	22
 3045 03c7 9F       		.byte	-97
 3046 03c8 16       		.byte	22
 3047 03c9 20       		.byte	32
 3048 03ca 15       		.byte	21
 3049 03cb F0       		.byte	-16
 3050 03cc 16       		.byte	22
 3051 03cd 10       		.byte	16
 3052 03ce 15       		.byte	21
 3053 03cf 81       		.byte	-127
 3054 03d0 16       		.byte	22
 3055 03d1 18       		.byte	24
 3056 03d2 16       		.byte	22
 3057 03d3 05       		.byte	5
ARM GAS  C:\Users\jesse\AppData\Local\Temp\cc6zNusR.s 			page 87


 3058 03d4 15       		.byte	21
 3059 03d5 20       		.byte	32
 3060 03d6 16       		.byte	22
 3061 03d7 0B       		.byte	11
 3062 03d8 FE       		.byte	-2
 3063 03d9 64       		.byte	100
 3064 03da 19       		.byte	25
 3065 03db FF       		.byte	-1
 3066              		.type	u8x8_st75256_256x160_alt_display_info, %object
 3067              		.size	u8x8_st75256_256x160_alt_display_info, 24
 3068              	u8x8_st75256_256x160_alt_display_info:
 3069 03dc 00       		.byte	0
 3070 03dd 01       		.byte	1
 3071 03de 14       		.byte	20
 3072 03df 14       		.byte	20
 3073 03e0 05       		.byte	5
 3074 03e1 05       		.byte	5
 3075 03e2 14       		.byte	20
 3076 03e3 28       		.byte	40
 3077 03e4 00093D00 		.word	4000000
 3078 03e8 00       		.byte	0
 3079 03e9 04       		.byte	4
 3080 03ea 0F       		.byte	15
 3081 03eb 46       		.byte	70
 3082 03ec 20       		.byte	32
 3083 03ed 14       		.byte	20
 3084 03ee 00       		.byte	0
 3085 03ef 00       		.byte	0
 3086 03f0 0001     		.short	256
 3087 03f2 A000     		.short	160
 3088              		.type	u8x8_d_st75256_256x160_alt_init_seq, %object
 3089              		.size	u8x8_d_st75256_256x160_alt_init_seq, 105
 3090              	u8x8_d_st75256_256x160_alt_init_seq:
 3091 03f4 18       		.byte	24
 3092 03f5 FE       		.byte	-2
 3093 03f6 14       		.byte	20
 3094 03f7 15       		.byte	21
 3095 03f8 30       		.byte	48
 3096 03f9 15       		.byte	21
 3097 03fa 94       		.byte	-108
 3098 03fb 15       		.byte	21
 3099 03fc AE       		.byte	-82
 3100 03fd 15       		.byte	21
 3101 03fe 31       		.byte	49
 3102 03ff 15       		.byte	21
 3103 0400 D7       		.byte	-41
 3104 0401 16       		.byte	22
 3105 0402 9F       		.byte	-97
 3106 0403 15       		.byte	21
 3107 0404 32       		.byte	50
 3108 0405 16       		.byte	22
 3109 0406 00       		.byte	0
 3110 0407 16       		.byte	22
 3111 0408 01       		.byte	1
 3112 0409 16       		.byte	22
 3113 040a 00       		.byte	0
 3114 040b 15       		.byte	21
ARM GAS  C:\Users\jesse\AppData\Local\Temp\cc6zNusR.s 			page 88


 3115 040c 20       		.byte	32
 3116 040d 16       		.byte	22
 3117 040e 01       		.byte	1
 3118 040f 16       		.byte	22
 3119 0410 03       		.byte	3
 3120 0411 16       		.byte	22
 3121 0412 05       		.byte	5
 3122 0413 16       		.byte	22
 3123 0414 07       		.byte	7
 3124 0415 16       		.byte	22
 3125 0416 09       		.byte	9
 3126 0417 16       		.byte	22
 3127 0418 0B       		.byte	11
 3128 0419 16       		.byte	22
 3129 041a 0D       		.byte	13
 3130 041b 16       		.byte	22
 3131 041c 10       		.byte	16
 3132 041d 16       		.byte	22
 3133 041e 11       		.byte	17
 3134 041f 16       		.byte	22
 3135 0420 13       		.byte	19
 3136 0421 16       		.byte	22
 3137 0422 15       		.byte	21
 3138 0423 16       		.byte	22
 3139 0424 17       		.byte	23
 3140 0425 16       		.byte	22
 3141 0426 19       		.byte	25
 3142 0427 16       		.byte	22
 3143 0428 1B       		.byte	27
 3144 0429 16       		.byte	22
 3145 042a 1D       		.byte	29
 3146 042b 16       		.byte	22
 3147 042c 1F       		.byte	31
 3148 042d 15       		.byte	21
 3149 042e 30       		.byte	48
 3150 042f 15       		.byte	21
 3151 0430 75       		.byte	117
 3152 0431 16       		.byte	22
 3153 0432 00       		.byte	0
 3154 0433 16       		.byte	22
 3155 0434 4F       		.byte	79
 3156 0435 15       		.byte	21
 3157 0436 15       		.byte	21
 3158 0437 16       		.byte	22
 3159 0438 00       		.byte	0
 3160 0439 16       		.byte	22
 3161 043a FF       		.byte	-1
 3162 043b 15       		.byte	21
 3163 043c BC       		.byte	-68
 3164 043d 16       		.byte	22
 3165 043e 02       		.byte	2
 3166 043f 16       		.byte	22
 3167 0440 A6       		.byte	-90
 3168 0441 15       		.byte	21
 3169 0442 0C       		.byte	12
 3170 0443 15       		.byte	21
 3171 0444 CA       		.byte	-54
ARM GAS  C:\Users\jesse\AppData\Local\Temp\cc6zNusR.s 			page 89


 3172 0445 16       		.byte	22
 3173 0446 00       		.byte	0
 3174 0447 16       		.byte	22
 3175 0448 9F       		.byte	-97
 3176 0449 16       		.byte	22
 3177 044a 20       		.byte	32
 3178 044b 15       		.byte	21
 3179 044c F0       		.byte	-16
 3180 044d 16       		.byte	22
 3181 044e 10       		.byte	16
 3182 044f 15       		.byte	21
 3183 0450 81       		.byte	-127
 3184 0451 16       		.byte	22
 3185 0452 18       		.byte	24
 3186 0453 16       		.byte	22
 3187 0454 05       		.byte	5
 3188 0455 15       		.byte	21
 3189 0456 20       		.byte	32
 3190 0457 16       		.byte	22
 3191 0458 0B       		.byte	11
 3192 0459 FE       		.byte	-2
 3193 045a 64       		.byte	100
 3194 045b 19       		.byte	25
 3195 045c FF       		.byte	-1
 3196 045d 000000   		.space	3
 3197              		.type	u8x8_st75256_192x96_display_info, %object
 3198              		.size	u8x8_st75256_192x96_display_info, 24
 3199              	u8x8_st75256_192x96_display_info:
 3200 0460 00       		.byte	0
 3201 0461 01       		.byte	1
 3202 0462 14       		.byte	20
 3203 0463 14       		.byte	20
 3204 0464 05       		.byte	5
 3205 0465 05       		.byte	5
 3206 0466 14       		.byte	20
 3207 0467 28       		.byte	40
 3208 0468 00093D00 		.word	4000000
 3209 046c 00       		.byte	0
 3210 046d 04       		.byte	4
 3211 046e 0F       		.byte	15
 3212 046f 46       		.byte	70
 3213 0470 18       		.byte	24
 3214 0471 0C       		.byte	12
 3215 0472 00       		.byte	0
 3216 0473 40       		.byte	64
 3217 0474 C000     		.short	192
 3218 0476 6000     		.short	96
 3219              		.type	u8x8_d_st75256_jlx19296_init_seq, %object
 3220              		.size	u8x8_d_st75256_jlx19296_init_seq, 105
 3221              	u8x8_d_st75256_jlx19296_init_seq:
 3222 0478 18       		.byte	24
 3223 0479 FE       		.byte	-2
 3224 047a 14       		.byte	20
 3225 047b 15       		.byte	21
 3226 047c 30       		.byte	48
 3227 047d 15       		.byte	21
 3228 047e 94       		.byte	-108
ARM GAS  C:\Users\jesse\AppData\Local\Temp\cc6zNusR.s 			page 90


 3229 047f 15       		.byte	21
 3230 0480 AE       		.byte	-82
 3231 0481 15       		.byte	21
 3232 0482 31       		.byte	49
 3233 0483 15       		.byte	21
 3234 0484 D7       		.byte	-41
 3235 0485 16       		.byte	22
 3236 0486 9F       		.byte	-97
 3237 0487 15       		.byte	21
 3238 0488 32       		.byte	50
 3239 0489 16       		.byte	22
 3240 048a 00       		.byte	0
 3241 048b 16       		.byte	22
 3242 048c 01       		.byte	1
 3243 048d 16       		.byte	22
 3244 048e 03       		.byte	3
 3245 048f 15       		.byte	21
 3246 0490 20       		.byte	32
 3247 0491 16       		.byte	22
 3248 0492 01       		.byte	1
 3249 0493 16       		.byte	22
 3250 0494 03       		.byte	3
 3251 0495 16       		.byte	22
 3252 0496 05       		.byte	5
 3253 0497 16       		.byte	22
 3254 0498 07       		.byte	7
 3255 0499 16       		.byte	22
 3256 049a 09       		.byte	9
 3257 049b 16       		.byte	22
 3258 049c 0B       		.byte	11
 3259 049d 16       		.byte	22
 3260 049e 0D       		.byte	13
 3261 049f 16       		.byte	22
 3262 04a0 10       		.byte	16
 3263 04a1 16       		.byte	22
 3264 04a2 11       		.byte	17
 3265 04a3 16       		.byte	22
 3266 04a4 13       		.byte	19
 3267 04a5 16       		.byte	22
 3268 04a6 15       		.byte	21
 3269 04a7 16       		.byte	22
 3270 04a8 17       		.byte	23
 3271 04a9 16       		.byte	22
 3272 04aa 19       		.byte	25
 3273 04ab 16       		.byte	22
 3274 04ac 1B       		.byte	27
 3275 04ad 16       		.byte	22
 3276 04ae 1D       		.byte	29
 3277 04af 16       		.byte	22
 3278 04b0 1F       		.byte	31
 3279 04b1 15       		.byte	21
 3280 04b2 30       		.byte	48
 3281 04b3 15       		.byte	21
 3282 04b4 75       		.byte	117
 3283 04b5 16       		.byte	22
 3284 04b6 00       		.byte	0
 3285 04b7 16       		.byte	22
ARM GAS  C:\Users\jesse\AppData\Local\Temp\cc6zNusR.s 			page 91


 3286 04b8 4F       		.byte	79
 3287 04b9 15       		.byte	21
 3288 04ba 15       		.byte	21
 3289 04bb 16       		.byte	22
 3290 04bc 00       		.byte	0
 3291 04bd 16       		.byte	22
 3292 04be FF       		.byte	-1
 3293 04bf 15       		.byte	21
 3294 04c0 BC       		.byte	-68
 3295 04c1 16       		.byte	22
 3296 04c2 00       		.byte	0
 3297 04c3 16       		.byte	22
 3298 04c4 A6       		.byte	-90
 3299 04c5 15       		.byte	21
 3300 04c6 0C       		.byte	12
 3301 04c7 15       		.byte	21
 3302 04c8 CA       		.byte	-54
 3303 04c9 16       		.byte	22
 3304 04ca 00       		.byte	0
 3305 04cb 16       		.byte	22
 3306 04cc 9F       		.byte	-97
 3307 04cd 16       		.byte	22
 3308 04ce 20       		.byte	32
 3309 04cf 15       		.byte	21
 3310 04d0 F0       		.byte	-16
 3311 04d1 16       		.byte	22
 3312 04d2 10       		.byte	16
 3313 04d3 15       		.byte	21
 3314 04d4 81       		.byte	-127
 3315 04d5 16       		.byte	22
 3316 04d6 2E       		.byte	46
 3317 04d7 16       		.byte	22
 3318 04d8 03       		.byte	3
 3319 04d9 15       		.byte	21
 3320 04da 20       		.byte	32
 3321 04db 16       		.byte	22
 3322 04dc 0B       		.byte	11
 3323 04dd FE       		.byte	-2
 3324 04de 64       		.byte	100
 3325 04df 19       		.byte	25
 3326 04e0 FF       		.byte	-1
 3327              		.text
 3328              	.Letext0:
 3329              		.file 2 "c:\\program files (x86)\\cypress\\psoc creator\\4.4\\psoc creator\\import\\gnu\\arm\\5.4.
 3330              		.file 3 "c:\\program files (x86)\\cypress\\psoc creator\\4.4\\psoc creator\\import\\gnu\\arm\\5.4.
 3331              		.file 4 "..\\..\\..\\u8g2\\u8g2\\csrc\\u8x8.h"
 3332              		.section	.debug_info,"",%progbits
 3333              	.Ldebug_info0:
 3334 0000 071A0000 		.4byte	0x1a07
 3335 0004 0400     		.2byte	0x4
 3336 0006 00000000 		.4byte	.Ldebug_abbrev0
 3337 000a 04       		.byte	0x4
 3338 000b 01       		.uleb128 0x1
 3339 000c EB000000 		.4byte	.LASF111
 3340 0010 0C       		.byte	0xc
 3341 0011 76060000 		.4byte	.LASF112
 3342 0015 CA020000 		.4byte	.LASF113
ARM GAS  C:\Users\jesse\AppData\Local\Temp\cc6zNusR.s 			page 92


 3343 0019 00000000 		.4byte	.Ldebug_ranges0+0
 3344 001d 00000000 		.4byte	0
 3345 0021 00000000 		.4byte	.Ldebug_line0
 3346 0025 02       		.uleb128 0x2
 3347 0026 01       		.byte	0x1
 3348 0027 06       		.byte	0x6
 3349 0028 DF000000 		.4byte	.LASF0
 3350 002c 03       		.uleb128 0x3
 3351 002d 52000000 		.4byte	.LASF3
 3352 0031 02       		.byte	0x2
 3353 0032 1D       		.byte	0x1d
 3354 0033 37000000 		.4byte	0x37
 3355 0037 02       		.uleb128 0x2
 3356 0038 01       		.byte	0x1
 3357 0039 08       		.byte	0x8
 3358 003a F1060000 		.4byte	.LASF1
 3359 003e 02       		.uleb128 0x2
 3360 003f 02       		.byte	0x2
 3361 0040 05       		.byte	0x5
 3362 0041 FF060000 		.4byte	.LASF2
 3363 0045 03       		.uleb128 0x3
 3364 0046 CC070000 		.4byte	.LASF4
 3365 004a 02       		.byte	0x2
 3366 004b 2B       		.byte	0x2b
 3367 004c 50000000 		.4byte	0x50
 3368 0050 02       		.uleb128 0x2
 3369 0051 02       		.byte	0x2
 3370 0052 07       		.byte	0x7
 3371 0053 82040000 		.4byte	.LASF5
 3372 0057 02       		.uleb128 0x2
 3373 0058 04       		.byte	0x4
 3374 0059 05       		.byte	0x5
 3375 005a B2010000 		.4byte	.LASF6
 3376 005e 03       		.uleb128 0x3
 3377 005f 30030000 		.4byte	.LASF7
 3378 0063 02       		.byte	0x2
 3379 0064 41       		.byte	0x41
 3380 0065 69000000 		.4byte	0x69
 3381 0069 02       		.uleb128 0x2
 3382 006a 04       		.byte	0x4
 3383 006b 07       		.byte	0x7
 3384 006c DD030000 		.4byte	.LASF8
 3385 0070 02       		.uleb128 0x2
 3386 0071 08       		.byte	0x8
 3387 0072 05       		.byte	0x5
 3388 0073 D1000000 		.4byte	.LASF9
 3389 0077 02       		.uleb128 0x2
 3390 0078 08       		.byte	0x8
 3391 0079 07       		.byte	0x7
 3392 007a 75000000 		.4byte	.LASF10
 3393 007e 04       		.uleb128 0x4
 3394 007f 04       		.byte	0x4
 3395 0080 05       		.byte	0x5
 3396 0081 696E7400 		.ascii	"int\000"
 3397 0085 02       		.uleb128 0x2
 3398 0086 04       		.byte	0x4
 3399 0087 07       		.byte	0x7
ARM GAS  C:\Users\jesse\AppData\Local\Temp\cc6zNusR.s 			page 93


 3400 0088 BC030000 		.4byte	.LASF11
 3401 008c 03       		.uleb128 0x3
 3402 008d 06090000 		.4byte	.LASF12
 3403 0091 03       		.byte	0x3
 3404 0092 18       		.byte	0x18
 3405 0093 2C000000 		.4byte	0x2c
 3406 0097 03       		.uleb128 0x3
 3407 0098 4D020000 		.4byte	.LASF13
 3408 009c 03       		.byte	0x3
 3409 009d 24       		.byte	0x24
 3410 009e 45000000 		.4byte	0x45
 3411 00a2 03       		.uleb128 0x3
 3412 00a3 88070000 		.4byte	.LASF14
 3413 00a7 03       		.byte	0x3
 3414 00a8 30       		.byte	0x30
 3415 00a9 5E000000 		.4byte	0x5e
 3416 00ad 05       		.uleb128 0x5
 3417 00ae 04       		.byte	0x4
 3418 00af 02       		.uleb128 0x2
 3419 00b0 08       		.byte	0x8
 3420 00b1 04       		.byte	0x4
 3421 00b2 97050000 		.4byte	.LASF15
 3422 00b6 03       		.uleb128 0x3
 3423 00b7 26080000 		.4byte	.LASF16
 3424 00bb 04       		.byte	0x4
 3425 00bc D3       		.byte	0xd3
 3426 00bd C1000000 		.4byte	0xc1
 3427 00c1 06       		.uleb128 0x6
 3428 00c2 11050000 		.4byte	.LASF37
 3429 00c6 2C       		.byte	0x2c
 3430 00c7 04       		.byte	0x4
 3431 00c8 5601     		.2byte	0x156
 3432 00ca C6010000 		.4byte	0x1c6
 3433 00ce 07       		.uleb128 0x7
 3434 00cf F1040000 		.4byte	.LASF17
 3435 00d3 04       		.byte	0x4
 3436 00d4 5801     		.2byte	0x158
 3437 00d6 76030000 		.4byte	0x376
 3438 00da 00       		.byte	0
 3439 00db 07       		.uleb128 0x7
 3440 00dc 56020000 		.4byte	.LASF18
 3441 00e0 04       		.byte	0x4
 3442 00e1 5901     		.2byte	0x159
 3443 00e3 4B030000 		.4byte	0x34b
 3444 00e7 04       		.byte	0x4
 3445 00e8 07       		.uleb128 0x7
 3446 00e9 8E010000 		.4byte	.LASF19
 3447 00ed 04       		.byte	0x4
 3448 00ee 5A01     		.2byte	0x15a
 3449 00f0 16030000 		.4byte	0x316
 3450 00f4 08       		.byte	0x8
 3451 00f5 07       		.uleb128 0x7
 3452 00f6 C6050000 		.4byte	.LASF20
 3453 00fa 04       		.byte	0x4
 3454 00fb 5B01     		.2byte	0x15b
 3455 00fd 16030000 		.4byte	0x316
 3456 0101 0C       		.byte	0xc
ARM GAS  C:\Users\jesse\AppData\Local\Temp\cc6zNusR.s 			page 94


 3457 0102 07       		.uleb128 0x7
 3458 0103 5C000000 		.4byte	.LASF21
 3459 0107 04       		.byte	0x4
 3460 0108 5C01     		.2byte	0x15c
 3461 010a 16030000 		.4byte	0x316
 3462 010e 10       		.byte	0x10
 3463 010f 07       		.uleb128 0x7
 3464 0110 6B020000 		.4byte	.LASF22
 3465 0114 04       		.byte	0x4
 3466 0115 5D01     		.2byte	0x15d
 3467 0117 16030000 		.4byte	0x316
 3468 011b 14       		.byte	0x14
 3469 011c 07       		.uleb128 0x7
 3470 011d 2D080000 		.4byte	.LASF23
 3471 0121 04       		.byte	0x4
 3472 0122 5E01     		.2byte	0x15e
 3473 0124 A2000000 		.4byte	0xa2
 3474 0128 18       		.byte	0x18
 3475 0129 07       		.uleb128 0x7
 3476 012a DE080000 		.4byte	.LASF24
 3477 012e 04       		.byte	0x4
 3478 012f 5F01     		.2byte	0x15f
 3479 0131 81030000 		.4byte	0x381
 3480 0135 1C       		.byte	0x1c
 3481 0136 07       		.uleb128 0x7
 3482 0137 50050000 		.4byte	.LASF25
 3483 013b 04       		.byte	0x4
 3484 013c 6001     		.2byte	0x160
 3485 013e 97000000 		.4byte	0x97
 3486 0142 20       		.byte	0x20
 3487 0143 07       		.uleb128 0x7
 3488 0144 1E060000 		.4byte	.LASF26
 3489 0148 04       		.byte	0x4
 3490 0149 6101     		.2byte	0x161
 3491 014b 8C000000 		.4byte	0x8c
 3492 014f 22       		.byte	0x22
 3493 0150 07       		.uleb128 0x7
 3494 0151 79010000 		.4byte	.LASF27
 3495 0155 04       		.byte	0x4
 3496 0156 6201     		.2byte	0x162
 3497 0158 8C000000 		.4byte	0x8c
 3498 015c 23       		.byte	0x23
 3499 015d 07       		.uleb128 0x7
 3500 015e D1030000 		.4byte	.LASF28
 3501 0162 04       		.byte	0x4
 3502 0163 6301     		.2byte	0x163
 3503 0165 8C000000 		.4byte	0x8c
 3504 0169 24       		.byte	0x24
 3505 016a 07       		.uleb128 0x7
 3506 016b 0E090000 		.4byte	.LASF29
 3507 016f 04       		.byte	0x4
 3508 0170 6601     		.2byte	0x166
 3509 0172 8C000000 		.4byte	0x8c
 3510 0176 25       		.byte	0x25
 3511 0177 07       		.uleb128 0x7
 3512 0178 BA000000 		.4byte	.LASF30
 3513 017c 04       		.byte	0x4
ARM GAS  C:\Users\jesse\AppData\Local\Temp\cc6zNusR.s 			page 95


 3514 017d 6801     		.2byte	0x168
 3515 017f 8C000000 		.4byte	0x8c
 3516 0183 26       		.byte	0x26
 3517 0184 07       		.uleb128 0x7
 3518 0185 C5000000 		.4byte	.LASF31
 3519 0189 04       		.byte	0x4
 3520 018a 6901     		.2byte	0x169
 3521 018c 8C000000 		.4byte	0x8c
 3522 0190 27       		.byte	0x27
 3523 0191 07       		.uleb128 0x7
 3524 0192 31090000 		.4byte	.LASF32
 3525 0196 04       		.byte	0x4
 3526 0197 6A01     		.2byte	0x16a
 3527 0199 8C000000 		.4byte	0x8c
 3528 019d 28       		.byte	0x28
 3529 019e 07       		.uleb128 0x7
 3530 019f 95040000 		.4byte	.LASF33
 3531 01a3 04       		.byte	0x4
 3532 01a4 6B01     		.2byte	0x16b
 3533 01a6 8C000000 		.4byte	0x8c
 3534 01aa 29       		.byte	0x29
 3535 01ab 07       		.uleb128 0x7
 3536 01ac 9A080000 		.4byte	.LASF34
 3537 01b0 04       		.byte	0x4
 3538 01b1 6C01     		.2byte	0x16c
 3539 01b3 8C000000 		.4byte	0x8c
 3540 01b7 2A       		.byte	0x2a
 3541 01b8 07       		.uleb128 0x7
 3542 01b9 A8030000 		.4byte	.LASF35
 3543 01bd 04       		.byte	0x4
 3544 01be 6D01     		.2byte	0x16d
 3545 01c0 8C000000 		.4byte	0x8c
 3546 01c4 2B       		.byte	0x2b
 3547 01c5 00       		.byte	0
 3548 01c6 03       		.uleb128 0x3
 3549 01c7 B6020000 		.4byte	.LASF36
 3550 01cb 04       		.byte	0x4
 3551 01cc D4       		.byte	0xd4
 3552 01cd D1010000 		.4byte	0x1d1
 3553 01d1 08       		.uleb128 0x8
 3554 01d2 82090000 		.4byte	.LASF38
 3555 01d6 18       		.byte	0x18
 3556 01d7 04       		.byte	0x4
 3557 01d8 ED       		.byte	0xed
 3558 01d9 CE020000 		.4byte	0x2ce
 3559 01dd 09       		.uleb128 0x9
 3560 01de B1070000 		.4byte	.LASF39
 3561 01e2 04       		.byte	0x4
 3562 01e3 F1       		.byte	0xf1
 3563 01e4 8C000000 		.4byte	0x8c
 3564 01e8 00       		.byte	0
 3565 01e9 09       		.uleb128 0x9
 3566 01ea CB080000 		.4byte	.LASF40
 3567 01ee 04       		.byte	0x4
 3568 01ef F2       		.byte	0xf2
 3569 01f0 8C000000 		.4byte	0x8c
 3570 01f4 01       		.byte	0x1
ARM GAS  C:\Users\jesse\AppData\Local\Temp\cc6zNusR.s 			page 96


 3571 01f5 09       		.uleb128 0x9
 3572 01f6 0D080000 		.4byte	.LASF41
 3573 01fa 04       		.byte	0x4
 3574 01fb F4       		.byte	0xf4
 3575 01fc 8C000000 		.4byte	0x8c
 3576 0200 02       		.byte	0x2
 3577 0201 09       		.uleb128 0x9
 3578 0202 99010000 		.4byte	.LASF42
 3579 0206 04       		.byte	0x4
 3580 0207 F5       		.byte	0xf5
 3581 0208 8C000000 		.4byte	0x8c
 3582 020c 03       		.byte	0x3
 3583 020d 09       		.uleb128 0x9
 3584 020e 3D000000 		.4byte	.LASF43
 3585 0212 04       		.byte	0x4
 3586 0213 F6       		.byte	0xf6
 3587 0214 8C000000 		.4byte	0x8c
 3588 0218 04       		.byte	0x4
 3589 0219 09       		.uleb128 0x9
 3590 021a A7000000 		.4byte	.LASF44
 3591 021e 04       		.byte	0x4
 3592 021f F7       		.byte	0xf7
 3593 0220 8C000000 		.4byte	0x8c
 3594 0224 05       		.byte	0x5
 3595 0225 09       		.uleb128 0x9
 3596 0226 3B030000 		.4byte	.LASF45
 3597 022a 04       		.byte	0x4
 3598 022b FE       		.byte	0xfe
 3599 022c 8C000000 		.4byte	0x8c
 3600 0230 06       		.byte	0x6
 3601 0231 07       		.uleb128 0x7
 3602 0232 FE040000 		.4byte	.LASF46
 3603 0236 04       		.byte	0x4
 3604 0237 0201     		.2byte	0x102
 3605 0239 8C000000 		.4byte	0x8c
 3606 023d 07       		.byte	0x7
 3607 023e 07       		.uleb128 0x7
 3608 023f DB090000 		.4byte	.LASF47
 3609 0243 04       		.byte	0x4
 3610 0244 0501     		.2byte	0x105
 3611 0246 A2000000 		.4byte	0xa2
 3612 024a 08       		.byte	0x8
 3613 024b 07       		.uleb128 0x7
 3614 024c A8070000 		.4byte	.LASF48
 3615 0250 04       		.byte	0x4
 3616 0251 0F01     		.2byte	0x10f
 3617 0253 8C000000 		.4byte	0x8c
 3618 0257 0C       		.byte	0xc
 3619 0258 07       		.uleb128 0x7
 3620 0259 73070000 		.4byte	.LASF49
 3621 025d 04       		.byte	0x4
 3622 025e 1201     		.2byte	0x112
 3623 0260 8C000000 		.4byte	0x8c
 3624 0264 0D       		.byte	0xd
 3625 0265 07       		.uleb128 0x7
 3626 0266 48070000 		.4byte	.LASF50
 3627 026a 04       		.byte	0x4
ARM GAS  C:\Users\jesse\AppData\Local\Temp\cc6zNusR.s 			page 97


 3628 026b 1801     		.2byte	0x118
 3629 026d 8C000000 		.4byte	0x8c
 3630 0271 0E       		.byte	0xe
 3631 0272 07       		.uleb128 0x7
 3632 0273 09060000 		.4byte	.LASF51
 3633 0277 04       		.byte	0x4
 3634 0278 1A01     		.2byte	0x11a
 3635 027a 8C000000 		.4byte	0x8c
 3636 027e 0F       		.byte	0xf
 3637 027f 07       		.uleb128 0x7
 3638 0280 26090000 		.4byte	.LASF52
 3639 0284 04       		.byte	0x4
 3640 0285 1D01     		.2byte	0x11d
 3641 0287 8C000000 		.4byte	0x8c
 3642 028b 10       		.byte	0x10
 3643 028c 07       		.uleb128 0x7
 3644 028d 6A060000 		.4byte	.LASF53
 3645 0291 04       		.byte	0x4
 3646 0292 1E01     		.2byte	0x11e
 3647 0294 8C000000 		.4byte	0x8c
 3648 0298 11       		.byte	0x11
 3649 0299 07       		.uleb128 0x7
 3650 029a 3F050000 		.4byte	.LASF54
 3651 029e 04       		.byte	0x4
 3652 029f 2001     		.2byte	0x120
 3653 02a1 8C000000 		.4byte	0x8c
 3654 02a5 12       		.byte	0x12
 3655 02a6 07       		.uleb128 0x7
 3656 02a7 59050000 		.4byte	.LASF55
 3657 02ab 04       		.byte	0x4
 3658 02ac 2101     		.2byte	0x121
 3659 02ae 8C000000 		.4byte	0x8c
 3660 02b2 13       		.byte	0x13
 3661 02b3 07       		.uleb128 0x7
 3662 02b4 1A090000 		.4byte	.LASF56
 3663 02b8 04       		.byte	0x4
 3664 02b9 2901     		.2byte	0x129
 3665 02bb 97000000 		.4byte	0x97
 3666 02bf 14       		.byte	0x14
 3667 02c0 07       		.uleb128 0x7
 3668 02c1 CE090000 		.4byte	.LASF57
 3669 02c5 04       		.byte	0x4
 3670 02c6 2A01     		.2byte	0x12a
 3671 02c8 97000000 		.4byte	0x97
 3672 02cc 16       		.byte	0x16
 3673 02cd 00       		.byte	0
 3674 02ce 03       		.uleb128 0x3
 3675 02cf 9C030000 		.4byte	.LASF58
 3676 02d3 04       		.byte	0x4
 3677 02d4 D5       		.byte	0xd5
 3678 02d5 D9020000 		.4byte	0x2d9
 3679 02d9 08       		.uleb128 0x8
 3680 02da 64000000 		.4byte	.LASF59
 3681 02de 08       		.byte	0x8
 3682 02df 04       		.byte	0x4
 3683 02e0 E4       		.byte	0xe4
 3684 02e1 16030000 		.4byte	0x316
ARM GAS  C:\Users\jesse\AppData\Local\Temp\cc6zNusR.s 			page 98


 3685 02e5 09       		.uleb128 0x9
 3686 02e6 C3070000 		.4byte	.LASF60
 3687 02ea 04       		.byte	0x4
 3688 02eb E6       		.byte	0xe6
 3689 02ec 70030000 		.4byte	0x370
 3690 02f0 00       		.byte	0
 3691 02f1 0A       		.uleb128 0xa
 3692 02f2 636E7400 		.ascii	"cnt\000"
 3693 02f6 04       		.byte	0x4
 3694 02f7 E7       		.byte	0xe7
 3695 02f8 8C000000 		.4byte	0x8c
 3696 02fc 04       		.byte	0x4
 3697 02fd 09       		.uleb128 0x9
 3698 02fe 70030000 		.4byte	.LASF61
 3699 0302 04       		.byte	0x4
 3700 0303 E8       		.byte	0xe8
 3701 0304 8C000000 		.4byte	0x8c
 3702 0308 05       		.byte	0x5
 3703 0309 09       		.uleb128 0x9
 3704 030a 4C090000 		.4byte	.LASF62
 3705 030e 04       		.byte	0x4
 3706 030f E9       		.byte	0xe9
 3707 0310 8C000000 		.4byte	0x8c
 3708 0314 06       		.byte	0x6
 3709 0315 00       		.byte	0
 3710 0316 03       		.uleb128 0x3
 3711 0317 E5060000 		.4byte	.LASF63
 3712 031b 04       		.byte	0x4
 3713 031c D7       		.byte	0xd7
 3714 031d 21030000 		.4byte	0x321
 3715 0321 0B       		.uleb128 0xb
 3716 0322 04       		.byte	0x4
 3717 0323 27030000 		.4byte	0x327
 3718 0327 0C       		.uleb128 0xc
 3719 0328 8C000000 		.4byte	0x8c
 3720 032c 45030000 		.4byte	0x345
 3721 0330 0D       		.uleb128 0xd
 3722 0331 45030000 		.4byte	0x345
 3723 0335 0D       		.uleb128 0xd
 3724 0336 8C000000 		.4byte	0x8c
 3725 033a 0D       		.uleb128 0xd
 3726 033b 8C000000 		.4byte	0x8c
 3727 033f 0D       		.uleb128 0xd
 3728 0340 AD000000 		.4byte	0xad
 3729 0344 00       		.byte	0
 3730 0345 0B       		.uleb128 0xb
 3731 0346 04       		.byte	0x4
 3732 0347 B6000000 		.4byte	0xb6
 3733 034b 03       		.uleb128 0x3
 3734 034c 5E020000 		.4byte	.LASF64
 3735 0350 04       		.byte	0x4
 3736 0351 D8       		.byte	0xd8
 3737 0352 56030000 		.4byte	0x356
 3738 0356 0B       		.uleb128 0xb
 3739 0357 04       		.byte	0x4
 3740 0358 5C030000 		.4byte	0x35c
 3741 035c 0C       		.uleb128 0xc
ARM GAS  C:\Users\jesse\AppData\Local\Temp\cc6zNusR.s 			page 99


 3742 035d 97000000 		.4byte	0x97
 3743 0361 70030000 		.4byte	0x370
 3744 0365 0D       		.uleb128 0xd
 3745 0366 45030000 		.4byte	0x345
 3746 036a 0D       		.uleb128 0xd
 3747 036b 8C000000 		.4byte	0x8c
 3748 036f 00       		.byte	0
 3749 0370 0B       		.uleb128 0xb
 3750 0371 04       		.byte	0x4
 3751 0372 8C000000 		.4byte	0x8c
 3752 0376 0B       		.uleb128 0xb
 3753 0377 04       		.byte	0x4
 3754 0378 7C030000 		.4byte	0x37c
 3755 037c 0E       		.uleb128 0xe
 3756 037d C6010000 		.4byte	0x1c6
 3757 0381 0B       		.uleb128 0xb
 3758 0382 04       		.byte	0x4
 3759 0383 87030000 		.4byte	0x387
 3760 0387 0E       		.uleb128 0xe
 3761 0388 8C000000 		.4byte	0x8c
 3762 038c 0F       		.uleb128 0xf
 3763 038d 7B080000 		.4byte	.LASF114
 3764 0391 01       		.byte	0x1
 3765 0392 9D       		.byte	0x9d
 3766 0393 8C000000 		.4byte	0x8c
 3767 0397 00000000 		.4byte	.LFB0
 3768 039b F0000000 		.4byte	.LFE0-.LFB0
 3769 039f 01       		.uleb128 0x1
 3770 03a0 9C       		.byte	0x9c
 3771 03a1 B8050000 		.4byte	0x5b8
 3772 03a5 10       		.uleb128 0x10
 3773 03a6 09070000 		.4byte	.LASF65
 3774 03aa 01       		.byte	0x1
 3775 03ab 9D       		.byte	0x9d
 3776 03ac 45030000 		.4byte	0x345
 3777 03b0 00000000 		.4byte	.LLST0
 3778 03b4 11       		.uleb128 0x11
 3779 03b5 6D736700 		.ascii	"msg\000"
 3780 03b9 01       		.byte	0x1
 3781 03ba 9D       		.byte	0x9d
 3782 03bb 8C000000 		.4byte	0x8c
 3783 03bf 6E000000 		.4byte	.LLST1
 3784 03c3 10       		.uleb128 0x10
 3785 03c4 C9030000 		.4byte	.LASF66
 3786 03c8 01       		.byte	0x1
 3787 03c9 9D       		.byte	0x9d
 3788 03ca 8C000000 		.4byte	0x8c
 3789 03ce E5000000 		.4byte	.LLST2
 3790 03d2 10       		.uleb128 0x10
 3791 03d3 C3080000 		.4byte	.LASF67
 3792 03d7 01       		.byte	0x1
 3793 03d8 9D       		.byte	0x9d
 3794 03d9 AD000000 		.4byte	0xad
 3795 03dd 59010000 		.4byte	.LLST3
 3796 03e1 12       		.uleb128 0x12
 3797 03e2 7800     		.ascii	"x\000"
 3798 03e4 01       		.byte	0x1
ARM GAS  C:\Users\jesse\AppData\Local\Temp\cc6zNusR.s 			page 100


 3799 03e5 9F       		.byte	0x9f
 3800 03e6 8C000000 		.4byte	0x8c
 3801 03ea AE010000 		.4byte	.LLST4
 3802 03ee 12       		.uleb128 0x12
 3803 03ef 6300     		.ascii	"c\000"
 3804 03f1 01       		.byte	0x1
 3805 03f2 9F       		.byte	0x9f
 3806 03f3 8C000000 		.4byte	0x8c
 3807 03f7 C5010000 		.4byte	.LLST5
 3808 03fb 12       		.uleb128 0x12
 3809 03fc 70747200 		.ascii	"ptr\000"
 3810 0400 01       		.byte	0x1
 3811 0401 A0       		.byte	0xa0
 3812 0402 70030000 		.4byte	0x370
 3813 0406 F0010000 		.4byte	.LLST6
 3814 040a 13       		.uleb128 0x13
 3815 040b 22000000 		.4byte	.LVL4
 3816 040f AA190000 		.4byte	0x19aa
 3817 0413 13       		.uleb128 0x13
 3818 0414 28000000 		.4byte	.LVL6
 3819 0418 B6190000 		.4byte	0x19b6
 3820 041c 14       		.uleb128 0x14
 3821 041d 30000000 		.4byte	.LVL7
 3822 0421 C2190000 		.4byte	0x19c2
 3823 0425 36040000 		.4byte	0x436
 3824 0429 15       		.uleb128 0x15
 3825 042a 01       		.uleb128 0x1
 3826 042b 50       		.byte	0x50
 3827 042c 02       		.uleb128 0x2
 3828 042d 74       		.byte	0x74
 3829 042e 00       		.sleb128 0
 3830 042f 15       		.uleb128 0x15
 3831 0430 01       		.uleb128 0x1
 3832 0431 51       		.byte	0x51
 3833 0432 02       		.uleb128 0x2
 3834 0433 08       		.byte	0x8
 3835 0434 30       		.byte	0x30
 3836 0435 00       		.byte	0
 3837 0436 14       		.uleb128 0x14
 3838 0437 38000000 		.4byte	.LVL8
 3839 043b C2190000 		.4byte	0x19c2
 3840 043f 50040000 		.4byte	0x450
 3841 0443 15       		.uleb128 0x15
 3842 0444 01       		.uleb128 0x1
 3843 0445 50       		.byte	0x50
 3844 0446 02       		.uleb128 0x2
 3845 0447 74       		.byte	0x74
 3846 0448 00       		.sleb128 0
 3847 0449 15       		.uleb128 0x15
 3848 044a 01       		.uleb128 0x1
 3849 044b 51       		.byte	0x51
 3850 044c 02       		.uleb128 0x2
 3851 044d 09       		.byte	0x9
 3852 044e 81       		.byte	0x81
 3853 044f 00       		.byte	0
 3854 0450 14       		.uleb128 0x14
 3855 0451 44000000 		.4byte	.LVL9
ARM GAS  C:\Users\jesse\AppData\Local\Temp\cc6zNusR.s 			page 101


 3856 0455 CE190000 		.4byte	0x19ce
 3857 0459 6F040000 		.4byte	0x46f
 3858 045d 15       		.uleb128 0x15
 3859 045e 01       		.uleb128 0x1
 3860 045f 50       		.byte	0x50
 3861 0460 02       		.uleb128 0x2
 3862 0461 74       		.byte	0x74
 3863 0462 00       		.sleb128 0
 3864 0463 15       		.uleb128 0x15
 3865 0464 01       		.uleb128 0x1
 3866 0465 51       		.byte	0x51
 3867 0466 07       		.uleb128 0x7
 3868 0467 75       		.byte	0x75
 3869 0468 00       		.sleb128 0
 3870 0469 31       		.byte	0x31
 3871 046a 24       		.byte	0x24
 3872 046b 08       		.byte	0x8
 3873 046c 3E       		.byte	0x3e
 3874 046d 1A       		.byte	0x1a
 3875 046e 00       		.byte	0
 3876 046f 14       		.uleb128 0x14
 3877 0470 4C000000 		.4byte	.LVL10
 3878 0474 CE190000 		.4byte	0x19ce
 3879 0478 8B040000 		.4byte	0x48b
 3880 047c 15       		.uleb128 0x15
 3881 047d 01       		.uleb128 0x1
 3882 047e 50       		.byte	0x50
 3883 047f 02       		.uleb128 0x2
 3884 0480 74       		.byte	0x74
 3885 0481 00       		.sleb128 0
 3886 0482 15       		.uleb128 0x15
 3887 0483 01       		.uleb128 0x1
 3888 0484 51       		.byte	0x51
 3889 0485 04       		.uleb128 0x4
 3890 0486 75       		.byte	0x75
 3891 0487 00       		.sleb128 0
 3892 0488 35       		.byte	0x35
 3893 0489 25       		.byte	0x25
 3894 048a 00       		.byte	0
 3895 048b 14       		.uleb128 0x14
 3896 048c 52000000 		.4byte	.LVL11
 3897 0490 DA190000 		.4byte	0x19da
 3898 0494 9F040000 		.4byte	0x49f
 3899 0498 15       		.uleb128 0x15
 3900 0499 01       		.uleb128 0x1
 3901 049a 50       		.byte	0x50
 3902 049b 02       		.uleb128 0x2
 3903 049c 74       		.byte	0x74
 3904 049d 00       		.sleb128 0
 3905 049e 00       		.byte	0
 3906 049f 13       		.uleb128 0x13
 3907 04a0 5C000000 		.4byte	.LVL13
 3908 04a4 B6190000 		.4byte	0x19b6
 3909 04a8 14       		.uleb128 0x14
 3910 04a9 68000000 		.4byte	.LVL15
 3911 04ad C2190000 		.4byte	0x19c2
 3912 04b1 C2040000 		.4byte	0x4c2
ARM GAS  C:\Users\jesse\AppData\Local\Temp\cc6zNusR.s 			page 102


 3913 04b5 15       		.uleb128 0x15
 3914 04b6 01       		.uleb128 0x1
 3915 04b7 50       		.byte	0x50
 3916 04b8 02       		.uleb128 0x2
 3917 04b9 74       		.byte	0x74
 3918 04ba 00       		.sleb128 0
 3919 04bb 15       		.uleb128 0x15
 3920 04bc 01       		.uleb128 0x1
 3921 04bd 51       		.byte	0x51
 3922 04be 02       		.uleb128 0x2
 3923 04bf 08       		.byte	0x8
 3924 04c0 30       		.byte	0x30
 3925 04c1 00       		.byte	0
 3926 04c2 14       		.uleb128 0x14
 3927 04c3 70000000 		.4byte	.LVL16
 3928 04c7 C2190000 		.4byte	0x19c2
 3929 04cb DC040000 		.4byte	0x4dc
 3930 04cf 15       		.uleb128 0x15
 3931 04d0 01       		.uleb128 0x1
 3932 04d1 50       		.byte	0x50
 3933 04d2 02       		.uleb128 0x2
 3934 04d3 74       		.byte	0x74
 3935 04d4 00       		.sleb128 0
 3936 04d5 15       		.uleb128 0x15
 3937 04d6 01       		.uleb128 0x1
 3938 04d7 51       		.byte	0x51
 3939 04d8 02       		.uleb128 0x2
 3940 04d9 08       		.byte	0x8
 3941 04da 75       		.byte	0x75
 3942 04db 00       		.byte	0
 3943 04dc 14       		.uleb128 0x14
 3944 04dd 82000000 		.4byte	.LVL17
 3945 04e1 CE190000 		.4byte	0x19ce
 3946 04e5 F0040000 		.4byte	0x4f0
 3947 04e9 15       		.uleb128 0x15
 3948 04ea 01       		.uleb128 0x1
 3949 04eb 50       		.byte	0x50
 3950 04ec 02       		.uleb128 0x2
 3951 04ed 74       		.byte	0x74
 3952 04ee 00       		.sleb128 0
 3953 04ef 00       		.byte	0
 3954 04f0 14       		.uleb128 0x14
 3955 04f1 8A000000 		.4byte	.LVL18
 3956 04f5 CE190000 		.4byte	0x19ce
 3957 04f9 0A050000 		.4byte	0x50a
 3958 04fd 15       		.uleb128 0x15
 3959 04fe 01       		.uleb128 0x1
 3960 04ff 50       		.byte	0x50
 3961 0500 02       		.uleb128 0x2
 3962 0501 74       		.byte	0x74
 3963 0502 00       		.sleb128 0
 3964 0503 15       		.uleb128 0x15
 3965 0504 01       		.uleb128 0x1
 3966 0505 51       		.byte	0x51
 3967 0506 02       		.uleb128 0x2
 3968 0507 08       		.byte	0x8
 3969 0508 4F       		.byte	0x4f
ARM GAS  C:\Users\jesse\AppData\Local\Temp\cc6zNusR.s 			page 103


 3970 0509 00       		.byte	0
 3971 050a 14       		.uleb128 0x14
 3972 050b 92000000 		.4byte	.LVL19
 3973 050f C2190000 		.4byte	0x19c2
 3974 0513 23050000 		.4byte	0x523
 3975 0517 15       		.uleb128 0x15
 3976 0518 01       		.uleb128 0x1
 3977 0519 50       		.byte	0x50
 3978 051a 02       		.uleb128 0x2
 3979 051b 74       		.byte	0x74
 3980 051c 00       		.sleb128 0
 3981 051d 15       		.uleb128 0x15
 3982 051e 01       		.uleb128 0x1
 3983 051f 51       		.byte	0x51
 3984 0520 01       		.uleb128 0x1
 3985 0521 45       		.byte	0x45
 3986 0522 00       		.byte	0
 3987 0523 14       		.uleb128 0x14
 3988 0524 9E000000 		.4byte	.LVL20
 3989 0528 CE190000 		.4byte	0x19ce
 3990 052c 42050000 		.4byte	0x542
 3991 0530 15       		.uleb128 0x15
 3992 0531 01       		.uleb128 0x1
 3993 0532 50       		.byte	0x50
 3994 0533 02       		.uleb128 0x2
 3995 0534 74       		.byte	0x74
 3996 0535 00       		.sleb128 0
 3997 0536 15       		.uleb128 0x15
 3998 0537 01       		.uleb128 0x1
 3999 0538 51       		.byte	0x51
 4000 0539 07       		.uleb128 0x7
 4001 053a 76       		.byte	0x76
 4002 053b 00       		.sleb128 0
 4003 053c 33       		.byte	0x33
 4004 053d 24       		.byte	0x24
 4005 053e 08       		.byte	0x8
 4006 053f F8       		.byte	0xf8
 4007 0540 1A       		.byte	0x1a
 4008 0541 00       		.byte	0
 4009 0542 14       		.uleb128 0x14
 4010 0543 A6000000 		.4byte	.LVL21
 4011 0547 CE190000 		.4byte	0x19ce
 4012 054b 5C050000 		.4byte	0x55c
 4013 054f 15       		.uleb128 0x15
 4014 0550 01       		.uleb128 0x1
 4015 0551 50       		.byte	0x50
 4016 0552 02       		.uleb128 0x2
 4017 0553 74       		.byte	0x74
 4018 0554 00       		.sleb128 0
 4019 0555 15       		.uleb128 0x15
 4020 0556 01       		.uleb128 0x1
 4021 0557 51       		.byte	0x51
 4022 0558 02       		.uleb128 0x2
 4023 0559 09       		.byte	0x9
 4024 055a FF       		.byte	0xff
 4025 055b 00       		.byte	0
 4026 055c 14       		.uleb128 0x14
ARM GAS  C:\Users\jesse\AppData\Local\Temp\cc6zNusR.s 			page 104


 4027 055d AE000000 		.4byte	.LVL22
 4028 0561 C2190000 		.4byte	0x19c2
 4029 0565 76050000 		.4byte	0x576
 4030 0569 15       		.uleb128 0x15
 4031 056a 01       		.uleb128 0x1
 4032 056b 50       		.byte	0x50
 4033 056c 02       		.uleb128 0x2
 4034 056d 74       		.byte	0x74
 4035 056e 00       		.sleb128 0
 4036 056f 15       		.uleb128 0x15
 4037 0570 01       		.uleb128 0x1
 4038 0571 51       		.byte	0x51
 4039 0572 02       		.uleb128 0x2
 4040 0573 08       		.byte	0x8
 4041 0574 5C       		.byte	0x5c
 4042 0575 00       		.byte	0
 4043 0576 14       		.uleb128 0x14
 4044 0577 C4000000 		.4byte	.LVL25
 4045 057b E6190000 		.4byte	0x19e6
 4046 057f 96050000 		.4byte	0x596
 4047 0583 15       		.uleb128 0x15
 4048 0584 01       		.uleb128 0x1
 4049 0585 50       		.byte	0x50
 4050 0586 02       		.uleb128 0x2
 4051 0587 74       		.byte	0x74
 4052 0588 00       		.sleb128 0
 4053 0589 15       		.uleb128 0x15
 4054 058a 01       		.uleb128 0x1
 4055 058b 51       		.byte	0x51
 4056 058c 02       		.uleb128 0x2
 4057 058d 09       		.byte	0x9
 4058 058e F8       		.byte	0xf8
 4059 058f 15       		.uleb128 0x15
 4060 0590 01       		.uleb128 0x1
 4061 0591 52       		.byte	0x52
 4062 0592 02       		.uleb128 0x2
 4063 0593 77       		.byte	0x77
 4064 0594 00       		.sleb128 0
 4065 0595 00       		.byte	0
 4066 0596 16       		.uleb128 0x16
 4067 0597 DA000000 		.4byte	.LVL30
 4068 059b E6190000 		.4byte	0x19e6
 4069 059f 15       		.uleb128 0x15
 4070 05a0 01       		.uleb128 0x1
 4071 05a1 50       		.byte	0x50
 4072 05a2 02       		.uleb128 0x2
 4073 05a3 74       		.byte	0x74
 4074 05a4 00       		.sleb128 0
 4075 05a5 15       		.uleb128 0x15
 4076 05a6 01       		.uleb128 0x1
 4077 05a7 51       		.byte	0x51
 4078 05a8 07       		.uleb128 0x7
 4079 05a9 76       		.byte	0x76
 4080 05aa 00       		.sleb128 0
 4081 05ab 33       		.byte	0x33
 4082 05ac 24       		.byte	0x24
 4083 05ad 08       		.byte	0x8
ARM GAS  C:\Users\jesse\AppData\Local\Temp\cc6zNusR.s 			page 105


 4084 05ae F8       		.byte	0xf8
 4085 05af 1A       		.byte	0x1a
 4086 05b0 15       		.uleb128 0x15
 4087 05b1 01       		.uleb128 0x1
 4088 05b2 52       		.byte	0x52
 4089 05b3 02       		.uleb128 0x2
 4090 05b4 77       		.byte	0x77
 4091 05b5 00       		.sleb128 0
 4092 05b6 00       		.byte	0
 4093 05b7 00       		.byte	0
 4094 05b8 17       		.uleb128 0x17
 4095 05b9 2F070000 		.4byte	.LASF68
 4096 05bd 01       		.byte	0x1
 4097 05be 4E01     		.2byte	0x14e
 4098 05c0 8C000000 		.4byte	0x8c
 4099 05c4 00000000 		.4byte	.LFB1
 4100 05c8 68000000 		.4byte	.LFE1-.LFB1
 4101 05cc 01       		.uleb128 0x1
 4102 05cd 9C       		.byte	0x9c
 4103 05ce BE060000 		.4byte	0x6be
 4104 05d2 18       		.uleb128 0x18
 4105 05d3 09070000 		.4byte	.LASF65
 4106 05d7 01       		.byte	0x1
 4107 05d8 4E01     		.2byte	0x14e
 4108 05da 45030000 		.4byte	0x345
 4109 05de 03020000 		.4byte	.LLST7
 4110 05e2 19       		.uleb128 0x19
 4111 05e3 6D736700 		.ascii	"msg\000"
 4112 05e7 01       		.byte	0x1
 4113 05e8 4E01     		.2byte	0x14e
 4114 05ea 8C000000 		.4byte	0x8c
 4115 05ee 2F020000 		.4byte	.LLST8
 4116 05f2 18       		.uleb128 0x18
 4117 05f3 C9030000 		.4byte	.LASF66
 4118 05f7 01       		.byte	0x1
 4119 05f8 4E01     		.2byte	0x14e
 4120 05fa 8C000000 		.4byte	0x8c
 4121 05fe 50020000 		.4byte	.LLST9
 4122 0602 18       		.uleb128 0x18
 4123 0603 C3080000 		.4byte	.LASF67
 4124 0607 01       		.byte	0x1
 4125 0608 4E01     		.2byte	0x14e
 4126 060a AD000000 		.4byte	0xad
 4127 060e 71020000 		.4byte	.LLST10
 4128 0612 14       		.uleb128 0x14
 4129 0613 0C000000 		.4byte	.LVL36
 4130 0617 8C030000 		.4byte	0x38c
 4131 061b 39060000 		.4byte	0x639
 4132 061f 15       		.uleb128 0x15
 4133 0620 01       		.uleb128 0x1
 4134 0621 50       		.byte	0x50
 4135 0622 02       		.uleb128 0x2
 4136 0623 74       		.byte	0x74
 4137 0624 00       		.sleb128 0
 4138 0625 15       		.uleb128 0x15
 4139 0626 01       		.uleb128 0x1
 4140 0627 51       		.byte	0x51
ARM GAS  C:\Users\jesse\AppData\Local\Temp\cc6zNusR.s 			page 106


 4141 0628 02       		.uleb128 0x2
 4142 0629 75       		.byte	0x75
 4143 062a 00       		.sleb128 0
 4144 062b 15       		.uleb128 0x15
 4145 062c 01       		.uleb128 0x1
 4146 062d 52       		.byte	0x52
 4147 062e 02       		.uleb128 0x2
 4148 062f 76       		.byte	0x76
 4149 0630 00       		.sleb128 0
 4150 0631 15       		.uleb128 0x15
 4151 0632 01       		.uleb128 0x1
 4152 0633 53       		.byte	0x53
 4153 0634 03       		.uleb128 0x3
 4154 0635 F3       		.byte	0xf3
 4155 0636 01       		.uleb128 0x1
 4156 0637 53       		.byte	0x53
 4157 0638 00       		.byte	0
 4158 0639 14       		.uleb128 0x14
 4159 063a 1A000000 		.4byte	.LVL37
 4160 063e F2190000 		.4byte	0x19f2
 4161 0642 56060000 		.4byte	0x656
 4162 0646 15       		.uleb128 0x15
 4163 0647 01       		.uleb128 0x1
 4164 0648 50       		.byte	0x50
 4165 0649 02       		.uleb128 0x2
 4166 064a 74       		.byte	0x74
 4167 064b 00       		.sleb128 0
 4168 064c 15       		.uleb128 0x15
 4169 064d 01       		.uleb128 0x1
 4170 064e 51       		.byte	0x51
 4171 064f 05       		.uleb128 0x5
 4172 0650 03       		.byte	0x3
 4173 0651 14000000 		.4byte	.LANCHOR0+20
 4174 0655 00       		.byte	0
 4175 0656 14       		.uleb128 0x14
 4176 0657 26000000 		.4byte	.LVL38
 4177 065b FE190000 		.4byte	0x19fe
 4178 065f 6A060000 		.4byte	0x66a
 4179 0663 15       		.uleb128 0x15
 4180 0664 01       		.uleb128 0x1
 4181 0665 50       		.byte	0x50
 4182 0666 02       		.uleb128 0x2
 4183 0667 74       		.byte	0x74
 4184 0668 00       		.sleb128 0
 4185 0669 00       		.byte	0
 4186 066a 14       		.uleb128 0x14
 4187 066b 2E000000 		.4byte	.LVL39
 4188 066f AA190000 		.4byte	0x19aa
 4189 0673 87060000 		.4byte	0x687
 4190 0677 15       		.uleb128 0x15
 4191 0678 01       		.uleb128 0x1
 4192 0679 50       		.byte	0x50
 4193 067a 02       		.uleb128 0x2
 4194 067b 74       		.byte	0x74
 4195 067c 00       		.sleb128 0
 4196 067d 15       		.uleb128 0x15
 4197 067e 01       		.uleb128 0x1
ARM GAS  C:\Users\jesse\AppData\Local\Temp\cc6zNusR.s 			page 107


 4198 067f 51       		.byte	0x51
 4199 0680 05       		.uleb128 0x5
 4200 0681 03       		.byte	0x3
 4201 0682 2C000000 		.4byte	.LANCHOR0+44
 4202 0686 00       		.byte	0
 4203 0687 14       		.uleb128 0x14
 4204 0688 3E000000 		.4byte	.LVL40
 4205 068c AA190000 		.4byte	0x19aa
 4206 0690 A4060000 		.4byte	0x6a4
 4207 0694 15       		.uleb128 0x15
 4208 0695 01       		.uleb128 0x1
 4209 0696 50       		.byte	0x50
 4210 0697 02       		.uleb128 0x2
 4211 0698 74       		.byte	0x74
 4212 0699 00       		.sleb128 0
 4213 069a 15       		.uleb128 0x15
 4214 069b 01       		.uleb128 0x1
 4215 069c 51       		.byte	0x51
 4216 069d 05       		.uleb128 0x5
 4217 069e 03       		.byte	0x3
 4218 069f 95000000 		.4byte	.LANCHOR0+149
 4219 06a3 00       		.byte	0
 4220 06a4 16       		.uleb128 0x16
 4221 06a5 4C000000 		.4byte	.LVL41
 4222 06a9 AA190000 		.4byte	0x19aa
 4223 06ad 15       		.uleb128 0x15
 4224 06ae 01       		.uleb128 0x1
 4225 06af 50       		.byte	0x50
 4226 06b0 02       		.uleb128 0x2
 4227 06b1 74       		.byte	0x74
 4228 06b2 00       		.sleb128 0
 4229 06b3 15       		.uleb128 0x15
 4230 06b4 01       		.uleb128 0x1
 4231 06b5 51       		.byte	0x51
 4232 06b6 05       		.uleb128 0x5
 4233 06b7 03       		.byte	0x3
 4234 06b8 A2000000 		.4byte	.LANCHOR0+162
 4235 06bc 00       		.byte	0
 4236 06bd 00       		.byte	0
 4237 06be 17       		.uleb128 0x17
 4238 06bf CD050000 		.4byte	.LASF69
 4239 06c3 01       		.byte	0x1
 4240 06c4 D501     		.2byte	0x1d5
 4241 06c6 8C000000 		.4byte	0x8c
 4242 06ca 00000000 		.4byte	.LFB2
 4243 06ce 68000000 		.4byte	.LFE2-.LFB2
 4244 06d2 01       		.uleb128 0x1
 4245 06d3 9C       		.byte	0x9c
 4246 06d4 C4070000 		.4byte	0x7c4
 4247 06d8 18       		.uleb128 0x18
 4248 06d9 09070000 		.4byte	.LASF65
 4249 06dd 01       		.byte	0x1
 4250 06de D501     		.2byte	0x1d5
 4251 06e0 45030000 		.4byte	0x345
 4252 06e4 92020000 		.4byte	.LLST11
 4253 06e8 19       		.uleb128 0x19
 4254 06e9 6D736700 		.ascii	"msg\000"
ARM GAS  C:\Users\jesse\AppData\Local\Temp\cc6zNusR.s 			page 108


 4255 06ed 01       		.byte	0x1
 4256 06ee D501     		.2byte	0x1d5
 4257 06f0 8C000000 		.4byte	0x8c
 4258 06f4 BE020000 		.4byte	.LLST12
 4259 06f8 18       		.uleb128 0x18
 4260 06f9 C9030000 		.4byte	.LASF66
 4261 06fd 01       		.byte	0x1
 4262 06fe D501     		.2byte	0x1d5
 4263 0700 8C000000 		.4byte	0x8c
 4264 0704 DF020000 		.4byte	.LLST13
 4265 0708 18       		.uleb128 0x18
 4266 0709 C3080000 		.4byte	.LASF67
 4267 070d 01       		.byte	0x1
 4268 070e D501     		.2byte	0x1d5
 4269 0710 AD000000 		.4byte	0xad
 4270 0714 00030000 		.4byte	.LLST14
 4271 0718 14       		.uleb128 0x14
 4272 0719 0C000000 		.4byte	.LVL44
 4273 071d 8C030000 		.4byte	0x38c
 4274 0721 3F070000 		.4byte	0x73f
 4275 0725 15       		.uleb128 0x15
 4276 0726 01       		.uleb128 0x1
 4277 0727 50       		.byte	0x50
 4278 0728 02       		.uleb128 0x2
 4279 0729 74       		.byte	0x74
 4280 072a 00       		.sleb128 0
 4281 072b 15       		.uleb128 0x15
 4282 072c 01       		.uleb128 0x1
 4283 072d 51       		.byte	0x51
 4284 072e 02       		.uleb128 0x2
 4285 072f 75       		.byte	0x75
 4286 0730 00       		.sleb128 0
 4287 0731 15       		.uleb128 0x15
 4288 0732 01       		.uleb128 0x1
 4289 0733 52       		.byte	0x52
 4290 0734 02       		.uleb128 0x2
 4291 0735 76       		.byte	0x76
 4292 0736 00       		.sleb128 0
 4293 0737 15       		.uleb128 0x15
 4294 0738 01       		.uleb128 0x1
 4295 0739 53       		.byte	0x53
 4296 073a 03       		.uleb128 0x3
 4297 073b F3       		.byte	0xf3
 4298 073c 01       		.uleb128 0x1
 4299 073d 53       		.byte	0x53
 4300 073e 00       		.byte	0
 4301 073f 14       		.uleb128 0x14
 4302 0740 1A000000 		.4byte	.LVL45
 4303 0744 F2190000 		.4byte	0x19f2
 4304 0748 5C070000 		.4byte	0x75c
 4305 074c 15       		.uleb128 0x15
 4306 074d 01       		.uleb128 0x1
 4307 074e 50       		.byte	0x50
 4308 074f 02       		.uleb128 0x2
 4309 0750 74       		.byte	0x74
 4310 0751 00       		.sleb128 0
 4311 0752 15       		.uleb128 0x15
ARM GAS  C:\Users\jesse\AppData\Local\Temp\cc6zNusR.s 			page 109


 4312 0753 01       		.uleb128 0x1
 4313 0754 51       		.byte	0x51
 4314 0755 05       		.uleb128 0x5
 4315 0756 03       		.byte	0x3
 4316 0757 B0000000 		.4byte	.LANCHOR0+176
 4317 075b 00       		.byte	0
 4318 075c 14       		.uleb128 0x14
 4319 075d 26000000 		.4byte	.LVL46
 4320 0761 FE190000 		.4byte	0x19fe
 4321 0765 70070000 		.4byte	0x770
 4322 0769 15       		.uleb128 0x15
 4323 076a 01       		.uleb128 0x1
 4324 076b 50       		.byte	0x50
 4325 076c 02       		.uleb128 0x2
 4326 076d 74       		.byte	0x74
 4327 076e 00       		.sleb128 0
 4328 076f 00       		.byte	0
 4329 0770 14       		.uleb128 0x14
 4330 0771 2E000000 		.4byte	.LVL47
 4331 0775 AA190000 		.4byte	0x19aa
 4332 0779 8D070000 		.4byte	0x78d
 4333 077d 15       		.uleb128 0x15
 4334 077e 01       		.uleb128 0x1
 4335 077f 50       		.byte	0x50
 4336 0780 02       		.uleb128 0x2
 4337 0781 74       		.byte	0x74
 4338 0782 00       		.sleb128 0
 4339 0783 15       		.uleb128 0x15
 4340 0784 01       		.uleb128 0x1
 4341 0785 51       		.byte	0x51
 4342 0786 05       		.uleb128 0x5
 4343 0787 03       		.byte	0x3
 4344 0788 C8000000 		.4byte	.LANCHOR0+200
 4345 078c 00       		.byte	0
 4346 078d 14       		.uleb128 0x14
 4347 078e 3E000000 		.4byte	.LVL48
 4348 0792 AA190000 		.4byte	0x19aa
 4349 0796 AA070000 		.4byte	0x7aa
 4350 079a 15       		.uleb128 0x15
 4351 079b 01       		.uleb128 0x1
 4352 079c 50       		.byte	0x50
 4353 079d 02       		.uleb128 0x2
 4354 079e 74       		.byte	0x74
 4355 079f 00       		.sleb128 0
 4356 07a0 15       		.uleb128 0x15
 4357 07a1 01       		.uleb128 0x1
 4358 07a2 51       		.byte	0x51
 4359 07a3 05       		.uleb128 0x5
 4360 07a4 03       		.byte	0x3
 4361 07a5 31010000 		.4byte	.LANCHOR0+305
 4362 07a9 00       		.byte	0
 4363 07aa 16       		.uleb128 0x16
 4364 07ab 4C000000 		.4byte	.LVL49
 4365 07af AA190000 		.4byte	0x19aa
 4366 07b3 15       		.uleb128 0x15
 4367 07b4 01       		.uleb128 0x1
 4368 07b5 50       		.byte	0x50
ARM GAS  C:\Users\jesse\AppData\Local\Temp\cc6zNusR.s 			page 110


 4369 07b6 02       		.uleb128 0x2
 4370 07b7 74       		.byte	0x74
 4371 07b8 00       		.sleb128 0
 4372 07b9 15       		.uleb128 0x15
 4373 07ba 01       		.uleb128 0x1
 4374 07bb 51       		.byte	0x51
 4375 07bc 05       		.uleb128 0x5
 4376 07bd 03       		.byte	0x3
 4377 07be 3E010000 		.4byte	.LANCHOR0+318
 4378 07c2 00       		.byte	0
 4379 07c3 00       		.byte	0
 4380 07c4 17       		.uleb128 0x17
 4381 07c5 15040000 		.4byte	.LASF70
 4382 07c9 01       		.byte	0x1
 4383 07ca 5B02     		.2byte	0x25b
 4384 07cc 8C000000 		.4byte	0x8c
 4385 07d0 00000000 		.4byte	.LFB3
 4386 07d4 68000000 		.4byte	.LFE3-.LFB3
 4387 07d8 01       		.uleb128 0x1
 4388 07d9 9C       		.byte	0x9c
 4389 07da CA080000 		.4byte	0x8ca
 4390 07de 18       		.uleb128 0x18
 4391 07df 09070000 		.4byte	.LASF65
 4392 07e3 01       		.byte	0x1
 4393 07e4 5B02     		.2byte	0x25b
 4394 07e6 45030000 		.4byte	0x345
 4395 07ea 21030000 		.4byte	.LLST15
 4396 07ee 19       		.uleb128 0x19
 4397 07ef 6D736700 		.ascii	"msg\000"
 4398 07f3 01       		.byte	0x1
 4399 07f4 5B02     		.2byte	0x25b
 4400 07f6 8C000000 		.4byte	0x8c
 4401 07fa 4D030000 		.4byte	.LLST16
 4402 07fe 18       		.uleb128 0x18
 4403 07ff C9030000 		.4byte	.LASF66
 4404 0803 01       		.byte	0x1
 4405 0804 5B02     		.2byte	0x25b
 4406 0806 8C000000 		.4byte	0x8c
 4407 080a 6E030000 		.4byte	.LLST17
 4408 080e 18       		.uleb128 0x18
 4409 080f C3080000 		.4byte	.LASF67
 4410 0813 01       		.byte	0x1
 4411 0814 5B02     		.2byte	0x25b
 4412 0816 AD000000 		.4byte	0xad
 4413 081a 8F030000 		.4byte	.LLST18
 4414 081e 14       		.uleb128 0x14
 4415 081f 0C000000 		.4byte	.LVL52
 4416 0823 8C030000 		.4byte	0x38c
 4417 0827 45080000 		.4byte	0x845
 4418 082b 15       		.uleb128 0x15
 4419 082c 01       		.uleb128 0x1
 4420 082d 50       		.byte	0x50
 4421 082e 02       		.uleb128 0x2
 4422 082f 74       		.byte	0x74
 4423 0830 00       		.sleb128 0
 4424 0831 15       		.uleb128 0x15
 4425 0832 01       		.uleb128 0x1
ARM GAS  C:\Users\jesse\AppData\Local\Temp\cc6zNusR.s 			page 111


 4426 0833 51       		.byte	0x51
 4427 0834 02       		.uleb128 0x2
 4428 0835 75       		.byte	0x75
 4429 0836 00       		.sleb128 0
 4430 0837 15       		.uleb128 0x15
 4431 0838 01       		.uleb128 0x1
 4432 0839 52       		.byte	0x52
 4433 083a 02       		.uleb128 0x2
 4434 083b 76       		.byte	0x76
 4435 083c 00       		.sleb128 0
 4436 083d 15       		.uleb128 0x15
 4437 083e 01       		.uleb128 0x1
 4438 083f 53       		.byte	0x53
 4439 0840 03       		.uleb128 0x3
 4440 0841 F3       		.byte	0xf3
 4441 0842 01       		.uleb128 0x1
 4442 0843 53       		.byte	0x53
 4443 0844 00       		.byte	0
 4444 0845 14       		.uleb128 0x14
 4445 0846 1A000000 		.4byte	.LVL53
 4446 084a F2190000 		.4byte	0x19f2
 4447 084e 62080000 		.4byte	0x862
 4448 0852 15       		.uleb128 0x15
 4449 0853 01       		.uleb128 0x1
 4450 0854 50       		.byte	0x50
 4451 0855 02       		.uleb128 0x2
 4452 0856 74       		.byte	0x74
 4453 0857 00       		.sleb128 0
 4454 0858 15       		.uleb128 0x15
 4455 0859 01       		.uleb128 0x1
 4456 085a 51       		.byte	0x51
 4457 085b 05       		.uleb128 0x5
 4458 085c 03       		.byte	0x3
 4459 085d 4C010000 		.4byte	.LANCHOR0+332
 4460 0861 00       		.byte	0
 4461 0862 14       		.uleb128 0x14
 4462 0863 26000000 		.4byte	.LVL54
 4463 0867 FE190000 		.4byte	0x19fe
 4464 086b 76080000 		.4byte	0x876
 4465 086f 15       		.uleb128 0x15
 4466 0870 01       		.uleb128 0x1
 4467 0871 50       		.byte	0x50
 4468 0872 02       		.uleb128 0x2
 4469 0873 74       		.byte	0x74
 4470 0874 00       		.sleb128 0
 4471 0875 00       		.byte	0
 4472 0876 14       		.uleb128 0x14
 4473 0877 2E000000 		.4byte	.LVL55
 4474 087b AA190000 		.4byte	0x19aa
 4475 087f 93080000 		.4byte	0x893
 4476 0883 15       		.uleb128 0x15
 4477 0884 01       		.uleb128 0x1
 4478 0885 50       		.byte	0x50
 4479 0886 02       		.uleb128 0x2
 4480 0887 74       		.byte	0x74
 4481 0888 00       		.sleb128 0
 4482 0889 15       		.uleb128 0x15
ARM GAS  C:\Users\jesse\AppData\Local\Temp\cc6zNusR.s 			page 112


 4483 088a 01       		.uleb128 0x1
 4484 088b 51       		.byte	0x51
 4485 088c 05       		.uleb128 0x5
 4486 088d 03       		.byte	0x3
 4487 088e 64010000 		.4byte	.LANCHOR0+356
 4488 0892 00       		.byte	0
 4489 0893 14       		.uleb128 0x14
 4490 0894 3E000000 		.4byte	.LVL56
 4491 0898 AA190000 		.4byte	0x19aa
 4492 089c B0080000 		.4byte	0x8b0
 4493 08a0 15       		.uleb128 0x15
 4494 08a1 01       		.uleb128 0x1
 4495 08a2 50       		.byte	0x50
 4496 08a3 02       		.uleb128 0x2
 4497 08a4 74       		.byte	0x74
 4498 08a5 00       		.sleb128 0
 4499 08a6 15       		.uleb128 0x15
 4500 08a7 01       		.uleb128 0x1
 4501 08a8 51       		.byte	0x51
 4502 08a9 05       		.uleb128 0x5
 4503 08aa 03       		.byte	0x3
 4504 08ab 95000000 		.4byte	.LANCHOR0+149
 4505 08af 00       		.byte	0
 4506 08b0 16       		.uleb128 0x16
 4507 08b1 4C000000 		.4byte	.LVL57
 4508 08b5 AA190000 		.4byte	0x19aa
 4509 08b9 15       		.uleb128 0x15
 4510 08ba 01       		.uleb128 0x1
 4511 08bb 50       		.byte	0x50
 4512 08bc 02       		.uleb128 0x2
 4513 08bd 74       		.byte	0x74
 4514 08be 00       		.sleb128 0
 4515 08bf 15       		.uleb128 0x15
 4516 08c0 01       		.uleb128 0x1
 4517 08c1 51       		.byte	0x51
 4518 08c2 05       		.uleb128 0x5
 4519 08c3 03       		.byte	0x3
 4520 08c4 A2000000 		.4byte	.LANCHOR0+162
 4521 08c8 00       		.byte	0
 4522 08c9 00       		.byte	0
 4523 08ca 17       		.uleb128 0x17
 4524 08cb 24000000 		.4byte	.LASF71
 4525 08cf 01       		.byte	0x1
 4526 08d0 E002     		.2byte	0x2e0
 4527 08d2 8C000000 		.4byte	0x8c
 4528 08d6 00000000 		.4byte	.LFB4
 4529 08da 38010000 		.4byte	.LFE4-.LFB4
 4530 08de 01       		.uleb128 0x1
 4531 08df 9C       		.byte	0x9c
 4532 08e0 210B0000 		.4byte	0xb21
 4533 08e4 18       		.uleb128 0x18
 4534 08e5 09070000 		.4byte	.LASF65
 4535 08e9 01       		.byte	0x1
 4536 08ea E002     		.2byte	0x2e0
 4537 08ec 45030000 		.4byte	0x345
 4538 08f0 B0030000 		.4byte	.LLST19
 4539 08f4 19       		.uleb128 0x19
ARM GAS  C:\Users\jesse\AppData\Local\Temp\cc6zNusR.s 			page 113


 4540 08f5 6D736700 		.ascii	"msg\000"
 4541 08f9 01       		.byte	0x1
 4542 08fa E002     		.2byte	0x2e0
 4543 08fc 8C000000 		.4byte	0x8c
 4544 0900 76040000 		.4byte	.LLST20
 4545 0904 18       		.uleb128 0x18
 4546 0905 C9030000 		.4byte	.LASF66
 4547 0909 01       		.byte	0x1
 4548 090a E002     		.2byte	0x2e0
 4549 090c 8C000000 		.4byte	0x8c
 4550 0910 97040000 		.4byte	.LLST21
 4551 0914 18       		.uleb128 0x18
 4552 0915 C3080000 		.4byte	.LASF67
 4553 0919 01       		.byte	0x1
 4554 091a E002     		.2byte	0x2e0
 4555 091c AD000000 		.4byte	0xad
 4556 0920 64050000 		.4byte	.LLST22
 4557 0924 1A       		.uleb128 0x1a
 4558 0925 7800     		.ascii	"x\000"
 4559 0927 01       		.byte	0x1
 4560 0928 E202     		.2byte	0x2e2
 4561 092a 8C000000 		.4byte	0x8c
 4562 092e 90050000 		.4byte	.LLST23
 4563 0932 1A       		.uleb128 0x1a
 4564 0933 6300     		.ascii	"c\000"
 4565 0935 01       		.byte	0x1
 4566 0936 E202     		.2byte	0x2e2
 4567 0938 8C000000 		.4byte	0x8c
 4568 093c AE050000 		.4byte	.LLST24
 4569 0940 1A       		.uleb128 0x1a
 4570 0941 70747200 		.ascii	"ptr\000"
 4571 0945 01       		.byte	0x1
 4572 0946 E302     		.2byte	0x2e3
 4573 0948 70030000 		.4byte	0x370
 4574 094c F0050000 		.4byte	.LLST25
 4575 0950 13       		.uleb128 0x13
 4576 0951 22000000 		.4byte	.LVL62
 4577 0955 B6190000 		.4byte	0x19b6
 4578 0959 14       		.uleb128 0x14
 4579 095a 2C000000 		.4byte	.LVL64
 4580 095e C2190000 		.4byte	0x19c2
 4581 0962 73090000 		.4byte	0x973
 4582 0966 15       		.uleb128 0x15
 4583 0967 01       		.uleb128 0x1
 4584 0968 50       		.byte	0x50
 4585 0969 02       		.uleb128 0x2
 4586 096a 74       		.byte	0x74
 4587 096b 00       		.sleb128 0
 4588 096c 15       		.uleb128 0x15
 4589 096d 01       		.uleb128 0x1
 4590 096e 51       		.byte	0x51
 4591 096f 02       		.uleb128 0x2
 4592 0970 08       		.byte	0x8
 4593 0971 30       		.byte	0x30
 4594 0972 00       		.byte	0
 4595 0973 14       		.uleb128 0x14
 4596 0974 34000000 		.4byte	.LVL65
ARM GAS  C:\Users\jesse\AppData\Local\Temp\cc6zNusR.s 			page 114


 4597 0978 C2190000 		.4byte	0x19c2
 4598 097c 8D090000 		.4byte	0x98d
 4599 0980 15       		.uleb128 0x15
 4600 0981 01       		.uleb128 0x1
 4601 0982 50       		.byte	0x50
 4602 0983 02       		.uleb128 0x2
 4603 0984 74       		.byte	0x74
 4604 0985 00       		.sleb128 0
 4605 0986 15       		.uleb128 0x15
 4606 0987 01       		.uleb128 0x1
 4607 0988 51       		.byte	0x51
 4608 0989 02       		.uleb128 0x2
 4609 098a 08       		.byte	0x8
 4610 098b 75       		.byte	0x75
 4611 098c 00       		.byte	0
 4612 098d 14       		.uleb128 0x14
 4613 098e 4C000000 		.4byte	.LVL68
 4614 0992 CE190000 		.4byte	0x19ce
 4615 0996 A1090000 		.4byte	0x9a1
 4616 099a 15       		.uleb128 0x15
 4617 099b 01       		.uleb128 0x1
 4618 099c 50       		.byte	0x50
 4619 099d 02       		.uleb128 0x2
 4620 099e 74       		.byte	0x74
 4621 099f 00       		.sleb128 0
 4622 09a0 00       		.byte	0
 4623 09a1 14       		.uleb128 0x14
 4624 09a2 54000000 		.4byte	.LVL69
 4625 09a6 CE190000 		.4byte	0x19ce
 4626 09aa BB090000 		.4byte	0x9bb
 4627 09ae 15       		.uleb128 0x15
 4628 09af 01       		.uleb128 0x1
 4629 09b0 50       		.byte	0x50
 4630 09b1 02       		.uleb128 0x2
 4631 09b2 74       		.byte	0x74
 4632 09b3 00       		.sleb128 0
 4633 09b4 15       		.uleb128 0x15
 4634 09b5 01       		.uleb128 0x1
 4635 09b6 51       		.byte	0x51
 4636 09b7 02       		.uleb128 0x2
 4637 09b8 08       		.byte	0x8
 4638 09b9 4F       		.byte	0x4f
 4639 09ba 00       		.byte	0
 4640 09bb 14       		.uleb128 0x14
 4641 09bc 5C000000 		.4byte	.LVL70
 4642 09c0 C2190000 		.4byte	0x19c2
 4643 09c4 D4090000 		.4byte	0x9d4
 4644 09c8 15       		.uleb128 0x15
 4645 09c9 01       		.uleb128 0x1
 4646 09ca 50       		.byte	0x50
 4647 09cb 02       		.uleb128 0x2
 4648 09cc 74       		.byte	0x74
 4649 09cd 00       		.sleb128 0
 4650 09ce 15       		.uleb128 0x15
 4651 09cf 01       		.uleb128 0x1
 4652 09d0 51       		.byte	0x51
 4653 09d1 01       		.uleb128 0x1
ARM GAS  C:\Users\jesse\AppData\Local\Temp\cc6zNusR.s 			page 115


 4654 09d2 45       		.byte	0x45
 4655 09d3 00       		.byte	0
 4656 09d4 14       		.uleb128 0x14
 4657 09d5 6A000000 		.4byte	.LVL71
 4658 09d9 CE190000 		.4byte	0x19ce
 4659 09dd E8090000 		.4byte	0x9e8
 4660 09e1 15       		.uleb128 0x15
 4661 09e2 01       		.uleb128 0x1
 4662 09e3 50       		.byte	0x50
 4663 09e4 02       		.uleb128 0x2
 4664 09e5 74       		.byte	0x74
 4665 09e6 00       		.sleb128 0
 4666 09e7 00       		.byte	0
 4667 09e8 14       		.uleb128 0x14
 4668 09e9 72000000 		.4byte	.LVL72
 4669 09ed CE190000 		.4byte	0x19ce
 4670 09f1 020A0000 		.4byte	0xa02
 4671 09f5 15       		.uleb128 0x15
 4672 09f6 01       		.uleb128 0x1
 4673 09f7 50       		.byte	0x50
 4674 09f8 02       		.uleb128 0x2
 4675 09f9 74       		.byte	0x74
 4676 09fa 00       		.sleb128 0
 4677 09fb 15       		.uleb128 0x15
 4678 09fc 01       		.uleb128 0x1
 4679 09fd 51       		.byte	0x51
 4680 09fe 02       		.uleb128 0x2
 4681 09ff 09       		.byte	0x9
 4682 0a00 FF       		.byte	0xff
 4683 0a01 00       		.byte	0
 4684 0a02 14       		.uleb128 0x14
 4685 0a03 7A000000 		.4byte	.LVL73
 4686 0a07 C2190000 		.4byte	0x19c2
 4687 0a0b 1C0A0000 		.4byte	0xa1c
 4688 0a0f 15       		.uleb128 0x15
 4689 0a10 01       		.uleb128 0x1
 4690 0a11 50       		.byte	0x50
 4691 0a12 02       		.uleb128 0x2
 4692 0a13 74       		.byte	0x74
 4693 0a14 00       		.sleb128 0
 4694 0a15 15       		.uleb128 0x15
 4695 0a16 01       		.uleb128 0x1
 4696 0a17 51       		.byte	0x51
 4697 0a18 02       		.uleb128 0x2
 4698 0a19 08       		.byte	0x8
 4699 0a1a 5C       		.byte	0x5c
 4700 0a1b 00       		.byte	0
 4701 0a1c 14       		.uleb128 0x14
 4702 0a1d 9A000000 		.4byte	.LVL81
 4703 0a21 E6190000 		.4byte	0x19e6
 4704 0a25 360A0000 		.4byte	0xa36
 4705 0a29 15       		.uleb128 0x15
 4706 0a2a 01       		.uleb128 0x1
 4707 0a2b 50       		.byte	0x50
 4708 0a2c 02       		.uleb128 0x2
 4709 0a2d 74       		.byte	0x74
 4710 0a2e 00       		.sleb128 0
ARM GAS  C:\Users\jesse\AppData\Local\Temp\cc6zNusR.s 			page 116


 4711 0a2f 15       		.uleb128 0x15
 4712 0a30 01       		.uleb128 0x1
 4713 0a31 51       		.byte	0x51
 4714 0a32 02       		.uleb128 0x2
 4715 0a33 75       		.byte	0x75
 4716 0a34 00       		.sleb128 0
 4717 0a35 00       		.byte	0
 4718 0a36 14       		.uleb128 0x14
 4719 0a37 AE000000 		.4byte	.LVL85
 4720 0a3b F2190000 		.4byte	0x19f2
 4721 0a3f 4D0A0000 		.4byte	0xa4d
 4722 0a43 15       		.uleb128 0x15
 4723 0a44 01       		.uleb128 0x1
 4724 0a45 51       		.byte	0x51
 4725 0a46 05       		.uleb128 0x5
 4726 0a47 03       		.byte	0x3
 4727 0a48 D0010000 		.4byte	.LANCHOR0+464
 4728 0a4c 00       		.byte	0
 4729 0a4d 13       		.uleb128 0x13
 4730 0a4e B4000000 		.4byte	.LVL87
 4731 0a52 FE190000 		.4byte	0x19fe
 4732 0a56 14       		.uleb128 0x14
 4733 0a57 C6000000 		.4byte	.LVL90
 4734 0a5b AA190000 		.4byte	0x19aa
 4735 0a5f 6A0A0000 		.4byte	0xa6a
 4736 0a63 15       		.uleb128 0x15
 4737 0a64 01       		.uleb128 0x1
 4738 0a65 50       		.byte	0x50
 4739 0a66 02       		.uleb128 0x2
 4740 0a67 74       		.byte	0x74
 4741 0a68 00       		.sleb128 0
 4742 0a69 00       		.byte	0
 4743 0a6a 14       		.uleb128 0x14
 4744 0a6b D0000000 		.4byte	.LVL92
 4745 0a6f AA190000 		.4byte	0x19aa
 4746 0a73 810A0000 		.4byte	0xa81
 4747 0a77 15       		.uleb128 0x15
 4748 0a78 01       		.uleb128 0x1
 4749 0a79 51       		.byte	0x51
 4750 0a7a 05       		.uleb128 0x5
 4751 0a7b 03       		.byte	0x3
 4752 0a7c 3E010000 		.4byte	.LANCHOR0+318
 4753 0a80 00       		.byte	0
 4754 0a81 14       		.uleb128 0x14
 4755 0a82 DC000000 		.4byte	.LVL94
 4756 0a86 AA190000 		.4byte	0x19aa
 4757 0a8a 980A0000 		.4byte	0xa98
 4758 0a8e 15       		.uleb128 0x15
 4759 0a8f 01       		.uleb128 0x1
 4760 0a90 51       		.byte	0x51
 4761 0a91 05       		.uleb128 0x5
 4762 0a92 03       		.byte	0x3
 4763 0a93 31010000 		.4byte	.LANCHOR0+305
 4764 0a97 00       		.byte	0
 4765 0a98 13       		.uleb128 0x13
 4766 0a99 EA000000 		.4byte	.LVL96
 4767 0a9d B6190000 		.4byte	0x19b6
ARM GAS  C:\Users\jesse\AppData\Local\Temp\cc6zNusR.s 			page 117


 4768 0aa1 14       		.uleb128 0x14
 4769 0aa2 F2000000 		.4byte	.LVL97
 4770 0aa6 C2190000 		.4byte	0x19c2
 4771 0aaa BB0A0000 		.4byte	0xabb
 4772 0aae 15       		.uleb128 0x15
 4773 0aaf 01       		.uleb128 0x1
 4774 0ab0 50       		.byte	0x50
 4775 0ab1 02       		.uleb128 0x2
 4776 0ab2 74       		.byte	0x74
 4777 0ab3 00       		.sleb128 0
 4778 0ab4 15       		.uleb128 0x15
 4779 0ab5 01       		.uleb128 0x1
 4780 0ab6 51       		.byte	0x51
 4781 0ab7 02       		.uleb128 0x2
 4782 0ab8 08       		.byte	0x8
 4783 0ab9 30       		.byte	0x30
 4784 0aba 00       		.byte	0
 4785 0abb 14       		.uleb128 0x14
 4786 0abc FA000000 		.4byte	.LVL98
 4787 0ac0 C2190000 		.4byte	0x19c2
 4788 0ac4 D50A0000 		.4byte	0xad5
 4789 0ac8 15       		.uleb128 0x15
 4790 0ac9 01       		.uleb128 0x1
 4791 0aca 50       		.byte	0x50
 4792 0acb 02       		.uleb128 0x2
 4793 0acc 74       		.byte	0x74
 4794 0acd 00       		.sleb128 0
 4795 0ace 15       		.uleb128 0x15
 4796 0acf 01       		.uleb128 0x1
 4797 0ad0 51       		.byte	0x51
 4798 0ad1 02       		.uleb128 0x2
 4799 0ad2 09       		.byte	0x9
 4800 0ad3 81       		.byte	0x81
 4801 0ad4 00       		.byte	0
 4802 0ad5 14       		.uleb128 0x14
 4803 0ad6 06010000 		.4byte	.LVL99
 4804 0ada CE190000 		.4byte	0x19ce
 4805 0ade F40A0000 		.4byte	0xaf4
 4806 0ae2 15       		.uleb128 0x15
 4807 0ae3 01       		.uleb128 0x1
 4808 0ae4 50       		.byte	0x50
 4809 0ae5 02       		.uleb128 0x2
 4810 0ae6 74       		.byte	0x74
 4811 0ae7 00       		.sleb128 0
 4812 0ae8 15       		.uleb128 0x15
 4813 0ae9 01       		.uleb128 0x1
 4814 0aea 51       		.byte	0x51
 4815 0aeb 07       		.uleb128 0x7
 4816 0aec 76       		.byte	0x76
 4817 0aed 00       		.sleb128 0
 4818 0aee 31       		.byte	0x31
 4819 0aef 24       		.byte	0x24
 4820 0af0 08       		.byte	0x8
 4821 0af1 3E       		.byte	0x3e
 4822 0af2 1A       		.byte	0x1a
 4823 0af3 00       		.byte	0
 4824 0af4 14       		.uleb128 0x14
ARM GAS  C:\Users\jesse\AppData\Local\Temp\cc6zNusR.s 			page 118


 4825 0af5 0E010000 		.4byte	.LVL100
 4826 0af9 CE190000 		.4byte	0x19ce
 4827 0afd 100B0000 		.4byte	0xb10
 4828 0b01 15       		.uleb128 0x15
 4829 0b02 01       		.uleb128 0x1
 4830 0b03 50       		.byte	0x50
 4831 0b04 02       		.uleb128 0x2
 4832 0b05 74       		.byte	0x74
 4833 0b06 00       		.sleb128 0
 4834 0b07 15       		.uleb128 0x15
 4835 0b08 01       		.uleb128 0x1
 4836 0b09 51       		.byte	0x51
 4837 0b0a 04       		.uleb128 0x4
 4838 0b0b 76       		.byte	0x76
 4839 0b0c 00       		.sleb128 0
 4840 0b0d 35       		.byte	0x35
 4841 0b0e 25       		.byte	0x25
 4842 0b0f 00       		.byte	0
 4843 0b10 16       		.uleb128 0x16
 4844 0b11 14010000 		.4byte	.LVL101
 4845 0b15 DA190000 		.4byte	0x19da
 4846 0b19 15       		.uleb128 0x15
 4847 0b1a 01       		.uleb128 0x1
 4848 0b1b 50       		.byte	0x50
 4849 0b1c 02       		.uleb128 0x2
 4850 0b1d 74       		.byte	0x74
 4851 0b1e 00       		.sleb128 0
 4852 0b1f 00       		.byte	0
 4853 0b20 00       		.byte	0
 4854 0b21 17       		.uleb128 0x17
 4855 0b22 9D020000 		.4byte	.LASF72
 4856 0b26 01       		.byte	0x1
 4857 0b27 A003     		.2byte	0x3a0
 4858 0b29 8C000000 		.4byte	0x8c
 4859 0b2d 00000000 		.4byte	.LFB5
 4860 0b31 38010000 		.4byte	.LFE5-.LFB5
 4861 0b35 01       		.uleb128 0x1
 4862 0b36 9C       		.byte	0x9c
 4863 0b37 780D0000 		.4byte	0xd78
 4864 0b3b 18       		.uleb128 0x18
 4865 0b3c 09070000 		.4byte	.LASF65
 4866 0b40 01       		.byte	0x1
 4867 0b41 A003     		.2byte	0x3a0
 4868 0b43 45030000 		.4byte	0x345
 4869 0b47 03060000 		.4byte	.LLST26
 4870 0b4b 19       		.uleb128 0x19
 4871 0b4c 6D736700 		.ascii	"msg\000"
 4872 0b50 01       		.byte	0x1
 4873 0b51 A003     		.2byte	0x3a0
 4874 0b53 8C000000 		.4byte	0x8c
 4875 0b57 C9060000 		.4byte	.LLST27
 4876 0b5b 18       		.uleb128 0x18
 4877 0b5c C9030000 		.4byte	.LASF66
 4878 0b60 01       		.byte	0x1
 4879 0b61 A003     		.2byte	0x3a0
 4880 0b63 8C000000 		.4byte	0x8c
 4881 0b67 EA060000 		.4byte	.LLST28
ARM GAS  C:\Users\jesse\AppData\Local\Temp\cc6zNusR.s 			page 119


 4882 0b6b 18       		.uleb128 0x18
 4883 0b6c C3080000 		.4byte	.LASF67
 4884 0b70 01       		.byte	0x1
 4885 0b71 A003     		.2byte	0x3a0
 4886 0b73 AD000000 		.4byte	0xad
 4887 0b77 B7070000 		.4byte	.LLST29
 4888 0b7b 1A       		.uleb128 0x1a
 4889 0b7c 7800     		.ascii	"x\000"
 4890 0b7e 01       		.byte	0x1
 4891 0b7f A203     		.2byte	0x3a2
 4892 0b81 8C000000 		.4byte	0x8c
 4893 0b85 E3070000 		.4byte	.LLST30
 4894 0b89 1A       		.uleb128 0x1a
 4895 0b8a 6300     		.ascii	"c\000"
 4896 0b8c 01       		.byte	0x1
 4897 0b8d A203     		.2byte	0x3a2
 4898 0b8f 8C000000 		.4byte	0x8c
 4899 0b93 01080000 		.4byte	.LLST31
 4900 0b97 1A       		.uleb128 0x1a
 4901 0b98 70747200 		.ascii	"ptr\000"
 4902 0b9c 01       		.byte	0x1
 4903 0b9d A303     		.2byte	0x3a3
 4904 0b9f 70030000 		.4byte	0x370
 4905 0ba3 43080000 		.4byte	.LLST32
 4906 0ba7 13       		.uleb128 0x13
 4907 0ba8 22000000 		.4byte	.LVL108
 4908 0bac B6190000 		.4byte	0x19b6
 4909 0bb0 14       		.uleb128 0x14
 4910 0bb1 2C000000 		.4byte	.LVL110
 4911 0bb5 C2190000 		.4byte	0x19c2
 4912 0bb9 CA0B0000 		.4byte	0xbca
 4913 0bbd 15       		.uleb128 0x15
 4914 0bbe 01       		.uleb128 0x1
 4915 0bbf 50       		.byte	0x50
 4916 0bc0 02       		.uleb128 0x2
 4917 0bc1 74       		.byte	0x74
 4918 0bc2 00       		.sleb128 0
 4919 0bc3 15       		.uleb128 0x15
 4920 0bc4 01       		.uleb128 0x1
 4921 0bc5 51       		.byte	0x51
 4922 0bc6 02       		.uleb128 0x2
 4923 0bc7 08       		.byte	0x8
 4924 0bc8 30       		.byte	0x30
 4925 0bc9 00       		.byte	0
 4926 0bca 14       		.uleb128 0x14
 4927 0bcb 34000000 		.4byte	.LVL111
 4928 0bcf C2190000 		.4byte	0x19c2
 4929 0bd3 E40B0000 		.4byte	0xbe4
 4930 0bd7 15       		.uleb128 0x15
 4931 0bd8 01       		.uleb128 0x1
 4932 0bd9 50       		.byte	0x50
 4933 0bda 02       		.uleb128 0x2
 4934 0bdb 74       		.byte	0x74
 4935 0bdc 00       		.sleb128 0
 4936 0bdd 15       		.uleb128 0x15
 4937 0bde 01       		.uleb128 0x1
 4938 0bdf 51       		.byte	0x51
ARM GAS  C:\Users\jesse\AppData\Local\Temp\cc6zNusR.s 			page 120


 4939 0be0 02       		.uleb128 0x2
 4940 0be1 08       		.byte	0x8
 4941 0be2 75       		.byte	0x75
 4942 0be3 00       		.byte	0
 4943 0be4 14       		.uleb128 0x14
 4944 0be5 4C000000 		.4byte	.LVL114
 4945 0be9 CE190000 		.4byte	0x19ce
 4946 0bed F80B0000 		.4byte	0xbf8
 4947 0bf1 15       		.uleb128 0x15
 4948 0bf2 01       		.uleb128 0x1
 4949 0bf3 50       		.byte	0x50
 4950 0bf4 02       		.uleb128 0x2
 4951 0bf5 74       		.byte	0x74
 4952 0bf6 00       		.sleb128 0
 4953 0bf7 00       		.byte	0
 4954 0bf8 14       		.uleb128 0x14
 4955 0bf9 54000000 		.4byte	.LVL115
 4956 0bfd CE190000 		.4byte	0x19ce
 4957 0c01 120C0000 		.4byte	0xc12
 4958 0c05 15       		.uleb128 0x15
 4959 0c06 01       		.uleb128 0x1
 4960 0c07 50       		.byte	0x50
 4961 0c08 02       		.uleb128 0x2
 4962 0c09 74       		.byte	0x74
 4963 0c0a 00       		.sleb128 0
 4964 0c0b 15       		.uleb128 0x15
 4965 0c0c 01       		.uleb128 0x1
 4966 0c0d 51       		.byte	0x51
 4967 0c0e 02       		.uleb128 0x2
 4968 0c0f 08       		.byte	0x8
 4969 0c10 4F       		.byte	0x4f
 4970 0c11 00       		.byte	0
 4971 0c12 14       		.uleb128 0x14
 4972 0c13 5C000000 		.4byte	.LVL116
 4973 0c17 C2190000 		.4byte	0x19c2
 4974 0c1b 2B0C0000 		.4byte	0xc2b
 4975 0c1f 15       		.uleb128 0x15
 4976 0c20 01       		.uleb128 0x1
 4977 0c21 50       		.byte	0x50
 4978 0c22 02       		.uleb128 0x2
 4979 0c23 74       		.byte	0x74
 4980 0c24 00       		.sleb128 0
 4981 0c25 15       		.uleb128 0x15
 4982 0c26 01       		.uleb128 0x1
 4983 0c27 51       		.byte	0x51
 4984 0c28 01       		.uleb128 0x1
 4985 0c29 45       		.byte	0x45
 4986 0c2a 00       		.byte	0
 4987 0c2b 14       		.uleb128 0x14
 4988 0c2c 6A000000 		.4byte	.LVL117
 4989 0c30 CE190000 		.4byte	0x19ce
 4990 0c34 3F0C0000 		.4byte	0xc3f
 4991 0c38 15       		.uleb128 0x15
 4992 0c39 01       		.uleb128 0x1
 4993 0c3a 50       		.byte	0x50
 4994 0c3b 02       		.uleb128 0x2
 4995 0c3c 74       		.byte	0x74
ARM GAS  C:\Users\jesse\AppData\Local\Temp\cc6zNusR.s 			page 121


 4996 0c3d 00       		.sleb128 0
 4997 0c3e 00       		.byte	0
 4998 0c3f 14       		.uleb128 0x14
 4999 0c40 72000000 		.4byte	.LVL118
 5000 0c44 CE190000 		.4byte	0x19ce
 5001 0c48 590C0000 		.4byte	0xc59
 5002 0c4c 15       		.uleb128 0x15
 5003 0c4d 01       		.uleb128 0x1
 5004 0c4e 50       		.byte	0x50
 5005 0c4f 02       		.uleb128 0x2
 5006 0c50 74       		.byte	0x74
 5007 0c51 00       		.sleb128 0
 5008 0c52 15       		.uleb128 0x15
 5009 0c53 01       		.uleb128 0x1
 5010 0c54 51       		.byte	0x51
 5011 0c55 02       		.uleb128 0x2
 5012 0c56 09       		.byte	0x9
 5013 0c57 FF       		.byte	0xff
 5014 0c58 00       		.byte	0
 5015 0c59 14       		.uleb128 0x14
 5016 0c5a 7A000000 		.4byte	.LVL119
 5017 0c5e C2190000 		.4byte	0x19c2
 5018 0c62 730C0000 		.4byte	0xc73
 5019 0c66 15       		.uleb128 0x15
 5020 0c67 01       		.uleb128 0x1
 5021 0c68 50       		.byte	0x50
 5022 0c69 02       		.uleb128 0x2
 5023 0c6a 74       		.byte	0x74
 5024 0c6b 00       		.sleb128 0
 5025 0c6c 15       		.uleb128 0x15
 5026 0c6d 01       		.uleb128 0x1
 5027 0c6e 51       		.byte	0x51
 5028 0c6f 02       		.uleb128 0x2
 5029 0c70 08       		.byte	0x8
 5030 0c71 5C       		.byte	0x5c
 5031 0c72 00       		.byte	0
 5032 0c73 14       		.uleb128 0x14
 5033 0c74 9A000000 		.4byte	.LVL127
 5034 0c78 E6190000 		.4byte	0x19e6
 5035 0c7c 8D0C0000 		.4byte	0xc8d
 5036 0c80 15       		.uleb128 0x15
 5037 0c81 01       		.uleb128 0x1
 5038 0c82 50       		.byte	0x50
 5039 0c83 02       		.uleb128 0x2
 5040 0c84 74       		.byte	0x74
 5041 0c85 00       		.sleb128 0
 5042 0c86 15       		.uleb128 0x15
 5043 0c87 01       		.uleb128 0x1
 5044 0c88 51       		.byte	0x51
 5045 0c89 02       		.uleb128 0x2
 5046 0c8a 75       		.byte	0x75
 5047 0c8b 00       		.sleb128 0
 5048 0c8c 00       		.byte	0
 5049 0c8d 14       		.uleb128 0x14
 5050 0c8e AE000000 		.4byte	.LVL131
 5051 0c92 F2190000 		.4byte	0x19f2
 5052 0c96 A40C0000 		.4byte	0xca4
ARM GAS  C:\Users\jesse\AppData\Local\Temp\cc6zNusR.s 			page 122


 5053 0c9a 15       		.uleb128 0x15
 5054 0c9b 01       		.uleb128 0x1
 5055 0c9c 51       		.byte	0x51
 5056 0c9d 05       		.uleb128 0x5
 5057 0c9e 03       		.byte	0x3
 5058 0c9f 54020000 		.4byte	.LANCHOR0+596
 5059 0ca3 00       		.byte	0
 5060 0ca4 13       		.uleb128 0x13
 5061 0ca5 B4000000 		.4byte	.LVL133
 5062 0ca9 FE190000 		.4byte	0x19fe
 5063 0cad 14       		.uleb128 0x14
 5064 0cae C6000000 		.4byte	.LVL136
 5065 0cb2 AA190000 		.4byte	0x19aa
 5066 0cb6 C10C0000 		.4byte	0xcc1
 5067 0cba 15       		.uleb128 0x15
 5068 0cbb 01       		.uleb128 0x1
 5069 0cbc 50       		.byte	0x50
 5070 0cbd 02       		.uleb128 0x2
 5071 0cbe 74       		.byte	0x74
 5072 0cbf 00       		.sleb128 0
 5073 0cc0 00       		.byte	0
 5074 0cc1 14       		.uleb128 0x14
 5075 0cc2 D0000000 		.4byte	.LVL138
 5076 0cc6 AA190000 		.4byte	0x19aa
 5077 0cca D80C0000 		.4byte	0xcd8
 5078 0cce 15       		.uleb128 0x15
 5079 0ccf 01       		.uleb128 0x1
 5080 0cd0 51       		.byte	0x51
 5081 0cd1 05       		.uleb128 0x5
 5082 0cd2 03       		.byte	0x3
 5083 0cd3 3E010000 		.4byte	.LANCHOR0+318
 5084 0cd7 00       		.byte	0
 5085 0cd8 14       		.uleb128 0x14
 5086 0cd9 DC000000 		.4byte	.LVL140
 5087 0cdd AA190000 		.4byte	0x19aa
 5088 0ce1 EF0C0000 		.4byte	0xcef
 5089 0ce5 15       		.uleb128 0x15
 5090 0ce6 01       		.uleb128 0x1
 5091 0ce7 51       		.byte	0x51
 5092 0ce8 05       		.uleb128 0x5
 5093 0ce9 03       		.byte	0x3
 5094 0cea 31010000 		.4byte	.LANCHOR0+305
 5095 0cee 00       		.byte	0
 5096 0cef 13       		.uleb128 0x13
 5097 0cf0 EA000000 		.4byte	.LVL142
 5098 0cf4 B6190000 		.4byte	0x19b6
 5099 0cf8 14       		.uleb128 0x14
 5100 0cf9 F2000000 		.4byte	.LVL143
 5101 0cfd C2190000 		.4byte	0x19c2
 5102 0d01 120D0000 		.4byte	0xd12
 5103 0d05 15       		.uleb128 0x15
 5104 0d06 01       		.uleb128 0x1
 5105 0d07 50       		.byte	0x50
 5106 0d08 02       		.uleb128 0x2
 5107 0d09 74       		.byte	0x74
 5108 0d0a 00       		.sleb128 0
 5109 0d0b 15       		.uleb128 0x15
ARM GAS  C:\Users\jesse\AppData\Local\Temp\cc6zNusR.s 			page 123


 5110 0d0c 01       		.uleb128 0x1
 5111 0d0d 51       		.byte	0x51
 5112 0d0e 02       		.uleb128 0x2
 5113 0d0f 08       		.byte	0x8
 5114 0d10 30       		.byte	0x30
 5115 0d11 00       		.byte	0
 5116 0d12 14       		.uleb128 0x14
 5117 0d13 FA000000 		.4byte	.LVL144
 5118 0d17 C2190000 		.4byte	0x19c2
 5119 0d1b 2C0D0000 		.4byte	0xd2c
 5120 0d1f 15       		.uleb128 0x15
 5121 0d20 01       		.uleb128 0x1
 5122 0d21 50       		.byte	0x50
 5123 0d22 02       		.uleb128 0x2
 5124 0d23 74       		.byte	0x74
 5125 0d24 00       		.sleb128 0
 5126 0d25 15       		.uleb128 0x15
 5127 0d26 01       		.uleb128 0x1
 5128 0d27 51       		.byte	0x51
 5129 0d28 02       		.uleb128 0x2
 5130 0d29 09       		.byte	0x9
 5131 0d2a 81       		.byte	0x81
 5132 0d2b 00       		.byte	0
 5133 0d2c 14       		.uleb128 0x14
 5134 0d2d 06010000 		.4byte	.LVL145
 5135 0d31 CE190000 		.4byte	0x19ce
 5136 0d35 4B0D0000 		.4byte	0xd4b
 5137 0d39 15       		.uleb128 0x15
 5138 0d3a 01       		.uleb128 0x1
 5139 0d3b 50       		.byte	0x50
 5140 0d3c 02       		.uleb128 0x2
 5141 0d3d 74       		.byte	0x74
 5142 0d3e 00       		.sleb128 0
 5143 0d3f 15       		.uleb128 0x15
 5144 0d40 01       		.uleb128 0x1
 5145 0d41 51       		.byte	0x51
 5146 0d42 07       		.uleb128 0x7
 5147 0d43 76       		.byte	0x76
 5148 0d44 00       		.sleb128 0
 5149 0d45 31       		.byte	0x31
 5150 0d46 24       		.byte	0x24
 5151 0d47 08       		.byte	0x8
 5152 0d48 3E       		.byte	0x3e
 5153 0d49 1A       		.byte	0x1a
 5154 0d4a 00       		.byte	0
 5155 0d4b 14       		.uleb128 0x14
 5156 0d4c 0E010000 		.4byte	.LVL146
 5157 0d50 CE190000 		.4byte	0x19ce
 5158 0d54 670D0000 		.4byte	0xd67
 5159 0d58 15       		.uleb128 0x15
 5160 0d59 01       		.uleb128 0x1
 5161 0d5a 50       		.byte	0x50
 5162 0d5b 02       		.uleb128 0x2
 5163 0d5c 74       		.byte	0x74
 5164 0d5d 00       		.sleb128 0
 5165 0d5e 15       		.uleb128 0x15
 5166 0d5f 01       		.uleb128 0x1
ARM GAS  C:\Users\jesse\AppData\Local\Temp\cc6zNusR.s 			page 124


 5167 0d60 51       		.byte	0x51
 5168 0d61 04       		.uleb128 0x4
 5169 0d62 76       		.byte	0x76
 5170 0d63 00       		.sleb128 0
 5171 0d64 35       		.byte	0x35
 5172 0d65 25       		.byte	0x25
 5173 0d66 00       		.byte	0
 5174 0d67 16       		.uleb128 0x16
 5175 0d68 14010000 		.4byte	.LVL147
 5176 0d6c DA190000 		.4byte	0x19da
 5177 0d70 15       		.uleb128 0x15
 5178 0d71 01       		.uleb128 0x1
 5179 0d72 50       		.byte	0x50
 5180 0d73 02       		.uleb128 0x2
 5181 0d74 74       		.byte	0x74
 5182 0d75 00       		.sleb128 0
 5183 0d76 00       		.byte	0
 5184 0d77 00       		.byte	0
 5185 0d78 17       		.uleb128 0x17
 5186 0d79 17020000 		.4byte	.LASF73
 5187 0d7d 01       		.byte	0x1
 5188 0d7e 6304     		.2byte	0x463
 5189 0d80 8C000000 		.4byte	0x8c
 5190 0d84 00000000 		.4byte	.LFB6
 5191 0d88 44010000 		.4byte	.LFE6-.LFB6
 5192 0d8c 01       		.uleb128 0x1
 5193 0d8d 9C       		.byte	0x9c
 5194 0d8e FA0F0000 		.4byte	0xffa
 5195 0d92 18       		.uleb128 0x18
 5196 0d93 09070000 		.4byte	.LASF65
 5197 0d97 01       		.byte	0x1
 5198 0d98 6304     		.2byte	0x463
 5199 0d9a 45030000 		.4byte	0x345
 5200 0d9e 56080000 		.4byte	.LLST33
 5201 0da2 19       		.uleb128 0x19
 5202 0da3 6D736700 		.ascii	"msg\000"
 5203 0da7 01       		.byte	0x1
 5204 0da8 6304     		.2byte	0x463
 5205 0daa 8C000000 		.4byte	0x8c
 5206 0dae 1C090000 		.4byte	.LLST34
 5207 0db2 18       		.uleb128 0x18
 5208 0db3 C9030000 		.4byte	.LASF66
 5209 0db7 01       		.byte	0x1
 5210 0db8 6304     		.2byte	0x463
 5211 0dba 8C000000 		.4byte	0x8c
 5212 0dbe 3D090000 		.4byte	.LLST35
 5213 0dc2 18       		.uleb128 0x18
 5214 0dc3 C3080000 		.4byte	.LASF67
 5215 0dc7 01       		.byte	0x1
 5216 0dc8 6304     		.2byte	0x463
 5217 0dca AD000000 		.4byte	0xad
 5218 0dce 150A0000 		.4byte	.LLST36
 5219 0dd2 1A       		.uleb128 0x1a
 5220 0dd3 7800     		.ascii	"x\000"
 5221 0dd5 01       		.byte	0x1
 5222 0dd6 6504     		.2byte	0x465
 5223 0dd8 8C000000 		.4byte	0x8c
ARM GAS  C:\Users\jesse\AppData\Local\Temp\cc6zNusR.s 			page 125


 5224 0ddc 410A0000 		.4byte	.LLST37
 5225 0de0 1A       		.uleb128 0x1a
 5226 0de1 6300     		.ascii	"c\000"
 5227 0de3 01       		.byte	0x1
 5228 0de4 6504     		.2byte	0x465
 5229 0de6 8C000000 		.4byte	0x8c
 5230 0dea 5F0A0000 		.4byte	.LLST38
 5231 0dee 1A       		.uleb128 0x1a
 5232 0def 70747200 		.ascii	"ptr\000"
 5233 0df3 01       		.byte	0x1
 5234 0df4 6604     		.2byte	0x466
 5235 0df6 70030000 		.4byte	0x370
 5236 0dfa 8A0A0000 		.4byte	.LLST39
 5237 0dfe 13       		.uleb128 0x13
 5238 0dff 22000000 		.4byte	.LVL154
 5239 0e03 B6190000 		.4byte	0x19b6
 5240 0e07 14       		.uleb128 0x14
 5241 0e08 2E000000 		.4byte	.LVL156
 5242 0e0c C2190000 		.4byte	0x19c2
 5243 0e10 210E0000 		.4byte	0xe21
 5244 0e14 15       		.uleb128 0x15
 5245 0e15 01       		.uleb128 0x1
 5246 0e16 50       		.byte	0x50
 5247 0e17 02       		.uleb128 0x2
 5248 0e18 74       		.byte	0x74
 5249 0e19 00       		.sleb128 0
 5250 0e1a 15       		.uleb128 0x15
 5251 0e1b 01       		.uleb128 0x1
 5252 0e1c 51       		.byte	0x51
 5253 0e1d 02       		.uleb128 0x2
 5254 0e1e 08       		.byte	0x8
 5255 0e1f 30       		.byte	0x30
 5256 0e20 00       		.byte	0
 5257 0e21 14       		.uleb128 0x14
 5258 0e22 36000000 		.4byte	.LVL157
 5259 0e26 C2190000 		.4byte	0x19c2
 5260 0e2a 3B0E0000 		.4byte	0xe3b
 5261 0e2e 15       		.uleb128 0x15
 5262 0e2f 01       		.uleb128 0x1
 5263 0e30 50       		.byte	0x50
 5264 0e31 02       		.uleb128 0x2
 5265 0e32 74       		.byte	0x74
 5266 0e33 00       		.sleb128 0
 5267 0e34 15       		.uleb128 0x15
 5268 0e35 01       		.uleb128 0x1
 5269 0e36 51       		.byte	0x51
 5270 0e37 02       		.uleb128 0x2
 5271 0e38 08       		.byte	0x8
 5272 0e39 75       		.byte	0x75
 5273 0e3a 00       		.byte	0
 5274 0e3b 14       		.uleb128 0x14
 5275 0e3c 4C000000 		.4byte	.LVL158
 5276 0e40 CE190000 		.4byte	0x19ce
 5277 0e44 4F0E0000 		.4byte	0xe4f
 5278 0e48 15       		.uleb128 0x15
 5279 0e49 01       		.uleb128 0x1
 5280 0e4a 50       		.byte	0x50
ARM GAS  C:\Users\jesse\AppData\Local\Temp\cc6zNusR.s 			page 126


 5281 0e4b 02       		.uleb128 0x2
 5282 0e4c 74       		.byte	0x74
 5283 0e4d 00       		.sleb128 0
 5284 0e4e 00       		.byte	0
 5285 0e4f 14       		.uleb128 0x14
 5286 0e50 54000000 		.4byte	.LVL159
 5287 0e54 CE190000 		.4byte	0x19ce
 5288 0e58 690E0000 		.4byte	0xe69
 5289 0e5c 15       		.uleb128 0x15
 5290 0e5d 01       		.uleb128 0x1
 5291 0e5e 50       		.byte	0x50
 5292 0e5f 02       		.uleb128 0x2
 5293 0e60 74       		.byte	0x74
 5294 0e61 00       		.sleb128 0
 5295 0e62 15       		.uleb128 0x15
 5296 0e63 01       		.uleb128 0x1
 5297 0e64 51       		.byte	0x51
 5298 0e65 02       		.uleb128 0x2
 5299 0e66 08       		.byte	0x8
 5300 0e67 4F       		.byte	0x4f
 5301 0e68 00       		.byte	0
 5302 0e69 14       		.uleb128 0x14
 5303 0e6a 5C000000 		.4byte	.LVL160
 5304 0e6e C2190000 		.4byte	0x19c2
 5305 0e72 820E0000 		.4byte	0xe82
 5306 0e76 15       		.uleb128 0x15
 5307 0e77 01       		.uleb128 0x1
 5308 0e78 50       		.byte	0x50
 5309 0e79 02       		.uleb128 0x2
 5310 0e7a 74       		.byte	0x74
 5311 0e7b 00       		.sleb128 0
 5312 0e7c 15       		.uleb128 0x15
 5313 0e7d 01       		.uleb128 0x1
 5314 0e7e 51       		.byte	0x51
 5315 0e7f 01       		.uleb128 0x1
 5316 0e80 45       		.byte	0x45
 5317 0e81 00       		.byte	0
 5318 0e82 14       		.uleb128 0x14
 5319 0e83 6E000000 		.4byte	.LVL163
 5320 0e87 CE190000 		.4byte	0x19ce
 5321 0e8b 960E0000 		.4byte	0xe96
 5322 0e8f 15       		.uleb128 0x15
 5323 0e90 01       		.uleb128 0x1
 5324 0e91 50       		.byte	0x50
 5325 0e92 02       		.uleb128 0x2
 5326 0e93 74       		.byte	0x74
 5327 0e94 00       		.sleb128 0
 5328 0e95 00       		.byte	0
 5329 0e96 14       		.uleb128 0x14
 5330 0e97 76000000 		.4byte	.LVL164
 5331 0e9b CE190000 		.4byte	0x19ce
 5332 0e9f B00E0000 		.4byte	0xeb0
 5333 0ea3 15       		.uleb128 0x15
 5334 0ea4 01       		.uleb128 0x1
 5335 0ea5 50       		.byte	0x50
 5336 0ea6 02       		.uleb128 0x2
 5337 0ea7 74       		.byte	0x74
ARM GAS  C:\Users\jesse\AppData\Local\Temp\cc6zNusR.s 			page 127


 5338 0ea8 00       		.sleb128 0
 5339 0ea9 15       		.uleb128 0x15
 5340 0eaa 01       		.uleb128 0x1
 5341 0eab 51       		.byte	0x51
 5342 0eac 02       		.uleb128 0x2
 5343 0ead 09       		.byte	0x9
 5344 0eae FF       		.byte	0xff
 5345 0eaf 00       		.byte	0
 5346 0eb0 14       		.uleb128 0x14
 5347 0eb1 7E000000 		.4byte	.LVL165
 5348 0eb5 C2190000 		.4byte	0x19c2
 5349 0eb9 CA0E0000 		.4byte	0xeca
 5350 0ebd 15       		.uleb128 0x15
 5351 0ebe 01       		.uleb128 0x1
 5352 0ebf 50       		.byte	0x50
 5353 0ec0 02       		.uleb128 0x2
 5354 0ec1 74       		.byte	0x74
 5355 0ec2 00       		.sleb128 0
 5356 0ec3 15       		.uleb128 0x15
 5357 0ec4 01       		.uleb128 0x1
 5358 0ec5 51       		.byte	0x51
 5359 0ec6 02       		.uleb128 0x2
 5360 0ec7 08       		.byte	0x8
 5361 0ec8 5C       		.byte	0x5c
 5362 0ec9 00       		.byte	0
 5363 0eca 14       		.uleb128 0x14
 5364 0ecb 94000000 		.4byte	.LVL168
 5365 0ecf E6190000 		.4byte	0x19e6
 5366 0ed3 EA0E0000 		.4byte	0xeea
 5367 0ed7 15       		.uleb128 0x15
 5368 0ed8 01       		.uleb128 0x1
 5369 0ed9 50       		.byte	0x50
 5370 0eda 02       		.uleb128 0x2
 5371 0edb 74       		.byte	0x74
 5372 0edc 00       		.sleb128 0
 5373 0edd 15       		.uleb128 0x15
 5374 0ede 01       		.uleb128 0x1
 5375 0edf 51       		.byte	0x51
 5376 0ee0 02       		.uleb128 0x2
 5377 0ee1 09       		.byte	0x9
 5378 0ee2 F8       		.byte	0xf8
 5379 0ee3 15       		.uleb128 0x15
 5380 0ee4 01       		.uleb128 0x1
 5381 0ee5 52       		.byte	0x52
 5382 0ee6 02       		.uleb128 0x2
 5383 0ee7 77       		.byte	0x77
 5384 0ee8 00       		.sleb128 0
 5385 0ee9 00       		.byte	0
 5386 0eea 14       		.uleb128 0x14
 5387 0eeb AA000000 		.4byte	.LVL173
 5388 0eef E6190000 		.4byte	0x19e6
 5389 0ef3 0F0F0000 		.4byte	0xf0f
 5390 0ef7 15       		.uleb128 0x15
 5391 0ef8 01       		.uleb128 0x1
 5392 0ef9 50       		.byte	0x50
 5393 0efa 02       		.uleb128 0x2
 5394 0efb 74       		.byte	0x74
ARM GAS  C:\Users\jesse\AppData\Local\Temp\cc6zNusR.s 			page 128


 5395 0efc 00       		.sleb128 0
 5396 0efd 15       		.uleb128 0x15
 5397 0efe 01       		.uleb128 0x1
 5398 0eff 51       		.byte	0x51
 5399 0f00 07       		.uleb128 0x7
 5400 0f01 76       		.byte	0x76
 5401 0f02 00       		.sleb128 0
 5402 0f03 33       		.byte	0x33
 5403 0f04 24       		.byte	0x24
 5404 0f05 08       		.byte	0x8
 5405 0f06 F8       		.byte	0xf8
 5406 0f07 1A       		.byte	0x1a
 5407 0f08 15       		.uleb128 0x15
 5408 0f09 01       		.uleb128 0x1
 5409 0f0a 52       		.byte	0x52
 5410 0f0b 02       		.uleb128 0x2
 5411 0f0c 77       		.byte	0x77
 5412 0f0d 00       		.sleb128 0
 5413 0f0e 00       		.byte	0
 5414 0f0f 14       		.uleb128 0x14
 5415 0f10 B8000000 		.4byte	.LVL176
 5416 0f14 F2190000 		.4byte	0x19f2
 5417 0f18 260F0000 		.4byte	0xf26
 5418 0f1c 15       		.uleb128 0x15
 5419 0f1d 01       		.uleb128 0x1
 5420 0f1e 51       		.byte	0x51
 5421 0f1f 05       		.uleb128 0x5
 5422 0f20 03       		.byte	0x3
 5423 0f21 D8020000 		.4byte	.LANCHOR0+728
 5424 0f25 00       		.byte	0
 5425 0f26 13       		.uleb128 0x13
 5426 0f27 BE000000 		.4byte	.LVL178
 5427 0f2b FE190000 		.4byte	0x19fe
 5428 0f2f 14       		.uleb128 0x14
 5429 0f30 D0000000 		.4byte	.LVL181
 5430 0f34 AA190000 		.4byte	0x19aa
 5431 0f38 430F0000 		.4byte	0xf43
 5432 0f3c 15       		.uleb128 0x15
 5433 0f3d 01       		.uleb128 0x1
 5434 0f3e 50       		.byte	0x50
 5435 0f3f 02       		.uleb128 0x2
 5436 0f40 74       		.byte	0x74
 5437 0f41 00       		.sleb128 0
 5438 0f42 00       		.byte	0
 5439 0f43 14       		.uleb128 0x14
 5440 0f44 DA000000 		.4byte	.LVL183
 5441 0f48 AA190000 		.4byte	0x19aa
 5442 0f4c 5A0F0000 		.4byte	0xf5a
 5443 0f50 15       		.uleb128 0x15
 5444 0f51 01       		.uleb128 0x1
 5445 0f52 51       		.byte	0x51
 5446 0f53 05       		.uleb128 0x5
 5447 0f54 03       		.byte	0x3
 5448 0f55 59030000 		.4byte	.LANCHOR0+857
 5449 0f59 00       		.byte	0
 5450 0f5a 14       		.uleb128 0x14
 5451 0f5b E6000000 		.4byte	.LVL185
ARM GAS  C:\Users\jesse\AppData\Local\Temp\cc6zNusR.s 			page 129


 5452 0f5f AA190000 		.4byte	0x19aa
 5453 0f63 710F0000 		.4byte	0xf71
 5454 0f67 15       		.uleb128 0x15
 5455 0f68 01       		.uleb128 0x1
 5456 0f69 51       		.byte	0x51
 5457 0f6a 05       		.uleb128 0x5
 5458 0f6b 03       		.byte	0x3
 5459 0f6c 66030000 		.4byte	.LANCHOR0+870
 5460 0f70 00       		.byte	0
 5461 0f71 13       		.uleb128 0x13
 5462 0f72 F4000000 		.4byte	.LVL187
 5463 0f76 B6190000 		.4byte	0x19b6
 5464 0f7a 14       		.uleb128 0x14
 5465 0f7b FC000000 		.4byte	.LVL188
 5466 0f7f C2190000 		.4byte	0x19c2
 5467 0f83 940F0000 		.4byte	0xf94
 5468 0f87 15       		.uleb128 0x15
 5469 0f88 01       		.uleb128 0x1
 5470 0f89 50       		.byte	0x50
 5471 0f8a 02       		.uleb128 0x2
 5472 0f8b 74       		.byte	0x74
 5473 0f8c 00       		.sleb128 0
 5474 0f8d 15       		.uleb128 0x15
 5475 0f8e 01       		.uleb128 0x1
 5476 0f8f 51       		.byte	0x51
 5477 0f90 02       		.uleb128 0x2
 5478 0f91 08       		.byte	0x8
 5479 0f92 30       		.byte	0x30
 5480 0f93 00       		.byte	0
 5481 0f94 14       		.uleb128 0x14
 5482 0f95 04010000 		.4byte	.LVL189
 5483 0f99 C2190000 		.4byte	0x19c2
 5484 0f9d AE0F0000 		.4byte	0xfae
 5485 0fa1 15       		.uleb128 0x15
 5486 0fa2 01       		.uleb128 0x1
 5487 0fa3 50       		.byte	0x50
 5488 0fa4 02       		.uleb128 0x2
 5489 0fa5 74       		.byte	0x74
 5490 0fa6 00       		.sleb128 0
 5491 0fa7 15       		.uleb128 0x15
 5492 0fa8 01       		.uleb128 0x1
 5493 0fa9 51       		.byte	0x51
 5494 0faa 02       		.uleb128 0x2
 5495 0fab 09       		.byte	0x9
 5496 0fac 81       		.byte	0x81
 5497 0fad 00       		.byte	0
 5498 0fae 14       		.uleb128 0x14
 5499 0faf 10010000 		.4byte	.LVL190
 5500 0fb3 CE190000 		.4byte	0x19ce
 5501 0fb7 CD0F0000 		.4byte	0xfcd
 5502 0fbb 15       		.uleb128 0x15
 5503 0fbc 01       		.uleb128 0x1
 5504 0fbd 50       		.byte	0x50
 5505 0fbe 02       		.uleb128 0x2
 5506 0fbf 74       		.byte	0x74
 5507 0fc0 00       		.sleb128 0
 5508 0fc1 15       		.uleb128 0x15
ARM GAS  C:\Users\jesse\AppData\Local\Temp\cc6zNusR.s 			page 130


 5509 0fc2 01       		.uleb128 0x1
 5510 0fc3 51       		.byte	0x51
 5511 0fc4 07       		.uleb128 0x7
 5512 0fc5 75       		.byte	0x75
 5513 0fc6 00       		.sleb128 0
 5514 0fc7 31       		.byte	0x31
 5515 0fc8 24       		.byte	0x24
 5516 0fc9 08       		.byte	0x8
 5517 0fca 3E       		.byte	0x3e
 5518 0fcb 1A       		.byte	0x1a
 5519 0fcc 00       		.byte	0
 5520 0fcd 14       		.uleb128 0x14
 5521 0fce 18010000 		.4byte	.LVL191
 5522 0fd2 CE190000 		.4byte	0x19ce
 5523 0fd6 E90F0000 		.4byte	0xfe9
 5524 0fda 15       		.uleb128 0x15
 5525 0fdb 01       		.uleb128 0x1
 5526 0fdc 50       		.byte	0x50
 5527 0fdd 02       		.uleb128 0x2
 5528 0fde 74       		.byte	0x74
 5529 0fdf 00       		.sleb128 0
 5530 0fe0 15       		.uleb128 0x15
 5531 0fe1 01       		.uleb128 0x1
 5532 0fe2 51       		.byte	0x51
 5533 0fe3 04       		.uleb128 0x4
 5534 0fe4 75       		.byte	0x75
 5535 0fe5 00       		.sleb128 0
 5536 0fe6 35       		.byte	0x35
 5537 0fe7 25       		.byte	0x25
 5538 0fe8 00       		.byte	0
 5539 0fe9 16       		.uleb128 0x16
 5540 0fea 1E010000 		.4byte	.LVL192
 5541 0fee DA190000 		.4byte	0x19da
 5542 0ff2 15       		.uleb128 0x15
 5543 0ff3 01       		.uleb128 0x1
 5544 0ff4 50       		.byte	0x50
 5545 0ff5 02       		.uleb128 0x2
 5546 0ff6 74       		.byte	0x74
 5547 0ff7 00       		.sleb128 0
 5548 0ff8 00       		.byte	0
 5549 0ff9 00       		.byte	0
 5550 0ffa 17       		.uleb128 0x17
 5551 0ffb A9080000 		.4byte	.LASF74
 5552 0fff 01       		.byte	0x1
 5553 1000 0905     		.2byte	0x509
 5554 1002 8C000000 		.4byte	0x8c
 5555 1006 00000000 		.4byte	.LFB7
 5556 100a 44010000 		.4byte	.LFE7-.LFB7
 5557 100e 01       		.uleb128 0x1
 5558 100f 9C       		.byte	0x9c
 5559 1010 7C120000 		.4byte	0x127c
 5560 1014 18       		.uleb128 0x18
 5561 1015 09070000 		.4byte	.LASF65
 5562 1019 01       		.byte	0x1
 5563 101a 0905     		.2byte	0x509
 5564 101c 45030000 		.4byte	0x345
 5565 1020 9D0A0000 		.4byte	.LLST40
ARM GAS  C:\Users\jesse\AppData\Local\Temp\cc6zNusR.s 			page 131


 5566 1024 19       		.uleb128 0x19
 5567 1025 6D736700 		.ascii	"msg\000"
 5568 1029 01       		.byte	0x1
 5569 102a 0905     		.2byte	0x509
 5570 102c 8C000000 		.4byte	0x8c
 5571 1030 630B0000 		.4byte	.LLST41
 5572 1034 18       		.uleb128 0x18
 5573 1035 C9030000 		.4byte	.LASF66
 5574 1039 01       		.byte	0x1
 5575 103a 0905     		.2byte	0x509
 5576 103c 8C000000 		.4byte	0x8c
 5577 1040 840B0000 		.4byte	.LLST42
 5578 1044 18       		.uleb128 0x18
 5579 1045 C3080000 		.4byte	.LASF67
 5580 1049 01       		.byte	0x1
 5581 104a 0905     		.2byte	0x509
 5582 104c AD000000 		.4byte	0xad
 5583 1050 5C0C0000 		.4byte	.LLST43
 5584 1054 1A       		.uleb128 0x1a
 5585 1055 7800     		.ascii	"x\000"
 5586 1057 01       		.byte	0x1
 5587 1058 0B05     		.2byte	0x50b
 5588 105a 8C000000 		.4byte	0x8c
 5589 105e 880C0000 		.4byte	.LLST44
 5590 1062 1A       		.uleb128 0x1a
 5591 1063 6300     		.ascii	"c\000"
 5592 1065 01       		.byte	0x1
 5593 1066 0B05     		.2byte	0x50b
 5594 1068 8C000000 		.4byte	0x8c
 5595 106c A60C0000 		.4byte	.LLST45
 5596 1070 1A       		.uleb128 0x1a
 5597 1071 70747200 		.ascii	"ptr\000"
 5598 1075 01       		.byte	0x1
 5599 1076 0C05     		.2byte	0x50c
 5600 1078 70030000 		.4byte	0x370
 5601 107c D10C0000 		.4byte	.LLST46
 5602 1080 13       		.uleb128 0x13
 5603 1081 22000000 		.4byte	.LVL199
 5604 1085 B6190000 		.4byte	0x19b6
 5605 1089 14       		.uleb128 0x14
 5606 108a 2E000000 		.4byte	.LVL201
 5607 108e C2190000 		.4byte	0x19c2
 5608 1092 A3100000 		.4byte	0x10a3
 5609 1096 15       		.uleb128 0x15
 5610 1097 01       		.uleb128 0x1
 5611 1098 50       		.byte	0x50
 5612 1099 02       		.uleb128 0x2
 5613 109a 74       		.byte	0x74
 5614 109b 00       		.sleb128 0
 5615 109c 15       		.uleb128 0x15
 5616 109d 01       		.uleb128 0x1
 5617 109e 51       		.byte	0x51
 5618 109f 02       		.uleb128 0x2
 5619 10a0 08       		.byte	0x8
 5620 10a1 30       		.byte	0x30
 5621 10a2 00       		.byte	0
 5622 10a3 14       		.uleb128 0x14
ARM GAS  C:\Users\jesse\AppData\Local\Temp\cc6zNusR.s 			page 132


 5623 10a4 36000000 		.4byte	.LVL202
 5624 10a8 C2190000 		.4byte	0x19c2
 5625 10ac BD100000 		.4byte	0x10bd
 5626 10b0 15       		.uleb128 0x15
 5627 10b1 01       		.uleb128 0x1
 5628 10b2 50       		.byte	0x50
 5629 10b3 02       		.uleb128 0x2
 5630 10b4 74       		.byte	0x74
 5631 10b5 00       		.sleb128 0
 5632 10b6 15       		.uleb128 0x15
 5633 10b7 01       		.uleb128 0x1
 5634 10b8 51       		.byte	0x51
 5635 10b9 02       		.uleb128 0x2
 5636 10ba 08       		.byte	0x8
 5637 10bb 75       		.byte	0x75
 5638 10bc 00       		.byte	0
 5639 10bd 14       		.uleb128 0x14
 5640 10be 4C000000 		.4byte	.LVL203
 5641 10c2 CE190000 		.4byte	0x19ce
 5642 10c6 D1100000 		.4byte	0x10d1
 5643 10ca 15       		.uleb128 0x15
 5644 10cb 01       		.uleb128 0x1
 5645 10cc 50       		.byte	0x50
 5646 10cd 02       		.uleb128 0x2
 5647 10ce 74       		.byte	0x74
 5648 10cf 00       		.sleb128 0
 5649 10d0 00       		.byte	0
 5650 10d1 14       		.uleb128 0x14
 5651 10d2 54000000 		.4byte	.LVL204
 5652 10d6 CE190000 		.4byte	0x19ce
 5653 10da EB100000 		.4byte	0x10eb
 5654 10de 15       		.uleb128 0x15
 5655 10df 01       		.uleb128 0x1
 5656 10e0 50       		.byte	0x50
 5657 10e1 02       		.uleb128 0x2
 5658 10e2 74       		.byte	0x74
 5659 10e3 00       		.sleb128 0
 5660 10e4 15       		.uleb128 0x15
 5661 10e5 01       		.uleb128 0x1
 5662 10e6 51       		.byte	0x51
 5663 10e7 02       		.uleb128 0x2
 5664 10e8 08       		.byte	0x8
 5665 10e9 4F       		.byte	0x4f
 5666 10ea 00       		.byte	0
 5667 10eb 14       		.uleb128 0x14
 5668 10ec 5C000000 		.4byte	.LVL205
 5669 10f0 C2190000 		.4byte	0x19c2
 5670 10f4 04110000 		.4byte	0x1104
 5671 10f8 15       		.uleb128 0x15
 5672 10f9 01       		.uleb128 0x1
 5673 10fa 50       		.byte	0x50
 5674 10fb 02       		.uleb128 0x2
 5675 10fc 74       		.byte	0x74
 5676 10fd 00       		.sleb128 0
 5677 10fe 15       		.uleb128 0x15
 5678 10ff 01       		.uleb128 0x1
 5679 1100 51       		.byte	0x51
ARM GAS  C:\Users\jesse\AppData\Local\Temp\cc6zNusR.s 			page 133


 5680 1101 01       		.uleb128 0x1
 5681 1102 45       		.byte	0x45
 5682 1103 00       		.byte	0
 5683 1104 14       		.uleb128 0x14
 5684 1105 6E000000 		.4byte	.LVL208
 5685 1109 CE190000 		.4byte	0x19ce
 5686 110d 18110000 		.4byte	0x1118
 5687 1111 15       		.uleb128 0x15
 5688 1112 01       		.uleb128 0x1
 5689 1113 50       		.byte	0x50
 5690 1114 02       		.uleb128 0x2
 5691 1115 74       		.byte	0x74
 5692 1116 00       		.sleb128 0
 5693 1117 00       		.byte	0
 5694 1118 14       		.uleb128 0x14
 5695 1119 76000000 		.4byte	.LVL209
 5696 111d CE190000 		.4byte	0x19ce
 5697 1121 32110000 		.4byte	0x1132
 5698 1125 15       		.uleb128 0x15
 5699 1126 01       		.uleb128 0x1
 5700 1127 50       		.byte	0x50
 5701 1128 02       		.uleb128 0x2
 5702 1129 74       		.byte	0x74
 5703 112a 00       		.sleb128 0
 5704 112b 15       		.uleb128 0x15
 5705 112c 01       		.uleb128 0x1
 5706 112d 51       		.byte	0x51
 5707 112e 02       		.uleb128 0x2
 5708 112f 09       		.byte	0x9
 5709 1130 FF       		.byte	0xff
 5710 1131 00       		.byte	0
 5711 1132 14       		.uleb128 0x14
 5712 1133 7E000000 		.4byte	.LVL210
 5713 1137 C2190000 		.4byte	0x19c2
 5714 113b 4C110000 		.4byte	0x114c
 5715 113f 15       		.uleb128 0x15
 5716 1140 01       		.uleb128 0x1
 5717 1141 50       		.byte	0x50
 5718 1142 02       		.uleb128 0x2
 5719 1143 74       		.byte	0x74
 5720 1144 00       		.sleb128 0
 5721 1145 15       		.uleb128 0x15
 5722 1146 01       		.uleb128 0x1
 5723 1147 51       		.byte	0x51
 5724 1148 02       		.uleb128 0x2
 5725 1149 08       		.byte	0x8
 5726 114a 5C       		.byte	0x5c
 5727 114b 00       		.byte	0
 5728 114c 14       		.uleb128 0x14
 5729 114d 94000000 		.4byte	.LVL213
 5730 1151 E6190000 		.4byte	0x19e6
 5731 1155 6C110000 		.4byte	0x116c
 5732 1159 15       		.uleb128 0x15
 5733 115a 01       		.uleb128 0x1
 5734 115b 50       		.byte	0x50
 5735 115c 02       		.uleb128 0x2
 5736 115d 74       		.byte	0x74
ARM GAS  C:\Users\jesse\AppData\Local\Temp\cc6zNusR.s 			page 134


 5737 115e 00       		.sleb128 0
 5738 115f 15       		.uleb128 0x15
 5739 1160 01       		.uleb128 0x1
 5740 1161 51       		.byte	0x51
 5741 1162 02       		.uleb128 0x2
 5742 1163 09       		.byte	0x9
 5743 1164 F8       		.byte	0xf8
 5744 1165 15       		.uleb128 0x15
 5745 1166 01       		.uleb128 0x1
 5746 1167 52       		.byte	0x52
 5747 1168 02       		.uleb128 0x2
 5748 1169 77       		.byte	0x77
 5749 116a 00       		.sleb128 0
 5750 116b 00       		.byte	0
 5751 116c 14       		.uleb128 0x14
 5752 116d AA000000 		.4byte	.LVL218
 5753 1171 E6190000 		.4byte	0x19e6
 5754 1175 91110000 		.4byte	0x1191
 5755 1179 15       		.uleb128 0x15
 5756 117a 01       		.uleb128 0x1
 5757 117b 50       		.byte	0x50
 5758 117c 02       		.uleb128 0x2
 5759 117d 74       		.byte	0x74
 5760 117e 00       		.sleb128 0
 5761 117f 15       		.uleb128 0x15
 5762 1180 01       		.uleb128 0x1
 5763 1181 51       		.byte	0x51
 5764 1182 07       		.uleb128 0x7
 5765 1183 76       		.byte	0x76
 5766 1184 00       		.sleb128 0
 5767 1185 33       		.byte	0x33
 5768 1186 24       		.byte	0x24
 5769 1187 08       		.byte	0x8
 5770 1188 F8       		.byte	0xf8
 5771 1189 1A       		.byte	0x1a
 5772 118a 15       		.uleb128 0x15
 5773 118b 01       		.uleb128 0x1
 5774 118c 52       		.byte	0x52
 5775 118d 02       		.uleb128 0x2
 5776 118e 77       		.byte	0x77
 5777 118f 00       		.sleb128 0
 5778 1190 00       		.byte	0
 5779 1191 14       		.uleb128 0x14
 5780 1192 B8000000 		.4byte	.LVL221
 5781 1196 F2190000 		.4byte	0x19f2
 5782 119a A8110000 		.4byte	0x11a8
 5783 119e 15       		.uleb128 0x15
 5784 119f 01       		.uleb128 0x1
 5785 11a0 51       		.byte	0x51
 5786 11a1 05       		.uleb128 0x5
 5787 11a2 03       		.byte	0x3
 5788 11a3 D8020000 		.4byte	.LANCHOR0+728
 5789 11a7 00       		.byte	0
 5790 11a8 13       		.uleb128 0x13
 5791 11a9 BE000000 		.4byte	.LVL223
 5792 11ad FE190000 		.4byte	0x19fe
 5793 11b1 14       		.uleb128 0x14
ARM GAS  C:\Users\jesse\AppData\Local\Temp\cc6zNusR.s 			page 135


 5794 11b2 D0000000 		.4byte	.LVL226
 5795 11b6 AA190000 		.4byte	0x19aa
 5796 11ba C5110000 		.4byte	0x11c5
 5797 11be 15       		.uleb128 0x15
 5798 11bf 01       		.uleb128 0x1
 5799 11c0 50       		.byte	0x50
 5800 11c1 02       		.uleb128 0x2
 5801 11c2 74       		.byte	0x74
 5802 11c3 00       		.sleb128 0
 5803 11c4 00       		.byte	0
 5804 11c5 14       		.uleb128 0x14
 5805 11c6 DA000000 		.4byte	.LVL228
 5806 11ca AA190000 		.4byte	0x19aa
 5807 11ce DC110000 		.4byte	0x11dc
 5808 11d2 15       		.uleb128 0x15
 5809 11d3 01       		.uleb128 0x1
 5810 11d4 51       		.byte	0x51
 5811 11d5 05       		.uleb128 0x5
 5812 11d6 03       		.byte	0x3
 5813 11d7 3E010000 		.4byte	.LANCHOR0+318
 5814 11db 00       		.byte	0
 5815 11dc 14       		.uleb128 0x14
 5816 11dd E6000000 		.4byte	.LVL230
 5817 11e1 AA190000 		.4byte	0x19aa
 5818 11e5 F3110000 		.4byte	0x11f3
 5819 11e9 15       		.uleb128 0x15
 5820 11ea 01       		.uleb128 0x1
 5821 11eb 51       		.byte	0x51
 5822 11ec 05       		.uleb128 0x5
 5823 11ed 03       		.byte	0x3
 5824 11ee 31010000 		.4byte	.LANCHOR0+305
 5825 11f2 00       		.byte	0
 5826 11f3 13       		.uleb128 0x13
 5827 11f4 F4000000 		.4byte	.LVL232
 5828 11f8 B6190000 		.4byte	0x19b6
 5829 11fc 14       		.uleb128 0x14
 5830 11fd FC000000 		.4byte	.LVL233
 5831 1201 C2190000 		.4byte	0x19c2
 5832 1205 16120000 		.4byte	0x1216
 5833 1209 15       		.uleb128 0x15
 5834 120a 01       		.uleb128 0x1
 5835 120b 50       		.byte	0x50
 5836 120c 02       		.uleb128 0x2
 5837 120d 74       		.byte	0x74
 5838 120e 00       		.sleb128 0
 5839 120f 15       		.uleb128 0x15
 5840 1210 01       		.uleb128 0x1
 5841 1211 51       		.byte	0x51
 5842 1212 02       		.uleb128 0x2
 5843 1213 08       		.byte	0x8
 5844 1214 30       		.byte	0x30
 5845 1215 00       		.byte	0
 5846 1216 14       		.uleb128 0x14
 5847 1217 04010000 		.4byte	.LVL234
 5848 121b C2190000 		.4byte	0x19c2
 5849 121f 30120000 		.4byte	0x1230
 5850 1223 15       		.uleb128 0x15
ARM GAS  C:\Users\jesse\AppData\Local\Temp\cc6zNusR.s 			page 136


 5851 1224 01       		.uleb128 0x1
 5852 1225 50       		.byte	0x50
 5853 1226 02       		.uleb128 0x2
 5854 1227 74       		.byte	0x74
 5855 1228 00       		.sleb128 0
 5856 1229 15       		.uleb128 0x15
 5857 122a 01       		.uleb128 0x1
 5858 122b 51       		.byte	0x51
 5859 122c 02       		.uleb128 0x2
 5860 122d 09       		.byte	0x9
 5861 122e 81       		.byte	0x81
 5862 122f 00       		.byte	0
 5863 1230 14       		.uleb128 0x14
 5864 1231 10010000 		.4byte	.LVL235
 5865 1235 CE190000 		.4byte	0x19ce
 5866 1239 4F120000 		.4byte	0x124f
 5867 123d 15       		.uleb128 0x15
 5868 123e 01       		.uleb128 0x1
 5869 123f 50       		.byte	0x50
 5870 1240 02       		.uleb128 0x2
 5871 1241 74       		.byte	0x74
 5872 1242 00       		.sleb128 0
 5873 1243 15       		.uleb128 0x15
 5874 1244 01       		.uleb128 0x1
 5875 1245 51       		.byte	0x51
 5876 1246 07       		.uleb128 0x7
 5877 1247 75       		.byte	0x75
 5878 1248 00       		.sleb128 0
 5879 1249 31       		.byte	0x31
 5880 124a 24       		.byte	0x24
 5881 124b 08       		.byte	0x8
 5882 124c 3E       		.byte	0x3e
 5883 124d 1A       		.byte	0x1a
 5884 124e 00       		.byte	0
 5885 124f 14       		.uleb128 0x14
 5886 1250 18010000 		.4byte	.LVL236
 5887 1254 CE190000 		.4byte	0x19ce
 5888 1258 6B120000 		.4byte	0x126b
 5889 125c 15       		.uleb128 0x15
 5890 125d 01       		.uleb128 0x1
 5891 125e 50       		.byte	0x50
 5892 125f 02       		.uleb128 0x2
 5893 1260 74       		.byte	0x74
 5894 1261 00       		.sleb128 0
 5895 1262 15       		.uleb128 0x15
 5896 1263 01       		.uleb128 0x1
 5897 1264 51       		.byte	0x51
 5898 1265 04       		.uleb128 0x4
 5899 1266 75       		.byte	0x75
 5900 1267 00       		.sleb128 0
 5901 1268 35       		.byte	0x35
 5902 1269 25       		.byte	0x25
 5903 126a 00       		.byte	0
 5904 126b 16       		.uleb128 0x16
 5905 126c 1E010000 		.4byte	.LVL237
 5906 1270 DA190000 		.4byte	0x19da
 5907 1274 15       		.uleb128 0x15
ARM GAS  C:\Users\jesse\AppData\Local\Temp\cc6zNusR.s 			page 137


 5908 1275 01       		.uleb128 0x1
 5909 1276 50       		.byte	0x50
 5910 1277 02       		.uleb128 0x2
 5911 1278 74       		.byte	0x74
 5912 1279 00       		.sleb128 0
 5913 127a 00       		.byte	0
 5914 127b 00       		.byte	0
 5915 127c 17       		.uleb128 0x17
 5916 127d 30020000 		.4byte	.LASF75
 5917 1281 01       		.byte	0x1
 5918 1282 CA05     		.2byte	0x5ca
 5919 1284 8C000000 		.4byte	0x8c
 5920 1288 00000000 		.4byte	.LFB8
 5921 128c 3C010000 		.4byte	.LFE8-.LFB8
 5922 1290 01       		.uleb128 0x1
 5923 1291 9C       		.byte	0x9c
 5924 1292 FE140000 		.4byte	0x14fe
 5925 1296 18       		.uleb128 0x18
 5926 1297 09070000 		.4byte	.LASF65
 5927 129b 01       		.byte	0x1
 5928 129c CA05     		.2byte	0x5ca
 5929 129e 45030000 		.4byte	0x345
 5930 12a2 E40C0000 		.4byte	.LLST47
 5931 12a6 19       		.uleb128 0x19
 5932 12a7 6D736700 		.ascii	"msg\000"
 5933 12ab 01       		.byte	0x1
 5934 12ac CA05     		.2byte	0x5ca
 5935 12ae 8C000000 		.4byte	0x8c
 5936 12b2 AA0D0000 		.4byte	.LLST48
 5937 12b6 18       		.uleb128 0x18
 5938 12b7 C9030000 		.4byte	.LASF66
 5939 12bb 01       		.byte	0x1
 5940 12bc CA05     		.2byte	0x5ca
 5941 12be 8C000000 		.4byte	0x8c
 5942 12c2 CB0D0000 		.4byte	.LLST49
 5943 12c6 18       		.uleb128 0x18
 5944 12c7 C3080000 		.4byte	.LASF67
 5945 12cb 01       		.byte	0x1
 5946 12cc CA05     		.2byte	0x5ca
 5947 12ce AD000000 		.4byte	0xad
 5948 12d2 A30E0000 		.4byte	.LLST50
 5949 12d6 1A       		.uleb128 0x1a
 5950 12d7 7800     		.ascii	"x\000"
 5951 12d9 01       		.byte	0x1
 5952 12da CC05     		.2byte	0x5cc
 5953 12dc 8C000000 		.4byte	0x8c
 5954 12e0 CF0E0000 		.4byte	.LLST51
 5955 12e4 1A       		.uleb128 0x1a
 5956 12e5 6300     		.ascii	"c\000"
 5957 12e7 01       		.byte	0x1
 5958 12e8 CC05     		.2byte	0x5cc
 5959 12ea 8C000000 		.4byte	0x8c
 5960 12ee ED0E0000 		.4byte	.LLST52
 5961 12f2 1A       		.uleb128 0x1a
 5962 12f3 70747200 		.ascii	"ptr\000"
 5963 12f7 01       		.byte	0x1
 5964 12f8 CD05     		.2byte	0x5cd
ARM GAS  C:\Users\jesse\AppData\Local\Temp\cc6zNusR.s 			page 138


 5965 12fa 70030000 		.4byte	0x370
 5966 12fe 180F0000 		.4byte	.LLST53
 5967 1302 13       		.uleb128 0x13
 5968 1303 22000000 		.4byte	.LVL244
 5969 1307 B6190000 		.4byte	0x19b6
 5970 130b 14       		.uleb128 0x14
 5971 130c 2C000000 		.4byte	.LVL246
 5972 1310 C2190000 		.4byte	0x19c2
 5973 1314 25130000 		.4byte	0x1325
 5974 1318 15       		.uleb128 0x15
 5975 1319 01       		.uleb128 0x1
 5976 131a 50       		.byte	0x50
 5977 131b 02       		.uleb128 0x2
 5978 131c 74       		.byte	0x74
 5979 131d 00       		.sleb128 0
 5980 131e 15       		.uleb128 0x15
 5981 131f 01       		.uleb128 0x1
 5982 1320 51       		.byte	0x51
 5983 1321 02       		.uleb128 0x2
 5984 1322 08       		.byte	0x8
 5985 1323 30       		.byte	0x30
 5986 1324 00       		.byte	0
 5987 1325 14       		.uleb128 0x14
 5988 1326 34000000 		.4byte	.LVL247
 5989 132a C2190000 		.4byte	0x19c2
 5990 132e 3F130000 		.4byte	0x133f
 5991 1332 15       		.uleb128 0x15
 5992 1333 01       		.uleb128 0x1
 5993 1334 50       		.byte	0x50
 5994 1335 02       		.uleb128 0x2
 5995 1336 74       		.byte	0x74
 5996 1337 00       		.sleb128 0
 5997 1338 15       		.uleb128 0x15
 5998 1339 01       		.uleb128 0x1
 5999 133a 51       		.byte	0x51
 6000 133b 02       		.uleb128 0x2
 6001 133c 08       		.byte	0x8
 6002 133d 75       		.byte	0x75
 6003 133e 00       		.byte	0
 6004 133f 14       		.uleb128 0x14
 6005 1340 4A000000 		.4byte	.LVL250
 6006 1344 CE190000 		.4byte	0x19ce
 6007 1348 53130000 		.4byte	0x1353
 6008 134c 15       		.uleb128 0x15
 6009 134d 01       		.uleb128 0x1
 6010 134e 50       		.byte	0x50
 6011 134f 02       		.uleb128 0x2
 6012 1350 74       		.byte	0x74
 6013 1351 00       		.sleb128 0
 6014 1352 00       		.byte	0
 6015 1353 14       		.uleb128 0x14
 6016 1354 52000000 		.4byte	.LVL251
 6017 1358 CE190000 		.4byte	0x19ce
 6018 135c 6D130000 		.4byte	0x136d
 6019 1360 15       		.uleb128 0x15
 6020 1361 01       		.uleb128 0x1
 6021 1362 50       		.byte	0x50
ARM GAS  C:\Users\jesse\AppData\Local\Temp\cc6zNusR.s 			page 139


 6022 1363 02       		.uleb128 0x2
 6023 1364 74       		.byte	0x74
 6024 1365 00       		.sleb128 0
 6025 1366 15       		.uleb128 0x15
 6026 1367 01       		.uleb128 0x1
 6027 1368 51       		.byte	0x51
 6028 1369 02       		.uleb128 0x2
 6029 136a 08       		.byte	0x8
 6030 136b 4F       		.byte	0x4f
 6031 136c 00       		.byte	0
 6032 136d 14       		.uleb128 0x14
 6033 136e 5A000000 		.4byte	.LVL252
 6034 1372 C2190000 		.4byte	0x19c2
 6035 1376 86130000 		.4byte	0x1386
 6036 137a 15       		.uleb128 0x15
 6037 137b 01       		.uleb128 0x1
 6038 137c 50       		.byte	0x50
 6039 137d 02       		.uleb128 0x2
 6040 137e 74       		.byte	0x74
 6041 137f 00       		.sleb128 0
 6042 1380 15       		.uleb128 0x15
 6043 1381 01       		.uleb128 0x1
 6044 1382 51       		.byte	0x51
 6045 1383 01       		.uleb128 0x1
 6046 1384 45       		.byte	0x45
 6047 1385 00       		.byte	0
 6048 1386 14       		.uleb128 0x14
 6049 1387 68000000 		.4byte	.LVL253
 6050 138b CE190000 		.4byte	0x19ce
 6051 138f 9A130000 		.4byte	0x139a
 6052 1393 15       		.uleb128 0x15
 6053 1394 01       		.uleb128 0x1
 6054 1395 50       		.byte	0x50
 6055 1396 02       		.uleb128 0x2
 6056 1397 74       		.byte	0x74
 6057 1398 00       		.sleb128 0
 6058 1399 00       		.byte	0
 6059 139a 14       		.uleb128 0x14
 6060 139b 70000000 		.4byte	.LVL254
 6061 139f CE190000 		.4byte	0x19ce
 6062 13a3 B4130000 		.4byte	0x13b4
 6063 13a7 15       		.uleb128 0x15
 6064 13a8 01       		.uleb128 0x1
 6065 13a9 50       		.byte	0x50
 6066 13aa 02       		.uleb128 0x2
 6067 13ab 74       		.byte	0x74
 6068 13ac 00       		.sleb128 0
 6069 13ad 15       		.uleb128 0x15
 6070 13ae 01       		.uleb128 0x1
 6071 13af 51       		.byte	0x51
 6072 13b0 02       		.uleb128 0x2
 6073 13b1 09       		.byte	0x9
 6074 13b2 FF       		.byte	0xff
 6075 13b3 00       		.byte	0
 6076 13b4 14       		.uleb128 0x14
 6077 13b5 78000000 		.4byte	.LVL255
 6078 13b9 C2190000 		.4byte	0x19c2
ARM GAS  C:\Users\jesse\AppData\Local\Temp\cc6zNusR.s 			page 140


 6079 13bd CE130000 		.4byte	0x13ce
 6080 13c1 15       		.uleb128 0x15
 6081 13c2 01       		.uleb128 0x1
 6082 13c3 50       		.byte	0x50
 6083 13c4 02       		.uleb128 0x2
 6084 13c5 74       		.byte	0x74
 6085 13c6 00       		.sleb128 0
 6086 13c7 15       		.uleb128 0x15
 6087 13c8 01       		.uleb128 0x1
 6088 13c9 51       		.byte	0x51
 6089 13ca 02       		.uleb128 0x2
 6090 13cb 08       		.byte	0x8
 6091 13cc 5C       		.byte	0x5c
 6092 13cd 00       		.byte	0
 6093 13ce 14       		.uleb128 0x14
 6094 13cf 8C000000 		.4byte	.LVL258
 6095 13d3 E6190000 		.4byte	0x19e6
 6096 13d7 EE130000 		.4byte	0x13ee
 6097 13db 15       		.uleb128 0x15
 6098 13dc 01       		.uleb128 0x1
 6099 13dd 50       		.byte	0x50
 6100 13de 02       		.uleb128 0x2
 6101 13df 74       		.byte	0x74
 6102 13e0 00       		.sleb128 0
 6103 13e1 15       		.uleb128 0x15
 6104 13e2 01       		.uleb128 0x1
 6105 13e3 51       		.byte	0x51
 6106 13e4 02       		.uleb128 0x2
 6107 13e5 09       		.byte	0x9
 6108 13e6 F8       		.byte	0xf8
 6109 13e7 15       		.uleb128 0x15
 6110 13e8 01       		.uleb128 0x1
 6111 13e9 52       		.byte	0x52
 6112 13ea 02       		.uleb128 0x2
 6113 13eb 78       		.byte	0x78
 6114 13ec 00       		.sleb128 0
 6115 13ed 00       		.byte	0
 6116 13ee 14       		.uleb128 0x14
 6117 13ef A4000000 		.4byte	.LVL263
 6118 13f3 E6190000 		.4byte	0x19e6
 6119 13f7 13140000 		.4byte	0x1413
 6120 13fb 15       		.uleb128 0x15
 6121 13fc 01       		.uleb128 0x1
 6122 13fd 50       		.byte	0x50
 6123 13fe 02       		.uleb128 0x2
 6124 13ff 74       		.byte	0x74
 6125 1400 00       		.sleb128 0
 6126 1401 15       		.uleb128 0x15
 6127 1402 01       		.uleb128 0x1
 6128 1403 51       		.byte	0x51
 6129 1404 07       		.uleb128 0x7
 6130 1405 76       		.byte	0x76
 6131 1406 00       		.sleb128 0
 6132 1407 33       		.byte	0x33
 6133 1408 24       		.byte	0x24
 6134 1409 08       		.byte	0x8
 6135 140a F8       		.byte	0xf8
ARM GAS  C:\Users\jesse\AppData\Local\Temp\cc6zNusR.s 			page 141


 6136 140b 1A       		.byte	0x1a
 6137 140c 15       		.uleb128 0x15
 6138 140d 01       		.uleb128 0x1
 6139 140e 52       		.byte	0x52
 6140 140f 02       		.uleb128 0x2
 6141 1410 78       		.byte	0x78
 6142 1411 00       		.sleb128 0
 6143 1412 00       		.byte	0
 6144 1413 14       		.uleb128 0x14
 6145 1414 B2000000 		.4byte	.LVL266
 6146 1418 F2190000 		.4byte	0x19f2
 6147 141c 2A140000 		.4byte	0x142a
 6148 1420 15       		.uleb128 0x15
 6149 1421 01       		.uleb128 0x1
 6150 1422 51       		.byte	0x51
 6151 1423 05       		.uleb128 0x5
 6152 1424 03       		.byte	0x3
 6153 1425 DC030000 		.4byte	.LANCHOR0+988
 6154 1429 00       		.byte	0
 6155 142a 13       		.uleb128 0x13
 6156 142b B8000000 		.4byte	.LVL268
 6157 142f FE190000 		.4byte	0x19fe
 6158 1433 14       		.uleb128 0x14
 6159 1434 CA000000 		.4byte	.LVL271
 6160 1438 AA190000 		.4byte	0x19aa
 6161 143c 47140000 		.4byte	0x1447
 6162 1440 15       		.uleb128 0x15
 6163 1441 01       		.uleb128 0x1
 6164 1442 50       		.byte	0x50
 6165 1443 02       		.uleb128 0x2
 6166 1444 74       		.byte	0x74
 6167 1445 00       		.sleb128 0
 6168 1446 00       		.byte	0
 6169 1447 14       		.uleb128 0x14
 6170 1448 D4000000 		.4byte	.LVL273
 6171 144c AA190000 		.4byte	0x19aa
 6172 1450 5E140000 		.4byte	0x145e
 6173 1454 15       		.uleb128 0x15
 6174 1455 01       		.uleb128 0x1
 6175 1456 51       		.byte	0x51
 6176 1457 05       		.uleb128 0x5
 6177 1458 03       		.byte	0x3
 6178 1459 3E010000 		.4byte	.LANCHOR0+318
 6179 145d 00       		.byte	0
 6180 145e 14       		.uleb128 0x14
 6181 145f E0000000 		.4byte	.LVL275
 6182 1463 AA190000 		.4byte	0x19aa
 6183 1467 75140000 		.4byte	0x1475
 6184 146b 15       		.uleb128 0x15
 6185 146c 01       		.uleb128 0x1
 6186 146d 51       		.byte	0x51
 6187 146e 05       		.uleb128 0x5
 6188 146f 03       		.byte	0x3
 6189 1470 31010000 		.4byte	.LANCHOR0+305
 6190 1474 00       		.byte	0
 6191 1475 13       		.uleb128 0x13
 6192 1476 EE000000 		.4byte	.LVL277
ARM GAS  C:\Users\jesse\AppData\Local\Temp\cc6zNusR.s 			page 142


 6193 147a B6190000 		.4byte	0x19b6
 6194 147e 14       		.uleb128 0x14
 6195 147f F6000000 		.4byte	.LVL278
 6196 1483 C2190000 		.4byte	0x19c2
 6197 1487 98140000 		.4byte	0x1498
 6198 148b 15       		.uleb128 0x15
 6199 148c 01       		.uleb128 0x1
 6200 148d 50       		.byte	0x50
 6201 148e 02       		.uleb128 0x2
 6202 148f 74       		.byte	0x74
 6203 1490 00       		.sleb128 0
 6204 1491 15       		.uleb128 0x15
 6205 1492 01       		.uleb128 0x1
 6206 1493 51       		.byte	0x51
 6207 1494 02       		.uleb128 0x2
 6208 1495 08       		.byte	0x8
 6209 1496 30       		.byte	0x30
 6210 1497 00       		.byte	0
 6211 1498 14       		.uleb128 0x14
 6212 1499 FE000000 		.4byte	.LVL279
 6213 149d C2190000 		.4byte	0x19c2
 6214 14a1 B2140000 		.4byte	0x14b2
 6215 14a5 15       		.uleb128 0x15
 6216 14a6 01       		.uleb128 0x1
 6217 14a7 50       		.byte	0x50
 6218 14a8 02       		.uleb128 0x2
 6219 14a9 74       		.byte	0x74
 6220 14aa 00       		.sleb128 0
 6221 14ab 15       		.uleb128 0x15
 6222 14ac 01       		.uleb128 0x1
 6223 14ad 51       		.byte	0x51
 6224 14ae 02       		.uleb128 0x2
 6225 14af 09       		.byte	0x9
 6226 14b0 81       		.byte	0x81
 6227 14b1 00       		.byte	0
 6228 14b2 14       		.uleb128 0x14
 6229 14b3 0A010000 		.4byte	.LVL280
 6230 14b7 CE190000 		.4byte	0x19ce
 6231 14bb D1140000 		.4byte	0x14d1
 6232 14bf 15       		.uleb128 0x15
 6233 14c0 01       		.uleb128 0x1
 6234 14c1 50       		.byte	0x50
 6235 14c2 02       		.uleb128 0x2
 6236 14c3 74       		.byte	0x74
 6237 14c4 00       		.sleb128 0
 6238 14c5 15       		.uleb128 0x15
 6239 14c6 01       		.uleb128 0x1
 6240 14c7 51       		.byte	0x51
 6241 14c8 07       		.uleb128 0x7
 6242 14c9 75       		.byte	0x75
 6243 14ca 00       		.sleb128 0
 6244 14cb 31       		.byte	0x31
 6245 14cc 24       		.byte	0x24
 6246 14cd 08       		.byte	0x8
 6247 14ce 3E       		.byte	0x3e
 6248 14cf 1A       		.byte	0x1a
 6249 14d0 00       		.byte	0
ARM GAS  C:\Users\jesse\AppData\Local\Temp\cc6zNusR.s 			page 143


 6250 14d1 14       		.uleb128 0x14
 6251 14d2 12010000 		.4byte	.LVL281
 6252 14d6 CE190000 		.4byte	0x19ce
 6253 14da ED140000 		.4byte	0x14ed
 6254 14de 15       		.uleb128 0x15
 6255 14df 01       		.uleb128 0x1
 6256 14e0 50       		.byte	0x50
 6257 14e1 02       		.uleb128 0x2
 6258 14e2 74       		.byte	0x74
 6259 14e3 00       		.sleb128 0
 6260 14e4 15       		.uleb128 0x15
 6261 14e5 01       		.uleb128 0x1
 6262 14e6 51       		.byte	0x51
 6263 14e7 04       		.uleb128 0x4
 6264 14e8 75       		.byte	0x75
 6265 14e9 00       		.sleb128 0
 6266 14ea 35       		.byte	0x35
 6267 14eb 25       		.byte	0x25
 6268 14ec 00       		.byte	0
 6269 14ed 16       		.uleb128 0x16
 6270 14ee 18010000 		.4byte	.LVL282
 6271 14f2 DA190000 		.4byte	0x19da
 6272 14f6 15       		.uleb128 0x15
 6273 14f7 01       		.uleb128 0x1
 6274 14f8 50       		.byte	0x50
 6275 14f9 02       		.uleb128 0x2
 6276 14fa 74       		.byte	0x74
 6277 14fb 00       		.sleb128 0
 6278 14fc 00       		.byte	0
 6279 14fd 00       		.byte	0
 6280 14fe 17       		.uleb128 0x17
 6281 14ff 5B070000 		.4byte	.LASF76
 6282 1503 01       		.byte	0x1
 6283 1504 8906     		.2byte	0x689
 6284 1506 8C000000 		.4byte	0x8c
 6285 150a 00000000 		.4byte	.LFB9
 6286 150e 3C010000 		.4byte	.LFE9-.LFB9
 6287 1512 01       		.uleb128 0x1
 6288 1513 9C       		.byte	0x9c
 6289 1514 55170000 		.4byte	0x1755
 6290 1518 18       		.uleb128 0x18
 6291 1519 09070000 		.4byte	.LASF65
 6292 151d 01       		.byte	0x1
 6293 151e 8906     		.2byte	0x689
 6294 1520 45030000 		.4byte	0x345
 6295 1524 2B0F0000 		.4byte	.LLST54
 6296 1528 19       		.uleb128 0x19
 6297 1529 6D736700 		.ascii	"msg\000"
 6298 152d 01       		.byte	0x1
 6299 152e 8906     		.2byte	0x689
 6300 1530 8C000000 		.4byte	0x8c
 6301 1534 F10F0000 		.4byte	.LLST55
 6302 1538 18       		.uleb128 0x18
 6303 1539 C9030000 		.4byte	.LASF66
 6304 153d 01       		.byte	0x1
 6305 153e 8906     		.2byte	0x689
 6306 1540 8C000000 		.4byte	0x8c
ARM GAS  C:\Users\jesse\AppData\Local\Temp\cc6zNusR.s 			page 144


 6307 1544 12100000 		.4byte	.LLST56
 6308 1548 18       		.uleb128 0x18
 6309 1549 C3080000 		.4byte	.LASF67
 6310 154d 01       		.byte	0x1
 6311 154e 8906     		.2byte	0x689
 6312 1550 AD000000 		.4byte	0xad
 6313 1554 DF100000 		.4byte	.LLST57
 6314 1558 1A       		.uleb128 0x1a
 6315 1559 7800     		.ascii	"x\000"
 6316 155b 01       		.byte	0x1
 6317 155c 8B06     		.2byte	0x68b
 6318 155e 8C000000 		.4byte	0x8c
 6319 1562 0B110000 		.4byte	.LLST58
 6320 1566 1A       		.uleb128 0x1a
 6321 1567 6300     		.ascii	"c\000"
 6322 1569 01       		.byte	0x1
 6323 156a 8B06     		.2byte	0x68b
 6324 156c 8C000000 		.4byte	0x8c
 6325 1570 29110000 		.4byte	.LLST59
 6326 1574 1A       		.uleb128 0x1a
 6327 1575 70747200 		.ascii	"ptr\000"
 6328 1579 01       		.byte	0x1
 6329 157a 8C06     		.2byte	0x68c
 6330 157c 70030000 		.4byte	0x370
 6331 1580 6B110000 		.4byte	.LLST60
 6332 1584 13       		.uleb128 0x13
 6333 1585 22000000 		.4byte	.LVL289
 6334 1589 B6190000 		.4byte	0x19b6
 6335 158d 14       		.uleb128 0x14
 6336 158e 2C000000 		.4byte	.LVL291
 6337 1592 C2190000 		.4byte	0x19c2
 6338 1596 A7150000 		.4byte	0x15a7
 6339 159a 15       		.uleb128 0x15
 6340 159b 01       		.uleb128 0x1
 6341 159c 50       		.byte	0x50
 6342 159d 02       		.uleb128 0x2
 6343 159e 74       		.byte	0x74
 6344 159f 00       		.sleb128 0
 6345 15a0 15       		.uleb128 0x15
 6346 15a1 01       		.uleb128 0x1
 6347 15a2 51       		.byte	0x51
 6348 15a3 02       		.uleb128 0x2
 6349 15a4 08       		.byte	0x8
 6350 15a5 30       		.byte	0x30
 6351 15a6 00       		.byte	0
 6352 15a7 14       		.uleb128 0x14
 6353 15a8 34000000 		.4byte	.LVL292
 6354 15ac C2190000 		.4byte	0x19c2
 6355 15b0 C1150000 		.4byte	0x15c1
 6356 15b4 15       		.uleb128 0x15
 6357 15b5 01       		.uleb128 0x1
 6358 15b6 50       		.byte	0x50
 6359 15b7 02       		.uleb128 0x2
 6360 15b8 74       		.byte	0x74
 6361 15b9 00       		.sleb128 0
 6362 15ba 15       		.uleb128 0x15
 6363 15bb 01       		.uleb128 0x1
ARM GAS  C:\Users\jesse\AppData\Local\Temp\cc6zNusR.s 			page 145


 6364 15bc 51       		.byte	0x51
 6365 15bd 02       		.uleb128 0x2
 6366 15be 08       		.byte	0x8
 6367 15bf 75       		.byte	0x75
 6368 15c0 00       		.byte	0
 6369 15c1 14       		.uleb128 0x14
 6370 15c2 50000000 		.4byte	.LVL295
 6371 15c6 CE190000 		.4byte	0x19ce
 6372 15ca D5150000 		.4byte	0x15d5
 6373 15ce 15       		.uleb128 0x15
 6374 15cf 01       		.uleb128 0x1
 6375 15d0 50       		.byte	0x50
 6376 15d1 02       		.uleb128 0x2
 6377 15d2 74       		.byte	0x74
 6378 15d3 00       		.sleb128 0
 6379 15d4 00       		.byte	0
 6380 15d5 14       		.uleb128 0x14
 6381 15d6 58000000 		.4byte	.LVL296
 6382 15da CE190000 		.4byte	0x19ce
 6383 15de EF150000 		.4byte	0x15ef
 6384 15e2 15       		.uleb128 0x15
 6385 15e3 01       		.uleb128 0x1
 6386 15e4 50       		.byte	0x50
 6387 15e5 02       		.uleb128 0x2
 6388 15e6 74       		.byte	0x74
 6389 15e7 00       		.sleb128 0
 6390 15e8 15       		.uleb128 0x15
 6391 15e9 01       		.uleb128 0x1
 6392 15ea 51       		.byte	0x51
 6393 15eb 02       		.uleb128 0x2
 6394 15ec 08       		.byte	0x8
 6395 15ed 4F       		.byte	0x4f
 6396 15ee 00       		.byte	0
 6397 15ef 14       		.uleb128 0x14
 6398 15f0 60000000 		.4byte	.LVL297
 6399 15f4 C2190000 		.4byte	0x19c2
 6400 15f8 08160000 		.4byte	0x1608
 6401 15fc 15       		.uleb128 0x15
 6402 15fd 01       		.uleb128 0x1
 6403 15fe 50       		.byte	0x50
 6404 15ff 02       		.uleb128 0x2
 6405 1600 74       		.byte	0x74
 6406 1601 00       		.sleb128 0
 6407 1602 15       		.uleb128 0x15
 6408 1603 01       		.uleb128 0x1
 6409 1604 51       		.byte	0x51
 6410 1605 01       		.uleb128 0x1
 6411 1606 45       		.byte	0x45
 6412 1607 00       		.byte	0
 6413 1608 14       		.uleb128 0x14
 6414 1609 6E000000 		.4byte	.LVL298
 6415 160d CE190000 		.4byte	0x19ce
 6416 1611 1C160000 		.4byte	0x161c
 6417 1615 15       		.uleb128 0x15
 6418 1616 01       		.uleb128 0x1
 6419 1617 50       		.byte	0x50
 6420 1618 02       		.uleb128 0x2
ARM GAS  C:\Users\jesse\AppData\Local\Temp\cc6zNusR.s 			page 146


 6421 1619 74       		.byte	0x74
 6422 161a 00       		.sleb128 0
 6423 161b 00       		.byte	0
 6424 161c 14       		.uleb128 0x14
 6425 161d 76000000 		.4byte	.LVL299
 6426 1621 CE190000 		.4byte	0x19ce
 6427 1625 36160000 		.4byte	0x1636
 6428 1629 15       		.uleb128 0x15
 6429 162a 01       		.uleb128 0x1
 6430 162b 50       		.byte	0x50
 6431 162c 02       		.uleb128 0x2
 6432 162d 74       		.byte	0x74
 6433 162e 00       		.sleb128 0
 6434 162f 15       		.uleb128 0x15
 6435 1630 01       		.uleb128 0x1
 6436 1631 51       		.byte	0x51
 6437 1632 02       		.uleb128 0x2
 6438 1633 09       		.byte	0x9
 6439 1634 FF       		.byte	0xff
 6440 1635 00       		.byte	0
 6441 1636 14       		.uleb128 0x14
 6442 1637 7E000000 		.4byte	.LVL300
 6443 163b C2190000 		.4byte	0x19c2
 6444 163f 50160000 		.4byte	0x1650
 6445 1643 15       		.uleb128 0x15
 6446 1644 01       		.uleb128 0x1
 6447 1645 50       		.byte	0x50
 6448 1646 02       		.uleb128 0x2
 6449 1647 74       		.byte	0x74
 6450 1648 00       		.sleb128 0
 6451 1649 15       		.uleb128 0x15
 6452 164a 01       		.uleb128 0x1
 6453 164b 51       		.byte	0x51
 6454 164c 02       		.uleb128 0x2
 6455 164d 08       		.byte	0x8
 6456 164e 5C       		.byte	0x5c
 6457 164f 00       		.byte	0
 6458 1650 14       		.uleb128 0x14
 6459 1651 9E000000 		.4byte	.LVL308
 6460 1655 E6190000 		.4byte	0x19e6
 6461 1659 6A160000 		.4byte	0x166a
 6462 165d 15       		.uleb128 0x15
 6463 165e 01       		.uleb128 0x1
 6464 165f 50       		.byte	0x50
 6465 1660 02       		.uleb128 0x2
 6466 1661 74       		.byte	0x74
 6467 1662 00       		.sleb128 0
 6468 1663 15       		.uleb128 0x15
 6469 1664 01       		.uleb128 0x1
 6470 1665 51       		.byte	0x51
 6471 1666 02       		.uleb128 0x2
 6472 1667 75       		.byte	0x75
 6473 1668 00       		.sleb128 0
 6474 1669 00       		.byte	0
 6475 166a 14       		.uleb128 0x14
 6476 166b B2000000 		.4byte	.LVL312
 6477 166f F2190000 		.4byte	0x19f2
ARM GAS  C:\Users\jesse\AppData\Local\Temp\cc6zNusR.s 			page 147


 6478 1673 81160000 		.4byte	0x1681
 6479 1677 15       		.uleb128 0x15
 6480 1678 01       		.uleb128 0x1
 6481 1679 51       		.byte	0x51
 6482 167a 05       		.uleb128 0x5
 6483 167b 03       		.byte	0x3
 6484 167c 60040000 		.4byte	.LANCHOR0+1120
 6485 1680 00       		.byte	0
 6486 1681 13       		.uleb128 0x13
 6487 1682 B8000000 		.4byte	.LVL314
 6488 1686 FE190000 		.4byte	0x19fe
 6489 168a 14       		.uleb128 0x14
 6490 168b CA000000 		.4byte	.LVL317
 6491 168f AA190000 		.4byte	0x19aa
 6492 1693 9E160000 		.4byte	0x169e
 6493 1697 15       		.uleb128 0x15
 6494 1698 01       		.uleb128 0x1
 6495 1699 50       		.byte	0x50
 6496 169a 02       		.uleb128 0x2
 6497 169b 74       		.byte	0x74
 6498 169c 00       		.sleb128 0
 6499 169d 00       		.byte	0
 6500 169e 14       		.uleb128 0x14
 6501 169f D4000000 		.4byte	.LVL319
 6502 16a3 AA190000 		.4byte	0x19aa
 6503 16a7 B5160000 		.4byte	0x16b5
 6504 16ab 15       		.uleb128 0x15
 6505 16ac 01       		.uleb128 0x1
 6506 16ad 51       		.byte	0x51
 6507 16ae 05       		.uleb128 0x5
 6508 16af 03       		.byte	0x3
 6509 16b0 59030000 		.4byte	.LANCHOR0+857
 6510 16b4 00       		.byte	0
 6511 16b5 14       		.uleb128 0x14
 6512 16b6 E0000000 		.4byte	.LVL321
 6513 16ba AA190000 		.4byte	0x19aa
 6514 16be CC160000 		.4byte	0x16cc
 6515 16c2 15       		.uleb128 0x15
 6516 16c3 01       		.uleb128 0x1
 6517 16c4 51       		.byte	0x51
 6518 16c5 05       		.uleb128 0x5
 6519 16c6 03       		.byte	0x3
 6520 16c7 66030000 		.4byte	.LANCHOR0+870
 6521 16cb 00       		.byte	0
 6522 16cc 13       		.uleb128 0x13
 6523 16cd EE000000 		.4byte	.LVL323
 6524 16d1 B6190000 		.4byte	0x19b6
 6525 16d5 14       		.uleb128 0x14
 6526 16d6 F6000000 		.4byte	.LVL324
 6527 16da C2190000 		.4byte	0x19c2
 6528 16de EF160000 		.4byte	0x16ef
 6529 16e2 15       		.uleb128 0x15
 6530 16e3 01       		.uleb128 0x1
 6531 16e4 50       		.byte	0x50
 6532 16e5 02       		.uleb128 0x2
 6533 16e6 74       		.byte	0x74
 6534 16e7 00       		.sleb128 0
ARM GAS  C:\Users\jesse\AppData\Local\Temp\cc6zNusR.s 			page 148


 6535 16e8 15       		.uleb128 0x15
 6536 16e9 01       		.uleb128 0x1
 6537 16ea 51       		.byte	0x51
 6538 16eb 02       		.uleb128 0x2
 6539 16ec 08       		.byte	0x8
 6540 16ed 30       		.byte	0x30
 6541 16ee 00       		.byte	0
 6542 16ef 14       		.uleb128 0x14
 6543 16f0 FE000000 		.4byte	.LVL325
 6544 16f4 C2190000 		.4byte	0x19c2
 6545 16f8 09170000 		.4byte	0x1709
 6546 16fc 15       		.uleb128 0x15
 6547 16fd 01       		.uleb128 0x1
 6548 16fe 50       		.byte	0x50
 6549 16ff 02       		.uleb128 0x2
 6550 1700 74       		.byte	0x74
 6551 1701 00       		.sleb128 0
 6552 1702 15       		.uleb128 0x15
 6553 1703 01       		.uleb128 0x1
 6554 1704 51       		.byte	0x51
 6555 1705 02       		.uleb128 0x2
 6556 1706 09       		.byte	0x9
 6557 1707 81       		.byte	0x81
 6558 1708 00       		.byte	0
 6559 1709 14       		.uleb128 0x14
 6560 170a 0A010000 		.4byte	.LVL326
 6561 170e CE190000 		.4byte	0x19ce
 6562 1712 28170000 		.4byte	0x1728
 6563 1716 15       		.uleb128 0x15
 6564 1717 01       		.uleb128 0x1
 6565 1718 50       		.byte	0x50
 6566 1719 02       		.uleb128 0x2
 6567 171a 74       		.byte	0x74
 6568 171b 00       		.sleb128 0
 6569 171c 15       		.uleb128 0x15
 6570 171d 01       		.uleb128 0x1
 6571 171e 51       		.byte	0x51
 6572 171f 07       		.uleb128 0x7
 6573 1720 76       		.byte	0x76
 6574 1721 00       		.sleb128 0
 6575 1722 31       		.byte	0x31
 6576 1723 24       		.byte	0x24
 6577 1724 08       		.byte	0x8
 6578 1725 3E       		.byte	0x3e
 6579 1726 1A       		.byte	0x1a
 6580 1727 00       		.byte	0
 6581 1728 14       		.uleb128 0x14
 6582 1729 12010000 		.4byte	.LVL327
 6583 172d CE190000 		.4byte	0x19ce
 6584 1731 44170000 		.4byte	0x1744
 6585 1735 15       		.uleb128 0x15
 6586 1736 01       		.uleb128 0x1
 6587 1737 50       		.byte	0x50
 6588 1738 02       		.uleb128 0x2
 6589 1739 74       		.byte	0x74
 6590 173a 00       		.sleb128 0
 6591 173b 15       		.uleb128 0x15
ARM GAS  C:\Users\jesse\AppData\Local\Temp\cc6zNusR.s 			page 149


 6592 173c 01       		.uleb128 0x1
 6593 173d 51       		.byte	0x51
 6594 173e 04       		.uleb128 0x4
 6595 173f 76       		.byte	0x76
 6596 1740 00       		.sleb128 0
 6597 1741 35       		.byte	0x35
 6598 1742 25       		.byte	0x25
 6599 1743 00       		.byte	0
 6600 1744 16       		.uleb128 0x16
 6601 1745 18010000 		.4byte	.LVL328
 6602 1749 DA190000 		.4byte	0x19da
 6603 174d 15       		.uleb128 0x15
 6604 174e 01       		.uleb128 0x1
 6605 174f 50       		.byte	0x50
 6606 1750 02       		.uleb128 0x2
 6607 1751 74       		.byte	0x74
 6608 1752 00       		.sleb128 0
 6609 1753 00       		.byte	0
 6610 1754 00       		.byte	0
 6611 1755 1B       		.uleb128 0x1b
 6612 1756 87030000 		.4byte	0x387
 6613 175a 65170000 		.4byte	0x1765
 6614 175e 1C       		.uleb128 0x1c
 6615 175f 65170000 		.4byte	0x1765
 6616 1763 0A       		.byte	0xa
 6617 1764 00       		.byte	0
 6618 1765 02       		.uleb128 0x2
 6619 1766 04       		.byte	0x4
 6620 1767 07       		.byte	0x7
 6621 1768 8E050000 		.4byte	.LASF77
 6622 176c 1D       		.uleb128 0x1d
 6623 176d 76030000 		.4byte	.LASF78
 6624 1771 01       		.byte	0x1
 6625 1772 41       		.byte	0x41
 6626 1773 7D170000 		.4byte	0x177d
 6627 1777 05       		.uleb128 0x5
 6628 1778 03       		.byte	0x3
 6629 1779 00000000 		.4byte	u8x8_d_st75256_256x128_powersave0_seq
 6630 177d 0E       		.uleb128 0xe
 6631 177e 55170000 		.4byte	0x1755
 6632 1782 1B       		.uleb128 0x1b
 6633 1783 87030000 		.4byte	0x387
 6634 1787 92170000 		.4byte	0x1792
 6635 178b 1C       		.uleb128 0x1c
 6636 178c 65170000 		.4byte	0x1765
 6637 1790 08       		.byte	0x8
 6638 1791 00       		.byte	0
 6639 1792 1D       		.uleb128 0x1d
 6640 1793 EF030000 		.4byte	.LASF79
 6641 1797 01       		.byte	0x1
 6642 1798 4B       		.byte	0x4b
 6643 1799 A3170000 		.4byte	0x17a3
 6644 179d 05       		.uleb128 0x5
 6645 179e 03       		.byte	0x3
 6646 179f 0B000000 		.4byte	u8x8_d_st75256_256x128_powersave1_seq
 6647 17a3 0E       		.uleb128 0xe
 6648 17a4 82170000 		.4byte	0x1782
ARM GAS  C:\Users\jesse\AppData\Local\Temp\cc6zNusR.s 			page 150


 6649 17a8 1B       		.uleb128 0x1b
 6650 17a9 87030000 		.4byte	0x387
 6651 17ad B8170000 		.4byte	0x17b8
 6652 17b1 1C       		.uleb128 0x1c
 6653 17b2 65170000 		.4byte	0x1765
 6654 17b6 0C       		.byte	0xc
 6655 17b7 00       		.byte	0
 6656 17b8 1D       		.uleb128 0x1d
 6657 17b9 5F040000 		.4byte	.LASF80
 6658 17bd 01       		.byte	0x1
 6659 17be 54       		.byte	0x54
 6660 17bf C9170000 		.4byte	0x17c9
 6661 17c3 05       		.uleb128 0x5
 6662 17c4 03       		.byte	0x3
 6663 17c5 95000000 		.4byte	u8x8_d_st75256_jlx256128_flip0_seq
 6664 17c9 0E       		.uleb128 0xe
 6665 17ca A8170000 		.4byte	0x17a8
 6666 17ce 1D       		.uleb128 0x1d
 6667 17cf E6050000 		.4byte	.LASF81
 6668 17d3 01       		.byte	0x1
 6669 17d4 60       		.byte	0x60
 6670 17d5 DF170000 		.4byte	0x17df
 6671 17d9 05       		.uleb128 0x5
 6672 17da 03       		.byte	0x3
 6673 17db A2000000 		.4byte	u8x8_d_st75256_jlx256128_flip1_seq
 6674 17df 0E       		.uleb128 0xe
 6675 17e0 A8170000 		.4byte	0x17a8
 6676 17e4 1D       		.uleb128 0x1d
 6677 17e5 58080000 		.4byte	.LASF82
 6678 17e9 01       		.byte	0x1
 6679 17ea 6C       		.byte	0x6c
 6680 17eb F5170000 		.4byte	0x17f5
 6681 17ef 05       		.uleb128 0x5
 6682 17f0 03       		.byte	0x3
 6683 17f1 3E010000 		.4byte	u8x8_d_st75256_jlx172104_flip0_seq
 6684 17f5 0E       		.uleb128 0xe
 6685 17f6 A8170000 		.4byte	0x17a8
 6686 17fa 1D       		.uleb128 0x1d
 6687 17fb 6B050000 		.4byte	.LASF83
 6688 17ff 01       		.byte	0x1
 6689 1800 78       		.byte	0x78
 6690 1801 0B180000 		.4byte	0x180b
 6691 1805 05       		.uleb128 0x5
 6692 1806 03       		.byte	0x3
 6693 1807 31010000 		.4byte	u8x8_d_st75256_jlx172104_flip1_seq
 6694 180b 0E       		.uleb128 0xe
 6695 180c A8170000 		.4byte	0x17a8
 6696 1810 1D       		.uleb128 0x1d
 6697 1811 E3080000 		.4byte	.LASF84
 6698 1815 01       		.byte	0x1
 6699 1816 84       		.byte	0x84
 6700 1817 21180000 		.4byte	0x1821
 6701 181b 05       		.uleb128 0x5
 6702 181c 03       		.byte	0x3
 6703 181d 59030000 		.4byte	u8x8_d_st75256_jlx256160_flip0_seq
 6704 1821 0E       		.uleb128 0xe
 6705 1822 A8170000 		.4byte	0x17a8
ARM GAS  C:\Users\jesse\AppData\Local\Temp\cc6zNusR.s 			page 151


 6706 1826 1D       		.uleb128 0x1d
 6707 1827 A3050000 		.4byte	.LASF85
 6708 182b 01       		.byte	0x1
 6709 182c 90       		.byte	0x90
 6710 182d 37180000 		.4byte	0x1837
 6711 1831 05       		.uleb128 0x5
 6712 1832 03       		.byte	0x3
 6713 1833 66030000 		.4byte	u8x8_d_st75256_jlx256160_flip1_seq
 6714 1837 0E       		.uleb128 0xe
 6715 1838 A8170000 		.4byte	0x17a8
 6716 183c 1D       		.uleb128 0x1d
 6717 183d AD040000 		.4byte	.LASF86
 6718 1841 01       		.byte	0x1
 6719 1842 ED       		.byte	0xed
 6720 1843 7C030000 		.4byte	0x37c
 6721 1847 05       		.uleb128 0x5
 6722 1848 03       		.byte	0x3
 6723 1849 14000000 		.4byte	u8x8_st75256_256x128_display_info
 6724 184d 1B       		.uleb128 0x1b
 6725 184e 87030000 		.4byte	0x387
 6726 1852 5D180000 		.4byte	0x185d
 6727 1856 1C       		.uleb128 0x1c
 6728 1857 65170000 		.4byte	0x1765
 6729 185b 68       		.byte	0x68
 6730 185c 00       		.byte	0
 6731 185d 1E       		.uleb128 0x1e
 6732 185e C5060000 		.4byte	.LASF87
 6733 1862 01       		.byte	0x1
 6734 1863 0601     		.2byte	0x106
 6735 1865 6F180000 		.4byte	0x186f
 6736 1869 05       		.uleb128 0x5
 6737 186a 03       		.byte	0x3
 6738 186b 2C000000 		.4byte	u8x8_d_st75256_256x128_init_seq
 6739 186f 0E       		.uleb128 0xe
 6740 1870 4D180000 		.4byte	0x184d
 6741 1874 1E       		.uleb128 0x1e
 6742 1875 BB010000 		.4byte	.LASF88
 6743 1879 01       		.byte	0x1
 6744 187a 7401     		.2byte	0x174
 6745 187c 7C030000 		.4byte	0x37c
 6746 1880 05       		.uleb128 0x5
 6747 1881 03       		.byte	0x3
 6748 1882 B0000000 		.4byte	u8x8_st75256_wo256x128_display_info
 6749 1886 1E       		.uleb128 0x1e
 6750 1887 27060000 		.4byte	.LASF89
 6751 188b 01       		.byte	0x1
 6752 188c 8D01     		.2byte	0x18d
 6753 188e 98180000 		.4byte	0x1898
 6754 1892 05       		.uleb128 0x5
 6755 1893 03       		.byte	0x3
 6756 1894 C8000000 		.4byte	u8x8_d_st75256_wo256x128_init_seq
 6757 1898 0E       		.uleb128 0xe
 6758 1899 4D180000 		.4byte	0x184d
 6759 189d 1E       		.uleb128 0x1e
 6760 189e D7070000 		.4byte	.LASF90
 6761 18a2 01       		.byte	0x1
 6762 18a3 FA01     		.2byte	0x1fa
ARM GAS  C:\Users\jesse\AppData\Local\Temp\cc6zNusR.s 			page 152


 6763 18a5 7C030000 		.4byte	0x37c
 6764 18a9 05       		.uleb128 0x5
 6765 18aa 03       		.byte	0x3
 6766 18ab 4C010000 		.4byte	u8x8_st75256_256x64_display_info
 6767 18af 1E       		.uleb128 0x1e
 6768 18b0 63090000 		.4byte	.LASF91
 6769 18b4 01       		.byte	0x1
 6770 18b5 1302     		.2byte	0x213
 6771 18b7 C1180000 		.4byte	0x18c1
 6772 18bb 05       		.uleb128 0x5
 6773 18bc 03       		.byte	0x3
 6774 18bd 64010000 		.4byte	u8x8_d_st75256_256x64_init_seq
 6775 18c1 0E       		.uleb128 0xe
 6776 18c2 4D180000 		.4byte	0x184d
 6777 18c6 1E       		.uleb128 0x1e
 6778 18c7 9B090000 		.4byte	.LASF92
 6779 18cb 01       		.byte	0x1
 6780 18cc 8002     		.2byte	0x280
 6781 18ce 7C030000 		.4byte	0x37c
 6782 18d2 05       		.uleb128 0x5
 6783 18d3 03       		.byte	0x3
 6784 18d4 D0010000 		.4byte	u8x8_st75256_172x104_display_info
 6785 18d8 1E       		.uleb128 0x1e
 6786 18d9 DF010000 		.4byte	.LASF93
 6787 18dd 01       		.byte	0x1
 6788 18de 9802     		.2byte	0x298
 6789 18e0 EA180000 		.4byte	0x18ea
 6790 18e4 05       		.uleb128 0x5
 6791 18e5 03       		.byte	0x3
 6792 18e6 E8010000 		.4byte	u8x8_d_st75256_jlx172104_init_seq
 6793 18ea 0E       		.uleb128 0xe
 6794 18eb 4D180000 		.4byte	0x184d
 6795 18ef 1E       		.uleb128 0x1e
 6796 18f0 CF040000 		.4byte	.LASF94
 6797 18f4 01       		.byte	0x1
 6798 18f5 3F03     		.2byte	0x33f
 6799 18f7 7C030000 		.4byte	0x37c
 6800 18fb 05       		.uleb128 0x5
 6801 18fc 03       		.byte	0x3
 6802 18fd 54020000 		.4byte	u8x8_st75256_240x160_display_info
 6803 1901 1E       		.uleb128 0x1e
 6804 1902 7D020000 		.4byte	.LASF95
 6805 1906 01       		.byte	0x1
 6806 1907 5803     		.2byte	0x358
 6807 1909 13190000 		.4byte	0x1913
 6808 190d 05       		.uleb128 0x5
 6809 190e 03       		.byte	0x3
 6810 190f 6C020000 		.4byte	u8x8_d_st75256_240x160_init_seq
 6811 1913 0E       		.uleb128 0xe
 6812 1914 4D180000 		.4byte	0x184d
 6813 1918 1E       		.uleb128 0x1e
 6814 1919 1D050000 		.4byte	.LASF96
 6815 191d 01       		.byte	0x1
 6816 191e 0204     		.2byte	0x402
 6817 1920 7C030000 		.4byte	0x37c
 6818 1924 05       		.uleb128 0x5
 6819 1925 03       		.byte	0x3
ARM GAS  C:\Users\jesse\AppData\Local\Temp\cc6zNusR.s 			page 153


 6820 1926 D8020000 		.4byte	u8x8_st75256_256x160_display_info
 6821 192a 1E       		.uleb128 0x1e
 6822 192b 2D040000 		.4byte	.LASF97
 6823 192f 01       		.byte	0x1
 6824 1930 1B04     		.2byte	0x41b
 6825 1932 3C190000 		.4byte	0x193c
 6826 1936 05       		.uleb128 0x5
 6827 1937 03       		.byte	0x3
 6828 1938 F0020000 		.4byte	u8x8_d_st75256_256x160_init_seq
 6829 193c 0E       		.uleb128 0xe
 6830 193d 4D180000 		.4byte	0x184d
 6831 1941 1E       		.uleb128 0x1e
 6832 1942 49060000 		.4byte	.LASF98
 6833 1946 01       		.byte	0x1
 6834 1947 C204     		.2byte	0x4c2
 6835 1949 53190000 		.4byte	0x1953
 6836 194d 05       		.uleb128 0x5
 6837 194e 03       		.byte	0x3
 6838 194f 73030000 		.4byte	u8x8_d_st75256_256x160m_init_seq
 6839 1953 0E       		.uleb128 0xe
 6840 1954 4D180000 		.4byte	0x184d
 6841 1958 1E       		.uleb128 0x1e
 6842 1959 9F060000 		.4byte	.LASF99
 6843 195d 01       		.byte	0x1
 6844 195e 6905     		.2byte	0x569
 6845 1960 7C030000 		.4byte	0x37c
 6846 1964 05       		.uleb128 0x5
 6847 1965 03       		.byte	0x3
 6848 1966 DC030000 		.4byte	u8x8_st75256_256x160_alt_display_info
 6849 196a 1E       		.uleb128 0x1e
 6850 196b 00000000 		.4byte	.LASF100
 6851 196f 01       		.byte	0x1
 6852 1970 8205     		.2byte	0x582
 6853 1972 7C190000 		.4byte	0x197c
 6854 1976 05       		.uleb128 0x5
 6855 1977 03       		.byte	0x3
 6856 1978 F4030000 		.4byte	u8x8_d_st75256_256x160_alt_init_seq
 6857 197c 0E       		.uleb128 0xe
 6858 197d 4D180000 		.4byte	0x184d
 6859 1981 1E       		.uleb128 0x1e
 6860 1982 0E070000 		.4byte	.LASF101
 6861 1986 01       		.byte	0x1
 6862 1987 2906     		.2byte	0x629
 6863 1989 7C030000 		.4byte	0x37c
 6864 198d 05       		.uleb128 0x5
 6865 198e 03       		.byte	0x3
 6866 198f 60040000 		.4byte	u8x8_st75256_192x96_display_info
 6867 1993 1E       		.uleb128 0x1e
 6868 1994 37080000 		.4byte	.LASF102
 6869 1998 01       		.byte	0x1
 6870 1999 4106     		.2byte	0x641
 6871 199b A5190000 		.4byte	0x19a5
 6872 199f 05       		.uleb128 0x5
 6873 19a0 03       		.byte	0x3
 6874 19a1 78040000 		.4byte	u8x8_d_st75256_jlx19296_init_seq
 6875 19a5 0E       		.uleb128 0xe
 6876 19a6 4D180000 		.4byte	0x184d
ARM GAS  C:\Users\jesse\AppData\Local\Temp\cc6zNusR.s 			page 154


 6877 19aa 1F       		.uleb128 0x1f
 6878 19ab 01020000 		.4byte	.LASF103
 6879 19af 01020000 		.4byte	.LASF103
 6880 19b3 04       		.byte	0x4
 6881 19b4 9102     		.2byte	0x291
 6882 19b6 1F       		.uleb128 0x1f
 6883 19b7 91070000 		.4byte	.LASF104
 6884 19bb 91070000 		.4byte	.LASF104
 6885 19bf 04       		.byte	0x4
 6886 19c0 7102     		.2byte	0x271
 6887 19c2 1F       		.uleb128 0x1f
 6888 19c3 52090000 		.4byte	.LASF105
 6889 19c7 52090000 		.4byte	.LASF105
 6890 19cb 04       		.byte	0x4
 6891 19cc 6D02     		.2byte	0x26d
 6892 19ce 1F       		.uleb128 0x1f
 6893 19cf BD090000 		.4byte	.LASF106
 6894 19d3 BD090000 		.4byte	.LASF106
 6895 19d7 04       		.byte	0x4
 6896 19d8 6E02     		.2byte	0x26e
 6897 19da 1F       		.uleb128 0x1f
 6898 19db F8070000 		.4byte	.LASF107
 6899 19df F8070000 		.4byte	.LASF107
 6900 19e3 04       		.byte	0x4
 6901 19e4 7202     		.2byte	0x272
 6902 19e6 1F       		.uleb128 0x1f
 6903 19e7 4D040000 		.4byte	.LASF108
 6904 19eb 4D040000 		.4byte	.LASF108
 6905 19ef 04       		.byte	0x4
 6906 19f0 7002     		.2byte	0x270
 6907 19f2 1F       		.uleb128 0x1f
 6908 19f3 4D030000 		.4byte	.LASF109
 6909 19f7 4D030000 		.4byte	.LASF109
 6910 19fb 04       		.byte	0x4
 6911 19fc B401     		.2byte	0x1b4
 6912 19fe 1F       		.uleb128 0x1f
 6913 19ff 8C000000 		.4byte	.LASF110
 6914 1a03 8C000000 		.4byte	.LASF110
 6915 1a07 04       		.byte	0x4
 6916 1a08 B501     		.2byte	0x1b5
 6917 1a0a 00       		.byte	0
 6918              		.section	.debug_abbrev,"",%progbits
 6919              	.Ldebug_abbrev0:
 6920 0000 01       		.uleb128 0x1
 6921 0001 11       		.uleb128 0x11
 6922 0002 01       		.byte	0x1
 6923 0003 25       		.uleb128 0x25
 6924 0004 0E       		.uleb128 0xe
 6925 0005 13       		.uleb128 0x13
 6926 0006 0B       		.uleb128 0xb
 6927 0007 03       		.uleb128 0x3
 6928 0008 0E       		.uleb128 0xe
 6929 0009 1B       		.uleb128 0x1b
 6930 000a 0E       		.uleb128 0xe
 6931 000b 55       		.uleb128 0x55
 6932 000c 17       		.uleb128 0x17
 6933 000d 11       		.uleb128 0x11
ARM GAS  C:\Users\jesse\AppData\Local\Temp\cc6zNusR.s 			page 155


 6934 000e 01       		.uleb128 0x1
 6935 000f 10       		.uleb128 0x10
 6936 0010 17       		.uleb128 0x17
 6937 0011 00       		.byte	0
 6938 0012 00       		.byte	0
 6939 0013 02       		.uleb128 0x2
 6940 0014 24       		.uleb128 0x24
 6941 0015 00       		.byte	0
 6942 0016 0B       		.uleb128 0xb
 6943 0017 0B       		.uleb128 0xb
 6944 0018 3E       		.uleb128 0x3e
 6945 0019 0B       		.uleb128 0xb
 6946 001a 03       		.uleb128 0x3
 6947 001b 0E       		.uleb128 0xe
 6948 001c 00       		.byte	0
 6949 001d 00       		.byte	0
 6950 001e 03       		.uleb128 0x3
 6951 001f 16       		.uleb128 0x16
 6952 0020 00       		.byte	0
 6953 0021 03       		.uleb128 0x3
 6954 0022 0E       		.uleb128 0xe
 6955 0023 3A       		.uleb128 0x3a
 6956 0024 0B       		.uleb128 0xb
 6957 0025 3B       		.uleb128 0x3b
 6958 0026 0B       		.uleb128 0xb
 6959 0027 49       		.uleb128 0x49
 6960 0028 13       		.uleb128 0x13
 6961 0029 00       		.byte	0
 6962 002a 00       		.byte	0
 6963 002b 04       		.uleb128 0x4
 6964 002c 24       		.uleb128 0x24
 6965 002d 00       		.byte	0
 6966 002e 0B       		.uleb128 0xb
 6967 002f 0B       		.uleb128 0xb
 6968 0030 3E       		.uleb128 0x3e
 6969 0031 0B       		.uleb128 0xb
 6970 0032 03       		.uleb128 0x3
 6971 0033 08       		.uleb128 0x8
 6972 0034 00       		.byte	0
 6973 0035 00       		.byte	0
 6974 0036 05       		.uleb128 0x5
 6975 0037 0F       		.uleb128 0xf
 6976 0038 00       		.byte	0
 6977 0039 0B       		.uleb128 0xb
 6978 003a 0B       		.uleb128 0xb
 6979 003b 00       		.byte	0
 6980 003c 00       		.byte	0
 6981 003d 06       		.uleb128 0x6
 6982 003e 13       		.uleb128 0x13
 6983 003f 01       		.byte	0x1
 6984 0040 03       		.uleb128 0x3
 6985 0041 0E       		.uleb128 0xe
 6986 0042 0B       		.uleb128 0xb
 6987 0043 0B       		.uleb128 0xb
 6988 0044 3A       		.uleb128 0x3a
 6989 0045 0B       		.uleb128 0xb
 6990 0046 3B       		.uleb128 0x3b
ARM GAS  C:\Users\jesse\AppData\Local\Temp\cc6zNusR.s 			page 156


 6991 0047 05       		.uleb128 0x5
 6992 0048 01       		.uleb128 0x1
 6993 0049 13       		.uleb128 0x13
 6994 004a 00       		.byte	0
 6995 004b 00       		.byte	0
 6996 004c 07       		.uleb128 0x7
 6997 004d 0D       		.uleb128 0xd
 6998 004e 00       		.byte	0
 6999 004f 03       		.uleb128 0x3
 7000 0050 0E       		.uleb128 0xe
 7001 0051 3A       		.uleb128 0x3a
 7002 0052 0B       		.uleb128 0xb
 7003 0053 3B       		.uleb128 0x3b
 7004 0054 05       		.uleb128 0x5
 7005 0055 49       		.uleb128 0x49
 7006 0056 13       		.uleb128 0x13
 7007 0057 38       		.uleb128 0x38
 7008 0058 0B       		.uleb128 0xb
 7009 0059 00       		.byte	0
 7010 005a 00       		.byte	0
 7011 005b 08       		.uleb128 0x8
 7012 005c 13       		.uleb128 0x13
 7013 005d 01       		.byte	0x1
 7014 005e 03       		.uleb128 0x3
 7015 005f 0E       		.uleb128 0xe
 7016 0060 0B       		.uleb128 0xb
 7017 0061 0B       		.uleb128 0xb
 7018 0062 3A       		.uleb128 0x3a
 7019 0063 0B       		.uleb128 0xb
 7020 0064 3B       		.uleb128 0x3b
 7021 0065 0B       		.uleb128 0xb
 7022 0066 01       		.uleb128 0x1
 7023 0067 13       		.uleb128 0x13
 7024 0068 00       		.byte	0
 7025 0069 00       		.byte	0
 7026 006a 09       		.uleb128 0x9
 7027 006b 0D       		.uleb128 0xd
 7028 006c 00       		.byte	0
 7029 006d 03       		.uleb128 0x3
 7030 006e 0E       		.uleb128 0xe
 7031 006f 3A       		.uleb128 0x3a
 7032 0070 0B       		.uleb128 0xb
 7033 0071 3B       		.uleb128 0x3b
 7034 0072 0B       		.uleb128 0xb
 7035 0073 49       		.uleb128 0x49
 7036 0074 13       		.uleb128 0x13
 7037 0075 38       		.uleb128 0x38
 7038 0076 0B       		.uleb128 0xb
 7039 0077 00       		.byte	0
 7040 0078 00       		.byte	0
 7041 0079 0A       		.uleb128 0xa
 7042 007a 0D       		.uleb128 0xd
 7043 007b 00       		.byte	0
 7044 007c 03       		.uleb128 0x3
 7045 007d 08       		.uleb128 0x8
 7046 007e 3A       		.uleb128 0x3a
 7047 007f 0B       		.uleb128 0xb
ARM GAS  C:\Users\jesse\AppData\Local\Temp\cc6zNusR.s 			page 157


 7048 0080 3B       		.uleb128 0x3b
 7049 0081 0B       		.uleb128 0xb
 7050 0082 49       		.uleb128 0x49
 7051 0083 13       		.uleb128 0x13
 7052 0084 38       		.uleb128 0x38
 7053 0085 0B       		.uleb128 0xb
 7054 0086 00       		.byte	0
 7055 0087 00       		.byte	0
 7056 0088 0B       		.uleb128 0xb
 7057 0089 0F       		.uleb128 0xf
 7058 008a 00       		.byte	0
 7059 008b 0B       		.uleb128 0xb
 7060 008c 0B       		.uleb128 0xb
 7061 008d 49       		.uleb128 0x49
 7062 008e 13       		.uleb128 0x13
 7063 008f 00       		.byte	0
 7064 0090 00       		.byte	0
 7065 0091 0C       		.uleb128 0xc
 7066 0092 15       		.uleb128 0x15
 7067 0093 01       		.byte	0x1
 7068 0094 27       		.uleb128 0x27
 7069 0095 19       		.uleb128 0x19
 7070 0096 49       		.uleb128 0x49
 7071 0097 13       		.uleb128 0x13
 7072 0098 01       		.uleb128 0x1
 7073 0099 13       		.uleb128 0x13
 7074 009a 00       		.byte	0
 7075 009b 00       		.byte	0
 7076 009c 0D       		.uleb128 0xd
 7077 009d 05       		.uleb128 0x5
 7078 009e 00       		.byte	0
 7079 009f 49       		.uleb128 0x49
 7080 00a0 13       		.uleb128 0x13
 7081 00a1 00       		.byte	0
 7082 00a2 00       		.byte	0
 7083 00a3 0E       		.uleb128 0xe
 7084 00a4 26       		.uleb128 0x26
 7085 00a5 00       		.byte	0
 7086 00a6 49       		.uleb128 0x49
 7087 00a7 13       		.uleb128 0x13
 7088 00a8 00       		.byte	0
 7089 00a9 00       		.byte	0
 7090 00aa 0F       		.uleb128 0xf
 7091 00ab 2E       		.uleb128 0x2e
 7092 00ac 01       		.byte	0x1
 7093 00ad 03       		.uleb128 0x3
 7094 00ae 0E       		.uleb128 0xe
 7095 00af 3A       		.uleb128 0x3a
 7096 00b0 0B       		.uleb128 0xb
 7097 00b1 3B       		.uleb128 0x3b
 7098 00b2 0B       		.uleb128 0xb
 7099 00b3 27       		.uleb128 0x27
 7100 00b4 19       		.uleb128 0x19
 7101 00b5 49       		.uleb128 0x49
 7102 00b6 13       		.uleb128 0x13
 7103 00b7 11       		.uleb128 0x11
 7104 00b8 01       		.uleb128 0x1
ARM GAS  C:\Users\jesse\AppData\Local\Temp\cc6zNusR.s 			page 158


 7105 00b9 12       		.uleb128 0x12
 7106 00ba 06       		.uleb128 0x6
 7107 00bb 40       		.uleb128 0x40
 7108 00bc 18       		.uleb128 0x18
 7109 00bd 9742     		.uleb128 0x2117
 7110 00bf 19       		.uleb128 0x19
 7111 00c0 01       		.uleb128 0x1
 7112 00c1 13       		.uleb128 0x13
 7113 00c2 00       		.byte	0
 7114 00c3 00       		.byte	0
 7115 00c4 10       		.uleb128 0x10
 7116 00c5 05       		.uleb128 0x5
 7117 00c6 00       		.byte	0
 7118 00c7 03       		.uleb128 0x3
 7119 00c8 0E       		.uleb128 0xe
 7120 00c9 3A       		.uleb128 0x3a
 7121 00ca 0B       		.uleb128 0xb
 7122 00cb 3B       		.uleb128 0x3b
 7123 00cc 0B       		.uleb128 0xb
 7124 00cd 49       		.uleb128 0x49
 7125 00ce 13       		.uleb128 0x13
 7126 00cf 02       		.uleb128 0x2
 7127 00d0 17       		.uleb128 0x17
 7128 00d1 00       		.byte	0
 7129 00d2 00       		.byte	0
 7130 00d3 11       		.uleb128 0x11
 7131 00d4 05       		.uleb128 0x5
 7132 00d5 00       		.byte	0
 7133 00d6 03       		.uleb128 0x3
 7134 00d7 08       		.uleb128 0x8
 7135 00d8 3A       		.uleb128 0x3a
 7136 00d9 0B       		.uleb128 0xb
 7137 00da 3B       		.uleb128 0x3b
 7138 00db 0B       		.uleb128 0xb
 7139 00dc 49       		.uleb128 0x49
 7140 00dd 13       		.uleb128 0x13
 7141 00de 02       		.uleb128 0x2
 7142 00df 17       		.uleb128 0x17
 7143 00e0 00       		.byte	0
 7144 00e1 00       		.byte	0
 7145 00e2 12       		.uleb128 0x12
 7146 00e3 34       		.uleb128 0x34
 7147 00e4 00       		.byte	0
 7148 00e5 03       		.uleb128 0x3
 7149 00e6 08       		.uleb128 0x8
 7150 00e7 3A       		.uleb128 0x3a
 7151 00e8 0B       		.uleb128 0xb
 7152 00e9 3B       		.uleb128 0x3b
 7153 00ea 0B       		.uleb128 0xb
 7154 00eb 49       		.uleb128 0x49
 7155 00ec 13       		.uleb128 0x13
 7156 00ed 02       		.uleb128 0x2
 7157 00ee 17       		.uleb128 0x17
 7158 00ef 00       		.byte	0
 7159 00f0 00       		.byte	0
 7160 00f1 13       		.uleb128 0x13
 7161 00f2 898201   		.uleb128 0x4109
ARM GAS  C:\Users\jesse\AppData\Local\Temp\cc6zNusR.s 			page 159


 7162 00f5 00       		.byte	0
 7163 00f6 11       		.uleb128 0x11
 7164 00f7 01       		.uleb128 0x1
 7165 00f8 31       		.uleb128 0x31
 7166 00f9 13       		.uleb128 0x13
 7167 00fa 00       		.byte	0
 7168 00fb 00       		.byte	0
 7169 00fc 14       		.uleb128 0x14
 7170 00fd 898201   		.uleb128 0x4109
 7171 0100 01       		.byte	0x1
 7172 0101 11       		.uleb128 0x11
 7173 0102 01       		.uleb128 0x1
 7174 0103 31       		.uleb128 0x31
 7175 0104 13       		.uleb128 0x13
 7176 0105 01       		.uleb128 0x1
 7177 0106 13       		.uleb128 0x13
 7178 0107 00       		.byte	0
 7179 0108 00       		.byte	0
 7180 0109 15       		.uleb128 0x15
 7181 010a 8A8201   		.uleb128 0x410a
 7182 010d 00       		.byte	0
 7183 010e 02       		.uleb128 0x2
 7184 010f 18       		.uleb128 0x18
 7185 0110 9142     		.uleb128 0x2111
 7186 0112 18       		.uleb128 0x18
 7187 0113 00       		.byte	0
 7188 0114 00       		.byte	0
 7189 0115 16       		.uleb128 0x16
 7190 0116 898201   		.uleb128 0x4109
 7191 0119 01       		.byte	0x1
 7192 011a 11       		.uleb128 0x11
 7193 011b 01       		.uleb128 0x1
 7194 011c 31       		.uleb128 0x31
 7195 011d 13       		.uleb128 0x13
 7196 011e 00       		.byte	0
 7197 011f 00       		.byte	0
 7198 0120 17       		.uleb128 0x17
 7199 0121 2E       		.uleb128 0x2e
 7200 0122 01       		.byte	0x1
 7201 0123 3F       		.uleb128 0x3f
 7202 0124 19       		.uleb128 0x19
 7203 0125 03       		.uleb128 0x3
 7204 0126 0E       		.uleb128 0xe
 7205 0127 3A       		.uleb128 0x3a
 7206 0128 0B       		.uleb128 0xb
 7207 0129 3B       		.uleb128 0x3b
 7208 012a 05       		.uleb128 0x5
 7209 012b 27       		.uleb128 0x27
 7210 012c 19       		.uleb128 0x19
 7211 012d 49       		.uleb128 0x49
 7212 012e 13       		.uleb128 0x13
 7213 012f 11       		.uleb128 0x11
 7214 0130 01       		.uleb128 0x1
 7215 0131 12       		.uleb128 0x12
 7216 0132 06       		.uleb128 0x6
 7217 0133 40       		.uleb128 0x40
 7218 0134 18       		.uleb128 0x18
ARM GAS  C:\Users\jesse\AppData\Local\Temp\cc6zNusR.s 			page 160


 7219 0135 9742     		.uleb128 0x2117
 7220 0137 19       		.uleb128 0x19
 7221 0138 01       		.uleb128 0x1
 7222 0139 13       		.uleb128 0x13
 7223 013a 00       		.byte	0
 7224 013b 00       		.byte	0
 7225 013c 18       		.uleb128 0x18
 7226 013d 05       		.uleb128 0x5
 7227 013e 00       		.byte	0
 7228 013f 03       		.uleb128 0x3
 7229 0140 0E       		.uleb128 0xe
 7230 0141 3A       		.uleb128 0x3a
 7231 0142 0B       		.uleb128 0xb
 7232 0143 3B       		.uleb128 0x3b
 7233 0144 05       		.uleb128 0x5
 7234 0145 49       		.uleb128 0x49
 7235 0146 13       		.uleb128 0x13
 7236 0147 02       		.uleb128 0x2
 7237 0148 17       		.uleb128 0x17
 7238 0149 00       		.byte	0
 7239 014a 00       		.byte	0
 7240 014b 19       		.uleb128 0x19
 7241 014c 05       		.uleb128 0x5
 7242 014d 00       		.byte	0
 7243 014e 03       		.uleb128 0x3
 7244 014f 08       		.uleb128 0x8
 7245 0150 3A       		.uleb128 0x3a
 7246 0151 0B       		.uleb128 0xb
 7247 0152 3B       		.uleb128 0x3b
 7248 0153 05       		.uleb128 0x5
 7249 0154 49       		.uleb128 0x49
 7250 0155 13       		.uleb128 0x13
 7251 0156 02       		.uleb128 0x2
 7252 0157 17       		.uleb128 0x17
 7253 0158 00       		.byte	0
 7254 0159 00       		.byte	0
 7255 015a 1A       		.uleb128 0x1a
 7256 015b 34       		.uleb128 0x34
 7257 015c 00       		.byte	0
 7258 015d 03       		.uleb128 0x3
 7259 015e 08       		.uleb128 0x8
 7260 015f 3A       		.uleb128 0x3a
 7261 0160 0B       		.uleb128 0xb
 7262 0161 3B       		.uleb128 0x3b
 7263 0162 05       		.uleb128 0x5
 7264 0163 49       		.uleb128 0x49
 7265 0164 13       		.uleb128 0x13
 7266 0165 02       		.uleb128 0x2
 7267 0166 17       		.uleb128 0x17
 7268 0167 00       		.byte	0
 7269 0168 00       		.byte	0
 7270 0169 1B       		.uleb128 0x1b
 7271 016a 01       		.uleb128 0x1
 7272 016b 01       		.byte	0x1
 7273 016c 49       		.uleb128 0x49
 7274 016d 13       		.uleb128 0x13
 7275 016e 01       		.uleb128 0x1
ARM GAS  C:\Users\jesse\AppData\Local\Temp\cc6zNusR.s 			page 161


 7276 016f 13       		.uleb128 0x13
 7277 0170 00       		.byte	0
 7278 0171 00       		.byte	0
 7279 0172 1C       		.uleb128 0x1c
 7280 0173 21       		.uleb128 0x21
 7281 0174 00       		.byte	0
 7282 0175 49       		.uleb128 0x49
 7283 0176 13       		.uleb128 0x13
 7284 0177 2F       		.uleb128 0x2f
 7285 0178 0B       		.uleb128 0xb
 7286 0179 00       		.byte	0
 7287 017a 00       		.byte	0
 7288 017b 1D       		.uleb128 0x1d
 7289 017c 34       		.uleb128 0x34
 7290 017d 00       		.byte	0
 7291 017e 03       		.uleb128 0x3
 7292 017f 0E       		.uleb128 0xe
 7293 0180 3A       		.uleb128 0x3a
 7294 0181 0B       		.uleb128 0xb
 7295 0182 3B       		.uleb128 0x3b
 7296 0183 0B       		.uleb128 0xb
 7297 0184 49       		.uleb128 0x49
 7298 0185 13       		.uleb128 0x13
 7299 0186 02       		.uleb128 0x2
 7300 0187 18       		.uleb128 0x18
 7301 0188 00       		.byte	0
 7302 0189 00       		.byte	0
 7303 018a 1E       		.uleb128 0x1e
 7304 018b 34       		.uleb128 0x34
 7305 018c 00       		.byte	0
 7306 018d 03       		.uleb128 0x3
 7307 018e 0E       		.uleb128 0xe
 7308 018f 3A       		.uleb128 0x3a
 7309 0190 0B       		.uleb128 0xb
 7310 0191 3B       		.uleb128 0x3b
 7311 0192 05       		.uleb128 0x5
 7312 0193 49       		.uleb128 0x49
 7313 0194 13       		.uleb128 0x13
 7314 0195 02       		.uleb128 0x2
 7315 0196 18       		.uleb128 0x18
 7316 0197 00       		.byte	0
 7317 0198 00       		.byte	0
 7318 0199 1F       		.uleb128 0x1f
 7319 019a 2E       		.uleb128 0x2e
 7320 019b 00       		.byte	0
 7321 019c 3F       		.uleb128 0x3f
 7322 019d 19       		.uleb128 0x19
 7323 019e 3C       		.uleb128 0x3c
 7324 019f 19       		.uleb128 0x19
 7325 01a0 6E       		.uleb128 0x6e
 7326 01a1 0E       		.uleb128 0xe
 7327 01a2 03       		.uleb128 0x3
 7328 01a3 0E       		.uleb128 0xe
 7329 01a4 3A       		.uleb128 0x3a
 7330 01a5 0B       		.uleb128 0xb
 7331 01a6 3B       		.uleb128 0x3b
 7332 01a7 05       		.uleb128 0x5
ARM GAS  C:\Users\jesse\AppData\Local\Temp\cc6zNusR.s 			page 162


 7333 01a8 00       		.byte	0
 7334 01a9 00       		.byte	0
 7335 01aa 00       		.byte	0
 7336              		.section	.debug_loc,"",%progbits
 7337              	.Ldebug_loc0:
 7338              	.LLST0:
 7339 0000 00000000 		.4byte	.LVL0
 7340 0004 21000000 		.4byte	.LVL4-1
 7341 0008 0100     		.2byte	0x1
 7342 000a 50       		.byte	0x50
 7343 000b 21000000 		.4byte	.LVL4-1
 7344 000f 24000000 		.4byte	.LVL5
 7345 0013 0100     		.2byte	0x1
 7346 0015 54       		.byte	0x54
 7347 0016 24000000 		.4byte	.LVL5
 7348 001a 27000000 		.4byte	.LVL6-1
 7349 001e 0100     		.2byte	0x1
 7350 0020 50       		.byte	0x50
 7351 0021 27000000 		.4byte	.LVL6-1
 7352 0025 58000000 		.4byte	.LVL12
 7353 0029 0100     		.2byte	0x1
 7354 002b 54       		.byte	0x54
 7355 002c 58000000 		.4byte	.LVL12
 7356 0030 5B000000 		.4byte	.LVL13-1
 7357 0034 0100     		.2byte	0x1
 7358 0036 50       		.byte	0x50
 7359 0037 5B000000 		.4byte	.LVL13-1
 7360 003b E2000000 		.4byte	.LVL32
 7361 003f 0100     		.2byte	0x1
 7362 0041 54       		.byte	0x54
 7363 0042 E2000000 		.4byte	.LVL32
 7364 0046 E4000000 		.4byte	.LVL33
 7365 004a 0100     		.2byte	0x1
 7366 004c 50       		.byte	0x50
 7367 004d E4000000 		.4byte	.LVL33
 7368 0051 E8000000 		.4byte	.LVL34
 7369 0055 0100     		.2byte	0x1
 7370 0057 54       		.byte	0x54
 7371 0058 E8000000 		.4byte	.LVL34
 7372 005c F0000000 		.4byte	.LFE0
 7373 0060 0400     		.2byte	0x4
 7374 0062 F3       		.byte	0xf3
 7375 0063 01       		.uleb128 0x1
 7376 0064 50       		.byte	0x50
 7377 0065 9F       		.byte	0x9f
 7378 0066 00000000 		.4byte	0
 7379 006a 00000000 		.4byte	0
 7380              	.LLST1:
 7381 006e 00000000 		.4byte	.LVL0
 7382 0072 1A000000 		.4byte	.LVL1
 7383 0076 0100     		.2byte	0x1
 7384 0078 51       		.byte	0x51
 7385 0079 1A000000 		.4byte	.LVL1
 7386 007d 1C000000 		.4byte	.LVL2
 7387 0081 0400     		.2byte	0x4
 7388 0083 F3       		.byte	0xf3
 7389 0084 01       		.uleb128 0x1
ARM GAS  C:\Users\jesse\AppData\Local\Temp\cc6zNusR.s 			page 163


 7390 0085 51       		.byte	0x51
 7391 0086 9F       		.byte	0x9f
 7392 0087 1C000000 		.4byte	.LVL2
 7393 008b 1E000000 		.4byte	.LVL3
 7394 008f 0100     		.2byte	0x1
 7395 0091 51       		.byte	0x51
 7396 0092 1E000000 		.4byte	.LVL3
 7397 0096 24000000 		.4byte	.LVL5
 7398 009a 0400     		.2byte	0x4
 7399 009c F3       		.byte	0xf3
 7400 009d 01       		.uleb128 0x1
 7401 009e 51       		.byte	0x51
 7402 009f 9F       		.byte	0x9f
 7403 00a0 24000000 		.4byte	.LVL5
 7404 00a4 27000000 		.4byte	.LVL6-1
 7405 00a8 0100     		.2byte	0x1
 7406 00aa 51       		.byte	0x51
 7407 00ab 27000000 		.4byte	.LVL6-1
 7408 00af 58000000 		.4byte	.LVL12
 7409 00b3 0400     		.2byte	0x4
 7410 00b5 F3       		.byte	0xf3
 7411 00b6 01       		.uleb128 0x1
 7412 00b7 51       		.byte	0x51
 7413 00b8 9F       		.byte	0x9f
 7414 00b9 58000000 		.4byte	.LVL12
 7415 00bd 5B000000 		.4byte	.LVL13-1
 7416 00c1 0100     		.2byte	0x1
 7417 00c3 51       		.byte	0x51
 7418 00c4 5B000000 		.4byte	.LVL13-1
 7419 00c8 E2000000 		.4byte	.LVL32
 7420 00cc 0400     		.2byte	0x4
 7421 00ce F3       		.byte	0xf3
 7422 00cf 01       		.uleb128 0x1
 7423 00d0 51       		.byte	0x51
 7424 00d1 9F       		.byte	0x9f
 7425 00d2 E2000000 		.4byte	.LVL32
 7426 00d6 F0000000 		.4byte	.LFE0
 7427 00da 0100     		.2byte	0x1
 7428 00dc 51       		.byte	0x51
 7429 00dd 00000000 		.4byte	0
 7430 00e1 00000000 		.4byte	0
 7431              	.LLST2:
 7432 00e5 00000000 		.4byte	.LVL0
 7433 00e9 21000000 		.4byte	.LVL4-1
 7434 00ed 0100     		.2byte	0x1
 7435 00ef 52       		.byte	0x52
 7436 00f0 21000000 		.4byte	.LVL4-1
 7437 00f4 24000000 		.4byte	.LVL5
 7438 00f8 0400     		.2byte	0x4
 7439 00fa F3       		.byte	0xf3
 7440 00fb 01       		.uleb128 0x1
 7441 00fc 52       		.byte	0x52
 7442 00fd 9F       		.byte	0x9f
 7443 00fe 24000000 		.4byte	.LVL5
 7444 0102 27000000 		.4byte	.LVL6-1
 7445 0106 0100     		.2byte	0x1
 7446 0108 52       		.byte	0x52
ARM GAS  C:\Users\jesse\AppData\Local\Temp\cc6zNusR.s 			page 164


 7447 0109 27000000 		.4byte	.LVL6-1
 7448 010d 4C000000 		.4byte	.LVL10
 7449 0111 0400     		.2byte	0x4
 7450 0113 F3       		.byte	0xf3
 7451 0114 01       		.uleb128 0x1
 7452 0115 52       		.byte	0x52
 7453 0116 9F       		.byte	0x9f
 7454 0117 58000000 		.4byte	.LVL12
 7455 011b 5B000000 		.4byte	.LVL13-1
 7456 011f 0100     		.2byte	0x1
 7457 0121 52       		.byte	0x52
 7458 0122 5B000000 		.4byte	.LVL13-1
 7459 0126 AE000000 		.4byte	.LVL22
 7460 012a 0400     		.2byte	0x4
 7461 012c F3       		.byte	0xf3
 7462 012d 01       		.uleb128 0x1
 7463 012e 52       		.byte	0x52
 7464 012f 9F       		.byte	0x9f
 7465 0130 AE000000 		.4byte	.LVL22
 7466 0134 D6000000 		.4byte	.LVL29
 7467 0138 0100     		.2byte	0x1
 7468 013a 55       		.byte	0x55
 7469 013b DA000000 		.4byte	.LVL30
 7470 013f DE000000 		.4byte	.LVL31
 7471 0143 0100     		.2byte	0x1
 7472 0145 55       		.byte	0x55
 7473 0146 E2000000 		.4byte	.LVL32
 7474 014a F0000000 		.4byte	.LFE0
 7475 014e 0100     		.2byte	0x1
 7476 0150 52       		.byte	0x52
 7477 0151 00000000 		.4byte	0
 7478 0155 00000000 		.4byte	0
 7479              	.LLST3:
 7480 0159 00000000 		.4byte	.LVL0
 7481 015d 21000000 		.4byte	.LVL4-1
 7482 0161 0100     		.2byte	0x1
 7483 0163 53       		.byte	0x53
 7484 0164 21000000 		.4byte	.LVL4-1
 7485 0168 24000000 		.4byte	.LVL5
 7486 016c 0100     		.2byte	0x1
 7487 016e 58       		.byte	0x58
 7488 016f 24000000 		.4byte	.LVL5
 7489 0173 27000000 		.4byte	.LVL6-1
 7490 0177 0100     		.2byte	0x1
 7491 0179 53       		.byte	0x53
 7492 017a 27000000 		.4byte	.LVL6-1
 7493 017e 58000000 		.4byte	.LVL12
 7494 0182 0100     		.2byte	0x1
 7495 0184 58       		.byte	0x58
 7496 0185 58000000 		.4byte	.LVL12
 7497 0189 5B000000 		.4byte	.LVL13-1
 7498 018d 0100     		.2byte	0x1
 7499 018f 53       		.byte	0x53
 7500 0190 5B000000 		.4byte	.LVL13-1
 7501 0194 E2000000 		.4byte	.LVL32
 7502 0198 0100     		.2byte	0x1
 7503 019a 58       		.byte	0x58
ARM GAS  C:\Users\jesse\AppData\Local\Temp\cc6zNusR.s 			page 165


 7504 019b E2000000 		.4byte	.LVL32
 7505 019f F0000000 		.4byte	.LFE0
 7506 01a3 0100     		.2byte	0x1
 7507 01a5 53       		.byte	0x53
 7508 01a6 00000000 		.4byte	0
 7509 01aa 00000000 		.4byte	0
 7510              	.LLST4:
 7511 01ae 64000000 		.4byte	.LVL14
 7512 01b2 AE000000 		.4byte	.LVL22
 7513 01b6 0500     		.2byte	0x5
 7514 01b8 76       		.byte	0x76
 7515 01b9 00       		.sleb128 0
 7516 01ba 33       		.byte	0x33
 7517 01bb 24       		.byte	0x24
 7518 01bc 9F       		.byte	0x9f
 7519 01bd 00000000 		.4byte	0
 7520 01c1 00000000 		.4byte	0
 7521              	.LLST5:
 7522 01c5 B2000000 		.4byte	.LVL23
 7523 01c9 C6000000 		.4byte	.LVL26
 7524 01cd 0100     		.2byte	0x1
 7525 01cf 56       		.byte	0x56
 7526 01d0 C6000000 		.4byte	.LVL26
 7527 01d4 CA000000 		.4byte	.LVL28
 7528 01d8 0300     		.2byte	0x3
 7529 01da 76       		.byte	0x76
 7530 01db 1F       		.sleb128 31
 7531 01dc 9F       		.byte	0x9f
 7532 01dd CA000000 		.4byte	.LVL28
 7533 01e1 E2000000 		.4byte	.LVL32
 7534 01e5 0100     		.2byte	0x1
 7535 01e7 56       		.byte	0x56
 7536 01e8 00000000 		.4byte	0
 7537 01ec 00000000 		.4byte	0
 7538              	.LLST6:
 7539 01f0 B6000000 		.4byte	.LVL24
 7540 01f4 E2000000 		.4byte	.LVL32
 7541 01f8 0100     		.2byte	0x1
 7542 01fa 57       		.byte	0x57
 7543 01fb 00000000 		.4byte	0
 7544 01ff 00000000 		.4byte	0
 7545              	.LLST7:
 7546 0203 00000000 		.4byte	.LVL35
 7547 0207 0B000000 		.4byte	.LVL36-1
 7548 020b 0100     		.2byte	0x1
 7549 020d 50       		.byte	0x50
 7550 020e 0B000000 		.4byte	.LVL36-1
 7551 0212 58000000 		.4byte	.LVL42
 7552 0216 0100     		.2byte	0x1
 7553 0218 54       		.byte	0x54
 7554 0219 58000000 		.4byte	.LVL42
 7555 021d 68000000 		.4byte	.LFE1
 7556 0221 0400     		.2byte	0x4
 7557 0223 F3       		.byte	0xf3
 7558 0224 01       		.uleb128 0x1
 7559 0225 50       		.byte	0x50
 7560 0226 9F       		.byte	0x9f
ARM GAS  C:\Users\jesse\AppData\Local\Temp\cc6zNusR.s 			page 166


 7561 0227 00000000 		.4byte	0
 7562 022b 00000000 		.4byte	0
 7563              	.LLST8:
 7564 022f 00000000 		.4byte	.LVL35
 7565 0233 0B000000 		.4byte	.LVL36-1
 7566 0237 0100     		.2byte	0x1
 7567 0239 51       		.byte	0x51
 7568 023a 0B000000 		.4byte	.LVL36-1
 7569 023e 68000000 		.4byte	.LFE1
 7570 0242 0400     		.2byte	0x4
 7571 0244 F3       		.byte	0xf3
 7572 0245 01       		.uleb128 0x1
 7573 0246 51       		.byte	0x51
 7574 0247 9F       		.byte	0x9f
 7575 0248 00000000 		.4byte	0
 7576 024c 00000000 		.4byte	0
 7577              	.LLST9:
 7578 0250 00000000 		.4byte	.LVL35
 7579 0254 0B000000 		.4byte	.LVL36-1
 7580 0258 0100     		.2byte	0x1
 7581 025a 52       		.byte	0x52
 7582 025b 0B000000 		.4byte	.LVL36-1
 7583 025f 68000000 		.4byte	.LFE1
 7584 0263 0400     		.2byte	0x4
 7585 0265 F3       		.byte	0xf3
 7586 0266 01       		.uleb128 0x1
 7587 0267 52       		.byte	0x52
 7588 0268 9F       		.byte	0x9f
 7589 0269 00000000 		.4byte	0
 7590 026d 00000000 		.4byte	0
 7591              	.LLST10:
 7592 0271 00000000 		.4byte	.LVL35
 7593 0275 0B000000 		.4byte	.LVL36-1
 7594 0279 0100     		.2byte	0x1
 7595 027b 53       		.byte	0x53
 7596 027c 0B000000 		.4byte	.LVL36-1
 7597 0280 68000000 		.4byte	.LFE1
 7598 0284 0400     		.2byte	0x4
 7599 0286 F3       		.byte	0xf3
 7600 0287 01       		.uleb128 0x1
 7601 0288 53       		.byte	0x53
 7602 0289 9F       		.byte	0x9f
 7603 028a 00000000 		.4byte	0
 7604 028e 00000000 		.4byte	0
 7605              	.LLST11:
 7606 0292 00000000 		.4byte	.LVL43
 7607 0296 0B000000 		.4byte	.LVL44-1
 7608 029a 0100     		.2byte	0x1
 7609 029c 50       		.byte	0x50
 7610 029d 0B000000 		.4byte	.LVL44-1
 7611 02a1 58000000 		.4byte	.LVL50
 7612 02a5 0100     		.2byte	0x1
 7613 02a7 54       		.byte	0x54
 7614 02a8 58000000 		.4byte	.LVL50
 7615 02ac 68000000 		.4byte	.LFE2
 7616 02b0 0400     		.2byte	0x4
 7617 02b2 F3       		.byte	0xf3
ARM GAS  C:\Users\jesse\AppData\Local\Temp\cc6zNusR.s 			page 167


 7618 02b3 01       		.uleb128 0x1
 7619 02b4 50       		.byte	0x50
 7620 02b5 9F       		.byte	0x9f
 7621 02b6 00000000 		.4byte	0
 7622 02ba 00000000 		.4byte	0
 7623              	.LLST12:
 7624 02be 00000000 		.4byte	.LVL43
 7625 02c2 0B000000 		.4byte	.LVL44-1
 7626 02c6 0100     		.2byte	0x1
 7627 02c8 51       		.byte	0x51
 7628 02c9 0B000000 		.4byte	.LVL44-1
 7629 02cd 68000000 		.4byte	.LFE2
 7630 02d1 0400     		.2byte	0x4
 7631 02d3 F3       		.byte	0xf3
 7632 02d4 01       		.uleb128 0x1
 7633 02d5 51       		.byte	0x51
 7634 02d6 9F       		.byte	0x9f
 7635 02d7 00000000 		.4byte	0
 7636 02db 00000000 		.4byte	0
 7637              	.LLST13:
 7638 02df 00000000 		.4byte	.LVL43
 7639 02e3 0B000000 		.4byte	.LVL44-1
 7640 02e7 0100     		.2byte	0x1
 7641 02e9 52       		.byte	0x52
 7642 02ea 0B000000 		.4byte	.LVL44-1
 7643 02ee 68000000 		.4byte	.LFE2
 7644 02f2 0400     		.2byte	0x4
 7645 02f4 F3       		.byte	0xf3
 7646 02f5 01       		.uleb128 0x1
 7647 02f6 52       		.byte	0x52
 7648 02f7 9F       		.byte	0x9f
 7649 02f8 00000000 		.4byte	0
 7650 02fc 00000000 		.4byte	0
 7651              	.LLST14:
 7652 0300 00000000 		.4byte	.LVL43
 7653 0304 0B000000 		.4byte	.LVL44-1
 7654 0308 0100     		.2byte	0x1
 7655 030a 53       		.byte	0x53
 7656 030b 0B000000 		.4byte	.LVL44-1
 7657 030f 68000000 		.4byte	.LFE2
 7658 0313 0400     		.2byte	0x4
 7659 0315 F3       		.byte	0xf3
 7660 0316 01       		.uleb128 0x1
 7661 0317 53       		.byte	0x53
 7662 0318 9F       		.byte	0x9f
 7663 0319 00000000 		.4byte	0
 7664 031d 00000000 		.4byte	0
 7665              	.LLST15:
 7666 0321 00000000 		.4byte	.LVL51
 7667 0325 0B000000 		.4byte	.LVL52-1
 7668 0329 0100     		.2byte	0x1
 7669 032b 50       		.byte	0x50
 7670 032c 0B000000 		.4byte	.LVL52-1
 7671 0330 58000000 		.4byte	.LVL58
 7672 0334 0100     		.2byte	0x1
 7673 0336 54       		.byte	0x54
 7674 0337 58000000 		.4byte	.LVL58
ARM GAS  C:\Users\jesse\AppData\Local\Temp\cc6zNusR.s 			page 168


 7675 033b 68000000 		.4byte	.LFE3
 7676 033f 0400     		.2byte	0x4
 7677 0341 F3       		.byte	0xf3
 7678 0342 01       		.uleb128 0x1
 7679 0343 50       		.byte	0x50
 7680 0344 9F       		.byte	0x9f
 7681 0345 00000000 		.4byte	0
 7682 0349 00000000 		.4byte	0
 7683              	.LLST16:
 7684 034d 00000000 		.4byte	.LVL51
 7685 0351 0B000000 		.4byte	.LVL52-1
 7686 0355 0100     		.2byte	0x1
 7687 0357 51       		.byte	0x51
 7688 0358 0B000000 		.4byte	.LVL52-1
 7689 035c 68000000 		.4byte	.LFE3
 7690 0360 0400     		.2byte	0x4
 7691 0362 F3       		.byte	0xf3
 7692 0363 01       		.uleb128 0x1
 7693 0364 51       		.byte	0x51
 7694 0365 9F       		.byte	0x9f
 7695 0366 00000000 		.4byte	0
 7696 036a 00000000 		.4byte	0
 7697              	.LLST17:
 7698 036e 00000000 		.4byte	.LVL51
 7699 0372 0B000000 		.4byte	.LVL52-1
 7700 0376 0100     		.2byte	0x1
 7701 0378 52       		.byte	0x52
 7702 0379 0B000000 		.4byte	.LVL52-1
 7703 037d 68000000 		.4byte	.LFE3
 7704 0381 0400     		.2byte	0x4
 7705 0383 F3       		.byte	0xf3
 7706 0384 01       		.uleb128 0x1
 7707 0385 52       		.byte	0x52
 7708 0386 9F       		.byte	0x9f
 7709 0387 00000000 		.4byte	0
 7710 038b 00000000 		.4byte	0
 7711              	.LLST18:
 7712 038f 00000000 		.4byte	.LVL51
 7713 0393 0B000000 		.4byte	.LVL52-1
 7714 0397 0100     		.2byte	0x1
 7715 0399 53       		.byte	0x53
 7716 039a 0B000000 		.4byte	.LVL52-1
 7717 039e 68000000 		.4byte	.LFE3
 7718 03a2 0400     		.2byte	0x4
 7719 03a4 F3       		.byte	0xf3
 7720 03a5 01       		.uleb128 0x1
 7721 03a6 53       		.byte	0x53
 7722 03a7 9F       		.byte	0x9f
 7723 03a8 00000000 		.4byte	0
 7724 03ac 00000000 		.4byte	0
 7725              	.LLST19:
 7726 03b0 00000000 		.4byte	.LVL59
 7727 03b4 21000000 		.4byte	.LVL62-1
 7728 03b8 0100     		.2byte	0x1
 7729 03ba 50       		.byte	0x50
 7730 03bb 21000000 		.4byte	.LVL62-1
 7731 03bf A8000000 		.4byte	.LVL84
ARM GAS  C:\Users\jesse\AppData\Local\Temp\cc6zNusR.s 			page 169


 7732 03c3 0100     		.2byte	0x1
 7733 03c5 54       		.byte	0x54
 7734 03c6 A8000000 		.4byte	.LVL84
 7735 03ca AD000000 		.4byte	.LVL85-1
 7736 03ce 0100     		.2byte	0x1
 7737 03d0 50       		.byte	0x50
 7738 03d1 AD000000 		.4byte	.LVL85-1
 7739 03d5 B0000000 		.4byte	.LVL86
 7740 03d9 0100     		.2byte	0x1
 7741 03db 54       		.byte	0x54
 7742 03dc B0000000 		.4byte	.LVL86
 7743 03e0 B3000000 		.4byte	.LVL87-1
 7744 03e4 0100     		.2byte	0x1
 7745 03e6 50       		.byte	0x50
 7746 03e7 B3000000 		.4byte	.LVL87-1
 7747 03eb B8000000 		.4byte	.LVL88
 7748 03ef 0100     		.2byte	0x1
 7749 03f1 54       		.byte	0x54
 7750 03f2 B8000000 		.4byte	.LVL88
 7751 03f6 C0000000 		.4byte	.LVL89
 7752 03fa 0100     		.2byte	0x1
 7753 03fc 50       		.byte	0x50
 7754 03fd C0000000 		.4byte	.LVL89
 7755 0401 C8000000 		.4byte	.LVL91
 7756 0405 0100     		.2byte	0x1
 7757 0407 54       		.byte	0x54
 7758 0408 C8000000 		.4byte	.LVL91
 7759 040c CF000000 		.4byte	.LVL92-1
 7760 0410 0100     		.2byte	0x1
 7761 0412 50       		.byte	0x50
 7762 0413 CF000000 		.4byte	.LVL92-1
 7763 0417 D6000000 		.4byte	.LVL93
 7764 041b 0100     		.2byte	0x1
 7765 041d 54       		.byte	0x54
 7766 041e D6000000 		.4byte	.LVL93
 7767 0422 DB000000 		.4byte	.LVL94-1
 7768 0426 0100     		.2byte	0x1
 7769 0428 50       		.byte	0x50
 7770 0429 DB000000 		.4byte	.LVL94-1
 7771 042d E6000000 		.4byte	.LVL95
 7772 0431 0100     		.2byte	0x1
 7773 0433 54       		.byte	0x54
 7774 0434 E6000000 		.4byte	.LVL95
 7775 0438 E9000000 		.4byte	.LVL96-1
 7776 043c 0100     		.2byte	0x1
 7777 043e 50       		.byte	0x50
 7778 043f E9000000 		.4byte	.LVL96-1
 7779 0443 1A010000 		.4byte	.LVL102
 7780 0447 0100     		.2byte	0x1
 7781 0449 54       		.byte	0x54
 7782 044a 1A010000 		.4byte	.LVL102
 7783 044e 1C010000 		.4byte	.LVL103
 7784 0452 0100     		.2byte	0x1
 7785 0454 50       		.byte	0x50
 7786 0455 1C010000 		.4byte	.LVL103
 7787 0459 20010000 		.4byte	.LVL104
 7788 045d 0100     		.2byte	0x1
ARM GAS  C:\Users\jesse\AppData\Local\Temp\cc6zNusR.s 			page 170


 7789 045f 54       		.byte	0x54
 7790 0460 20010000 		.4byte	.LVL104
 7791 0464 38010000 		.4byte	.LFE4
 7792 0468 0400     		.2byte	0x4
 7793 046a F3       		.byte	0xf3
 7794 046b 01       		.uleb128 0x1
 7795 046c 50       		.byte	0x50
 7796 046d 9F       		.byte	0x9f
 7797 046e 00000000 		.4byte	0
 7798 0472 00000000 		.4byte	0
 7799              	.LLST20:
 7800 0476 00000000 		.4byte	.LVL59
 7801 047a 02000000 		.4byte	.LVL60
 7802 047e 0100     		.2byte	0x1
 7803 0480 51       		.byte	0x51
 7804 0481 02000000 		.4byte	.LVL60
 7805 0485 38010000 		.4byte	.LFE4
 7806 0489 0400     		.2byte	0x4
 7807 048b F3       		.byte	0xf3
 7808 048c 01       		.uleb128 0x1
 7809 048d 51       		.byte	0x51
 7810 048e 9F       		.byte	0x9f
 7811 048f 00000000 		.4byte	0
 7812 0493 00000000 		.4byte	0
 7813              	.LLST21:
 7814 0497 00000000 		.4byte	.LVL59
 7815 049b 21000000 		.4byte	.LVL62-1
 7816 049f 0100     		.2byte	0x1
 7817 04a1 52       		.byte	0x52
 7818 04a2 21000000 		.4byte	.LVL62-1
 7819 04a6 7A000000 		.4byte	.LVL73
 7820 04aa 0400     		.2byte	0x4
 7821 04ac F3       		.byte	0xf3
 7822 04ad 01       		.uleb128 0x1
 7823 04ae 52       		.byte	0x52
 7824 04af 9F       		.byte	0x9f
 7825 04b0 7A000000 		.4byte	.LVL73
 7826 04b4 96000000 		.4byte	.LVL80
 7827 04b8 0100     		.2byte	0x1
 7828 04ba 56       		.byte	0x56
 7829 04bb A8000000 		.4byte	.LVL84
 7830 04bf AD000000 		.4byte	.LVL85-1
 7831 04c3 0100     		.2byte	0x1
 7832 04c5 52       		.byte	0x52
 7833 04c6 AD000000 		.4byte	.LVL85-1
 7834 04ca B0000000 		.4byte	.LVL86
 7835 04ce 0400     		.2byte	0x4
 7836 04d0 F3       		.byte	0xf3
 7837 04d1 01       		.uleb128 0x1
 7838 04d2 52       		.byte	0x52
 7839 04d3 9F       		.byte	0x9f
 7840 04d4 B0000000 		.4byte	.LVL86
 7841 04d8 B3000000 		.4byte	.LVL87-1
 7842 04dc 0100     		.2byte	0x1
 7843 04de 52       		.byte	0x52
 7844 04df B3000000 		.4byte	.LVL87-1
 7845 04e3 B8000000 		.4byte	.LVL88
ARM GAS  C:\Users\jesse\AppData\Local\Temp\cc6zNusR.s 			page 171


 7846 04e7 0400     		.2byte	0x4
 7847 04e9 F3       		.byte	0xf3
 7848 04ea 01       		.uleb128 0x1
 7849 04eb 52       		.byte	0x52
 7850 04ec 9F       		.byte	0x9f
 7851 04ed B8000000 		.4byte	.LVL88
 7852 04f1 C0000000 		.4byte	.LVL89
 7853 04f5 0100     		.2byte	0x1
 7854 04f7 52       		.byte	0x52
 7855 04f8 C0000000 		.4byte	.LVL89
 7856 04fc C8000000 		.4byte	.LVL91
 7857 0500 0400     		.2byte	0x4
 7858 0502 F3       		.byte	0xf3
 7859 0503 01       		.uleb128 0x1
 7860 0504 52       		.byte	0x52
 7861 0505 9F       		.byte	0x9f
 7862 0506 C8000000 		.4byte	.LVL91
 7863 050a CF000000 		.4byte	.LVL92-1
 7864 050e 0100     		.2byte	0x1
 7865 0510 52       		.byte	0x52
 7866 0511 CF000000 		.4byte	.LVL92-1
 7867 0515 D6000000 		.4byte	.LVL93
 7868 0519 0400     		.2byte	0x4
 7869 051b F3       		.byte	0xf3
 7870 051c 01       		.uleb128 0x1
 7871 051d 52       		.byte	0x52
 7872 051e 9F       		.byte	0x9f
 7873 051f D6000000 		.4byte	.LVL93
 7874 0523 DB000000 		.4byte	.LVL94-1
 7875 0527 0100     		.2byte	0x1
 7876 0529 52       		.byte	0x52
 7877 052a DB000000 		.4byte	.LVL94-1
 7878 052e E6000000 		.4byte	.LVL95
 7879 0532 0400     		.2byte	0x4
 7880 0534 F3       		.byte	0xf3
 7881 0535 01       		.uleb128 0x1
 7882 0536 52       		.byte	0x52
 7883 0537 9F       		.byte	0x9f
 7884 0538 E6000000 		.4byte	.LVL95
 7885 053c E9000000 		.4byte	.LVL96-1
 7886 0540 0100     		.2byte	0x1
 7887 0542 52       		.byte	0x52
 7888 0543 E9000000 		.4byte	.LVL96-1
 7889 0547 0E010000 		.4byte	.LVL100
 7890 054b 0400     		.2byte	0x4
 7891 054d F3       		.byte	0xf3
 7892 054e 01       		.uleb128 0x1
 7893 054f 52       		.byte	0x52
 7894 0550 9F       		.byte	0x9f
 7895 0551 1A010000 		.4byte	.LVL102
 7896 0555 38010000 		.4byte	.LFE4
 7897 0559 0100     		.2byte	0x1
 7898 055b 52       		.byte	0x52
 7899 055c 00000000 		.4byte	0
 7900 0560 00000000 		.4byte	0
 7901              	.LLST22:
 7902 0564 00000000 		.4byte	.LVL59
ARM GAS  C:\Users\jesse\AppData\Local\Temp\cc6zNusR.s 			page 172


 7903 0568 16000000 		.4byte	.LVL61
 7904 056c 0100     		.2byte	0x1
 7905 056e 53       		.byte	0x53
 7906 056f 16000000 		.4byte	.LVL61
 7907 0573 20010000 		.4byte	.LVL104
 7908 0577 0100     		.2byte	0x1
 7909 0579 57       		.byte	0x57
 7910 057a 20010000 		.4byte	.LVL104
 7911 057e 38010000 		.4byte	.LFE4
 7912 0582 0400     		.2byte	0x4
 7913 0584 F3       		.byte	0xf3
 7914 0585 01       		.uleb128 0x1
 7915 0586 53       		.byte	0x53
 7916 0587 9F       		.byte	0x9f
 7917 0588 00000000 		.4byte	0
 7918 058c 00000000 		.4byte	0
 7919              	.LLST23:
 7920 0590 28000000 		.4byte	.LVL63
 7921 0594 3A000000 		.4byte	.LVL66
 7922 0598 0100     		.2byte	0x1
 7923 059a 55       		.byte	0x55
 7924 059b 3E000000 		.4byte	.LVL67
 7925 059f A8000000 		.4byte	.LVL84
 7926 05a3 0100     		.2byte	0x1
 7927 05a5 58       		.byte	0x58
 7928 05a6 00000000 		.4byte	0
 7929 05aa 00000000 		.4byte	0
 7930              	.LLST24:
 7931 05ae 7C000000 		.4byte	.LVL74
 7932 05b2 80000000 		.4byte	.LVL76
 7933 05b6 0100     		.2byte	0x1
 7934 05b8 53       		.byte	0x53
 7935 05b9 80000000 		.4byte	.LVL76
 7936 05bd 82000000 		.4byte	.LVL77
 7937 05c1 0200     		.2byte	0x2
 7938 05c3 77       		.byte	0x77
 7939 05c4 04       		.sleb128 4
 7940 05c5 82000000 		.4byte	.LVL77
 7941 05c9 88000000 		.4byte	.LVL78
 7942 05cd 0100     		.2byte	0x1
 7943 05cf 55       		.byte	0x55
 7944 05d0 88000000 		.4byte	.LVL78
 7945 05d4 90000000 		.4byte	.LVL79
 7946 05d8 0300     		.2byte	0x3
 7947 05da 09       		.byte	0x9
 7948 05db AC       		.byte	0xac
 7949 05dc 9F       		.byte	0x9f
 7950 05dd 90000000 		.4byte	.LVL79
 7951 05e1 9C000000 		.4byte	.LVL82
 7952 05e5 0100     		.2byte	0x1
 7953 05e7 55       		.byte	0x55
 7954 05e8 00000000 		.4byte	0
 7955 05ec 00000000 		.4byte	0
 7956              	.LLST25:
 7957 05f0 7E000000 		.4byte	.LVL75
 7958 05f4 99000000 		.4byte	.LVL81-1
 7959 05f8 0100     		.2byte	0x1
ARM GAS  C:\Users\jesse\AppData\Local\Temp\cc6zNusR.s 			page 173


 7960 05fa 52       		.byte	0x52
 7961 05fb 00000000 		.4byte	0
 7962 05ff 00000000 		.4byte	0
 7963              	.LLST26:
 7964 0603 00000000 		.4byte	.LVL105
 7965 0607 21000000 		.4byte	.LVL108-1
 7966 060b 0100     		.2byte	0x1
 7967 060d 50       		.byte	0x50
 7968 060e 21000000 		.4byte	.LVL108-1
 7969 0612 A8000000 		.4byte	.LVL130
 7970 0616 0100     		.2byte	0x1
 7971 0618 54       		.byte	0x54
 7972 0619 A8000000 		.4byte	.LVL130
 7973 061d AD000000 		.4byte	.LVL131-1
 7974 0621 0100     		.2byte	0x1
 7975 0623 50       		.byte	0x50
 7976 0624 AD000000 		.4byte	.LVL131-1
 7977 0628 B0000000 		.4byte	.LVL132
 7978 062c 0100     		.2byte	0x1
 7979 062e 54       		.byte	0x54
 7980 062f B0000000 		.4byte	.LVL132
 7981 0633 B3000000 		.4byte	.LVL133-1
 7982 0637 0100     		.2byte	0x1
 7983 0639 50       		.byte	0x50
 7984 063a B3000000 		.4byte	.LVL133-1
 7985 063e B8000000 		.4byte	.LVL134
 7986 0642 0100     		.2byte	0x1
 7987 0644 54       		.byte	0x54
 7988 0645 B8000000 		.4byte	.LVL134
 7989 0649 C0000000 		.4byte	.LVL135
 7990 064d 0100     		.2byte	0x1
 7991 064f 50       		.byte	0x50
 7992 0650 C0000000 		.4byte	.LVL135
 7993 0654 C8000000 		.4byte	.LVL137
 7994 0658 0100     		.2byte	0x1
 7995 065a 54       		.byte	0x54
 7996 065b C8000000 		.4byte	.LVL137
 7997 065f CF000000 		.4byte	.LVL138-1
 7998 0663 0100     		.2byte	0x1
 7999 0665 50       		.byte	0x50
 8000 0666 CF000000 		.4byte	.LVL138-1
 8001 066a D6000000 		.4byte	.LVL139
 8002 066e 0100     		.2byte	0x1
 8003 0670 54       		.byte	0x54
 8004 0671 D6000000 		.4byte	.LVL139
 8005 0675 DB000000 		.4byte	.LVL140-1
 8006 0679 0100     		.2byte	0x1
 8007 067b 50       		.byte	0x50
 8008 067c DB000000 		.4byte	.LVL140-1
 8009 0680 E6000000 		.4byte	.LVL141
 8010 0684 0100     		.2byte	0x1
 8011 0686 54       		.byte	0x54
 8012 0687 E6000000 		.4byte	.LVL141
 8013 068b E9000000 		.4byte	.LVL142-1
 8014 068f 0100     		.2byte	0x1
 8015 0691 50       		.byte	0x50
 8016 0692 E9000000 		.4byte	.LVL142-1
ARM GAS  C:\Users\jesse\AppData\Local\Temp\cc6zNusR.s 			page 174


 8017 0696 1A010000 		.4byte	.LVL148
 8018 069a 0100     		.2byte	0x1
 8019 069c 54       		.byte	0x54
 8020 069d 1A010000 		.4byte	.LVL148
 8021 06a1 1C010000 		.4byte	.LVL149
 8022 06a5 0100     		.2byte	0x1
 8023 06a7 50       		.byte	0x50
 8024 06a8 1C010000 		.4byte	.LVL149
 8025 06ac 20010000 		.4byte	.LVL150
 8026 06b0 0100     		.2byte	0x1
 8027 06b2 54       		.byte	0x54
 8028 06b3 20010000 		.4byte	.LVL150
 8029 06b7 38010000 		.4byte	.LFE5
 8030 06bb 0400     		.2byte	0x4
 8031 06bd F3       		.byte	0xf3
 8032 06be 01       		.uleb128 0x1
 8033 06bf 50       		.byte	0x50
 8034 06c0 9F       		.byte	0x9f
 8035 06c1 00000000 		.4byte	0
 8036 06c5 00000000 		.4byte	0
 8037              	.LLST27:
 8038 06c9 00000000 		.4byte	.LVL105
 8039 06cd 02000000 		.4byte	.LVL106
 8040 06d1 0100     		.2byte	0x1
 8041 06d3 51       		.byte	0x51
 8042 06d4 02000000 		.4byte	.LVL106
 8043 06d8 38010000 		.4byte	.LFE5
 8044 06dc 0400     		.2byte	0x4
 8045 06de F3       		.byte	0xf3
 8046 06df 01       		.uleb128 0x1
 8047 06e0 51       		.byte	0x51
 8048 06e1 9F       		.byte	0x9f
 8049 06e2 00000000 		.4byte	0
 8050 06e6 00000000 		.4byte	0
 8051              	.LLST28:
 8052 06ea 00000000 		.4byte	.LVL105
 8053 06ee 21000000 		.4byte	.LVL108-1
 8054 06f2 0100     		.2byte	0x1
 8055 06f4 52       		.byte	0x52
 8056 06f5 21000000 		.4byte	.LVL108-1
 8057 06f9 7A000000 		.4byte	.LVL119
 8058 06fd 0400     		.2byte	0x4
 8059 06ff F3       		.byte	0xf3
 8060 0700 01       		.uleb128 0x1
 8061 0701 52       		.byte	0x52
 8062 0702 9F       		.byte	0x9f
 8063 0703 7A000000 		.4byte	.LVL119
 8064 0707 96000000 		.4byte	.LVL126
 8065 070b 0100     		.2byte	0x1
 8066 070d 56       		.byte	0x56
 8067 070e A8000000 		.4byte	.LVL130
 8068 0712 AD000000 		.4byte	.LVL131-1
 8069 0716 0100     		.2byte	0x1
 8070 0718 52       		.byte	0x52
 8071 0719 AD000000 		.4byte	.LVL131-1
 8072 071d B0000000 		.4byte	.LVL132
 8073 0721 0400     		.2byte	0x4
ARM GAS  C:\Users\jesse\AppData\Local\Temp\cc6zNusR.s 			page 175


 8074 0723 F3       		.byte	0xf3
 8075 0724 01       		.uleb128 0x1
 8076 0725 52       		.byte	0x52
 8077 0726 9F       		.byte	0x9f
 8078 0727 B0000000 		.4byte	.LVL132
 8079 072b B3000000 		.4byte	.LVL133-1
 8080 072f 0100     		.2byte	0x1
 8081 0731 52       		.byte	0x52
 8082 0732 B3000000 		.4byte	.LVL133-1
 8083 0736 B8000000 		.4byte	.LVL134
 8084 073a 0400     		.2byte	0x4
 8085 073c F3       		.byte	0xf3
 8086 073d 01       		.uleb128 0x1
 8087 073e 52       		.byte	0x52
 8088 073f 9F       		.byte	0x9f
 8089 0740 B8000000 		.4byte	.LVL134
 8090 0744 C0000000 		.4byte	.LVL135
 8091 0748 0100     		.2byte	0x1
 8092 074a 52       		.byte	0x52
 8093 074b C0000000 		.4byte	.LVL135
 8094 074f C8000000 		.4byte	.LVL137
 8095 0753 0400     		.2byte	0x4
 8096 0755 F3       		.byte	0xf3
 8097 0756 01       		.uleb128 0x1
 8098 0757 52       		.byte	0x52
 8099 0758 9F       		.byte	0x9f
 8100 0759 C8000000 		.4byte	.LVL137
 8101 075d CF000000 		.4byte	.LVL138-1
 8102 0761 0100     		.2byte	0x1
 8103 0763 52       		.byte	0x52
 8104 0764 CF000000 		.4byte	.LVL138-1
 8105 0768 D6000000 		.4byte	.LVL139
 8106 076c 0400     		.2byte	0x4
 8107 076e F3       		.byte	0xf3
 8108 076f 01       		.uleb128 0x1
 8109 0770 52       		.byte	0x52
 8110 0771 9F       		.byte	0x9f
 8111 0772 D6000000 		.4byte	.LVL139
 8112 0776 DB000000 		.4byte	.LVL140-1
 8113 077a 0100     		.2byte	0x1
 8114 077c 52       		.byte	0x52
 8115 077d DB000000 		.4byte	.LVL140-1
 8116 0781 E6000000 		.4byte	.LVL141
 8117 0785 0400     		.2byte	0x4
 8118 0787 F3       		.byte	0xf3
 8119 0788 01       		.uleb128 0x1
 8120 0789 52       		.byte	0x52
 8121 078a 9F       		.byte	0x9f
 8122 078b E6000000 		.4byte	.LVL141
 8123 078f E9000000 		.4byte	.LVL142-1
 8124 0793 0100     		.2byte	0x1
 8125 0795 52       		.byte	0x52
 8126 0796 E9000000 		.4byte	.LVL142-1
 8127 079a 0E010000 		.4byte	.LVL146
 8128 079e 0400     		.2byte	0x4
 8129 07a0 F3       		.byte	0xf3
 8130 07a1 01       		.uleb128 0x1
ARM GAS  C:\Users\jesse\AppData\Local\Temp\cc6zNusR.s 			page 176


 8131 07a2 52       		.byte	0x52
 8132 07a3 9F       		.byte	0x9f
 8133 07a4 1A010000 		.4byte	.LVL148
 8134 07a8 38010000 		.4byte	.LFE5
 8135 07ac 0100     		.2byte	0x1
 8136 07ae 52       		.byte	0x52
 8137 07af 00000000 		.4byte	0
 8138 07b3 00000000 		.4byte	0
 8139              	.LLST29:
 8140 07b7 00000000 		.4byte	.LVL105
 8141 07bb 16000000 		.4byte	.LVL107
 8142 07bf 0100     		.2byte	0x1
 8143 07c1 53       		.byte	0x53
 8144 07c2 16000000 		.4byte	.LVL107
 8145 07c6 20010000 		.4byte	.LVL150
 8146 07ca 0100     		.2byte	0x1
 8147 07cc 57       		.byte	0x57
 8148 07cd 20010000 		.4byte	.LVL150
 8149 07d1 38010000 		.4byte	.LFE5
 8150 07d5 0400     		.2byte	0x4
 8151 07d7 F3       		.byte	0xf3
 8152 07d8 01       		.uleb128 0x1
 8153 07d9 53       		.byte	0x53
 8154 07da 9F       		.byte	0x9f
 8155 07db 00000000 		.4byte	0
 8156 07df 00000000 		.4byte	0
 8157              	.LLST30:
 8158 07e3 28000000 		.4byte	.LVL109
 8159 07e7 3A000000 		.4byte	.LVL112
 8160 07eb 0100     		.2byte	0x1
 8161 07ed 55       		.byte	0x55
 8162 07ee 3E000000 		.4byte	.LVL113
 8163 07f2 A8000000 		.4byte	.LVL130
 8164 07f6 0100     		.2byte	0x1
 8165 07f8 58       		.byte	0x58
 8166 07f9 00000000 		.4byte	0
 8167 07fd 00000000 		.4byte	0
 8168              	.LLST31:
 8169 0801 7C000000 		.4byte	.LVL120
 8170 0805 80000000 		.4byte	.LVL122
 8171 0809 0100     		.2byte	0x1
 8172 080b 53       		.byte	0x53
 8173 080c 80000000 		.4byte	.LVL122
 8174 0810 82000000 		.4byte	.LVL123
 8175 0814 0200     		.2byte	0x2
 8176 0816 77       		.byte	0x77
 8177 0817 04       		.sleb128 4
 8178 0818 82000000 		.4byte	.LVL123
 8179 081c 88000000 		.4byte	.LVL124
 8180 0820 0100     		.2byte	0x1
 8181 0822 55       		.byte	0x55
 8182 0823 88000000 		.4byte	.LVL124
 8183 0827 90000000 		.4byte	.LVL125
 8184 082b 0300     		.2byte	0x3
 8185 082d 09       		.byte	0x9
 8186 082e F0       		.byte	0xf0
 8187 082f 9F       		.byte	0x9f
ARM GAS  C:\Users\jesse\AppData\Local\Temp\cc6zNusR.s 			page 177


 8188 0830 90000000 		.4byte	.LVL125
 8189 0834 9C000000 		.4byte	.LVL128
 8190 0838 0100     		.2byte	0x1
 8191 083a 55       		.byte	0x55
 8192 083b 00000000 		.4byte	0
 8193 083f 00000000 		.4byte	0
 8194              	.LLST32:
 8195 0843 7E000000 		.4byte	.LVL121
 8196 0847 99000000 		.4byte	.LVL127-1
 8197 084b 0100     		.2byte	0x1
 8198 084d 52       		.byte	0x52
 8199 084e 00000000 		.4byte	0
 8200 0852 00000000 		.4byte	0
 8201              	.LLST33:
 8202 0856 00000000 		.4byte	.LVL151
 8203 085a 21000000 		.4byte	.LVL154-1
 8204 085e 0100     		.2byte	0x1
 8205 0860 50       		.byte	0x50
 8206 0861 21000000 		.4byte	.LVL154-1
 8207 0865 B2000000 		.4byte	.LVL175
 8208 0869 0100     		.2byte	0x1
 8209 086b 54       		.byte	0x54
 8210 086c B2000000 		.4byte	.LVL175
 8211 0870 B7000000 		.4byte	.LVL176-1
 8212 0874 0100     		.2byte	0x1
 8213 0876 50       		.byte	0x50
 8214 0877 B7000000 		.4byte	.LVL176-1
 8215 087b BA000000 		.4byte	.LVL177
 8216 087f 0100     		.2byte	0x1
 8217 0881 54       		.byte	0x54
 8218 0882 BA000000 		.4byte	.LVL177
 8219 0886 BD000000 		.4byte	.LVL178-1
 8220 088a 0100     		.2byte	0x1
 8221 088c 50       		.byte	0x50
 8222 088d BD000000 		.4byte	.LVL178-1
 8223 0891 C2000000 		.4byte	.LVL179
 8224 0895 0100     		.2byte	0x1
 8225 0897 54       		.byte	0x54
 8226 0898 C2000000 		.4byte	.LVL179
 8227 089c CA000000 		.4byte	.LVL180
 8228 08a0 0100     		.2byte	0x1
 8229 08a2 50       		.byte	0x50
 8230 08a3 CA000000 		.4byte	.LVL180
 8231 08a7 D2000000 		.4byte	.LVL182
 8232 08ab 0100     		.2byte	0x1
 8233 08ad 54       		.byte	0x54
 8234 08ae D2000000 		.4byte	.LVL182
 8235 08b2 D9000000 		.4byte	.LVL183-1
 8236 08b6 0100     		.2byte	0x1
 8237 08b8 50       		.byte	0x50
 8238 08b9 D9000000 		.4byte	.LVL183-1
 8239 08bd E0000000 		.4byte	.LVL184
 8240 08c1 0100     		.2byte	0x1
 8241 08c3 54       		.byte	0x54
 8242 08c4 E0000000 		.4byte	.LVL184
 8243 08c8 E5000000 		.4byte	.LVL185-1
 8244 08cc 0100     		.2byte	0x1
ARM GAS  C:\Users\jesse\AppData\Local\Temp\cc6zNusR.s 			page 178


 8245 08ce 50       		.byte	0x50
 8246 08cf E5000000 		.4byte	.LVL185-1
 8247 08d3 F0000000 		.4byte	.LVL186
 8248 08d7 0100     		.2byte	0x1
 8249 08d9 54       		.byte	0x54
 8250 08da F0000000 		.4byte	.LVL186
 8251 08de F3000000 		.4byte	.LVL187-1
 8252 08e2 0100     		.2byte	0x1
 8253 08e4 50       		.byte	0x50
 8254 08e5 F3000000 		.4byte	.LVL187-1
 8255 08e9 24010000 		.4byte	.LVL193
 8256 08ed 0100     		.2byte	0x1
 8257 08ef 54       		.byte	0x54
 8258 08f0 24010000 		.4byte	.LVL193
 8259 08f4 26010000 		.4byte	.LVL194
 8260 08f8 0100     		.2byte	0x1
 8261 08fa 50       		.byte	0x50
 8262 08fb 26010000 		.4byte	.LVL194
 8263 08ff 2A010000 		.4byte	.LVL195
 8264 0903 0100     		.2byte	0x1
 8265 0905 54       		.byte	0x54
 8266 0906 2A010000 		.4byte	.LVL195
 8267 090a 44010000 		.4byte	.LFE6
 8268 090e 0400     		.2byte	0x4
 8269 0910 F3       		.byte	0xf3
 8270 0911 01       		.uleb128 0x1
 8271 0912 50       		.byte	0x50
 8272 0913 9F       		.byte	0x9f
 8273 0914 00000000 		.4byte	0
 8274 0918 00000000 		.4byte	0
 8275              	.LLST34:
 8276 091c 00000000 		.4byte	.LVL151
 8277 0920 02000000 		.4byte	.LVL152
 8278 0924 0100     		.2byte	0x1
 8279 0926 51       		.byte	0x51
 8280 0927 02000000 		.4byte	.LVL152
 8281 092b 44010000 		.4byte	.LFE6
 8282 092f 0400     		.2byte	0x4
 8283 0931 F3       		.byte	0xf3
 8284 0932 01       		.uleb128 0x1
 8285 0933 51       		.byte	0x51
 8286 0934 9F       		.byte	0x9f
 8287 0935 00000000 		.4byte	0
 8288 0939 00000000 		.4byte	0
 8289              	.LLST35:
 8290 093d 00000000 		.4byte	.LVL151
 8291 0941 21000000 		.4byte	.LVL154-1
 8292 0945 0100     		.2byte	0x1
 8293 0947 52       		.byte	0x52
 8294 0948 21000000 		.4byte	.LVL154-1
 8295 094c 7E000000 		.4byte	.LVL165
 8296 0950 0400     		.2byte	0x4
 8297 0952 F3       		.byte	0xf3
 8298 0953 01       		.uleb128 0x1
 8299 0954 52       		.byte	0x52
 8300 0955 9F       		.byte	0x9f
 8301 0956 7E000000 		.4byte	.LVL165
ARM GAS  C:\Users\jesse\AppData\Local\Temp\cc6zNusR.s 			page 179


 8302 095a A6000000 		.4byte	.LVL172
 8303 095e 0100     		.2byte	0x1
 8304 0960 55       		.byte	0x55
 8305 0961 AA000000 		.4byte	.LVL173
 8306 0965 AE000000 		.4byte	.LVL174
 8307 0969 0100     		.2byte	0x1
 8308 096b 55       		.byte	0x55
 8309 096c B2000000 		.4byte	.LVL175
 8310 0970 B7000000 		.4byte	.LVL176-1
 8311 0974 0100     		.2byte	0x1
 8312 0976 52       		.byte	0x52
 8313 0977 B7000000 		.4byte	.LVL176-1
 8314 097b BA000000 		.4byte	.LVL177
 8315 097f 0400     		.2byte	0x4
 8316 0981 F3       		.byte	0xf3
 8317 0982 01       		.uleb128 0x1
 8318 0983 52       		.byte	0x52
 8319 0984 9F       		.byte	0x9f
 8320 0985 BA000000 		.4byte	.LVL177
 8321 0989 BD000000 		.4byte	.LVL178-1
 8322 098d 0100     		.2byte	0x1
 8323 098f 52       		.byte	0x52
 8324 0990 BD000000 		.4byte	.LVL178-1
 8325 0994 C2000000 		.4byte	.LVL179
 8326 0998 0400     		.2byte	0x4
 8327 099a F3       		.byte	0xf3
 8328 099b 01       		.uleb128 0x1
 8329 099c 52       		.byte	0x52
 8330 099d 9F       		.byte	0x9f
 8331 099e C2000000 		.4byte	.LVL179
 8332 09a2 CA000000 		.4byte	.LVL180
 8333 09a6 0100     		.2byte	0x1
 8334 09a8 52       		.byte	0x52
 8335 09a9 CA000000 		.4byte	.LVL180
 8336 09ad D2000000 		.4byte	.LVL182
 8337 09b1 0400     		.2byte	0x4
 8338 09b3 F3       		.byte	0xf3
 8339 09b4 01       		.uleb128 0x1
 8340 09b5 52       		.byte	0x52
 8341 09b6 9F       		.byte	0x9f
 8342 09b7 D2000000 		.4byte	.LVL182
 8343 09bb D9000000 		.4byte	.LVL183-1
 8344 09bf 0100     		.2byte	0x1
 8345 09c1 52       		.byte	0x52
 8346 09c2 D9000000 		.4byte	.LVL183-1
 8347 09c6 E0000000 		.4byte	.LVL184
 8348 09ca 0400     		.2byte	0x4
 8349 09cc F3       		.byte	0xf3
 8350 09cd 01       		.uleb128 0x1
 8351 09ce 52       		.byte	0x52
 8352 09cf 9F       		.byte	0x9f
 8353 09d0 E0000000 		.4byte	.LVL184
 8354 09d4 E5000000 		.4byte	.LVL185-1
 8355 09d8 0100     		.2byte	0x1
 8356 09da 52       		.byte	0x52
 8357 09db E5000000 		.4byte	.LVL185-1
 8358 09df F0000000 		.4byte	.LVL186
ARM GAS  C:\Users\jesse\AppData\Local\Temp\cc6zNusR.s 			page 180


 8359 09e3 0400     		.2byte	0x4
 8360 09e5 F3       		.byte	0xf3
 8361 09e6 01       		.uleb128 0x1
 8362 09e7 52       		.byte	0x52
 8363 09e8 9F       		.byte	0x9f
 8364 09e9 F0000000 		.4byte	.LVL186
 8365 09ed F3000000 		.4byte	.LVL187-1
 8366 09f1 0100     		.2byte	0x1
 8367 09f3 52       		.byte	0x52
 8368 09f4 F3000000 		.4byte	.LVL187-1
 8369 09f8 18010000 		.4byte	.LVL191
 8370 09fc 0400     		.2byte	0x4
 8371 09fe F3       		.byte	0xf3
 8372 09ff 01       		.uleb128 0x1
 8373 0a00 52       		.byte	0x52
 8374 0a01 9F       		.byte	0x9f
 8375 0a02 24010000 		.4byte	.LVL193
 8376 0a06 44010000 		.4byte	.LFE6
 8377 0a0a 0100     		.2byte	0x1
 8378 0a0c 52       		.byte	0x52
 8379 0a0d 00000000 		.4byte	0
 8380 0a11 00000000 		.4byte	0
 8381              	.LLST36:
 8382 0a15 00000000 		.4byte	.LVL151
 8383 0a19 16000000 		.4byte	.LVL153
 8384 0a1d 0100     		.2byte	0x1
 8385 0a1f 53       		.byte	0x53
 8386 0a20 16000000 		.4byte	.LVL153
 8387 0a24 2A010000 		.4byte	.LVL195
 8388 0a28 0100     		.2byte	0x1
 8389 0a2a 58       		.byte	0x58
 8390 0a2b 2A010000 		.4byte	.LVL195
 8391 0a2f 44010000 		.4byte	.LFE6
 8392 0a33 0400     		.2byte	0x4
 8393 0a35 F3       		.byte	0xf3
 8394 0a36 01       		.uleb128 0x1
 8395 0a37 53       		.byte	0x53
 8396 0a38 9F       		.byte	0x9f
 8397 0a39 00000000 		.4byte	0
 8398 0a3d 00000000 		.4byte	0
 8399              	.LLST37:
 8400 0a41 2A000000 		.4byte	.LVL155
 8401 0a45 60000000 		.4byte	.LVL161
 8402 0a49 0100     		.2byte	0x1
 8403 0a4b 56       		.byte	0x56
 8404 0a4c 64000000 		.4byte	.LVL162
 8405 0a50 7E000000 		.4byte	.LVL165
 8406 0a54 0100     		.2byte	0x1
 8407 0a56 56       		.byte	0x56
 8408 0a57 00000000 		.4byte	0
 8409 0a5b 00000000 		.4byte	0
 8410              	.LLST38:
 8411 0a5f 82000000 		.4byte	.LVL166
 8412 0a63 96000000 		.4byte	.LVL169
 8413 0a67 0100     		.2byte	0x1
 8414 0a69 56       		.byte	0x56
 8415 0a6a 96000000 		.4byte	.LVL169
ARM GAS  C:\Users\jesse\AppData\Local\Temp\cc6zNusR.s 			page 181


 8416 0a6e 9A000000 		.4byte	.LVL171
 8417 0a72 0300     		.2byte	0x3
 8418 0a74 76       		.byte	0x76
 8419 0a75 1F       		.sleb128 31
 8420 0a76 9F       		.byte	0x9f
 8421 0a77 9A000000 		.4byte	.LVL171
 8422 0a7b B2000000 		.4byte	.LVL175
 8423 0a7f 0100     		.2byte	0x1
 8424 0a81 56       		.byte	0x56
 8425 0a82 00000000 		.4byte	0
 8426 0a86 00000000 		.4byte	0
 8427              	.LLST39:
 8428 0a8a 86000000 		.4byte	.LVL167
 8429 0a8e B2000000 		.4byte	.LVL175
 8430 0a92 0100     		.2byte	0x1
 8431 0a94 57       		.byte	0x57
 8432 0a95 00000000 		.4byte	0
 8433 0a99 00000000 		.4byte	0
 8434              	.LLST40:
 8435 0a9d 00000000 		.4byte	.LVL196
 8436 0aa1 21000000 		.4byte	.LVL199-1
 8437 0aa5 0100     		.2byte	0x1
 8438 0aa7 50       		.byte	0x50
 8439 0aa8 21000000 		.4byte	.LVL199-1
 8440 0aac B2000000 		.4byte	.LVL220
 8441 0ab0 0100     		.2byte	0x1
 8442 0ab2 54       		.byte	0x54
 8443 0ab3 B2000000 		.4byte	.LVL220
 8444 0ab7 B7000000 		.4byte	.LVL221-1
 8445 0abb 0100     		.2byte	0x1
 8446 0abd 50       		.byte	0x50
 8447 0abe B7000000 		.4byte	.LVL221-1
 8448 0ac2 BA000000 		.4byte	.LVL222
 8449 0ac6 0100     		.2byte	0x1
 8450 0ac8 54       		.byte	0x54
 8451 0ac9 BA000000 		.4byte	.LVL222
 8452 0acd BD000000 		.4byte	.LVL223-1
 8453 0ad1 0100     		.2byte	0x1
 8454 0ad3 50       		.byte	0x50
 8455 0ad4 BD000000 		.4byte	.LVL223-1
 8456 0ad8 C2000000 		.4byte	.LVL224
 8457 0adc 0100     		.2byte	0x1
 8458 0ade 54       		.byte	0x54
 8459 0adf C2000000 		.4byte	.LVL224
 8460 0ae3 CA000000 		.4byte	.LVL225
 8461 0ae7 0100     		.2byte	0x1
 8462 0ae9 50       		.byte	0x50
 8463 0aea CA000000 		.4byte	.LVL225
 8464 0aee D2000000 		.4byte	.LVL227
 8465 0af2 0100     		.2byte	0x1
 8466 0af4 54       		.byte	0x54
 8467 0af5 D2000000 		.4byte	.LVL227
 8468 0af9 D9000000 		.4byte	.LVL228-1
 8469 0afd 0100     		.2byte	0x1
 8470 0aff 50       		.byte	0x50
 8471 0b00 D9000000 		.4byte	.LVL228-1
 8472 0b04 E0000000 		.4byte	.LVL229
ARM GAS  C:\Users\jesse\AppData\Local\Temp\cc6zNusR.s 			page 182


 8473 0b08 0100     		.2byte	0x1
 8474 0b0a 54       		.byte	0x54
 8475 0b0b E0000000 		.4byte	.LVL229
 8476 0b0f E5000000 		.4byte	.LVL230-1
 8477 0b13 0100     		.2byte	0x1
 8478 0b15 50       		.byte	0x50
 8479 0b16 E5000000 		.4byte	.LVL230-1
 8480 0b1a F0000000 		.4byte	.LVL231
 8481 0b1e 0100     		.2byte	0x1
 8482 0b20 54       		.byte	0x54
 8483 0b21 F0000000 		.4byte	.LVL231
 8484 0b25 F3000000 		.4byte	.LVL232-1
 8485 0b29 0100     		.2byte	0x1
 8486 0b2b 50       		.byte	0x50
 8487 0b2c F3000000 		.4byte	.LVL232-1
 8488 0b30 24010000 		.4byte	.LVL238
 8489 0b34 0100     		.2byte	0x1
 8490 0b36 54       		.byte	0x54
 8491 0b37 24010000 		.4byte	.LVL238
 8492 0b3b 26010000 		.4byte	.LVL239
 8493 0b3f 0100     		.2byte	0x1
 8494 0b41 50       		.byte	0x50
 8495 0b42 26010000 		.4byte	.LVL239
 8496 0b46 2A010000 		.4byte	.LVL240
 8497 0b4a 0100     		.2byte	0x1
 8498 0b4c 54       		.byte	0x54
 8499 0b4d 2A010000 		.4byte	.LVL240
 8500 0b51 44010000 		.4byte	.LFE7
 8501 0b55 0400     		.2byte	0x4
 8502 0b57 F3       		.byte	0xf3
 8503 0b58 01       		.uleb128 0x1
 8504 0b59 50       		.byte	0x50
 8505 0b5a 9F       		.byte	0x9f
 8506 0b5b 00000000 		.4byte	0
 8507 0b5f 00000000 		.4byte	0
 8508              	.LLST41:
 8509 0b63 00000000 		.4byte	.LVL196
 8510 0b67 02000000 		.4byte	.LVL197
 8511 0b6b 0100     		.2byte	0x1
 8512 0b6d 51       		.byte	0x51
 8513 0b6e 02000000 		.4byte	.LVL197
 8514 0b72 44010000 		.4byte	.LFE7
 8515 0b76 0400     		.2byte	0x4
 8516 0b78 F3       		.byte	0xf3
 8517 0b79 01       		.uleb128 0x1
 8518 0b7a 51       		.byte	0x51
 8519 0b7b 9F       		.byte	0x9f
 8520 0b7c 00000000 		.4byte	0
 8521 0b80 00000000 		.4byte	0
 8522              	.LLST42:
 8523 0b84 00000000 		.4byte	.LVL196
 8524 0b88 21000000 		.4byte	.LVL199-1
 8525 0b8c 0100     		.2byte	0x1
 8526 0b8e 52       		.byte	0x52
 8527 0b8f 21000000 		.4byte	.LVL199-1
 8528 0b93 7E000000 		.4byte	.LVL210
 8529 0b97 0400     		.2byte	0x4
ARM GAS  C:\Users\jesse\AppData\Local\Temp\cc6zNusR.s 			page 183


 8530 0b99 F3       		.byte	0xf3
 8531 0b9a 01       		.uleb128 0x1
 8532 0b9b 52       		.byte	0x52
 8533 0b9c 9F       		.byte	0x9f
 8534 0b9d 7E000000 		.4byte	.LVL210
 8535 0ba1 A6000000 		.4byte	.LVL217
 8536 0ba5 0100     		.2byte	0x1
 8537 0ba7 55       		.byte	0x55
 8538 0ba8 AA000000 		.4byte	.LVL218
 8539 0bac AE000000 		.4byte	.LVL219
 8540 0bb0 0100     		.2byte	0x1
 8541 0bb2 55       		.byte	0x55
 8542 0bb3 B2000000 		.4byte	.LVL220
 8543 0bb7 B7000000 		.4byte	.LVL221-1
 8544 0bbb 0100     		.2byte	0x1
 8545 0bbd 52       		.byte	0x52
 8546 0bbe B7000000 		.4byte	.LVL221-1
 8547 0bc2 BA000000 		.4byte	.LVL222
 8548 0bc6 0400     		.2byte	0x4
 8549 0bc8 F3       		.byte	0xf3
 8550 0bc9 01       		.uleb128 0x1
 8551 0bca 52       		.byte	0x52
 8552 0bcb 9F       		.byte	0x9f
 8553 0bcc BA000000 		.4byte	.LVL222
 8554 0bd0 BD000000 		.4byte	.LVL223-1
 8555 0bd4 0100     		.2byte	0x1
 8556 0bd6 52       		.byte	0x52
 8557 0bd7 BD000000 		.4byte	.LVL223-1
 8558 0bdb C2000000 		.4byte	.LVL224
 8559 0bdf 0400     		.2byte	0x4
 8560 0be1 F3       		.byte	0xf3
 8561 0be2 01       		.uleb128 0x1
 8562 0be3 52       		.byte	0x52
 8563 0be4 9F       		.byte	0x9f
 8564 0be5 C2000000 		.4byte	.LVL224
 8565 0be9 CA000000 		.4byte	.LVL225
 8566 0bed 0100     		.2byte	0x1
 8567 0bef 52       		.byte	0x52
 8568 0bf0 CA000000 		.4byte	.LVL225
 8569 0bf4 D2000000 		.4byte	.LVL227
 8570 0bf8 0400     		.2byte	0x4
 8571 0bfa F3       		.byte	0xf3
 8572 0bfb 01       		.uleb128 0x1
 8573 0bfc 52       		.byte	0x52
 8574 0bfd 9F       		.byte	0x9f
 8575 0bfe D2000000 		.4byte	.LVL227
 8576 0c02 D9000000 		.4byte	.LVL228-1
 8577 0c06 0100     		.2byte	0x1
 8578 0c08 52       		.byte	0x52
 8579 0c09 D9000000 		.4byte	.LVL228-1
 8580 0c0d E0000000 		.4byte	.LVL229
 8581 0c11 0400     		.2byte	0x4
 8582 0c13 F3       		.byte	0xf3
 8583 0c14 01       		.uleb128 0x1
 8584 0c15 52       		.byte	0x52
 8585 0c16 9F       		.byte	0x9f
 8586 0c17 E0000000 		.4byte	.LVL229
ARM GAS  C:\Users\jesse\AppData\Local\Temp\cc6zNusR.s 			page 184


 8587 0c1b E5000000 		.4byte	.LVL230-1
 8588 0c1f 0100     		.2byte	0x1
 8589 0c21 52       		.byte	0x52
 8590 0c22 E5000000 		.4byte	.LVL230-1
 8591 0c26 F0000000 		.4byte	.LVL231
 8592 0c2a 0400     		.2byte	0x4
 8593 0c2c F3       		.byte	0xf3
 8594 0c2d 01       		.uleb128 0x1
 8595 0c2e 52       		.byte	0x52
 8596 0c2f 9F       		.byte	0x9f
 8597 0c30 F0000000 		.4byte	.LVL231
 8598 0c34 F3000000 		.4byte	.LVL232-1
 8599 0c38 0100     		.2byte	0x1
 8600 0c3a 52       		.byte	0x52
 8601 0c3b F3000000 		.4byte	.LVL232-1
 8602 0c3f 18010000 		.4byte	.LVL236
 8603 0c43 0400     		.2byte	0x4
 8604 0c45 F3       		.byte	0xf3
 8605 0c46 01       		.uleb128 0x1
 8606 0c47 52       		.byte	0x52
 8607 0c48 9F       		.byte	0x9f
 8608 0c49 24010000 		.4byte	.LVL238
 8609 0c4d 44010000 		.4byte	.LFE7
 8610 0c51 0100     		.2byte	0x1
 8611 0c53 52       		.byte	0x52
 8612 0c54 00000000 		.4byte	0
 8613 0c58 00000000 		.4byte	0
 8614              	.LLST43:
 8615 0c5c 00000000 		.4byte	.LVL196
 8616 0c60 16000000 		.4byte	.LVL198
 8617 0c64 0100     		.2byte	0x1
 8618 0c66 53       		.byte	0x53
 8619 0c67 16000000 		.4byte	.LVL198
 8620 0c6b 2A010000 		.4byte	.LVL240
 8621 0c6f 0100     		.2byte	0x1
 8622 0c71 58       		.byte	0x58
 8623 0c72 2A010000 		.4byte	.LVL240
 8624 0c76 44010000 		.4byte	.LFE7
 8625 0c7a 0400     		.2byte	0x4
 8626 0c7c F3       		.byte	0xf3
 8627 0c7d 01       		.uleb128 0x1
 8628 0c7e 53       		.byte	0x53
 8629 0c7f 9F       		.byte	0x9f
 8630 0c80 00000000 		.4byte	0
 8631 0c84 00000000 		.4byte	0
 8632              	.LLST44:
 8633 0c88 2A000000 		.4byte	.LVL200
 8634 0c8c 60000000 		.4byte	.LVL206
 8635 0c90 0100     		.2byte	0x1
 8636 0c92 56       		.byte	0x56
 8637 0c93 64000000 		.4byte	.LVL207
 8638 0c97 7E000000 		.4byte	.LVL210
 8639 0c9b 0100     		.2byte	0x1
 8640 0c9d 56       		.byte	0x56
 8641 0c9e 00000000 		.4byte	0
 8642 0ca2 00000000 		.4byte	0
 8643              	.LLST45:
ARM GAS  C:\Users\jesse\AppData\Local\Temp\cc6zNusR.s 			page 185


 8644 0ca6 82000000 		.4byte	.LVL211
 8645 0caa 96000000 		.4byte	.LVL214
 8646 0cae 0100     		.2byte	0x1
 8647 0cb0 56       		.byte	0x56
 8648 0cb1 96000000 		.4byte	.LVL214
 8649 0cb5 9A000000 		.4byte	.LVL216
 8650 0cb9 0300     		.2byte	0x3
 8651 0cbb 76       		.byte	0x76
 8652 0cbc 1F       		.sleb128 31
 8653 0cbd 9F       		.byte	0x9f
 8654 0cbe 9A000000 		.4byte	.LVL216
 8655 0cc2 B2000000 		.4byte	.LVL220
 8656 0cc6 0100     		.2byte	0x1
 8657 0cc8 56       		.byte	0x56
 8658 0cc9 00000000 		.4byte	0
 8659 0ccd 00000000 		.4byte	0
 8660              	.LLST46:
 8661 0cd1 86000000 		.4byte	.LVL212
 8662 0cd5 B2000000 		.4byte	.LVL220
 8663 0cd9 0100     		.2byte	0x1
 8664 0cdb 57       		.byte	0x57
 8665 0cdc 00000000 		.4byte	0
 8666 0ce0 00000000 		.4byte	0
 8667              	.LLST47:
 8668 0ce4 00000000 		.4byte	.LVL241
 8669 0ce8 21000000 		.4byte	.LVL244-1
 8670 0cec 0100     		.2byte	0x1
 8671 0cee 50       		.byte	0x50
 8672 0cef 21000000 		.4byte	.LVL244-1
 8673 0cf3 AC000000 		.4byte	.LVL265
 8674 0cf7 0100     		.2byte	0x1
 8675 0cf9 54       		.byte	0x54
 8676 0cfa AC000000 		.4byte	.LVL265
 8677 0cfe B1000000 		.4byte	.LVL266-1
 8678 0d02 0100     		.2byte	0x1
 8679 0d04 50       		.byte	0x50
 8680 0d05 B1000000 		.4byte	.LVL266-1
 8681 0d09 B4000000 		.4byte	.LVL267
 8682 0d0d 0100     		.2byte	0x1
 8683 0d0f 54       		.byte	0x54
 8684 0d10 B4000000 		.4byte	.LVL267
 8685 0d14 B7000000 		.4byte	.LVL268-1
 8686 0d18 0100     		.2byte	0x1
 8687 0d1a 50       		.byte	0x50
 8688 0d1b B7000000 		.4byte	.LVL268-1
 8689 0d1f BC000000 		.4byte	.LVL269
 8690 0d23 0100     		.2byte	0x1
 8691 0d25 54       		.byte	0x54
 8692 0d26 BC000000 		.4byte	.LVL269
 8693 0d2a C4000000 		.4byte	.LVL270
 8694 0d2e 0100     		.2byte	0x1
 8695 0d30 50       		.byte	0x50
 8696 0d31 C4000000 		.4byte	.LVL270
 8697 0d35 CC000000 		.4byte	.LVL272
 8698 0d39 0100     		.2byte	0x1
 8699 0d3b 54       		.byte	0x54
 8700 0d3c CC000000 		.4byte	.LVL272
ARM GAS  C:\Users\jesse\AppData\Local\Temp\cc6zNusR.s 			page 186


 8701 0d40 D3000000 		.4byte	.LVL273-1
 8702 0d44 0100     		.2byte	0x1
 8703 0d46 50       		.byte	0x50
 8704 0d47 D3000000 		.4byte	.LVL273-1
 8705 0d4b DA000000 		.4byte	.LVL274
 8706 0d4f 0100     		.2byte	0x1
 8707 0d51 54       		.byte	0x54
 8708 0d52 DA000000 		.4byte	.LVL274
 8709 0d56 DF000000 		.4byte	.LVL275-1
 8710 0d5a 0100     		.2byte	0x1
 8711 0d5c 50       		.byte	0x50
 8712 0d5d DF000000 		.4byte	.LVL275-1
 8713 0d61 EA000000 		.4byte	.LVL276
 8714 0d65 0100     		.2byte	0x1
 8715 0d67 54       		.byte	0x54
 8716 0d68 EA000000 		.4byte	.LVL276
 8717 0d6c ED000000 		.4byte	.LVL277-1
 8718 0d70 0100     		.2byte	0x1
 8719 0d72 50       		.byte	0x50
 8720 0d73 ED000000 		.4byte	.LVL277-1
 8721 0d77 1E010000 		.4byte	.LVL283
 8722 0d7b 0100     		.2byte	0x1
 8723 0d7d 54       		.byte	0x54
 8724 0d7e 1E010000 		.4byte	.LVL283
 8725 0d82 20010000 		.4byte	.LVL284
 8726 0d86 0100     		.2byte	0x1
 8727 0d88 50       		.byte	0x50
 8728 0d89 20010000 		.4byte	.LVL284
 8729 0d8d 24010000 		.4byte	.LVL285
 8730 0d91 0100     		.2byte	0x1
 8731 0d93 54       		.byte	0x54
 8732 0d94 24010000 		.4byte	.LVL285
 8733 0d98 3C010000 		.4byte	.LFE8
 8734 0d9c 0400     		.2byte	0x4
 8735 0d9e F3       		.byte	0xf3
 8736 0d9f 01       		.uleb128 0x1
 8737 0da0 50       		.byte	0x50
 8738 0da1 9F       		.byte	0x9f
 8739 0da2 00000000 		.4byte	0
 8740 0da6 00000000 		.4byte	0
 8741              	.LLST48:
 8742 0daa 00000000 		.4byte	.LVL241
 8743 0dae 02000000 		.4byte	.LVL242
 8744 0db2 0100     		.2byte	0x1
 8745 0db4 51       		.byte	0x51
 8746 0db5 02000000 		.4byte	.LVL242
 8747 0db9 3C010000 		.4byte	.LFE8
 8748 0dbd 0400     		.2byte	0x4
 8749 0dbf F3       		.byte	0xf3
 8750 0dc0 01       		.uleb128 0x1
 8751 0dc1 51       		.byte	0x51
 8752 0dc2 9F       		.byte	0x9f
 8753 0dc3 00000000 		.4byte	0
 8754 0dc7 00000000 		.4byte	0
 8755              	.LLST49:
 8756 0dcb 00000000 		.4byte	.LVL241
 8757 0dcf 21000000 		.4byte	.LVL244-1
ARM GAS  C:\Users\jesse\AppData\Local\Temp\cc6zNusR.s 			page 187


 8758 0dd3 0100     		.2byte	0x1
 8759 0dd5 52       		.byte	0x52
 8760 0dd6 21000000 		.4byte	.LVL244-1
 8761 0dda 78000000 		.4byte	.LVL255
 8762 0dde 0400     		.2byte	0x4
 8763 0de0 F3       		.byte	0xf3
 8764 0de1 01       		.uleb128 0x1
 8765 0de2 52       		.byte	0x52
 8766 0de3 9F       		.byte	0x9f
 8767 0de4 78000000 		.4byte	.LVL255
 8768 0de8 A0000000 		.4byte	.LVL262
 8769 0dec 0100     		.2byte	0x1
 8770 0dee 55       		.byte	0x55
 8771 0def A4000000 		.4byte	.LVL263
 8772 0df3 A8000000 		.4byte	.LVL264
 8773 0df7 0100     		.2byte	0x1
 8774 0df9 55       		.byte	0x55
 8775 0dfa AC000000 		.4byte	.LVL265
 8776 0dfe B1000000 		.4byte	.LVL266-1
 8777 0e02 0100     		.2byte	0x1
 8778 0e04 52       		.byte	0x52
 8779 0e05 B1000000 		.4byte	.LVL266-1
 8780 0e09 B4000000 		.4byte	.LVL267
 8781 0e0d 0400     		.2byte	0x4
 8782 0e0f F3       		.byte	0xf3
 8783 0e10 01       		.uleb128 0x1
 8784 0e11 52       		.byte	0x52
 8785 0e12 9F       		.byte	0x9f
 8786 0e13 B4000000 		.4byte	.LVL267
 8787 0e17 B7000000 		.4byte	.LVL268-1
 8788 0e1b 0100     		.2byte	0x1
 8789 0e1d 52       		.byte	0x52
 8790 0e1e B7000000 		.4byte	.LVL268-1
 8791 0e22 BC000000 		.4byte	.LVL269
 8792 0e26 0400     		.2byte	0x4
 8793 0e28 F3       		.byte	0xf3
 8794 0e29 01       		.uleb128 0x1
 8795 0e2a 52       		.byte	0x52
 8796 0e2b 9F       		.byte	0x9f
 8797 0e2c BC000000 		.4byte	.LVL269
 8798 0e30 C4000000 		.4byte	.LVL270
 8799 0e34 0100     		.2byte	0x1
 8800 0e36 52       		.byte	0x52
 8801 0e37 C4000000 		.4byte	.LVL270
 8802 0e3b CC000000 		.4byte	.LVL272
 8803 0e3f 0400     		.2byte	0x4
 8804 0e41 F3       		.byte	0xf3
 8805 0e42 01       		.uleb128 0x1
 8806 0e43 52       		.byte	0x52
 8807 0e44 9F       		.byte	0x9f
 8808 0e45 CC000000 		.4byte	.LVL272
 8809 0e49 D3000000 		.4byte	.LVL273-1
 8810 0e4d 0100     		.2byte	0x1
 8811 0e4f 52       		.byte	0x52
 8812 0e50 D3000000 		.4byte	.LVL273-1
 8813 0e54 DA000000 		.4byte	.LVL274
 8814 0e58 0400     		.2byte	0x4
ARM GAS  C:\Users\jesse\AppData\Local\Temp\cc6zNusR.s 			page 188


 8815 0e5a F3       		.byte	0xf3
 8816 0e5b 01       		.uleb128 0x1
 8817 0e5c 52       		.byte	0x52
 8818 0e5d 9F       		.byte	0x9f
 8819 0e5e DA000000 		.4byte	.LVL274
 8820 0e62 DF000000 		.4byte	.LVL275-1
 8821 0e66 0100     		.2byte	0x1
 8822 0e68 52       		.byte	0x52
 8823 0e69 DF000000 		.4byte	.LVL275-1
 8824 0e6d EA000000 		.4byte	.LVL276
 8825 0e71 0400     		.2byte	0x4
 8826 0e73 F3       		.byte	0xf3
 8827 0e74 01       		.uleb128 0x1
 8828 0e75 52       		.byte	0x52
 8829 0e76 9F       		.byte	0x9f
 8830 0e77 EA000000 		.4byte	.LVL276
 8831 0e7b ED000000 		.4byte	.LVL277-1
 8832 0e7f 0100     		.2byte	0x1
 8833 0e81 52       		.byte	0x52
 8834 0e82 ED000000 		.4byte	.LVL277-1
 8835 0e86 12010000 		.4byte	.LVL281
 8836 0e8a 0400     		.2byte	0x4
 8837 0e8c F3       		.byte	0xf3
 8838 0e8d 01       		.uleb128 0x1
 8839 0e8e 52       		.byte	0x52
 8840 0e8f 9F       		.byte	0x9f
 8841 0e90 1E010000 		.4byte	.LVL283
 8842 0e94 3C010000 		.4byte	.LFE8
 8843 0e98 0100     		.2byte	0x1
 8844 0e9a 52       		.byte	0x52
 8845 0e9b 00000000 		.4byte	0
 8846 0e9f 00000000 		.4byte	0
 8847              	.LLST50:
 8848 0ea3 00000000 		.4byte	.LVL241
 8849 0ea7 16000000 		.4byte	.LVL243
 8850 0eab 0100     		.2byte	0x1
 8851 0ead 53       		.byte	0x53
 8852 0eae 16000000 		.4byte	.LVL243
 8853 0eb2 24010000 		.4byte	.LVL285
 8854 0eb6 0100     		.2byte	0x1
 8855 0eb8 57       		.byte	0x57
 8856 0eb9 24010000 		.4byte	.LVL285
 8857 0ebd 3C010000 		.4byte	.LFE8
 8858 0ec1 0400     		.2byte	0x4
 8859 0ec3 F3       		.byte	0xf3
 8860 0ec4 01       		.uleb128 0x1
 8861 0ec5 53       		.byte	0x53
 8862 0ec6 9F       		.byte	0x9f
 8863 0ec7 00000000 		.4byte	0
 8864 0ecb 00000000 		.4byte	0
 8865              	.LLST51:
 8866 0ecf 28000000 		.4byte	.LVL245
 8867 0ed3 3A000000 		.4byte	.LVL248
 8868 0ed7 0100     		.2byte	0x1
 8869 0ed9 56       		.byte	0x56
 8870 0eda 3C000000 		.4byte	.LVL249
 8871 0ede 78000000 		.4byte	.LVL255
ARM GAS  C:\Users\jesse\AppData\Local\Temp\cc6zNusR.s 			page 189


 8872 0ee2 0100     		.2byte	0x1
 8873 0ee4 56       		.byte	0x56
 8874 0ee5 00000000 		.4byte	0
 8875 0ee9 00000000 		.4byte	0
 8876              	.LLST52:
 8877 0eed 7A000000 		.4byte	.LVL256
 8878 0ef1 8E000000 		.4byte	.LVL259
 8879 0ef5 0100     		.2byte	0x1
 8880 0ef7 56       		.byte	0x56
 8881 0ef8 8E000000 		.4byte	.LVL259
 8882 0efc 94000000 		.4byte	.LVL261
 8883 0f00 0300     		.2byte	0x3
 8884 0f02 76       		.byte	0x76
 8885 0f03 1F       		.sleb128 31
 8886 0f04 9F       		.byte	0x9f
 8887 0f05 94000000 		.4byte	.LVL261
 8888 0f09 AC000000 		.4byte	.LVL265
 8889 0f0d 0100     		.2byte	0x1
 8890 0f0f 56       		.byte	0x56
 8891 0f10 00000000 		.4byte	0
 8892 0f14 00000000 		.4byte	0
 8893              	.LLST53:
 8894 0f18 7E000000 		.4byte	.LVL257
 8895 0f1c AC000000 		.4byte	.LVL265
 8896 0f20 0100     		.2byte	0x1
 8897 0f22 58       		.byte	0x58
 8898 0f23 00000000 		.4byte	0
 8899 0f27 00000000 		.4byte	0
 8900              	.LLST54:
 8901 0f2b 00000000 		.4byte	.LVL286
 8902 0f2f 21000000 		.4byte	.LVL289-1
 8903 0f33 0100     		.2byte	0x1
 8904 0f35 50       		.byte	0x50
 8905 0f36 21000000 		.4byte	.LVL289-1
 8906 0f3a AC000000 		.4byte	.LVL311
 8907 0f3e 0100     		.2byte	0x1
 8908 0f40 54       		.byte	0x54
 8909 0f41 AC000000 		.4byte	.LVL311
 8910 0f45 B1000000 		.4byte	.LVL312-1
 8911 0f49 0100     		.2byte	0x1
 8912 0f4b 50       		.byte	0x50
 8913 0f4c B1000000 		.4byte	.LVL312-1
 8914 0f50 B4000000 		.4byte	.LVL313
 8915 0f54 0100     		.2byte	0x1
 8916 0f56 54       		.byte	0x54
 8917 0f57 B4000000 		.4byte	.LVL313
 8918 0f5b B7000000 		.4byte	.LVL314-1
 8919 0f5f 0100     		.2byte	0x1
 8920 0f61 50       		.byte	0x50
 8921 0f62 B7000000 		.4byte	.LVL314-1
 8922 0f66 BC000000 		.4byte	.LVL315
 8923 0f6a 0100     		.2byte	0x1
 8924 0f6c 54       		.byte	0x54
 8925 0f6d BC000000 		.4byte	.LVL315
 8926 0f71 C4000000 		.4byte	.LVL316
 8927 0f75 0100     		.2byte	0x1
 8928 0f77 50       		.byte	0x50
ARM GAS  C:\Users\jesse\AppData\Local\Temp\cc6zNusR.s 			page 190


 8929 0f78 C4000000 		.4byte	.LVL316
 8930 0f7c CC000000 		.4byte	.LVL318
 8931 0f80 0100     		.2byte	0x1
 8932 0f82 54       		.byte	0x54
 8933 0f83 CC000000 		.4byte	.LVL318
 8934 0f87 D3000000 		.4byte	.LVL319-1
 8935 0f8b 0100     		.2byte	0x1
 8936 0f8d 50       		.byte	0x50
 8937 0f8e D3000000 		.4byte	.LVL319-1
 8938 0f92 DA000000 		.4byte	.LVL320
 8939 0f96 0100     		.2byte	0x1
 8940 0f98 54       		.byte	0x54
 8941 0f99 DA000000 		.4byte	.LVL320
 8942 0f9d DF000000 		.4byte	.LVL321-1
 8943 0fa1 0100     		.2byte	0x1
 8944 0fa3 50       		.byte	0x50
 8945 0fa4 DF000000 		.4byte	.LVL321-1
 8946 0fa8 EA000000 		.4byte	.LVL322
 8947 0fac 0100     		.2byte	0x1
 8948 0fae 54       		.byte	0x54
 8949 0faf EA000000 		.4byte	.LVL322
 8950 0fb3 ED000000 		.4byte	.LVL323-1
 8951 0fb7 0100     		.2byte	0x1
 8952 0fb9 50       		.byte	0x50
 8953 0fba ED000000 		.4byte	.LVL323-1
 8954 0fbe 1E010000 		.4byte	.LVL329
 8955 0fc2 0100     		.2byte	0x1
 8956 0fc4 54       		.byte	0x54
 8957 0fc5 1E010000 		.4byte	.LVL329
 8958 0fc9 20010000 		.4byte	.LVL330
 8959 0fcd 0100     		.2byte	0x1
 8960 0fcf 50       		.byte	0x50
 8961 0fd0 20010000 		.4byte	.LVL330
 8962 0fd4 24010000 		.4byte	.LVL331
 8963 0fd8 0100     		.2byte	0x1
 8964 0fda 54       		.byte	0x54
 8965 0fdb 24010000 		.4byte	.LVL331
 8966 0fdf 3C010000 		.4byte	.LFE9
 8967 0fe3 0400     		.2byte	0x4
 8968 0fe5 F3       		.byte	0xf3
 8969 0fe6 01       		.uleb128 0x1
 8970 0fe7 50       		.byte	0x50
 8971 0fe8 9F       		.byte	0x9f
 8972 0fe9 00000000 		.4byte	0
 8973 0fed 00000000 		.4byte	0
 8974              	.LLST55:
 8975 0ff1 00000000 		.4byte	.LVL286
 8976 0ff5 02000000 		.4byte	.LVL287
 8977 0ff9 0100     		.2byte	0x1
 8978 0ffb 51       		.byte	0x51
 8979 0ffc 02000000 		.4byte	.LVL287
 8980 1000 3C010000 		.4byte	.LFE9
 8981 1004 0400     		.2byte	0x4
 8982 1006 F3       		.byte	0xf3
 8983 1007 01       		.uleb128 0x1
 8984 1008 51       		.byte	0x51
 8985 1009 9F       		.byte	0x9f
ARM GAS  C:\Users\jesse\AppData\Local\Temp\cc6zNusR.s 			page 191


 8986 100a 00000000 		.4byte	0
 8987 100e 00000000 		.4byte	0
 8988              	.LLST56:
 8989 1012 00000000 		.4byte	.LVL286
 8990 1016 21000000 		.4byte	.LVL289-1
 8991 101a 0100     		.2byte	0x1
 8992 101c 52       		.byte	0x52
 8993 101d 21000000 		.4byte	.LVL289-1
 8994 1021 7E000000 		.4byte	.LVL300
 8995 1025 0400     		.2byte	0x4
 8996 1027 F3       		.byte	0xf3
 8997 1028 01       		.uleb128 0x1
 8998 1029 52       		.byte	0x52
 8999 102a 9F       		.byte	0x9f
 9000 102b 7E000000 		.4byte	.LVL300
 9001 102f 9A000000 		.4byte	.LVL307
 9002 1033 0100     		.2byte	0x1
 9003 1035 56       		.byte	0x56
 9004 1036 AC000000 		.4byte	.LVL311
 9005 103a B1000000 		.4byte	.LVL312-1
 9006 103e 0100     		.2byte	0x1
 9007 1040 52       		.byte	0x52
 9008 1041 B1000000 		.4byte	.LVL312-1
 9009 1045 B4000000 		.4byte	.LVL313
 9010 1049 0400     		.2byte	0x4
 9011 104b F3       		.byte	0xf3
 9012 104c 01       		.uleb128 0x1
 9013 104d 52       		.byte	0x52
 9014 104e 9F       		.byte	0x9f
 9015 104f B4000000 		.4byte	.LVL313
 9016 1053 B7000000 		.4byte	.LVL314-1
 9017 1057 0100     		.2byte	0x1
 9018 1059 52       		.byte	0x52
 9019 105a B7000000 		.4byte	.LVL314-1
 9020 105e BC000000 		.4byte	.LVL315
 9021 1062 0400     		.2byte	0x4
 9022 1064 F3       		.byte	0xf3
 9023 1065 01       		.uleb128 0x1
 9024 1066 52       		.byte	0x52
 9025 1067 9F       		.byte	0x9f
 9026 1068 BC000000 		.4byte	.LVL315
 9027 106c C4000000 		.4byte	.LVL316
 9028 1070 0100     		.2byte	0x1
 9029 1072 52       		.byte	0x52
 9030 1073 C4000000 		.4byte	.LVL316
 9031 1077 CC000000 		.4byte	.LVL318
 9032 107b 0400     		.2byte	0x4
 9033 107d F3       		.byte	0xf3
 9034 107e 01       		.uleb128 0x1
 9035 107f 52       		.byte	0x52
 9036 1080 9F       		.byte	0x9f
 9037 1081 CC000000 		.4byte	.LVL318
 9038 1085 D3000000 		.4byte	.LVL319-1
 9039 1089 0100     		.2byte	0x1
 9040 108b 52       		.byte	0x52
 9041 108c D3000000 		.4byte	.LVL319-1
 9042 1090 DA000000 		.4byte	.LVL320
ARM GAS  C:\Users\jesse\AppData\Local\Temp\cc6zNusR.s 			page 192


 9043 1094 0400     		.2byte	0x4
 9044 1096 F3       		.byte	0xf3
 9045 1097 01       		.uleb128 0x1
 9046 1098 52       		.byte	0x52
 9047 1099 9F       		.byte	0x9f
 9048 109a DA000000 		.4byte	.LVL320
 9049 109e DF000000 		.4byte	.LVL321-1
 9050 10a2 0100     		.2byte	0x1
 9051 10a4 52       		.byte	0x52
 9052 10a5 DF000000 		.4byte	.LVL321-1
 9053 10a9 EA000000 		.4byte	.LVL322
 9054 10ad 0400     		.2byte	0x4
 9055 10af F3       		.byte	0xf3
 9056 10b0 01       		.uleb128 0x1
 9057 10b1 52       		.byte	0x52
 9058 10b2 9F       		.byte	0x9f
 9059 10b3 EA000000 		.4byte	.LVL322
 9060 10b7 ED000000 		.4byte	.LVL323-1
 9061 10bb 0100     		.2byte	0x1
 9062 10bd 52       		.byte	0x52
 9063 10be ED000000 		.4byte	.LVL323-1
 9064 10c2 12010000 		.4byte	.LVL327
 9065 10c6 0400     		.2byte	0x4
 9066 10c8 F3       		.byte	0xf3
 9067 10c9 01       		.uleb128 0x1
 9068 10ca 52       		.byte	0x52
 9069 10cb 9F       		.byte	0x9f
 9070 10cc 1E010000 		.4byte	.LVL329
 9071 10d0 3C010000 		.4byte	.LFE9
 9072 10d4 0100     		.2byte	0x1
 9073 10d6 52       		.byte	0x52
 9074 10d7 00000000 		.4byte	0
 9075 10db 00000000 		.4byte	0
 9076              	.LLST57:
 9077 10df 00000000 		.4byte	.LVL286
 9078 10e3 16000000 		.4byte	.LVL288
 9079 10e7 0100     		.2byte	0x1
 9080 10e9 53       		.byte	0x53
 9081 10ea 16000000 		.4byte	.LVL288
 9082 10ee 24010000 		.4byte	.LVL331
 9083 10f2 0100     		.2byte	0x1
 9084 10f4 57       		.byte	0x57
 9085 10f5 24010000 		.4byte	.LVL331
 9086 10f9 3C010000 		.4byte	.LFE9
 9087 10fd 0400     		.2byte	0x4
 9088 10ff F3       		.byte	0xf3
 9089 1100 01       		.uleb128 0x1
 9090 1101 53       		.byte	0x53
 9091 1102 9F       		.byte	0x9f
 9092 1103 00000000 		.4byte	0
 9093 1107 00000000 		.4byte	0
 9094              	.LLST58:
 9095 110b 28000000 		.4byte	.LVL290
 9096 110f 3A000000 		.4byte	.LVL293
 9097 1113 0100     		.2byte	0x1
 9098 1115 55       		.byte	0x55
 9099 1116 3E000000 		.4byte	.LVL294
ARM GAS  C:\Users\jesse\AppData\Local\Temp\cc6zNusR.s 			page 193


 9100 111a AC000000 		.4byte	.LVL311
 9101 111e 0100     		.2byte	0x1
 9102 1120 58       		.byte	0x58
 9103 1121 00000000 		.4byte	0
 9104 1125 00000000 		.4byte	0
 9105              	.LLST59:
 9106 1129 80000000 		.4byte	.LVL301
 9107 112d 84000000 		.4byte	.LVL303
 9108 1131 0100     		.2byte	0x1
 9109 1133 53       		.byte	0x53
 9110 1134 84000000 		.4byte	.LVL303
 9111 1138 86000000 		.4byte	.LVL304
 9112 113c 0200     		.2byte	0x2
 9113 113e 77       		.byte	0x77
 9114 113f 04       		.sleb128 4
 9115 1140 86000000 		.4byte	.LVL304
 9116 1144 8C000000 		.4byte	.LVL305
 9117 1148 0100     		.2byte	0x1
 9118 114a 55       		.byte	0x55
 9119 114b 8C000000 		.4byte	.LVL305
 9120 114f 94000000 		.4byte	.LVL306
 9121 1153 0300     		.2byte	0x3
 9122 1155 09       		.byte	0x9
 9123 1156 C0       		.byte	0xc0
 9124 1157 9F       		.byte	0x9f
 9125 1158 94000000 		.4byte	.LVL306
 9126 115c A0000000 		.4byte	.LVL309
 9127 1160 0100     		.2byte	0x1
 9128 1162 55       		.byte	0x55
 9129 1163 00000000 		.4byte	0
 9130 1167 00000000 		.4byte	0
 9131              	.LLST60:
 9132 116b 82000000 		.4byte	.LVL302
 9133 116f 9D000000 		.4byte	.LVL308-1
 9134 1173 0100     		.2byte	0x1
 9135 1175 52       		.byte	0x52
 9136 1176 00000000 		.4byte	0
 9137 117a 00000000 		.4byte	0
 9138              		.section	.debug_aranges,"",%progbits
 9139 0000 64000000 		.4byte	0x64
 9140 0004 0200     		.2byte	0x2
 9141 0006 00000000 		.4byte	.Ldebug_info0
 9142 000a 04       		.byte	0x4
 9143 000b 00       		.byte	0
 9144 000c 0000     		.2byte	0
 9145 000e 0000     		.2byte	0
 9146 0010 00000000 		.4byte	.LFB0
 9147 0014 F0000000 		.4byte	.LFE0-.LFB0
 9148 0018 00000000 		.4byte	.LFB1
 9149 001c 68000000 		.4byte	.LFE1-.LFB1
 9150 0020 00000000 		.4byte	.LFB2
 9151 0024 68000000 		.4byte	.LFE2-.LFB2
 9152 0028 00000000 		.4byte	.LFB3
 9153 002c 68000000 		.4byte	.LFE3-.LFB3
 9154 0030 00000000 		.4byte	.LFB4
 9155 0034 38010000 		.4byte	.LFE4-.LFB4
 9156 0038 00000000 		.4byte	.LFB5
ARM GAS  C:\Users\jesse\AppData\Local\Temp\cc6zNusR.s 			page 194


 9157 003c 38010000 		.4byte	.LFE5-.LFB5
 9158 0040 00000000 		.4byte	.LFB6
 9159 0044 44010000 		.4byte	.LFE6-.LFB6
 9160 0048 00000000 		.4byte	.LFB7
 9161 004c 44010000 		.4byte	.LFE7-.LFB7
 9162 0050 00000000 		.4byte	.LFB8
 9163 0054 3C010000 		.4byte	.LFE8-.LFB8
 9164 0058 00000000 		.4byte	.LFB9
 9165 005c 3C010000 		.4byte	.LFE9-.LFB9
 9166 0060 00000000 		.4byte	0
 9167 0064 00000000 		.4byte	0
 9168              		.section	.debug_ranges,"",%progbits
 9169              	.Ldebug_ranges0:
 9170 0000 00000000 		.4byte	.LFB0
 9171 0004 F0000000 		.4byte	.LFE0
 9172 0008 00000000 		.4byte	.LFB1
 9173 000c 68000000 		.4byte	.LFE1
 9174 0010 00000000 		.4byte	.LFB2
 9175 0014 68000000 		.4byte	.LFE2
 9176 0018 00000000 		.4byte	.LFB3
 9177 001c 68000000 		.4byte	.LFE3
 9178 0020 00000000 		.4byte	.LFB4
 9179 0024 38010000 		.4byte	.LFE4
 9180 0028 00000000 		.4byte	.LFB5
 9181 002c 38010000 		.4byte	.LFE5
 9182 0030 00000000 		.4byte	.LFB6
 9183 0034 44010000 		.4byte	.LFE6
 9184 0038 00000000 		.4byte	.LFB7
 9185 003c 44010000 		.4byte	.LFE7
 9186 0040 00000000 		.4byte	.LFB8
 9187 0044 3C010000 		.4byte	.LFE8
 9188 0048 00000000 		.4byte	.LFB9
 9189 004c 3C010000 		.4byte	.LFE9
 9190 0050 00000000 		.4byte	0
 9191 0054 00000000 		.4byte	0
 9192              		.section	.debug_line,"",%progbits
 9193              	.Ldebug_line0:
 9194 0000 97030000 		.section	.debug_str,"MS",%progbits,1
 9194      02004601 
 9194      00000201 
 9194      FB0E0D00 
 9194      01010101 
 9195              	.LASF100:
 9196 0000 75387838 		.ascii	"u8x8_d_st75256_256x160_alt_init_seq\000"
 9196      5F645F73 
 9196      74373532 
 9196      35365F32 
 9196      35367831 
 9197              	.LASF71:
 9198 0024 75387838 		.ascii	"u8x8_d_st75256_jlx172104\000"
 9198      5F645F73 
 9198      74373532 
 9198      35365F6A 
 9198      6C783137 
 9199              	.LASF43:
 9200 003d 72657365 		.ascii	"reset_pulse_width_ms\000"
 9200      745F7075 
ARM GAS  C:\Users\jesse\AppData\Local\Temp\cc6zNusR.s 			page 195


 9200      6C73655F 
 9200      77696474 
 9200      685F6D73 
 9201              	.LASF3:
 9202 0052 5F5F7569 		.ascii	"__uint8_t\000"
 9202      6E74385F 
 9202      7400
 9203              	.LASF21:
 9204 005c 62797465 		.ascii	"byte_cb\000"
 9204      5F636200 
 9205              	.LASF59:
 9206 0064 75387838 		.ascii	"u8x8_tile_struct\000"
 9206      5F74696C 
 9206      655F7374 
 9206      72756374 
 9206      00
 9207              	.LASF10:
 9208 0075 6C6F6E67 		.ascii	"long long unsigned int\000"
 9208      206C6F6E 
 9208      6720756E 
 9208      7369676E 
 9208      65642069 
 9209              	.LASF110:
 9210 008c 75387838 		.ascii	"u8x8_d_helper_display_init\000"
 9210      5F645F68 
 9210      656C7065 
 9210      725F6469 
 9210      73706C61 
 9211              	.LASF44:
 9212 00a7 706F7374 		.ascii	"post_reset_wait_ms\000"
 9212      5F726573 
 9212      65745F77 
 9212      6169745F 
 9212      6D7300
 9213              	.LASF30:
 9214 00ba 75746638 		.ascii	"utf8_state\000"
 9214      5F737461 
 9214      746500
 9215              	.LASF31:
 9216 00c5 6770696F 		.ascii	"gpio_result\000"
 9216      5F726573 
 9216      756C7400 
 9217              	.LASF9:
 9218 00d1 6C6F6E67 		.ascii	"long long int\000"
 9218      206C6F6E 
 9218      6720696E 
 9218      7400
 9219              	.LASF0:
 9220 00df 7369676E 		.ascii	"signed char\000"
 9220      65642063 
 9220      68617200 
 9221              	.LASF111:
 9222 00eb 474E5520 		.ascii	"GNU C11 5.4.1 20160609 (release) [ARM/embedded-5-br"
 9222      43313120 
 9222      352E342E 
 9222      31203230 
 9222      31363036 
ARM GAS  C:\Users\jesse\AppData\Local\Temp\cc6zNusR.s 			page 196


 9223 011e 616E6368 		.ascii	"anch revision 237715] -mcpu=cortex-m3 -mthumb -g -O"
 9223      20726576 
 9223      6973696F 
 9223      6E203233 
 9223      37373135 
 9224 0151 73202D66 		.ascii	"s -ffunction-sections -ffat-lto-objects\000"
 9224      66756E63 
 9224      74696F6E 
 9224      2D736563 
 9224      74696F6E 
 9225              	.LASF27:
 9226 0179 69735F66 		.ascii	"is_font_inverse_mode\000"
 9226      6F6E745F 
 9226      696E7665 
 9226      7273655F 
 9226      6D6F6465 
 9227              	.LASF19:
 9228 018e 64697370 		.ascii	"display_cb\000"
 9228      6C61795F 
 9228      636200
 9229              	.LASF42:
 9230 0199 7072655F 		.ascii	"pre_chip_disable_wait_ns\000"
 9230      63686970 
 9230      5F646973 
 9230      61626C65 
 9230      5F776169 
 9231              	.LASF6:
 9232 01b2 6C6F6E67 		.ascii	"long int\000"
 9232      20696E74 
 9232      00
 9233              	.LASF88:
 9234 01bb 75387838 		.ascii	"u8x8_st75256_wo256x128_display_info\000"
 9234      5F737437 
 9234      35323536 
 9234      5F776F32 
 9234      35367831 
 9235              	.LASF93:
 9236 01df 75387838 		.ascii	"u8x8_d_st75256_jlx172104_init_seq\000"
 9236      5F645F73 
 9236      74373532 
 9236      35365F6A 
 9236      6C783137 
 9237              	.LASF103:
 9238 0201 75387838 		.ascii	"u8x8_cad_SendSequence\000"
 9238      5F636164 
 9238      5F53656E 
 9238      64536571 
 9238      75656E63 
 9239              	.LASF73:
 9240 0217 75387838 		.ascii	"u8x8_d_st75256_jlx256160\000"
 9240      5F645F73 
 9240      74373532 
 9240      35365F6A 
 9240      6C783235 
 9241              	.LASF75:
 9242 0230 75387838 		.ascii	"u8x8_d_st75256_jlx256160_alt\000"
 9242      5F645F73 
ARM GAS  C:\Users\jesse\AppData\Local\Temp\cc6zNusR.s 			page 197


 9242      74373532 
 9242      35365F6A 
 9242      6C783235 
 9243              	.LASF13:
 9244 024d 75696E74 		.ascii	"uint16_t\000"
 9244      31365F74 
 9244      00
 9245              	.LASF18:
 9246 0256 6E657874 		.ascii	"next_cb\000"
 9246      5F636200 
 9247              	.LASF64:
 9248 025e 75387838 		.ascii	"u8x8_char_cb\000"
 9248      5F636861 
 9248      725F6362 
 9248      00
 9249              	.LASF22:
 9250 026b 6770696F 		.ascii	"gpio_and_delay_cb\000"
 9250      5F616E64 
 9250      5F64656C 
 9250      61795F63 
 9250      6200
 9251              	.LASF95:
 9252 027d 75387838 		.ascii	"u8x8_d_st75256_240x160_init_seq\000"
 9252      5F645F73 
 9252      74373532 
 9252      35365F32 
 9252      34307831 
 9253              	.LASF72:
 9254 029d 75387838 		.ascii	"u8x8_d_st75256_jlx240160\000"
 9254      5F645F73 
 9254      74373532 
 9254      35365F6A 
 9254      6C783234 
 9255              	.LASF36:
 9256 02b6 75387838 		.ascii	"u8x8_display_info_t\000"
 9256      5F646973 
 9256      706C6179 
 9256      5F696E66 
 9256      6F5F7400 
 9257              	.LASF113:
 9258 02ca 433A5C55 		.ascii	"C:\\Users\\jesse\\OneDrive\\Bureaublad\\practice_em"
 9258      73657273 
 9258      5C6A6573 
 9258      73655C4F 
 9258      6E654472 
 9259 02f8 62656464 		.ascii	"bedded\\Practice_EmbeddedProgramming\\Display_count"
 9259      65645C50 
 9259      72616374 
 9259      6963655F 
 9259      456D6265 
 9260 0329 2E637964 		.ascii	".cydsn\000"
 9260      736E00
 9261              	.LASF7:
 9262 0330 5F5F7569 		.ascii	"__uint32_t\000"
 9262      6E743332 
 9262      5F7400
 9263              	.LASF45:
ARM GAS  C:\Users\jesse\AppData\Local\Temp\cc6zNusR.s 			page 198


 9264 033b 7364615F 		.ascii	"sda_setup_time_ns\000"
 9264      73657475 
 9264      705F7469 
 9264      6D655F6E 
 9264      7300
 9265              	.LASF109:
 9266 034d 75387838 		.ascii	"u8x8_d_helper_display_setup_memory\000"
 9266      5F645F68 
 9266      656C7065 
 9266      725F6469 
 9266      73706C61 
 9267              	.LASF61:
 9268 0370 785F706F 		.ascii	"x_pos\000"
 9268      7300
 9269              	.LASF78:
 9270 0376 75387838 		.ascii	"u8x8_d_st75256_256x128_powersave0_seq\000"
 9270      5F645F73 
 9270      74373532 
 9270      35365F32 
 9270      35367831 
 9271              	.LASF58:
 9272 039c 75387838 		.ascii	"u8x8_tile_t\000"
 9272      5F74696C 
 9272      655F7400 
 9273              	.LASF35:
 9274 03a8 6465626F 		.ascii	"debounce_result_msg\000"
 9274      756E6365 
 9274      5F726573 
 9274      756C745F 
 9274      6D736700 
 9275              	.LASF11:
 9276 03bc 756E7369 		.ascii	"unsigned int\000"
 9276      676E6564 
 9276      20696E74 
 9276      00
 9277              	.LASF66:
 9278 03c9 6172675F 		.ascii	"arg_int\000"
 9278      696E7400 
 9279              	.LASF28:
 9280 03d1 6932635F 		.ascii	"i2c_address\000"
 9280      61646472 
 9280      65737300 
 9281              	.LASF8:
 9282 03dd 6C6F6E67 		.ascii	"long unsigned int\000"
 9282      20756E73 
 9282      69676E65 
 9282      6420696E 
 9282      7400
 9283              	.LASF79:
 9284 03ef 75387838 		.ascii	"u8x8_d_st75256_256x128_powersave1_seq\000"
 9284      5F645F73 
 9284      74373532 
 9284      35365F32 
 9284      35367831 
 9285              	.LASF70:
 9286 0415 75387838 		.ascii	"u8x8_d_st75256_jlx25664\000"
 9286      5F645F73 
ARM GAS  C:\Users\jesse\AppData\Local\Temp\cc6zNusR.s 			page 199


 9286      74373532 
 9286      35365F6A 
 9286      6C783235 
 9287              	.LASF97:
 9288 042d 75387838 		.ascii	"u8x8_d_st75256_256x160_init_seq\000"
 9288      5F645F73 
 9288      74373532 
 9288      35365F32 
 9288      35367831 
 9289              	.LASF108:
 9290 044d 75387838 		.ascii	"u8x8_cad_SendData\000"
 9290      5F636164 
 9290      5F53656E 
 9290      64446174 
 9290      6100
 9291              	.LASF80:
 9292 045f 75387838 		.ascii	"u8x8_d_st75256_jlx256128_flip0_seq\000"
 9292      5F645F73 
 9292      74373532 
 9292      35365F6A 
 9292      6C783235 
 9293              	.LASF5:
 9294 0482 73686F72 		.ascii	"short unsigned int\000"
 9294      7420756E 
 9294      7369676E 
 9294      65642069 
 9294      6E7400
 9295              	.LASF33:
 9296 0495 6465626F 		.ascii	"debounce_last_pin_state\000"
 9296      756E6365 
 9296      5F6C6173 
 9296      745F7069 
 9296      6E5F7374 
 9297              	.LASF86:
 9298 04ad 75387838 		.ascii	"u8x8_st75256_256x128_display_info\000"
 9298      5F737437 
 9298      35323536 
 9298      5F323536 
 9298      78313238 
 9299              	.LASF94:
 9300 04cf 75387838 		.ascii	"u8x8_st75256_240x160_display_info\000"
 9300      5F737437 
 9300      35323536 
 9300      5F323430 
 9300      78313630 
 9301              	.LASF17:
 9302 04f1 64697370 		.ascii	"display_info\000"
 9302      6C61795F 
 9302      696E666F 
 9302      00
 9303              	.LASF46:
 9304 04fe 73636B5F 		.ascii	"sck_pulse_width_ns\000"
 9304      70756C73 
 9304      655F7769 
 9304      6474685F 
 9304      6E7300
 9305              	.LASF37:
ARM GAS  C:\Users\jesse\AppData\Local\Temp\cc6zNusR.s 			page 200


 9306 0511 75387838 		.ascii	"u8x8_struct\000"
 9306      5F737472 
 9306      75637400 
 9307              	.LASF96:
 9308 051d 75387838 		.ascii	"u8x8_st75256_256x160_display_info\000"
 9308      5F737437 
 9308      35323536 
 9308      5F323536 
 9308      78313630 
 9309              	.LASF54:
 9310 053f 64656661 		.ascii	"default_x_offset\000"
 9310      756C745F 
 9310      785F6F66 
 9310      66736574 
 9310      00
 9311              	.LASF25:
 9312 0550 656E636F 		.ascii	"encoding\000"
 9312      64696E67 
 9312      00
 9313              	.LASF55:
 9314 0559 666C6970 		.ascii	"flipmode_x_offset\000"
 9314      6D6F6465 
 9314      5F785F6F 
 9314      66667365 
 9314      7400
 9315              	.LASF83:
 9316 056b 75387838 		.ascii	"u8x8_d_st75256_jlx172104_flip1_seq\000"
 9316      5F645F73 
 9316      74373532 
 9316      35365F6A 
 9316      6C783137 
 9317              	.LASF77:
 9318 058e 73697A65 		.ascii	"sizetype\000"
 9318      74797065 
 9318      00
 9319              	.LASF15:
 9320 0597 6C6F6E67 		.ascii	"long double\000"
 9320      20646F75 
 9320      626C6500 
 9321              	.LASF85:
 9322 05a3 75387838 		.ascii	"u8x8_d_st75256_jlx256160_flip1_seq\000"
 9322      5F645F73 
 9322      74373532 
 9322      35365F6A 
 9322      6C783235 
 9323              	.LASF20:
 9324 05c6 6361645F 		.ascii	"cad_cb\000"
 9324      636200
 9325              	.LASF69:
 9326 05cd 75387838 		.ascii	"u8x8_d_st75256_wo256x128\000"
 9326      5F645F73 
 9326      74373532 
 9326      35365F77 
 9326      6F323536 
 9327              	.LASF81:
 9328 05e6 75387838 		.ascii	"u8x8_d_st75256_jlx256128_flip1_seq\000"
 9328      5F645F73 
ARM GAS  C:\Users\jesse\AppData\Local\Temp\cc6zNusR.s 			page 201


 9328      74373532 
 9328      35365F6A 
 9328      6C783235 
 9329              	.LASF51:
 9330 0609 77726974 		.ascii	"write_pulse_width_ns\000"
 9330      655F7075 
 9330      6C73655F 
 9330      77696474 
 9330      685F6E73 
 9331              	.LASF26:
 9332 061e 785F6F66 		.ascii	"x_offset\000"
 9332      66736574 
 9332      00
 9333              	.LASF89:
 9334 0627 75387838 		.ascii	"u8x8_d_st75256_wo256x128_init_seq\000"
 9334      5F645F73 
 9334      74373532 
 9334      35365F77 
 9334      6F323536 
 9335              	.LASF98:
 9336 0649 75387838 		.ascii	"u8x8_d_st75256_256x160m_init_seq\000"
 9336      5F645F73 
 9336      74373532 
 9336      35365F32 
 9336      35367831 
 9337              	.LASF53:
 9338 066a 74696C65 		.ascii	"tile_height\000"
 9338      5F686569 
 9338      67687400 
 9339              	.LASF112:
 9340 0676 2E2E5C2E 		.ascii	"..\\..\\..\\u8g2\\u8g2\\csrc\\u8x8_d_st75256.c\000"
 9340      2E5C2E2E 
 9340      5C753867 
 9340      325C7538 
 9340      67325C63 
 9341              	.LASF99:
 9342 069f 75387838 		.ascii	"u8x8_st75256_256x160_alt_display_info\000"
 9342      5F737437 
 9342      35323536 
 9342      5F323536 
 9342      78313630 
 9343              	.LASF87:
 9344 06c5 75387838 		.ascii	"u8x8_d_st75256_256x128_init_seq\000"
 9344      5F645F73 
 9344      74373532 
 9344      35365F32 
 9344      35367831 
 9345              	.LASF63:
 9346 06e5 75387838 		.ascii	"u8x8_msg_cb\000"
 9346      5F6D7367 
 9346      5F636200 
 9347              	.LASF1:
 9348 06f1 756E7369 		.ascii	"unsigned char\000"
 9348      676E6564 
 9348      20636861 
 9348      7200
 9349              	.LASF2:
ARM GAS  C:\Users\jesse\AppData\Local\Temp\cc6zNusR.s 			page 202


 9350 06ff 73686F72 		.ascii	"short int\000"
 9350      7420696E 
 9350      7400
 9351              	.LASF65:
 9352 0709 75387838 		.ascii	"u8x8\000"
 9352      00
 9353              	.LASF101:
 9354 070e 75387838 		.ascii	"u8x8_st75256_192x96_display_info\000"
 9354      5F737437 
 9354      35323536 
 9354      5F313932 
 9354      7839365F 
 9355              	.LASF68:
 9356 072f 75387838 		.ascii	"u8x8_d_st75256_jlx256128\000"
 9356      5F645F73 
 9356      74373532 
 9356      35365F6A 
 9356      6C783235 
 9357              	.LASF50:
 9358 0748 64617461 		.ascii	"data_setup_time_ns\000"
 9358      5F736574 
 9358      75705F74 
 9358      696D655F 
 9358      6E7300
 9359              	.LASF76:
 9360 075b 75387838 		.ascii	"u8x8_d_st75256_jlx19296\000"
 9360      5F645F73 
 9360      74373532 
 9360      35365F6A 
 9360      6C783139 
 9361              	.LASF49:
 9362 0773 6932635F 		.ascii	"i2c_bus_clock_100kHz\000"
 9362      6275735F 
 9362      636C6F63 
 9362      6B5F3130 
 9362      306B487A 
 9363              	.LASF14:
 9364 0788 75696E74 		.ascii	"uint32_t\000"
 9364      33325F74 
 9364      00
 9365              	.LASF104:
 9366 0791 75387838 		.ascii	"u8x8_cad_StartTransfer\000"
 9366      5F636164 
 9366      5F537461 
 9366      72745472 
 9366      616E7366 
 9367              	.LASF48:
 9368 07a8 7370695F 		.ascii	"spi_mode\000"
 9368      6D6F6465 
 9368      00
 9369              	.LASF39:
 9370 07b1 63686970 		.ascii	"chip_enable_level\000"
 9370      5F656E61 
 9370      626C655F 
 9370      6C657665 
 9370      6C00
 9371              	.LASF60:
ARM GAS  C:\Users\jesse\AppData\Local\Temp\cc6zNusR.s 			page 203


 9372 07c3 74696C65 		.ascii	"tile_ptr\000"
 9372      5F707472 
 9372      00
 9373              	.LASF4:
 9374 07cc 5F5F7569 		.ascii	"__uint16_t\000"
 9374      6E743136 
 9374      5F7400
 9375              	.LASF90:
 9376 07d7 75387838 		.ascii	"u8x8_st75256_256x64_display_info\000"
 9376      5F737437 
 9376      35323536 
 9376      5F323536 
 9376      7836345F 
 9377              	.LASF107:
 9378 07f8 75387838 		.ascii	"u8x8_cad_EndTransfer\000"
 9378      5F636164 
 9378      5F456E64 
 9378      5472616E 
 9378      73666572 
 9379              	.LASF41:
 9380 080d 706F7374 		.ascii	"post_chip_enable_wait_ns\000"
 9380      5F636869 
 9380      705F656E 
 9380      61626C65 
 9380      5F776169 
 9381              	.LASF16:
 9382 0826 75387838 		.ascii	"u8x8_t\000"
 9382      5F7400
 9383              	.LASF23:
 9384 082d 6275735F 		.ascii	"bus_clock\000"
 9384      636C6F63 
 9384      6B00
 9385              	.LASF102:
 9386 0837 75387838 		.ascii	"u8x8_d_st75256_jlx19296_init_seq\000"
 9386      5F645F73 
 9386      74373532 
 9386      35365F6A 
 9386      6C783139 
 9387              	.LASF82:
 9388 0858 75387838 		.ascii	"u8x8_d_st75256_jlx172104_flip0_seq\000"
 9388      5F645F73 
 9388      74373532 
 9388      35365F6A 
 9388      6C783137 
 9389              	.LASF114:
 9390 087b 75387838 		.ascii	"u8x8_d_st75256_256x128_generic\000"
 9390      5F645F73 
 9390      74373532 
 9390      35365F32 
 9390      35367831 
 9391              	.LASF34:
 9392 089a 6465626F 		.ascii	"debounce_state\000"
 9392      756E6365 
 9392      5F737461 
 9392      746500
 9393              	.LASF74:
 9394 08a9 75387838 		.ascii	"u8x8_d_st75256_jlx256160m\000"
ARM GAS  C:\Users\jesse\AppData\Local\Temp\cc6zNusR.s 			page 204


 9394      5F645F73 
 9394      74373532 
 9394      35365F6A 
 9394      6C783235 
 9395              	.LASF67:
 9396 08c3 6172675F 		.ascii	"arg_ptr\000"
 9396      70747200 
 9397              	.LASF40:
 9398 08cb 63686970 		.ascii	"chip_disable_level\000"
 9398      5F646973 
 9398      61626C65 
 9398      5F6C6576 
 9398      656C00
 9399              	.LASF24:
 9400 08de 666F6E74 		.ascii	"font\000"
 9400      00
 9401              	.LASF84:
 9402 08e3 75387838 		.ascii	"u8x8_d_st75256_jlx256160_flip0_seq\000"
 9402      5F645F73 
 9402      74373532 
 9402      35365F6A 
 9402      6C783235 
 9403              	.LASF12:
 9404 0906 75696E74 		.ascii	"uint8_t\000"
 9404      385F7400 
 9405              	.LASF29:
 9406 090e 6932635F 		.ascii	"i2c_started\000"
 9406      73746172 
 9406      74656400 
 9407              	.LASF56:
 9408 091a 70697865 		.ascii	"pixel_width\000"
 9408      6C5F7769 
 9408      64746800 
 9409              	.LASF52:
 9410 0926 74696C65 		.ascii	"tile_width\000"
 9410      5F776964 
 9410      746800
 9411              	.LASF32:
 9412 0931 6465626F 		.ascii	"debounce_default_pin_state\000"
 9412      756E6365 
 9412      5F646566 
 9412      61756C74 
 9412      5F70696E 
 9413              	.LASF62:
 9414 094c 795F706F 		.ascii	"y_pos\000"
 9414      7300
 9415              	.LASF105:
 9416 0952 75387838 		.ascii	"u8x8_cad_SendCmd\000"
 9416      5F636164 
 9416      5F53656E 
 9416      64436D64 
 9416      00
 9417              	.LASF91:
 9418 0963 75387838 		.ascii	"u8x8_d_st75256_256x64_init_seq\000"
 9418      5F645F73 
 9418      74373532 
 9418      35365F32 
ARM GAS  C:\Users\jesse\AppData\Local\Temp\cc6zNusR.s 			page 205


 9418      35367836 
 9419              	.LASF38:
 9420 0982 75387838 		.ascii	"u8x8_display_info_struct\000"
 9420      5F646973 
 9420      706C6179 
 9420      5F696E66 
 9420      6F5F7374 
 9421              	.LASF92:
 9422 099b 75387838 		.ascii	"u8x8_st75256_172x104_display_info\000"
 9422      5F737437 
 9422      35323536 
 9422      5F313732 
 9422      78313034 
 9423              	.LASF106:
 9424 09bd 75387838 		.ascii	"u8x8_cad_SendArg\000"
 9424      5F636164 
 9424      5F53656E 
 9424      64417267 
 9424      00
 9425              	.LASF57:
 9426 09ce 70697865 		.ascii	"pixel_height\000"
 9426      6C5F6865 
 9426      69676874 
 9426      00
 9427              	.LASF47:
 9428 09db 73636B5F 		.ascii	"sck_clock_hz\000"
 9428      636C6F63 
 9428      6B5F687A 
 9428      00
 9429              		.ident	"GCC: (GNU Tools for ARM Embedded Processors) 5.4.1 20160609 (release) [ARM/embedded-5-bran
