ARM GAS  C:\Users\jesse\AppData\Local\Temp\ccb0z44h.s 			page 1


   1              		.syntax unified
   2              		.cpu cortex-m3
   3              		.fpu softvfp
   4              		.eabi_attribute 20, 1
   5              		.eabi_attribute 21, 1
   6              		.eabi_attribute 23, 3
   7              		.eabi_attribute 24, 1
   8              		.eabi_attribute 25, 1
   9              		.eabi_attribute 26, 1
  10              		.eabi_attribute 30, 4
  11              		.eabi_attribute 34, 1
  12              		.eabi_attribute 18, 4
  13              		.thumb
  14              		.syntax unified
  15              		.file	"u8x8_d_pcf8812.c"
  16              		.text
  17              	.Ltext0:
  18              		.cfi_sections	.debug_frame
  19              		.section	.text.u8x8_d_pcf8812_96x65,"ax",%progbits
  20              		.align	1
  21              		.global	u8x8_d_pcf8812_96x65
  22              		.thumb
  23              		.thumb_func
  24              		.type	u8x8_d_pcf8812_96x65, %function
  25              	u8x8_d_pcf8812_96x65:
  26              	.LFB1:
  27              		.file 1 "..\\..\\..\\u8g2\\u8g2\\csrc\\u8x8_d_pcf8812.c"
   1:..\..\..\u8g2\u8g2\csrc/u8x8_d_pcf8812.c **** /*
   2:..\..\..\u8g2\u8g2\csrc/u8x8_d_pcf8812.c **** 
   3:..\..\..\u8g2\u8g2\csrc/u8x8_d_pcf8812.c ****   u8x8_d_pcf8812.c
   4:..\..\..\u8g2\u8g2\csrc/u8x8_d_pcf8812.c ****   
   5:..\..\..\u8g2\u8g2\csrc/u8x8_d_pcf8812.c ****   pcf8812: 65x102
   6:..\..\..\u8g2\u8g2\csrc/u8x8_d_pcf8812.c ****   pcf8814: 65x96
   7:..\..\..\u8g2\u8g2\csrc/u8x8_d_pcf8812.c **** 
   8:..\..\..\u8g2\u8g2\csrc/u8x8_d_pcf8812.c ****   Universal 8bit Graphics Library (https://github.com/olikraus/u8g2/)
   9:..\..\..\u8g2\u8g2\csrc/u8x8_d_pcf8812.c **** 
  10:..\..\..\u8g2\u8g2\csrc/u8x8_d_pcf8812.c ****   Copyright (c) 2017, olikraus@gmail.com
  11:..\..\..\u8g2\u8g2\csrc/u8x8_d_pcf8812.c ****   All rights reserved.
  12:..\..\..\u8g2\u8g2\csrc/u8x8_d_pcf8812.c **** 
  13:..\..\..\u8g2\u8g2\csrc/u8x8_d_pcf8812.c ****   Redistribution and use in source and binary forms, with or without modification, 
  14:..\..\..\u8g2\u8g2\csrc/u8x8_d_pcf8812.c ****   are permitted provided that the following conditions are met:
  15:..\..\..\u8g2\u8g2\csrc/u8x8_d_pcf8812.c **** 
  16:..\..\..\u8g2\u8g2\csrc/u8x8_d_pcf8812.c ****   * Redistributions of source code must retain the above copyright notice, this list 
  17:..\..\..\u8g2\u8g2\csrc/u8x8_d_pcf8812.c ****     of conditions and the following disclaimer.
  18:..\..\..\u8g2\u8g2\csrc/u8x8_d_pcf8812.c ****     
  19:..\..\..\u8g2\u8g2\csrc/u8x8_d_pcf8812.c ****   * Redistributions in binary form must reproduce the above copyright notice, this 
  20:..\..\..\u8g2\u8g2\csrc/u8x8_d_pcf8812.c ****     list of conditions and the following disclaimer in the documentation and/or other 
  21:..\..\..\u8g2\u8g2\csrc/u8x8_d_pcf8812.c ****     materials provided with the distribution.
  22:..\..\..\u8g2\u8g2\csrc/u8x8_d_pcf8812.c **** 
  23:..\..\..\u8g2\u8g2\csrc/u8x8_d_pcf8812.c ****   THIS SOFTWARE IS PROVIDED BY THE COPYRIGHT HOLDERS AND 
  24:..\..\..\u8g2\u8g2\csrc/u8x8_d_pcf8812.c ****   CONTRIBUTORS "AS IS" AND ANY EXPRESS OR IMPLIED WARRANTIES, 
  25:..\..\..\u8g2\u8g2\csrc/u8x8_d_pcf8812.c ****   INCLUDING, BUT NOT LIMITED TO, THE IMPLIED WARRANTIES OF 
  26:..\..\..\u8g2\u8g2\csrc/u8x8_d_pcf8812.c ****   MERCHANTABILITY AND FITNESS FOR A PARTICULAR PURPOSE ARE 
  27:..\..\..\u8g2\u8g2\csrc/u8x8_d_pcf8812.c ****   DISCLAIMED. IN NO EVENT SHALL THE COPYRIGHT HOLDER OR 
  28:..\..\..\u8g2\u8g2\csrc/u8x8_d_pcf8812.c ****   CONTRIBUTORS BE LIABLE FOR ANY DIRECT, INDIRECT, INCIDENTAL, 
  29:..\..\..\u8g2\u8g2\csrc/u8x8_d_pcf8812.c ****   SPECIAL, EXEMPLARY, OR CONSEQUENTIAL DAMAGES (INCLUDING, BUT 
  30:..\..\..\u8g2\u8g2\csrc/u8x8_d_pcf8812.c ****   NOT LIMITED TO, PROCUREMENT OF SUBSTITUTE GOODS OR SERVICES; 
ARM GAS  C:\Users\jesse\AppData\Local\Temp\ccb0z44h.s 			page 2


  31:..\..\..\u8g2\u8g2\csrc/u8x8_d_pcf8812.c ****   LOSS OF USE, DATA, OR PROFITS; OR BUSINESS INTERRUPTION) HOWEVER 
  32:..\..\..\u8g2\u8g2\csrc/u8x8_d_pcf8812.c ****   CAUSED AND ON ANY THEORY OF LIABILITY, WHETHER IN CONTRACT, 
  33:..\..\..\u8g2\u8g2\csrc/u8x8_d_pcf8812.c ****   STRICT LIABILITY, OR TORT (INCLUDING NEGLIGENCE OR OTHERWISE) 
  34:..\..\..\u8g2\u8g2\csrc/u8x8_d_pcf8812.c ****   ARISING IN ANY WAY OUT OF THE USE OF THIS SOFTWARE, EVEN IF 
  35:..\..\..\u8g2\u8g2\csrc/u8x8_d_pcf8812.c ****   ADVISED OF THE POSSIBILITY OF SUCH DAMAGE.  
  36:..\..\..\u8g2\u8g2\csrc/u8x8_d_pcf8812.c ****   
  37:..\..\..\u8g2\u8g2\csrc/u8x8_d_pcf8812.c **** */
  38:..\..\..\u8g2\u8g2\csrc/u8x8_d_pcf8812.c **** 
  39:..\..\..\u8g2\u8g2\csrc/u8x8_d_pcf8812.c **** 
  40:..\..\..\u8g2\u8g2\csrc/u8x8_d_pcf8812.c **** #include "u8x8.h"
  41:..\..\..\u8g2\u8g2\csrc/u8x8_d_pcf8812.c **** 
  42:..\..\..\u8g2\u8g2\csrc/u8x8_d_pcf8812.c **** 
  43:..\..\..\u8g2\u8g2\csrc/u8x8_d_pcf8812.c **** 
  44:..\..\..\u8g2\u8g2\csrc/u8x8_d_pcf8812.c **** static const uint8_t u8x8_d_pcf8812_96x65_init_seq[] = {
  45:..\..\..\u8g2\u8g2\csrc/u8x8_d_pcf8812.c ****     
  46:..\..\..\u8g2\u8g2\csrc/u8x8_d_pcf8812.c ****   U8X8_START_TRANSFER(),             	/* enable chip, delay is part of the transfer start */
  47:..\..\..\u8g2\u8g2\csrc/u8x8_d_pcf8812.c ****   
  48:..\..\..\u8g2\u8g2\csrc/u8x8_d_pcf8812.c ****   U8X8_C(0x020),		                /* activate chip (PD=0), horizontal increment (V=0), enter normal
  49:..\..\..\u8g2\u8g2\csrc/u8x8_d_pcf8812.c ****   U8X8_C(0x008),		                /* blank display */
  50:..\..\..\u8g2\u8g2\csrc/u8x8_d_pcf8812.c ****   
  51:..\..\..\u8g2\u8g2\csrc/u8x8_d_pcf8812.c ****   U8X8_C(0x021),		                /* activate chip (PD=0), horizontal increment (V=0), enter extend
  52:..\..\..\u8g2\u8g2\csrc/u8x8_d_pcf8812.c ****   U8X8_C(0x006),		                /* temp. control: b10 = 2 */
  53:..\..\..\u8g2\u8g2\csrc/u8x8_d_pcf8812.c ****   U8X8_C(0x013),		                /* bias system, 0x010..0x07 1:48 */
  54:..\..\..\u8g2\u8g2\csrc/u8x8_d_pcf8812.c ****   U8X8_C(0x09f),				/* contrast setting, 0..127 */
  55:..\..\..\u8g2\u8g2\csrc/u8x8_d_pcf8812.c ****   //U8X8_CA(0x020 | 2, 0x080 | 0),				/* contrast setting, pcf8814 */
  56:..\..\..\u8g2\u8g2\csrc/u8x8_d_pcf8812.c **** 
  57:..\..\..\u8g2\u8g2\csrc/u8x8_d_pcf8812.c ****   U8X8_C(0x024),		                /* deactivate chip (PD=1), horizontal increment (V=0), enter norm
  58:..\..\..\u8g2\u8g2\csrc/u8x8_d_pcf8812.c ****     
  59:..\..\..\u8g2\u8g2\csrc/u8x8_d_pcf8812.c ****   U8X8_END_TRANSFER(),             	/* disable chip */
  60:..\..\..\u8g2\u8g2\csrc/u8x8_d_pcf8812.c ****   U8X8_END()             			/* end of sequence */
  61:..\..\..\u8g2\u8g2\csrc/u8x8_d_pcf8812.c **** };
  62:..\..\..\u8g2\u8g2\csrc/u8x8_d_pcf8812.c **** 
  63:..\..\..\u8g2\u8g2\csrc/u8x8_d_pcf8812.c **** static const uint8_t u8x8_d_pcf8812_96x65_powersave0_seq[] = {
  64:..\..\..\u8g2\u8g2\csrc/u8x8_d_pcf8812.c ****   U8X8_START_TRANSFER(),             	/* enable chip, delay is part of the transfer start */
  65:..\..\..\u8g2\u8g2\csrc/u8x8_d_pcf8812.c ****   U8X8_C(0x020),		                /* power on */
  66:..\..\..\u8g2\u8g2\csrc/u8x8_d_pcf8812.c ****   U8X8_C(0x00c),		                /* display on */
  67:..\..\..\u8g2\u8g2\csrc/u8x8_d_pcf8812.c ****   U8X8_END_TRANSFER(),             	/* disable chip */
  68:..\..\..\u8g2\u8g2\csrc/u8x8_d_pcf8812.c ****   U8X8_END()             			/* end of sequence */
  69:..\..\..\u8g2\u8g2\csrc/u8x8_d_pcf8812.c **** };
  70:..\..\..\u8g2\u8g2\csrc/u8x8_d_pcf8812.c **** 
  71:..\..\..\u8g2\u8g2\csrc/u8x8_d_pcf8812.c **** static const uint8_t u8x8_d_pcf8812_96x65_powersave1_seq[] = {
  72:..\..\..\u8g2\u8g2\csrc/u8x8_d_pcf8812.c ****   U8X8_START_TRANSFER(),             	/* enable chip, delay is part of the transfer start */
  73:..\..\..\u8g2\u8g2\csrc/u8x8_d_pcf8812.c ****   U8X8_C(0x020),		                /* power on */
  74:..\..\..\u8g2\u8g2\csrc/u8x8_d_pcf8812.c ****   U8X8_C(0x008),		                /* blank display */
  75:..\..\..\u8g2\u8g2\csrc/u8x8_d_pcf8812.c ****   U8X8_C(0x024),		                /* power down */
  76:..\..\..\u8g2\u8g2\csrc/u8x8_d_pcf8812.c ****   U8X8_END_TRANSFER(),             	/* disable chip */
  77:..\..\..\u8g2\u8g2\csrc/u8x8_d_pcf8812.c ****   U8X8_END()             			/* end of sequence */
  78:..\..\..\u8g2\u8g2\csrc/u8x8_d_pcf8812.c **** };
  79:..\..\..\u8g2\u8g2\csrc/u8x8_d_pcf8812.c **** 
  80:..\..\..\u8g2\u8g2\csrc/u8x8_d_pcf8812.c **** 
  81:..\..\..\u8g2\u8g2\csrc/u8x8_d_pcf8812.c **** static uint8_t u8x8_d_pcf8812_96x65_generic(u8x8_t *u8x8, uint8_t msg, uint8_t arg_int, void *arg_p
  82:..\..\..\u8g2\u8g2\csrc/u8x8_d_pcf8812.c **** {
  83:..\..\..\u8g2\u8g2\csrc/u8x8_d_pcf8812.c ****   uint8_t x, c;
  84:..\..\..\u8g2\u8g2\csrc/u8x8_d_pcf8812.c ****   uint8_t *ptr;
  85:..\..\..\u8g2\u8g2\csrc/u8x8_d_pcf8812.c ****   switch(msg)
  86:..\..\..\u8g2\u8g2\csrc/u8x8_d_pcf8812.c ****   {
  87:..\..\..\u8g2\u8g2\csrc/u8x8_d_pcf8812.c ****     /* handled by the calling function
ARM GAS  C:\Users\jesse\AppData\Local\Temp\ccb0z44h.s 			page 3


  88:..\..\..\u8g2\u8g2\csrc/u8x8_d_pcf8812.c ****     case U8X8_MSG_DISPLAY_SETUP_MEMORY:
  89:..\..\..\u8g2\u8g2\csrc/u8x8_d_pcf8812.c ****       u8x8_d_helper_display_setup_memory(u8x8, &u8x8_pcf8812_96x65_display_info);
  90:..\..\..\u8g2\u8g2\csrc/u8x8_d_pcf8812.c ****       break;
  91:..\..\..\u8g2\u8g2\csrc/u8x8_d_pcf8812.c ****     */
  92:..\..\..\u8g2\u8g2\csrc/u8x8_d_pcf8812.c ****     case U8X8_MSG_DISPLAY_INIT:
  93:..\..\..\u8g2\u8g2\csrc/u8x8_d_pcf8812.c ****       u8x8_d_helper_display_init(u8x8);
  94:..\..\..\u8g2\u8g2\csrc/u8x8_d_pcf8812.c ****       u8x8_cad_SendSequence(u8x8, u8x8_d_pcf8812_96x65_init_seq);    
  95:..\..\..\u8g2\u8g2\csrc/u8x8_d_pcf8812.c ****       break;
  96:..\..\..\u8g2\u8g2\csrc/u8x8_d_pcf8812.c ****     case U8X8_MSG_DISPLAY_SET_POWER_SAVE:
  97:..\..\..\u8g2\u8g2\csrc/u8x8_d_pcf8812.c ****       if ( arg_int == 0 )
  98:..\..\..\u8g2\u8g2\csrc/u8x8_d_pcf8812.c **** 	u8x8_cad_SendSequence(u8x8, u8x8_d_pcf8812_96x65_powersave0_seq);
  99:..\..\..\u8g2\u8g2\csrc/u8x8_d_pcf8812.c ****       else
 100:..\..\..\u8g2\u8g2\csrc/u8x8_d_pcf8812.c **** 	u8x8_cad_SendSequence(u8x8, u8x8_d_pcf8812_96x65_powersave1_seq);
 101:..\..\..\u8g2\u8g2\csrc/u8x8_d_pcf8812.c ****       break;
 102:..\..\..\u8g2\u8g2\csrc/u8x8_d_pcf8812.c **** /*
 103:..\..\..\u8g2\u8g2\csrc/u8x8_d_pcf8812.c ****     case U8X8_MSG_DISPLAY_SET_FLIP_MODE:
 104:..\..\..\u8g2\u8g2\csrc/u8x8_d_pcf8812.c ****       if ( arg_int == 0 )
 105:..\..\..\u8g2\u8g2\csrc/u8x8_d_pcf8812.c ****       {
 106:..\..\..\u8g2\u8g2\csrc/u8x8_d_pcf8812.c **** 	u8x8_cad_SendSequence(u8x8, u8x8_d_pcf8812_96x65_flip0_seq);
 107:..\..\..\u8g2\u8g2\csrc/u8x8_d_pcf8812.c **** 	u8x8->x_offset = u8x8->display_info->default_x_offset;
 108:..\..\..\u8g2\u8g2\csrc/u8x8_d_pcf8812.c ****       }
 109:..\..\..\u8g2\u8g2\csrc/u8x8_d_pcf8812.c ****       else
 110:..\..\..\u8g2\u8g2\csrc/u8x8_d_pcf8812.c ****       {
 111:..\..\..\u8g2\u8g2\csrc/u8x8_d_pcf8812.c **** 	u8x8_cad_SendSequence(u8x8, u8x8_d_pcf8812_96x65_flip1_seq);
 112:..\..\..\u8g2\u8g2\csrc/u8x8_d_pcf8812.c **** 	u8x8->x_offset = u8x8->display_info->flipmode_x_offset;
 113:..\..\..\u8g2\u8g2\csrc/u8x8_d_pcf8812.c ****       }
 114:..\..\..\u8g2\u8g2\csrc/u8x8_d_pcf8812.c ****       break;
 115:..\..\..\u8g2\u8g2\csrc/u8x8_d_pcf8812.c **** */
 116:..\..\..\u8g2\u8g2\csrc/u8x8_d_pcf8812.c **** #ifdef U8X8_WITH_SET_CONTRAST
 117:..\..\..\u8g2\u8g2\csrc/u8x8_d_pcf8812.c ****     case U8X8_MSG_DISPLAY_SET_CONTRAST:
 118:..\..\..\u8g2\u8g2\csrc/u8x8_d_pcf8812.c ****       u8x8_cad_StartTransfer(u8x8);
 119:..\..\..\u8g2\u8g2\csrc/u8x8_d_pcf8812.c ****       u8x8_cad_SendCmd(u8x8, 0x021 );    /* command mode, extended function set */
 120:..\..\..\u8g2\u8g2\csrc/u8x8_d_pcf8812.c ****       u8x8_cad_SendArg(u8x8, (arg_int>>1)|0x80 );	/* 0..127 for contrast */
 121:..\..\..\u8g2\u8g2\csrc/u8x8_d_pcf8812.c ****       u8x8_cad_EndTransfer(u8x8);
 122:..\..\..\u8g2\u8g2\csrc/u8x8_d_pcf8812.c ****       break;
 123:..\..\..\u8g2\u8g2\csrc/u8x8_d_pcf8812.c **** #endif
 124:..\..\..\u8g2\u8g2\csrc/u8x8_d_pcf8812.c ****     case U8X8_MSG_DISPLAY_DRAW_TILE:
 125:..\..\..\u8g2\u8g2\csrc/u8x8_d_pcf8812.c ****       u8x8_cad_StartTransfer(u8x8);
 126:..\..\..\u8g2\u8g2\csrc/u8x8_d_pcf8812.c ****       x = ((u8x8_tile_t *)arg_ptr)->x_pos;    
 127:..\..\..\u8g2\u8g2\csrc/u8x8_d_pcf8812.c ****       x *= 8;
 128:..\..\..\u8g2\u8g2\csrc/u8x8_d_pcf8812.c ****       x += u8x8->x_offset;
 129:..\..\..\u8g2\u8g2\csrc/u8x8_d_pcf8812.c ****     
 130:..\..\..\u8g2\u8g2\csrc/u8x8_d_pcf8812.c ****       u8x8_cad_SendCmd(u8x8, 0x020 );	/* activate chip (PD=0), horizontal increment (V=0), enter no
 131:..\..\..\u8g2\u8g2\csrc/u8x8_d_pcf8812.c ****       u8x8_cad_SendCmd(u8x8, 0x080 | x);
 132:..\..\..\u8g2\u8g2\csrc/u8x8_d_pcf8812.c ****       u8x8_cad_SendCmd(u8x8, 0x040 | ((u8x8_tile_t *)arg_ptr)->y_pos);
 133:..\..\..\u8g2\u8g2\csrc/u8x8_d_pcf8812.c ****       
 134:..\..\..\u8g2\u8g2\csrc/u8x8_d_pcf8812.c ****       do
 135:..\..\..\u8g2\u8g2\csrc/u8x8_d_pcf8812.c ****       {
 136:..\..\..\u8g2\u8g2\csrc/u8x8_d_pcf8812.c **** 	c = ((u8x8_tile_t *)arg_ptr)->cnt;
 137:..\..\..\u8g2\u8g2\csrc/u8x8_d_pcf8812.c **** 	ptr = ((u8x8_tile_t *)arg_ptr)->tile_ptr;
 138:..\..\..\u8g2\u8g2\csrc/u8x8_d_pcf8812.c **** 	u8x8_cad_SendData(u8x8, c*8, ptr); 	/* note: SendData can not handle more than 255 bytes */
 139:..\..\..\u8g2\u8g2\csrc/u8x8_d_pcf8812.c **** 	/*
 140:..\..\..\u8g2\u8g2\csrc/u8x8_d_pcf8812.c **** 	do
 141:..\..\..\u8g2\u8g2\csrc/u8x8_d_pcf8812.c **** 	{
 142:..\..\..\u8g2\u8g2\csrc/u8x8_d_pcf8812.c **** 	  u8x8_cad_SendData(u8x8, 8, ptr);
 143:..\..\..\u8g2\u8g2\csrc/u8x8_d_pcf8812.c **** 	  ptr += 8;
 144:..\..\..\u8g2\u8g2\csrc/u8x8_d_pcf8812.c **** 	  c--;
ARM GAS  C:\Users\jesse\AppData\Local\Temp\ccb0z44h.s 			page 4


 145:..\..\..\u8g2\u8g2\csrc/u8x8_d_pcf8812.c **** 	} while( c > 0 );
 146:..\..\..\u8g2\u8g2\csrc/u8x8_d_pcf8812.c **** 	*/
 147:..\..\..\u8g2\u8g2\csrc/u8x8_d_pcf8812.c **** 	arg_int--;
 148:..\..\..\u8g2\u8g2\csrc/u8x8_d_pcf8812.c ****       } while( arg_int > 0 );
 149:..\..\..\u8g2\u8g2\csrc/u8x8_d_pcf8812.c ****       
 150:..\..\..\u8g2\u8g2\csrc/u8x8_d_pcf8812.c ****       u8x8_cad_EndTransfer(u8x8);
 151:..\..\..\u8g2\u8g2\csrc/u8x8_d_pcf8812.c ****       break;
 152:..\..\..\u8g2\u8g2\csrc/u8x8_d_pcf8812.c ****     default:
 153:..\..\..\u8g2\u8g2\csrc/u8x8_d_pcf8812.c ****       return 0;
 154:..\..\..\u8g2\u8g2\csrc/u8x8_d_pcf8812.c ****   }
 155:..\..\..\u8g2\u8g2\csrc/u8x8_d_pcf8812.c ****   return 1;
 156:..\..\..\u8g2\u8g2\csrc/u8x8_d_pcf8812.c **** }
 157:..\..\..\u8g2\u8g2\csrc/u8x8_d_pcf8812.c **** 
 158:..\..\..\u8g2\u8g2\csrc/u8x8_d_pcf8812.c **** 
 159:..\..\..\u8g2\u8g2\csrc/u8x8_d_pcf8812.c **** static const u8x8_display_info_t u8x8_pcf8812_96x65_display_info =
 160:..\..\..\u8g2\u8g2\csrc/u8x8_d_pcf8812.c **** {
 161:..\..\..\u8g2\u8g2\csrc/u8x8_d_pcf8812.c ****   /* chip_enable_level = */ 0,
 162:..\..\..\u8g2\u8g2\csrc/u8x8_d_pcf8812.c ****   /* chip_disable_level = */ 1,
 163:..\..\..\u8g2\u8g2\csrc/u8x8_d_pcf8812.c ****   
 164:..\..\..\u8g2\u8g2\csrc/u8x8_d_pcf8812.c ****   /* post_chip_enable_wait_ns = */ 100,
 165:..\..\..\u8g2\u8g2\csrc/u8x8_d_pcf8812.c ****   /* pre_chip_disable_wait_ns = */ 100,
 166:..\..\..\u8g2\u8g2\csrc/u8x8_d_pcf8812.c ****   /* reset_pulse_width_ms = */ 100, 
 167:..\..\..\u8g2\u8g2\csrc/u8x8_d_pcf8812.c ****   /* post_reset_wait_ms = */ 100, 
 168:..\..\..\u8g2\u8g2\csrc/u8x8_d_pcf8812.c ****   /* sda_setup_time_ns = */ 100,	
 169:..\..\..\u8g2\u8g2\csrc/u8x8_d_pcf8812.c ****   /* sck_pulse_width_ns = */ 100,	
 170:..\..\..\u8g2\u8g2\csrc/u8x8_d_pcf8812.c ****   /* sck_clock_hz = */ 4000000UL,	/* since Arduino 1.6.0, the SPI bus speed in Hz. Should be  10000
 171:..\..\..\u8g2\u8g2\csrc/u8x8_d_pcf8812.c ****   /* spi_mode = */ 0,		/* active high, rising edge */
 172:..\..\..\u8g2\u8g2\csrc/u8x8_d_pcf8812.c ****   /* i2c_bus_clock_100kHz = */ 4,
 173:..\..\..\u8g2\u8g2\csrc/u8x8_d_pcf8812.c ****   /* data_setup_time_ns = */ 40,
 174:..\..\..\u8g2\u8g2\csrc/u8x8_d_pcf8812.c ****   /* write_pulse_width_ns = */ 150,	
 175:..\..\..\u8g2\u8g2\csrc/u8x8_d_pcf8812.c ****   /* tile_width = */ 12,
 176:..\..\..\u8g2\u8g2\csrc/u8x8_d_pcf8812.c ****   /* tile_hight = */ 9,
 177:..\..\..\u8g2\u8g2\csrc/u8x8_d_pcf8812.c ****   /* default_x_offset = */ 0,
 178:..\..\..\u8g2\u8g2\csrc/u8x8_d_pcf8812.c ****   /* flipmode_x_offset = */ 0,
 179:..\..\..\u8g2\u8g2\csrc/u8x8_d_pcf8812.c ****   /* pixel_width = */ 96,
 180:..\..\..\u8g2\u8g2\csrc/u8x8_d_pcf8812.c ****   /* pixel_height = */ 65
 181:..\..\..\u8g2\u8g2\csrc/u8x8_d_pcf8812.c **** };
 182:..\..\..\u8g2\u8g2\csrc/u8x8_d_pcf8812.c **** 
 183:..\..\..\u8g2\u8g2\csrc/u8x8_d_pcf8812.c **** uint8_t u8x8_d_pcf8812_96x65(u8x8_t *u8x8, uint8_t msg, uint8_t arg_int, void *arg_ptr)
 184:..\..\..\u8g2\u8g2\csrc/u8x8_d_pcf8812.c **** {
  28              		.loc 1 184 0
  29              		.cfi_startproc
  30              		@ args = 0, pretend = 0, frame = 0
  31              		@ frame_needed = 0, uses_anonymous_args = 0
  32              	.LVL0:
 185:..\..\..\u8g2\u8g2\csrc/u8x8_d_pcf8812.c ****     if ( msg == U8X8_MSG_DISPLAY_SETUP_MEMORY )
  33              		.loc 1 185 0
  34 0000 0929     		cmp	r1, #9
 184:..\..\..\u8g2\u8g2\csrc/u8x8_d_pcf8812.c ****     if ( msg == U8X8_MSG_DISPLAY_SETUP_MEMORY )
  35              		.loc 1 184 0
  36 0002 F8B5     		push	{r3, r4, r5, r6, r7, lr}
  37              		.cfi_def_cfa_offset 24
  38              		.cfi_offset 3, -24
  39              		.cfi_offset 4, -20
  40              		.cfi_offset 5, -16
  41              		.cfi_offset 6, -12
  42              		.cfi_offset 7, -8
ARM GAS  C:\Users\jesse\AppData\Local\Temp\ccb0z44h.s 			page 5


  43              		.cfi_offset 14, -4
 184:..\..\..\u8g2\u8g2\csrc/u8x8_d_pcf8812.c ****     if ( msg == U8X8_MSG_DISPLAY_SETUP_MEMORY )
  44              		.loc 1 184 0
  45 0004 0446     		mov	r4, r0
  46 0006 1546     		mov	r5, r2
  47 0008 1F46     		mov	r7, r3
  48              		.loc 1 185 0
  49 000a 03D1     		bne	.L2
 186:..\..\..\u8g2\u8g2\csrc/u8x8_d_pcf8812.c ****     {
 187:..\..\..\u8g2\u8g2\csrc/u8x8_d_pcf8812.c ****       u8x8_d_helper_display_setup_memory(u8x8, &u8x8_pcf8812_96x65_display_info);
  50              		.loc 1 187 0
  51 000c 2749     		ldr	r1, .L17
  52              	.LVL1:
  53 000e FFF7FEFF 		bl	u8x8_d_helper_display_setup_memory
  54              	.LVL2:
  55 0012 47E0     		b	.L14
  56              	.LVL3:
  57              	.L2:
  58              	.LBB4:
  59              	.LBB5:
  85:..\..\..\u8g2\u8g2\csrc/u8x8_d_pcf8812.c ****   {
  60              		.loc 1 85 0
  61 0014 0A39     		subs	r1, r1, #10
  62              	.LVL4:
  63 0016 0529     		cmp	r1, #5
  64 0018 46D8     		bhi	.L11
  65 001a DFE801F0 		tbb	[pc, r1]
  66              	.LVL5:
  67              	.L5:
  68 001e 03       		.byte	(.L4-.L5)/2
  69 001f 07       		.byte	(.L6-.L5)/2
  70 0020 45       		.byte	(.L11-.L5)/2
  71 0021 45       		.byte	(.L11-.L5)/2
  72 0022 0F       		.byte	(.L7-.L5)/2
  73 0023 1C       		.byte	(.L8-.L5)/2
  74              		.p2align 1
  75              	.L4:
  93:..\..\..\u8g2\u8g2\csrc/u8x8_d_pcf8812.c ****       u8x8_cad_SendSequence(u8x8, u8x8_d_pcf8812_96x65_init_seq);    
  76              		.loc 1 93 0
  77 0024 FFF7FEFF 		bl	u8x8_d_helper_display_init
  78              	.LVL6:
  94:..\..\..\u8g2\u8g2\csrc/u8x8_d_pcf8812.c ****       break;
  79              		.loc 1 94 0
  80 0028 2149     		ldr	r1, .L17+4
  81 002a 03E0     		b	.L15
  82              	.LVL7:
  83              	.L6:
  97:..\..\..\u8g2\u8g2\csrc/u8x8_d_pcf8812.c **** 	u8x8_cad_SendSequence(u8x8, u8x8_d_pcf8812_96x65_powersave0_seq);
  84              		.loc 1 97 0
  85 002c 0AB9     		cbnz	r2, .L9
  98:..\..\..\u8g2\u8g2\csrc/u8x8_d_pcf8812.c ****       else
  86              		.loc 1 98 0
  87 002e 2149     		ldr	r1, .L17+8
  88 0030 00E0     		b	.L15
  89              	.L9:
 100:..\..\..\u8g2\u8g2\csrc/u8x8_d_pcf8812.c ****       break;
  90              		.loc 1 100 0
ARM GAS  C:\Users\jesse\AppData\Local\Temp\ccb0z44h.s 			page 6


  91 0032 2149     		ldr	r1, .L17+12
  92              	.LVL8:
  93              	.L15:
  94 0034 2046     		mov	r0, r4
  95 0036 FFF7FEFF 		bl	u8x8_cad_SendSequence
  96              	.LVL9:
  97 003a 33E0     		b	.L14
  98              	.LVL10:
  99              	.L7:
 118:..\..\..\u8g2\u8g2\csrc/u8x8_d_pcf8812.c ****       u8x8_cad_SendCmd(u8x8, 0x021 );    /* command mode, extended function set */
 100              		.loc 1 118 0
 101 003c FFF7FEFF 		bl	u8x8_cad_StartTransfer
 102              	.LVL11:
 119:..\..\..\u8g2\u8g2\csrc/u8x8_d_pcf8812.c ****       u8x8_cad_SendArg(u8x8, (arg_int>>1)|0x80 );	/* 0..127 for contrast */
 103              		.loc 1 119 0
 104 0040 2121     		movs	r1, #33
 105 0042 2046     		mov	r0, r4
 106 0044 FFF7FEFF 		bl	u8x8_cad_SendCmd
 107              	.LVL12:
 120:..\..\..\u8g2\u8g2\csrc/u8x8_d_pcf8812.c ****       u8x8_cad_EndTransfer(u8x8);
 108              		.loc 1 120 0
 109 0048 6908     		lsrs	r1, r5, #1
 110 004a 41F08001 		orr	r1, r1, #128
 111 004e 2046     		mov	r0, r4
 112 0050 FFF7FEFF 		bl	u8x8_cad_SendArg
 113              	.LVL13:
 114 0054 23E0     		b	.L13
 115              	.LVL14:
 116              	.L8:
 125:..\..\..\u8g2\u8g2\csrc/u8x8_d_pcf8812.c ****       x = ((u8x8_tile_t *)arg_ptr)->x_pos;    
 117              		.loc 1 125 0
 118 0056 FFF7FEFF 		bl	u8x8_cad_StartTransfer
 119              	.LVL15:
 128:..\..\..\u8g2\u8g2\csrc/u8x8_d_pcf8812.c ****     
 120              		.loc 1 128 0
 121 005a 94F82230 		ldrb	r3, [r4, #34]	@ zero_extendqisi2
 126:..\..\..\u8g2\u8g2\csrc/u8x8_d_pcf8812.c ****       x *= 8;
 122              		.loc 1 126 0
 123 005e 7E79     		ldrb	r6, [r7, #5]	@ zero_extendqisi2
 124              	.LVL16:
 130:..\..\..\u8g2\u8g2\csrc/u8x8_d_pcf8812.c ****       u8x8_cad_SendCmd(u8x8, 0x080 | x);
 125              		.loc 1 130 0
 126 0060 2021     		movs	r1, #32
 128:..\..\..\u8g2\u8g2\csrc/u8x8_d_pcf8812.c ****     
 127              		.loc 1 128 0
 128 0062 03EBC606 		add	r6, r3, r6, lsl #3
 129              	.LVL17:
 130 0066 06F0FF06 		and	r6, r6, #255
 131              	.LVL18:
 130:..\..\..\u8g2\u8g2\csrc/u8x8_d_pcf8812.c ****       u8x8_cad_SendCmd(u8x8, 0x080 | x);
 132              		.loc 1 130 0
 133 006a 2046     		mov	r0, r4
 134 006c FFF7FEFF 		bl	u8x8_cad_SendCmd
 135              	.LVL19:
 131:..\..\..\u8g2\u8g2\csrc/u8x8_d_pcf8812.c ****       u8x8_cad_SendCmd(u8x8, 0x040 | ((u8x8_tile_t *)arg_ptr)->y_pos);
 136              		.loc 1 131 0
 137 0070 46F08001 		orr	r1, r6, #128
ARM GAS  C:\Users\jesse\AppData\Local\Temp\ccb0z44h.s 			page 7


 138 0074 2046     		mov	r0, r4
 139 0076 FFF7FEFF 		bl	u8x8_cad_SendCmd
 140              	.LVL20:
 132:..\..\..\u8g2\u8g2\csrc/u8x8_d_pcf8812.c ****       
 141              		.loc 1 132 0
 142 007a B979     		ldrb	r1, [r7, #6]	@ zero_extendqisi2
 143 007c 2046     		mov	r0, r4
 144 007e 41F04001 		orr	r1, r1, #64
 145 0082 FFF7FEFF 		bl	u8x8_cad_SendCmd
 146              	.LVL21:
 147              	.L10:
 138:..\..\..\u8g2\u8g2\csrc/u8x8_d_pcf8812.c **** 	/*
 148              		.loc 1 138 0
 149 0086 3979     		ldrb	r1, [r7, #4]	@ zero_extendqisi2
 150 0088 3A68     		ldr	r2, [r7]
 151 008a C900     		lsls	r1, r1, #3
 152 008c 01F0F801 		and	r1, r1, #248
 153 0090 2046     		mov	r0, r4
 147:..\..\..\u8g2\u8g2\csrc/u8x8_d_pcf8812.c ****       } while( arg_int > 0 );
 154              		.loc 1 147 0
 155 0092 013D     		subs	r5, r5, #1
 156              	.LVL22:
 138:..\..\..\u8g2\u8g2\csrc/u8x8_d_pcf8812.c **** 	/*
 157              		.loc 1 138 0
 158 0094 FFF7FEFF 		bl	u8x8_cad_SendData
 159              	.LVL23:
 148:..\..\..\u8g2\u8g2\csrc/u8x8_d_pcf8812.c ****       
 160              		.loc 1 148 0
 161 0098 15F0FF05 		ands	r5, r5, #255
 162              	.LVL24:
 163 009c F3D1     		bne	.L10
 164              	.LVL25:
 165              	.L13:
 150:..\..\..\u8g2\u8g2\csrc/u8x8_d_pcf8812.c ****       break;
 166              		.loc 1 150 0
 167 009e 2046     		mov	r0, r4
 168 00a0 FFF7FEFF 		bl	u8x8_cad_EndTransfer
 169              	.LVL26:
 170              	.L14:
 155:..\..\..\u8g2\u8g2\csrc/u8x8_d_pcf8812.c **** }
 171              		.loc 1 155 0
 172 00a4 0120     		movs	r0, #1
 173 00a6 F8BD     		pop	{r3, r4, r5, r6, r7, pc}
 174              	.LVL27:
 175              	.L11:
 153:..\..\..\u8g2\u8g2\csrc/u8x8_d_pcf8812.c ****   }
 176              		.loc 1 153 0
 177 00a8 0020     		movs	r0, #0
 178              	.LVL28:
 179              	.LBE5:
 180              	.LBE4:
 188:..\..\..\u8g2\u8g2\csrc/u8x8_d_pcf8812.c ****       return 1;
 189:..\..\..\u8g2\u8g2\csrc/u8x8_d_pcf8812.c ****     }
 190:..\..\..\u8g2\u8g2\csrc/u8x8_d_pcf8812.c ****     return u8x8_d_pcf8812_96x65_generic(u8x8, msg, arg_int, arg_ptr);
 191:..\..\..\u8g2\u8g2\csrc/u8x8_d_pcf8812.c **** }
 181              		.loc 1 191 0
 182 00aa F8BD     		pop	{r3, r4, r5, r6, r7, pc}
ARM GAS  C:\Users\jesse\AppData\Local\Temp\ccb0z44h.s 			page 8


 183              	.LVL29:
 184              	.L18:
 185              		.align	2
 186              	.L17:
 187 00ac 00000000 		.word	.LANCHOR0
 188 00b0 18000000 		.word	.LANCHOR0+24
 189 00b4 29000000 		.word	.LANCHOR0+41
 190 00b8 30000000 		.word	.LANCHOR0+48
 191              		.cfi_endproc
 192              	.LFE1:
 193              		.size	u8x8_d_pcf8812_96x65, .-u8x8_d_pcf8812_96x65
 194              		.section	.rodata
 195              		.align	2
 196              		.set	.LANCHOR0,. + 0
 197              		.type	u8x8_pcf8812_96x65_display_info, %object
 198              		.size	u8x8_pcf8812_96x65_display_info, 24
 199              	u8x8_pcf8812_96x65_display_info:
 200 0000 00       		.byte	0
 201 0001 01       		.byte	1
 202 0002 64       		.byte	100
 203 0003 64       		.byte	100
 204 0004 64       		.byte	100
 205 0005 64       		.byte	100
 206 0006 64       		.byte	100
 207 0007 64       		.byte	100
 208 0008 00093D00 		.word	4000000
 209 000c 00       		.byte	0
 210 000d 04       		.byte	4
 211 000e 28       		.byte	40
 212 000f 96       		.byte	-106
 213 0010 0C       		.byte	12
 214 0011 09       		.byte	9
 215 0012 00       		.byte	0
 216 0013 00       		.byte	0
 217 0014 6000     		.short	96
 218 0016 4100     		.short	65
 219              		.type	u8x8_d_pcf8812_96x65_init_seq, %object
 220              		.size	u8x8_d_pcf8812_96x65_init_seq, 17
 221              	u8x8_d_pcf8812_96x65_init_seq:
 222 0018 18       		.byte	24
 223 0019 15       		.byte	21
 224 001a 20       		.byte	32
 225 001b 15       		.byte	21
 226 001c 08       		.byte	8
 227 001d 15       		.byte	21
 228 001e 21       		.byte	33
 229 001f 15       		.byte	21
 230 0020 06       		.byte	6
 231 0021 15       		.byte	21
 232 0022 13       		.byte	19
 233 0023 15       		.byte	21
 234 0024 9F       		.byte	-97
 235 0025 15       		.byte	21
 236 0026 24       		.byte	36
 237 0027 19       		.byte	25
 238 0028 FF       		.byte	-1
 239              		.type	u8x8_d_pcf8812_96x65_powersave0_seq, %object
ARM GAS  C:\Users\jesse\AppData\Local\Temp\ccb0z44h.s 			page 9


 240              		.size	u8x8_d_pcf8812_96x65_powersave0_seq, 7
 241              	u8x8_d_pcf8812_96x65_powersave0_seq:
 242 0029 18       		.byte	24
 243 002a 15       		.byte	21
 244 002b 20       		.byte	32
 245 002c 15       		.byte	21
 246 002d 0C       		.byte	12
 247 002e 19       		.byte	25
 248 002f FF       		.byte	-1
 249              		.type	u8x8_d_pcf8812_96x65_powersave1_seq, %object
 250              		.size	u8x8_d_pcf8812_96x65_powersave1_seq, 9
 251              	u8x8_d_pcf8812_96x65_powersave1_seq:
 252 0030 18       		.byte	24
 253 0031 15       		.byte	21
 254 0032 20       		.byte	32
 255 0033 15       		.byte	21
 256 0034 08       		.byte	8
 257 0035 15       		.byte	21
 258 0036 24       		.byte	36
 259 0037 19       		.byte	25
 260 0038 FF       		.byte	-1
 261              		.text
 262              	.Letext0:
 263              		.file 2 "c:\\program files (x86)\\cypress\\psoc creator\\4.4\\psoc creator\\import\\gnu\\arm\\5.4.
 264              		.file 3 "c:\\program files (x86)\\cypress\\psoc creator\\4.4\\psoc creator\\import\\gnu\\arm\\5.4.
 265              		.file 4 "..\\..\\..\\u8g2\\u8g2\\csrc\\u8x8.h"