ARM GAS  C:\Users\jesse\AppData\Local\Temp\ccK0Ibcc.s 			page 1


   1              		.syntax unified
   2              		.cpu cortex-m3
   3              		.fpu softvfp
   4              		.eabi_attribute 20, 1
   5              		.eabi_attribute 21, 1
   6              		.eabi_attribute 23, 3
   7              		.eabi_attribute 24, 1
   8              		.eabi_attribute 25, 1
   9              		.eabi_attribute 26, 1
  10              		.eabi_attribute 30, 4
  11              		.eabi_attribute 34, 1
  12              		.eabi_attribute 18, 4
  13              		.thumb
  14              		.syntax unified
  15              		.file	"u8x8_capture.c"
  16              		.text
  17              	.Ltext0:
  18              		.cfi_sections	.debug_frame
  19              		.section	.text.u8x8_capture_get_pixel_1,"ax",%progbits
  20              		.align	1
  21              		.global	u8x8_capture_get_pixel_1
  22              		.thumb
  23              		.thumb_func
  24              		.type	u8x8_capture_get_pixel_1, %function
  25              	u8x8_capture_get_pixel_1:
  26              	.LFB0:
  27              		.file 1 "..\\..\\..\\u8g2\\u8g2\\csrc\\u8x8_capture.c"
   1:..\..\..\u8g2\u8g2\csrc/u8x8_capture.c **** /*
   2:..\..\..\u8g2\u8g2\csrc/u8x8_capture.c **** 
   3:..\..\..\u8g2\u8g2\csrc/u8x8_capture.c ****   u8x8_capture.c
   4:..\..\..\u8g2\u8g2\csrc/u8x8_capture.c ****   
   5:..\..\..\u8g2\u8g2\csrc/u8x8_capture.c ****   Screen capture funcion
   6:..\..\..\u8g2\u8g2\csrc/u8x8_capture.c ****   
   7:..\..\..\u8g2\u8g2\csrc/u8x8_capture.c ****   Universal 8bit Graphics Library (https://github.com/olikraus/u8g2/)
   8:..\..\..\u8g2\u8g2\csrc/u8x8_capture.c **** 
   9:..\..\..\u8g2\u8g2\csrc/u8x8_capture.c ****   Copyright (c) 2016, olikraus@gmail.com
  10:..\..\..\u8g2\u8g2\csrc/u8x8_capture.c ****   All rights reserved.
  11:..\..\..\u8g2\u8g2\csrc/u8x8_capture.c **** 
  12:..\..\..\u8g2\u8g2\csrc/u8x8_capture.c ****   Redistribution and use in source and binary forms, with or without modification, 
  13:..\..\..\u8g2\u8g2\csrc/u8x8_capture.c ****   are permitted provided that the following conditions are met:
  14:..\..\..\u8g2\u8g2\csrc/u8x8_capture.c **** 
  15:..\..\..\u8g2\u8g2\csrc/u8x8_capture.c ****   * Redistributions of source code must retain the above copyright notice, this list 
  16:..\..\..\u8g2\u8g2\csrc/u8x8_capture.c ****     of conditions and the following disclaimer.
  17:..\..\..\u8g2\u8g2\csrc/u8x8_capture.c ****     
  18:..\..\..\u8g2\u8g2\csrc/u8x8_capture.c ****   * Redistributions in binary form must reproduce the above copyright notice, this 
  19:..\..\..\u8g2\u8g2\csrc/u8x8_capture.c ****     list of conditions and the following disclaimer in the documentation and/or other 
  20:..\..\..\u8g2\u8g2\csrc/u8x8_capture.c ****     materials provided with the distribution.
  21:..\..\..\u8g2\u8g2\csrc/u8x8_capture.c **** 
  22:..\..\..\u8g2\u8g2\csrc/u8x8_capture.c ****   THIS SOFTWARE IS PROVIDED BY THE COPYRIGHT HOLDERS AND 
  23:..\..\..\u8g2\u8g2\csrc/u8x8_capture.c ****   CONTRIBUTORS "AS IS" AND ANY EXPRESS OR IMPLIED WARRANTIES, 
  24:..\..\..\u8g2\u8g2\csrc/u8x8_capture.c ****   INCLUDING, BUT NOT LIMITED TO, THE IMPLIED WARRANTIES OF 
  25:..\..\..\u8g2\u8g2\csrc/u8x8_capture.c ****   MERCHANTABILITY AND FITNESS FOR A PARTICULAR PURPOSE ARE 
  26:..\..\..\u8g2\u8g2\csrc/u8x8_capture.c ****   DISCLAIMED. IN NO EVENT SHALL THE COPYRIGHT HOLDER OR 
  27:..\..\..\u8g2\u8g2\csrc/u8x8_capture.c ****   CONTRIBUTORS BE LIABLE FOR ANY DIRECT, INDIRECT, INCIDENTAL, 
  28:..\..\..\u8g2\u8g2\csrc/u8x8_capture.c ****   SPECIAL, EXEMPLARY, OR CONSEQUENTIAL DAMAGES (INCLUDING, BUT 
  29:..\..\..\u8g2\u8g2\csrc/u8x8_capture.c ****   NOT LIMITED TO, PROCUREMENT OF SUBSTITUTE GOODS OR SERVICES; 
  30:..\..\..\u8g2\u8g2\csrc/u8x8_capture.c ****   LOSS OF USE, DATA, OR PROFITS; OR BUSINESS INTERRUPTION) HOWEVER 
ARM GAS  C:\Users\jesse\AppData\Local\Temp\ccK0Ibcc.s 			page 2


  31:..\..\..\u8g2\u8g2\csrc/u8x8_capture.c ****   CAUSED AND ON ANY THEORY OF LIABILITY, WHETHER IN CONTRACT, 
  32:..\..\..\u8g2\u8g2\csrc/u8x8_capture.c ****   STRICT LIABILITY, OR TORT (INCLUDING NEGLIGENCE OR OTHERWISE) 
  33:..\..\..\u8g2\u8g2\csrc/u8x8_capture.c ****   ARISING IN ANY WAY OUT OF THE USE OF THIS SOFTWARE, EVEN IF 
  34:..\..\..\u8g2\u8g2\csrc/u8x8_capture.c ****   ADVISED OF THE POSSIBILITY OF SUCH DAMAGE.  
  35:..\..\..\u8g2\u8g2\csrc/u8x8_capture.c **** 
  36:..\..\..\u8g2\u8g2\csrc/u8x8_capture.c **** 
  37:..\..\..\u8g2\u8g2\csrc/u8x8_capture.c **** */
  38:..\..\..\u8g2\u8g2\csrc/u8x8_capture.c **** 
  39:..\..\..\u8g2\u8g2\csrc/u8x8_capture.c **** #include "u8x8.h"
  40:..\..\..\u8g2\u8g2\csrc/u8x8_capture.c **** 
  41:..\..\..\u8g2\u8g2\csrc/u8x8_capture.c **** /*========================================================*/
  42:..\..\..\u8g2\u8g2\csrc/u8x8_capture.c **** 
  43:..\..\..\u8g2\u8g2\csrc/u8x8_capture.c **** 
  44:..\..\..\u8g2\u8g2\csrc/u8x8_capture.c **** /* vertical top lsb memory architecture */
  45:..\..\..\u8g2\u8g2\csrc/u8x8_capture.c **** uint8_t u8x8_capture_get_pixel_1(uint16_t x, uint16_t y, uint8_t *dest_ptr, uint8_t tile_width)
  46:..\..\..\u8g2\u8g2\csrc/u8x8_capture.c **** {
  28              		.loc 1 46 0
  29              		.cfi_startproc
  30              		@ args = 0, pretend = 0, frame = 0
  31              		@ frame_needed = 0, uses_anonymous_args = 0
  32              	.LVL0:
  33 0000 10B5     		push	{r4, lr}
  34              		.cfi_def_cfa_offset 8
  35              		.cfi_offset 4, -8
  36              		.cfi_offset 14, -4
  47:..\..\..\u8g2\u8g2\csrc/u8x8_capture.c ****   //uint8_t *dest_ptr = capture->buffer;
  48:..\..\..\u8g2\u8g2\csrc/u8x8_capture.c ****   //if ( dest_ptr == NULL )
  49:..\..\..\u8g2\u8g2\csrc/u8x8_capture.c ****     //return 0;
  50:..\..\..\u8g2\u8g2\csrc/u8x8_capture.c ****   //dest_ptr += (y/8)*capture->tile_width*8;
  51:..\..\..\u8g2\u8g2\csrc/u8x8_capture.c ****   dest_ptr += (y/8)*tile_width*8;
  52:..\..\..\u8g2\u8g2\csrc/u8x8_capture.c ****   y &= 7;
  53:..\..\..\u8g2\u8g2\csrc/u8x8_capture.c ****   dest_ptr += x;
  54:..\..\..\u8g2\u8g2\csrc/u8x8_capture.c ****   if ( (*dest_ptr & (1<<y)) == 0 )
  37              		.loc 1 54 0
  38 0002 CC08     		lsrs	r4, r1, #3
  39 0004 6343     		muls	r3, r4, r3
  40              	.LVL1:
  41 0006 02EBC302 		add	r2, r2, r3, lsl #3
  42              	.LVL2:
  43 000a 105C     		ldrb	r0, [r2, r0]	@ zero_extendqisi2
  44              	.LVL3:
  45 000c 01F00701 		and	r1, r1, #7
  46              	.LVL4:
  47 0010 0841     		asrs	r0, r0, r1
  55:..\..\..\u8g2\u8g2\csrc/u8x8_capture.c ****     return 0;
  56:..\..\..\u8g2\u8g2\csrc/u8x8_capture.c ****   return 1;
  57:..\..\..\u8g2\u8g2\csrc/u8x8_capture.c **** }
  48              		.loc 1 57 0
  49 0012 00F00100 		and	r0, r0, #1
  50 0016 10BD     		pop	{r4, pc}
  51              		.cfi_endproc
  52              	.LFE0:
  53              		.size	u8x8_capture_get_pixel_1, .-u8x8_capture_get_pixel_1
  54              		.section	.text.u8x8_capture_get_pixel_2,"ax",%progbits
  55              		.align	1
  56              		.global	u8x8_capture_get_pixel_2
  57              		.thumb
ARM GAS  C:\Users\jesse\AppData\Local\Temp\ccK0Ibcc.s 			page 3


  58              		.thumb_func
  59              		.type	u8x8_capture_get_pixel_2, %function
  60              	u8x8_capture_get_pixel_2:
  61              	.LFB1:
  58:..\..\..\u8g2\u8g2\csrc/u8x8_capture.c **** 
  59:..\..\..\u8g2\u8g2\csrc/u8x8_capture.c **** /* horizontal right lsb memory architecture */
  60:..\..\..\u8g2\u8g2\csrc/u8x8_capture.c **** /* SH1122, LD7032, ST7920, ST7986, LC7981, T6963, SED1330, RA8835, MAX7219, LS0 */ 
  61:..\..\..\u8g2\u8g2\csrc/u8x8_capture.c **** uint8_t u8x8_capture_get_pixel_2(uint16_t x, uint16_t y, uint8_t *dest_ptr, uint8_t tile_width)
  62:..\..\..\u8g2\u8g2\csrc/u8x8_capture.c **** {
  62              		.loc 1 62 0
  63              		.cfi_startproc
  64              		@ args = 0, pretend = 0, frame = 0
  65              		@ frame_needed = 0, uses_anonymous_args = 0
  66              		@ link register save eliminated.
  67              	.LVL5:
  63:..\..\..\u8g2\u8g2\csrc/u8x8_capture.c ****   //uint8_t *dest_ptr = capture->buffer;
  64:..\..\..\u8g2\u8g2\csrc/u8x8_capture.c ****   //if ( dest_ptr == NULL )
  65:..\..\..\u8g2\u8g2\csrc/u8x8_capture.c ****   //  return 0;
  66:..\..\..\u8g2\u8g2\csrc/u8x8_capture.c ****   //dest_ptr += y*capture->tile_width;
  67:..\..\..\u8g2\u8g2\csrc/u8x8_capture.c ****   y *= tile_width;
  68:..\..\..\u8g2\u8g2\csrc/u8x8_capture.c ****   dest_ptr += y;
  69:..\..\..\u8g2\u8g2\csrc/u8x8_capture.c ****   dest_ptr += x>>3;
  70:..\..\..\u8g2\u8g2\csrc/u8x8_capture.c ****   if ( (*dest_ptr & (128>>(x&7))) == 0 )
  68              		.loc 1 70 0
  69 0000 4B43     		muls	r3, r1, r3
  70              	.LVL6:
  71 0002 02EBD002 		add	r2, r2, r0, lsr #3
  72              	.LVL7:
  73 0006 9BB2     		uxth	r3, r3
  74 0008 D25C     		ldrb	r2, [r2, r3]	@ zero_extendqisi2
  75 000a 00F00700 		and	r0, r0, #7
  76              	.LVL8:
  77 000e 8023     		movs	r3, #128
  78 0010 43FA00F0 		asr	r0, r3, r0
  79 0014 0242     		tst	r2, r0
  71:..\..\..\u8g2\u8g2\csrc/u8x8_capture.c ****     return 0;
  72:..\..\..\u8g2\u8g2\csrc/u8x8_capture.c ****   return 1;
  73:..\..\..\u8g2\u8g2\csrc/u8x8_capture.c **** }
  80              		.loc 1 73 0
  81 0016 14BF     		ite	ne
  82 0018 0120     		movne	r0, #1
  83 001a 0020     		moveq	r0, #0
  84 001c 7047     		bx	lr
  85              		.cfi_endproc
  86              	.LFE1:
  87              		.size	u8x8_capture_get_pixel_2, .-u8x8_capture_get_pixel_2
  88              		.section	.text.u8x8_capture_write_pbm_pre,"ax",%progbits
  89              		.align	1
  90              		.global	u8x8_capture_write_pbm_pre
  91              		.thumb
  92              		.thumb_func
  93              		.type	u8x8_capture_write_pbm_pre, %function
  94              	u8x8_capture_write_pbm_pre:
  95              	.LFB2:
  74:..\..\..\u8g2\u8g2\csrc/u8x8_capture.c **** 
  75:..\..\..\u8g2\u8g2\csrc/u8x8_capture.c **** void u8x8_capture_write_pbm_pre(uint8_t tile_width, uint8_t tile_height, void (*out)(const char *s)
  76:..\..\..\u8g2\u8g2\csrc/u8x8_capture.c **** {
ARM GAS  C:\Users\jesse\AppData\Local\Temp\ccK0Ibcc.s 			page 4


  96              		.loc 1 76 0
  97              		.cfi_startproc
  98              		@ args = 0, pretend = 0, frame = 0
  99              		@ frame_needed = 0, uses_anonymous_args = 0
 100              	.LVL9:
 101 0000 70B5     		push	{r4, r5, r6, lr}
 102              		.cfi_def_cfa_offset 16
 103              		.cfi_offset 4, -16
 104              		.cfi_offset 5, -12
 105              		.cfi_offset 6, -8
 106              		.cfi_offset 14, -4
 107              		.loc 1 76 0
 108 0002 0546     		mov	r5, r0
 109 0004 0E46     		mov	r6, r1
 110 0006 1446     		mov	r4, r2
  77:..\..\..\u8g2\u8g2\csrc/u8x8_capture.c ****   out("P1\n");
 111              		.loc 1 77 0
 112 0008 0848     		ldr	r0, .L4
 113              	.LVL10:
 114 000a 9047     		blx	r2
 115              	.LVL11:
  78:..\..\..\u8g2\u8g2\csrc/u8x8_capture.c ****   out(u8x8_utoa((uint16_t)tile_width*8));
 116              		.loc 1 78 0
 117 000c E800     		lsls	r0, r5, #3
  79:..\..\..\u8g2\u8g2\csrc/u8x8_capture.c ****   out("\n");
 118              		.loc 1 79 0
 119 000e 084D     		ldr	r5, .L4+4
  78:..\..\..\u8g2\u8g2\csrc/u8x8_capture.c ****   out(u8x8_utoa((uint16_t)tile_width*8));
 120              		.loc 1 78 0
 121 0010 FFF7FEFF 		bl	u8x8_utoa
 122              	.LVL12:
 123 0014 A047     		blx	r4
 124              	.LVL13:
 125              		.loc 1 79 0
 126 0016 2846     		mov	r0, r5
 127 0018 A047     		blx	r4
 128              	.LVL14:
  80:..\..\..\u8g2\u8g2\csrc/u8x8_capture.c ****   out(u8x8_utoa((uint16_t)tile_height*8));
 129              		.loc 1 80 0
 130 001a F000     		lsls	r0, r6, #3
 131 001c FFF7FEFF 		bl	u8x8_utoa
 132              	.LVL15:
 133 0020 A047     		blx	r4
 134              	.LVL16:
  81:..\..\..\u8g2\u8g2\csrc/u8x8_capture.c ****   out("\n");
 135              		.loc 1 81 0
 136 0022 2846     		mov	r0, r5
 137 0024 2346     		mov	r3, r4
  82:..\..\..\u8g2\u8g2\csrc/u8x8_capture.c **** }
 138              		.loc 1 82 0
 139 0026 BDE87040 		pop	{r4, r5, r6, lr}
 140              		.cfi_restore 14
 141              		.cfi_restore 6
 142              		.cfi_restore 5
 143              		.cfi_restore 4
 144              		.cfi_def_cfa_offset 0
 145              	.LVL17:
ARM GAS  C:\Users\jesse\AppData\Local\Temp\ccK0Ibcc.s 			page 5


  81:..\..\..\u8g2\u8g2\csrc/u8x8_capture.c ****   out("\n");
 146              		.loc 1 81 0
 147 002a 1847     		bx	r3	@ indirect register sibling call
 148              	.LVL18:
 149              	.L5:
 150              		.align	2
 151              	.L4:
 152 002c 00000000 		.word	.LC0
 153 0030 04000000 		.word	.LC1
 154              		.cfi_endproc
 155              	.LFE2:
 156              		.size	u8x8_capture_write_pbm_pre, .-u8x8_capture_write_pbm_pre
 157              		.section	.text.u8x8_capture_write_pbm_buffer,"ax",%progbits
 158              		.align	1
 159              		.global	u8x8_capture_write_pbm_buffer
 160              		.thumb
 161              		.thumb_func
 162              		.type	u8x8_capture_write_pbm_buffer, %function
 163              	u8x8_capture_write_pbm_buffer:
 164              	.LFB3:
  83:..\..\..\u8g2\u8g2\csrc/u8x8_capture.c **** 
  84:..\..\..\u8g2\u8g2\csrc/u8x8_capture.c **** 
  85:..\..\..\u8g2\u8g2\csrc/u8x8_capture.c **** void u8x8_capture_write_pbm_buffer(uint8_t *buffer, uint8_t tile_width, uint8_t tile_height, uint8_
  86:..\..\..\u8g2\u8g2\csrc/u8x8_capture.c **** {
 165              		.loc 1 86 0
 166              		.cfi_startproc
 167              		@ args = 4, pretend = 0, frame = 8
 168              		@ frame_needed = 0, uses_anonymous_args = 0
 169              	.LVL19:
 170 0000 2DE9F74F 		push	{r0, r1, r2, r4, r5, r6, r7, r8, r9, r10, fp, lr}
 171              		.cfi_def_cfa_offset 48
 172              		.cfi_offset 4, -36
 173              		.cfi_offset 5, -32
 174              		.cfi_offset 6, -28
 175              		.cfi_offset 7, -24
 176              		.cfi_offset 8, -20
 177              		.cfi_offset 9, -16
 178              		.cfi_offset 10, -12
 179              		.cfi_offset 11, -8
 180              		.cfi_offset 14, -4
 181              		.loc 1 86 0
 182 0004 8346     		mov	fp, r0
 183 0006 8846     		mov	r8, r1
 184 0008 0C9E     		ldr	r6, [sp, #48]
 185 000a 0193     		str	r3, [sp, #4]
  87:..\..\..\u8g2\u8g2\csrc/u8x8_capture.c ****   uint16_t x, y;
  88:..\..\..\u8g2\u8g2\csrc/u8x8_capture.c ****   uint16_t w, h;
  89:..\..\..\u8g2\u8g2\csrc/u8x8_capture.c **** 
  90:..\..\..\u8g2\u8g2\csrc/u8x8_capture.c ****   w = tile_width;
  91:..\..\..\u8g2\u8g2\csrc/u8x8_capture.c ****   w *= 8;
 186              		.loc 1 91 0
 187 000c 4FEAC109 		lsl	r9, r1, #3
 188              	.LVL20:
  92:..\..\..\u8g2\u8g2\csrc/u8x8_capture.c ****   h = tile_height;
  93:..\..\..\u8g2\u8g2\csrc/u8x8_capture.c ****   h *= 8;
 189              		.loc 1 93 0
 190 0010 4FEAC20A 		lsl	r10, r2, #3
ARM GAS  C:\Users\jesse\AppData\Local\Temp\ccK0Ibcc.s 			page 6


 191              	.LVL21:
  94:..\..\..\u8g2\u8g2\csrc/u8x8_capture.c ****     
  95:..\..\..\u8g2\u8g2\csrc/u8x8_capture.c ****   for( y = 0; y < h; y++)
 192              		.loc 1 95 0
 193 0014 0025     		movs	r5, #0
 194              	.LVL22:
 195              	.L7:
 196 0016 AFB2     		uxth	r7, r5
 197              	.LVL23:
 198              		.loc 1 95 0 is_stmt 0 discriminator 1
 199 0018 5745     		cmp	r7, r10
 200 001a 16D2     		bcs	.L6
 201 001c 0023     		movs	r3, #0
 202              	.L14:
 203 001e 0093     		str	r3, [sp]
 204 0020 BDF80000 		ldrh	r0, [sp]
 205              	.LVL24:
  96:..\..\..\u8g2\u8g2\csrc/u8x8_capture.c ****   {
  97:..\..\..\u8g2\u8g2\csrc/u8x8_capture.c ****     for( x = 0; x < w; x++)
 206              		.loc 1 97 0 is_stmt 1 discriminator 2
 207 0024 4845     		cmp	r0, r9
 208 0026 0CD2     		bcs	.L16
  98:..\..\..\u8g2\u8g2\csrc/u8x8_capture.c ****     {
  99:..\..\..\u8g2\u8g2\csrc/u8x8_capture.c ****       if ( get_pixel(x, y, buffer, tile_width) )
 209              		.loc 1 99 0
 210 0028 4346     		mov	r3, r8
 211 002a 5A46     		mov	r2, fp
 212 002c 3946     		mov	r1, r7
 213 002e 019C     		ldr	r4, [sp, #4]
 214 0030 A047     		blx	r4
 215              	.LVL25:
 216 0032 08B1     		cbz	r0, .L8
 100:..\..\..\u8g2\u8g2\csrc/u8x8_capture.c **** 	out("1");
 217              		.loc 1 100 0
 218 0034 0648     		ldr	r0, .L17
 219 0036 00E0     		b	.L13
 220              	.L8:
 101:..\..\..\u8g2\u8g2\csrc/u8x8_capture.c ****       else
 102:..\..\..\u8g2\u8g2\csrc/u8x8_capture.c **** 	out("0"); 	  
 221              		.loc 1 102 0
 222 0038 0648     		ldr	r0, .L17+4
 223              	.L13:
 224 003a B047     		blx	r6
 225              	.LVL26:
 226 003c 009B     		ldr	r3, [sp]
 227 003e 0133     		adds	r3, r3, #1
 228 0040 EDE7     		b	.L14
 229              	.LVL27:
 230              	.L16:
 103:..\..\..\u8g2\u8g2\csrc/u8x8_capture.c ****     }
 104:..\..\..\u8g2\u8g2\csrc/u8x8_capture.c ****     out("\n");
 231              		.loc 1 104 0 discriminator 2
 232 0042 0548     		ldr	r0, .L17+8
 233              	.LVL28:
 234 0044 B047     		blx	r6
 235              	.LVL29:
 236 0046 0135     		adds	r5, r5, #1
ARM GAS  C:\Users\jesse\AppData\Local\Temp\ccK0Ibcc.s 			page 7


 237              	.LVL30:
 238 0048 E5E7     		b	.L7
 239              	.LVL31:
 240              	.L6:
 105:..\..\..\u8g2\u8g2\csrc/u8x8_capture.c ****   }
 106:..\..\..\u8g2\u8g2\csrc/u8x8_capture.c **** }
 241              		.loc 1 106 0
 242 004a 03B0     		add	sp, sp, #12
 243              		.cfi_def_cfa_offset 36
 244              		@ sp needed
 245 004c BDE8F08F 		pop	{r4, r5, r6, r7, r8, r9, r10, fp, pc}
 246              	.LVL32:
 247              	.L18:
 248              		.align	2
 249              	.L17:
 250 0050 06000000 		.word	.LC2
 251 0054 08000000 		.word	.LC3
 252 0058 04000000 		.word	.LC1
 253              		.cfi_endproc
 254              	.LFE3:
 255              		.size	u8x8_capture_write_pbm_buffer, .-u8x8_capture_write_pbm_buffer
 256              		.section	.text.u8x8_capture_write_xbm_pre,"ax",%progbits
 257              		.align	1
 258              		.global	u8x8_capture_write_xbm_pre
 259              		.thumb
 260              		.thumb_func
 261              		.type	u8x8_capture_write_xbm_pre, %function
 262              	u8x8_capture_write_xbm_pre:
 263              	.LFB4:
 107:..\..\..\u8g2\u8g2\csrc/u8x8_capture.c **** 
 108:..\..\..\u8g2\u8g2\csrc/u8x8_capture.c **** 
 109:..\..\..\u8g2\u8g2\csrc/u8x8_capture.c **** 
 110:..\..\..\u8g2\u8g2\csrc/u8x8_capture.c **** 
 111:..\..\..\u8g2\u8g2\csrc/u8x8_capture.c **** void u8x8_capture_write_xbm_pre(uint8_t tile_width, uint8_t tile_height, void (*out)(const char *s)
 112:..\..\..\u8g2\u8g2\csrc/u8x8_capture.c **** {
 264              		.loc 1 112 0
 265              		.cfi_startproc
 266              		@ args = 0, pretend = 0, frame = 0
 267              		@ frame_needed = 0, uses_anonymous_args = 0
 268              	.LVL33:
 269 0000 70B5     		push	{r4, r5, r6, lr}
 270              		.cfi_def_cfa_offset 16
 271              		.cfi_offset 4, -16
 272              		.cfi_offset 5, -12
 273              		.cfi_offset 6, -8
 274              		.cfi_offset 14, -4
 275              		.loc 1 112 0
 276 0002 0546     		mov	r5, r0
 277 0004 0E46     		mov	r6, r1
 278 0006 1446     		mov	r4, r2
 113:..\..\..\u8g2\u8g2\csrc/u8x8_capture.c ****   out("#define xbm_width ");
 279              		.loc 1 113 0
 280 0008 0A48     		ldr	r0, .L20
 281              	.LVL34:
 282 000a 9047     		blx	r2
 283              	.LVL35:
 114:..\..\..\u8g2\u8g2\csrc/u8x8_capture.c ****   out(u8x8_utoa((uint16_t)tile_width*8));
ARM GAS  C:\Users\jesse\AppData\Local\Temp\ccK0Ibcc.s 			page 8


 284              		.loc 1 114 0
 285 000c E800     		lsls	r0, r5, #3
 115:..\..\..\u8g2\u8g2\csrc/u8x8_capture.c ****   out("\n");
 286              		.loc 1 115 0
 287 000e 0A4D     		ldr	r5, .L20+4
 114:..\..\..\u8g2\u8g2\csrc/u8x8_capture.c ****   out(u8x8_utoa((uint16_t)tile_width*8));
 288              		.loc 1 114 0
 289 0010 FFF7FEFF 		bl	u8x8_utoa
 290              	.LVL36:
 291 0014 A047     		blx	r4
 292              	.LVL37:
 293              		.loc 1 115 0
 294 0016 2846     		mov	r0, r5
 295 0018 A047     		blx	r4
 296              	.LVL38:
 116:..\..\..\u8g2\u8g2\csrc/u8x8_capture.c ****   out("#define xbm_height ");
 297              		.loc 1 116 0
 298 001a 0848     		ldr	r0, .L20+8
 299 001c A047     		blx	r4
 300              	.LVL39:
 117:..\..\..\u8g2\u8g2\csrc/u8x8_capture.c ****   out(u8x8_utoa((uint16_t)tile_height*8));
 301              		.loc 1 117 0
 302 001e F000     		lsls	r0, r6, #3
 303 0020 FFF7FEFF 		bl	u8x8_utoa
 304              	.LVL40:
 305 0024 A047     		blx	r4
 306              	.LVL41:
 118:..\..\..\u8g2\u8g2\csrc/u8x8_capture.c ****   out("\n");  
 307              		.loc 1 118 0
 308 0026 2846     		mov	r0, r5
 309 0028 A047     		blx	r4
 310              	.LVL42:
 119:..\..\..\u8g2\u8g2\csrc/u8x8_capture.c ****   out("static unsigned char xbm_bits[] = {\n");  
 311              		.loc 1 119 0
 312 002a 2346     		mov	r3, r4
 120:..\..\..\u8g2\u8g2\csrc/u8x8_capture.c **** }
 313              		.loc 1 120 0
 314 002c BDE87040 		pop	{r4, r5, r6, lr}
 315              		.cfi_restore 14
 316              		.cfi_restore 6
 317              		.cfi_restore 5
 318              		.cfi_restore 4
 319              		.cfi_def_cfa_offset 0
 320              	.LVL43:
 119:..\..\..\u8g2\u8g2\csrc/u8x8_capture.c ****   out("static unsigned char xbm_bits[] = {\n");  
 321              		.loc 1 119 0
 322 0030 0348     		ldr	r0, .L20+12
 323 0032 1847     		bx	r3	@ indirect register sibling call
 324              	.LVL44:
 325              	.L21:
 326              		.align	2
 327              	.L20:
 328 0034 0A000000 		.word	.LC4
 329 0038 04000000 		.word	.LC1
 330 003c 1D000000 		.word	.LC5
 331 0040 31000000 		.word	.LC6
 332              		.cfi_endproc
ARM GAS  C:\Users\jesse\AppData\Local\Temp\ccK0Ibcc.s 			page 9


 333              	.LFE4:
 334              		.size	u8x8_capture_write_xbm_pre, .-u8x8_capture_write_xbm_pre
 335              		.section	.text.u8x8_capture_write_xbm_buffer,"ax",%progbits
 336              		.align	1
 337              		.global	u8x8_capture_write_xbm_buffer
 338              		.thumb
 339              		.thumb_func
 340              		.type	u8x8_capture_write_xbm_buffer, %function
 341              	u8x8_capture_write_xbm_buffer:
 342              	.LFB5:
 121:..\..\..\u8g2\u8g2\csrc/u8x8_capture.c **** 
 122:..\..\..\u8g2\u8g2\csrc/u8x8_capture.c **** void u8x8_capture_write_xbm_buffer(uint8_t *buffer, uint8_t tile_width, uint8_t tile_height, uint8_
 123:..\..\..\u8g2\u8g2\csrc/u8x8_capture.c **** {
 343              		.loc 1 123 0
 344              		.cfi_startproc
 345              		@ args = 4, pretend = 0, frame = 32
 346              		@ frame_needed = 0, uses_anonymous_args = 0
 347              	.LVL45:
 348 0000 2DE9F04F 		push	{r4, r5, r6, r7, r8, r9, r10, fp, lr}
 349              		.cfi_def_cfa_offset 36
 350              		.cfi_offset 4, -36
 351              		.cfi_offset 5, -32
 352              		.cfi_offset 6, -28
 353              		.cfi_offset 7, -24
 354              		.cfi_offset 8, -20
 355              		.cfi_offset 9, -16
 356              		.cfi_offset 10, -12
 357              		.cfi_offset 11, -8
 358              		.cfi_offset 14, -4
 359 0004 8246     		mov	r10, r0
 360 0006 8946     		mov	r9, r1
 361 0008 89B0     		sub	sp, sp, #36
 362              		.cfi_def_cfa_offset 72
 124:..\..\..\u8g2\u8g2\csrc/u8x8_capture.c ****   uint16_t x, y;
 125:..\..\..\u8g2\u8g2\csrc/u8x8_capture.c ****   uint16_t w, h;
 126:..\..\..\u8g2\u8g2\csrc/u8x8_capture.c ****   uint8_t v, b;
 127:..\..\..\u8g2\u8g2\csrc/u8x8_capture.c ****   char s[2];
 128:..\..\..\u8g2\u8g2\csrc/u8x8_capture.c ****   s[1] = '\0';
 363              		.loc 1 128 0
 364 000a 0027     		movs	r7, #0
 123:..\..\..\u8g2\u8g2\csrc/u8x8_capture.c ****   uint16_t x, y;
 365              		.loc 1 123 0
 366 000c 0593     		str	r3, [sp, #20]
 367 000e 129E     		ldr	r6, [sp, #72]
 129:..\..\..\u8g2\u8g2\csrc/u8x8_capture.c **** 
 130:..\..\..\u8g2\u8g2\csrc/u8x8_capture.c ****   w = tile_width;
 131:..\..\..\u8g2\u8g2\csrc/u8x8_capture.c ****   w *= 8;
 132:..\..\..\u8g2\u8g2\csrc/u8x8_capture.c ****   h = tile_height;
 133:..\..\..\u8g2\u8g2\csrc/u8x8_capture.c ****   h *= 8;
 368              		.loc 1 133 0
 369 0010 D300     		lsls	r3, r2, #3
 370              	.LVL46:
 128:..\..\..\u8g2\u8g2\csrc/u8x8_capture.c **** 
 371              		.loc 1 128 0
 372 0012 8DF81D70 		strb	r7, [sp, #29]
 131:..\..\..\u8g2\u8g2\csrc/u8x8_capture.c ****   h = tile_height;
 373              		.loc 1 131 0
ARM GAS  C:\Users\jesse\AppData\Local\Temp\ccK0Ibcc.s 			page 10


 374 0016 4FEAC10B 		lsl	fp, r1, #3
 375              	.LVL47:
 376              		.loc 1 133 0
 377 001a 0393     		str	r3, [sp, #12]
 378              	.LVL48:
 379 001c 0197     		str	r7, [sp, #4]
 380              	.LVL49:
 381              	.L32:
 382 001e BDF80430 		ldrh	r3, [sp, #4]
 134:..\..\..\u8g2\u8g2\csrc/u8x8_capture.c **** 
 135:..\..\..\u8g2\u8g2\csrc/u8x8_capture.c ****   y = 0;
 136:..\..\..\u8g2\u8g2\csrc/u8x8_capture.c ****   for(;;)
 137:..\..\..\u8g2\u8g2\csrc/u8x8_capture.c ****   {
 138:..\..\..\u8g2\u8g2\csrc/u8x8_capture.c ****     x = 0;
 383              		.loc 1 138 0
 384 0022 4FF00008 		mov	r8, #0
 385 0026 0293     		str	r3, [sp, #8]
 386              	.LVL50:
 387              	.L30:
 388 0028 08F1FF33 		add	r3, r8, #-1
 389 002c 08F10705 		add	r5, r8, #7
 390 0030 9BB2     		uxth	r3, r3
 391 0032 ADB2     		uxth	r5, r5
 392 0034 0493     		str	r3, [sp, #16]
 139:..\..\..\u8g2\u8g2\csrc/u8x8_capture.c ****     for(;;)
 140:..\..\..\u8g2\u8g2\csrc/u8x8_capture.c ****     {
 141:..\..\..\u8g2\u8g2\csrc/u8x8_capture.c ****       v = 0;
 393              		.loc 1 141 0
 394 0036 0024     		movs	r4, #0
 395              	.LVL51:
 396              	.L24:
 142:..\..\..\u8g2\u8g2\csrc/u8x8_capture.c ****       for( b = 0; b < 8; b++ )
 143:..\..\..\u8g2\u8g2\csrc/u8x8_capture.c ****       {
 144:..\..\..\u8g2\u8g2\csrc/u8x8_capture.c **** 	v <<= 1;
 397              		.loc 1 144 0
 398 0038 6400     		lsls	r4, r4, #1
 399              	.LVL52:
 145:..\..\..\u8g2\u8g2\csrc/u8x8_capture.c **** 	if ( get_pixel(x+7-b, y, buffer, tile_width) )
 400              		.loc 1 145 0
 401 003a 4B46     		mov	r3, r9
 402 003c 5246     		mov	r2, r10
 403 003e 0299     		ldr	r1, [sp, #8]
 404 0040 2846     		mov	r0, r5
 405 0042 059F     		ldr	r7, [sp, #20]
 144:..\..\..\u8g2\u8g2\csrc/u8x8_capture.c **** 	if ( get_pixel(x+7-b, y, buffer, tile_width) )
 406              		.loc 1 144 0
 407 0044 E4B2     		uxtb	r4, r4
 408              	.LVL53:
 409              		.loc 1 145 0
 410 0046 B847     		blx	r7
 411              	.LVL54:
 412 0048 08B1     		cbz	r0, .L23
 146:..\..\..\u8g2\u8g2\csrc/u8x8_capture.c **** 	  v |= 1;
 413              		.loc 1 146 0
 414 004a 44F00104 		orr	r4, r4, #1
 415              	.LVL55:
 416              	.L23:
ARM GAS  C:\Users\jesse\AppData\Local\Temp\ccK0Ibcc.s 			page 11


 417 004e 013D     		subs	r5, r5, #1
 142:..\..\..\u8g2\u8g2\csrc/u8x8_capture.c ****       {
 418              		.loc 1 142 0 discriminator 2
 419 0050 049B     		ldr	r3, [sp, #16]
 420 0052 ADB2     		uxth	r5, r5
 421 0054 9D42     		cmp	r5, r3
 422 0056 EFD1     		bne	.L24
 147:..\..\..\u8g2\u8g2\csrc/u8x8_capture.c ****       }
 148:..\..\..\u8g2\u8g2\csrc/u8x8_capture.c ****       out("0x");
 423              		.loc 1 148 0
 424 0058 1748     		ldr	r0, .L39
 425 005a B047     		blx	r6
 426              	.LVL56:
 149:..\..\..\u8g2\u8g2\csrc/u8x8_capture.c ****       s[0] = (v>>4);
 427              		.loc 1 149 0
 428 005c 2309     		lsrs	r3, r4, #4
 150:..\..\..\u8g2\u8g2\csrc/u8x8_capture.c ****       if ( s[0] <= 9 )
 429              		.loc 1 150 0
 430 005e 092B     		cmp	r3, #9
 151:..\..\..\u8g2\u8g2\csrc/u8x8_capture.c **** 	s[0] += '0';
 431              		.loc 1 151 0
 432 0060 94BF     		ite	ls
 433 0062 3033     		addls	r3, r3, #48
 152:..\..\..\u8g2\u8g2\csrc/u8x8_capture.c ****       else
 153:..\..\..\u8g2\u8g2\csrc/u8x8_capture.c **** 	s[0] += 'a'-10;
 434              		.loc 1 153 0
 435 0064 5733     		addhi	r3, r3, #87
 154:..\..\..\u8g2\u8g2\csrc/u8x8_capture.c ****       out(s);
 155:..\..\..\u8g2\u8g2\csrc/u8x8_capture.c ****       s[0] = (v&15);
 436              		.loc 1 155 0
 437 0066 04F00F04 		and	r4, r4, #15
 438              	.LVL57:
 154:..\..\..\u8g2\u8g2\csrc/u8x8_capture.c ****       out(s);
 439              		.loc 1 154 0
 440 006a 07A8     		add	r0, sp, #28
 153:..\..\..\u8g2\u8g2\csrc/u8x8_capture.c ****       out(s);
 441              		.loc 1 153 0
 442 006c 8DF81C30 		strb	r3, [sp, #28]
 156:..\..\..\u8g2\u8g2\csrc/u8x8_capture.c ****       if ( s[0] <= 9 )
 157:..\..\..\u8g2\u8g2\csrc/u8x8_capture.c **** 	s[0] += '0';
 158:..\..\..\u8g2\u8g2\csrc/u8x8_capture.c ****       else
 159:..\..\..\u8g2\u8g2\csrc/u8x8_capture.c **** 	s[0] += 'a'-10;
 160:..\..\..\u8g2\u8g2\csrc/u8x8_capture.c ****       out(s);
 161:..\..\..\u8g2\u8g2\csrc/u8x8_capture.c ****       x += 8;
 443              		.loc 1 161 0
 444 0070 08F10808 		add	r8, r8, #8
 445              	.LVL58:
 154:..\..\..\u8g2\u8g2\csrc/u8x8_capture.c ****       s[0] = (v&15);
 446              		.loc 1 154 0
 447 0074 B047     		blx	r6
 448              	.LVL59:
 156:..\..\..\u8g2\u8g2\csrc/u8x8_capture.c ****       if ( s[0] <= 9 )
 449              		.loc 1 156 0
 450 0076 092C     		cmp	r4, #9
 157:..\..\..\u8g2\u8g2\csrc/u8x8_capture.c ****       else
 451              		.loc 1 157 0
 452 0078 94BF     		ite	ls
ARM GAS  C:\Users\jesse\AppData\Local\Temp\ccK0Ibcc.s 			page 12


 453 007a 3034     		addls	r4, r4, #48
 159:..\..\..\u8g2\u8g2\csrc/u8x8_capture.c ****       out(s);
 454              		.loc 1 159 0
 455 007c 5734     		addhi	r4, r4, #87
 160:..\..\..\u8g2\u8g2\csrc/u8x8_capture.c ****       x += 8;
 456              		.loc 1 160 0
 457 007e 07A8     		add	r0, sp, #28
 458              		.loc 1 161 0
 459 0080 1FFA88F8 		uxth	r8, r8
 159:..\..\..\u8g2\u8g2\csrc/u8x8_capture.c ****       out(s);
 460              		.loc 1 159 0
 461 0084 8DF81C40 		strb	r4, [sp, #28]
 160:..\..\..\u8g2\u8g2\csrc/u8x8_capture.c ****       x += 8;
 462              		.loc 1 160 0
 463 0088 B047     		blx	r6
 464              	.LVL60:
 162:..\..\..\u8g2\u8g2\csrc/u8x8_capture.c ****       if ( x >= w )
 465              		.loc 1 162 0
 466 008a C345     		cmp	fp, r8
 467 008c 02D9     		bls	.L29
 163:..\..\..\u8g2\u8g2\csrc/u8x8_capture.c **** 	break;
 164:..\..\..\u8g2\u8g2\csrc/u8x8_capture.c ****       out(",");
 468              		.loc 1 164 0
 469 008e 0B48     		ldr	r0, .L39+4
 470 0090 B047     		blx	r6
 471              	.LVL61:
 165:..\..\..\u8g2\u8g2\csrc/u8x8_capture.c ****     }
 472              		.loc 1 165 0
 473 0092 C9E7     		b	.L30
 474              	.L29:
 475              	.LVL62:
 476 0094 019B     		ldr	r3, [sp, #4]
 166:..\..\..\u8g2\u8g2\csrc/u8x8_capture.c ****     y++;
 167:..\..\..\u8g2\u8g2\csrc/u8x8_capture.c ****     if ( y >= h )
 477              		.loc 1 167 0
 478 0096 039A     		ldr	r2, [sp, #12]
 479 0098 0133     		adds	r3, r3, #1
 480 009a 0193     		str	r3, [sp, #4]
 481              	.LVL63:
 482 009c BDF80430 		ldrh	r3, [sp, #4]
 483 00a0 9A42     		cmp	r2, r3
 484 00a2 04D9     		bls	.L31
 168:..\..\..\u8g2\u8g2\csrc/u8x8_capture.c ****       break;
 169:..\..\..\u8g2\u8g2\csrc/u8x8_capture.c ****     out(",");
 485              		.loc 1 169 0
 486 00a4 0548     		ldr	r0, .L39+4
 487 00a6 B047     		blx	r6
 488              	.LVL64:
 170:..\..\..\u8g2\u8g2\csrc/u8x8_capture.c ****     out("\n");
 489              		.loc 1 170 0
 490 00a8 0548     		ldr	r0, .L39+8
 491 00aa B047     		blx	r6
 492              	.LVL65:
 171:..\..\..\u8g2\u8g2\csrc/u8x8_capture.c ****   }
 493              		.loc 1 171 0
 494 00ac B7E7     		b	.L32
 495              	.L31:
ARM GAS  C:\Users\jesse\AppData\Local\Temp\ccK0Ibcc.s 			page 13


 172:..\..\..\u8g2\u8g2\csrc/u8x8_capture.c ****   out("};\n");
 496              		.loc 1 172 0
 497 00ae 0548     		ldr	r0, .L39+12
 498 00b0 B047     		blx	r6
 499              	.LVL66:
 173:..\..\..\u8g2\u8g2\csrc/u8x8_capture.c ****   
 174:..\..\..\u8g2\u8g2\csrc/u8x8_capture.c **** }
 500              		.loc 1 174 0
 501 00b2 09B0     		add	sp, sp, #36
 502              		.cfi_def_cfa_offset 36
 503              		@ sp needed
 504 00b4 BDE8F08F 		pop	{r4, r5, r6, r7, r8, r9, r10, fp, pc}
 505              	.LVL67:
 506              	.L40:
 507              		.align	2
 508              	.L39:
 509 00b8 56000000 		.word	.LC7
 510 00bc 59000000 		.word	.LC8
 511 00c0 04000000 		.word	.LC1
 512 00c4 5B000000 		.word	.LC9
 513              		.cfi_endproc
 514              	.LFE5:
 515              		.size	u8x8_capture_write_xbm_buffer, .-u8x8_capture_write_xbm_buffer
 516              		.section	.rodata.str1.1,"aMS",%progbits,1
 517              	.LC0:
 518 0000 50310A00 		.ascii	"P1\012\000"
 519              	.LC1:
 520 0004 0A00     		.ascii	"\012\000"
 521              	.LC2:
 522 0006 3100     		.ascii	"1\000"
 523              	.LC3:
 524 0008 3000     		.ascii	"0\000"
 525              	.LC4:
 526 000a 23646566 		.ascii	"#define xbm_width \000"
 526      696E6520 
 526      78626D5F 
 526      77696474 
 526      682000
 527              	.LC5:
 528 001d 23646566 		.ascii	"#define xbm_height \000"
 528      696E6520 
 528      78626D5F 
 528      68656967 
 528      68742000 
 529              	.LC6:
 530 0031 73746174 		.ascii	"static unsigned char xbm_bits[] = {\012\000"
 530      69632075 
 530      6E736967 
 530      6E656420 
 530      63686172 
 531              	.LC7:
 532 0056 307800   		.ascii	"0x\000"
 533              	.LC8:
 534 0059 2C00     		.ascii	",\000"
 535              	.LC9:
 536 005b 7D3B0A00 		.ascii	"};\012\000"
 537              		.text
ARM GAS  C:\Users\jesse\AppData\Local\Temp\ccK0Ibcc.s 			page 14


 538              	.Letext0:
 539              		.file 2 "c:\\program files (x86)\\cypress\\psoc creator\\4.4\\psoc creator\\import\\gnu\\arm\\5.4.
 540              		.file 3 "c:\\program files (x86)\\cypress\\psoc creator\\4.4\\psoc creator\\import\\gnu\\arm\\5.4.
 541              		.file 4 "..\\..\\..\\u8g2\\u8g2\\csrc\\u8x8.h"