ARM GAS  C:\Users\jesse\AppData\Local\Temp\ccs9oZQL.s 			page 1


   1              		.syntax unified
   2              		.cpu cortex-m3
   3              		.fpu softvfp
   4              		.eabi_attribute 20, 1
   5              		.eabi_attribute 21, 1
   6              		.eabi_attribute 23, 3
   7              		.eabi_attribute 24, 1
   8              		.eabi_attribute 25, 1
   9              		.eabi_attribute 26, 1
  10              		.eabi_attribute 30, 4
  11              		.eabi_attribute 34, 1
  12              		.eabi_attribute 18, 4
  13              		.thumb
  14              		.syntax unified
  15              		.file	"u8x8_d_st75160.c"
  16              		.text
  17              	.Ltext0:
  18              		.cfi_sections	.debug_frame
  19              		.section	.text.u8x8_d_st75160_jm16096,"ax",%progbits
  20              		.align	1
  21              		.global	u8x8_d_st75160_jm16096
  22              		.thumb
  23              		.thumb_func
  24              		.type	u8x8_d_st75160_jm16096, %function
  25              	u8x8_d_st75160_jm16096:
  26              	.LFB0:
  27              		.file 1 "..\\..\\..\\u8g2\\u8g2\\csrc\\u8x8_d_st75160.c"
   1:..\..\..\u8g2\u8g2\csrc/u8x8_d_st75160.c **** /*
   2:..\..\..\u8g2\u8g2\csrc/u8x8_d_st75160.c **** 
   3:..\..\..\u8g2\u8g2\csrc/u8x8_d_st75160.c ****   u8x8_d_st75160.c
   4:..\..\..\u8g2\u8g2\csrc/u8x8_d_st75160.c **** 
   5:..\..\..\u8g2\u8g2\csrc/u8x8_d_st75160.c ****   Universal 8bit Graphics Library (https://github.com/olikraus/u8g2/)
   6:..\..\..\u8g2\u8g2\csrc/u8x8_d_st75160.c **** 
   7:..\..\..\u8g2\u8g2\csrc/u8x8_d_st75160.c ****   Copyright (c) 2021, olikraus@gmail.com
   8:..\..\..\u8g2\u8g2\csrc/u8x8_d_st75160.c ****   All rights reserved.
   9:..\..\..\u8g2\u8g2\csrc/u8x8_d_st75160.c **** 
  10:..\..\..\u8g2\u8g2\csrc/u8x8_d_st75160.c ****   Redistribution and use in source and binary forms, with or without modification, 
  11:..\..\..\u8g2\u8g2\csrc/u8x8_d_st75160.c ****   are permitted provided that the following conditions are met:
  12:..\..\..\u8g2\u8g2\csrc/u8x8_d_st75160.c **** 
  13:..\..\..\u8g2\u8g2\csrc/u8x8_d_st75160.c ****   * Redistributions of source code must retain the above copyright notice, this list 
  14:..\..\..\u8g2\u8g2\csrc/u8x8_d_st75160.c ****     of conditions and the following disclaimer.
  15:..\..\..\u8g2\u8g2\csrc/u8x8_d_st75160.c ****     
  16:..\..\..\u8g2\u8g2\csrc/u8x8_d_st75160.c ****   * Redistributions in binary form must reproduce the above copyright notice, this 
  17:..\..\..\u8g2\u8g2\csrc/u8x8_d_st75160.c ****     list of conditions and the following disclaimer in the documentation and/or other 
  18:..\..\..\u8g2\u8g2\csrc/u8x8_d_st75160.c ****     materials provided with the distribution.
  19:..\..\..\u8g2\u8g2\csrc/u8x8_d_st75160.c **** 
  20:..\..\..\u8g2\u8g2\csrc/u8x8_d_st75160.c ****   THIS SOFTWARE IS PROVIDED BY THE COPYRIGHT HOLDERS AND 
  21:..\..\..\u8g2\u8g2\csrc/u8x8_d_st75160.c ****   CONTRIBUTORS "AS IS" AND ANY EXPRESS OR IMPLIED WARRANTIES, 
  22:..\..\..\u8g2\u8g2\csrc/u8x8_d_st75160.c ****   INCLUDING, BUT NOT LIMITED TO, THE IMPLIED WARRANTIES OF 
  23:..\..\..\u8g2\u8g2\csrc/u8x8_d_st75160.c ****   MERCHANTABILITY AND FITNESS FOR A PARTICULAR PURPOSE ARE 
  24:..\..\..\u8g2\u8g2\csrc/u8x8_d_st75160.c ****   DISCLAIMED. IN NO EVENT SHALL THE COPYRIGHT HOLDER OR 
  25:..\..\..\u8g2\u8g2\csrc/u8x8_d_st75160.c ****   CONTRIBUTORS BE LIABLE FOR ANY DIRECT, INDIRECT, INCIDENTAL, 
  26:..\..\..\u8g2\u8g2\csrc/u8x8_d_st75160.c ****   SPECIAL, EXEMPLARY, OR CONSEQUENTIAL DAMAGES (INCLUDING, BUT 
  27:..\..\..\u8g2\u8g2\csrc/u8x8_d_st75160.c ****   NOT LIMITED TO, PROCUREMENT OF SUBSTITUTE GOODS OR SERVICES; 
  28:..\..\..\u8g2\u8g2\csrc/u8x8_d_st75160.c ****   LOSS OF USE, DATA, OR PROFITS; OR BUSINESS INTERRUPTION) HOWEVER 
  29:..\..\..\u8g2\u8g2\csrc/u8x8_d_st75160.c ****   CAUSED AND ON ANY THEORY OF LIABILITY, WHETHER IN CONTRACT, 
  30:..\..\..\u8g2\u8g2\csrc/u8x8_d_st75160.c ****   STRICT LIABILITY, OR TORT (INCLUDING NEGLIGENCE OR OTHERWISE) 
ARM GAS  C:\Users\jesse\AppData\Local\Temp\ccs9oZQL.s 			page 2


  31:..\..\..\u8g2\u8g2\csrc/u8x8_d_st75160.c ****   ARISING IN ANY WAY OUT OF THE USE OF THIS SOFTWARE, EVEN IF 
  32:..\..\..\u8g2\u8g2\csrc/u8x8_d_st75160.c ****   ADVISED OF THE POSSIBILITY OF SUCH DAMAGE.  
  33:..\..\..\u8g2\u8g2\csrc/u8x8_d_st75160.c **** 
  34:..\..\..\u8g2\u8g2\csrc/u8x8_d_st75160.c ****   REQUESTED IN
  35:..\..\..\u8g2\u8g2\csrc/u8x8_d_st75160.c ****     https://github.com/olikraus/u8g2/issues/1642
  36:..\..\..\u8g2\u8g2\csrc/u8x8_d_st75160.c ****     
  37:..\..\..\u8g2\u8g2\csrc/u8x8_d_st75160.c ****   STATUS 13 Aug 2022: NOT TESTED, MAY NOT WORK..
  38:..\..\..\u8g2\u8g2\csrc/u8x8_d_st75160.c **** 
  39:..\..\..\u8g2\u8g2\csrc/u8x8_d_st75160.c **** 
  40:..\..\..\u8g2\u8g2\csrc/u8x8_d_st75160.c ****   0x030	ext 00
  41:..\..\..\u8g2\u8g2\csrc/u8x8_d_st75160.c ****   0x031	ext 01
  42:..\..\..\u8g2\u8g2\csrc/u8x8_d_st75160.c ****   0x038	ext 10
  43:..\..\..\u8g2\u8g2\csrc/u8x8_d_st75160.c ****   0x039	ext 11
  44:..\..\..\u8g2\u8g2\csrc/u8x8_d_st75160.c ****   
  45:..\..\..\u8g2\u8g2\csrc/u8x8_d_st75160.c ****   cad 011
  46:..\..\..\u8g2\u8g2\csrc/u8x8_d_st75160.c ****   
  47:..\..\..\u8g2\u8g2\csrc/u8x8_d_st75160.c ****   
  48:..\..\..\u8g2\u8g2\csrc/u8x8_d_st75160.c ****   code examples:
  49:..\..\..\u8g2\u8g2\csrc/u8x8_d_st75160.c ****   http://www.it610.com/article/2601023.htm
  50:..\..\..\u8g2\u8g2\csrc/u8x8_d_st75160.c ****   
  51:..\..\..\u8g2\u8g2\csrc/u8x8_d_st75160.c ****   normal mode:
  52:..\..\..\u8g2\u8g2\csrc/u8x8_d_st75160.c **** 	0x00c	bit format
  53:..\..\..\u8g2\u8g2\csrc/u8x8_d_st75160.c ****   U8X8_CA( 0xbc, 0x00 ),	data scan dir 
  54:..\..\..\u8g2\u8g2\csrc/u8x8_d_st75160.c ****   U8X8_A( 0xa6 ),				
  55:..\..\..\u8g2\u8g2\csrc/u8x8_d_st75160.c ****   y: 0 offset
  56:..\..\..\u8g2\u8g2\csrc/u8x8_d_st75160.c ****   
  57:..\..\..\u8g2\u8g2\csrc/u8x8_d_st75160.c ****   flip mode:
  58:..\..\..\u8g2\u8g2\csrc/u8x8_d_st75160.c **** 	0x008	bit format
  59:..\..\..\u8g2\u8g2\csrc/u8x8_d_st75160.c ****   U8X8_CA( 0xbc, 0x03 ),	data scan dir 
  60:..\..\..\u8g2\u8g2\csrc/u8x8_d_st75160.c ****   U8X8_A( 0xa6 ),				
  61:..\..\..\u8g2\u8g2\csrc/u8x8_d_st75160.c ****   y: 5 offset
  62:..\..\..\u8g2\u8g2\csrc/u8x8_d_st75160.c **** 	
  63:..\..\..\u8g2\u8g2\csrc/u8x8_d_st75160.c ****   
  64:..\..\..\u8g2\u8g2\csrc/u8x8_d_st75160.c **** */
  65:..\..\..\u8g2\u8g2\csrc/u8x8_d_st75160.c **** 
  66:..\..\..\u8g2\u8g2\csrc/u8x8_d_st75160.c **** 
  67:..\..\..\u8g2\u8g2\csrc/u8x8_d_st75160.c **** #include "u8x8.h"
  68:..\..\..\u8g2\u8g2\csrc/u8x8_d_st75160.c **** 
  69:..\..\..\u8g2\u8g2\csrc/u8x8_d_st75160.c **** 
  70:..\..\..\u8g2\u8g2\csrc/u8x8_d_st75160.c **** /* not a real power down for the st75256... just a display off */
  71:..\..\..\u8g2\u8g2\csrc/u8x8_d_st75160.c **** static const uint8_t u8x8_d_st75256_256x128_powersave0_seq[] = {
  72:..\..\..\u8g2\u8g2\csrc/u8x8_d_st75160.c ****   U8X8_START_TRANSFER(),             	/* enable chip, delay is part of the transfer start */
  73:..\..\..\u8g2\u8g2\csrc/u8x8_d_st75160.c ****   U8X8_C( 0x030 ),				/* select 00 commands */  
  74:..\..\..\u8g2\u8g2\csrc/u8x8_d_st75160.c ****   U8X8_C( 0x94 ),				/* sleep out */
  75:..\..\..\u8g2\u8g2\csrc/u8x8_d_st75160.c ****   U8X8_DLY(10),
  76:..\..\..\u8g2\u8g2\csrc/u8x8_d_st75160.c ****   U8X8_C( 0xaf ),				/* display on */
  77:..\..\..\u8g2\u8g2\csrc/u8x8_d_st75160.c ****   U8X8_END_TRANSFER(),             	/* disable chip */
  78:..\..\..\u8g2\u8g2\csrc/u8x8_d_st75160.c ****   U8X8_END()             			/* end of sequence */
  79:..\..\..\u8g2\u8g2\csrc/u8x8_d_st75160.c **** };
  80:..\..\..\u8g2\u8g2\csrc/u8x8_d_st75160.c **** 
  81:..\..\..\u8g2\u8g2\csrc/u8x8_d_st75160.c **** static const uint8_t u8x8_d_st75256_256x128_powersave1_seq[] = {
  82:..\..\..\u8g2\u8g2\csrc/u8x8_d_st75160.c ****   U8X8_START_TRANSFER(),             	/* enable chip, delay is part of the transfer start */
  83:..\..\..\u8g2\u8g2\csrc/u8x8_d_st75160.c ****   U8X8_C( 0x030 ),				/* select 00 commands */
  84:..\..\..\u8g2\u8g2\csrc/u8x8_d_st75160.c ****   U8X8_C( 0xae ),				/* display off */
  85:..\..\..\u8g2\u8g2\csrc/u8x8_d_st75160.c ****   U8X8_C( 0x95 ),				/* sleep in */
  86:..\..\..\u8g2\u8g2\csrc/u8x8_d_st75160.c ****   U8X8_END_TRANSFER(),             	/* disable chip */
  87:..\..\..\u8g2\u8g2\csrc/u8x8_d_st75160.c ****   U8X8_END()             			/* end of sequence */
ARM GAS  C:\Users\jesse\AppData\Local\Temp\ccs9oZQL.s 			page 3


  88:..\..\..\u8g2\u8g2\csrc/u8x8_d_st75160.c **** };
  89:..\..\..\u8g2\u8g2\csrc/u8x8_d_st75160.c **** 
  90:..\..\..\u8g2\u8g2\csrc/u8x8_d_st75160.c **** /* marked as unused to avoid compiler warning, issue 1802 */
  91:..\..\..\u8g2\u8g2\csrc/u8x8_d_st75160.c **** #ifdef NOT_USED
  92:..\..\..\u8g2\u8g2\csrc/u8x8_d_st75160.c **** static const uint8_t u8x8_d_st75256_jlx256128_flip0_seq[] = {
  93:..\..\..\u8g2\u8g2\csrc/u8x8_d_st75160.c ****   U8X8_START_TRANSFER(),             	/* enable chip, delay is part of the transfer start */
  94:..\..\..\u8g2\u8g2\csrc/u8x8_d_st75160.c ****   U8X8_C( 0x030 ),				/* select 00 commands */
  95:..\..\..\u8g2\u8g2\csrc/u8x8_d_st75160.c ****   U8X8_CA( 0xbc, 0x00 ),			/* data scan dir */
  96:..\..\..\u8g2\u8g2\csrc/u8x8_d_st75160.c ****   U8X8_A( 0xa6 ),				/* ??? */
  97:..\..\..\u8g2\u8g2\csrc/u8x8_d_st75160.c **** 
  98:..\..\..\u8g2\u8g2\csrc/u8x8_d_st75160.c ****   //U8X8_C( 0x030 ),				/* select 00 commands */
  99:..\..\..\u8g2\u8g2\csrc/u8x8_d_st75160.c ****   U8X8_C( 0x00c ),				/* data format LSB top */
 100:..\..\..\u8g2\u8g2\csrc/u8x8_d_st75160.c ****   U8X8_END_TRANSFER(),             	/* disable chip */
 101:..\..\..\u8g2\u8g2\csrc/u8x8_d_st75160.c ****   U8X8_END()             			/* end of sequence */
 102:..\..\..\u8g2\u8g2\csrc/u8x8_d_st75160.c **** };
 103:..\..\..\u8g2\u8g2\csrc/u8x8_d_st75160.c **** 
 104:..\..\..\u8g2\u8g2\csrc/u8x8_d_st75160.c **** static const uint8_t u8x8_d_st75256_jlx256128_flip1_seq[] = {
 105:..\..\..\u8g2\u8g2\csrc/u8x8_d_st75160.c ****   U8X8_START_TRANSFER(),             	/* enable chip, delay is part of the transfer start */
 106:..\..\..\u8g2\u8g2\csrc/u8x8_d_st75160.c ****   U8X8_C( 0x030 ),				/* select 00 commands */
 107:..\..\..\u8g2\u8g2\csrc/u8x8_d_st75160.c ****   U8X8_CA( 0xbc, 0x03 ),			/* data scan dir */
 108:..\..\..\u8g2\u8g2\csrc/u8x8_d_st75160.c ****   U8X8_A( 0xa6 ),				/* ??? */
 109:..\..\..\u8g2\u8g2\csrc/u8x8_d_st75160.c **** 
 110:..\..\..\u8g2\u8g2\csrc/u8x8_d_st75160.c ****   //U8X8_C( 0x030 ),				/* select 00 commands */
 111:..\..\..\u8g2\u8g2\csrc/u8x8_d_st75160.c ****   U8X8_C( 0x008 ),				/* data format MSB top */
 112:..\..\..\u8g2\u8g2\csrc/u8x8_d_st75160.c ****   U8X8_END_TRANSFER(),             	/* disable chip */
 113:..\..\..\u8g2\u8g2\csrc/u8x8_d_st75160.c ****   U8X8_END()             			/* end of sequence */
 114:..\..\..\u8g2\u8g2\csrc/u8x8_d_st75160.c **** };
 115:..\..\..\u8g2\u8g2\csrc/u8x8_d_st75160.c **** #endif
 116:..\..\..\u8g2\u8g2\csrc/u8x8_d_st75160.c **** 
 117:..\..\..\u8g2\u8g2\csrc/u8x8_d_st75160.c **** static const uint8_t u8x8_d_st75256_jlx172104_flip0_seq[] = {
 118:..\..\..\u8g2\u8g2\csrc/u8x8_d_st75160.c ****   U8X8_START_TRANSFER(),             	/* enable chip, delay is part of the transfer start */
 119:..\..\..\u8g2\u8g2\csrc/u8x8_d_st75160.c ****   U8X8_C( 0x030 ),				/* select 00 commands */
 120:..\..\..\u8g2\u8g2\csrc/u8x8_d_st75160.c ****   U8X8_CA( 0xbc, 0x02 ),			/* data scan dir */
 121:..\..\..\u8g2\u8g2\csrc/u8x8_d_st75160.c ****   U8X8_A( 0xa6 ),				/* ??? */
 122:..\..\..\u8g2\u8g2\csrc/u8x8_d_st75160.c **** 
 123:..\..\..\u8g2\u8g2\csrc/u8x8_d_st75160.c ****   //U8X8_C( 0x030 ),				/* select 00 commands */
 124:..\..\..\u8g2\u8g2\csrc/u8x8_d_st75160.c ****   U8X8_C( 0x00c ),				/* data format LSB top */
 125:..\..\..\u8g2\u8g2\csrc/u8x8_d_st75160.c ****   U8X8_END_TRANSFER(),             	/* disable chip */
 126:..\..\..\u8g2\u8g2\csrc/u8x8_d_st75160.c ****   U8X8_END()             			/* end of sequence */
 127:..\..\..\u8g2\u8g2\csrc/u8x8_d_st75160.c **** };
 128:..\..\..\u8g2\u8g2\csrc/u8x8_d_st75160.c **** 
 129:..\..\..\u8g2\u8g2\csrc/u8x8_d_st75160.c **** static const uint8_t u8x8_d_st75256_jlx172104_flip1_seq[] = {
 130:..\..\..\u8g2\u8g2\csrc/u8x8_d_st75160.c ****   U8X8_START_TRANSFER(),             	/* enable chip, delay is part of the transfer start */
 131:..\..\..\u8g2\u8g2\csrc/u8x8_d_st75160.c ****   U8X8_C( 0x030 ),				/* select 00 commands */
 132:..\..\..\u8g2\u8g2\csrc/u8x8_d_st75160.c ****   U8X8_CA( 0xbc, 0x01 ),			/* data scan dir */
 133:..\..\..\u8g2\u8g2\csrc/u8x8_d_st75160.c ****   U8X8_A( 0xa6 ),				/* ??? */
 134:..\..\..\u8g2\u8g2\csrc/u8x8_d_st75160.c **** 
 135:..\..\..\u8g2\u8g2\csrc/u8x8_d_st75160.c ****   //U8X8_C( 0x030 ),				/* select 00 commands */
 136:..\..\..\u8g2\u8g2\csrc/u8x8_d_st75160.c ****   U8X8_C( 0x008 ),				/* data format MSB top */
 137:..\..\..\u8g2\u8g2\csrc/u8x8_d_st75160.c ****   U8X8_END_TRANSFER(),             	/* disable chip */
 138:..\..\..\u8g2\u8g2\csrc/u8x8_d_st75160.c ****   U8X8_END()             			/* end of sequence */
 139:..\..\..\u8g2\u8g2\csrc/u8x8_d_st75160.c **** };
 140:..\..\..\u8g2\u8g2\csrc/u8x8_d_st75160.c **** 
 141:..\..\..\u8g2\u8g2\csrc/u8x8_d_st75160.c **** /* marked as unused to avoid compiler warning, issue 1802 */
 142:..\..\..\u8g2\u8g2\csrc/u8x8_d_st75160.c **** #ifdef NOT_USED
 143:..\..\..\u8g2\u8g2\csrc/u8x8_d_st75160.c **** static const uint8_t u8x8_d_st75256_jlx256160_flip0_seq[] = {
 144:..\..\..\u8g2\u8g2\csrc/u8x8_d_st75160.c ****   U8X8_START_TRANSFER(),             	/* enable chip, delay is part of the transfer start */
ARM GAS  C:\Users\jesse\AppData\Local\Temp\ccs9oZQL.s 			page 4


 145:..\..\..\u8g2\u8g2\csrc/u8x8_d_st75160.c ****   U8X8_C( 0x030 ),				/* select 00 commands */
 146:..\..\..\u8g2\u8g2\csrc/u8x8_d_st75160.c ****   U8X8_CA( 0xbc, 0x00 ),			/* data scan dir */
 147:..\..\..\u8g2\u8g2\csrc/u8x8_d_st75160.c ****   U8X8_A( 0xa6 ),				/* ??? */
 148:..\..\..\u8g2\u8g2\csrc/u8x8_d_st75160.c **** 
 149:..\..\..\u8g2\u8g2\csrc/u8x8_d_st75160.c ****   //U8X8_C( 0x030 ),				/* select 00 commands */
 150:..\..\..\u8g2\u8g2\csrc/u8x8_d_st75160.c ****   U8X8_C( 0x00c ),				/* data format LSB top */
 151:..\..\..\u8g2\u8g2\csrc/u8x8_d_st75160.c ****   U8X8_END_TRANSFER(),             	/* disable chip */
 152:..\..\..\u8g2\u8g2\csrc/u8x8_d_st75160.c ****   U8X8_END()             			/* end of sequence */
 153:..\..\..\u8g2\u8g2\csrc/u8x8_d_st75160.c **** };
 154:..\..\..\u8g2\u8g2\csrc/u8x8_d_st75160.c **** 
 155:..\..\..\u8g2\u8g2\csrc/u8x8_d_st75160.c **** static const uint8_t u8x8_d_st75256_jlx256160_flip1_seq[] = {
 156:..\..\..\u8g2\u8g2\csrc/u8x8_d_st75160.c ****   U8X8_START_TRANSFER(),             	/* enable chip, delay is part of the transfer start */
 157:..\..\..\u8g2\u8g2\csrc/u8x8_d_st75160.c ****   U8X8_C( 0x030 ),				/* select 00 commands */
 158:..\..\..\u8g2\u8g2\csrc/u8x8_d_st75160.c ****   U8X8_CA( 0xbc, 0x03 ),			/* data scan dir */
 159:..\..\..\u8g2\u8g2\csrc/u8x8_d_st75160.c ****   U8X8_A( 0xa6 ),				/* ??? */
 160:..\..\..\u8g2\u8g2\csrc/u8x8_d_st75160.c **** 
 161:..\..\..\u8g2\u8g2\csrc/u8x8_d_st75160.c ****   //U8X8_C( 0x030 ),				/* select 00 commands */
 162:..\..\..\u8g2\u8g2\csrc/u8x8_d_st75160.c ****   U8X8_C( 0x008 ),				/* data format MSB top */
 163:..\..\..\u8g2\u8g2\csrc/u8x8_d_st75160.c ****   U8X8_END_TRANSFER(),             	/* disable chip */
 164:..\..\..\u8g2\u8g2\csrc/u8x8_d_st75160.c ****   U8X8_END()             			/* end of sequence */
 165:..\..\..\u8g2\u8g2\csrc/u8x8_d_st75160.c **** };
 166:..\..\..\u8g2\u8g2\csrc/u8x8_d_st75160.c **** #endif
 167:..\..\..\u8g2\u8g2\csrc/u8x8_d_st75160.c **** 
 168:..\..\..\u8g2\u8g2\csrc/u8x8_d_st75160.c **** 
 169:..\..\..\u8g2\u8g2\csrc/u8x8_d_st75160.c **** /*=============================================*/
 170:..\..\..\u8g2\u8g2\csrc/u8x8_d_st75160.c **** /* JM16096  https://github.com/olikraus/u8g2/issues/1642 */
 171:..\..\..\u8g2\u8g2\csrc/u8x8_d_st75160.c **** 
 172:..\..\..\u8g2\u8g2\csrc/u8x8_d_st75160.c **** static const u8x8_display_info_t u8x8_st75160_jm16096_display_info =
 173:..\..\..\u8g2\u8g2\csrc/u8x8_d_st75160.c **** {
 174:..\..\..\u8g2\u8g2\csrc/u8x8_d_st75160.c ****   /* chip_enable_level = */ 0,
 175:..\..\..\u8g2\u8g2\csrc/u8x8_d_st75160.c ****   /* chip_disable_level = */ 1,
 176:..\..\..\u8g2\u8g2\csrc/u8x8_d_st75160.c ****   
 177:..\..\..\u8g2\u8g2\csrc/u8x8_d_st75160.c ****   /* post_chip_enable_wait_ns = */ 20,
 178:..\..\..\u8g2\u8g2\csrc/u8x8_d_st75160.c ****   /* pre_chip_disable_wait_ns = */ 20,
 179:..\..\..\u8g2\u8g2\csrc/u8x8_d_st75160.c ****   /* reset_pulse_width_ms = */ 5, 	
 180:..\..\..\u8g2\u8g2\csrc/u8x8_d_st75160.c ****   /* post_reset_wait_ms = */ 5, 		/**/
 181:..\..\..\u8g2\u8g2\csrc/u8x8_d_st75160.c ****   /* sda_setup_time_ns = */ 20,		/* */
 182:..\..\..\u8g2\u8g2\csrc/u8x8_d_st75160.c ****   /* sck_pulse_width_ns = */ 40,	/*  */
 183:..\..\..\u8g2\u8g2\csrc/u8x8_d_st75160.c ****   /* sck_clock_hz = */ 4000000UL,	/* since Arduino 1.6.0, the SPI bus speed in Hz. Should be  10000
 184:..\..\..\u8g2\u8g2\csrc/u8x8_d_st75160.c ****   /* spi_mode = */ 0,		/* active high, rising edge */
 185:..\..\..\u8g2\u8g2\csrc/u8x8_d_st75160.c ****   /* i2c_bus_clock_100kHz = */ 4,	/* 400KHz */
 186:..\..\..\u8g2\u8g2\csrc/u8x8_d_st75160.c ****   /* data_setup_time_ns = */ 15,
 187:..\..\..\u8g2\u8g2\csrc/u8x8_d_st75160.c ****   /* write_pulse_width_ns = */ 70,	
 188:..\..\..\u8g2\u8g2\csrc/u8x8_d_st75160.c ****   /* tile_width = */ 20,
 189:..\..\..\u8g2\u8g2\csrc/u8x8_d_st75160.c ****   /* tile_hight = */ 12,
 190:..\..\..\u8g2\u8g2\csrc/u8x8_d_st75160.c ****   /* default_x_offset = */ 0,	/*  x offset in flipmode 0 */
 191:..\..\..\u8g2\u8g2\csrc/u8x8_d_st75160.c ****   /* flipmode_x_offset = */ 0,		/* */
 192:..\..\..\u8g2\u8g2\csrc/u8x8_d_st75160.c ****   /* pixel_width = */ 160,
 193:..\..\..\u8g2\u8g2\csrc/u8x8_d_st75160.c ****   /* pixel_height = */ 96
 194:..\..\..\u8g2\u8g2\csrc/u8x8_d_st75160.c **** };
 195:..\..\..\u8g2\u8g2\csrc/u8x8_d_st75160.c **** 
 196:..\..\..\u8g2\u8g2\csrc/u8x8_d_st75160.c **** 
 197:..\..\..\u8g2\u8g2\csrc/u8x8_d_st75160.c **** static const uint8_t u8x8_d_st75160_jm16096_init_seq[] = {
 198:..\..\..\u8g2\u8g2\csrc/u8x8_d_st75160.c ****   U8X8_START_TRANSFER(),             	/* enable chip, delay is part of the transfer start */
 199:..\..\..\u8g2\u8g2\csrc/u8x8_d_st75160.c ****   
 200:..\..\..\u8g2\u8g2\csrc/u8x8_d_st75160.c ****   U8X8_DLY(20),
 201:..\..\..\u8g2\u8g2\csrc/u8x8_d_st75160.c **** 
ARM GAS  C:\Users\jesse\AppData\Local\Temp\ccs9oZQL.s 			page 5


 202:..\..\..\u8g2\u8g2\csrc/u8x8_d_st75160.c ****   U8X8_C( 0x030 ),				/* select 00 commands */
 203:..\..\..\u8g2\u8g2\csrc/u8x8_d_st75160.c ****   U8X8_C( 0x094 ),				/* sleep out */
 204:..\..\..\u8g2\u8g2\csrc/u8x8_d_st75160.c **** 
 205:..\..\..\u8g2\u8g2\csrc/u8x8_d_st75160.c ****   //U8X8_C( 0x030 ),				/* select 00 commands */
 206:..\..\..\u8g2\u8g2\csrc/u8x8_d_st75160.c ****   U8X8_C( 0x0ae ),				/* display off */
 207:..\..\..\u8g2\u8g2\csrc/u8x8_d_st75160.c **** 
 208:..\..\..\u8g2\u8g2\csrc/u8x8_d_st75160.c ****   U8X8_C( 0x031 ),				/* select 01 commands */
 209:..\..\..\u8g2\u8g2\csrc/u8x8_d_st75160.c ****   U8X8_CA( 0x0d7, 0x09f ),		/* disable auto read */  
 210:..\..\..\u8g2\u8g2\csrc/u8x8_d_st75160.c **** 
 211:..\..\..\u8g2\u8g2\csrc/u8x8_d_st75160.c ****   //U8X8_C( 0x031 ),				/* select 01 commands */
 212:..\..\..\u8g2\u8g2\csrc/u8x8_d_st75160.c ****   U8X8_C( 0x032 ),				/* analog circuit set */
 213:..\..\..\u8g2\u8g2\csrc/u8x8_d_st75160.c ****   U8X8_A( 0x000 ),				/* code example: OSC Frequency adjustment */
 214:..\..\..\u8g2\u8g2\csrc/u8x8_d_st75160.c ****   U8X8_A( 0x001 ),				/* Frequency on booster capacitors 1 = 6KHz? */
 215:..\..\..\u8g2\u8g2\csrc/u8x8_d_st75160.c ****   U8X8_A( 0x004 ),				/* Bias: 1: 1/13, 2: 1/12, 3: 1/11, 4:1/10, 5:1/9 */
 216:..\..\..\u8g2\u8g2\csrc/u8x8_d_st75160.c ****     
 217:..\..\..\u8g2\u8g2\csrc/u8x8_d_st75160.c ****   //U8X8_C( 0x031 ),				/* select 01 commands */
 218:..\..\..\u8g2\u8g2\csrc/u8x8_d_st75160.c ****   U8X8_C( 0x020 ),				/* gray levels */
 219:..\..\..\u8g2\u8g2\csrc/u8x8_d_st75160.c ****   U8X8_A( 0x01 ),
 220:..\..\..\u8g2\u8g2\csrc/u8x8_d_st75160.c ****   U8X8_A( 0x03 ),
 221:..\..\..\u8g2\u8g2\csrc/u8x8_d_st75160.c ****   U8X8_A( 0x05 ),
 222:..\..\..\u8g2\u8g2\csrc/u8x8_d_st75160.c ****   U8X8_A( 0x07 ),
 223:..\..\..\u8g2\u8g2\csrc/u8x8_d_st75160.c ****   U8X8_A( 0x09),
 224:..\..\..\u8g2\u8g2\csrc/u8x8_d_st75160.c ****   U8X8_A( 0x0b ),
 225:..\..\..\u8g2\u8g2\csrc/u8x8_d_st75160.c ****   U8X8_A( 0x0d ),
 226:..\..\..\u8g2\u8g2\csrc/u8x8_d_st75160.c ****   U8X8_A( 0x10 ),
 227:..\..\..\u8g2\u8g2\csrc/u8x8_d_st75160.c ****   U8X8_A( 0x11 ),
 228:..\..\..\u8g2\u8g2\csrc/u8x8_d_st75160.c ****   U8X8_A( 0x13 ),
 229:..\..\..\u8g2\u8g2\csrc/u8x8_d_st75160.c ****   U8X8_A( 0x15 ),
 230:..\..\..\u8g2\u8g2\csrc/u8x8_d_st75160.c ****   U8X8_A( 0x17 ),
 231:..\..\..\u8g2\u8g2\csrc/u8x8_d_st75160.c ****   U8X8_A( 0x19 ),
 232:..\..\..\u8g2\u8g2\csrc/u8x8_d_st75160.c ****   U8X8_A( 0x1b ),
 233:..\..\..\u8g2\u8g2\csrc/u8x8_d_st75160.c ****   U8X8_A( 0x1d ),
 234:..\..\..\u8g2\u8g2\csrc/u8x8_d_st75160.c ****   U8X8_A( 0x1f ),
 235:..\..\..\u8g2\u8g2\csrc/u8x8_d_st75160.c ****  
 236:..\..\..\u8g2\u8g2\csrc/u8x8_d_st75160.c ****   
 237:..\..\..\u8g2\u8g2\csrc/u8x8_d_st75160.c ****   U8X8_C( 0x030 ),				/* select 00 commands */
 238:..\..\..\u8g2\u8g2\csrc/u8x8_d_st75160.c ****   U8X8_CAA(0x75, 0, 0x4f),		/* row range */
 239:..\..\..\u8g2\u8g2\csrc/u8x8_d_st75160.c ****   U8X8_CAA(0x15, 0, 239),		/* col range */
 240:..\..\..\u8g2\u8g2\csrc/u8x8_d_st75160.c ****   
 241:..\..\..\u8g2\u8g2\csrc/u8x8_d_st75160.c ****   //U8X8_C( 0x030 ),				/* select 00 commands */
 242:..\..\..\u8g2\u8g2\csrc/u8x8_d_st75160.c ****   U8X8_CA( 0xbc, 0x02 ),			/* data scan dir */
 243:..\..\..\u8g2\u8g2\csrc/u8x8_d_st75160.c ****   U8X8_A( 0xa6 ),				/* ??? */
 244:..\..\..\u8g2\u8g2\csrc/u8x8_d_st75160.c **** 
 245:..\..\..\u8g2\u8g2\csrc/u8x8_d_st75160.c ****   //U8X8_C( 0x030 ),				/* select 00 commands */
 246:..\..\..\u8g2\u8g2\csrc/u8x8_d_st75160.c ****   U8X8_C( 0x00c ),				/* data format LSB top */
 247:..\..\..\u8g2\u8g2\csrc/u8x8_d_st75160.c **** 
 248:..\..\..\u8g2\u8g2\csrc/u8x8_d_st75160.c ****   //U8X8_C( 0x030 ),				/* select 00 commands */ 
 249:..\..\..\u8g2\u8g2\csrc/u8x8_d_st75160.c ****   U8X8_C( 0xca ),				/* display control, 3 args follow  */
 250:..\..\..\u8g2\u8g2\csrc/u8x8_d_st75160.c ****   U8X8_A( 0x00 ),				/* 0x00: no clock division, 0x04: devide clock */
 251:..\..\..\u8g2\u8g2\csrc/u8x8_d_st75160.c ****   U8X8_A( 95 ),				/* 1/96 duty */
 252:..\..\..\u8g2\u8g2\csrc/u8x8_d_st75160.c ****   U8X8_A( 0x20 ),				/* nline off */ 
 253:..\..\..\u8g2\u8g2\csrc/u8x8_d_st75160.c **** 
 254:..\..\..\u8g2\u8g2\csrc/u8x8_d_st75160.c ****   //U8X8_C( 0x030 ),				/* select 00 commands */ 
 255:..\..\..\u8g2\u8g2\csrc/u8x8_d_st75160.c ****   U8X8_CA( 0x0f0, 0x010 ),		/* monochrome mode  = 0x010*/
 256:..\..\..\u8g2\u8g2\csrc/u8x8_d_st75160.c **** 
 257:..\..\..\u8g2\u8g2\csrc/u8x8_d_st75160.c ****   //U8X8_C( 0x030 ),				/* select 00 commands */
 258:..\..\..\u8g2\u8g2\csrc/u8x8_d_st75160.c ****   U8X8_CAA( 0x81, 0x18, 0x04 ),	/* Volume control */
ARM GAS  C:\Users\jesse\AppData\Local\Temp\ccs9oZQL.s 			page 6


 259:..\..\..\u8g2\u8g2\csrc/u8x8_d_st75160.c **** 
 260:..\..\..\u8g2\u8g2\csrc/u8x8_d_st75160.c ****   //U8X8_C( 0x030 ),				/* select 00 commands */
 261:..\..\..\u8g2\u8g2\csrc/u8x8_d_st75160.c ****   U8X8_CA( 0x020, 0x00b ),		/* Power control: Regulator, follower & booster on */
 262:..\..\..\u8g2\u8g2\csrc/u8x8_d_st75160.c ****   U8X8_DLY(100),
 263:..\..\..\u8g2\u8g2\csrc/u8x8_d_st75160.c **** 
 264:..\..\..\u8g2\u8g2\csrc/u8x8_d_st75160.c ****   U8X8_END_TRANSFER(),             	/* disable chip */
 265:..\..\..\u8g2\u8g2\csrc/u8x8_d_st75160.c ****   U8X8_END()             			/* end of sequence */
 266:..\..\..\u8g2\u8g2\csrc/u8x8_d_st75160.c **** };
 267:..\..\..\u8g2\u8g2\csrc/u8x8_d_st75160.c **** 
 268:..\..\..\u8g2\u8g2\csrc/u8x8_d_st75160.c **** 
 269:..\..\..\u8g2\u8g2\csrc/u8x8_d_st75160.c **** uint8_t u8x8_d_st75160_jm16096(u8x8_t *u8x8, uint8_t msg, uint8_t arg_int, void *arg_ptr)
 270:..\..\..\u8g2\u8g2\csrc/u8x8_d_st75160.c **** {
  28              		.loc 1 270 0
  29              		.cfi_startproc
  30              		@ args = 0, pretend = 0, frame = 0
  31              		@ frame_needed = 0, uses_anonymous_args = 0
  32              	.LVL0:
 271:..\..\..\u8g2\u8g2\csrc/u8x8_d_st75160.c ****   uint8_t x, c;
 272:..\..\..\u8g2\u8g2\csrc/u8x8_d_st75160.c ****   uint8_t *ptr;
 273:..\..\..\u8g2\u8g2\csrc/u8x8_d_st75160.c **** 
 274:..\..\..\u8g2\u8g2\csrc/u8x8_d_st75160.c ****   switch(msg)
  33              		.loc 1 274 0
  34 0000 0939     		subs	r1, r1, #9
  35              	.LVL1:
 270:..\..\..\u8g2\u8g2\csrc/u8x8_d_st75160.c ****   uint8_t x, c;
  36              		.loc 1 270 0
  37 0002 2DE9F041 		push	{r4, r5, r6, r7, r8, lr}
  38              		.cfi_def_cfa_offset 24
  39              		.cfi_offset 4, -24
  40              		.cfi_offset 5, -20
  41              		.cfi_offset 6, -16
  42              		.cfi_offset 7, -12
  43              		.cfi_offset 8, -8
  44              		.cfi_offset 14, -4
 270:..\..\..\u8g2\u8g2\csrc/u8x8_d_st75160.c ****   uint8_t x, c;
  45              		.loc 1 270 0
  46 0006 0446     		mov	r4, r0
  47 0008 1646     		mov	r6, r2
  48 000a 1F46     		mov	r7, r3
  49              		.loc 1 274 0
  50 000c 0629     		cmp	r1, #6
  51 000e 00F28480 		bhi	.L16
  52 0012 DFE801F0 		tbb	[pc, r1]
  53              	.LVL2:
  54              	.L4:
  55 0016 49       		.byte	(.L3-.L4)/2
  56 0017 4D       		.byte	(.L5-.L4)/2
  57 0018 51       		.byte	(.L6-.L4)/2
  58 0019 82       		.byte	(.L16-.L4)/2
  59 001a 59       		.byte	(.L7-.L4)/2
  60 001b 68       		.byte	(.L8-.L4)/2
  61 001c 04       		.byte	(.L9-.L4)/2
  62 001d 00       		.p2align 1
  63              	.L9:
 275:..\..\..\u8g2\u8g2\csrc/u8x8_d_st75160.c ****   {
 276:..\..\..\u8g2\u8g2\csrc/u8x8_d_st75160.c ****             case U8X8_MSG_DISPLAY_DRAW_TILE:
 277:..\..\..\u8g2\u8g2\csrc/u8x8_d_st75160.c ****               
ARM GAS  C:\Users\jesse\AppData\Local\Temp\ccs9oZQL.s 			page 7


 278:..\..\..\u8g2\u8g2\csrc/u8x8_d_st75160.c ****               u8x8_cad_StartTransfer(u8x8);
  64              		.loc 1 278 0
  65 001e FFF7FEFF 		bl	u8x8_cad_StartTransfer
  66              	.LVL3:
 279:..\..\..\u8g2\u8g2\csrc/u8x8_d_st75160.c ****               x = ((u8x8_tile_t *)arg_ptr)->x_pos;    
 280:..\..\..\u8g2\u8g2\csrc/u8x8_d_st75160.c ****               x *= 8;
 281:..\..\..\u8g2\u8g2\csrc/u8x8_d_st75160.c ****               
 282:..\..\..\u8g2\u8g2\csrc/u8x8_d_st75160.c ****               u8x8_cad_SendCmd(u8x8, 0x030 );	/* select command set */
  67              		.loc 1 282 0
  68 0022 3021     		movs	r1, #48
  69 0024 2046     		mov	r0, r4
 279:..\..\..\u8g2\u8g2\csrc/u8x8_d_st75160.c ****               x = ((u8x8_tile_t *)arg_ptr)->x_pos;    
  70              		.loc 1 279 0
  71 0026 7D79     		ldrb	r5, [r7, #5]	@ zero_extendqisi2
  72              	.LVL4:
  73              		.loc 1 282 0
  74 0028 FFF7FEFF 		bl	u8x8_cad_SendCmd
  75              	.LVL5:
 283:..\..\..\u8g2\u8g2\csrc/u8x8_d_st75160.c ****               u8x8_cad_SendCmd(u8x8, 0x075 );	/* row */
  76              		.loc 1 283 0
  77 002c 7521     		movs	r1, #117
  78 002e 2046     		mov	r0, r4
  79 0030 FFF7FEFF 		bl	u8x8_cad_SendCmd
  80              	.LVL6:
 284:..\..\..\u8g2\u8g2\csrc/u8x8_d_st75160.c **** 	      if ( u8x8->x_offset == 0 )		/* 0 means flip mode 1 */
  81              		.loc 1 284 0
  82 0034 94F82230 		ldrb	r3, [r4, #34]	@ zero_extendqisi2
 280:..\..\..\u8g2\u8g2\csrc/u8x8_d_st75160.c ****               
  83              		.loc 1 280 0
  84 0038 ED00     		lsls	r5, r5, #3
  85              	.LVL7:
  86 003a 5FFA85F8 		uxtb	r8, r5
  87              	.LVL8:
  88 003e B979     		ldrb	r1, [r7, #6]	@ zero_extendqisi2
  89              		.loc 1 284 0
  90 0040 0BB9     		cbnz	r3, .L10
 285:..\..\..\u8g2\u8g2\csrc/u8x8_d_st75160.c **** 		u8x8_cad_SendArg(u8x8, 1+(((u8x8_tile_t *)arg_ptr)->y_pos));
  91              		.loc 1 285 0
  92 0042 0131     		adds	r1, r1, #1
  93 0044 C9B2     		uxtb	r1, r1
  94              	.L10:
 286:..\..\..\u8g2\u8g2\csrc/u8x8_d_st75160.c **** 	      else
 287:..\..\..\u8g2\u8g2\csrc/u8x8_d_st75160.c **** 		u8x8_cad_SendArg(u8x8, (((u8x8_tile_t *)arg_ptr)->y_pos));
  95              		.loc 1 287 0
  96 0046 2046     		mov	r0, r4
  97 0048 FFF7FEFF 		bl	u8x8_cad_SendArg
  98              	.LVL9:
 288:..\..\..\u8g2\u8g2\csrc/u8x8_d_st75160.c ****               u8x8_cad_SendArg(u8x8, 0x04f);
  99              		.loc 1 288 0
 100 004c 4F21     		movs	r1, #79
 101 004e 2046     		mov	r0, r4
 102 0050 FFF7FEFF 		bl	u8x8_cad_SendArg
 103              	.LVL10:
 289:..\..\..\u8g2\u8g2\csrc/u8x8_d_st75160.c ****               //u8x8_cad_SendArg(u8x8, (((u8x8_tile_t *)arg_ptr)->y_pos));
 290:..\..\..\u8g2\u8g2\csrc/u8x8_d_st75160.c ****               u8x8_cad_SendCmd(u8x8, 0x015 );	/* col */
 104              		.loc 1 290 0
 105 0054 1521     		movs	r1, #21
ARM GAS  C:\Users\jesse\AppData\Local\Temp\ccs9oZQL.s 			page 8


 106 0056 2046     		mov	r0, r4
 107 0058 FFF7FEFF 		bl	u8x8_cad_SendCmd
 108              	.LVL11:
 291:..\..\..\u8g2\u8g2\csrc/u8x8_d_st75160.c ****               u8x8_cad_SendArg(u8x8, x+u8x8->x_offset);
 109              		.loc 1 291 0
 110 005c 94F82210 		ldrb	r1, [r4, #34]	@ zero_extendqisi2
 111 0060 2046     		mov	r0, r4
 112 0062 4144     		add	r1, r1, r8
 113 0064 C9B2     		uxtb	r1, r1
 114 0066 FFF7FEFF 		bl	u8x8_cad_SendArg
 115              	.LVL12:
 292:..\..\..\u8g2\u8g2\csrc/u8x8_d_st75160.c ****               u8x8_cad_SendArg(u8x8, 255);
 116              		.loc 1 292 0
 117 006a FF21     		movs	r1, #255
 118 006c 2046     		mov	r0, r4
 119 006e FFF7FEFF 		bl	u8x8_cad_SendArg
 120              	.LVL13:
 293:..\..\..\u8g2\u8g2\csrc/u8x8_d_st75160.c ****               u8x8_cad_SendCmd(u8x8, 0x05c );	
 121              		.loc 1 293 0
 122 0072 5C21     		movs	r1, #92
 123 0074 2046     		mov	r0, r4
 124 0076 FFF7FEFF 		bl	u8x8_cad_SendCmd
 125              	.LVL14:
 126              	.L13:
 294:..\..\..\u8g2\u8g2\csrc/u8x8_d_st75160.c ****             
 295:..\..\..\u8g2\u8g2\csrc/u8x8_d_st75160.c ****               
 296:..\..\..\u8g2\u8g2\csrc/u8x8_d_st75160.c ****               do
 297:..\..\..\u8g2\u8g2\csrc/u8x8_d_st75160.c ****               {
 298:..\..\..\u8g2\u8g2\csrc/u8x8_d_st75160.c ****                 c = ((u8x8_tile_t *)arg_ptr)->cnt;
 127              		.loc 1 298 0
 128 007a 3B79     		ldrb	r3, [r7, #4]	@ zero_extendqisi2
 129              	.LVL15:
 299:..\..\..\u8g2\u8g2\csrc/u8x8_d_st75160.c ****                 ptr = ((u8x8_tile_t *)arg_ptr)->tile_ptr;
 130              		.loc 1 299 0
 131 007c 3A68     		ldr	r2, [r7]
 132              	.LVL16:
 300:..\..\..\u8g2\u8g2\csrc/u8x8_d_st75160.c ****                 c *= 8;
 133              		.loc 1 300 0
 134 007e DB00     		lsls	r3, r3, #3
 135              	.LVL17:
 136 0080 DDB2     		uxtb	r5, r3
 137              	.LVL18:
 301:..\..\..\u8g2\u8g2\csrc/u8x8_d_st75160.c **** 
 302:..\..\..\u8g2\u8g2\csrc/u8x8_d_st75160.c ****                 if ( c + x > 160u )
 138              		.loc 1 302 0
 139 0082 05EB0803 		add	r3, r5, r8
 140 0086 A02B     		cmp	r3, #160
 141              	.LVL19:
 303:..\..\..\u8g2\u8g2\csrc/u8x8_d_st75160.c ****                 {
 304:..\..\..\u8g2\u8g2\csrc/u8x8_d_st75160.c ****                         c = 160u;
 305:..\..\..\u8g2\u8g2\csrc/u8x8_d_st75160.c ****                         c -= x;
 142              		.loc 1 305 0
 143 0088 C4BF     		itt	gt
 144 008a C8F1A003 		rsbgt	r3, r8, #160
 145 008e DDB2     		uxtbgt	r5, r3
 146              	.LVL20:
 306:..\..\..\u8g2\u8g2\csrc/u8x8_d_st75160.c ****                 }
ARM GAS  C:\Users\jesse\AppData\Local\Temp\ccs9oZQL.s 			page 9


 307:..\..\..\u8g2\u8g2\csrc/u8x8_d_st75160.c ****                       
 308:..\..\..\u8g2\u8g2\csrc/u8x8_d_st75160.c ****                 u8x8_cad_SendData(u8x8, c, ptr); 	
 147              		.loc 1 308 0
 148 0090 2946     		mov	r1, r5
 149 0092 2046     		mov	r0, r4
 309:..\..\..\u8g2\u8g2\csrc/u8x8_d_st75160.c ****                 x += c;
 310:..\..\..\u8g2\u8g2\csrc/u8x8_d_st75160.c ****                 arg_int--;
 150              		.loc 1 310 0
 151 0094 013E     		subs	r6, r6, #1
 152              	.LVL21:
 308:..\..\..\u8g2\u8g2\csrc/u8x8_d_st75160.c ****                 x += c;
 153              		.loc 1 308 0
 154 0096 FFF7FEFF 		bl	u8x8_cad_SendData
 155              	.LVL22:
 309:..\..\..\u8g2\u8g2\csrc/u8x8_d_st75160.c ****                 x += c;
 156              		.loc 1 309 0
 157 009a 4544     		add	r5, r5, r8
 158              	.LVL23:
 311:..\..\..\u8g2\u8g2\csrc/u8x8_d_st75160.c ****               } while( arg_int > 0 );
 159              		.loc 1 311 0
 160 009c 16F0FF06 		ands	r6, r6, #255
 309:..\..\..\u8g2\u8g2\csrc/u8x8_d_st75160.c ****                 x += c;
 161              		.loc 1 309 0
 162 00a0 5FFA85F8 		uxtb	r8, r5
 163              	.LVL24:
 164              		.loc 1 311 0
 165 00a4 E9D1     		bne	.L13
 166 00a6 32E0     		b	.L19
 167              	.LVL25:
 168              	.L3:
 312:..\..\..\u8g2\u8g2\csrc/u8x8_d_st75160.c ****               
 313:..\..\..\u8g2\u8g2\csrc/u8x8_d_st75160.c ****               u8x8_cad_EndTransfer(u8x8);
 314:..\..\..\u8g2\u8g2\csrc/u8x8_d_st75160.c ****               return 1;
 315:..\..\..\u8g2\u8g2\csrc/u8x8_d_st75160.c ****         case U8X8_MSG_DISPLAY_SETUP_MEMORY:
 316:..\..\..\u8g2\u8g2\csrc/u8x8_d_st75160.c ****             //u8x8_SetI2CAddress(u8x8, 0x078);		/* lowest I2C adr of the ST75256 */
 317:..\..\..\u8g2\u8g2\csrc/u8x8_d_st75160.c **** 	    u8x8_d_helper_display_setup_memory(u8x8, &u8x8_st75160_jm16096_display_info);
 169              		.loc 1 317 0
 170 00a8 1D49     		ldr	r1, .L23
 171 00aa FFF7FEFF 		bl	u8x8_d_helper_display_setup_memory
 172              	.LVL26:
 173 00ae 31E0     		b	.L18
 174              	.LVL27:
 175              	.L5:
 318:..\..\..\u8g2\u8g2\csrc/u8x8_d_st75160.c ****             return 1;
 319:..\..\..\u8g2\u8g2\csrc/u8x8_d_st75160.c ****         case U8X8_MSG_DISPLAY_INIT:
 320:..\..\..\u8g2\u8g2\csrc/u8x8_d_st75160.c **** 	    u8x8_d_helper_display_init(u8x8);
 176              		.loc 1 320 0
 177 00b0 FFF7FEFF 		bl	u8x8_d_helper_display_init
 178              	.LVL28:
 321:..\..\..\u8g2\u8g2\csrc/u8x8_d_st75160.c **** 	    u8x8_cad_SendSequence(u8x8, u8x8_d_st75160_jm16096_init_seq);    
 179              		.loc 1 321 0
 180 00b4 1B49     		ldr	r1, .L23+4
 181 00b6 03E0     		b	.L20
 182              	.LVL29:
 183              	.L6:
 322:..\..\..\u8g2\u8g2\csrc/u8x8_d_st75160.c ****             return 1;
 323:..\..\..\u8g2\u8g2\csrc/u8x8_d_st75160.c ****         case U8X8_MSG_DISPLAY_SET_POWER_SAVE:
ARM GAS  C:\Users\jesse\AppData\Local\Temp\ccs9oZQL.s 			page 10


 324:..\..\..\u8g2\u8g2\csrc/u8x8_d_st75160.c ****               if ( arg_int == 0 )
 184              		.loc 1 324 0
 185 00b8 0AB9     		cbnz	r2, .L14
 325:..\..\..\u8g2\u8g2\csrc/u8x8_d_st75160.c ****                 u8x8_cad_SendSequence(u8x8, u8x8_d_st75256_256x128_powersave0_seq);
 186              		.loc 1 325 0
 187 00ba 1B49     		ldr	r1, .L23+8
 188 00bc 00E0     		b	.L20
 189              	.L14:
 326:..\..\..\u8g2\u8g2\csrc/u8x8_d_st75160.c ****               else
 327:..\..\..\u8g2\u8g2\csrc/u8x8_d_st75160.c ****                 u8x8_cad_SendSequence(u8x8, u8x8_d_st75256_256x128_powersave1_seq);
 190              		.loc 1 327 0
 191 00be 1B49     		ldr	r1, .L23+12
 192              	.LVL30:
 193              	.L20:
 194 00c0 2046     		mov	r0, r4
 195 00c2 FFF7FEFF 		bl	u8x8_cad_SendSequence
 196              	.LVL31:
 197 00c6 25E0     		b	.L18
 198              	.LVL32:
 199              	.L7:
 328:..\..\..\u8g2\u8g2\csrc/u8x8_d_st75160.c **** 
 329:..\..\..\u8g2\u8g2\csrc/u8x8_d_st75160.c ****               return 1;
 330:..\..\..\u8g2\u8g2\csrc/u8x8_d_st75160.c **** 	case U8X8_MSG_DISPLAY_SET_FLIP_MODE:
 331:..\..\..\u8g2\u8g2\csrc/u8x8_d_st75160.c **** 	    if ( arg_int == 0 )
 200              		.loc 1 331 0
 201 00c8 2AB9     		cbnz	r2, .L15
 332:..\..\..\u8g2\u8g2\csrc/u8x8_d_st75160.c **** 	    {
 333:..\..\..\u8g2\u8g2\csrc/u8x8_d_st75160.c **** 	      u8x8_cad_SendSequence(u8x8, u8x8_d_st75256_jlx172104_flip0_seq);
 202              		.loc 1 333 0
 203 00ca 1949     		ldr	r1, .L23+16
 204 00cc FFF7FEFF 		bl	u8x8_cad_SendSequence
 205              	.LVL33:
 334:..\..\..\u8g2\u8g2\csrc/u8x8_d_st75160.c **** 	      u8x8->x_offset = u8x8->display_info->default_x_offset;
 206              		.loc 1 334 0
 207 00d0 2368     		ldr	r3, [r4]
 208 00d2 9B7C     		ldrb	r3, [r3, #18]	@ zero_extendqisi2
 209 00d4 04E0     		b	.L21
 210              	.LVL34:
 211              	.L15:
 335:..\..\..\u8g2\u8g2\csrc/u8x8_d_st75160.c **** 	    }
 336:..\..\..\u8g2\u8g2\csrc/u8x8_d_st75160.c **** 	    else
 337:..\..\..\u8g2\u8g2\csrc/u8x8_d_st75160.c **** 	    {
 338:..\..\..\u8g2\u8g2\csrc/u8x8_d_st75160.c **** 	      u8x8_cad_SendSequence(u8x8, u8x8_d_st75256_jlx172104_flip1_seq);
 212              		.loc 1 338 0
 213 00d6 1749     		ldr	r1, .L23+20
 214 00d8 FFF7FEFF 		bl	u8x8_cad_SendSequence
 215              	.LVL35:
 339:..\..\..\u8g2\u8g2\csrc/u8x8_d_st75160.c **** 	      u8x8->x_offset = u8x8->display_info->flipmode_x_offset;
 216              		.loc 1 339 0
 217 00dc 2368     		ldr	r3, [r4]
 218 00de DB7C     		ldrb	r3, [r3, #19]	@ zero_extendqisi2
 219              	.L21:
 220 00e0 84F82230 		strb	r3, [r4, #34]
 221 00e4 16E0     		b	.L18
 222              	.LVL36:
 223              	.L8:
 340:..\..\..\u8g2\u8g2\csrc/u8x8_d_st75160.c **** 	    }
ARM GAS  C:\Users\jesse\AppData\Local\Temp\ccs9oZQL.s 			page 11


 341:..\..\..\u8g2\u8g2\csrc/u8x8_d_st75160.c **** 	    return 1;
 342:..\..\..\u8g2\u8g2\csrc/u8x8_d_st75160.c **** 		
 343:..\..\..\u8g2\u8g2\csrc/u8x8_d_st75160.c **** #ifdef U8X8_WITH_SET_CONTRAST
 344:..\..\..\u8g2\u8g2\csrc/u8x8_d_st75160.c ****         case U8X8_MSG_DISPLAY_SET_CONTRAST:
 345:..\..\..\u8g2\u8g2\csrc/u8x8_d_st75160.c **** 
 346:..\..\..\u8g2\u8g2\csrc/u8x8_d_st75160.c ****               u8x8_cad_StartTransfer(u8x8);
 224              		.loc 1 346 0
 225 00e6 FFF7FEFF 		bl	u8x8_cad_StartTransfer
 226              	.LVL37:
 347:..\..\..\u8g2\u8g2\csrc/u8x8_d_st75160.c ****               
 348:..\..\..\u8g2\u8g2\csrc/u8x8_d_st75160.c ****               u8x8_cad_SendCmd(u8x8, 0x030 );
 227              		.loc 1 348 0
 228 00ea 3021     		movs	r1, #48
 229 00ec 2046     		mov	r0, r4
 230 00ee FFF7FEFF 		bl	u8x8_cad_SendCmd
 231              	.LVL38:
 349:..\..\..\u8g2\u8g2\csrc/u8x8_d_st75160.c ****               u8x8_cad_SendCmd(u8x8, 0x081 );  /* there are 9 bit for the volume control */
 232              		.loc 1 349 0
 233 00f2 8121     		movs	r1, #129
 234 00f4 2046     		mov	r0, r4
 235 00f6 FFF7FEFF 		bl	u8x8_cad_SendCmd
 236              	.LVL39:
 350:..\..\..\u8g2\u8g2\csrc/u8x8_d_st75160.c ****               u8x8_cad_SendArg(u8x8, (arg_int & 0x1f)<<1 );	/* lower 6 bit */
 237              		.loc 1 350 0
 238 00fa 7100     		lsls	r1, r6, #1
 239 00fc 01F03E01 		and	r1, r1, #62
 240 0100 2046     		mov	r0, r4
 241 0102 FFF7FEFF 		bl	u8x8_cad_SendArg
 242              	.LVL40:
 351:..\..\..\u8g2\u8g2\csrc/u8x8_d_st75160.c ****               u8x8_cad_SendArg(u8x8, (arg_int>>5));		/* upper 3 bit */
 243              		.loc 1 351 0
 244 0106 7109     		lsrs	r1, r6, #5
 245 0108 2046     		mov	r0, r4
 246 010a FFF7FEFF 		bl	u8x8_cad_SendArg
 247              	.LVL41:
 248              	.L19:
 352:..\..\..\u8g2\u8g2\csrc/u8x8_d_st75160.c ****               
 353:..\..\..\u8g2\u8g2\csrc/u8x8_d_st75160.c ****               u8x8_cad_EndTransfer(u8x8);
 249              		.loc 1 353 0
 250 010e 2046     		mov	r0, r4
 251 0110 FFF7FEFF 		bl	u8x8_cad_EndTransfer
 252              	.LVL42:
 253              	.L18:
 354:..\..\..\u8g2\u8g2\csrc/u8x8_d_st75160.c ****               return 1;
 254              		.loc 1 354 0
 255 0114 0120     		movs	r0, #1
 256 0116 BDE8F081 		pop	{r4, r5, r6, r7, r8, pc}
 257              	.LVL43:
 258              	.L16:
 355:..\..\..\u8g2\u8g2\csrc/u8x8_d_st75160.c **** #endif
 356:..\..\..\u8g2\u8g2\csrc/u8x8_d_st75160.c ****   }
 357:..\..\..\u8g2\u8g2\csrc/u8x8_d_st75160.c ****   return 0;
 259              		.loc 1 357 0
 260 011a 0020     		movs	r0, #0
 261              	.LVL44:
 358:..\..\..\u8g2\u8g2\csrc/u8x8_d_st75160.c ****   
 359:..\..\..\u8g2\u8g2\csrc/u8x8_d_st75160.c ****   
ARM GAS  C:\Users\jesse\AppData\Local\Temp\ccs9oZQL.s 			page 12


 360:..\..\..\u8g2\u8g2\csrc/u8x8_d_st75160.c ****   
 361:..\..\..\u8g2\u8g2\csrc/u8x8_d_st75160.c **** }
 262              		.loc 1 361 0
 263 011c BDE8F081 		pop	{r4, r5, r6, r7, r8, pc}
 264              	.LVL45:
 265              	.L24:
 266              		.align	2
 267              	.L23:
 268 0120 00000000 		.word	.LANCHOR0
 269 0124 18000000 		.word	.LANCHOR0+24
 270 0128 81000000 		.word	.LANCHOR0+129
 271 012c 8C000000 		.word	.LANCHOR0+140
 272 0130 95000000 		.word	.LANCHOR0+149
 273 0134 A2000000 		.word	.LANCHOR0+162
 274              		.cfi_endproc
 275              	.LFE0:
 276              		.size	u8x8_d_st75160_jm16096, .-u8x8_d_st75160_jm16096
 277              		.section	.rodata
 278              		.align	2
 279              		.set	.LANCHOR0,. + 0
 280              		.type	u8x8_st75160_jm16096_display_info, %object
 281              		.size	u8x8_st75160_jm16096_display_info, 24
 282              	u8x8_st75160_jm16096_display_info:
 283 0000 00       		.byte	0
 284 0001 01       		.byte	1
 285 0002 14       		.byte	20
 286 0003 14       		.byte	20
 287 0004 05       		.byte	5
 288 0005 05       		.byte	5
 289 0006 14       		.byte	20
 290 0007 28       		.byte	40
 291 0008 00093D00 		.word	4000000
 292 000c 00       		.byte	0
 293 000d 04       		.byte	4
 294 000e 0F       		.byte	15
 295 000f 46       		.byte	70
 296 0010 14       		.byte	20
 297 0011 0C       		.byte	12
 298 0012 00       		.byte	0
 299 0013 00       		.byte	0
 300 0014 A000     		.short	160
 301 0016 6000     		.short	96
 302              		.type	u8x8_d_st75160_jm16096_init_seq, %object
 303              		.size	u8x8_d_st75160_jm16096_init_seq, 105
 304              	u8x8_d_st75160_jm16096_init_seq:
 305 0018 18       		.byte	24
 306 0019 FE       		.byte	-2
 307 001a 14       		.byte	20
 308 001b 15       		.byte	21
 309 001c 30       		.byte	48
 310 001d 15       		.byte	21
 311 001e 94       		.byte	-108
 312 001f 15       		.byte	21
 313 0020 AE       		.byte	-82
 314 0021 15       		.byte	21
 315 0022 31       		.byte	49
 316 0023 15       		.byte	21
ARM GAS  C:\Users\jesse\AppData\Local\Temp\ccs9oZQL.s 			page 13


 317 0024 D7       		.byte	-41
 318 0025 16       		.byte	22
 319 0026 9F       		.byte	-97
 320 0027 15       		.byte	21
 321 0028 32       		.byte	50
 322 0029 16       		.byte	22
 323 002a 00       		.byte	0
 324 002b 16       		.byte	22
 325 002c 01       		.byte	1
 326 002d 16       		.byte	22
 327 002e 04       		.byte	4
 328 002f 15       		.byte	21
 329 0030 20       		.byte	32
 330 0031 16       		.byte	22
 331 0032 01       		.byte	1
 332 0033 16       		.byte	22
 333 0034 03       		.byte	3
 334 0035 16       		.byte	22
 335 0036 05       		.byte	5
 336 0037 16       		.byte	22
 337 0038 07       		.byte	7
 338 0039 16       		.byte	22
 339 003a 09       		.byte	9
 340 003b 16       		.byte	22
 341 003c 0B       		.byte	11
 342 003d 16       		.byte	22
 343 003e 0D       		.byte	13
 344 003f 16       		.byte	22
 345 0040 10       		.byte	16
 346 0041 16       		.byte	22
 347 0042 11       		.byte	17
 348 0043 16       		.byte	22
 349 0044 13       		.byte	19
 350 0045 16       		.byte	22
 351 0046 15       		.byte	21
 352 0047 16       		.byte	22
 353 0048 17       		.byte	23
 354 0049 16       		.byte	22
 355 004a 19       		.byte	25
 356 004b 16       		.byte	22
 357 004c 1B       		.byte	27
 358 004d 16       		.byte	22
 359 004e 1D       		.byte	29
 360 004f 16       		.byte	22
 361 0050 1F       		.byte	31
 362 0051 15       		.byte	21
 363 0052 30       		.byte	48
 364 0053 15       		.byte	21
 365 0054 75       		.byte	117
 366 0055 16       		.byte	22
 367 0056 00       		.byte	0
 368 0057 16       		.byte	22
 369 0058 4F       		.byte	79
 370 0059 15       		.byte	21
 371 005a 15       		.byte	21
 372 005b 16       		.byte	22
 373 005c 00       		.byte	0
ARM GAS  C:\Users\jesse\AppData\Local\Temp\ccs9oZQL.s 			page 14


 374 005d 16       		.byte	22
 375 005e EF       		.byte	-17
 376 005f 15       		.byte	21
 377 0060 BC       		.byte	-68
 378 0061 16       		.byte	22
 379 0062 02       		.byte	2
 380 0063 16       		.byte	22
 381 0064 A6       		.byte	-90
 382 0065 15       		.byte	21
 383 0066 0C       		.byte	12
 384 0067 15       		.byte	21
 385 0068 CA       		.byte	-54
 386 0069 16       		.byte	22
 387 006a 00       		.byte	0
 388 006b 16       		.byte	22
 389 006c 5F       		.byte	95
 390 006d 16       		.byte	22
 391 006e 20       		.byte	32
 392 006f 15       		.byte	21
 393 0070 F0       		.byte	-16
 394 0071 16       		.byte	22
 395 0072 10       		.byte	16
 396 0073 15       		.byte	21
 397 0074 81       		.byte	-127
 398 0075 16       		.byte	22
 399 0076 18       		.byte	24
 400 0077 16       		.byte	22
 401 0078 04       		.byte	4
 402 0079 15       		.byte	21
 403 007a 20       		.byte	32
 404 007b 16       		.byte	22
 405 007c 0B       		.byte	11
 406 007d FE       		.byte	-2
 407 007e 64       		.byte	100
 408 007f 19       		.byte	25
 409 0080 FF       		.byte	-1
 410              		.type	u8x8_d_st75256_256x128_powersave0_seq, %object
 411              		.size	u8x8_d_st75256_256x128_powersave0_seq, 11
 412              	u8x8_d_st75256_256x128_powersave0_seq:
 413 0081 18       		.byte	24
 414 0082 15       		.byte	21
 415 0083 30       		.byte	48
 416 0084 15       		.byte	21
 417 0085 94       		.byte	-108
 418 0086 FE       		.byte	-2
 419 0087 0A       		.byte	10
 420 0088 15       		.byte	21
 421 0089 AF       		.byte	-81
 422 008a 19       		.byte	25
 423 008b FF       		.byte	-1
 424              		.type	u8x8_d_st75256_256x128_powersave1_seq, %object
 425              		.size	u8x8_d_st75256_256x128_powersave1_seq, 9
 426              	u8x8_d_st75256_256x128_powersave1_seq:
 427 008c 18       		.byte	24
 428 008d 15       		.byte	21
 429 008e 30       		.byte	48
 430 008f 15       		.byte	21
ARM GAS  C:\Users\jesse\AppData\Local\Temp\ccs9oZQL.s 			page 15


 431 0090 AE       		.byte	-82
 432 0091 15       		.byte	21
 433 0092 95       		.byte	-107
 434 0093 19       		.byte	25
 435 0094 FF       		.byte	-1
 436              		.type	u8x8_d_st75256_jlx172104_flip0_seq, %object
 437              		.size	u8x8_d_st75256_jlx172104_flip0_seq, 13
 438              	u8x8_d_st75256_jlx172104_flip0_seq:
 439 0095 18       		.byte	24
 440 0096 15       		.byte	21
 441 0097 30       		.byte	48
 442 0098 15       		.byte	21
 443 0099 BC       		.byte	-68
 444 009a 16       		.byte	22
 445 009b 02       		.byte	2
 446 009c 16       		.byte	22
 447 009d A6       		.byte	-90
 448 009e 15       		.byte	21
 449 009f 0C       		.byte	12
 450 00a0 19       		.byte	25
 451 00a1 FF       		.byte	-1
 452              		.type	u8x8_d_st75256_jlx172104_flip1_seq, %object
 453              		.size	u8x8_d_st75256_jlx172104_flip1_seq, 13
 454              	u8x8_d_st75256_jlx172104_flip1_seq:
 455 00a2 18       		.byte	24
 456 00a3 15       		.byte	21
 457 00a4 30       		.byte	48
 458 00a5 15       		.byte	21
 459 00a6 BC       		.byte	-68
 460 00a7 16       		.byte	22
 461 00a8 01       		.byte	1
 462 00a9 16       		.byte	22
 463 00aa A6       		.byte	-90
 464 00ab 15       		.byte	21
 465 00ac 08       		.byte	8
 466 00ad 19       		.byte	25
 467 00ae FF       		.byte	-1
 468              		.text
 469              	.Letext0:
 470              		.file 2 "c:\\program files (x86)\\cypress\\psoc creator\\4.4\\psoc creator\\import\\gnu\\arm\\5.4.
 471              		.file 3 "c:\\program files (x86)\\cypress\\psoc creator\\4.4\\psoc creator\\import\\gnu\\arm\\5.4.
 472              		.file 4 "..\\..\\..\\u8g2\\u8g2\\csrc\\u8x8.h"