ARM GAS  C:\Users\jesse\AppData\Local\Temp\cc1UJDDI.s 			page 1


   1              		.syntax unified
   2              		.cpu cortex-m3
   3              		.fpu softvfp
   4              		.eabi_attribute 20, 1
   5              		.eabi_attribute 21, 1
   6              		.eabi_attribute 23, 3
   7              		.eabi_attribute 24, 1
   8              		.eabi_attribute 25, 1
   9              		.eabi_attribute 26, 1
  10              		.eabi_attribute 30, 4
  11              		.eabi_attribute 34, 1
  12              		.eabi_attribute 18, 4
  13              		.thumb
  14              		.syntax unified
  15              		.file	"u8x8_d_uc1638.c"
  16              		.text
  17              	.Ltext0:
  18              		.cfi_sections	.debug_frame
  19              		.section	.text.u8x8_d_uc1638_common,"ax",%progbits
  20              		.align	1
  21              		.global	u8x8_d_uc1638_common
  22              		.thumb
  23              		.thumb_func
  24              		.type	u8x8_d_uc1638_common, %function
  25              	u8x8_d_uc1638_common:
  26              	.LFB0:
  27              		.file 1 "..\\..\\..\\u8g2\\u8g2\\csrc\\u8x8_d_uc1638.c"
   1:..\..\..\u8g2\u8g2\csrc/u8x8_d_uc1638.c **** /*
   2:..\..\..\u8g2\u8g2\csrc/u8x8_d_uc1638.c **** 
   3:..\..\..\u8g2\u8g2\csrc/u8x8_d_uc1638.c ****   u8x8_d_uc1638.c
   4:..\..\..\u8g2\u8g2\csrc/u8x8_d_uc1638.c ****   
   5:..\..\..\u8g2\u8g2\csrc/u8x8_d_uc1638.c ****   Universal 8bit Graphics Library (https://github.com/olikraus/u8g2/)
   6:..\..\..\u8g2\u8g2\csrc/u8x8_d_uc1638.c **** 
   7:..\..\..\u8g2\u8g2\csrc/u8x8_d_uc1638.c ****   Copyright (c) 2016, olikraus@gmail.com
   8:..\..\..\u8g2\u8g2\csrc/u8x8_d_uc1638.c ****   All rights reserved.
   9:..\..\..\u8g2\u8g2\csrc/u8x8_d_uc1638.c **** 
  10:..\..\..\u8g2\u8g2\csrc/u8x8_d_uc1638.c ****   Redistribution and use in source and binary forms, with or without modification, 
  11:..\..\..\u8g2\u8g2\csrc/u8x8_d_uc1638.c ****   are permitted provided that the following conditions are met:
  12:..\..\..\u8g2\u8g2\csrc/u8x8_d_uc1638.c **** 
  13:..\..\..\u8g2\u8g2\csrc/u8x8_d_uc1638.c ****   * Redistributions of source code must retain the above copyright notice, this list 
  14:..\..\..\u8g2\u8g2\csrc/u8x8_d_uc1638.c ****     of conditions and the following disclaimer.
  15:..\..\..\u8g2\u8g2\csrc/u8x8_d_uc1638.c ****     
  16:..\..\..\u8g2\u8g2\csrc/u8x8_d_uc1638.c ****   * Redistributions in binary form must reproduce the above copyright notice, this 
  17:..\..\..\u8g2\u8g2\csrc/u8x8_d_uc1638.c ****     list of conditions and the following disclaimer in the documentation and/or other 
  18:..\..\..\u8g2\u8g2\csrc/u8x8_d_uc1638.c ****     materials provided with the distribution.
  19:..\..\..\u8g2\u8g2\csrc/u8x8_d_uc1638.c **** 
  20:..\..\..\u8g2\u8g2\csrc/u8x8_d_uc1638.c ****   THIS SOFTWARE IS PROVIDED BY THE COPYRIGHT HOLDERS AND 
  21:..\..\..\u8g2\u8g2\csrc/u8x8_d_uc1638.c ****   CONTRIBUTORS "AS IS" AND ANY EXPRESS OR IMPLIED WARRANTIES, 
  22:..\..\..\u8g2\u8g2\csrc/u8x8_d_uc1638.c ****   INCLUDING, BUT NOT LIMITED TO, THE IMPLIED WARRANTIES OF 
  23:..\..\..\u8g2\u8g2\csrc/u8x8_d_uc1638.c ****   MERCHANTABILITY AND FITNESS FOR A PARTICULAR PURPOSE ARE 
  24:..\..\..\u8g2\u8g2\csrc/u8x8_d_uc1638.c ****   DISCLAIMED. IN NO EVENT SHALL THE COPYRIGHT HOLDER OR 
  25:..\..\..\u8g2\u8g2\csrc/u8x8_d_uc1638.c ****   CONTRIBUTORS BE LIABLE FOR ANY DIRECT, INDIRECT, INCIDENTAL, 
  26:..\..\..\u8g2\u8g2\csrc/u8x8_d_uc1638.c ****   SPECIAL, EXEMPLARY, OR CONSEQUENTIAL DAMAGES (INCLUDING, BUT 
  27:..\..\..\u8g2\u8g2\csrc/u8x8_d_uc1638.c ****   NOT LIMITED TO, PROCUREMENT OF SUBSTITUTE GOODS OR SERVICES; 
  28:..\..\..\u8g2\u8g2\csrc/u8x8_d_uc1638.c ****   LOSS OF USE, DATA, OR PROFITS; OR BUSINESS INTERRUPTION) HOWEVER 
  29:..\..\..\u8g2\u8g2\csrc/u8x8_d_uc1638.c ****   CAUSED AND ON ANY THEORY OF LIABILITY, WHETHER IN CONTRACT, 
  30:..\..\..\u8g2\u8g2\csrc/u8x8_d_uc1638.c ****   STRICT LIABILITY, OR TORT (INCLUDING NEGLIGENCE OR OTHERWISE) 
ARM GAS  C:\Users\jesse\AppData\Local\Temp\cc1UJDDI.s 			page 2


  31:..\..\..\u8g2\u8g2\csrc/u8x8_d_uc1638.c ****   ARISING IN ANY WAY OUT OF THE USE OF THIS SOFTWARE, EVEN IF 
  32:..\..\..\u8g2\u8g2\csrc/u8x8_d_uc1638.c ****   ADVISED OF THE POSSIBILITY OF SUCH DAMAGE.  
  33:..\..\..\u8g2\u8g2\csrc/u8x8_d_uc1638.c **** 
  34:..\..\..\u8g2\u8g2\csrc/u8x8_d_uc1638.c ****   
  35:..\..\..\u8g2\u8g2\csrc/u8x8_d_uc1638.c ****   Support for the UC1638 controller
  36:..\..\..\u8g2\u8g2\csrc/u8x8_d_uc1638.c ****   
  37:..\..\..\u8g2\u8g2\csrc/u8x8_d_uc1638.c ****   20 Jun 2021: 
  38:..\..\..\u8g2\u8g2\csrc/u8x8_d_uc1638.c ****     The u8x8_d_uc1638_192x96 is tested and works.
  39:..\..\..\u8g2\u8g2\csrc/u8x8_d_uc1638.c ****     The u8x8_d_uc1638_160x128 will probably not work, there is no display to test this
  40:..\..\..\u8g2\u8g2\csrc/u8x8_d_uc1638.c ****       WARNING; The u8x8_d_uc1638_160x128 also has an inverted CS signal !!!
  41:..\..\..\u8g2\u8g2\csrc/u8x8_d_uc1638.c ****     Changed the SPI mode from 3 to 0, because it work nicely with mode 0
  42:..\..\..\u8g2\u8g2\csrc/u8x8_d_uc1638.c **** 
  43:..\..\..\u8g2\u8g2\csrc/u8x8_d_uc1638.c ****   
  44:..\..\..\u8g2\u8g2\csrc/u8x8_d_uc1638.c **** */
  45:..\..\..\u8g2\u8g2\csrc/u8x8_d_uc1638.c **** #include "u8x8.h"
  46:..\..\..\u8g2\u8g2\csrc/u8x8_d_uc1638.c **** 
  47:..\..\..\u8g2\u8g2\csrc/u8x8_d_uc1638.c **** 
  48:..\..\..\u8g2\u8g2\csrc/u8x8_d_uc1638.c **** 
  49:..\..\..\u8g2\u8g2\csrc/u8x8_d_uc1638.c **** 
  50:..\..\..\u8g2\u8g2\csrc/u8x8_d_uc1638.c **** 
  51:..\..\..\u8g2\u8g2\csrc/u8x8_d_uc1638.c **** static const uint8_t u8x8_d_uc1638_powersave0_seq[] = {
  52:..\..\..\u8g2\u8g2\csrc/u8x8_d_uc1638.c ****   U8X8_START_TRANSFER(),             	/* enable chip, delay is part of the transfer start */
  53:..\..\..\u8g2\u8g2\csrc/u8x8_d_uc1638.c ****   U8X8_CA(0x0c9, 0x0ad),		                /* display on */   /* UC1638 B/W mode */
  54:..\..\..\u8g2\u8g2\csrc/u8x8_d_uc1638.c ****   U8X8_END_TRANSFER(),             	/* disable chip */
  55:..\..\..\u8g2\u8g2\csrc/u8x8_d_uc1638.c ****   U8X8_END()             			/* end of sequence */
  56:..\..\..\u8g2\u8g2\csrc/u8x8_d_uc1638.c **** };
  57:..\..\..\u8g2\u8g2\csrc/u8x8_d_uc1638.c **** 
  58:..\..\..\u8g2\u8g2\csrc/u8x8_d_uc1638.c **** static const uint8_t u8x8_d_uc1638_powersave1_seq[] = {
  59:..\..\..\u8g2\u8g2\csrc/u8x8_d_uc1638.c ****   U8X8_START_TRANSFER(),             	/* enable chip, delay is part of the transfer start */
  60:..\..\..\u8g2\u8g2\csrc/u8x8_d_uc1638.c ****   U8X8_CA(0x0c9, 0x0ac),		                /* display off */   /* UC1638 */
  61:..\..\..\u8g2\u8g2\csrc/u8x8_d_uc1638.c ****   U8X8_END_TRANSFER(),             	/* disable chip */
  62:..\..\..\u8g2\u8g2\csrc/u8x8_d_uc1638.c ****   U8X8_END()             			/* end of sequence */
  63:..\..\..\u8g2\u8g2\csrc/u8x8_d_uc1638.c **** };
  64:..\..\..\u8g2\u8g2\csrc/u8x8_d_uc1638.c **** 
  65:..\..\..\u8g2\u8g2\csrc/u8x8_d_uc1638.c **** static const uint8_t u8x8_d_uc1638_flip0_seq[] = {
  66:..\..\..\u8g2\u8g2\csrc/u8x8_d_uc1638.c ****   U8X8_START_TRANSFER(),             	/* enable chip, delay is part of the transfer start */
  67:..\..\..\u8g2\u8g2\csrc/u8x8_d_uc1638.c ****   U8X8_C(0x0c2),            	/* LCD Mapping */    /* UC1638*/
  68:..\..\..\u8g2\u8g2\csrc/u8x8_d_uc1638.c ****   U8X8_END_TRANSFER(),             	/* disable chip */
  69:..\..\..\u8g2\u8g2\csrc/u8x8_d_uc1638.c ****   U8X8_END()             			/* end of sequence */
  70:..\..\..\u8g2\u8g2\csrc/u8x8_d_uc1638.c **** };
  71:..\..\..\u8g2\u8g2\csrc/u8x8_d_uc1638.c **** 
  72:..\..\..\u8g2\u8g2\csrc/u8x8_d_uc1638.c **** static const uint8_t u8x8_d_uc1638_flip1_seq[] = {
  73:..\..\..\u8g2\u8g2\csrc/u8x8_d_uc1638.c ****   U8X8_START_TRANSFER(),             	/* enable chip, delay is part of the transfer start */
  74:..\..\..\u8g2\u8g2\csrc/u8x8_d_uc1638.c ****   U8X8_C(0x0c4),            	/* LCD Mapping */    /* UC1638*/
  75:..\..\..\u8g2\u8g2\csrc/u8x8_d_uc1638.c ****   U8X8_END_TRANSFER(),             	/* disable chip */
  76:..\..\..\u8g2\u8g2\csrc/u8x8_d_uc1638.c ****   U8X8_END()             			/* end of sequence */
  77:..\..\..\u8g2\u8g2\csrc/u8x8_d_uc1638.c **** };
  78:..\..\..\u8g2\u8g2\csrc/u8x8_d_uc1638.c **** 
  79:..\..\..\u8g2\u8g2\csrc/u8x8_d_uc1638.c **** 
  80:..\..\..\u8g2\u8g2\csrc/u8x8_d_uc1638.c **** uint8_t u8x8_d_uc1638_common(u8x8_t *u8x8, uint8_t msg, uint8_t arg_int, void *arg_ptr)
  81:..\..\..\u8g2\u8g2\csrc/u8x8_d_uc1638.c **** {
  28              		.loc 1 81 0
  29              		.cfi_startproc
  30              		@ args = 0, pretend = 0, frame = 0
  31              		@ frame_needed = 0, uses_anonymous_args = 0
  32              	.LVL0:
  82:..\..\..\u8g2\u8g2\csrc/u8x8_d_uc1638.c ****   uint8_t x, y, c;
ARM GAS  C:\Users\jesse\AppData\Local\Temp\cc1UJDDI.s 			page 3


  83:..\..\..\u8g2\u8g2\csrc/u8x8_d_uc1638.c ****   uint8_t *ptr;
  84:..\..\..\u8g2\u8g2\csrc/u8x8_d_uc1638.c ****   switch(msg)
  33              		.loc 1 84 0
  34 0000 0B39     		subs	r1, r1, #11
  35              	.LVL1:
  81:..\..\..\u8g2\u8g2\csrc/u8x8_d_uc1638.c ****   uint8_t x, y, c;
  36              		.loc 1 81 0
  37 0002 F8B5     		push	{r3, r4, r5, r6, r7, lr}
  38              		.cfi_def_cfa_offset 24
  39              		.cfi_offset 3, -24
  40              		.cfi_offset 4, -20
  41              		.cfi_offset 5, -16
  42              		.cfi_offset 6, -12
  43              		.cfi_offset 7, -8
  44              		.cfi_offset 14, -4
  81:..\..\..\u8g2\u8g2\csrc/u8x8_d_uc1638.c ****   uint8_t x, y, c;
  45              		.loc 1 81 0
  46 0004 0446     		mov	r4, r0
  47 0006 1646     		mov	r6, r2
  48 0008 1F46     		mov	r7, r3
  49              		.loc 1 84 0
  50 000a 0429     		cmp	r1, #4
  51 000c 62D8     		bhi	.L11
  52 000e DFE801F0 		tbb	[pc, r1]
  53              	.LVL2:
  54              	.L4:
  55 0012 3B       		.byte	(.L3-.L4)/2
  56 0013 61       		.byte	(.L11-.L4)/2
  57 0014 43       		.byte	(.L5-.L4)/2
  58 0015 53       		.byte	(.L6-.L4)/2
  59 0016 03       		.byte	(.L7-.L4)/2
  60 0017 00       		.p2align 1
  61              	.L7:
  85:..\..\..\u8g2\u8g2\csrc/u8x8_d_uc1638.c ****   {
  86:..\..\..\u8g2\u8g2\csrc/u8x8_d_uc1638.c ****     case U8X8_MSG_DISPLAY_DRAW_TILE:
  87:..\..\..\u8g2\u8g2\csrc/u8x8_d_uc1638.c ****       u8x8_cad_StartTransfer(u8x8);
  62              		.loc 1 87 0
  63 0018 FFF7FEFF 		bl	u8x8_cad_StartTransfer
  64              	.LVL3:
  88:..\..\..\u8g2\u8g2\csrc/u8x8_d_uc1638.c ****     
  89:..\..\..\u8g2\u8g2\csrc/u8x8_d_uc1638.c ****       x = ((u8x8_tile_t *)arg_ptr)->x_pos;
  90:..\..\..\u8g2\u8g2\csrc/u8x8_d_uc1638.c ****       x += u8x8->x_offset & 15;
  65              		.loc 1 90 0
  66 001c 94F82250 		ldrb	r5, [r4, #34]	@ zero_extendqisi2
  89:..\..\..\u8g2\u8g2\csrc/u8x8_d_uc1638.c ****       x += u8x8->x_offset & 15;
  67              		.loc 1 89 0
  68 0020 7979     		ldrb	r1, [r7, #5]	@ zero_extendqisi2
  69              	.LVL4:
  70              		.loc 1 90 0
  71 0022 05F00F05 		and	r5, r5, #15
  72 0026 0D44     		add	r5, r5, r1
  73 0028 EDB2     		uxtb	r5, r5
  74              	.LVL5:
  91:..\..\..\u8g2\u8g2\csrc/u8x8_d_uc1638.c ****       x *= 8;
  92:..\..\..\u8g2\u8g2\csrc/u8x8_d_uc1638.c **** 
  93:..\..\..\u8g2\u8g2\csrc/u8x8_d_uc1638.c ****       u8x8_cad_SendCmd(u8x8, 0x004);  /* UC1638 */
  75              		.loc 1 93 0
ARM GAS  C:\Users\jesse\AppData\Local\Temp\cc1UJDDI.s 			page 4


  76 002a 0421     		movs	r1, #4
  77 002c 2046     		mov	r0, r4
  78 002e FFF7FEFF 		bl	u8x8_cad_SendCmd
  79              	.LVL6:
  94:..\..\..\u8g2\u8g2\csrc/u8x8_d_uc1638.c ****       u8x8_cad_SendArg(u8x8, x);
  80              		.loc 1 94 0
  81 0032 E900     		lsls	r1, r5, #3
  82 0034 01F0F801 		and	r1, r1, #248
  83 0038 2046     		mov	r0, r4
  84 003a FFF7FEFF 		bl	u8x8_cad_SendArg
  85              	.LVL7:
  95:..\..\..\u8g2\u8g2\csrc/u8x8_d_uc1638.c ****     
  96:..\..\..\u8g2\u8g2\csrc/u8x8_d_uc1638.c ****       y = ((u8x8_tile_t *)arg_ptr)->y_pos;
  86              		.loc 1 96 0
  87 003e BB79     		ldrb	r3, [r7, #6]	@ zero_extendqisi2
  88              	.LVL8:
  97:..\..\..\u8g2\u8g2\csrc/u8x8_d_uc1638.c ****       y += u8x8->x_offset >> 4;
  89              		.loc 1 97 0
  90 0040 94F82250 		ldrb	r5, [r4, #34]	@ zero_extendqisi2
  91              	.LVL9:
  98:..\..\..\u8g2\u8g2\csrc/u8x8_d_uc1638.c **** 
  99:..\..\..\u8g2\u8g2\csrc/u8x8_d_uc1638.c ****       u8x8_cad_SendCmd(u8x8, 0x060 | (y&15));  /* UC1638 */
  92              		.loc 1 99 0
  93 0044 2046     		mov	r0, r4
  97:..\..\..\u8g2\u8g2\csrc/u8x8_d_uc1638.c ****       y += u8x8->x_offset >> 4;
  94              		.loc 1 97 0
  95 0046 03EB1515 		add	r5, r3, r5, lsr #4
  96 004a EDB2     		uxtb	r5, r5
  97              	.LVL10:
  98              		.loc 1 99 0
  99 004c 05F00F01 		and	r1, r5, #15
 100 0050 41F06001 		orr	r1, r1, #96
 101 0054 FFF7FEFF 		bl	u8x8_cad_SendCmd
 102              	.LVL11:
 100:..\..\..\u8g2\u8g2\csrc/u8x8_d_uc1638.c ****       u8x8_cad_SendCmd(u8x8, 0x070 | (y>>4));  /* UC1638 */
 103              		.loc 1 100 0
 104 0058 2909     		lsrs	r1, r5, #4
 105 005a 41F07001 		orr	r1, r1, #112
 106 005e 2046     		mov	r0, r4
 107 0060 FFF7FEFF 		bl	u8x8_cad_SendCmd
 108              	.LVL12:
 101:..\..\..\u8g2\u8g2\csrc/u8x8_d_uc1638.c ****     
 102:..\..\..\u8g2\u8g2\csrc/u8x8_d_uc1638.c ****     
 103:..\..\..\u8g2\u8g2\csrc/u8x8_d_uc1638.c ****       u8x8_cad_SendCmd(u8x8, 0x001); /* UC1638 */
 109              		.loc 1 103 0
 110 0064 0121     		movs	r1, #1
 111 0066 2046     		mov	r0, r4
 112 0068 FFF7FEFF 		bl	u8x8_cad_SendCmd
 113              	.LVL13:
 104:..\..\..\u8g2\u8g2\csrc/u8x8_d_uc1638.c ****       c = ((u8x8_tile_t *)arg_ptr)->cnt;
 114              		.loc 1 104 0
 115 006c 3D79     		ldrb	r5, [r7, #4]	@ zero_extendqisi2
 116              	.LVL14:
 105:..\..\..\u8g2\u8g2\csrc/u8x8_d_uc1638.c ****       c *= 8;
 106:..\..\..\u8g2\u8g2\csrc/u8x8_d_uc1638.c ****       ptr = ((u8x8_tile_t *)arg_ptr)->tile_ptr;
 117              		.loc 1 106 0
 118 006e 3F68     		ldr	r7, [r7]
ARM GAS  C:\Users\jesse\AppData\Local\Temp\cc1UJDDI.s 			page 5


 119              	.LVL15:
 105:..\..\..\u8g2\u8g2\csrc/u8x8_d_uc1638.c ****       c *= 8;
 120              		.loc 1 105 0
 121 0070 ED00     		lsls	r5, r5, #3
 122              	.LVL16:
 123 0072 EDB2     		uxtb	r5, r5
 124              	.LVL17:
 125              	.L8:
 107:..\..\..\u8g2\u8g2\csrc/u8x8_d_uc1638.c ****       do
 108:..\..\..\u8g2\u8g2\csrc/u8x8_d_uc1638.c ****       {
 109:..\..\..\u8g2\u8g2\csrc/u8x8_d_uc1638.c **** 	u8x8_cad_SendData(u8x8, c, ptr);	/* note: SendData can not handle more than 255 bytes */
 126              		.loc 1 109 0 discriminator 1
 127 0074 3A46     		mov	r2, r7
 128 0076 2946     		mov	r1, r5
 129 0078 2046     		mov	r0, r4
 110:..\..\..\u8g2\u8g2\csrc/u8x8_d_uc1638.c **** 	arg_int--;
 130              		.loc 1 110 0 discriminator 1
 131 007a 013E     		subs	r6, r6, #1
 132              	.LVL18:
 109:..\..\..\u8g2\u8g2\csrc/u8x8_d_uc1638.c **** 	arg_int--;
 133              		.loc 1 109 0 discriminator 1
 134 007c FFF7FEFF 		bl	u8x8_cad_SendData
 135              	.LVL19:
 111:..\..\..\u8g2\u8g2\csrc/u8x8_d_uc1638.c ****       } while( arg_int > 0 );
 136              		.loc 1 111 0 discriminator 1
 137 0080 16F0FF06 		ands	r6, r6, #255
 138              	.LVL20:
 139 0084 F6D1     		bne	.L8
 140 0086 21E0     		b	.L16
 141              	.LVL21:
 142              	.L3:
 112:..\..\..\u8g2\u8g2\csrc/u8x8_d_uc1638.c ****       
 113:..\..\..\u8g2\u8g2\csrc/u8x8_d_uc1638.c ****       u8x8_cad_EndTransfer(u8x8);
 114:..\..\..\u8g2\u8g2\csrc/u8x8_d_uc1638.c ****       break;
 115:..\..\..\u8g2\u8g2\csrc/u8x8_d_uc1638.c ****     /*	handled in the calling procedure 
 116:..\..\..\u8g2\u8g2\csrc/u8x8_d_uc1638.c ****     case U8X8_MSG_DISPLAY_SETUP_MEMORY:
 117:..\..\..\u8g2\u8g2\csrc/u8x8_d_uc1638.c ****       u8x8_d_helper_display_setup_memory(u8x8, &u8x8_uc1638_128x64_display_info);
 118:..\..\..\u8g2\u8g2\csrc/u8x8_d_uc1638.c ****       break;
 119:..\..\..\u8g2\u8g2\csrc/u8x8_d_uc1638.c ****     case U8X8_MSG_DISPLAY_INIT:
 120:..\..\..\u8g2\u8g2\csrc/u8x8_d_uc1638.c ****       u8x8_d_helper_display_init(u8x8);
 121:..\..\..\u8g2\u8g2\csrc/u8x8_d_uc1638.c ****       u8x8_cad_SendSequence(u8x8, u8x8_d_uc1701_dogs102_init_seq);
 122:..\..\..\u8g2\u8g2\csrc/u8x8_d_uc1638.c ****       break;
 123:..\..\..\u8g2\u8g2\csrc/u8x8_d_uc1638.c ****     */
 124:..\..\..\u8g2\u8g2\csrc/u8x8_d_uc1638.c ****     case U8X8_MSG_DISPLAY_SET_POWER_SAVE:
 125:..\..\..\u8g2\u8g2\csrc/u8x8_d_uc1638.c ****       if ( arg_int == 0 )
 143              		.loc 1 125 0
 144 0088 0AB9     		cbnz	r2, .L9
 126:..\..\..\u8g2\u8g2\csrc/u8x8_d_uc1638.c **** 	u8x8_cad_SendSequence(u8x8, u8x8_d_uc1638_powersave0_seq);
 145              		.loc 1 126 0
 146 008a 1349     		ldr	r1, .L18
 147 008c 00E0     		b	.L15
 148              	.L9:
 127:..\..\..\u8g2\u8g2\csrc/u8x8_d_uc1638.c ****       else
 128:..\..\..\u8g2\u8g2\csrc/u8x8_d_uc1638.c **** 	u8x8_cad_SendSequence(u8x8, u8x8_d_uc1638_powersave1_seq);
 149              		.loc 1 128 0
 150 008e 1349     		ldr	r1, .L18+4
 151              	.L15:
ARM GAS  C:\Users\jesse\AppData\Local\Temp\cc1UJDDI.s 			page 6


 152 0090 2046     		mov	r0, r4
 153              	.LVL22:
 154 0092 FFF7FEFF 		bl	u8x8_cad_SendSequence
 155              	.LVL23:
 156 0096 0DE0     		b	.L13
 157              	.LVL24:
 158              	.L5:
 129:..\..\..\u8g2\u8g2\csrc/u8x8_d_uc1638.c ****       break;
 130:..\..\..\u8g2\u8g2\csrc/u8x8_d_uc1638.c ****     case U8X8_MSG_DISPLAY_SET_FLIP_MODE:
 131:..\..\..\u8g2\u8g2\csrc/u8x8_d_uc1638.c ****       if ( arg_int == 0 )
 159              		.loc 1 131 0
 160 0098 2AB9     		cbnz	r2, .L10
 132:..\..\..\u8g2\u8g2\csrc/u8x8_d_uc1638.c ****       {
 133:..\..\..\u8g2\u8g2\csrc/u8x8_d_uc1638.c **** 	u8x8_cad_SendSequence(u8x8, u8x8_d_uc1638_flip0_seq);
 161              		.loc 1 133 0
 162 009a 1149     		ldr	r1, .L18+8
 163 009c FFF7FEFF 		bl	u8x8_cad_SendSequence
 164              	.LVL25:
 134:..\..\..\u8g2\u8g2\csrc/u8x8_d_uc1638.c **** 	u8x8->x_offset = u8x8->display_info->default_x_offset;
 165              		.loc 1 134 0
 166 00a0 2368     		ldr	r3, [r4]
 167 00a2 9B7C     		ldrb	r3, [r3, #18]	@ zero_extendqisi2
 168 00a4 04E0     		b	.L14
 169              	.LVL26:
 170              	.L10:
 135:..\..\..\u8g2\u8g2\csrc/u8x8_d_uc1638.c ****       }
 136:..\..\..\u8g2\u8g2\csrc/u8x8_d_uc1638.c ****       else
 137:..\..\..\u8g2\u8g2\csrc/u8x8_d_uc1638.c ****       {
 138:..\..\..\u8g2\u8g2\csrc/u8x8_d_uc1638.c **** 	u8x8_cad_SendSequence(u8x8, u8x8_d_uc1638_flip1_seq);
 171              		.loc 1 138 0
 172 00a6 0F49     		ldr	r1, .L18+12
 173 00a8 FFF7FEFF 		bl	u8x8_cad_SendSequence
 174              	.LVL27:
 139:..\..\..\u8g2\u8g2\csrc/u8x8_d_uc1638.c **** 	u8x8->x_offset = u8x8->display_info->flipmode_x_offset;
 175              		.loc 1 139 0
 176 00ac 2368     		ldr	r3, [r4]
 177 00ae DB7C     		ldrb	r3, [r3, #19]	@ zero_extendqisi2
 178              	.L14:
 179 00b0 84F82230 		strb	r3, [r4, #34]
 180              	.LVL28:
 181              	.L13:
 140:..\..\..\u8g2\u8g2\csrc/u8x8_d_uc1638.c ****       }	
 141:..\..\..\u8g2\u8g2\csrc/u8x8_d_uc1638.c ****       break;
 142:..\..\..\u8g2\u8g2\csrc/u8x8_d_uc1638.c **** #ifdef U8X8_WITH_SET_CONTRAST
 143:..\..\..\u8g2\u8g2\csrc/u8x8_d_uc1638.c ****     case U8X8_MSG_DISPLAY_SET_CONTRAST:
 144:..\..\..\u8g2\u8g2\csrc/u8x8_d_uc1638.c ****       u8x8_cad_StartTransfer(u8x8);
 145:..\..\..\u8g2\u8g2\csrc/u8x8_d_uc1638.c ****       u8x8_cad_SendCmd(u8x8, 0x081 );
 146:..\..\..\u8g2\u8g2\csrc/u8x8_d_uc1638.c ****       u8x8_cad_SendArg(u8x8, arg_int  );	/* uc1638 has range from 0 to 255 */
 147:..\..\..\u8g2\u8g2\csrc/u8x8_d_uc1638.c ****       u8x8_cad_EndTransfer(u8x8);
 148:..\..\..\u8g2\u8g2\csrc/u8x8_d_uc1638.c ****       break;
 149:..\..\..\u8g2\u8g2\csrc/u8x8_d_uc1638.c **** #endif
 150:..\..\..\u8g2\u8g2\csrc/u8x8_d_uc1638.c ****     default:
 151:..\..\..\u8g2\u8g2\csrc/u8x8_d_uc1638.c ****       return 0;
 152:..\..\..\u8g2\u8g2\csrc/u8x8_d_uc1638.c ****   }
 153:..\..\..\u8g2\u8g2\csrc/u8x8_d_uc1638.c ****   return 1;
 182              		.loc 1 153 0
 183 00b4 0120     		movs	r0, #1
ARM GAS  C:\Users\jesse\AppData\Local\Temp\cc1UJDDI.s 			page 7


 184 00b6 F8BD     		pop	{r3, r4, r5, r6, r7, pc}
 185              	.LVL29:
 186              	.L6:
 144:..\..\..\u8g2\u8g2\csrc/u8x8_d_uc1638.c ****       u8x8_cad_SendCmd(u8x8, 0x081 );
 187              		.loc 1 144 0
 188 00b8 FFF7FEFF 		bl	u8x8_cad_StartTransfer
 189              	.LVL30:
 145:..\..\..\u8g2\u8g2\csrc/u8x8_d_uc1638.c ****       u8x8_cad_SendArg(u8x8, arg_int  );	/* uc1638 has range from 0 to 255 */
 190              		.loc 1 145 0
 191 00bc 8121     		movs	r1, #129
 192 00be 2046     		mov	r0, r4
 193 00c0 FFF7FEFF 		bl	u8x8_cad_SendCmd
 194              	.LVL31:
 146:..\..\..\u8g2\u8g2\csrc/u8x8_d_uc1638.c ****       u8x8_cad_EndTransfer(u8x8);
 195              		.loc 1 146 0
 196 00c4 3146     		mov	r1, r6
 197 00c6 2046     		mov	r0, r4
 198 00c8 FFF7FEFF 		bl	u8x8_cad_SendArg
 199              	.LVL32:
 200              	.L16:
 147:..\..\..\u8g2\u8g2\csrc/u8x8_d_uc1638.c ****       break;
 201              		.loc 1 147 0
 202 00cc 2046     		mov	r0, r4
 203 00ce FFF7FEFF 		bl	u8x8_cad_EndTransfer
 204              	.LVL33:
 205 00d2 EFE7     		b	.L13
 206              	.LVL34:
 207              	.L11:
 151:..\..\..\u8g2\u8g2\csrc/u8x8_d_uc1638.c ****   }
 208              		.loc 1 151 0
 209 00d4 0020     		movs	r0, #0
 210              	.LVL35:
 154:..\..\..\u8g2\u8g2\csrc/u8x8_d_uc1638.c **** }
 211              		.loc 1 154 0
 212 00d6 F8BD     		pop	{r3, r4, r5, r6, r7, pc}
 213              	.LVL36:
 214              	.L19:
 215              		.align	2
 216              	.L18:
 217 00d8 00000000 		.word	.LANCHOR0
 218 00dc 07000000 		.word	.LANCHOR0+7
 219 00e0 0E000000 		.word	.LANCHOR0+14
 220 00e4 13000000 		.word	.LANCHOR0+19
 221              		.cfi_endproc
 222              	.LFE0:
 223              		.size	u8x8_d_uc1638_common, .-u8x8_d_uc1638_common
 224              		.section	.text.u8x8_d_uc1638_160x128,"ax",%progbits
 225              		.align	1
 226              		.global	u8x8_d_uc1638_160x128
 227              		.thumb
 228              		.thumb_func
 229              		.type	u8x8_d_uc1638_160x128, %function
 230              	u8x8_d_uc1638_160x128:
 231              	.LFB1:
 155:..\..\..\u8g2\u8g2\csrc/u8x8_d_uc1638.c **** 
 156:..\..\..\u8g2\u8g2\csrc/u8x8_d_uc1638.c **** 
 157:..\..\..\u8g2\u8g2\csrc/u8x8_d_uc1638.c **** /*================================================*/
ARM GAS  C:\Users\jesse\AppData\Local\Temp\cc1UJDDI.s 			page 8


 158:..\..\..\u8g2\u8g2\csrc/u8x8_d_uc1638.c **** /* uc1638 160x128 */
 159:..\..\..\u8g2\u8g2\csrc/u8x8_d_uc1638.c **** 
 160:..\..\..\u8g2\u8g2\csrc/u8x8_d_uc1638.c **** /* values taken from uc1608 */
 161:..\..\..\u8g2\u8g2\csrc/u8x8_d_uc1638.c **** static const u8x8_display_info_t u8x8_uc1638_160x128_display_info =
 162:..\..\..\u8g2\u8g2\csrc/u8x8_d_uc1638.c **** {
 163:..\..\..\u8g2\u8g2\csrc/u8x8_d_uc1638.c ****   /* chip_enable_level = */ 1,	/* uc1638 has high active CS */
 164:..\..\..\u8g2\u8g2\csrc/u8x8_d_uc1638.c ****   /* chip_disable_level = */ 0,
 165:..\..\..\u8g2\u8g2\csrc/u8x8_d_uc1638.c ****   
 166:..\..\..\u8g2\u8g2\csrc/u8x8_d_uc1638.c ****   /* post_chip_enable_wait_ns = */ 10,	/* */
 167:..\..\..\u8g2\u8g2\csrc/u8x8_d_uc1638.c ****   /* pre_chip_disable_wait_ns = */ 20,	/* */
 168:..\..\..\u8g2\u8g2\csrc/u8x8_d_uc1638.c ****   /* reset_pulse_width_ms = */ 5, 	/* */
 169:..\..\..\u8g2\u8g2\csrc/u8x8_d_uc1638.c ****   /* post_reset_wait_ms = */ 150, 	
 170:..\..\..\u8g2\u8g2\csrc/u8x8_d_uc1638.c ****   /* sda_setup_time_ns = */ 25,		/* */
 171:..\..\..\u8g2\u8g2\csrc/u8x8_d_uc1638.c ****   /* sck_pulse_width_ns = */ 65,	/* */
 172:..\..\..\u8g2\u8g2\csrc/u8x8_d_uc1638.c ****   /* sck_clock_hz = */ 1000000UL,	/* since Arduino 1.6.0, the SPI bus speed in Hz. Should be  10000
 173:..\..\..\u8g2\u8g2\csrc/u8x8_d_uc1638.c ****   /* spi_mode = */ 0,		/* active high, rising edge */
 174:..\..\..\u8g2\u8g2\csrc/u8x8_d_uc1638.c ****   /* i2c_bus_clock_100kHz = */ 4,
 175:..\..\..\u8g2\u8g2\csrc/u8x8_d_uc1638.c ****   /* data_setup_time_ns = */ 30,	/*  */
 176:..\..\..\u8g2\u8g2\csrc/u8x8_d_uc1638.c ****   /* write_pulse_width_ns = */ 35,	/*  */
 177:..\..\..\u8g2\u8g2\csrc/u8x8_d_uc1638.c ****   /* tile_width = */ 20,		/* width of 20*8=160 pixel */
 178:..\..\..\u8g2\u8g2\csrc/u8x8_d_uc1638.c ****   /* tile_hight = */ 16,
 179:..\..\..\u8g2\u8g2\csrc/u8x8_d_uc1638.c ****   /* default_x_offset = */ 0,	/* lower nibble: x offset, upper nibble: y offset */
 180:..\..\..\u8g2\u8g2\csrc/u8x8_d_uc1638.c ****   /* flipmode_x_offset = */ 0,	/* lower nibble: x offset, upper nibble: y offset */
 181:..\..\..\u8g2\u8g2\csrc/u8x8_d_uc1638.c ****   /* pixel_width = */ 160,
 182:..\..\..\u8g2\u8g2\csrc/u8x8_d_uc1638.c ****   /* pixel_height = */ 128
 183:..\..\..\u8g2\u8g2\csrc/u8x8_d_uc1638.c **** };
 184:..\..\..\u8g2\u8g2\csrc/u8x8_d_uc1638.c **** 
 185:..\..\..\u8g2\u8g2\csrc/u8x8_d_uc1638.c **** static const uint8_t u8x8_d_uc1638_160x128_init_seq[] = {
 186:..\..\..\u8g2\u8g2\csrc/u8x8_d_uc1638.c ****     
 187:..\..\..\u8g2\u8g2\csrc/u8x8_d_uc1638.c ****   U8X8_START_TRANSFER(),             	/* enable chip, delay is part of the transfer start */
 188:..\..\..\u8g2\u8g2\csrc/u8x8_d_uc1638.c **** 
 189:..\..\..\u8g2\u8g2\csrc/u8x8_d_uc1638.c ****   U8X8_CA(0x0e1, 0x0e2),		/* software reset */    /* UC1638*/
 190:..\..\..\u8g2\u8g2\csrc/u8x8_d_uc1638.c ****   U8X8_END_TRANSFER(),             	/* disable chip, requirement for I2C */
 191:..\..\..\u8g2\u8g2\csrc/u8x8_d_uc1638.c ****   U8X8_DLY(5),					/* 5 ms */	
 192:..\..\..\u8g2\u8g2\csrc/u8x8_d_uc1638.c ****   
 193:..\..\..\u8g2\u8g2\csrc/u8x8_d_uc1638.c ****   U8X8_START_TRANSFER(),             	/* enable chip, delay is part of the transfer start */
 194:..\..\..\u8g2\u8g2\csrc/u8x8_d_uc1638.c **** 
 195:..\..\..\u8g2\u8g2\csrc/u8x8_d_uc1638.c ****   U8X8_C(0x024),            		/*	 set temp comp*/
 196:..\..\..\u8g2\u8g2\csrc/u8x8_d_uc1638.c ****   U8X8_C(0x0c0),            		/*	mirror y and mirror x */  /* WAS: c2 */
 197:..\..\..\u8g2\u8g2\csrc/u8x8_d_uc1638.c ****   U8X8_C(0x0a2),            		/*	line rate */
 198:..\..\..\u8g2\u8g2\csrc/u8x8_d_uc1638.c ****   U8X8_C(0x0d6),            		/*	gray scale 2 */
 199:..\..\..\u8g2\u8g2\csrc/u8x8_d_uc1638.c ****   U8X8_C(0x0eb),            		/*	 set bias*/
 200:..\..\..\u8g2\u8g2\csrc/u8x8_d_uc1638.c ****   U8X8_C(0x095),            		/*	 set 1 bit per pixel, pattern 0*/
 201:..\..\..\u8g2\u8g2\csrc/u8x8_d_uc1638.c ****   U8X8_C(0x089),            		/*	 set auto increment, low bits are AC2 AC1 AC0 */  /* WAS 89 */
 202:..\..\..\u8g2\u8g2\csrc/u8x8_d_uc1638.c **** 
 203:..\..\..\u8g2\u8g2\csrc/u8x8_d_uc1638.c **** 
 204:..\..\..\u8g2\u8g2\csrc/u8x8_d_uc1638.c ****   U8X8_CA(0x081, 0x0a0),		/* set contrast */    /* UC1638*/
 205:..\..\..\u8g2\u8g2\csrc/u8x8_d_uc1638.c ****   
 206:..\..\..\u8g2\u8g2\csrc/u8x8_d_uc1638.c ****   
 207:..\..\..\u8g2\u8g2\csrc/u8x8_d_uc1638.c ****   U8X8_END_TRANSFER(),             	/* disable chip */
 208:..\..\..\u8g2\u8g2\csrc/u8x8_d_uc1638.c ****   U8X8_END()             			/* end of sequence */
 209:..\..\..\u8g2\u8g2\csrc/u8x8_d_uc1638.c **** };
 210:..\..\..\u8g2\u8g2\csrc/u8x8_d_uc1638.c **** 
 211:..\..\..\u8g2\u8g2\csrc/u8x8_d_uc1638.c **** uint8_t u8x8_d_uc1638_160x128(u8x8_t *u8x8, uint8_t msg, uint8_t arg_int, void *arg_ptr)
 212:..\..\..\u8g2\u8g2\csrc/u8x8_d_uc1638.c **** {
 232              		.loc 1 212 0
 233              		.cfi_startproc
ARM GAS  C:\Users\jesse\AppData\Local\Temp\cc1UJDDI.s 			page 9


 234              		@ args = 0, pretend = 0, frame = 0
 235              		@ frame_needed = 0, uses_anonymous_args = 0
 236              	.LVL37:
 237 0000 38B5     		push	{r3, r4, r5, lr}
 238              		.cfi_def_cfa_offset 16
 239              		.cfi_offset 3, -16
 240              		.cfi_offset 4, -12
 241              		.cfi_offset 5, -8
 242              		.cfi_offset 14, -4
 243              		.loc 1 212 0
 244 0002 0446     		mov	r4, r0
 245 0004 0D46     		mov	r5, r1
 213:..\..\..\u8g2\u8g2\csrc/u8x8_d_uc1638.c ****   /* call common procedure first and handle messages there */
 214:..\..\..\u8g2\u8g2\csrc/u8x8_d_uc1638.c ****   if ( u8x8_d_uc1638_common(u8x8, msg, arg_int, arg_ptr) == 0 )
 246              		.loc 1 214 0
 247 0006 FFF7FEFF 		bl	u8x8_d_uc1638_common
 248              	.LVL38:
 249 000a 80B9     		cbnz	r0, .L24
 215:..\..\..\u8g2\u8g2\csrc/u8x8_d_uc1638.c ****   {
 216:..\..\..\u8g2\u8g2\csrc/u8x8_d_uc1638.c ****     /* msg not handled, then try here */
 217:..\..\..\u8g2\u8g2\csrc/u8x8_d_uc1638.c ****     switch(msg)
 250              		.loc 1 217 0
 251 000c 092D     		cmp	r5, #9
 252 000e 02D0     		beq	.L22
 253 0010 0A2D     		cmp	r5, #10
 254 0012 05D0     		beq	.L23
 255 0014 38BD     		pop	{r3, r4, r5, pc}
 256              	.LVL39:
 257              	.L22:
 218:..\..\..\u8g2\u8g2\csrc/u8x8_d_uc1638.c ****     {
 219:..\..\..\u8g2\u8g2\csrc/u8x8_d_uc1638.c ****       case U8X8_MSG_DISPLAY_SETUP_MEMORY:
 220:..\..\..\u8g2\u8g2\csrc/u8x8_d_uc1638.c **** 	u8x8_d_helper_display_setup_memory(u8x8, &u8x8_uc1638_160x128_display_info);
 258              		.loc 1 220 0
 259 0016 0749     		ldr	r1, .L25
 260 0018 2046     		mov	r0, r4
 261 001a FFF7FEFF 		bl	u8x8_d_helper_display_setup_memory
 262              	.LVL40:
 263 001e 06E0     		b	.L24
 264              	.L23:
 221:..\..\..\u8g2\u8g2\csrc/u8x8_d_uc1638.c **** 	break;
 222:..\..\..\u8g2\u8g2\csrc/u8x8_d_uc1638.c ****       case U8X8_MSG_DISPLAY_INIT:
 223:..\..\..\u8g2\u8g2\csrc/u8x8_d_uc1638.c **** 	u8x8_d_helper_display_init(u8x8);
 265              		.loc 1 223 0
 266 0020 2046     		mov	r0, r4
 267 0022 FFF7FEFF 		bl	u8x8_d_helper_display_init
 268              	.LVL41:
 224:..\..\..\u8g2\u8g2\csrc/u8x8_d_uc1638.c **** 	u8x8_cad_SendSequence(u8x8, u8x8_d_uc1638_160x128_init_seq);
 269              		.loc 1 224 0
 270 0026 0449     		ldr	r1, .L25+4
 271 0028 2046     		mov	r0, r4
 272 002a FFF7FEFF 		bl	u8x8_cad_SendSequence
 273              	.LVL42:
 274              	.L24:
 225:..\..\..\u8g2\u8g2\csrc/u8x8_d_uc1638.c **** 	break;
 226:..\..\..\u8g2\u8g2\csrc/u8x8_d_uc1638.c ****       default:
 227:..\..\..\u8g2\u8g2\csrc/u8x8_d_uc1638.c **** 	return 0;		/* msg unknown */
 228:..\..\..\u8g2\u8g2\csrc/u8x8_d_uc1638.c ****     }
ARM GAS  C:\Users\jesse\AppData\Local\Temp\cc1UJDDI.s 			page 10


 229:..\..\..\u8g2\u8g2\csrc/u8x8_d_uc1638.c ****   }
 230:..\..\..\u8g2\u8g2\csrc/u8x8_d_uc1638.c ****   return 1;
 275              		.loc 1 230 0
 276 002e 0120     		movs	r0, #1
 231:..\..\..\u8g2\u8g2\csrc/u8x8_d_uc1638.c **** }
 277              		.loc 1 231 0
 278 0030 38BD     		pop	{r3, r4, r5, pc}
 279              	.LVL43:
 280              	.L26:
 281 0032 00BF     		.align	2
 282              	.L25:
 283 0034 18000000 		.word	.LANCHOR0+24
 284 0038 30000000 		.word	.LANCHOR0+48
 285              		.cfi_endproc
 286              	.LFE1:
 287              		.size	u8x8_d_uc1638_160x128, .-u8x8_d_uc1638_160x128
 288              		.section	.text.u8x8_d_uc1638_192x96,"ax",%progbits
 289              		.align	1
 290              		.global	u8x8_d_uc1638_192x96
 291              		.thumb
 292              		.thumb_func
 293              		.type	u8x8_d_uc1638_192x96, %function
 294              	u8x8_d_uc1638_192x96:
 295              	.LFB2:
 232:..\..\..\u8g2\u8g2\csrc/u8x8_d_uc1638.c **** 
 233:..\..\..\u8g2\u8g2\csrc/u8x8_d_uc1638.c **** 
 234:..\..\..\u8g2\u8g2\csrc/u8x8_d_uc1638.c **** /*================================================*/
 235:..\..\..\u8g2\u8g2\csrc/u8x8_d_uc1638.c **** 
 236:..\..\..\u8g2\u8g2\csrc/u8x8_d_uc1638.c **** /* LG192962-DW-V33, uc1638 192x96, https://github.com/olikraus/u8g2/issues/371 */
 237:..\..\..\u8g2\u8g2\csrc/u8x8_d_uc1638.c **** 
 238:..\..\..\u8g2\u8g2\csrc/u8x8_d_uc1638.c **** static const u8x8_display_info_t u8x8_uc1638_192x96_display_info =
 239:..\..\..\u8g2\u8g2\csrc/u8x8_d_uc1638.c **** {
 240:..\..\..\u8g2\u8g2\csrc/u8x8_d_uc1638.c ****   /* chip_enable_level = */ 0,	/* low active CS for this display */
 241:..\..\..\u8g2\u8g2\csrc/u8x8_d_uc1638.c ****   /* chip_disable_level = */ 1,
 242:..\..\..\u8g2\u8g2\csrc/u8x8_d_uc1638.c ****   
 243:..\..\..\u8g2\u8g2\csrc/u8x8_d_uc1638.c ****   /* post_chip_enable_wait_ns = */ 10,	/* */
 244:..\..\..\u8g2\u8g2\csrc/u8x8_d_uc1638.c ****   /* pre_chip_disable_wait_ns = */ 20,	/* */
 245:..\..\..\u8g2\u8g2\csrc/u8x8_d_uc1638.c ****   /* reset_pulse_width_ms = */ 5, 	/* */
 246:..\..\..\u8g2\u8g2\csrc/u8x8_d_uc1638.c ****   /* post_reset_wait_ms = */ 150, 	
 247:..\..\..\u8g2\u8g2\csrc/u8x8_d_uc1638.c ****   /* sda_setup_time_ns = */ 25,		/* */
 248:..\..\..\u8g2\u8g2\csrc/u8x8_d_uc1638.c ****   /* sck_pulse_width_ns = */ 65,	/* */
 249:..\..\..\u8g2\u8g2\csrc/u8x8_d_uc1638.c ****   /* sck_clock_hz = */ 2000000UL,	/* since Arduino 1.6.0, the SPI bus speed in Hz. Should be  10000
 250:..\..\..\u8g2\u8g2\csrc/u8x8_d_uc1638.c ****   /* spi_mode = */ 0,		/* active high, rising edge */
 251:..\..\..\u8g2\u8g2\csrc/u8x8_d_uc1638.c ****   /* i2c_bus_clock_100kHz = */ 4,
 252:..\..\..\u8g2\u8g2\csrc/u8x8_d_uc1638.c ****   /* data_setup_time_ns = */ 30,	/*  */
 253:..\..\..\u8g2\u8g2\csrc/u8x8_d_uc1638.c ****   /* write_pulse_width_ns = */ 35,	/*  */
 254:..\..\..\u8g2\u8g2\csrc/u8x8_d_uc1638.c ****   /* tile_width = */ 24,		/* width of 24*8=192 pixel */
 255:..\..\..\u8g2\u8g2\csrc/u8x8_d_uc1638.c ****   /* tile_hight = */ 12,
 256:..\..\..\u8g2\u8g2\csrc/u8x8_d_uc1638.c ****   /* default_x_offset = */ 8*16+0,	/* lower nibble: x offset, upper nibble: y offset */
 257:..\..\..\u8g2\u8g2\csrc/u8x8_d_uc1638.c ****   /* flipmode_x_offset = */ 0*16+6,	/* lower nibble: x offset, upper nibble: y offset */
 258:..\..\..\u8g2\u8g2\csrc/u8x8_d_uc1638.c ****   /* pixel_width = */ 192,
 259:..\..\..\u8g2\u8g2\csrc/u8x8_d_uc1638.c ****   /* pixel_height = */ 96
 260:..\..\..\u8g2\u8g2\csrc/u8x8_d_uc1638.c **** };
 261:..\..\..\u8g2\u8g2\csrc/u8x8_d_uc1638.c **** 
 262:..\..\..\u8g2\u8g2\csrc/u8x8_d_uc1638.c **** static const uint8_t u8x8_d_uc1638_192x96_init_seq[] = {
 263:..\..\..\u8g2\u8g2\csrc/u8x8_d_uc1638.c ****     
 264:..\..\..\u8g2\u8g2\csrc/u8x8_d_uc1638.c ****   U8X8_START_TRANSFER(),             	/* enable chip, delay is part of the transfer start */
ARM GAS  C:\Users\jesse\AppData\Local\Temp\cc1UJDDI.s 			page 11


 265:..\..\..\u8g2\u8g2\csrc/u8x8_d_uc1638.c **** 
 266:..\..\..\u8g2\u8g2\csrc/u8x8_d_uc1638.c ****   U8X8_CA(0x0e1, 0x0e2),		/* software reset */    /* UC1638*/
 267:..\..\..\u8g2\u8g2\csrc/u8x8_d_uc1638.c ****   U8X8_DLY(5),					/* 5 ms */	
 268:..\..\..\u8g2\u8g2\csrc/u8x8_d_uc1638.c **** 
 269:..\..\..\u8g2\u8g2\csrc/u8x8_d_uc1638.c ****   U8X8_C(0x024),            		/*	 set temp comp*/
 270:..\..\..\u8g2\u8g2\csrc/u8x8_d_uc1638.c ****   U8X8_C(0x0c2),            		/*	mirror y and mirror x */ 
 271:..\..\..\u8g2\u8g2\csrc/u8x8_d_uc1638.c ****   U8X8_C(0x0a2),            		/*	line rate */
 272:..\..\..\u8g2\u8g2\csrc/u8x8_d_uc1638.c ****   U8X8_C(0x02d),            		/*	charge pump */
 273:..\..\..\u8g2\u8g2\csrc/u8x8_d_uc1638.c ****   U8X8_C(0x0ea),            		/*	 set bias*/
 274:..\..\..\u8g2\u8g2\csrc/u8x8_d_uc1638.c ****   U8X8_CA(0x081, 160),            	/*	 set contrast */
 275:..\..\..\u8g2\u8g2\csrc/u8x8_d_uc1638.c ****   //U8X8_C(0x0d6),            		/*	gray scale 2 */
 276:..\..\..\u8g2\u8g2\csrc/u8x8_d_uc1638.c ****   U8X8_C(0x095),            		/*	 set 1 bit per pixel, pattern 0*/
 277:..\..\..\u8g2\u8g2\csrc/u8x8_d_uc1638.c ****   U8X8_C(0x086),            		/*	 COM scan */
 278:..\..\..\u8g2\u8g2\csrc/u8x8_d_uc1638.c ****   U8X8_CA(0x0f1, 159),            	/*	 COM End*/
 279:..\..\..\u8g2\u8g2\csrc/u8x8_d_uc1638.c ****   U8X8_C(0x089),            		/*	 set auto increment, low bits are AC2 AC1 AC0 */  /* WAS 89 */
 280:..\..\..\u8g2\u8g2\csrc/u8x8_d_uc1638.c ****   //U8X8_C(0x086),            		/*	 scan function 0x86 or 0x87: no effect*/
 281:..\..\..\u8g2\u8g2\csrc/u8x8_d_uc1638.c ****   
 282:..\..\..\u8g2\u8g2\csrc/u8x8_d_uc1638.c ****   U8X8_END_TRANSFER(),             	/* disable chip */
 283:..\..\..\u8g2\u8g2\csrc/u8x8_d_uc1638.c ****   U8X8_END()             			/* end of sequence */
 284:..\..\..\u8g2\u8g2\csrc/u8x8_d_uc1638.c **** };
 285:..\..\..\u8g2\u8g2\csrc/u8x8_d_uc1638.c **** 
 286:..\..\..\u8g2\u8g2\csrc/u8x8_d_uc1638.c **** uint8_t u8x8_d_uc1638_192x96(u8x8_t *u8x8, uint8_t msg, uint8_t arg_int, void *arg_ptr)
 287:..\..\..\u8g2\u8g2\csrc/u8x8_d_uc1638.c **** {
 296              		.loc 1 287 0
 297              		.cfi_startproc
 298              		@ args = 0, pretend = 0, frame = 0
 299              		@ frame_needed = 0, uses_anonymous_args = 0
 300              	.LVL44:
 301 0000 38B5     		push	{r3, r4, r5, lr}
 302              		.cfi_def_cfa_offset 16
 303              		.cfi_offset 3, -16
 304              		.cfi_offset 4, -12
 305              		.cfi_offset 5, -8
 306              		.cfi_offset 14, -4
 307              		.loc 1 287 0
 308 0002 0446     		mov	r4, r0
 309 0004 0D46     		mov	r5, r1
 288:..\..\..\u8g2\u8g2\csrc/u8x8_d_uc1638.c ****   /* call common procedure first and handle messages there */
 289:..\..\..\u8g2\u8g2\csrc/u8x8_d_uc1638.c ****   if ( u8x8_d_uc1638_common(u8x8, msg, arg_int, arg_ptr) == 0 )
 310              		.loc 1 289 0
 311 0006 FFF7FEFF 		bl	u8x8_d_uc1638_common
 312              	.LVL45:
 313 000a 80B9     		cbnz	r0, .L31
 290:..\..\..\u8g2\u8g2\csrc/u8x8_d_uc1638.c ****   {
 291:..\..\..\u8g2\u8g2\csrc/u8x8_d_uc1638.c ****     /* msg not handled, then try here */
 292:..\..\..\u8g2\u8g2\csrc/u8x8_d_uc1638.c ****     switch(msg)
 314              		.loc 1 292 0
 315 000c 092D     		cmp	r5, #9
 316 000e 02D0     		beq	.L29
 317 0010 0A2D     		cmp	r5, #10
 318 0012 05D0     		beq	.L30
 319 0014 38BD     		pop	{r3, r4, r5, pc}
 320              	.LVL46:
 321              	.L29:
 293:..\..\..\u8g2\u8g2\csrc/u8x8_d_uc1638.c ****     {
 294:..\..\..\u8g2\u8g2\csrc/u8x8_d_uc1638.c ****       case U8X8_MSG_DISPLAY_SETUP_MEMORY:
 295:..\..\..\u8g2\u8g2\csrc/u8x8_d_uc1638.c **** 	u8x8_d_helper_display_setup_memory(u8x8, &u8x8_uc1638_192x96_display_info);
ARM GAS  C:\Users\jesse\AppData\Local\Temp\cc1UJDDI.s 			page 12


 322              		.loc 1 295 0
 323 0016 0749     		ldr	r1, .L32
 324 0018 2046     		mov	r0, r4
 325 001a FFF7FEFF 		bl	u8x8_d_helper_display_setup_memory
 326              	.LVL47:
 327 001e 06E0     		b	.L31
 328              	.L30:
 296:..\..\..\u8g2\u8g2\csrc/u8x8_d_uc1638.c **** 	break;
 297:..\..\..\u8g2\u8g2\csrc/u8x8_d_uc1638.c ****       case U8X8_MSG_DISPLAY_INIT:
 298:..\..\..\u8g2\u8g2\csrc/u8x8_d_uc1638.c **** 	u8x8_d_helper_display_init(u8x8);
 329              		.loc 1 298 0
 330 0020 2046     		mov	r0, r4
 331 0022 FFF7FEFF 		bl	u8x8_d_helper_display_init
 332              	.LVL48:
 299:..\..\..\u8g2\u8g2\csrc/u8x8_d_uc1638.c ****           u8x8_cad_SendSequence(u8x8, u8x8_d_uc1638_192x96_init_seq);
 333              		.loc 1 299 0
 334 0026 0449     		ldr	r1, .L32+4
 335 0028 2046     		mov	r0, r4
 336 002a FFF7FEFF 		bl	u8x8_cad_SendSequence
 337              	.LVL49:
 338              	.L31:
 300:..\..\..\u8g2\u8g2\csrc/u8x8_d_uc1638.c **** 	break;
 301:..\..\..\u8g2\u8g2\csrc/u8x8_d_uc1638.c ****       default:
 302:..\..\..\u8g2\u8g2\csrc/u8x8_d_uc1638.c **** 	return 0;		/* msg unknown */
 303:..\..\..\u8g2\u8g2\csrc/u8x8_d_uc1638.c ****     }
 304:..\..\..\u8g2\u8g2\csrc/u8x8_d_uc1638.c ****   }
 305:..\..\..\u8g2\u8g2\csrc/u8x8_d_uc1638.c ****   return 1;
 339              		.loc 1 305 0
 340 002e 0120     		movs	r0, #1
 306:..\..\..\u8g2\u8g2\csrc/u8x8_d_uc1638.c **** }
 341              		.loc 1 306 0
 342 0030 38BD     		pop	{r3, r4, r5, pc}
 343              	.LVL50:
 344              	.L33:
 345 0032 00BF     		.align	2
 346              	.L32:
 347 0034 50000000 		.word	.LANCHOR0+80
 348 0038 68000000 		.word	.LANCHOR0+104
 349              		.cfi_endproc
 350              	.LFE2:
 351              		.size	u8x8_d_uc1638_192x96, .-u8x8_d_uc1638_192x96
 352              		.section	.rodata
 353              		.align	2
 354              		.set	.LANCHOR0,. + 0
 355              		.type	u8x8_d_uc1638_powersave0_seq, %object
 356              		.size	u8x8_d_uc1638_powersave0_seq, 7
 357              	u8x8_d_uc1638_powersave0_seq:
 358 0000 18       		.byte	24
 359 0001 15       		.byte	21
 360 0002 C9       		.byte	-55
 361 0003 16       		.byte	22
 362 0004 AD       		.byte	-83
 363 0005 19       		.byte	25
 364 0006 FF       		.byte	-1
 365              		.type	u8x8_d_uc1638_powersave1_seq, %object
 366              		.size	u8x8_d_uc1638_powersave1_seq, 7
 367              	u8x8_d_uc1638_powersave1_seq:
ARM GAS  C:\Users\jesse\AppData\Local\Temp\cc1UJDDI.s 			page 13


 368 0007 18       		.byte	24
 369 0008 15       		.byte	21
 370 0009 C9       		.byte	-55
 371 000a 16       		.byte	22
 372 000b AC       		.byte	-84
 373 000c 19       		.byte	25
 374 000d FF       		.byte	-1
 375              		.type	u8x8_d_uc1638_flip0_seq, %object
 376              		.size	u8x8_d_uc1638_flip0_seq, 5
 377              	u8x8_d_uc1638_flip0_seq:
 378 000e 18       		.byte	24
 379 000f 15       		.byte	21
 380 0010 C2       		.byte	-62
 381 0011 19       		.byte	25
 382 0012 FF       		.byte	-1
 383              		.type	u8x8_d_uc1638_flip1_seq, %object
 384              		.size	u8x8_d_uc1638_flip1_seq, 5
 385              	u8x8_d_uc1638_flip1_seq:
 386 0013 18       		.byte	24
 387 0014 15       		.byte	21
 388 0015 C4       		.byte	-60
 389 0016 19       		.byte	25
 390 0017 FF       		.byte	-1
 391              		.type	u8x8_uc1638_160x128_display_info, %object
 392              		.size	u8x8_uc1638_160x128_display_info, 24
 393              	u8x8_uc1638_160x128_display_info:
 394 0018 01       		.byte	1
 395 0019 00       		.byte	0
 396 001a 0A       		.byte	10
 397 001b 14       		.byte	20
 398 001c 05       		.byte	5
 399 001d 96       		.byte	-106
 400 001e 19       		.byte	25
 401 001f 41       		.byte	65
 402 0020 40420F00 		.word	1000000
 403 0024 00       		.byte	0
 404 0025 04       		.byte	4
 405 0026 1E       		.byte	30
 406 0027 23       		.byte	35
 407 0028 14       		.byte	20
 408 0029 10       		.byte	16
 409 002a 00       		.byte	0
 410 002b 00       		.byte	0
 411 002c A000     		.short	160
 412 002e 8000     		.short	128
 413              		.type	u8x8_d_uc1638_160x128_init_seq, %object
 414              		.size	u8x8_d_uc1638_160x128_init_seq, 29
 415              	u8x8_d_uc1638_160x128_init_seq:
 416 0030 18       		.byte	24
 417 0031 15       		.byte	21
 418 0032 E1       		.byte	-31
 419 0033 16       		.byte	22
 420 0034 E2       		.byte	-30
 421 0035 19       		.byte	25
 422 0036 FE       		.byte	-2
 423 0037 05       		.byte	5
 424 0038 18       		.byte	24
ARM GAS  C:\Users\jesse\AppData\Local\Temp\cc1UJDDI.s 			page 14


 425 0039 15       		.byte	21
 426 003a 24       		.byte	36
 427 003b 15       		.byte	21
 428 003c C0       		.byte	-64
 429 003d 15       		.byte	21
 430 003e A2       		.byte	-94
 431 003f 15       		.byte	21
 432 0040 D6       		.byte	-42
 433 0041 15       		.byte	21
 434 0042 EB       		.byte	-21
 435 0043 15       		.byte	21
 436 0044 95       		.byte	-107
 437 0045 15       		.byte	21
 438 0046 89       		.byte	-119
 439 0047 15       		.byte	21
 440 0048 81       		.byte	-127
 441 0049 16       		.byte	22
 442 004a A0       		.byte	-96
 443 004b 19       		.byte	25
 444 004c FF       		.byte	-1
 445 004d 000000   		.space	3
 446              		.type	u8x8_uc1638_192x96_display_info, %object
 447              		.size	u8x8_uc1638_192x96_display_info, 24
 448              	u8x8_uc1638_192x96_display_info:
 449 0050 00       		.byte	0
 450 0051 01       		.byte	1
 451 0052 0A       		.byte	10
 452 0053 14       		.byte	20
 453 0054 05       		.byte	5
 454 0055 96       		.byte	-106
 455 0056 19       		.byte	25
 456 0057 41       		.byte	65
 457 0058 80841E00 		.word	2000000
 458 005c 00       		.byte	0
 459 005d 04       		.byte	4
 460 005e 1E       		.byte	30
 461 005f 23       		.byte	35
 462 0060 18       		.byte	24
 463 0061 0C       		.byte	12
 464 0062 80       		.byte	-128
 465 0063 06       		.byte	6
 466 0064 C000     		.short	192
 467 0066 6000     		.short	96
 468              		.type	u8x8_d_uc1638_192x96_init_seq, %object
 469              		.size	u8x8_d_uc1638_192x96_init_seq, 33
 470              	u8x8_d_uc1638_192x96_init_seq:
 471 0068 18       		.byte	24
 472 0069 15       		.byte	21
 473 006a E1       		.byte	-31
 474 006b 16       		.byte	22
 475 006c E2       		.byte	-30
 476 006d FE       		.byte	-2
 477 006e 05       		.byte	5
 478 006f 15       		.byte	21
 479 0070 24       		.byte	36
 480 0071 15       		.byte	21
 481 0072 C2       		.byte	-62
ARM GAS  C:\Users\jesse\AppData\Local\Temp\cc1UJDDI.s 			page 15


 482 0073 15       		.byte	21
 483 0074 A2       		.byte	-94
 484 0075 15       		.byte	21
 485 0076 2D       		.byte	45
 486 0077 15       		.byte	21
 487 0078 EA       		.byte	-22
 488 0079 15       		.byte	21
 489 007a 81       		.byte	-127
 490 007b 16       		.byte	22
 491 007c A0       		.byte	-96
 492 007d 15       		.byte	21
 493 007e 95       		.byte	-107
 494 007f 15       		.byte	21
 495 0080 86       		.byte	-122
 496 0081 15       		.byte	21
 497 0082 F1       		.byte	-15
 498 0083 16       		.byte	22
 499 0084 9F       		.byte	-97
 500 0085 15       		.byte	21
 501 0086 89       		.byte	-119
 502 0087 19       		.byte	25
 503 0088 FF       		.byte	-1
 504              		.text
 505              	.Letext0:
 506              		.file 2 "c:\\program files (x86)\\cypress\\psoc creator\\4.4\\psoc creator\\import\\gnu\\arm\\5.4.
 507              		.file 3 "c:\\program files (x86)\\cypress\\psoc creator\\4.4\\psoc creator\\import\\gnu\\arm\\5.4.
 508              		.file 4 "..\\..\\..\\u8g2\\u8g2\\csrc\\u8x8.h"