ARM GAS  C:\Users\jesse\AppData\Local\Temp\ccqo4GFk.s 			page 1


   1              		.syntax unified
   2              		.cpu cortex-m3
   3              		.fpu softvfp
   4              		.eabi_attribute 20, 1
   5              		.eabi_attribute 21, 1
   6              		.eabi_attribute 23, 3
   7              		.eabi_attribute 24, 1
   8              		.eabi_attribute 25, 1
   9              		.eabi_attribute 26, 1
  10              		.eabi_attribute 30, 4
  11              		.eabi_attribute 34, 1
  12              		.eabi_attribute 18, 4
  13              		.thumb
  14              		.syntax unified
  15              		.file	"u8x8_d_max7219.c"
  16              		.text
  17              	.Ltext0:
  18              		.cfi_sections	.debug_frame
  19              		.section	.text.u8x8_d_max7219_generic,"ax",%progbits
  20              		.align	1
  21              		.thumb
  22              		.thumb_func
  23              		.type	u8x8_d_max7219_generic, %function
  24              	u8x8_d_max7219_generic:
  25              	.LFB0:
  26              		.file 1 "..\\..\\..\\u8g2\\u8g2\\csrc\\u8x8_d_max7219.c"
   1:..\..\..\u8g2\u8g2\csrc/u8x8_d_max7219.c **** /*
   2:..\..\..\u8g2\u8g2\csrc/u8x8_d_max7219.c **** 
   3:..\..\..\u8g2\u8g2\csrc/u8x8_d_max7219.c ****   u8x8_d_max7219.c
   4:..\..\..\u8g2\u8g2\csrc/u8x8_d_max7219.c ****   
   5:..\..\..\u8g2\u8g2\csrc/u8x8_d_max7219.c ****   Universal 8bit Graphics Library (https://github.com/olikraus/u8g2/)
   6:..\..\..\u8g2\u8g2\csrc/u8x8_d_max7219.c **** 
   7:..\..\..\u8g2\u8g2\csrc/u8x8_d_max7219.c ****   Copyright (c) 2017, olikraus@gmail.com
   8:..\..\..\u8g2\u8g2\csrc/u8x8_d_max7219.c ****   All rights reserved.
   9:..\..\..\u8g2\u8g2\csrc/u8x8_d_max7219.c **** 
  10:..\..\..\u8g2\u8g2\csrc/u8x8_d_max7219.c ****   Redistribution and use in source and binary forms, with or without modification, 
  11:..\..\..\u8g2\u8g2\csrc/u8x8_d_max7219.c ****   are permitted provided that the following conditions are met:
  12:..\..\..\u8g2\u8g2\csrc/u8x8_d_max7219.c **** 
  13:..\..\..\u8g2\u8g2\csrc/u8x8_d_max7219.c ****   * Redistributions of source code must retain the above copyright notice, this list 
  14:..\..\..\u8g2\u8g2\csrc/u8x8_d_max7219.c ****     of conditions and the following disclaimer.
  15:..\..\..\u8g2\u8g2\csrc/u8x8_d_max7219.c ****     
  16:..\..\..\u8g2\u8g2\csrc/u8x8_d_max7219.c ****   * Redistributions in binary form must reproduce the above copyright notice, this 
  17:..\..\..\u8g2\u8g2\csrc/u8x8_d_max7219.c ****     list of conditions and the following disclaimer in the documentation and/or other 
  18:..\..\..\u8g2\u8g2\csrc/u8x8_d_max7219.c ****     materials provided with the distribution.
  19:..\..\..\u8g2\u8g2\csrc/u8x8_d_max7219.c **** 
  20:..\..\..\u8g2\u8g2\csrc/u8x8_d_max7219.c ****   THIS SOFTWARE IS PROVIDED BY THE COPYRIGHT HOLDERS AND 
  21:..\..\..\u8g2\u8g2\csrc/u8x8_d_max7219.c ****   CONTRIBUTORS "AS IS" AND ANY EXPRESS OR IMPLIED WARRANTIES, 
  22:..\..\..\u8g2\u8g2\csrc/u8x8_d_max7219.c ****   INCLUDING, BUT NOT LIMITED TO, THE IMPLIED WARRANTIES OF 
  23:..\..\..\u8g2\u8g2\csrc/u8x8_d_max7219.c ****   MERCHANTABILITY AND FITNESS FOR A PARTICULAR PURPOSE ARE 
  24:..\..\..\u8g2\u8g2\csrc/u8x8_d_max7219.c ****   DISCLAIMED. IN NO EVENT SHALL THE COPYRIGHT HOLDER OR 
  25:..\..\..\u8g2\u8g2\csrc/u8x8_d_max7219.c ****   CONTRIBUTORS BE LIABLE FOR ANY DIRECT, INDIRECT, INCIDENTAL, 
  26:..\..\..\u8g2\u8g2\csrc/u8x8_d_max7219.c ****   SPECIAL, EXEMPLARY, OR CONSEQUENTIAL DAMAGES (INCLUDING, BUT 
  27:..\..\..\u8g2\u8g2\csrc/u8x8_d_max7219.c ****   NOT LIMITED TO, PROCUREMENT OF SUBSTITUTE GOODS OR SERVICES; 
  28:..\..\..\u8g2\u8g2\csrc/u8x8_d_max7219.c ****   LOSS OF USE, DATA, OR PROFITS; OR BUSINESS INTERRUPTION) HOWEVER 
  29:..\..\..\u8g2\u8g2\csrc/u8x8_d_max7219.c ****   CAUSED AND ON ANY THEORY OF LIABILITY, WHETHER IN CONTRACT, 
  30:..\..\..\u8g2\u8g2\csrc/u8x8_d_max7219.c ****   STRICT LIABILITY, OR TORT (INCLUDING NEGLIGENCE OR OTHERWISE) 
  31:..\..\..\u8g2\u8g2\csrc/u8x8_d_max7219.c ****   ARISING IN ANY WAY OUT OF THE USE OF THIS SOFTWARE, EVEN IF 
ARM GAS  C:\Users\jesse\AppData\Local\Temp\ccqo4GFk.s 			page 2


  32:..\..\..\u8g2\u8g2\csrc/u8x8_d_max7219.c ****   ADVISED OF THE POSSIBILITY OF SUCH DAMAGE.  
  33:..\..\..\u8g2\u8g2\csrc/u8x8_d_max7219.c ****   
  34:..\..\..\u8g2\u8g2\csrc/u8x8_d_max7219.c **** */
  35:..\..\..\u8g2\u8g2\csrc/u8x8_d_max7219.c **** 
  36:..\..\..\u8g2\u8g2\csrc/u8x8_d_max7219.c **** 
  37:..\..\..\u8g2\u8g2\csrc/u8x8_d_max7219.c **** #include "u8x8.h"
  38:..\..\..\u8g2\u8g2\csrc/u8x8_d_max7219.c **** 
  39:..\..\..\u8g2\u8g2\csrc/u8x8_d_max7219.c **** 
  40:..\..\..\u8g2\u8g2\csrc/u8x8_d_max7219.c **** 
  41:..\..\..\u8g2\u8g2\csrc/u8x8_d_max7219.c **** static const uint8_t u8x8_d_max7219_init_seq[] = {
  42:..\..\..\u8g2\u8g2\csrc/u8x8_d_max7219.c **** 
  43:..\..\..\u8g2\u8g2\csrc/u8x8_d_max7219.c ****   U8X8_START_TRANSFER(),             	/* enable chip, delay is part of the transfer start */  
  44:..\..\..\u8g2\u8g2\csrc/u8x8_d_max7219.c ****   U8X8_CA(15, 0),				/* test mode off */
  45:..\..\..\u8g2\u8g2\csrc/u8x8_d_max7219.c ****   U8X8_CA(15, 0),				/* test mode off */
  46:..\..\..\u8g2\u8g2\csrc/u8x8_d_max7219.c ****   U8X8_CA(15, 0),				/* test mode off */
  47:..\..\..\u8g2\u8g2\csrc/u8x8_d_max7219.c ****   U8X8_CA(15, 0),				/* test mode off */
  48:..\..\..\u8g2\u8g2\csrc/u8x8_d_max7219.c ****   U8X8_END_TRANSFER(),             	/* disable chip */
  49:..\..\..\u8g2\u8g2\csrc/u8x8_d_max7219.c **** 
  50:..\..\..\u8g2\u8g2\csrc/u8x8_d_max7219.c ****   U8X8_START_TRANSFER(),             	/* enable chip, delay is part of the transfer start */  
  51:..\..\..\u8g2\u8g2\csrc/u8x8_d_max7219.c ****   U8X8_CA(12, 0),				/*  */
  52:..\..\..\u8g2\u8g2\csrc/u8x8_d_max7219.c ****   U8X8_CA(12, 0),				/*  */
  53:..\..\..\u8g2\u8g2\csrc/u8x8_d_max7219.c ****   U8X8_CA(12, 0),				/*  */
  54:..\..\..\u8g2\u8g2\csrc/u8x8_d_max7219.c ****   U8X8_CA(12, 0),				/*  */
  55:..\..\..\u8g2\u8g2\csrc/u8x8_d_max7219.c ****   U8X8_END_TRANSFER(),             	/* disable chip */
  56:..\..\..\u8g2\u8g2\csrc/u8x8_d_max7219.c ****   
  57:..\..\..\u8g2\u8g2\csrc/u8x8_d_max7219.c ****   U8X8_START_TRANSFER(),             	/* enable chip, delay is part of the transfer start */  
  58:..\..\..\u8g2\u8g2\csrc/u8x8_d_max7219.c ****   U8X8_CA(9, 0),				/* decode mode: graphics */
  59:..\..\..\u8g2\u8g2\csrc/u8x8_d_max7219.c ****   U8X8_CA(9, 0),				/* decode mode: graphics */
  60:..\..\..\u8g2\u8g2\csrc/u8x8_d_max7219.c ****   U8X8_CA(9, 0),				/* decode mode: graphics */
  61:..\..\..\u8g2\u8g2\csrc/u8x8_d_max7219.c ****   U8X8_CA(9, 0),				/* decode mode: graphics */
  62:..\..\..\u8g2\u8g2\csrc/u8x8_d_max7219.c ****   U8X8_END_TRANSFER(),             	/* disable chip */
  63:..\..\..\u8g2\u8g2\csrc/u8x8_d_max7219.c ****   
  64:..\..\..\u8g2\u8g2\csrc/u8x8_d_max7219.c ****   U8X8_START_TRANSFER(),             	/* enable chip, delay is part of the transfer start */  
  65:..\..\..\u8g2\u8g2\csrc/u8x8_d_max7219.c ****   U8X8_CA(10, 10),				/* medium high intensity */
  66:..\..\..\u8g2\u8g2\csrc/u8x8_d_max7219.c ****   U8X8_CA(10, 10),				/* medium high intensity */
  67:..\..\..\u8g2\u8g2\csrc/u8x8_d_max7219.c ****   U8X8_CA(10, 10),				/* medium high intensity */
  68:..\..\..\u8g2\u8g2\csrc/u8x8_d_max7219.c ****   U8X8_CA(10, 10),				/* medium high intensity */
  69:..\..\..\u8g2\u8g2\csrc/u8x8_d_max7219.c ****   U8X8_END_TRANSFER(),             	/* disable chip */
  70:..\..\..\u8g2\u8g2\csrc/u8x8_d_max7219.c ****   
  71:..\..\..\u8g2\u8g2\csrc/u8x8_d_max7219.c ****   U8X8_START_TRANSFER(),             	/* enable chip, delay is part of the transfer start */  
  72:..\..\..\u8g2\u8g2\csrc/u8x8_d_max7219.c ****   U8X8_CA(11, 7),				/* scan limit: display all digits (assuming a 8x8 matrix) */
  73:..\..\..\u8g2\u8g2\csrc/u8x8_d_max7219.c ****   U8X8_CA(11, 7),				/* scan limit: display all digits (assuming a 8x8 matrix) */
  74:..\..\..\u8g2\u8g2\csrc/u8x8_d_max7219.c ****   U8X8_CA(11, 7),				/* scan limit: display all digits (assuming a 8x8 matrix) */
  75:..\..\..\u8g2\u8g2\csrc/u8x8_d_max7219.c ****   U8X8_CA(11, 7),				/* scan limit: display all digits (assuming a 8x8 matrix) */
  76:..\..\..\u8g2\u8g2\csrc/u8x8_d_max7219.c ****   U8X8_END_TRANSFER(),             	/* disable chip */
  77:..\..\..\u8g2\u8g2\csrc/u8x8_d_max7219.c **** 
  78:..\..\..\u8g2\u8g2\csrc/u8x8_d_max7219.c **** 
  79:..\..\..\u8g2\u8g2\csrc/u8x8_d_max7219.c ****   //U8X8_CA(12, 0),				/* shutdown */
  80:..\..\..\u8g2\u8g2\csrc/u8x8_d_max7219.c ****     
  81:..\..\..\u8g2\u8g2\csrc/u8x8_d_max7219.c ****   //U8X8_END_TRANSFER(),             	/* disable chip */
  82:..\..\..\u8g2\u8g2\csrc/u8x8_d_max7219.c ****   U8X8_END()             			/* end of sequence */
  83:..\..\..\u8g2\u8g2\csrc/u8x8_d_max7219.c **** };
  84:..\..\..\u8g2\u8g2\csrc/u8x8_d_max7219.c **** 
  85:..\..\..\u8g2\u8g2\csrc/u8x8_d_max7219.c **** static const uint8_t u8x8_d_max7219_powersave0_seq[] = {
  86:..\..\..\u8g2\u8g2\csrc/u8x8_d_max7219.c ****   U8X8_START_TRANSFER(),             	/* enable chip, delay is part of the transfer start */
  87:..\..\..\u8g2\u8g2\csrc/u8x8_d_max7219.c ****   U8X8_CA(12, 1),				/* display on */
  88:..\..\..\u8g2\u8g2\csrc/u8x8_d_max7219.c ****   U8X8_CA(12, 1),				/* display on */
ARM GAS  C:\Users\jesse\AppData\Local\Temp\ccqo4GFk.s 			page 3


  89:..\..\..\u8g2\u8g2\csrc/u8x8_d_max7219.c ****   U8X8_CA(12, 1),				/* display on */
  90:..\..\..\u8g2\u8g2\csrc/u8x8_d_max7219.c ****   U8X8_CA(12, 1),				/* display on */
  91:..\..\..\u8g2\u8g2\csrc/u8x8_d_max7219.c ****   U8X8_END_TRANSFER(),             	/* disable chip */
  92:..\..\..\u8g2\u8g2\csrc/u8x8_d_max7219.c ****   U8X8_END()             			/* end of sequence */
  93:..\..\..\u8g2\u8g2\csrc/u8x8_d_max7219.c **** };
  94:..\..\..\u8g2\u8g2\csrc/u8x8_d_max7219.c **** 
  95:..\..\..\u8g2\u8g2\csrc/u8x8_d_max7219.c **** static const uint8_t u8x8_d_max7219_powersave1_seq[] = {
  96:..\..\..\u8g2\u8g2\csrc/u8x8_d_max7219.c ****   U8X8_START_TRANSFER(),             	/* enable chip, delay is part of the transfer start */
  97:..\..\..\u8g2\u8g2\csrc/u8x8_d_max7219.c ****   U8X8_CA(12, 0),				/* shutdown */
  98:..\..\..\u8g2\u8g2\csrc/u8x8_d_max7219.c ****   U8X8_CA(12, 0),				/* shutdown */
  99:..\..\..\u8g2\u8g2\csrc/u8x8_d_max7219.c ****   U8X8_CA(12, 0),				/* shutdown */
 100:..\..\..\u8g2\u8g2\csrc/u8x8_d_max7219.c ****   U8X8_CA(12, 0),				/* shutdown */
 101:..\..\..\u8g2\u8g2\csrc/u8x8_d_max7219.c ****   U8X8_END_TRANSFER(),             	/* disable chip */
 102:..\..\..\u8g2\u8g2\csrc/u8x8_d_max7219.c ****   U8X8_END()             			/* end of sequence */
 103:..\..\..\u8g2\u8g2\csrc/u8x8_d_max7219.c **** };
 104:..\..\..\u8g2\u8g2\csrc/u8x8_d_max7219.c **** 
 105:..\..\..\u8g2\u8g2\csrc/u8x8_d_max7219.c **** 
 106:..\..\..\u8g2\u8g2\csrc/u8x8_d_max7219.c **** static uint8_t u8x8_d_max7219_generic(u8x8_t *u8x8, uint8_t msg, uint8_t arg_int, void *arg_ptr)
 107:..\..\..\u8g2\u8g2\csrc/u8x8_d_max7219.c **** {
  27              		.loc 1 107 0
  28              		.cfi_startproc
  29              		@ args = 0, pretend = 0, frame = 0
  30              		@ frame_needed = 0, uses_anonymous_args = 0
  31              	.LVL0:
 108:..\..\..\u8g2\u8g2\csrc/u8x8_d_max7219.c ****   uint8_t c, j, i;
 109:..\..\..\u8g2\u8g2\csrc/u8x8_d_max7219.c ****   uint8_t *ptr;
 110:..\..\..\u8g2\u8g2\csrc/u8x8_d_max7219.c ****   switch(msg)
  32              		.loc 1 110 0
  33 0000 0E29     		cmp	r1, #14
 107:..\..\..\u8g2\u8g2\csrc/u8x8_d_max7219.c ****   uint8_t c, j, i;
  34              		.loc 1 107 0
  35 0002 2DE9F041 		push	{r4, r5, r6, r7, r8, lr}
  36              		.cfi_def_cfa_offset 24
  37              		.cfi_offset 4, -24
  38              		.cfi_offset 5, -20
  39              		.cfi_offset 6, -16
  40              		.cfi_offset 7, -12
  41              		.cfi_offset 8, -8
  42              		.cfi_offset 14, -4
 107:..\..\..\u8g2\u8g2\csrc/u8x8_d_max7219.c ****   uint8_t c, j, i;
  43              		.loc 1 107 0
  44 0006 0446     		mov	r4, r0
  45 0008 1646     		mov	r6, r2
  46              		.loc 1 110 0
  47 000a 06D0     		beq	.L3
  48 000c 0F29     		cmp	r1, #15
  49 000e 38D1     		bne	.L15
  50              	.LVL1:
  51              	.LBB4:
  52              	.LBB5:
 111:..\..\..\u8g2\u8g2\csrc/u8x8_d_max7219.c ****   {
 112:..\..\..\u8g2\u8g2\csrc/u8x8_d_max7219.c ****     /* handled by the calling function
 113:..\..\..\u8g2\u8g2\csrc/u8x8_d_max7219.c ****     case U8X8_MSG_DISPLAY_SETUP_MEMORY:
 114:..\..\..\u8g2\u8g2\csrc/u8x8_d_max7219.c ****       u8x8_d_helper_display_setup_memory(u8x8, &u8x8_pcf8812_96x65_display_info);
 115:..\..\..\u8g2\u8g2\csrc/u8x8_d_max7219.c ****       break;
 116:..\..\..\u8g2\u8g2\csrc/u8x8_d_max7219.c ****     case U8X8_MSG_DISPLAY_INIT:
 117:..\..\..\u8g2\u8g2\csrc/u8x8_d_max7219.c ****       u8x8_d_helper_display_init(u8x8);
ARM GAS  C:\Users\jesse\AppData\Local\Temp\ccqo4GFk.s 			page 4


 118:..\..\..\u8g2\u8g2\csrc/u8x8_d_max7219.c ****       u8x8_cad_SendSequence(u8x8, u8x8_d_max7219_init_seq);    
 119:..\..\..\u8g2\u8g2\csrc/u8x8_d_max7219.c ****       break;
 120:..\..\..\u8g2\u8g2\csrc/u8x8_d_max7219.c ****     case U8X8_MSG_DISPLAY_SET_POWER_SAVE:
 121:..\..\..\u8g2\u8g2\csrc/u8x8_d_max7219.c ****       if ( arg_int == 0 )
 122:..\..\..\u8g2\u8g2\csrc/u8x8_d_max7219.c **** 	u8x8_cad_SendSequence(u8x8, u8x8_d_max7219_powersave0_seq);
 123:..\..\..\u8g2\u8g2\csrc/u8x8_d_max7219.c ****       else
 124:..\..\..\u8g2\u8g2\csrc/u8x8_d_max7219.c **** 	u8x8_cad_SendSequence(u8x8, u8x8_d_max7219_powersave1_seq);
 125:..\..\..\u8g2\u8g2\csrc/u8x8_d_max7219.c ****       break;
 126:..\..\..\u8g2\u8g2\csrc/u8x8_d_max7219.c ****     */
 127:..\..\..\u8g2\u8g2\csrc/u8x8_d_max7219.c **** /*  not supported by MAX7219
 128:..\..\..\u8g2\u8g2\csrc/u8x8_d_max7219.c ****     case U8X8_MSG_DISPLAY_SET_FLIP_MODE:
 129:..\..\..\u8g2\u8g2\csrc/u8x8_d_max7219.c ****       break;
 130:..\..\..\u8g2\u8g2\csrc/u8x8_d_max7219.c **** */
 131:..\..\..\u8g2\u8g2\csrc/u8x8_d_max7219.c **** #ifdef U8X8_WITH_SET_CONTRAST
 132:..\..\..\u8g2\u8g2\csrc/u8x8_d_max7219.c ****     case U8X8_MSG_DISPLAY_SET_CONTRAST:
 133:..\..\..\u8g2\u8g2\csrc/u8x8_d_max7219.c ****       u8x8_cad_StartTransfer(u8x8);
 134:..\..\..\u8g2\u8g2\csrc/u8x8_d_max7219.c ****       for( i = 0; i < u8x8->display_info->tile_width; i++ )
 135:..\..\..\u8g2\u8g2\csrc/u8x8_d_max7219.c ****       {
 136:..\..\..\u8g2\u8g2\csrc/u8x8_d_max7219.c **** 	u8x8_cad_SendCmd(u8x8, 10 );    /* brightness */
 137:..\..\..\u8g2\u8g2\csrc/u8x8_d_max7219.c **** 	u8x8_cad_SendArg(u8x8, (arg_int>>4) );	/* 0..15 for contrast */
 138:..\..\..\u8g2\u8g2\csrc/u8x8_d_max7219.c ****       }
 139:..\..\..\u8g2\u8g2\csrc/u8x8_d_max7219.c ****       u8x8_cad_EndTransfer(u8x8);
 140:..\..\..\u8g2\u8g2\csrc/u8x8_d_max7219.c ****       break;
 141:..\..\..\u8g2\u8g2\csrc/u8x8_d_max7219.c **** #endif
 142:..\..\..\u8g2\u8g2\csrc/u8x8_d_max7219.c ****     case U8X8_MSG_DISPLAY_DRAW_TILE:
 143:..\..\..\u8g2\u8g2\csrc/u8x8_d_max7219.c ****       /* transfer always has to start at x pos 0 (u8x8 is not supported) */
 144:..\..\..\u8g2\u8g2\csrc/u8x8_d_max7219.c ****       /* also y pos has to be 0 */
 145:..\..\..\u8g2\u8g2\csrc/u8x8_d_max7219.c ****       /* arg_int is ignored */
 146:..\..\..\u8g2\u8g2\csrc/u8x8_d_max7219.c ****       //x = ((u8x8_tile_t *)arg_ptr)->x_pos;    
 147:..\..\..\u8g2\u8g2\csrc/u8x8_d_max7219.c **** 
 148:..\..\..\u8g2\u8g2\csrc/u8x8_d_max7219.c ****       c = ((u8x8_tile_t *)arg_ptr)->cnt;	/* number of tiles */
  53              		.loc 1 148 0
  54 0010 93F80480 		ldrb	r8, [r3, #4]	@ zero_extendqisi2
  55              	.LVL2:
 149:..\..\..\u8g2\u8g2\csrc/u8x8_d_max7219.c ****       ptr = ((u8x8_tile_t *)arg_ptr)->tile_ptr;	/* data ptr to the tiles */
  56              		.loc 1 149 0
  57 0014 1E68     		ldr	r6, [r3]
  58              	.LVL3:
  59 0016 0125     		movs	r5, #1
  60 0018 1EE0     		b	.L9
  61              	.LVL4:
  62              	.L3:
  63              	.LBE5:
  64              	.LBE4:
 133:..\..\..\u8g2\u8g2\csrc/u8x8_d_max7219.c ****       for( i = 0; i < u8x8->display_info->tile_width; i++ )
  65              		.loc 1 133 0
  66 001a FFF7FEFF 		bl	u8x8_cad_StartTransfer
  67              	.LVL5:
 137:..\..\..\u8g2\u8g2\csrc/u8x8_d_max7219.c ****       }
  68              		.loc 1 137 0
  69 001e 3609     		lsrs	r6, r6, #4
 134:..\..\..\u8g2\u8g2\csrc/u8x8_d_max7219.c ****       {
  70              		.loc 1 134 0
  71 0020 0025     		movs	r5, #0
  72              	.LVL6:
  73              	.L5:
 134:..\..\..\u8g2\u8g2\csrc/u8x8_d_max7219.c ****       {
ARM GAS  C:\Users\jesse\AppData\Local\Temp\ccqo4GFk.s 			page 5


  74              		.loc 1 134 0 is_stmt 0 discriminator 1
  75 0022 2268     		ldr	r2, [r4]
  76 0024 EBB2     		uxtb	r3, r5
  77 0026 127C     		ldrb	r2, [r2, #16]	@ zero_extendqisi2
  78 0028 0135     		adds	r5, r5, #1
  79 002a 9A42     		cmp	r2, r3
  80 002c 08D9     		bls	.L16
 136:..\..\..\u8g2\u8g2\csrc/u8x8_d_max7219.c **** 	u8x8_cad_SendArg(u8x8, (arg_int>>4) );	/* 0..15 for contrast */
  81              		.loc 1 136 0 is_stmt 1 discriminator 3
  82 002e 0A21     		movs	r1, #10
  83 0030 2046     		mov	r0, r4
  84 0032 FFF7FEFF 		bl	u8x8_cad_SendCmd
  85              	.LVL7:
 137:..\..\..\u8g2\u8g2\csrc/u8x8_d_max7219.c ****       }
  86              		.loc 1 137 0 discriminator 3
  87 0036 3146     		mov	r1, r6
  88 0038 2046     		mov	r0, r4
  89 003a FFF7FEFF 		bl	u8x8_cad_SendArg
  90              	.LVL8:
  91 003e F0E7     		b	.L5
  92              	.LVL9:
  93              	.L16:
 139:..\..\..\u8g2\u8g2\csrc/u8x8_d_max7219.c ****       break;
  94              		.loc 1 139 0
  95 0040 2046     		mov	r0, r4
  96 0042 FFF7FEFF 		bl	u8x8_cad_EndTransfer
  97              	.LVL10:
  98 0046 19E0     		b	.L13
  99              	.LVL11:
 100              	.L17:
 101 0048 0135     		adds	r5, r5, #1
 102              	.LVL12:
 103              	.LBB7:
 104              	.LBB6:
 150:..\..\..\u8g2\u8g2\csrc/u8x8_d_max7219.c ****       for( i = 0; i < 8; i++ )
 151:..\..\..\u8g2\u8g2\csrc/u8x8_d_max7219.c ****       {
 152:..\..\..\u8g2\u8g2\csrc/u8x8_d_max7219.c **** 	u8x8_cad_StartTransfer(u8x8);
 153:..\..\..\u8g2\u8g2\csrc/u8x8_d_max7219.c **** 	for( j = 0; j < c; j++ )
 154:..\..\..\u8g2\u8g2\csrc/u8x8_d_max7219.c **** 	{
 155:..\..\..\u8g2\u8g2\csrc/u8x8_d_max7219.c **** 	  u8x8_cad_SendCmd(u8x8, i+1);	/* commands 1..8 select the byte */
 156:..\..\..\u8g2\u8g2\csrc/u8x8_d_max7219.c **** 	  u8x8_cad_SendArg(u8x8, *ptr );
 157:..\..\..\u8g2\u8g2\csrc/u8x8_d_max7219.c **** 	  ptr++;
 158:..\..\..\u8g2\u8g2\csrc/u8x8_d_max7219.c **** 	}
 159:..\..\..\u8g2\u8g2\csrc/u8x8_d_max7219.c **** 	u8x8_cad_EndTransfer(u8x8);
 105              		.loc 1 159 0
 106 004a 2046     		mov	r0, r4
 107 004c EDB2     		uxtb	r5, r5
 108 004e FFF7FEFF 		bl	u8x8_cad_EndTransfer
 109              	.LVL13:
 150:..\..\..\u8g2\u8g2\csrc/u8x8_d_max7219.c ****       for( i = 0; i < 8; i++ )
 110              		.loc 1 150 0
 111 0052 092D     		cmp	r5, #9
 112 0054 4644     		add	r6, r6, r8
 113              	.LVL14:
 114 0056 11D0     		beq	.L13
 115              	.L9:
 116              	.LVL15:
ARM GAS  C:\Users\jesse\AppData\Local\Temp\ccqo4GFk.s 			page 6


 152:..\..\..\u8g2\u8g2\csrc/u8x8_d_max7219.c **** 	for( j = 0; j < c; j++ )
 117              		.loc 1 152 0
 118 0058 2046     		mov	r0, r4
 119 005a FFF7FEFF 		bl	u8x8_cad_StartTransfer
 120              	.LVL16:
 121 005e 3746     		mov	r7, r6
 122              	.LVL17:
 123              	.L7:
 153:..\..\..\u8g2\u8g2\csrc/u8x8_d_max7219.c **** 	{
 124              		.loc 1 153 0
 125 0060 BB1B     		subs	r3, r7, r6
 126 0062 DBB2     		uxtb	r3, r3
 127 0064 4345     		cmp	r3, r8
 128 0066 EFD2     		bcs	.L17
 155:..\..\..\u8g2\u8g2\csrc/u8x8_d_max7219.c **** 	  u8x8_cad_SendArg(u8x8, *ptr );
 129              		.loc 1 155 0
 130 0068 2946     		mov	r1, r5
 131 006a 2046     		mov	r0, r4
 132 006c FFF7FEFF 		bl	u8x8_cad_SendCmd
 133              	.LVL18:
 156:..\..\..\u8g2\u8g2\csrc/u8x8_d_max7219.c **** 	  ptr++;
 134              		.loc 1 156 0
 135 0070 17F8011B 		ldrb	r1, [r7], #1	@ zero_extendqisi2
 136              	.LVL19:
 137 0074 2046     		mov	r0, r4
 138 0076 FFF7FEFF 		bl	u8x8_cad_SendArg
 139              	.LVL20:
 140 007a F1E7     		b	.L7
 141              	.LVL21:
 142              	.L13:
 150:..\..\..\u8g2\u8g2\csrc/u8x8_d_max7219.c ****       {
 143              		.loc 1 150 0
 144 007c 0120     		movs	r0, #1
 145 007e BDE8F081 		pop	{r4, r5, r6, r7, r8, pc}
 146              	.LVL22:
 147              	.L15:
 148              	.LBE6:
 149              	.LBE7:
 160:..\..\..\u8g2\u8g2\csrc/u8x8_d_max7219.c ****       }
 161:..\..\..\u8g2\u8g2\csrc/u8x8_d_max7219.c ****       
 162:..\..\..\u8g2\u8g2\csrc/u8x8_d_max7219.c ****       break;
 163:..\..\..\u8g2\u8g2\csrc/u8x8_d_max7219.c ****     default:
 164:..\..\..\u8g2\u8g2\csrc/u8x8_d_max7219.c ****       return 0;
 150              		.loc 1 164 0
 151 0082 0020     		movs	r0, #0
 152              	.LVL23:
 165:..\..\..\u8g2\u8g2\csrc/u8x8_d_max7219.c ****   }
 166:..\..\..\u8g2\u8g2\csrc/u8x8_d_max7219.c ****   return 1;
 167:..\..\..\u8g2\u8g2\csrc/u8x8_d_max7219.c **** }
 153              		.loc 1 167 0
 154 0084 BDE8F081 		pop	{r4, r5, r6, r7, r8, pc}
 155              		.cfi_endproc
 156              	.LFE0:
 157              		.size	u8x8_d_max7219_generic, .-u8x8_d_max7219_generic
 158              		.section	.text.u8x8_d_max7219_32x8,"ax",%progbits
 159              		.align	1
 160              		.global	u8x8_d_max7219_32x8
ARM GAS  C:\Users\jesse\AppData\Local\Temp\ccqo4GFk.s 			page 7


 161              		.thumb
 162              		.thumb_func
 163              		.type	u8x8_d_max7219_32x8, %function
 164              	u8x8_d_max7219_32x8:
 165              	.LFB1:
 168:..\..\..\u8g2\u8g2\csrc/u8x8_d_max7219.c **** 
 169:..\..\..\u8g2\u8g2\csrc/u8x8_d_max7219.c **** /*==============================*/
 170:..\..\..\u8g2\u8g2\csrc/u8x8_d_max7219.c **** 
 171:..\..\..\u8g2\u8g2\csrc/u8x8_d_max7219.c **** static const u8x8_display_info_t u8x8_max7219_32x8_display_info =
 172:..\..\..\u8g2\u8g2\csrc/u8x8_d_max7219.c **** {
 173:..\..\..\u8g2\u8g2\csrc/u8x8_d_max7219.c ****   /* chip_enable_level = */ 0,
 174:..\..\..\u8g2\u8g2\csrc/u8x8_d_max7219.c ****   /* chip_disable_level = */ 1,
 175:..\..\..\u8g2\u8g2\csrc/u8x8_d_max7219.c ****   
 176:..\..\..\u8g2\u8g2\csrc/u8x8_d_max7219.c ****   /* post_chip_enable_wait_ns = */ 100,
 177:..\..\..\u8g2\u8g2\csrc/u8x8_d_max7219.c ****   /* pre_chip_disable_wait_ns = */ 100,
 178:..\..\..\u8g2\u8g2\csrc/u8x8_d_max7219.c ****   /* reset_pulse_width_ms = */ 100, 
 179:..\..\..\u8g2\u8g2\csrc/u8x8_d_max7219.c ****   /* post_reset_wait_ms = */ 100, 
 180:..\..\..\u8g2\u8g2\csrc/u8x8_d_max7219.c ****   /* sda_setup_time_ns = */ 100,	
 181:..\..\..\u8g2\u8g2\csrc/u8x8_d_max7219.c ****   /* sck_pulse_width_ns = */ 100,	
 182:..\..\..\u8g2\u8g2\csrc/u8x8_d_max7219.c ****   /* sck_clock_hz = */ 4000000UL,	/* since Arduino 1.6.0, the SPI bus speed in Hz. Should be  10000
 183:..\..\..\u8g2\u8g2\csrc/u8x8_d_max7219.c ****   /* spi_mode = */ 0,		/* active high, rising edge */
 184:..\..\..\u8g2\u8g2\csrc/u8x8_d_max7219.c ****   /* i2c_bus_clock_100kHz = */ 4,
 185:..\..\..\u8g2\u8g2\csrc/u8x8_d_max7219.c ****   /* data_setup_time_ns = */ 40,
 186:..\..\..\u8g2\u8g2\csrc/u8x8_d_max7219.c ****   /* write_pulse_width_ns = */ 150,	
 187:..\..\..\u8g2\u8g2\csrc/u8x8_d_max7219.c ****   /* tile_width = */ 4,
 188:..\..\..\u8g2\u8g2\csrc/u8x8_d_max7219.c ****   /* tile_hight = */ 1,
 189:..\..\..\u8g2\u8g2\csrc/u8x8_d_max7219.c ****   /* default_x_offset = */ 0,
 190:..\..\..\u8g2\u8g2\csrc/u8x8_d_max7219.c ****   /* flipmode_x_offset = */ 0,
 191:..\..\..\u8g2\u8g2\csrc/u8x8_d_max7219.c ****   /* pixel_width = */ 32,
 192:..\..\..\u8g2\u8g2\csrc/u8x8_d_max7219.c ****   /* pixel_height = */ 8
 193:..\..\..\u8g2\u8g2\csrc/u8x8_d_max7219.c **** };
 194:..\..\..\u8g2\u8g2\csrc/u8x8_d_max7219.c **** 
 195:..\..\..\u8g2\u8g2\csrc/u8x8_d_max7219.c **** uint8_t u8x8_d_max7219_32x8(u8x8_t *u8x8, uint8_t msg, uint8_t arg_int, void *arg_ptr)
 196:..\..\..\u8g2\u8g2\csrc/u8x8_d_max7219.c **** {
 166              		.loc 1 196 0
 167              		.cfi_startproc
 168              		@ args = 0, pretend = 0, frame = 0
 169              		@ frame_needed = 0, uses_anonymous_args = 0
 170              	.LVL24:
 197:..\..\..\u8g2\u8g2\csrc/u8x8_d_max7219.c ****   switch(msg)
 171              		.loc 1 197 0
 172 0000 0A29     		cmp	r1, #10
 196:..\..\..\u8g2\u8g2\csrc/u8x8_d_max7219.c ****   switch(msg)
 173              		.loc 1 196 0
 174 0002 70B5     		push	{r4, r5, r6, lr}
 175              		.cfi_def_cfa_offset 16
 176              		.cfi_offset 4, -16
 177              		.cfi_offset 5, -12
 178              		.cfi_offset 6, -8
 179              		.cfi_offset 14, -4
 196:..\..\..\u8g2\u8g2\csrc/u8x8_d_max7219.c ****   switch(msg)
 180              		.loc 1 196 0
 181 0004 0646     		mov	r6, r0
 182              		.loc 1 197 0
 183 0006 07D0     		beq	.L20
 184 0008 0B29     		cmp	r1, #11
 185 000a 0AD0     		beq	.L21
ARM GAS  C:\Users\jesse\AppData\Local\Temp\ccqo4GFk.s 			page 8


 186 000c 0929     		cmp	r1, #9
 187 000e 0FD1     		bne	.L25
 198:..\..\..\u8g2\u8g2\csrc/u8x8_d_max7219.c ****   {
 199:..\..\..\u8g2\u8g2\csrc/u8x8_d_max7219.c ****     case U8X8_MSG_DISPLAY_SETUP_MEMORY :
 200:..\..\..\u8g2\u8g2\csrc/u8x8_d_max7219.c ****       u8x8_d_helper_display_setup_memory(u8x8, &u8x8_max7219_32x8_display_info);
 188              		.loc 1 200 0
 189 0010 0A49     		ldr	r1, .L27
 190              	.LVL25:
 191 0012 FFF7FEFF 		bl	u8x8_d_helper_display_setup_memory
 192              	.LVL26:
 201:..\..\..\u8g2\u8g2\csrc/u8x8_d_max7219.c ****       return 1;
 193              		.loc 1 201 0
 194 0016 0FE0     		b	.L23
 195              	.LVL27:
 196              	.L20:
 202:..\..\..\u8g2\u8g2\csrc/u8x8_d_max7219.c ****     case U8X8_MSG_DISPLAY_INIT:
 203:..\..\..\u8g2\u8g2\csrc/u8x8_d_max7219.c ****       u8x8_d_helper_display_init(u8x8);
 197              		.loc 1 203 0
 198 0018 FFF7FEFF 		bl	u8x8_d_helper_display_init
 199              	.LVL28:
 204:..\..\..\u8g2\u8g2\csrc/u8x8_d_max7219.c ****       u8x8_cad_SendSequence(u8x8, u8x8_d_max7219_init_seq);    
 200              		.loc 1 204 0
 201 001c 0849     		ldr	r1, .L27+4
 202 001e 3046     		mov	r0, r6
 203 0020 01E0     		b	.L26
 204              	.LVL29:
 205              	.L21:
 205:..\..\..\u8g2\u8g2\csrc/u8x8_d_max7219.c ****       return 1;
 206:..\..\..\u8g2\u8g2\csrc/u8x8_d_max7219.c ****     case U8X8_MSG_DISPLAY_SET_POWER_SAVE:
 207:..\..\..\u8g2\u8g2\csrc/u8x8_d_max7219.c ****       if ( arg_int == 0 )
 206              		.loc 1 207 0
 207 0022 1AB9     		cbnz	r2, .L24
 208:..\..\..\u8g2\u8g2\csrc/u8x8_d_max7219.c **** 	u8x8_cad_SendSequence(u8x8, u8x8_d_max7219_powersave0_seq);
 208              		.loc 1 208 0
 209 0024 0749     		ldr	r1, .L27+8
 210              	.LVL30:
 211              	.L26:
 212 0026 FFF7FEFF 		bl	u8x8_cad_SendSequence
 213              	.LVL31:
 214 002a 05E0     		b	.L23
 215              	.LVL32:
 216              	.L24:
 209:..\..\..\u8g2\u8g2\csrc/u8x8_d_max7219.c ****       else
 210:..\..\..\u8g2\u8g2\csrc/u8x8_d_max7219.c **** 	u8x8_cad_SendSequence(u8x8, u8x8_d_max7219_powersave1_seq);
 217              		.loc 1 210 0
 218 002c 0649     		ldr	r1, .L27+12
 219              	.LVL33:
 220 002e FAE7     		b	.L26
 221              	.LVL34:
 222              	.L25:
 211:..\..\..\u8g2\u8g2\csrc/u8x8_d_max7219.c ****       return 1;
 212:..\..\..\u8g2\u8g2\csrc/u8x8_d_max7219.c ****   }
 213:..\..\..\u8g2\u8g2\csrc/u8x8_d_max7219.c ****   return u8x8_d_max7219_generic(u8x8, msg, arg_int, arg_ptr);
 214:..\..\..\u8g2\u8g2\csrc/u8x8_d_max7219.c **** }
 223              		.loc 1 214 0
 224 0030 BDE87040 		pop	{r4, r5, r6, lr}
 225              		.cfi_remember_state
ARM GAS  C:\Users\jesse\AppData\Local\Temp\ccqo4GFk.s 			page 9


 226              		.cfi_restore 14
 227              		.cfi_restore 6
 228              		.cfi_restore 5
 229              		.cfi_restore 4
 230              		.cfi_def_cfa_offset 0
 213:..\..\..\u8g2\u8g2\csrc/u8x8_d_max7219.c **** }
 231              		.loc 1 213 0
 232 0034 FFF7FEBF 		b	u8x8_d_max7219_generic
 233              	.LVL35:
 234              	.L23:
 235              		.cfi_restore_state
 236              		.loc 1 214 0
 237 0038 0120     		movs	r0, #1
 238 003a 70BD     		pop	{r4, r5, r6, pc}
 239              	.LVL36:
 240              	.L28:
 241              		.align	2
 242              	.L27:
 243 003c 00000000 		.word	.LANCHOR0
 244 0040 18000000 		.word	.LANCHOR0+24
 245 0044 73000000 		.word	.LANCHOR0+115
 246 0048 86000000 		.word	.LANCHOR0+134
 247              		.cfi_endproc
 248              	.LFE1:
 249              		.size	u8x8_d_max7219_32x8, .-u8x8_d_max7219_32x8
 250              		.section	.text.u8x8_d_max7219_16x16,"ax",%progbits
 251              		.align	1
 252              		.global	u8x8_d_max7219_16x16
 253              		.thumb
 254              		.thumb_func
 255              		.type	u8x8_d_max7219_16x16, %function
 256              	u8x8_d_max7219_16x16:
 257              	.LFB2:
 215:..\..\..\u8g2\u8g2\csrc/u8x8_d_max7219.c **** 
 216:..\..\..\u8g2\u8g2\csrc/u8x8_d_max7219.c **** /*==============================*/
 217:..\..\..\u8g2\u8g2\csrc/u8x8_d_max7219.c **** 
 218:..\..\..\u8g2\u8g2\csrc/u8x8_d_max7219.c **** static const u8x8_display_info_t u8x8_max7219_16x16_display_info =
 219:..\..\..\u8g2\u8g2\csrc/u8x8_d_max7219.c **** {
 220:..\..\..\u8g2\u8g2\csrc/u8x8_d_max7219.c ****   /* chip_enable_level = */ 0,
 221:..\..\..\u8g2\u8g2\csrc/u8x8_d_max7219.c ****   /* chip_disable_level = */ 1,
 222:..\..\..\u8g2\u8g2\csrc/u8x8_d_max7219.c ****   
 223:..\..\..\u8g2\u8g2\csrc/u8x8_d_max7219.c ****   /* post_chip_enable_wait_ns = */ 100,
 224:..\..\..\u8g2\u8g2\csrc/u8x8_d_max7219.c ****   /* pre_chip_disable_wait_ns = */ 100,
 225:..\..\..\u8g2\u8g2\csrc/u8x8_d_max7219.c ****   /* reset_pulse_width_ms = */ 100, 
 226:..\..\..\u8g2\u8g2\csrc/u8x8_d_max7219.c ****   /* post_reset_wait_ms = */ 100, 
 227:..\..\..\u8g2\u8g2\csrc/u8x8_d_max7219.c ****   /* sda_setup_time_ns = */ 100,	
 228:..\..\..\u8g2\u8g2\csrc/u8x8_d_max7219.c ****   /* sck_pulse_width_ns = */ 100,	
 229:..\..\..\u8g2\u8g2\csrc/u8x8_d_max7219.c ****   /* sck_clock_hz = */ 4000000UL,	/* since Arduino 1.6.0, the SPI bus speed in Hz. Should be  10000
 230:..\..\..\u8g2\u8g2\csrc/u8x8_d_max7219.c ****   /* spi_mode = */ 0,		/* active high, rising edge */
 231:..\..\..\u8g2\u8g2\csrc/u8x8_d_max7219.c ****   /* i2c_bus_clock_100kHz = */ 4,
 232:..\..\..\u8g2\u8g2\csrc/u8x8_d_max7219.c ****   /* data_setup_time_ns = */ 40,
 233:..\..\..\u8g2\u8g2\csrc/u8x8_d_max7219.c ****   /* write_pulse_width_ns = */ 150,	
 234:..\..\..\u8g2\u8g2\csrc/u8x8_d_max7219.c ****   /* tile_width = */ 2,
 235:..\..\..\u8g2\u8g2\csrc/u8x8_d_max7219.c ****   /* tile_hight = */ 2,
 236:..\..\..\u8g2\u8g2\csrc/u8x8_d_max7219.c ****   /* default_x_offset = */ 0,
 237:..\..\..\u8g2\u8g2\csrc/u8x8_d_max7219.c ****   /* flipmode_x_offset = */ 0,
 238:..\..\..\u8g2\u8g2\csrc/u8x8_d_max7219.c ****   /* pixel_width = */ 16,
ARM GAS  C:\Users\jesse\AppData\Local\Temp\ccqo4GFk.s 			page 10


 239:..\..\..\u8g2\u8g2\csrc/u8x8_d_max7219.c ****   /* pixel_height = */ 16
 240:..\..\..\u8g2\u8g2\csrc/u8x8_d_max7219.c **** };
 241:..\..\..\u8g2\u8g2\csrc/u8x8_d_max7219.c **** 
 242:..\..\..\u8g2\u8g2\csrc/u8x8_d_max7219.c **** /*
 243:..\..\..\u8g2\u8g2\csrc/u8x8_d_max7219.c ****   Multiple page rows are not supported, so 16x16 will not work.
 244:..\..\..\u8g2\u8g2\csrc/u8x8_d_max7219.c ****   Due to the hardware structure of such displays all tiles of the display
 245:..\..\..\u8g2\u8g2\csrc/u8x8_d_max7219.c ****   must be written at once. 
 246:..\..\..\u8g2\u8g2\csrc/u8x8_d_max7219.c ****   This is not possible with the current u8g2 structure.
 247:..\..\..\u8g2\u8g2\csrc/u8x8_d_max7219.c ****   So u8x8_d_max7219_16x16 will not work.
 248:..\..\..\u8g2\u8g2\csrc/u8x8_d_max7219.c **** */
 249:..\..\..\u8g2\u8g2\csrc/u8x8_d_max7219.c **** 
 250:..\..\..\u8g2\u8g2\csrc/u8x8_d_max7219.c **** uint8_t u8x8_d_max7219_16x16(u8x8_t *u8x8, uint8_t msg, uint8_t arg_int, void *arg_ptr)
 251:..\..\..\u8g2\u8g2\csrc/u8x8_d_max7219.c **** {
 258              		.loc 1 251 0
 259              		.cfi_startproc
 260              		@ args = 0, pretend = 0, frame = 0
 261              		@ frame_needed = 0, uses_anonymous_args = 0
 262              	.LVL37:
 252:..\..\..\u8g2\u8g2\csrc/u8x8_d_max7219.c ****   switch(msg)
 263              		.loc 1 252 0
 264 0000 0A29     		cmp	r1, #10
 251:..\..\..\u8g2\u8g2\csrc/u8x8_d_max7219.c ****   switch(msg)
 265              		.loc 1 251 0
 266 0002 70B5     		push	{r4, r5, r6, lr}
 267              		.cfi_def_cfa_offset 16
 268              		.cfi_offset 4, -16
 269              		.cfi_offset 5, -12
 270              		.cfi_offset 6, -8
 271              		.cfi_offset 14, -4
 251:..\..\..\u8g2\u8g2\csrc/u8x8_d_max7219.c ****   switch(msg)
 272              		.loc 1 251 0
 273 0004 0646     		mov	r6, r0
 274              		.loc 1 252 0
 275 0006 07D0     		beq	.L31
 276 0008 0B29     		cmp	r1, #11
 277 000a 0AD0     		beq	.L32
 278 000c 0929     		cmp	r1, #9
 279 000e 0FD1     		bne	.L36
 253:..\..\..\u8g2\u8g2\csrc/u8x8_d_max7219.c ****   {
 254:..\..\..\u8g2\u8g2\csrc/u8x8_d_max7219.c ****     case U8X8_MSG_DISPLAY_SETUP_MEMORY :
 255:..\..\..\u8g2\u8g2\csrc/u8x8_d_max7219.c ****       u8x8_d_helper_display_setup_memory(u8x8, &u8x8_max7219_16x16_display_info);
 280              		.loc 1 255 0
 281 0010 0A49     		ldr	r1, .L38
 282              	.LVL38:
 283 0012 FFF7FEFF 		bl	u8x8_d_helper_display_setup_memory
 284              	.LVL39:
 256:..\..\..\u8g2\u8g2\csrc/u8x8_d_max7219.c ****       return 1;
 285              		.loc 1 256 0
 286 0016 0FE0     		b	.L34
 287              	.LVL40:
 288              	.L31:
 257:..\..\..\u8g2\u8g2\csrc/u8x8_d_max7219.c ****     case U8X8_MSG_DISPLAY_INIT:
 258:..\..\..\u8g2\u8g2\csrc/u8x8_d_max7219.c ****       u8x8_d_helper_display_init(u8x8);
 289              		.loc 1 258 0
 290 0018 FFF7FEFF 		bl	u8x8_d_helper_display_init
 291              	.LVL41:
 259:..\..\..\u8g2\u8g2\csrc/u8x8_d_max7219.c ****       u8x8_cad_SendSequence(u8x8, u8x8_d_max7219_init_seq);    
ARM GAS  C:\Users\jesse\AppData\Local\Temp\ccqo4GFk.s 			page 11


 292              		.loc 1 259 0
 293 001c 0849     		ldr	r1, .L38+4
 294 001e 3046     		mov	r0, r6
 295 0020 01E0     		b	.L37
 296              	.LVL42:
 297              	.L32:
 260:..\..\..\u8g2\u8g2\csrc/u8x8_d_max7219.c ****       return 1;
 261:..\..\..\u8g2\u8g2\csrc/u8x8_d_max7219.c ****     case U8X8_MSG_DISPLAY_SET_POWER_SAVE:
 262:..\..\..\u8g2\u8g2\csrc/u8x8_d_max7219.c ****       if ( arg_int == 0 )
 298              		.loc 1 262 0
 299 0022 1AB9     		cbnz	r2, .L35
 263:..\..\..\u8g2\u8g2\csrc/u8x8_d_max7219.c **** 	u8x8_cad_SendSequence(u8x8, u8x8_d_max7219_powersave0_seq);
 300              		.loc 1 263 0
 301 0024 0749     		ldr	r1, .L38+8
 302              	.LVL43:
 303              	.L37:
 304 0026 FFF7FEFF 		bl	u8x8_cad_SendSequence
 305              	.LVL44:
 306 002a 05E0     		b	.L34
 307              	.LVL45:
 308              	.L35:
 264:..\..\..\u8g2\u8g2\csrc/u8x8_d_max7219.c ****       else
 265:..\..\..\u8g2\u8g2\csrc/u8x8_d_max7219.c **** 	u8x8_cad_SendSequence(u8x8, u8x8_d_max7219_powersave1_seq);
 309              		.loc 1 265 0
 310 002c 0649     		ldr	r1, .L38+12
 311              	.LVL46:
 312 002e FAE7     		b	.L37
 313              	.LVL47:
 314              	.L36:
 266:..\..\..\u8g2\u8g2\csrc/u8x8_d_max7219.c ****       return 1;
 267:..\..\..\u8g2\u8g2\csrc/u8x8_d_max7219.c ****   }
 268:..\..\..\u8g2\u8g2\csrc/u8x8_d_max7219.c ****   return u8x8_d_max7219_generic(u8x8, msg, arg_int, arg_ptr);
 269:..\..\..\u8g2\u8g2\csrc/u8x8_d_max7219.c **** }
 315              		.loc 1 269 0
 316 0030 BDE87040 		pop	{r4, r5, r6, lr}
 317              		.cfi_remember_state
 318              		.cfi_restore 14
 319              		.cfi_restore 6
 320              		.cfi_restore 5
 321              		.cfi_restore 4
 322              		.cfi_def_cfa_offset 0
 268:..\..\..\u8g2\u8g2\csrc/u8x8_d_max7219.c **** }
 323              		.loc 1 268 0
 324 0034 FFF7FEBF 		b	u8x8_d_max7219_generic
 325              	.LVL48:
 326              	.L34:
 327              		.cfi_restore_state
 328              		.loc 1 269 0
 329 0038 0120     		movs	r0, #1
 330 003a 70BD     		pop	{r4, r5, r6, pc}
 331              	.LVL49:
 332              	.L39:
 333              		.align	2
 334              	.L38:
 335 003c 9C000000 		.word	.LANCHOR0+156
 336 0040 18000000 		.word	.LANCHOR0+24
 337 0044 73000000 		.word	.LANCHOR0+115
ARM GAS  C:\Users\jesse\AppData\Local\Temp\ccqo4GFk.s 			page 12


 338 0048 86000000 		.word	.LANCHOR0+134
 339              		.cfi_endproc
 340              	.LFE2:
 341              		.size	u8x8_d_max7219_16x16, .-u8x8_d_max7219_16x16
 342              		.section	.text.u8x8_d_max7219_8x8,"ax",%progbits
 343              		.align	1
 344              		.global	u8x8_d_max7219_8x8
 345              		.thumb
 346              		.thumb_func
 347              		.type	u8x8_d_max7219_8x8, %function
 348              	u8x8_d_max7219_8x8:
 349              	.LFB3:
 270:..\..\..\u8g2\u8g2\csrc/u8x8_d_max7219.c **** 
 271:..\..\..\u8g2\u8g2\csrc/u8x8_d_max7219.c **** /*==============================*/
 272:..\..\..\u8g2\u8g2\csrc/u8x8_d_max7219.c **** 
 273:..\..\..\u8g2\u8g2\csrc/u8x8_d_max7219.c **** static const u8x8_display_info_t u8x8_max7219_8x8_display_info =
 274:..\..\..\u8g2\u8g2\csrc/u8x8_d_max7219.c **** {
 275:..\..\..\u8g2\u8g2\csrc/u8x8_d_max7219.c ****   /* chip_enable_level = */ 0,
 276:..\..\..\u8g2\u8g2\csrc/u8x8_d_max7219.c ****   /* chip_disable_level = */ 1,
 277:..\..\..\u8g2\u8g2\csrc/u8x8_d_max7219.c ****   
 278:..\..\..\u8g2\u8g2\csrc/u8x8_d_max7219.c ****   /* post_chip_enable_wait_ns = */ 100,
 279:..\..\..\u8g2\u8g2\csrc/u8x8_d_max7219.c ****   /* pre_chip_disable_wait_ns = */ 100,
 280:..\..\..\u8g2\u8g2\csrc/u8x8_d_max7219.c ****   /* reset_pulse_width_ms = */ 100, 
 281:..\..\..\u8g2\u8g2\csrc/u8x8_d_max7219.c ****   /* post_reset_wait_ms = */ 100, 
 282:..\..\..\u8g2\u8g2\csrc/u8x8_d_max7219.c ****   /* sda_setup_time_ns = */ 100,	
 283:..\..\..\u8g2\u8g2\csrc/u8x8_d_max7219.c ****   /* sck_pulse_width_ns = */ 100,	
 284:..\..\..\u8g2\u8g2\csrc/u8x8_d_max7219.c ****   /* sck_clock_hz = */ 4000000UL,	/* since Arduino 1.6.0, the SPI bus speed in Hz. Should be  10000
 285:..\..\..\u8g2\u8g2\csrc/u8x8_d_max7219.c ****   /* spi_mode = */ 0,		/* active high, rising edge */
 286:..\..\..\u8g2\u8g2\csrc/u8x8_d_max7219.c ****   /* i2c_bus_clock_100kHz = */ 4,
 287:..\..\..\u8g2\u8g2\csrc/u8x8_d_max7219.c ****   /* data_setup_time_ns = */ 40,
 288:..\..\..\u8g2\u8g2\csrc/u8x8_d_max7219.c ****   /* write_pulse_width_ns = */ 150,	
 289:..\..\..\u8g2\u8g2\csrc/u8x8_d_max7219.c ****   /* tile_width = */ 1,
 290:..\..\..\u8g2\u8g2\csrc/u8x8_d_max7219.c ****   /* tile_hight = */ 1,
 291:..\..\..\u8g2\u8g2\csrc/u8x8_d_max7219.c ****   /* default_x_offset = */ 0,
 292:..\..\..\u8g2\u8g2\csrc/u8x8_d_max7219.c ****   /* flipmode_x_offset = */ 0,
 293:..\..\..\u8g2\u8g2\csrc/u8x8_d_max7219.c ****   /* pixel_width = */ 8,
 294:..\..\..\u8g2\u8g2\csrc/u8x8_d_max7219.c ****   /* pixel_height = */ 8
 295:..\..\..\u8g2\u8g2\csrc/u8x8_d_max7219.c **** };
 296:..\..\..\u8g2\u8g2\csrc/u8x8_d_max7219.c **** 
 297:..\..\..\u8g2\u8g2\csrc/u8x8_d_max7219.c **** uint8_t u8x8_d_max7219_8x8(u8x8_t *u8x8, uint8_t msg, uint8_t arg_int, void *arg_ptr)
 298:..\..\..\u8g2\u8g2\csrc/u8x8_d_max7219.c **** {
 350              		.loc 1 298 0
 351              		.cfi_startproc
 352              		@ args = 0, pretend = 0, frame = 0
 353              		@ frame_needed = 0, uses_anonymous_args = 0
 354              	.LVL50:
 299:..\..\..\u8g2\u8g2\csrc/u8x8_d_max7219.c ****   switch(msg)
 355              		.loc 1 299 0
 356 0000 0A29     		cmp	r1, #10
 298:..\..\..\u8g2\u8g2\csrc/u8x8_d_max7219.c ****   switch(msg)
 357              		.loc 1 298 0
 358 0002 70B5     		push	{r4, r5, r6, lr}
 359              		.cfi_def_cfa_offset 16
 360              		.cfi_offset 4, -16
 361              		.cfi_offset 5, -12
 362              		.cfi_offset 6, -8
 363              		.cfi_offset 14, -4
ARM GAS  C:\Users\jesse\AppData\Local\Temp\ccqo4GFk.s 			page 13


 298:..\..\..\u8g2\u8g2\csrc/u8x8_d_max7219.c ****   switch(msg)
 364              		.loc 1 298 0
 365 0004 0646     		mov	r6, r0
 366              		.loc 1 299 0
 367 0006 07D0     		beq	.L42
 368 0008 0B29     		cmp	r1, #11
 369 000a 0AD0     		beq	.L43
 370 000c 0929     		cmp	r1, #9
 371 000e 0FD1     		bne	.L47
 300:..\..\..\u8g2\u8g2\csrc/u8x8_d_max7219.c ****   {
 301:..\..\..\u8g2\u8g2\csrc/u8x8_d_max7219.c ****     case U8X8_MSG_DISPLAY_SETUP_MEMORY :
 302:..\..\..\u8g2\u8g2\csrc/u8x8_d_max7219.c ****       u8x8_d_helper_display_setup_memory(u8x8, &u8x8_max7219_8x8_display_info);
 372              		.loc 1 302 0
 373 0010 0A49     		ldr	r1, .L49
 374              	.LVL51:
 375 0012 FFF7FEFF 		bl	u8x8_d_helper_display_setup_memory
 376              	.LVL52:
 303:..\..\..\u8g2\u8g2\csrc/u8x8_d_max7219.c ****       return 1;
 377              		.loc 1 303 0
 378 0016 0FE0     		b	.L45
 379              	.LVL53:
 380              	.L42:
 304:..\..\..\u8g2\u8g2\csrc/u8x8_d_max7219.c ****     case U8X8_MSG_DISPLAY_INIT:
 305:..\..\..\u8g2\u8g2\csrc/u8x8_d_max7219.c ****       u8x8_d_helper_display_init(u8x8);
 381              		.loc 1 305 0
 382 0018 FFF7FEFF 		bl	u8x8_d_helper_display_init
 383              	.LVL54:
 306:..\..\..\u8g2\u8g2\csrc/u8x8_d_max7219.c ****       u8x8_cad_SendSequence(u8x8, u8x8_d_max7219_init_seq);    
 384              		.loc 1 306 0
 385 001c 0849     		ldr	r1, .L49+4
 386 001e 3046     		mov	r0, r6
 387 0020 01E0     		b	.L48
 388              	.LVL55:
 389              	.L43:
 307:..\..\..\u8g2\u8g2\csrc/u8x8_d_max7219.c ****       return 1;
 308:..\..\..\u8g2\u8g2\csrc/u8x8_d_max7219.c ****     case U8X8_MSG_DISPLAY_SET_POWER_SAVE:
 309:..\..\..\u8g2\u8g2\csrc/u8x8_d_max7219.c ****       if ( arg_int == 0 )
 390              		.loc 1 309 0
 391 0022 1AB9     		cbnz	r2, .L46
 310:..\..\..\u8g2\u8g2\csrc/u8x8_d_max7219.c **** 	u8x8_cad_SendSequence(u8x8, u8x8_d_max7219_powersave0_seq);
 392              		.loc 1 310 0
 393 0024 0749     		ldr	r1, .L49+8
 394              	.LVL56:
 395              	.L48:
 396 0026 FFF7FEFF 		bl	u8x8_cad_SendSequence
 397              	.LVL57:
 398 002a 05E0     		b	.L45
 399              	.LVL58:
 400              	.L46:
 311:..\..\..\u8g2\u8g2\csrc/u8x8_d_max7219.c ****       else
 312:..\..\..\u8g2\u8g2\csrc/u8x8_d_max7219.c **** 	u8x8_cad_SendSequence(u8x8, u8x8_d_max7219_powersave1_seq);
 401              		.loc 1 312 0
 402 002c 0649     		ldr	r1, .L49+12
 403              	.LVL59:
 404 002e FAE7     		b	.L48
 405              	.LVL60:
 406              	.L47:
ARM GAS  C:\Users\jesse\AppData\Local\Temp\ccqo4GFk.s 			page 14


 313:..\..\..\u8g2\u8g2\csrc/u8x8_d_max7219.c ****       return 1;
 314:..\..\..\u8g2\u8g2\csrc/u8x8_d_max7219.c ****   }
 315:..\..\..\u8g2\u8g2\csrc/u8x8_d_max7219.c ****     return u8x8_d_max7219_generic(u8x8, msg, arg_int, arg_ptr);
 316:..\..\..\u8g2\u8g2\csrc/u8x8_d_max7219.c **** }
 407              		.loc 1 316 0
 408 0030 BDE87040 		pop	{r4, r5, r6, lr}
 409              		.cfi_remember_state
 410              		.cfi_restore 14
 411              		.cfi_restore 6
 412              		.cfi_restore 5
 413              		.cfi_restore 4
 414              		.cfi_def_cfa_offset 0
 315:..\..\..\u8g2\u8g2\csrc/u8x8_d_max7219.c **** }
 415              		.loc 1 315 0
 416 0034 FFF7FEBF 		b	u8x8_d_max7219_generic
 417              	.LVL61:
 418              	.L45:
 419              		.cfi_restore_state
 420              		.loc 1 316 0
 421 0038 0120     		movs	r0, #1
 422 003a 70BD     		pop	{r4, r5, r6, pc}
 423              	.LVL62:
 424              	.L50:
 425              		.align	2
 426              	.L49:
 427 003c B4000000 		.word	.LANCHOR0+180
 428 0040 18000000 		.word	.LANCHOR0+24
 429 0044 73000000 		.word	.LANCHOR0+115
 430 0048 86000000 		.word	.LANCHOR0+134
 431              		.cfi_endproc
 432              	.LFE3:
 433              		.size	u8x8_d_max7219_8x8, .-u8x8_d_max7219_8x8
 434              		.section	.text.u8x8_d_max7219_64x8,"ax",%progbits
 435              		.align	1
 436              		.global	u8x8_d_max7219_64x8
 437              		.thumb
 438              		.thumb_func
 439              		.type	u8x8_d_max7219_64x8, %function
 440              	u8x8_d_max7219_64x8:
 441              	.LFB4:
 317:..\..\..\u8g2\u8g2\csrc/u8x8_d_max7219.c **** 
 318:..\..\..\u8g2\u8g2\csrc/u8x8_d_max7219.c **** 
 319:..\..\..\u8g2\u8g2\csrc/u8x8_d_max7219.c **** /*==============================*/
 320:..\..\..\u8g2\u8g2\csrc/u8x8_d_max7219.c **** 
 321:..\..\..\u8g2\u8g2\csrc/u8x8_d_max7219.c **** static const uint8_t u8x8_d_max7219_8_init_seq[] = {
 322:..\..\..\u8g2\u8g2\csrc/u8x8_d_max7219.c **** 
 323:..\..\..\u8g2\u8g2\csrc/u8x8_d_max7219.c ****   U8X8_START_TRANSFER(),             	/* enable chip, delay is part of the transfer start */  
 324:..\..\..\u8g2\u8g2\csrc/u8x8_d_max7219.c ****   U8X8_CA(15, 0),				/* test mode off */
 325:..\..\..\u8g2\u8g2\csrc/u8x8_d_max7219.c ****   U8X8_CA(15, 0),				/* test mode off */
 326:..\..\..\u8g2\u8g2\csrc/u8x8_d_max7219.c ****   U8X8_CA(15, 0),				/* test mode off */
 327:..\..\..\u8g2\u8g2\csrc/u8x8_d_max7219.c ****   U8X8_CA(15, 0),				/* test mode off */
 328:..\..\..\u8g2\u8g2\csrc/u8x8_d_max7219.c ****   U8X8_CA(15, 0),				/* test mode off */
 329:..\..\..\u8g2\u8g2\csrc/u8x8_d_max7219.c ****   U8X8_CA(15, 0),				/* test mode off */
 330:..\..\..\u8g2\u8g2\csrc/u8x8_d_max7219.c ****   U8X8_CA(15, 0),				/* test mode off */
 331:..\..\..\u8g2\u8g2\csrc/u8x8_d_max7219.c ****   U8X8_CA(15, 0),				/* test mode off */
 332:..\..\..\u8g2\u8g2\csrc/u8x8_d_max7219.c ****   U8X8_END_TRANSFER(),             	/* disable chip */
 333:..\..\..\u8g2\u8g2\csrc/u8x8_d_max7219.c **** 
ARM GAS  C:\Users\jesse\AppData\Local\Temp\ccqo4GFk.s 			page 15


 334:..\..\..\u8g2\u8g2\csrc/u8x8_d_max7219.c ****   U8X8_START_TRANSFER(),             	/* enable chip, delay is part of the transfer start */  
 335:..\..\..\u8g2\u8g2\csrc/u8x8_d_max7219.c ****   U8X8_CA(12, 0),				/*  */
 336:..\..\..\u8g2\u8g2\csrc/u8x8_d_max7219.c ****   U8X8_CA(12, 0),				/*  */
 337:..\..\..\u8g2\u8g2\csrc/u8x8_d_max7219.c ****   U8X8_CA(12, 0),				/*  */
 338:..\..\..\u8g2\u8g2\csrc/u8x8_d_max7219.c ****   U8X8_CA(12, 0),				/*  */
 339:..\..\..\u8g2\u8g2\csrc/u8x8_d_max7219.c ****   U8X8_CA(12, 0),				/*  */
 340:..\..\..\u8g2\u8g2\csrc/u8x8_d_max7219.c ****   U8X8_CA(12, 0),				/*  */
 341:..\..\..\u8g2\u8g2\csrc/u8x8_d_max7219.c ****   U8X8_CA(12, 0),				/*  */
 342:..\..\..\u8g2\u8g2\csrc/u8x8_d_max7219.c ****   U8X8_CA(12, 0),				/*  */
 343:..\..\..\u8g2\u8g2\csrc/u8x8_d_max7219.c ****   U8X8_END_TRANSFER(),             	/* disable chip */
 344:..\..\..\u8g2\u8g2\csrc/u8x8_d_max7219.c ****   
 345:..\..\..\u8g2\u8g2\csrc/u8x8_d_max7219.c ****   U8X8_START_TRANSFER(),             	/* enable chip, delay is part of the transfer start */  
 346:..\..\..\u8g2\u8g2\csrc/u8x8_d_max7219.c ****   U8X8_CA(9, 0),				/* decode mode: graphics */
 347:..\..\..\u8g2\u8g2\csrc/u8x8_d_max7219.c ****   U8X8_CA(9, 0),				/* decode mode: graphics */
 348:..\..\..\u8g2\u8g2\csrc/u8x8_d_max7219.c ****   U8X8_CA(9, 0),				/* decode mode: graphics */
 349:..\..\..\u8g2\u8g2\csrc/u8x8_d_max7219.c ****   U8X8_CA(9, 0),				/* decode mode: graphics */
 350:..\..\..\u8g2\u8g2\csrc/u8x8_d_max7219.c ****   U8X8_CA(9, 0),				/* decode mode: graphics */
 351:..\..\..\u8g2\u8g2\csrc/u8x8_d_max7219.c ****   U8X8_CA(9, 0),				/* decode mode: graphics */
 352:..\..\..\u8g2\u8g2\csrc/u8x8_d_max7219.c ****   U8X8_CA(9, 0),				/* decode mode: graphics */
 353:..\..\..\u8g2\u8g2\csrc/u8x8_d_max7219.c ****   U8X8_CA(9, 0),				/* decode mode: graphics */
 354:..\..\..\u8g2\u8g2\csrc/u8x8_d_max7219.c ****   U8X8_END_TRANSFER(),             	/* disable chip */
 355:..\..\..\u8g2\u8g2\csrc/u8x8_d_max7219.c ****   
 356:..\..\..\u8g2\u8g2\csrc/u8x8_d_max7219.c ****   U8X8_START_TRANSFER(),             	/* enable chip, delay is part of the transfer start */  
 357:..\..\..\u8g2\u8g2\csrc/u8x8_d_max7219.c ****   U8X8_CA(10, 10),				/* medium high intensity */
 358:..\..\..\u8g2\u8g2\csrc/u8x8_d_max7219.c ****   U8X8_CA(10, 10),				/* medium high intensity */
 359:..\..\..\u8g2\u8g2\csrc/u8x8_d_max7219.c ****   U8X8_CA(10, 10),				/* medium high intensity */
 360:..\..\..\u8g2\u8g2\csrc/u8x8_d_max7219.c ****   U8X8_CA(10, 10),				/* medium high intensity */
 361:..\..\..\u8g2\u8g2\csrc/u8x8_d_max7219.c ****   U8X8_CA(10, 10),				/* medium high intensity */
 362:..\..\..\u8g2\u8g2\csrc/u8x8_d_max7219.c ****   U8X8_CA(10, 10),				/* medium high intensity */
 363:..\..\..\u8g2\u8g2\csrc/u8x8_d_max7219.c ****   U8X8_CA(10, 10),				/* medium high intensity */
 364:..\..\..\u8g2\u8g2\csrc/u8x8_d_max7219.c ****   U8X8_CA(10, 10),				/* medium high intensity */
 365:..\..\..\u8g2\u8g2\csrc/u8x8_d_max7219.c ****   U8X8_END_TRANSFER(),             	/* disable chip */
 366:..\..\..\u8g2\u8g2\csrc/u8x8_d_max7219.c ****   
 367:..\..\..\u8g2\u8g2\csrc/u8x8_d_max7219.c ****   U8X8_START_TRANSFER(),             	/* enable chip, delay is part of the transfer start */  
 368:..\..\..\u8g2\u8g2\csrc/u8x8_d_max7219.c ****   U8X8_CA(11, 7),				/* scan limit: display all digits (assuming a 8x8 matrix) */
 369:..\..\..\u8g2\u8g2\csrc/u8x8_d_max7219.c ****   U8X8_CA(11, 7),				/* scan limit: display all digits (assuming a 8x8 matrix) */
 370:..\..\..\u8g2\u8g2\csrc/u8x8_d_max7219.c ****   U8X8_CA(11, 7),				/* scan limit: display all digits (assuming a 8x8 matrix) */
 371:..\..\..\u8g2\u8g2\csrc/u8x8_d_max7219.c ****   U8X8_CA(11, 7),				/* scan limit: display all digits (assuming a 8x8 matrix) */
 372:..\..\..\u8g2\u8g2\csrc/u8x8_d_max7219.c ****   U8X8_CA(11, 7),				/* scan limit: display all digits (assuming a 8x8 matrix) */
 373:..\..\..\u8g2\u8g2\csrc/u8x8_d_max7219.c ****   U8X8_CA(11, 7),				/* scan limit: display all digits (assuming a 8x8 matrix) */
 374:..\..\..\u8g2\u8g2\csrc/u8x8_d_max7219.c ****   U8X8_CA(11, 7),				/* scan limit: display all digits (assuming a 8x8 matrix) */
 375:..\..\..\u8g2\u8g2\csrc/u8x8_d_max7219.c ****   U8X8_CA(11, 7),				/* scan limit: display all digits (assuming a 8x8 matrix) */
 376:..\..\..\u8g2\u8g2\csrc/u8x8_d_max7219.c ****   U8X8_END_TRANSFER(),             	/* disable chip */
 377:..\..\..\u8g2\u8g2\csrc/u8x8_d_max7219.c **** 
 378:..\..\..\u8g2\u8g2\csrc/u8x8_d_max7219.c **** 
 379:..\..\..\u8g2\u8g2\csrc/u8x8_d_max7219.c ****   //U8X8_CA(12, 0),				/* shutdown */
 380:..\..\..\u8g2\u8g2\csrc/u8x8_d_max7219.c ****     
 381:..\..\..\u8g2\u8g2\csrc/u8x8_d_max7219.c ****   //U8X8_END_TRANSFER(),             	/* disable chip */
 382:..\..\..\u8g2\u8g2\csrc/u8x8_d_max7219.c ****   U8X8_END()             			/* end of sequence */
 383:..\..\..\u8g2\u8g2\csrc/u8x8_d_max7219.c **** };
 384:..\..\..\u8g2\u8g2\csrc/u8x8_d_max7219.c **** 
 385:..\..\..\u8g2\u8g2\csrc/u8x8_d_max7219.c **** static const uint8_t u8x8_d_max7219_8_powersave0_seq[] = {
 386:..\..\..\u8g2\u8g2\csrc/u8x8_d_max7219.c ****   U8X8_START_TRANSFER(),             	/* enable chip, delay is part of the transfer start */
 387:..\..\..\u8g2\u8g2\csrc/u8x8_d_max7219.c ****   U8X8_CA(12, 1),				/* display on */
 388:..\..\..\u8g2\u8g2\csrc/u8x8_d_max7219.c ****   U8X8_CA(12, 1),				/* display on */
 389:..\..\..\u8g2\u8g2\csrc/u8x8_d_max7219.c ****   U8X8_CA(12, 1),				/* display on */
 390:..\..\..\u8g2\u8g2\csrc/u8x8_d_max7219.c ****   U8X8_CA(12, 1),				/* display on */
ARM GAS  C:\Users\jesse\AppData\Local\Temp\ccqo4GFk.s 			page 16


 391:..\..\..\u8g2\u8g2\csrc/u8x8_d_max7219.c ****   U8X8_CA(12, 1),				/* display on */
 392:..\..\..\u8g2\u8g2\csrc/u8x8_d_max7219.c ****   U8X8_CA(12, 1),				/* display on */
 393:..\..\..\u8g2\u8g2\csrc/u8x8_d_max7219.c ****   U8X8_CA(12, 1),				/* display on */
 394:..\..\..\u8g2\u8g2\csrc/u8x8_d_max7219.c ****   U8X8_CA(12, 1),				/* display on */
 395:..\..\..\u8g2\u8g2\csrc/u8x8_d_max7219.c ****   U8X8_END_TRANSFER(),             	/* disable chip */
 396:..\..\..\u8g2\u8g2\csrc/u8x8_d_max7219.c ****   U8X8_END()             			/* end of sequence */
 397:..\..\..\u8g2\u8g2\csrc/u8x8_d_max7219.c **** };
 398:..\..\..\u8g2\u8g2\csrc/u8x8_d_max7219.c **** 
 399:..\..\..\u8g2\u8g2\csrc/u8x8_d_max7219.c **** static const uint8_t u8x8_d_max7219_8_powersave1_seq[] = {
 400:..\..\..\u8g2\u8g2\csrc/u8x8_d_max7219.c ****   U8X8_START_TRANSFER(),             	/* enable chip, delay is part of the transfer start */
 401:..\..\..\u8g2\u8g2\csrc/u8x8_d_max7219.c ****   U8X8_CA(12, 0),				/* shutdown */
 402:..\..\..\u8g2\u8g2\csrc/u8x8_d_max7219.c ****   U8X8_CA(12, 0),				/* shutdown */
 403:..\..\..\u8g2\u8g2\csrc/u8x8_d_max7219.c ****   U8X8_CA(12, 0),				/* shutdown */
 404:..\..\..\u8g2\u8g2\csrc/u8x8_d_max7219.c ****   U8X8_CA(12, 0),				/* shutdown */
 405:..\..\..\u8g2\u8g2\csrc/u8x8_d_max7219.c ****   U8X8_CA(12, 0),				/* shutdown */
 406:..\..\..\u8g2\u8g2\csrc/u8x8_d_max7219.c ****   U8X8_CA(12, 0),				/* shutdown */
 407:..\..\..\u8g2\u8g2\csrc/u8x8_d_max7219.c ****   U8X8_CA(12, 0),				/* shutdown */
 408:..\..\..\u8g2\u8g2\csrc/u8x8_d_max7219.c ****   U8X8_CA(12, 0),				/* shutdown */
 409:..\..\..\u8g2\u8g2\csrc/u8x8_d_max7219.c ****   U8X8_END_TRANSFER(),             	/* disable chip */
 410:..\..\..\u8g2\u8g2\csrc/u8x8_d_max7219.c ****   U8X8_END()             			/* end of sequence */
 411:..\..\..\u8g2\u8g2\csrc/u8x8_d_max7219.c **** };
 412:..\..\..\u8g2\u8g2\csrc/u8x8_d_max7219.c **** 
 413:..\..\..\u8g2\u8g2\csrc/u8x8_d_max7219.c **** 
 414:..\..\..\u8g2\u8g2\csrc/u8x8_d_max7219.c **** static const u8x8_display_info_t u8x8_max7219_64x8_display_info =
 415:..\..\..\u8g2\u8g2\csrc/u8x8_d_max7219.c **** {
 416:..\..\..\u8g2\u8g2\csrc/u8x8_d_max7219.c ****   /* chip_enable_level = */ 0,
 417:..\..\..\u8g2\u8g2\csrc/u8x8_d_max7219.c ****   /* chip_disable_level = */ 1,
 418:..\..\..\u8g2\u8g2\csrc/u8x8_d_max7219.c ****   
 419:..\..\..\u8g2\u8g2\csrc/u8x8_d_max7219.c ****   /* post_chip_enable_wait_ns = */ 100,
 420:..\..\..\u8g2\u8g2\csrc/u8x8_d_max7219.c ****   /* pre_chip_disable_wait_ns = */ 100,
 421:..\..\..\u8g2\u8g2\csrc/u8x8_d_max7219.c ****   /* reset_pulse_width_ms = */ 100, 
 422:..\..\..\u8g2\u8g2\csrc/u8x8_d_max7219.c ****   /* post_reset_wait_ms = */ 100, 
 423:..\..\..\u8g2\u8g2\csrc/u8x8_d_max7219.c ****   /* sda_setup_time_ns = */ 100,	
 424:..\..\..\u8g2\u8g2\csrc/u8x8_d_max7219.c ****   /* sck_pulse_width_ns = */ 100,	
 425:..\..\..\u8g2\u8g2\csrc/u8x8_d_max7219.c ****   /* sck_clock_hz = */ 4000000UL,	/* since Arduino 1.6.0, the SPI bus speed in Hz. Should be  10000
 426:..\..\..\u8g2\u8g2\csrc/u8x8_d_max7219.c ****   /* spi_mode = */ 0,		/* active high, rising edge */
 427:..\..\..\u8g2\u8g2\csrc/u8x8_d_max7219.c ****   /* i2c_bus_clock_100kHz = */ 4,
 428:..\..\..\u8g2\u8g2\csrc/u8x8_d_max7219.c ****   /* data_setup_time_ns = */ 40,
 429:..\..\..\u8g2\u8g2\csrc/u8x8_d_max7219.c ****   /* write_pulse_width_ns = */ 150,	
 430:..\..\..\u8g2\u8g2\csrc/u8x8_d_max7219.c ****   /* tile_width = */ 8,
 431:..\..\..\u8g2\u8g2\csrc/u8x8_d_max7219.c ****   /* tile_hight = */ 1,
 432:..\..\..\u8g2\u8g2\csrc/u8x8_d_max7219.c ****   /* default_x_offset = */ 0,
 433:..\..\..\u8g2\u8g2\csrc/u8x8_d_max7219.c ****   /* flipmode_x_offset = */ 0,
 434:..\..\..\u8g2\u8g2\csrc/u8x8_d_max7219.c ****   /* pixel_width = */ 64,
 435:..\..\..\u8g2\u8g2\csrc/u8x8_d_max7219.c ****   /* pixel_height = */ 8
 436:..\..\..\u8g2\u8g2\csrc/u8x8_d_max7219.c **** };
 437:..\..\..\u8g2\u8g2\csrc/u8x8_d_max7219.c **** 
 438:..\..\..\u8g2\u8g2\csrc/u8x8_d_max7219.c **** uint8_t u8x8_d_max7219_64x8(u8x8_t *u8x8, uint8_t msg, uint8_t arg_int, void *arg_ptr)
 439:..\..\..\u8g2\u8g2\csrc/u8x8_d_max7219.c **** {
 442              		.loc 1 439 0
 443              		.cfi_startproc
 444              		@ args = 0, pretend = 0, frame = 0
 445              		@ frame_needed = 0, uses_anonymous_args = 0
 446              	.LVL63:
 440:..\..\..\u8g2\u8g2\csrc/u8x8_d_max7219.c ****   switch(msg)
 447              		.loc 1 440 0
 448 0000 0A29     		cmp	r1, #10
ARM GAS  C:\Users\jesse\AppData\Local\Temp\ccqo4GFk.s 			page 17


 439:..\..\..\u8g2\u8g2\csrc/u8x8_d_max7219.c ****   switch(msg)
 449              		.loc 1 439 0
 450 0002 70B5     		push	{r4, r5, r6, lr}
 451              		.cfi_def_cfa_offset 16
 452              		.cfi_offset 4, -16
 453              		.cfi_offset 5, -12
 454              		.cfi_offset 6, -8
 455              		.cfi_offset 14, -4
 439:..\..\..\u8g2\u8g2\csrc/u8x8_d_max7219.c ****   switch(msg)
 456              		.loc 1 439 0
 457 0004 0646     		mov	r6, r0
 458              		.loc 1 440 0
 459 0006 07D0     		beq	.L53
 460 0008 0B29     		cmp	r1, #11
 461 000a 0AD0     		beq	.L54
 462 000c 0929     		cmp	r1, #9
 463 000e 0FD1     		bne	.L58
 441:..\..\..\u8g2\u8g2\csrc/u8x8_d_max7219.c ****   {
 442:..\..\..\u8g2\u8g2\csrc/u8x8_d_max7219.c ****     case U8X8_MSG_DISPLAY_SETUP_MEMORY :
 443:..\..\..\u8g2\u8g2\csrc/u8x8_d_max7219.c ****       u8x8_d_helper_display_setup_memory(u8x8, &u8x8_max7219_64x8_display_info);
 464              		.loc 1 443 0
 465 0010 0A49     		ldr	r1, .L60
 466              	.LVL64:
 467 0012 FFF7FEFF 		bl	u8x8_d_helper_display_setup_memory
 468              	.LVL65:
 444:..\..\..\u8g2\u8g2\csrc/u8x8_d_max7219.c ****       return 1;
 469              		.loc 1 444 0
 470 0016 0FE0     		b	.L56
 471              	.LVL66:
 472              	.L53:
 445:..\..\..\u8g2\u8g2\csrc/u8x8_d_max7219.c ****     case U8X8_MSG_DISPLAY_INIT:
 446:..\..\..\u8g2\u8g2\csrc/u8x8_d_max7219.c ****       u8x8_d_helper_display_init(u8x8);
 473              		.loc 1 446 0
 474 0018 FFF7FEFF 		bl	u8x8_d_helper_display_init
 475              	.LVL67:
 447:..\..\..\u8g2\u8g2\csrc/u8x8_d_max7219.c ****       u8x8_cad_SendSequence(u8x8, u8x8_d_max7219_8_init_seq);    
 476              		.loc 1 447 0
 477 001c 0849     		ldr	r1, .L60+4
 478 001e 3046     		mov	r0, r6
 479 0020 01E0     		b	.L59
 480              	.LVL68:
 481              	.L54:
 448:..\..\..\u8g2\u8g2\csrc/u8x8_d_max7219.c ****       return 1;
 449:..\..\..\u8g2\u8g2\csrc/u8x8_d_max7219.c ****     case U8X8_MSG_DISPLAY_SET_POWER_SAVE:
 450:..\..\..\u8g2\u8g2\csrc/u8x8_d_max7219.c ****       if ( arg_int == 0 )
 482              		.loc 1 450 0
 483 0022 1AB9     		cbnz	r2, .L57
 451:..\..\..\u8g2\u8g2\csrc/u8x8_d_max7219.c **** 	u8x8_cad_SendSequence(u8x8, u8x8_d_max7219_8_powersave0_seq);
 484              		.loc 1 451 0
 485 0024 0749     		ldr	r1, .L60+8
 486              	.LVL69:
 487              	.L59:
 488 0026 FFF7FEFF 		bl	u8x8_cad_SendSequence
 489              	.LVL70:
 490 002a 05E0     		b	.L56
 491              	.LVL71:
 492              	.L57:
ARM GAS  C:\Users\jesse\AppData\Local\Temp\ccqo4GFk.s 			page 18


 452:..\..\..\u8g2\u8g2\csrc/u8x8_d_max7219.c ****       else
 453:..\..\..\u8g2\u8g2\csrc/u8x8_d_max7219.c **** 	u8x8_cad_SendSequence(u8x8, u8x8_d_max7219_8_powersave1_seq);
 493              		.loc 1 453 0
 494 002c 0649     		ldr	r1, .L60+12
 495              	.LVL72:
 496 002e FAE7     		b	.L59
 497              	.LVL73:
 498              	.L58:
 454:..\..\..\u8g2\u8g2\csrc/u8x8_d_max7219.c ****       return 1;
 455:..\..\..\u8g2\u8g2\csrc/u8x8_d_max7219.c ****   }
 456:..\..\..\u8g2\u8g2\csrc/u8x8_d_max7219.c ****   return u8x8_d_max7219_generic(u8x8, msg, arg_int, arg_ptr);
 457:..\..\..\u8g2\u8g2\csrc/u8x8_d_max7219.c **** }
 499              		.loc 1 457 0
 500 0030 BDE87040 		pop	{r4, r5, r6, lr}
 501              		.cfi_remember_state
 502              		.cfi_restore 14
 503              		.cfi_restore 6
 504              		.cfi_restore 5
 505              		.cfi_restore 4
 506              		.cfi_def_cfa_offset 0
 456:..\..\..\u8g2\u8g2\csrc/u8x8_d_max7219.c **** }
 507              		.loc 1 456 0
 508 0034 FFF7FEBF 		b	u8x8_d_max7219_generic
 509              	.LVL74:
 510              	.L56:
 511              		.cfi_restore_state
 512              		.loc 1 457 0
 513 0038 0120     		movs	r0, #1
 514 003a 70BD     		pop	{r4, r5, r6, pc}
 515              	.LVL75:
 516              	.L61:
 517              		.align	2
 518              	.L60:
 519 003c CC000000 		.word	.LANCHOR0+204
 520 0040 E4000000 		.word	.LANCHOR0+228
 521 0044 8F010000 		.word	.LANCHOR0+399
 522 0048 B2010000 		.word	.LANCHOR0+434
 523              		.cfi_endproc
 524              	.LFE4:
 525              		.size	u8x8_d_max7219_64x8, .-u8x8_d_max7219_64x8
 526              		.section	.rodata
 527              		.align	2
 528              		.set	.LANCHOR0,. + 0
 529              		.type	u8x8_max7219_32x8_display_info, %object
 530              		.size	u8x8_max7219_32x8_display_info, 24
 531              	u8x8_max7219_32x8_display_info:
 532 0000 00       		.byte	0
 533 0001 01       		.byte	1
 534 0002 64       		.byte	100
 535 0003 64       		.byte	100
 536 0004 64       		.byte	100
 537 0005 64       		.byte	100
 538 0006 64       		.byte	100
 539 0007 64       		.byte	100
 540 0008 00093D00 		.word	4000000
 541 000c 00       		.byte	0
 542 000d 04       		.byte	4
ARM GAS  C:\Users\jesse\AppData\Local\Temp\ccqo4GFk.s 			page 19


 543 000e 28       		.byte	40
 544 000f 96       		.byte	-106
 545 0010 04       		.byte	4
 546 0011 01       		.byte	1
 547 0012 00       		.byte	0
 548 0013 00       		.byte	0
 549 0014 2000     		.short	32
 550 0016 0800     		.short	8
 551              		.type	u8x8_d_max7219_init_seq, %object
 552              		.size	u8x8_d_max7219_init_seq, 91
 553              	u8x8_d_max7219_init_seq:
 554 0018 18       		.byte	24
 555 0019 15       		.byte	21
 556 001a 0F       		.byte	15
 557 001b 16       		.byte	22
 558 001c 00       		.byte	0
 559 001d 15       		.byte	21
 560 001e 0F       		.byte	15
 561 001f 16       		.byte	22
 562 0020 00       		.byte	0
 563 0021 15       		.byte	21
 564 0022 0F       		.byte	15
 565 0023 16       		.byte	22
 566 0024 00       		.byte	0
 567 0025 15       		.byte	21
 568 0026 0F       		.byte	15
 569 0027 16       		.byte	22
 570 0028 00       		.byte	0
 571 0029 19       		.byte	25
 572 002a 18       		.byte	24
 573 002b 15       		.byte	21
 574 002c 0C       		.byte	12
 575 002d 16       		.byte	22
 576 002e 00       		.byte	0
 577 002f 15       		.byte	21
 578 0030 0C       		.byte	12
 579 0031 16       		.byte	22
 580 0032 00       		.byte	0
 581 0033 15       		.byte	21
 582 0034 0C       		.byte	12
 583 0035 16       		.byte	22
 584 0036 00       		.byte	0
 585 0037 15       		.byte	21
 586 0038 0C       		.byte	12
 587 0039 16       		.byte	22
 588 003a 00       		.byte	0
 589 003b 19       		.byte	25
 590 003c 18       		.byte	24
 591 003d 15       		.byte	21
 592 003e 09       		.byte	9
 593 003f 16       		.byte	22
 594 0040 00       		.byte	0
 595 0041 15       		.byte	21
 596 0042 09       		.byte	9
 597 0043 16       		.byte	22
 598 0044 00       		.byte	0
 599 0045 15       		.byte	21
ARM GAS  C:\Users\jesse\AppData\Local\Temp\ccqo4GFk.s 			page 20


 600 0046 09       		.byte	9
 601 0047 16       		.byte	22
 602 0048 00       		.byte	0
 603 0049 15       		.byte	21
 604 004a 09       		.byte	9
 605 004b 16       		.byte	22
 606 004c 00       		.byte	0
 607 004d 19       		.byte	25
 608 004e 18       		.byte	24
 609 004f 15       		.byte	21
 610 0050 0A       		.byte	10
 611 0051 16       		.byte	22
 612 0052 0A       		.byte	10
 613 0053 15       		.byte	21
 614 0054 0A       		.byte	10
 615 0055 16       		.byte	22
 616 0056 0A       		.byte	10
 617 0057 15       		.byte	21
 618 0058 0A       		.byte	10
 619 0059 16       		.byte	22
 620 005a 0A       		.byte	10
 621 005b 15       		.byte	21
 622 005c 0A       		.byte	10
 623 005d 16       		.byte	22
 624 005e 0A       		.byte	10
 625 005f 19       		.byte	25
 626 0060 18       		.byte	24
 627 0061 15       		.byte	21
 628 0062 0B       		.byte	11
 629 0063 16       		.byte	22
 630 0064 07       		.byte	7
 631 0065 15       		.byte	21
 632 0066 0B       		.byte	11
 633 0067 16       		.byte	22
 634 0068 07       		.byte	7
 635 0069 15       		.byte	21
 636 006a 0B       		.byte	11
 637 006b 16       		.byte	22
 638 006c 07       		.byte	7
 639 006d 15       		.byte	21
 640 006e 0B       		.byte	11
 641 006f 16       		.byte	22
 642 0070 07       		.byte	7
 643 0071 19       		.byte	25
 644 0072 FF       		.byte	-1
 645              		.type	u8x8_d_max7219_powersave0_seq, %object
 646              		.size	u8x8_d_max7219_powersave0_seq, 19
 647              	u8x8_d_max7219_powersave0_seq:
 648 0073 18       		.byte	24
 649 0074 15       		.byte	21
 650 0075 0C       		.byte	12
 651 0076 16       		.byte	22
 652 0077 01       		.byte	1
 653 0078 15       		.byte	21
 654 0079 0C       		.byte	12
 655 007a 16       		.byte	22
 656 007b 01       		.byte	1
ARM GAS  C:\Users\jesse\AppData\Local\Temp\ccqo4GFk.s 			page 21


 657 007c 15       		.byte	21
 658 007d 0C       		.byte	12
 659 007e 16       		.byte	22
 660 007f 01       		.byte	1
 661 0080 15       		.byte	21
 662 0081 0C       		.byte	12
 663 0082 16       		.byte	22
 664 0083 01       		.byte	1
 665 0084 19       		.byte	25
 666 0085 FF       		.byte	-1
 667              		.type	u8x8_d_max7219_powersave1_seq, %object
 668              		.size	u8x8_d_max7219_powersave1_seq, 19
 669              	u8x8_d_max7219_powersave1_seq:
 670 0086 18       		.byte	24
 671 0087 15       		.byte	21
 672 0088 0C       		.byte	12
 673 0089 16       		.byte	22
 674 008a 00       		.byte	0
 675 008b 15       		.byte	21
 676 008c 0C       		.byte	12
 677 008d 16       		.byte	22
 678 008e 00       		.byte	0
 679 008f 15       		.byte	21
 680 0090 0C       		.byte	12
 681 0091 16       		.byte	22
 682 0092 00       		.byte	0
 683 0093 15       		.byte	21
 684 0094 0C       		.byte	12
 685 0095 16       		.byte	22
 686 0096 00       		.byte	0
 687 0097 19       		.byte	25
 688 0098 FF       		.byte	-1
 689 0099 000000   		.space	3
 690              		.type	u8x8_max7219_16x16_display_info, %object
 691              		.size	u8x8_max7219_16x16_display_info, 24
 692              	u8x8_max7219_16x16_display_info:
 693 009c 00       		.byte	0
 694 009d 01       		.byte	1
 695 009e 64       		.byte	100
 696 009f 64       		.byte	100
 697 00a0 64       		.byte	100
 698 00a1 64       		.byte	100
 699 00a2 64       		.byte	100
 700 00a3 64       		.byte	100
 701 00a4 00093D00 		.word	4000000
 702 00a8 00       		.byte	0
 703 00a9 04       		.byte	4
 704 00aa 28       		.byte	40
 705 00ab 96       		.byte	-106
 706 00ac 02       		.byte	2
 707 00ad 02       		.byte	2
 708 00ae 00       		.byte	0
 709 00af 00       		.byte	0
 710 00b0 1000     		.short	16
 711 00b2 1000     		.short	16
 712              		.type	u8x8_max7219_8x8_display_info, %object
 713              		.size	u8x8_max7219_8x8_display_info, 24
ARM GAS  C:\Users\jesse\AppData\Local\Temp\ccqo4GFk.s 			page 22


 714              	u8x8_max7219_8x8_display_info:
 715 00b4 00       		.byte	0
 716 00b5 01       		.byte	1
 717 00b6 64       		.byte	100
 718 00b7 64       		.byte	100
 719 00b8 64       		.byte	100
 720 00b9 64       		.byte	100
 721 00ba 64       		.byte	100
 722 00bb 64       		.byte	100
 723 00bc 00093D00 		.word	4000000
 724 00c0 00       		.byte	0
 725 00c1 04       		.byte	4
 726 00c2 28       		.byte	40
 727 00c3 96       		.byte	-106
 728 00c4 01       		.byte	1
 729 00c5 01       		.byte	1
 730 00c6 00       		.byte	0
 731 00c7 00       		.byte	0
 732 00c8 0800     		.short	8
 733 00ca 0800     		.short	8
 734              		.type	u8x8_max7219_64x8_display_info, %object
 735              		.size	u8x8_max7219_64x8_display_info, 24
 736              	u8x8_max7219_64x8_display_info:
 737 00cc 00       		.byte	0
 738 00cd 01       		.byte	1
 739 00ce 64       		.byte	100
 740 00cf 64       		.byte	100
 741 00d0 64       		.byte	100
 742 00d1 64       		.byte	100
 743 00d2 64       		.byte	100
 744 00d3 64       		.byte	100
 745 00d4 00093D00 		.word	4000000
 746 00d8 00       		.byte	0
 747 00d9 04       		.byte	4
 748 00da 28       		.byte	40
 749 00db 96       		.byte	-106
 750 00dc 08       		.byte	8
 751 00dd 01       		.byte	1
 752 00de 00       		.byte	0
 753 00df 00       		.byte	0
 754 00e0 4000     		.short	64
 755 00e2 0800     		.short	8
 756              		.type	u8x8_d_max7219_8_init_seq, %object
 757              		.size	u8x8_d_max7219_8_init_seq, 171
 758              	u8x8_d_max7219_8_init_seq:
 759 00e4 18       		.byte	24
 760 00e5 15       		.byte	21
 761 00e6 0F       		.byte	15
 762 00e7 16       		.byte	22
 763 00e8 00       		.byte	0
 764 00e9 15       		.byte	21
 765 00ea 0F       		.byte	15
 766 00eb 16       		.byte	22
 767 00ec 00       		.byte	0
 768 00ed 15       		.byte	21
 769 00ee 0F       		.byte	15
 770 00ef 16       		.byte	22
ARM GAS  C:\Users\jesse\AppData\Local\Temp\ccqo4GFk.s 			page 23


 771 00f0 00       		.byte	0
 772 00f1 15       		.byte	21
 773 00f2 0F       		.byte	15
 774 00f3 16       		.byte	22
 775 00f4 00       		.byte	0
 776 00f5 15       		.byte	21
 777 00f6 0F       		.byte	15
 778 00f7 16       		.byte	22
 779 00f8 00       		.byte	0
 780 00f9 15       		.byte	21
 781 00fa 0F       		.byte	15
 782 00fb 16       		.byte	22
 783 00fc 00       		.byte	0
 784 00fd 15       		.byte	21
 785 00fe 0F       		.byte	15
 786 00ff 16       		.byte	22
 787 0100 00       		.byte	0
 788 0101 15       		.byte	21
 789 0102 0F       		.byte	15
 790 0103 16       		.byte	22
 791 0104 00       		.byte	0
 792 0105 19       		.byte	25
 793 0106 18       		.byte	24
 794 0107 15       		.byte	21
 795 0108 0C       		.byte	12
 796 0109 16       		.byte	22
 797 010a 00       		.byte	0
 798 010b 15       		.byte	21
 799 010c 0C       		.byte	12
 800 010d 16       		.byte	22
 801 010e 00       		.byte	0
 802 010f 15       		.byte	21
 803 0110 0C       		.byte	12
 804 0111 16       		.byte	22
 805 0112 00       		.byte	0
 806 0113 15       		.byte	21
 807 0114 0C       		.byte	12
 808 0115 16       		.byte	22
 809 0116 00       		.byte	0
 810 0117 15       		.byte	21
 811 0118 0C       		.byte	12
 812 0119 16       		.byte	22
 813 011a 00       		.byte	0
 814 011b 15       		.byte	21
 815 011c 0C       		.byte	12
 816 011d 16       		.byte	22
 817 011e 00       		.byte	0
 818 011f 15       		.byte	21
 819 0120 0C       		.byte	12
 820 0121 16       		.byte	22
 821 0122 00       		.byte	0
 822 0123 15       		.byte	21
 823 0124 0C       		.byte	12
 824 0125 16       		.byte	22
 825 0126 00       		.byte	0
 826 0127 19       		.byte	25
 827 0128 18       		.byte	24
ARM GAS  C:\Users\jesse\AppData\Local\Temp\ccqo4GFk.s 			page 24


 828 0129 15       		.byte	21
 829 012a 09       		.byte	9
 830 012b 16       		.byte	22
 831 012c 00       		.byte	0
 832 012d 15       		.byte	21
 833 012e 09       		.byte	9
 834 012f 16       		.byte	22
 835 0130 00       		.byte	0
 836 0131 15       		.byte	21
 837 0132 09       		.byte	9
 838 0133 16       		.byte	22
 839 0134 00       		.byte	0
 840 0135 15       		.byte	21
 841 0136 09       		.byte	9
 842 0137 16       		.byte	22
 843 0138 00       		.byte	0
 844 0139 15       		.byte	21
 845 013a 09       		.byte	9
 846 013b 16       		.byte	22
 847 013c 00       		.byte	0
 848 013d 15       		.byte	21
 849 013e 09       		.byte	9
 850 013f 16       		.byte	22
 851 0140 00       		.byte	0
 852 0141 15       		.byte	21
 853 0142 09       		.byte	9
 854 0143 16       		.byte	22
 855 0144 00       		.byte	0
 856 0145 15       		.byte	21
 857 0146 09       		.byte	9
 858 0147 16       		.byte	22
 859 0148 00       		.byte	0
 860 0149 19       		.byte	25
 861 014a 18       		.byte	24
 862 014b 15       		.byte	21
 863 014c 0A       		.byte	10
 864 014d 16       		.byte	22
 865 014e 0A       		.byte	10
 866 014f 15       		.byte	21
 867 0150 0A       		.byte	10
 868 0151 16       		.byte	22
 869 0152 0A       		.byte	10
 870 0153 15       		.byte	21
 871 0154 0A       		.byte	10
 872 0155 16       		.byte	22
 873 0156 0A       		.byte	10
 874 0157 15       		.byte	21
 875 0158 0A       		.byte	10
 876 0159 16       		.byte	22
 877 015a 0A       		.byte	10
 878 015b 15       		.byte	21
 879 015c 0A       		.byte	10
 880 015d 16       		.byte	22
 881 015e 0A       		.byte	10
 882 015f 15       		.byte	21
 883 0160 0A       		.byte	10
 884 0161 16       		.byte	22
ARM GAS  C:\Users\jesse\AppData\Local\Temp\ccqo4GFk.s 			page 25


 885 0162 0A       		.byte	10
 886 0163 15       		.byte	21
 887 0164 0A       		.byte	10
 888 0165 16       		.byte	22
 889 0166 0A       		.byte	10
 890 0167 15       		.byte	21
 891 0168 0A       		.byte	10
 892 0169 16       		.byte	22
 893 016a 0A       		.byte	10
 894 016b 19       		.byte	25
 895 016c 18       		.byte	24
 896 016d 15       		.byte	21
 897 016e 0B       		.byte	11
 898 016f 16       		.byte	22
 899 0170 07       		.byte	7
 900 0171 15       		.byte	21
 901 0172 0B       		.byte	11
 902 0173 16       		.byte	22
 903 0174 07       		.byte	7
 904 0175 15       		.byte	21
 905 0176 0B       		.byte	11
 906 0177 16       		.byte	22
 907 0178 07       		.byte	7
 908 0179 15       		.byte	21
 909 017a 0B       		.byte	11
 910 017b 16       		.byte	22
 911 017c 07       		.byte	7
 912 017d 15       		.byte	21
 913 017e 0B       		.byte	11
 914 017f 16       		.byte	22
 915 0180 07       		.byte	7
 916 0181 15       		.byte	21
 917 0182 0B       		.byte	11
 918 0183 16       		.byte	22
 919 0184 07       		.byte	7
 920 0185 15       		.byte	21
 921 0186 0B       		.byte	11
 922 0187 16       		.byte	22
 923 0188 07       		.byte	7
 924 0189 15       		.byte	21
 925 018a 0B       		.byte	11
 926 018b 16       		.byte	22
 927 018c 07       		.byte	7
 928 018d 19       		.byte	25
 929 018e FF       		.byte	-1
 930              		.type	u8x8_d_max7219_8_powersave0_seq, %object
 931              		.size	u8x8_d_max7219_8_powersave0_seq, 35
 932              	u8x8_d_max7219_8_powersave0_seq:
 933 018f 18       		.byte	24
 934 0190 15       		.byte	21
 935 0191 0C       		.byte	12
 936 0192 16       		.byte	22
 937 0193 01       		.byte	1
 938 0194 15       		.byte	21
 939 0195 0C       		.byte	12
 940 0196 16       		.byte	22
 941 0197 01       		.byte	1
ARM GAS  C:\Users\jesse\AppData\Local\Temp\ccqo4GFk.s 			page 26


 942 0198 15       		.byte	21
 943 0199 0C       		.byte	12
 944 019a 16       		.byte	22
 945 019b 01       		.byte	1
 946 019c 15       		.byte	21
 947 019d 0C       		.byte	12
 948 019e 16       		.byte	22
 949 019f 01       		.byte	1
 950 01a0 15       		.byte	21
 951 01a1 0C       		.byte	12
 952 01a2 16       		.byte	22
 953 01a3 01       		.byte	1
 954 01a4 15       		.byte	21
 955 01a5 0C       		.byte	12
 956 01a6 16       		.byte	22
 957 01a7 01       		.byte	1
 958 01a8 15       		.byte	21
 959 01a9 0C       		.byte	12
 960 01aa 16       		.byte	22
 961 01ab 01       		.byte	1
 962 01ac 15       		.byte	21
 963 01ad 0C       		.byte	12
 964 01ae 16       		.byte	22
 965 01af 01       		.byte	1
 966 01b0 19       		.byte	25
 967 01b1 FF       		.byte	-1
 968              		.type	u8x8_d_max7219_8_powersave1_seq, %object
 969              		.size	u8x8_d_max7219_8_powersave1_seq, 35
 970              	u8x8_d_max7219_8_powersave1_seq:
 971 01b2 18       		.byte	24
 972 01b3 15       		.byte	21
 973 01b4 0C       		.byte	12
 974 01b5 16       		.byte	22
 975 01b6 00       		.byte	0
 976 01b7 15       		.byte	21
 977 01b8 0C       		.byte	12
 978 01b9 16       		.byte	22
 979 01ba 00       		.byte	0
 980 01bb 15       		.byte	21
 981 01bc 0C       		.byte	12
 982 01bd 16       		.byte	22
 983 01be 00       		.byte	0
 984 01bf 15       		.byte	21
 985 01c0 0C       		.byte	12
 986 01c1 16       		.byte	22
 987 01c2 00       		.byte	0
 988 01c3 15       		.byte	21
 989 01c4 0C       		.byte	12
 990 01c5 16       		.byte	22
 991 01c6 00       		.byte	0
 992 01c7 15       		.byte	21
 993 01c8 0C       		.byte	12
 994 01c9 16       		.byte	22
 995 01ca 00       		.byte	0
 996 01cb 15       		.byte	21
 997 01cc 0C       		.byte	12
 998 01cd 16       		.byte	22
ARM GAS  C:\Users\jesse\AppData\Local\Temp\ccqo4GFk.s 			page 27


 999 01ce 00       		.byte	0
 1000 01cf 15       		.byte	21
 1001 01d0 0C       		.byte	12
 1002 01d1 16       		.byte	22
 1003 01d2 00       		.byte	0
 1004 01d3 19       		.byte	25
 1005 01d4 FF       		.byte	-1
 1006              		.text
 1007              	.Letext0:
 1008              		.file 2 "c:\\program files (x86)\\cypress\\psoc creator\\4.4\\psoc creator\\import\\gnu\\arm\\5.4.
 1009              		.file 3 "c:\\program files (x86)\\cypress\\psoc creator\\4.4\\psoc creator\\import\\gnu\\arm\\5.4.
 1010              		.file 4 "..\\..\\..\\u8g2\\u8g2\\csrc\\u8x8.h"