ARM GAS  C:\Users\jesse\AppData\Local\Temp\cc1shlqY.s 			page 1


   1              		.syntax unified
   2              		.cpu cortex-m3
   3              		.fpu softvfp
   4              		.eabi_attribute 20, 1
   5              		.eabi_attribute 21, 1
   6              		.eabi_attribute 23, 3
   7              		.eabi_attribute 24, 1
   8              		.eabi_attribute 25, 1
   9              		.eabi_attribute 26, 1
  10              		.eabi_attribute 30, 4
  11              		.eabi_attribute 34, 1
  12              		.eabi_attribute 18, 4
  13              		.thumb
  14              		.syntax unified
  15              		.file	"u8x8_display.c"
  16              		.text
  17              	.Ltext0:
  18              		.cfi_sections	.debug_frame
  19              		.section	.text.u8x8_d_helper_display_setup_memory,"ax",%progbits
  20              		.align	1
  21              		.global	u8x8_d_helper_display_setup_memory
  22              		.thumb
  23              		.thumb_func
  24              		.type	u8x8_d_helper_display_setup_memory, %function
  25              	u8x8_d_helper_display_setup_memory:
  26              	.LFB0:
  27              		.file 1 "..\\..\\..\\u8g2\\u8g2\\csrc\\u8x8_display.c"
   1:..\..\..\u8g2\u8g2\csrc/u8x8_display.c **** /*
   2:..\..\..\u8g2\u8g2\csrc/u8x8_display.c ****   
   3:..\..\..\u8g2\u8g2\csrc/u8x8_display.c ****   u8x8_display.c
   4:..\..\..\u8g2\u8g2\csrc/u8x8_display.c ****   
   5:..\..\..\u8g2\u8g2\csrc/u8x8_display.c ****   Universal 8bit Graphics Library (https://github.com/olikraus/u8g2/)
   6:..\..\..\u8g2\u8g2\csrc/u8x8_display.c **** 
   7:..\..\..\u8g2\u8g2\csrc/u8x8_display.c ****   Copyright (c) 2016, olikraus@gmail.com
   8:..\..\..\u8g2\u8g2\csrc/u8x8_display.c ****   All rights reserved.
   9:..\..\..\u8g2\u8g2\csrc/u8x8_display.c **** 
  10:..\..\..\u8g2\u8g2\csrc/u8x8_display.c ****   Redistribution and use in source and binary forms, with or without modification, 
  11:..\..\..\u8g2\u8g2\csrc/u8x8_display.c ****   are permitted provided that the following conditions are met:
  12:..\..\..\u8g2\u8g2\csrc/u8x8_display.c **** 
  13:..\..\..\u8g2\u8g2\csrc/u8x8_display.c ****   * Redistributions of source code must retain the above copyright notice, this list 
  14:..\..\..\u8g2\u8g2\csrc/u8x8_display.c ****     of conditions and the following disclaimer.
  15:..\..\..\u8g2\u8g2\csrc/u8x8_display.c ****     
  16:..\..\..\u8g2\u8g2\csrc/u8x8_display.c ****   * Redistributions in binary form must reproduce the above copyright notice, this 
  17:..\..\..\u8g2\u8g2\csrc/u8x8_display.c ****     list of conditions and the following disclaimer in the documentation and/or other 
  18:..\..\..\u8g2\u8g2\csrc/u8x8_display.c ****     materials provided with the distribution.
  19:..\..\..\u8g2\u8g2\csrc/u8x8_display.c **** 
  20:..\..\..\u8g2\u8g2\csrc/u8x8_display.c ****   THIS SOFTWARE IS PROVIDED BY THE COPYRIGHT HOLDERS AND 
  21:..\..\..\u8g2\u8g2\csrc/u8x8_display.c ****   CONTRIBUTORS "AS IS" AND ANY EXPRESS OR IMPLIED WARRANTIES, 
  22:..\..\..\u8g2\u8g2\csrc/u8x8_display.c ****   INCLUDING, BUT NOT LIMITED TO, THE IMPLIED WARRANTIES OF 
  23:..\..\..\u8g2\u8g2\csrc/u8x8_display.c ****   MERCHANTABILITY AND FITNESS FOR A PARTICULAR PURPOSE ARE 
  24:..\..\..\u8g2\u8g2\csrc/u8x8_display.c ****   DISCLAIMED. IN NO EVENT SHALL THE COPYRIGHT HOLDER OR 
  25:..\..\..\u8g2\u8g2\csrc/u8x8_display.c ****   CONTRIBUTORS BE LIABLE FOR ANY DIRECT, INDIRECT, INCIDENTAL, 
  26:..\..\..\u8g2\u8g2\csrc/u8x8_display.c ****   SPECIAL, EXEMPLARY, OR CONSEQUENTIAL DAMAGES (INCLUDING, BUT 
  27:..\..\..\u8g2\u8g2\csrc/u8x8_display.c ****   NOT LIMITED TO, PROCUREMENT OF SUBSTITUTE GOODS OR SERVICES; 
  28:..\..\..\u8g2\u8g2\csrc/u8x8_display.c ****   LOSS OF USE, DATA, OR PROFITS; OR BUSINESS INTERRUPTION) HOWEVER 
  29:..\..\..\u8g2\u8g2\csrc/u8x8_display.c ****   CAUSED AND ON ANY THEORY OF LIABILITY, WHETHER IN CONTRACT, 
  30:..\..\..\u8g2\u8g2\csrc/u8x8_display.c ****   STRICT LIABILITY, OR TORT (INCLUDING NEGLIGENCE OR OTHERWISE) 
ARM GAS  C:\Users\jesse\AppData\Local\Temp\cc1shlqY.s 			page 2


  31:..\..\..\u8g2\u8g2\csrc/u8x8_display.c ****   ARISING IN ANY WAY OUT OF THE USE OF THIS SOFTWARE, EVEN IF 
  32:..\..\..\u8g2\u8g2\csrc/u8x8_display.c ****   ADVISED OF THE POSSIBILITY OF SUCH DAMAGE.  
  33:..\..\..\u8g2\u8g2\csrc/u8x8_display.c ****   
  34:..\..\..\u8g2\u8g2\csrc/u8x8_display.c ****   
  35:..\..\..\u8g2\u8g2\csrc/u8x8_display.c ****   Abstraction layer for the graphics controller.
  36:..\..\..\u8g2\u8g2\csrc/u8x8_display.c ****   Main goal is the placement of a 8x8 pixel block (tile) on the display.
  37:..\..\..\u8g2\u8g2\csrc/u8x8_display.c ****   
  38:..\..\..\u8g2\u8g2\csrc/u8x8_display.c **** */
  39:..\..\..\u8g2\u8g2\csrc/u8x8_display.c **** 
  40:..\..\..\u8g2\u8g2\csrc/u8x8_display.c **** 
  41:..\..\..\u8g2\u8g2\csrc/u8x8_display.c **** #include "u8x8.h"
  42:..\..\..\u8g2\u8g2\csrc/u8x8_display.c **** 
  43:..\..\..\u8g2\u8g2\csrc/u8x8_display.c **** 
  44:..\..\..\u8g2\u8g2\csrc/u8x8_display.c **** /*==========================================*/
  45:..\..\..\u8g2\u8g2\csrc/u8x8_display.c **** /* internal library function */
  46:..\..\..\u8g2\u8g2\csrc/u8x8_display.c **** 
  47:..\..\..\u8g2\u8g2\csrc/u8x8_display.c **** /*
  48:..\..\..\u8g2\u8g2\csrc/u8x8_display.c ****   this is a helper function for the U8X8_MSG_DISPLAY_SETUP_MEMORY function.
  49:..\..\..\u8g2\u8g2\csrc/u8x8_display.c ****   It can be called within the display callback function to carry out the usual standard tasks.
  50:..\..\..\u8g2\u8g2\csrc/u8x8_display.c ****   
  51:..\..\..\u8g2\u8g2\csrc/u8x8_display.c **** */
  52:..\..\..\u8g2\u8g2\csrc/u8x8_display.c **** void u8x8_d_helper_display_setup_memory(u8x8_t *u8x8, const u8x8_display_info_t *display_info)
  53:..\..\..\u8g2\u8g2\csrc/u8x8_display.c **** {
  28              		.loc 1 53 0
  29              		.cfi_startproc
  30              		@ args = 0, pretend = 0, frame = 0
  31              		@ frame_needed = 0, uses_anonymous_args = 0
  32              		@ link register save eliminated.
  33              	.LVL0:
  54:..\..\..\u8g2\u8g2\csrc/u8x8_display.c ****       /* 1) set display info struct */
  55:..\..\..\u8g2\u8g2\csrc/u8x8_display.c ****       u8x8->display_info = display_info;
  34              		.loc 1 55 0
  35 0000 0160     		str	r1, [r0]
  56:..\..\..\u8g2\u8g2\csrc/u8x8_display.c ****       u8x8->x_offset = u8x8->display_info->default_x_offset;
  36              		.loc 1 56 0
  37 0002 8B7C     		ldrb	r3, [r1, #18]	@ zero_extendqisi2
  38 0004 80F82230 		strb	r3, [r0, #34]
  39 0008 7047     		bx	lr
  40              		.cfi_endproc
  41              	.LFE0:
  42              		.size	u8x8_d_helper_display_setup_memory, .-u8x8_d_helper_display_setup_memory
  43              		.section	.text.u8x8_d_helper_display_init,"ax",%progbits
  44              		.align	1
  45              		.global	u8x8_d_helper_display_init
  46              		.thumb
  47              		.thumb_func
  48              		.type	u8x8_d_helper_display_init, %function
  49              	u8x8_d_helper_display_init:
  50              	.LFB1:
  57:..\..\..\u8g2\u8g2\csrc/u8x8_display.c **** }
  58:..\..\..\u8g2\u8g2\csrc/u8x8_display.c **** 
  59:..\..\..\u8g2\u8g2\csrc/u8x8_display.c **** /*
  60:..\..\..\u8g2\u8g2\csrc/u8x8_display.c ****   this is a helper function for the U8X8_MSG_DISPLAY_INIT function.
  61:..\..\..\u8g2\u8g2\csrc/u8x8_display.c ****   It can be called within the display callback function to carry out the usual standard tasks.
  62:..\..\..\u8g2\u8g2\csrc/u8x8_display.c ****   
  63:..\..\..\u8g2\u8g2\csrc/u8x8_display.c **** */
  64:..\..\..\u8g2\u8g2\csrc/u8x8_display.c **** void u8x8_d_helper_display_init(u8x8_t *u8x8)
ARM GAS  C:\Users\jesse\AppData\Local\Temp\cc1shlqY.s 			page 3


  65:..\..\..\u8g2\u8g2\csrc/u8x8_display.c **** {
  51              		.loc 1 65 0
  52              		.cfi_startproc
  53              		@ args = 0, pretend = 0, frame = 0
  54              		@ frame_needed = 0, uses_anonymous_args = 0
  55              	.LVL1:
  56 0000 38B5     		push	{r3, r4, r5, lr}
  57              		.cfi_def_cfa_offset 16
  58              		.cfi_offset 3, -16
  59              		.cfi_offset 4, -12
  60              		.cfi_offset 5, -8
  61              		.cfi_offset 14, -4
  62              		.loc 1 65 0
  63 0002 0446     		mov	r4, r0
  66:..\..\..\u8g2\u8g2\csrc/u8x8_display.c ****       /* 2) apply port directions to the GPIO lines and apply default values for the IO lines*/
  67:..\..\..\u8g2\u8g2\csrc/u8x8_display.c ****       u8x8_gpio_Init(u8x8);
  64              		.loc 1 67 0
  65 0004 0023     		movs	r3, #0
  66 0006 1A46     		mov	r2, r3
  67 0008 4569     		ldr	r5, [r0, #20]
  68 000a 2821     		movs	r1, #40
  69 000c A847     		blx	r5
  70              	.LVL2:
  68:..\..\..\u8g2\u8g2\csrc/u8x8_display.c ****       u8x8_cad_Init(u8x8);              /* this will also call U8X8_MSG_BYTE_INIT, byte init will N
  71              		.loc 1 68 0
  72 000e 0023     		movs	r3, #0
  73 0010 1A46     		mov	r2, r3
  74 0012 E568     		ldr	r5, [r4, #12]
  75 0014 1421     		movs	r1, #20
  76 0016 2046     		mov	r0, r4
  77 0018 A847     		blx	r5
  78              	.LVL3:
  69:..\..\..\u8g2\u8g2\csrc/u8x8_display.c **** 
  70:..\..\..\u8g2\u8g2\csrc/u8x8_display.c ****       /* 3) do reset */
  71:..\..\..\u8g2\u8g2\csrc/u8x8_display.c ****       u8x8_gpio_SetReset(u8x8, 1);
  79              		.loc 1 71 0
  80 001a 2046     		mov	r0, r4
  81 001c 0122     		movs	r2, #1
  82 001e 4B21     		movs	r1, #75
  83 0020 FFF7FEFF 		bl	u8x8_gpio_call
  84              	.LVL4:
  72:..\..\..\u8g2\u8g2\csrc/u8x8_display.c ****       u8x8_gpio_Delay(u8x8, U8X8_MSG_DELAY_MILLI, u8x8->display_info->reset_pulse_width_ms);
  85              		.loc 1 72 0
  86 0024 2368     		ldr	r3, [r4]
  87 0026 2046     		mov	r0, r4
  88 0028 1A79     		ldrb	r2, [r3, #4]	@ zero_extendqisi2
  89 002a 2921     		movs	r1, #41
  90 002c FFF7FEFF 		bl	u8x8_gpio_call
  91              	.LVL5:
  73:..\..\..\u8g2\u8g2\csrc/u8x8_display.c ****       u8x8_gpio_SetReset(u8x8, 0);
  92              		.loc 1 73 0
  93 0030 2046     		mov	r0, r4
  94 0032 0022     		movs	r2, #0
  95 0034 4B21     		movs	r1, #75
  96 0036 FFF7FEFF 		bl	u8x8_gpio_call
  97              	.LVL6:
  74:..\..\..\u8g2\u8g2\csrc/u8x8_display.c ****       u8x8_gpio_Delay(u8x8, U8X8_MSG_DELAY_MILLI, u8x8->display_info->reset_pulse_width_ms);
ARM GAS  C:\Users\jesse\AppData\Local\Temp\cc1shlqY.s 			page 4


  98              		.loc 1 74 0
  99 003a 2368     		ldr	r3, [r4]
 100 003c 2046     		mov	r0, r4
 101 003e 1A79     		ldrb	r2, [r3, #4]	@ zero_extendqisi2
 102 0040 2921     		movs	r1, #41
 103 0042 FFF7FEFF 		bl	u8x8_gpio_call
 104              	.LVL7:
  75:..\..\..\u8g2\u8g2\csrc/u8x8_display.c ****       u8x8_gpio_SetReset(u8x8, 1);
 105              		.loc 1 75 0
 106 0046 2046     		mov	r0, r4
 107 0048 0122     		movs	r2, #1
 108 004a 4B21     		movs	r1, #75
 109 004c FFF7FEFF 		bl	u8x8_gpio_call
 110              	.LVL8:
  76:..\..\..\u8g2\u8g2\csrc/u8x8_display.c ****       u8x8_gpio_Delay(u8x8, U8X8_MSG_DELAY_MILLI, u8x8->display_info->post_reset_wait_ms);
 111              		.loc 1 76 0
 112 0050 2368     		ldr	r3, [r4]
 113 0052 2046     		mov	r0, r4
 114 0054 5A79     		ldrb	r2, [r3, #5]	@ zero_extendqisi2
 115 0056 2921     		movs	r1, #41
  77:..\..\..\u8g2\u8g2\csrc/u8x8_display.c **** }    
 116              		.loc 1 77 0
 117 0058 BDE83840 		pop	{r3, r4, r5, lr}
 118              		.cfi_restore 14
 119              		.cfi_restore 5
 120              		.cfi_restore 4
 121              		.cfi_restore 3
 122              		.cfi_def_cfa_offset 0
 123              	.LVL9:
  76:..\..\..\u8g2\u8g2\csrc/u8x8_display.c ****       u8x8_gpio_Delay(u8x8, U8X8_MSG_DELAY_MILLI, u8x8->display_info->post_reset_wait_ms);
 124              		.loc 1 76 0
 125 005c FFF7FEBF 		b	u8x8_gpio_call
 126              	.LVL10:
 127              		.cfi_endproc
 128              	.LFE1:
 129              		.size	u8x8_d_helper_display_init, .-u8x8_d_helper_display_init
 130              		.section	.text.u8x8_DrawTile,"ax",%progbits
 131              		.align	1
 132              		.global	u8x8_DrawTile
 133              		.thumb
 134              		.thumb_func
 135              		.type	u8x8_DrawTile, %function
 136              	u8x8_DrawTile:
 137              	.LFB2:
  78:..\..\..\u8g2\u8g2\csrc/u8x8_display.c **** 
  79:..\..\..\u8g2\u8g2\csrc/u8x8_display.c **** /*==========================================*/
  80:..\..\..\u8g2\u8g2\csrc/u8x8_display.c **** /* official functions */
  81:..\..\..\u8g2\u8g2\csrc/u8x8_display.c **** 
  82:..\..\..\u8g2\u8g2\csrc/u8x8_display.c **** uint8_t u8x8_DrawTile(u8x8_t *u8x8, uint8_t x, uint8_t y, uint8_t cnt, uint8_t *tile_ptr)
  83:..\..\..\u8g2\u8g2\csrc/u8x8_display.c **** {
 138              		.loc 1 83 0
 139              		.cfi_startproc
 140              		@ args = 4, pretend = 0, frame = 8
 141              		@ frame_needed = 0, uses_anonymous_args = 0
 142              	.LVL11:
 143 0000 13B5     		push	{r0, r1, r4, lr}
 144              		.cfi_def_cfa_offset 16
ARM GAS  C:\Users\jesse\AppData\Local\Temp\cc1shlqY.s 			page 5


 145              		.cfi_offset 4, -8
 146              		.cfi_offset 14, -4
  84:..\..\..\u8g2\u8g2\csrc/u8x8_display.c ****   u8x8_tile_t tile;
  85:..\..\..\u8g2\u8g2\csrc/u8x8_display.c ****   tile.x_pos = x;
  86:..\..\..\u8g2\u8g2\csrc/u8x8_display.c ****   tile.y_pos = y;
 147              		.loc 1 86 0
 148 0002 8DF80620 		strb	r2, [sp, #6]
  87:..\..\..\u8g2\u8g2\csrc/u8x8_display.c ****   tile.cnt = cnt;
  88:..\..\..\u8g2\u8g2\csrc/u8x8_display.c ****   tile.tile_ptr = tile_ptr;
 149              		.loc 1 88 0
 150 0006 049A     		ldr	r2, [sp, #16]
 151              	.LVL12:
  87:..\..\..\u8g2\u8g2\csrc/u8x8_display.c ****   tile.cnt = cnt;
 152              		.loc 1 87 0
 153 0008 8DF80430 		strb	r3, [sp, #4]
 154              		.loc 1 88 0
 155 000c 02AB     		add	r3, sp, #8
 156              	.LVL13:
  85:..\..\..\u8g2\u8g2\csrc/u8x8_display.c ****   tile.y_pos = y;
 157              		.loc 1 85 0
 158 000e 8DF80510 		strb	r1, [sp, #5]
 159              		.loc 1 88 0
 160 0012 43F8082D 		str	r2, [r3, #-8]!
  89:..\..\..\u8g2\u8g2\csrc/u8x8_display.c ****   return u8x8->display_cb(u8x8, U8X8_MSG_DISPLAY_DRAW_TILE, 1, (void *)&tile);
 161              		.loc 1 89 0
 162 0016 8468     		ldr	r4, [r0, #8]
 163 0018 0122     		movs	r2, #1
 164 001a 0F21     		movs	r1, #15
 165              	.LVL14:
 166 001c A047     		blx	r4
 167              	.LVL15:
  90:..\..\..\u8g2\u8g2\csrc/u8x8_display.c **** }
 168              		.loc 1 90 0
 169 001e 02B0     		add	sp, sp, #8
 170              		.cfi_def_cfa_offset 8
 171              		@ sp needed
 172 0020 10BD     		pop	{r4, pc}
 173              		.cfi_endproc
 174              	.LFE2:
 175              		.size	u8x8_DrawTile, .-u8x8_DrawTile
 176              		.section	.text.u8x8_SetupMemory,"ax",%progbits
 177              		.align	1
 178              		.global	u8x8_SetupMemory
 179              		.thumb
 180              		.thumb_func
 181              		.type	u8x8_SetupMemory, %function
 182              	u8x8_SetupMemory:
 183              	.LFB3:
  91:..\..\..\u8g2\u8g2\csrc/u8x8_display.c **** 
  92:..\..\..\u8g2\u8g2\csrc/u8x8_display.c **** /* should be implemented as macro */
  93:..\..\..\u8g2\u8g2\csrc/u8x8_display.c **** void u8x8_SetupMemory(u8x8_t *u8x8)
  94:..\..\..\u8g2\u8g2\csrc/u8x8_display.c **** {
 184              		.loc 1 94 0
 185              		.cfi_startproc
 186              		@ args = 0, pretend = 0, frame = 0
 187              		@ frame_needed = 0, uses_anonymous_args = 0
 188              		@ link register save eliminated.
ARM GAS  C:\Users\jesse\AppData\Local\Temp\cc1shlqY.s 			page 6


 189              	.LVL16:
 190 0000 10B4     		push	{r4}
 191              		.cfi_def_cfa_offset 4
 192              		.cfi_offset 4, -4
  95:..\..\..\u8g2\u8g2\csrc/u8x8_display.c ****   u8x8->display_cb(u8x8, U8X8_MSG_DISPLAY_SETUP_MEMORY, 0, NULL);  
 193              		.loc 1 95 0
 194 0002 8468     		ldr	r4, [r0, #8]
 195 0004 0023     		movs	r3, #0
 196 0006 A446     		mov	ip, r4
 197 0008 1A46     		mov	r2, r3
 198 000a 0921     		movs	r1, #9
  96:..\..\..\u8g2\u8g2\csrc/u8x8_display.c **** }
 199              		.loc 1 96 0
 200 000c 10BC     		pop	{r4}
 201              		.cfi_restore 4
 202              		.cfi_def_cfa_offset 0
  95:..\..\..\u8g2\u8g2\csrc/u8x8_display.c ****   u8x8->display_cb(u8x8, U8X8_MSG_DISPLAY_SETUP_MEMORY, 0, NULL);  
 203              		.loc 1 95 0
 204 000e 6047     		bx	ip
 205              	.LVL17:
 206              		.cfi_endproc
 207              	.LFE3:
 208              		.size	u8x8_SetupMemory, .-u8x8_SetupMemory
 209              		.section	.text.u8x8_InitInterface,"ax",%progbits
 210              		.align	1
 211              		.global	u8x8_InitInterface
 212              		.thumb
 213              		.thumb_func
 214              		.type	u8x8_InitInterface, %function
 215              	u8x8_InitInterface:
 216              	.LFB4:
  97:..\..\..\u8g2\u8g2\csrc/u8x8_display.c **** 
  98:..\..\..\u8g2\u8g2\csrc/u8x8_display.c **** /*
  99:..\..\..\u8g2\u8g2\csrc/u8x8_display.c ****   This will just init the display interface, compared to InitDisplay, it will not issue a reset and
 100:..\..\..\u8g2\u8g2\csrc/u8x8_display.c ****   Comparison:
 101:..\..\..\u8g2\u8g2\csrc/u8x8_display.c ****   Call                                                  u8x8_InitInterface              u8x8_InitDi
 102:..\..\..\u8g2\u8g2\csrc/u8x8_display.c ****   Init Interface                                                yes                                
 103:..\..\..\u8g2\u8g2\csrc/u8x8_display.c ****   Reset Display                                                 no                                 
 104:..\..\..\u8g2\u8g2\csrc/u8x8_display.c ****   Upload Display Init Code                              no                                      yes
 105:..\..\..\u8g2\u8g2\csrc/u8x8_display.c **** 
 106:..\..\..\u8g2\u8g2\csrc/u8x8_display.c ****   u8x8_InitInterface() is an alternative function to u8x8_InitDisplay(). Do not call both.
 107:..\..\..\u8g2\u8g2\csrc/u8x8_display.c ****   
 108:..\..\..\u8g2\u8g2\csrc/u8x8_display.c **** */
 109:..\..\..\u8g2\u8g2\csrc/u8x8_display.c **** void u8x8_InitInterface(u8x8_t *u8x8)
 110:..\..\..\u8g2\u8g2\csrc/u8x8_display.c **** {
 217              		.loc 1 110 0
 218              		.cfi_startproc
 219              		@ args = 0, pretend = 0, frame = 0
 220              		@ frame_needed = 0, uses_anonymous_args = 0
 221              	.LVL18:
 222 0000 70B5     		push	{r4, r5, r6, lr}
 223              		.cfi_def_cfa_offset 16
 224              		.cfi_offset 4, -16
 225              		.cfi_offset 5, -12
 226              		.cfi_offset 6, -8
 227              		.cfi_offset 14, -4
 228              		.loc 1 110 0
ARM GAS  C:\Users\jesse\AppData\Local\Temp\cc1shlqY.s 			page 7


 229 0002 0446     		mov	r4, r0
 111:..\..\..\u8g2\u8g2\csrc/u8x8_display.c ****   u8x8_gpio_Init(u8x8);
 230              		.loc 1 111 0
 231 0004 0023     		movs	r3, #0
 232 0006 1A46     		mov	r2, r3
 233 0008 4569     		ldr	r5, [r0, #20]
 234 000a 2821     		movs	r1, #40
 235 000c A847     		blx	r5
 236              	.LVL19:
 112:..\..\..\u8g2\u8g2\csrc/u8x8_display.c ****   u8x8_cad_Init(u8x8);              /* this will also call U8X8_MSG_BYTE_INIT, byte init will NOT c
 237              		.loc 1 112 0
 238 000e E568     		ldr	r5, [r4, #12]
 239 0010 0023     		movs	r3, #0
 240 0012 2046     		mov	r0, r4
 241 0014 AC46     		mov	ip, r5
 113:..\..\..\u8g2\u8g2\csrc/u8x8_display.c **** }
 242              		.loc 1 113 0
 243 0016 BDE87040 		pop	{r4, r5, r6, lr}
 244              		.cfi_restore 14
 245              		.cfi_restore 6
 246              		.cfi_restore 5
 247              		.cfi_restore 4
 248              		.cfi_def_cfa_offset 0
 249              	.LVL20:
 112:..\..\..\u8g2\u8g2\csrc/u8x8_display.c ****   u8x8_cad_Init(u8x8);              /* this will also call U8X8_MSG_BYTE_INIT, byte init will NOT c
 250              		.loc 1 112 0
 251 001a 1A46     		mov	r2, r3
 252 001c 1421     		movs	r1, #20
 253 001e 6047     		bx	ip
 254              	.LVL21:
 255              		.cfi_endproc
 256              	.LFE4:
 257              		.size	u8x8_InitInterface, .-u8x8_InitInterface
 258              		.section	.text.u8x8_InitDisplay,"ax",%progbits
 259              		.align	1
 260              		.global	u8x8_InitDisplay
 261              		.thumb
 262              		.thumb_func
 263              		.type	u8x8_InitDisplay, %function
 264              	u8x8_InitDisplay:
 265              	.LFB5:
 114:..\..\..\u8g2\u8g2\csrc/u8x8_display.c **** 
 115:..\..\..\u8g2\u8g2\csrc/u8x8_display.c **** /*
 116:..\..\..\u8g2\u8g2\csrc/u8x8_display.c ****   This will sent the display init message to the display.
 117:..\..\..\u8g2\u8g2\csrc/u8x8_display.c ****   The display itself will then call u8x8_d_helper_display_init() from above. This includes:
 118:..\..\..\u8g2\u8g2\csrc/u8x8_display.c ****     GPIO Init (set port directions)
 119:..\..\..\u8g2\u8g2\csrc/u8x8_display.c ****     BYTE init (part of CAD init: which may set some levels)
 120:..\..\..\u8g2\u8g2\csrc/u8x8_display.c ****     CAD init (which will set things like I2C default address)
 121:..\..\..\u8g2\u8g2\csrc/u8x8_display.c ****     Issue a reset to the display: This will usually turn off the display
 122:..\..\..\u8g2\u8g2\csrc/u8x8_display.c ****   Additonally each display will set the init code to the display, which will also turn of the displ
 123:..\..\..\u8g2\u8g2\csrc/u8x8_display.c **** 
 124:..\..\..\u8g2\u8g2\csrc/u8x8_display.c ****   Actually this procedure should be better called InitInterfaceAndDisplay, because it actually does
 125:..\..\..\u8g2\u8g2\csrc/u8x8_display.c ****   (actually u8x8_InitInterface() is not called directly but only u8x8_gpio_Init and u8x8_cad_Init w
 126:..\..\..\u8g2\u8g2\csrc/u8x8_display.c ****   in turn is called by u8x8_InitInterface())
 127:..\..\..\u8g2\u8g2\csrc/u8x8_display.c **** 
 128:..\..\..\u8g2\u8g2\csrc/u8x8_display.c **** 
 129:..\..\..\u8g2\u8g2\csrc/u8x8_display.c ****   InitDisplay is called by the Arduino begin() function 
ARM GAS  C:\Users\jesse\AppData\Local\Temp\cc1shlqY.s 			page 8


 130:..\..\..\u8g2\u8g2\csrc/u8x8_display.c **** 
 131:..\..\..\u8g2\u8g2\csrc/u8x8_display.c ****   In some cases it is not required to init the display (for example if the display is already runni
 132:..\..\..\u8g2\u8g2\csrc/u8x8_display.c ****   Then InitDisplay can be skipped, but u8x8_InitInterface()  (== u8x8_gpio_Init() and u8x8_cad_Init
 133:..\..\..\u8g2\u8g2\csrc/u8x8_display.c **** 
 134:..\..\..\u8g2\u8g2\csrc/u8x8_display.c **** */
 135:..\..\..\u8g2\u8g2\csrc/u8x8_display.c **** void u8x8_InitDisplay(u8x8_t *u8x8)
 136:..\..\..\u8g2\u8g2\csrc/u8x8_display.c **** {
 266              		.loc 1 136 0
 267              		.cfi_startproc
 268              		@ args = 0, pretend = 0, frame = 0
 269              		@ frame_needed = 0, uses_anonymous_args = 0
 270              		@ link register save eliminated.
 271              	.LVL22:
 272 0000 10B4     		push	{r4}
 273              		.cfi_def_cfa_offset 4
 274              		.cfi_offset 4, -4
 137:..\..\..\u8g2\u8g2\csrc/u8x8_display.c ****   u8x8->display_cb(u8x8, U8X8_MSG_DISPLAY_INIT, 0, NULL);       /* this will call u8x8_d_helper_dis
 275              		.loc 1 137 0
 276 0002 8468     		ldr	r4, [r0, #8]
 277 0004 0023     		movs	r3, #0
 278 0006 A446     		mov	ip, r4
 279 0008 1A46     		mov	r2, r3
 280 000a 0A21     		movs	r1, #10
 138:..\..\..\u8g2\u8g2\csrc/u8x8_display.c ****   /* u8x8->display_cb(u8x8, U8X8_MSG_DISPLAY_SET_FLIP_MODE, 0, NULL);  */ /* It would make sense to
 139:..\..\..\u8g2\u8g2\csrc/u8x8_display.c **** }
 281              		.loc 1 139 0
 282 000c 10BC     		pop	{r4}
 283              		.cfi_restore 4
 284              		.cfi_def_cfa_offset 0
 137:..\..\..\u8g2\u8g2\csrc/u8x8_display.c ****   u8x8->display_cb(u8x8, U8X8_MSG_DISPLAY_INIT, 0, NULL);       /* this will call u8x8_d_helper_dis
 285              		.loc 1 137 0
 286 000e 6047     		bx	ip
 287              	.LVL23:
 288              		.cfi_endproc
 289              	.LFE5:
 290              		.size	u8x8_InitDisplay, .-u8x8_InitDisplay
 291              		.section	.text.u8x8_SetPowerSave,"ax",%progbits
 292              		.align	1
 293              		.global	u8x8_SetPowerSave
 294              		.thumb
 295              		.thumb_func
 296              		.type	u8x8_SetPowerSave, %function
 297              	u8x8_SetPowerSave:
 298              	.LFB6:
 140:..\..\..\u8g2\u8g2\csrc/u8x8_display.c **** 
 141:..\..\..\u8g2\u8g2\csrc/u8x8_display.c **** void u8x8_SetPowerSave(u8x8_t *u8x8, uint8_t is_enable)
 142:..\..\..\u8g2\u8g2\csrc/u8x8_display.c **** {
 299              		.loc 1 142 0
 300              		.cfi_startproc
 301              		@ args = 0, pretend = 0, frame = 0
 302              		@ frame_needed = 0, uses_anonymous_args = 0
 303              		@ link register save eliminated.
 304              	.LVL24:
 305 0000 10B4     		push	{r4}
 306              		.cfi_def_cfa_offset 4
 307              		.cfi_offset 4, -4
 143:..\..\..\u8g2\u8g2\csrc/u8x8_display.c ****   u8x8->display_cb(u8x8, U8X8_MSG_DISPLAY_SET_POWER_SAVE, is_enable, NULL);  
ARM GAS  C:\Users\jesse\AppData\Local\Temp\cc1shlqY.s 			page 9


 308              		.loc 1 143 0
 309 0002 8468     		ldr	r4, [r0, #8]
 310 0004 0A46     		mov	r2, r1
 311 0006 A446     		mov	ip, r4
 312 0008 0023     		movs	r3, #0
 313 000a 0B21     		movs	r1, #11
 314              	.LVL25:
 144:..\..\..\u8g2\u8g2\csrc/u8x8_display.c **** }
 315              		.loc 1 144 0
 316 000c 10BC     		pop	{r4}
 317              		.cfi_restore 4
 318              		.cfi_def_cfa_offset 0
 143:..\..\..\u8g2\u8g2\csrc/u8x8_display.c ****   u8x8->display_cb(u8x8, U8X8_MSG_DISPLAY_SET_POWER_SAVE, is_enable, NULL);  
 319              		.loc 1 143 0
 320 000e 6047     		bx	ip
 321              	.LVL26:
 322              		.cfi_endproc
 323              	.LFE6:
 324              		.size	u8x8_SetPowerSave, .-u8x8_SetPowerSave
 325              		.section	.text.u8x8_SetFlipMode,"ax",%progbits
 326              		.align	1
 327              		.global	u8x8_SetFlipMode
 328              		.thumb
 329              		.thumb_func
 330              		.type	u8x8_SetFlipMode, %function
 331              	u8x8_SetFlipMode:
 332              	.LFB7:
 145:..\..\..\u8g2\u8g2\csrc/u8x8_display.c **** 
 146:..\..\..\u8g2\u8g2\csrc/u8x8_display.c **** void u8x8_SetFlipMode(u8x8_t *u8x8, uint8_t mode)
 147:..\..\..\u8g2\u8g2\csrc/u8x8_display.c **** {
 333              		.loc 1 147 0
 334              		.cfi_startproc
 335              		@ args = 0, pretend = 0, frame = 0
 336              		@ frame_needed = 0, uses_anonymous_args = 0
 337              		@ link register save eliminated.
 338              	.LVL27:
 339 0000 10B4     		push	{r4}
 340              		.cfi_def_cfa_offset 4
 341              		.cfi_offset 4, -4
 148:..\..\..\u8g2\u8g2\csrc/u8x8_display.c ****   u8x8->display_cb(u8x8, U8X8_MSG_DISPLAY_SET_FLIP_MODE, mode, NULL);  
 342              		.loc 1 148 0
 343 0002 8468     		ldr	r4, [r0, #8]
 344 0004 0A46     		mov	r2, r1
 345 0006 A446     		mov	ip, r4
 346 0008 0023     		movs	r3, #0
 347 000a 0D21     		movs	r1, #13
 348              	.LVL28:
 149:..\..\..\u8g2\u8g2\csrc/u8x8_display.c **** }
 349              		.loc 1 149 0
 350 000c 10BC     		pop	{r4}
 351              		.cfi_restore 4
 352              		.cfi_def_cfa_offset 0
 148:..\..\..\u8g2\u8g2\csrc/u8x8_display.c ****   u8x8->display_cb(u8x8, U8X8_MSG_DISPLAY_SET_FLIP_MODE, mode, NULL);  
 353              		.loc 1 148 0
 354 000e 6047     		bx	ip
 355              	.LVL29:
 356              		.cfi_endproc
ARM GAS  C:\Users\jesse\AppData\Local\Temp\cc1shlqY.s 			page 10


 357              	.LFE7:
 358              		.size	u8x8_SetFlipMode, .-u8x8_SetFlipMode
 359              		.section	.text.u8x8_SetContrast,"ax",%progbits
 360              		.align	1
 361              		.global	u8x8_SetContrast
 362              		.thumb
 363              		.thumb_func
 364              		.type	u8x8_SetContrast, %function
 365              	u8x8_SetContrast:
 366              	.LFB8:
 150:..\..\..\u8g2\u8g2\csrc/u8x8_display.c **** 
 151:..\..\..\u8g2\u8g2\csrc/u8x8_display.c **** void u8x8_SetContrast(u8x8_t *u8x8, uint8_t value)
 152:..\..\..\u8g2\u8g2\csrc/u8x8_display.c **** {
 367              		.loc 1 152 0
 368              		.cfi_startproc
 369              		@ args = 0, pretend = 0, frame = 0
 370              		@ frame_needed = 0, uses_anonymous_args = 0
 371              		@ link register save eliminated.
 372              	.LVL30:
 373 0000 10B4     		push	{r4}
 374              		.cfi_def_cfa_offset 4
 375              		.cfi_offset 4, -4
 153:..\..\..\u8g2\u8g2\csrc/u8x8_display.c ****   u8x8->display_cb(u8x8, U8X8_MSG_DISPLAY_SET_CONTRAST, value, NULL);  
 376              		.loc 1 153 0
 377 0002 8468     		ldr	r4, [r0, #8]
 378 0004 0A46     		mov	r2, r1
 379 0006 A446     		mov	ip, r4
 380 0008 0023     		movs	r3, #0
 381 000a 0E21     		movs	r1, #14
 382              	.LVL31:
 154:..\..\..\u8g2\u8g2\csrc/u8x8_display.c **** }
 383              		.loc 1 154 0
 384 000c 10BC     		pop	{r4}
 385              		.cfi_restore 4
 386              		.cfi_def_cfa_offset 0
 153:..\..\..\u8g2\u8g2\csrc/u8x8_display.c ****   u8x8->display_cb(u8x8, U8X8_MSG_DISPLAY_SET_CONTRAST, value, NULL);  
 387              		.loc 1 153 0
 388 000e 6047     		bx	ip
 389              	.LVL32:
 390              		.cfi_endproc
 391              	.LFE8:
 392              		.size	u8x8_SetContrast, .-u8x8_SetContrast
 393              		.section	.text.u8x8_RefreshDisplay,"ax",%progbits
 394              		.align	1
 395              		.global	u8x8_RefreshDisplay
 396              		.thumb
 397              		.thumb_func
 398              		.type	u8x8_RefreshDisplay, %function
 399              	u8x8_RefreshDisplay:
 400              	.LFB9:
 155:..\..\..\u8g2\u8g2\csrc/u8x8_display.c **** 
 156:..\..\..\u8g2\u8g2\csrc/u8x8_display.c **** void u8x8_RefreshDisplay(u8x8_t *u8x8)
 157:..\..\..\u8g2\u8g2\csrc/u8x8_display.c **** {
 401              		.loc 1 157 0
 402              		.cfi_startproc
 403              		@ args = 0, pretend = 0, frame = 0
 404              		@ frame_needed = 0, uses_anonymous_args = 0
ARM GAS  C:\Users\jesse\AppData\Local\Temp\cc1shlqY.s 			page 11


 405              		@ link register save eliminated.
 406              	.LVL33:
 407 0000 10B4     		push	{r4}
 408              		.cfi_def_cfa_offset 4
 409              		.cfi_offset 4, -4
 158:..\..\..\u8g2\u8g2\csrc/u8x8_display.c ****   u8x8->display_cb(u8x8, U8X8_MSG_DISPLAY_REFRESH, 0, NULL);  
 410              		.loc 1 158 0
 411 0002 8468     		ldr	r4, [r0, #8]
 412 0004 0023     		movs	r3, #0
 413 0006 A446     		mov	ip, r4
 414 0008 1A46     		mov	r2, r3
 415 000a 1021     		movs	r1, #16
 159:..\..\..\u8g2\u8g2\csrc/u8x8_display.c **** }
 416              		.loc 1 159 0
 417 000c 10BC     		pop	{r4}
 418              		.cfi_restore 4
 419              		.cfi_def_cfa_offset 0
 158:..\..\..\u8g2\u8g2\csrc/u8x8_display.c ****   u8x8->display_cb(u8x8, U8X8_MSG_DISPLAY_REFRESH, 0, NULL);  
 420              		.loc 1 158 0
 421 000e 6047     		bx	ip
 422              	.LVL34:
 423              		.cfi_endproc
 424              	.LFE9:
 425              		.size	u8x8_RefreshDisplay, .-u8x8_RefreshDisplay
 426              		.section	.text.u8x8_ClearDisplayWithTile,"ax",%progbits
 427              		.align	1
 428              		.global	u8x8_ClearDisplayWithTile
 429              		.thumb
 430              		.thumb_func
 431              		.type	u8x8_ClearDisplayWithTile, %function
 432              	u8x8_ClearDisplayWithTile:
 433              	.LFB10:
 160:..\..\..\u8g2\u8g2\csrc/u8x8_display.c **** 
 161:..\..\..\u8g2\u8g2\csrc/u8x8_display.c **** void u8x8_ClearDisplayWithTile(u8x8_t *u8x8, const uint8_t *buf)
 162:..\..\..\u8g2\u8g2\csrc/u8x8_display.c **** {
 434              		.loc 1 162 0
 435              		.cfi_startproc
 436              		@ args = 0, pretend = 0, frame = 8
 437              		@ frame_needed = 0, uses_anonymous_args = 0
 438              	.LVL35:
 439 0000 73B5     		push	{r0, r1, r4, r5, r6, lr}
 440              		.cfi_def_cfa_offset 24
 441              		.cfi_offset 4, -16
 442              		.cfi_offset 5, -12
 443              		.cfi_offset 6, -8
 444              		.cfi_offset 14, -4
 445              		.loc 1 162 0
 446 0002 0446     		mov	r4, r0
 163:..\..\..\u8g2\u8g2\csrc/u8x8_display.c ****   u8x8_tile_t tile;
 164:..\..\..\u8g2\u8g2\csrc/u8x8_display.c ****   uint8_t h;
 165:..\..\..\u8g2\u8g2\csrc/u8x8_display.c **** 
 166:..\..\..\u8g2\u8g2\csrc/u8x8_display.c ****   tile.x_pos = 0;
 167:..\..\..\u8g2\u8g2\csrc/u8x8_display.c ****   tile.cnt = 1;
 447              		.loc 1 167 0
 448 0004 0122     		movs	r2, #1
 449 0006 8DF80420 		strb	r2, [sp, #4]
 168:..\..\..\u8g2\u8g2\csrc/u8x8_display.c ****   tile.tile_ptr = (uint8_t *)buf;		/* tile_ptr should be const, but isn't */
ARM GAS  C:\Users\jesse\AppData\Local\Temp\cc1shlqY.s 			page 12


 169:..\..\..\u8g2\u8g2\csrc/u8x8_display.c ****   
 170:..\..\..\u8g2\u8g2\csrc/u8x8_display.c ****   h = u8x8->display_info->tile_height;
 450              		.loc 1 170 0
 451 000a 0268     		ldr	r2, [r0]
 166:..\..\..\u8g2\u8g2\csrc/u8x8_display.c ****   tile.cnt = 1;
 452              		.loc 1 166 0
 453 000c 0023     		movs	r3, #0
 454              		.loc 1 170 0
 455 000e 557C     		ldrb	r5, [r2, #17]	@ zero_extendqisi2
 456              	.LVL36:
 166:..\..\..\u8g2\u8g2\csrc/u8x8_display.c ****   tile.cnt = 1;
 457              		.loc 1 166 0
 458 0010 8DF80530 		strb	r3, [sp, #5]
 168:..\..\..\u8g2\u8g2\csrc/u8x8_display.c ****   tile.tile_ptr = (uint8_t *)buf;		/* tile_ptr should be const, but isn't */
 459              		.loc 1 168 0
 460 0014 0091     		str	r1, [sp]
 171:..\..\..\u8g2\u8g2\csrc/u8x8_display.c ****   tile.y_pos = 0;
 461              		.loc 1 171 0
 462 0016 8DF80630 		strb	r3, [sp, #6]
 463              	.LVL37:
 464              	.L12:
 172:..\..\..\u8g2\u8g2\csrc/u8x8_display.c ****   do
 173:..\..\..\u8g2\u8g2\csrc/u8x8_display.c ****   {
 174:..\..\..\u8g2\u8g2\csrc/u8x8_display.c ****     u8x8->display_cb(u8x8, U8X8_MSG_DISPLAY_DRAW_TILE, u8x8->display_info->tile_width, (void *)&til
 465              		.loc 1 174 0 discriminator 1
 466 001a 2268     		ldr	r2, [r4]
 467 001c 6B46     		mov	r3, sp
 468 001e A668     		ldr	r6, [r4, #8]
 469 0020 127C     		ldrb	r2, [r2, #16]	@ zero_extendqisi2
 470 0022 0F21     		movs	r1, #15
 471 0024 2046     		mov	r0, r4
 472 0026 B047     		blx	r6
 473              	.LVL38:
 175:..\..\..\u8g2\u8g2\csrc/u8x8_display.c ****     tile.y_pos++;
 474              		.loc 1 175 0 discriminator 1
 475 0028 9DF80630 		ldrb	r3, [sp, #6]	@ zero_extendqisi2
 476 002c 0133     		adds	r3, r3, #1
 477 002e DBB2     		uxtb	r3, r3
 176:..\..\..\u8g2\u8g2\csrc/u8x8_display.c ****   } while( tile.y_pos < h );
 478              		.loc 1 176 0 discriminator 1
 479 0030 9D42     		cmp	r5, r3
 175:..\..\..\u8g2\u8g2\csrc/u8x8_display.c ****     tile.y_pos++;
 480              		.loc 1 175 0 discriminator 1
 481 0032 8DF80630 		strb	r3, [sp, #6]
 482              		.loc 1 176 0 discriminator 1
 483 0036 F0D8     		bhi	.L12
 177:..\..\..\u8g2\u8g2\csrc/u8x8_display.c **** }
 484              		.loc 1 177 0
 485 0038 02B0     		add	sp, sp, #8
 486              		.cfi_def_cfa_offset 16
 487              		@ sp needed
 488 003a 70BD     		pop	{r4, r5, r6, pc}
 489              		.cfi_endproc
 490              	.LFE10:
 491              		.size	u8x8_ClearDisplayWithTile, .-u8x8_ClearDisplayWithTile
 492              		.section	.text.u8x8_ClearDisplay,"ax",%progbits
 493              		.align	1
ARM GAS  C:\Users\jesse\AppData\Local\Temp\cc1shlqY.s 			page 13


 494              		.global	u8x8_ClearDisplay
 495              		.thumb
 496              		.thumb_func
 497              		.type	u8x8_ClearDisplay, %function
 498              	u8x8_ClearDisplay:
 499              	.LFB11:
 178:..\..\..\u8g2\u8g2\csrc/u8x8_display.c **** 
 179:..\..\..\u8g2\u8g2\csrc/u8x8_display.c **** void u8x8_ClearDisplay(u8x8_t *u8x8)
 180:..\..\..\u8g2\u8g2\csrc/u8x8_display.c **** {
 500              		.loc 1 180 0
 501              		.cfi_startproc
 502              		@ args = 0, pretend = 0, frame = 8
 503              		@ frame_needed = 0, uses_anonymous_args = 0
 504              	.LVL39:
 505 0000 07B5     		push	{r0, r1, r2, lr}
 506              		.cfi_def_cfa_offset 16
 507              		.cfi_offset 14, -4
 181:..\..\..\u8g2\u8g2\csrc/u8x8_display.c ****   uint8_t buf[8] = { 0, 0, 0, 0, 0, 0, 0, 0 };
 508              		.loc 1 181 0
 509 0002 0023     		movs	r3, #0
 182:..\..\..\u8g2\u8g2\csrc/u8x8_display.c ****   u8x8_ClearDisplayWithTile(u8x8, buf);
 510              		.loc 1 182 0
 511 0004 6946     		mov	r1, sp
 181:..\..\..\u8g2\u8g2\csrc/u8x8_display.c ****   uint8_t buf[8] = { 0, 0, 0, 0, 0, 0, 0, 0 };
 512              		.loc 1 181 0
 513 0006 0093     		str	r3, [sp]
 514 0008 0193     		str	r3, [sp, #4]
 515              		.loc 1 182 0
 516 000a FFF7FEFF 		bl	u8x8_ClearDisplayWithTile
 517              	.LVL40:
 183:..\..\..\u8g2\u8g2\csrc/u8x8_display.c **** }
 518              		.loc 1 183 0
 519 000e 03B0     		add	sp, sp, #12
 520              		.cfi_def_cfa_offset 4
 521              		@ sp needed
 522 0010 5DF804FB 		ldr	pc, [sp], #4
 523              		.cfi_endproc
 524              	.LFE11:
 525              		.size	u8x8_ClearDisplay, .-u8x8_ClearDisplay
 526              		.section	.text.u8x8_FillDisplay,"ax",%progbits
 527              		.align	1
 528              		.global	u8x8_FillDisplay
 529              		.thumb
 530              		.thumb_func
 531              		.type	u8x8_FillDisplay, %function
 532              	u8x8_FillDisplay:
 533              	.LFB12:
 184:..\..\..\u8g2\u8g2\csrc/u8x8_display.c **** 
 185:..\..\..\u8g2\u8g2\csrc/u8x8_display.c **** void u8x8_FillDisplay(u8x8_t *u8x8)
 186:..\..\..\u8g2\u8g2\csrc/u8x8_display.c **** {
 534              		.loc 1 186 0
 535              		.cfi_startproc
 536              		@ args = 0, pretend = 0, frame = 8
 537              		@ frame_needed = 0, uses_anonymous_args = 0
 538              	.LVL41:
 539 0000 13B5     		push	{r0, r1, r4, lr}
 540              		.cfi_def_cfa_offset 16
ARM GAS  C:\Users\jesse\AppData\Local\Temp\cc1shlqY.s 			page 14


 541              		.cfi_offset 4, -8
 542              		.cfi_offset 14, -4
 543              		.loc 1 186 0
 544 0002 0446     		mov	r4, r0
 187:..\..\..\u8g2\u8g2\csrc/u8x8_display.c ****   uint8_t buf[8] = { 255, 255, 255, 255, 255, 255, 255, 255 };
 545              		.loc 1 187 0
 546 0004 6B46     		mov	r3, sp
 547 0006 054A     		ldr	r2, .L17
 548 0008 1068     		ldr	r0, [r2]	@ unaligned
 549              	.LVL42:
 550 000a 5168     		ldr	r1, [r2, #4]	@ unaligned
 551 000c 03C3     		stmia	r3!, {r0, r1}
 188:..\..\..\u8g2\u8g2\csrc/u8x8_display.c ****   u8x8_ClearDisplayWithTile(u8x8, buf);
 552              		.loc 1 188 0
 553 000e 6946     		mov	r1, sp
 554 0010 2046     		mov	r0, r4
 555 0012 FFF7FEFF 		bl	u8x8_ClearDisplayWithTile
 556              	.LVL43:
 189:..\..\..\u8g2\u8g2\csrc/u8x8_display.c **** }
 557              		.loc 1 189 0
 558 0016 02B0     		add	sp, sp, #8
 559              		.cfi_def_cfa_offset 8
 560              		@ sp needed
 561 0018 10BD     		pop	{r4, pc}
 562              	.LVL44:
 563              	.L18:
 564 001a 00BF     		.align	2
 565              	.L17:
 566 001c 00000000 		.word	.LANCHOR0
 567              		.cfi_endproc
 568              	.LFE12:
 569              		.size	u8x8_FillDisplay, .-u8x8_FillDisplay
 570              		.section	.text.u8x8_ClearLine,"ax",%progbits
 571              		.align	1
 572              		.global	u8x8_ClearLine
 573              		.thumb
 574              		.thumb_func
 575              		.type	u8x8_ClearLine, %function
 576              	u8x8_ClearLine:
 577              	.LFB13:
 190:..\..\..\u8g2\u8g2\csrc/u8x8_display.c **** 
 191:..\..\..\u8g2\u8g2\csrc/u8x8_display.c **** void u8x8_ClearLine(u8x8_t *u8x8, uint8_t line)
 192:..\..\..\u8g2\u8g2\csrc/u8x8_display.c **** {
 578              		.loc 1 192 0
 579              		.cfi_startproc
 580              		@ args = 0, pretend = 0, frame = 16
 581              		@ frame_needed = 0, uses_anonymous_args = 0
 582              	.LVL45:
 583 0000 30B5     		push	{r4, r5, lr}
 584              		.cfi_def_cfa_offset 12
 585              		.cfi_offset 4, -12
 586              		.cfi_offset 5, -8
 587              		.cfi_offset 14, -4
 193:..\..\..\u8g2\u8g2\csrc/u8x8_display.c ****   uint8_t buf[8] = { 0, 0, 0, 0, 0, 0, 0, 0 };
 194:..\..\..\u8g2\u8g2\csrc/u8x8_display.c ****   u8x8_tile_t tile;
 195:..\..\..\u8g2\u8g2\csrc/u8x8_display.c ****   if ( line < u8x8->display_info->tile_height )
 588              		.loc 1 195 0
ARM GAS  C:\Users\jesse\AppData\Local\Temp\cc1shlqY.s 			page 15


 589 0002 0268     		ldr	r2, [r0]
 192:..\..\..\u8g2\u8g2\csrc/u8x8_display.c ****   uint8_t buf[8] = { 0, 0, 0, 0, 0, 0, 0, 0 };
 590              		.loc 1 192 0
 591 0004 85B0     		sub	sp, sp, #20
 592              		.cfi_def_cfa_offset 32
 593              		.loc 1 195 0
 594 0006 557C     		ldrb	r5, [r2, #17]	@ zero_extendqisi2
 193:..\..\..\u8g2\u8g2\csrc/u8x8_display.c ****   uint8_t buf[8] = { 0, 0, 0, 0, 0, 0, 0, 0 };
 595              		.loc 1 193 0
 596 0008 0023     		movs	r3, #0
 597              		.loc 1 195 0
 598 000a 8D42     		cmp	r5, r1
 193:..\..\..\u8g2\u8g2\csrc/u8x8_display.c ****   uint8_t buf[8] = { 0, 0, 0, 0, 0, 0, 0, 0 };
 599              		.loc 1 193 0
 600 000c 0093     		str	r3, [sp]
 601 000e 0193     		str	r3, [sp, #4]
 602              		.loc 1 195 0
 603 0010 0DD9     		bls	.L19
 196:..\..\..\u8g2\u8g2\csrc/u8x8_display.c ****   {
 197:..\..\..\u8g2\u8g2\csrc/u8x8_display.c ****     tile.x_pos = 0;
 604              		.loc 1 197 0
 605 0012 8DF80D30 		strb	r3, [sp, #13]
 198:..\..\..\u8g2\u8g2\csrc/u8x8_display.c ****     tile.y_pos = line;
 199:..\..\..\u8g2\u8g2\csrc/u8x8_display.c ****     tile.cnt = 1;
 606              		.loc 1 199 0
 607 0016 0123     		movs	r3, #1
 608 0018 8DF80C30 		strb	r3, [sp, #12]
 200:..\..\..\u8g2\u8g2\csrc/u8x8_display.c ****     tile.tile_ptr = (uint8_t *)buf;		/* tile_ptr should be const, but isn't */
 609              		.loc 1 200 0
 610 001c 04AB     		add	r3, sp, #16
 198:..\..\..\u8g2\u8g2\csrc/u8x8_display.c ****     tile.y_pos = line;
 611              		.loc 1 198 0
 612 001e 8DF80E10 		strb	r1, [sp, #14]
 613              		.loc 1 200 0
 614 0022 43F808DD 		str	sp, [r3, #-8]!
 201:..\..\..\u8g2\u8g2\csrc/u8x8_display.c ****     u8x8->display_cb(u8x8, U8X8_MSG_DISPLAY_DRAW_TILE, u8x8->display_info->tile_width, (void *)&til
 615              		.loc 1 201 0
 616 0026 8468     		ldr	r4, [r0, #8]
 617 0028 127C     		ldrb	r2, [r2, #16]	@ zero_extendqisi2
 618 002a 0F21     		movs	r1, #15
 619              	.LVL46:
 620 002c A047     		blx	r4
 621              	.LVL47:
 622              	.L19:
 202:..\..\..\u8g2\u8g2\csrc/u8x8_display.c ****   }  
 203:..\..\..\u8g2\u8g2\csrc/u8x8_display.c **** }...
 623              		.loc 1 203 0
 624 002e 05B0     		add	sp, sp, #20
 625              		.cfi_def_cfa_offset 12
 626              		@ sp needed
 627 0030 30BD     		pop	{r4, r5, pc}
 628              		.cfi_endproc
 629              	.LFE13:
 630              		.size	u8x8_ClearLine, .-u8x8_ClearLine
 631              		.section	.rodata
 632              		.set	.LANCHOR0,. + 0
 633              	.LC0:
ARM GAS  C:\Users\jesse\AppData\Local\Temp\cc1shlqY.s 			page 16


 634 0000 FF       		.byte	-1
 635 0001 FF       		.byte	-1
 636 0002 FF       		.byte	-1
 637 0003 FF       		.byte	-1
 638 0004 FF       		.byte	-1
 639 0005 FF       		.byte	-1
 640 0006 FF       		.byte	-1
 641 0007 FF       		.byte	-1
 642              		.text
 643              	.Letext0:
 644              		.file 2 "c:\\program files (x86)\\cypress\\psoc creator\\4.4\\psoc creator\\import\\gnu\\arm\\5.4.
 645              		.file 3 "c:\\program files (x86)\\cypress\\psoc creator\\4.4\\psoc creator\\import\\gnu\\arm\\5.4.
 646              		.file 4 "..\\..\\..\\u8g2\\u8g2\\csrc\\u8x8.h"