ARM GAS  C:\Users\jesse\AppData\Local\Temp\ccWbVbA2.s 			page 1


   1              		.syntax unified
   2              		.cpu cortex-m3
   3              		.fpu softvfp
   4              		.eabi_attribute 20, 1
   5              		.eabi_attribute 21, 1
   6              		.eabi_attribute 23, 3
   7              		.eabi_attribute 24, 1
   8              		.eabi_attribute 25, 1
   9              		.eabi_attribute 26, 1
  10              		.eabi_attribute 30, 4
  11              		.eabi_attribute 34, 1
  12              		.eabi_attribute 18, 4
  13              		.thumb
  14              		.syntax unified
  15              		.file	"u8x8_d_ssd1318.c"
  16              		.text
  17              	.Ltext0:
  18              		.cfi_sections	.debug_frame
  19              		.section	.text.u8x8_d_ssd1318_generic,"ax",%progbits
  20              		.align	1
  21              		.thumb
  22              		.thumb_func
  23              		.type	u8x8_d_ssd1318_generic, %function
  24              	u8x8_d_ssd1318_generic:
  25              	.LFB0:
  26              		.file 1 "..\\..\\..\\u8g2\\u8g2\\csrc\\u8x8_d_ssd1318.c"
   1:..\..\..\u8g2\u8g2\csrc/u8x8_d_ssd1318.c **** /*
   2:..\..\..\u8g2\u8g2\csrc/u8x8_d_ssd1318.c **** 
   3:..\..\..\u8g2\u8g2\csrc/u8x8_d_ssd1318.c ****   u8x8_d_ssd1318.c
   4:..\..\..\u8g2\u8g2\csrc/u8x8_d_ssd1318.c **** 
   5:..\..\..\u8g2\u8g2\csrc/u8x8_d_ssd1318.c ****   Universal 8bit Graphics Library (https://github.com/olikraus/u8g2/)
   6:..\..\..\u8g2\u8g2\csrc/u8x8_d_ssd1318.c **** 
   7:..\..\..\u8g2\u8g2\csrc/u8x8_d_ssd1318.c ****   Copyright (c) 2019, olikraus@gmail.com
   8:..\..\..\u8g2\u8g2\csrc/u8x8_d_ssd1318.c ****   All rights reserved.
   9:..\..\..\u8g2\u8g2\csrc/u8x8_d_ssd1318.c **** 
  10:..\..\..\u8g2\u8g2\csrc/u8x8_d_ssd1318.c ****   Redistribution and use in source and binary forms, with or without modification, 
  11:..\..\..\u8g2\u8g2\csrc/u8x8_d_ssd1318.c ****   are permitted provided that the following conditions are met:
  12:..\..\..\u8g2\u8g2\csrc/u8x8_d_ssd1318.c **** 
  13:..\..\..\u8g2\u8g2\csrc/u8x8_d_ssd1318.c ****   * Redistributions of source code must retain the above copyright notice, this list 
  14:..\..\..\u8g2\u8g2\csrc/u8x8_d_ssd1318.c ****     of conditions and the following disclaimer.
  15:..\..\..\u8g2\u8g2\csrc/u8x8_d_ssd1318.c ****     
  16:..\..\..\u8g2\u8g2\csrc/u8x8_d_ssd1318.c ****   * Redistributions in binary form must reproduce the above copyright notice, this 
  17:..\..\..\u8g2\u8g2\csrc/u8x8_d_ssd1318.c ****     list of conditions and the following disclaimer in the documentation and/or other 
  18:..\..\..\u8g2\u8g2\csrc/u8x8_d_ssd1318.c ****     materials provided with the distribution.
  19:..\..\..\u8g2\u8g2\csrc/u8x8_d_ssd1318.c **** 
  20:..\..\..\u8g2\u8g2\csrc/u8x8_d_ssd1318.c ****   THIS SOFTWARE IS PROVIDED BY THE COPYRIGHT HOLDERS AND 
  21:..\..\..\u8g2\u8g2\csrc/u8x8_d_ssd1318.c ****   CONTRIBUTORS "AS IS" AND ANY EXPRESS OR IMPLIED WARRANTIES, 
  22:..\..\..\u8g2\u8g2\csrc/u8x8_d_ssd1318.c ****   INCLUDING, BUT NOT LIMITED TO, THE IMPLIED WARRANTIES OF 
  23:..\..\..\u8g2\u8g2\csrc/u8x8_d_ssd1318.c ****   MERCHANTABILITY AND FITNESS FOR A PARTICULAR PURPOSE ARE 
  24:..\..\..\u8g2\u8g2\csrc/u8x8_d_ssd1318.c ****   DISCLAIMED. IN NO EVENT SHALL THE COPYRIGHT HOLDER OR 
  25:..\..\..\u8g2\u8g2\csrc/u8x8_d_ssd1318.c ****   CONTRIBUTORS BE LIABLE FOR ANY DIRECT, INDIRECT, INCIDENTAL, 
  26:..\..\..\u8g2\u8g2\csrc/u8x8_d_ssd1318.c ****   SPECIAL, EXEMPLARY, OR CONSEQUENTIAL DAMAGES (INCLUDING, BUT 
  27:..\..\..\u8g2\u8g2\csrc/u8x8_d_ssd1318.c ****   NOT LIMITED TO, PROCUREMENT OF SUBSTITUTE GOODS OR SERVICES; 
  28:..\..\..\u8g2\u8g2\csrc/u8x8_d_ssd1318.c ****   LOSS OF USE, DATA, OR PROFITS; OR BUSINESS INTERRUPTION) HOWEVER 
  29:..\..\..\u8g2\u8g2\csrc/u8x8_d_ssd1318.c ****   CAUSED AND ON ANY THEORY OF LIABILITY, WHETHER IN CONTRACT, 
  30:..\..\..\u8g2\u8g2\csrc/u8x8_d_ssd1318.c ****   STRICT LIABILITY, OR TORT (INCLUDING NEGLIGENCE OR OTHERWISE) 
  31:..\..\..\u8g2\u8g2\csrc/u8x8_d_ssd1318.c ****   ARISING IN ANY WAY OUT OF THE USE OF THIS SOFTWARE, EVEN IF 
ARM GAS  C:\Users\jesse\AppData\Local\Temp\ccWbVbA2.s 			page 2


  32:..\..\..\u8g2\u8g2\csrc/u8x8_d_ssd1318.c ****   ADVISED OF THE POSSIBILITY OF SUCH DAMAGE.  
  33:..\..\..\u8g2\u8g2\csrc/u8x8_d_ssd1318.c **** 
  34:..\..\..\u8g2\u8g2\csrc/u8x8_d_ssd1318.c **** 
  35:..\..\..\u8g2\u8g2\csrc/u8x8_d_ssd1318.c ****   SSD1318: 128x96 OLED
  36:..\..\..\u8g2\u8g2\csrc/u8x8_d_ssd1318.c ****   
  37:..\..\..\u8g2\u8g2\csrc/u8x8_d_ssd1318.c ****   https://github.com/olikraus/u8g2/issues/784
  38:..\..\..\u8g2\u8g2\csrc/u8x8_d_ssd1318.c **** 
  39:..\..\..\u8g2\u8g2\csrc/u8x8_d_ssd1318.c **** */
  40:..\..\..\u8g2\u8g2\csrc/u8x8_d_ssd1318.c **** 
  41:..\..\..\u8g2\u8g2\csrc/u8x8_d_ssd1318.c **** 
  42:..\..\..\u8g2\u8g2\csrc/u8x8_d_ssd1318.c **** #include "u8x8.h"
  43:..\..\..\u8g2\u8g2\csrc/u8x8_d_ssd1318.c **** 
  44:..\..\..\u8g2\u8g2\csrc/u8x8_d_ssd1318.c **** 
  45:..\..\..\u8g2\u8g2\csrc/u8x8_d_ssd1318.c **** 
  46:..\..\..\u8g2\u8g2\csrc/u8x8_d_ssd1318.c **** /* with internal charge pump (icp) */
  47:..\..\..\u8g2\u8g2\csrc/u8x8_d_ssd1318.c **** static const uint8_t u8x8_d_ssd1318_128x96_icp_init_seq[] = {
  48:..\..\..\u8g2\u8g2\csrc/u8x8_d_ssd1318.c ****     
  49:..\..\..\u8g2\u8g2\csrc/u8x8_d_ssd1318.c ****   U8X8_START_TRANSFER(),             	/* enable chip, delay is part of the transfer start */
  50:..\..\..\u8g2\u8g2\csrc/u8x8_d_ssd1318.c ****   
  51:..\..\..\u8g2\u8g2\csrc/u8x8_d_ssd1318.c ****   
  52:..\..\..\u8g2\u8g2\csrc/u8x8_d_ssd1318.c ****   U8X8_CA(0x0fd, 0x012),		/* unlock */
  53:..\..\..\u8g2\u8g2\csrc/u8x8_d_ssd1318.c ****   U8X8_C(0x0ae),		                /* display off */
  54:..\..\..\u8g2\u8g2\csrc/u8x8_d_ssd1318.c ****   U8X8_CA(0x0ad, 0x0d0),		/* external or internal IREF selection */
  55:..\..\..\u8g2\u8g2\csrc/u8x8_d_ssd1318.c ****   U8X8_CA(0x0a8, 0x05f),		/* multiplex ratio, 96 duty */
  56:..\..\..\u8g2\u8g2\csrc/u8x8_d_ssd1318.c ****   U8X8_CA(0x0d3, 0x000),		/* display offset */
  57:..\..\..\u8g2\u8g2\csrc/u8x8_d_ssd1318.c ****   U8X8_CA(0x0a2, 0x000),		/* start line */
  58:..\..\..\u8g2\u8g2\csrc/u8x8_d_ssd1318.c ****   
  59:..\..\..\u8g2\u8g2\csrc/u8x8_d_ssd1318.c ****   
  60:..\..\..\u8g2\u8g2\csrc/u8x8_d_ssd1318.c ****   // four possible charge pump setting from as per sec 6.8.2 of the ssd1318 datasheet
  61:..\..\..\u8g2\u8g2\csrc/u8x8_d_ssd1318.c ****   // uncomment only one of the below for lines  
  62:..\..\..\u8g2\u8g2\csrc/u8x8_d_ssd1318.c ****   // default: 
  63:..\..\..\u8g2\u8g2\csrc/u8x8_d_ssd1318.c ****   // U8X8_CA(0x08d, 0x004, 0x0ac, 0x001),		/* Charge pump setting from sec 6.8.2 of SSD1318 datashe
  64:..\..\..\u8g2\u8g2\csrc/u8x8_d_ssd1318.c ****   // U8X8_CA(0x08d, 0x044, 0x0ac, 0x001),		/* Charge pump setting from sec 6.8.2 of SSD1318 datashe
  65:..\..\..\u8g2\u8g2\csrc/u8x8_d_ssd1318.c ****   // U8X8_CA(0x08d, 0x084, 0x0ac, 0x001),		/* Charge pump setting from sec 6.8.2 of SSD1318 datashe
  66:..\..\..\u8g2\u8g2\csrc/u8x8_d_ssd1318.c ****   U8X8_CAAA(0x08d, 0x0c4, 0x0ac, 0x001),		/* Charge pump setting from sec 6.8.2 of SSD1318 datashee
  67:..\..\..\u8g2\u8g2\csrc/u8x8_d_ssd1318.c ****   
  68:..\..\..\u8g2\u8g2\csrc/u8x8_d_ssd1318.c **** 
  69:..\..\..\u8g2\u8g2\csrc/u8x8_d_ssd1318.c ****   U8X8_C(0x0a1),				/* segment remap a0/a1*/
  70:..\..\..\u8g2\u8g2\csrc/u8x8_d_ssd1318.c ****   U8X8_C(0x0c0),				/* c0: scan dir normal, c8: reverse */
  71:..\..\..\u8g2\u8g2\csrc/u8x8_d_ssd1318.c ****   // Flipmode
  72:..\..\..\u8g2\u8g2\csrc/u8x8_d_ssd1318.c ****   // U8X8_C(0x0a0),				/* segment remap a0/a1*/
  73:..\..\..\u8g2\u8g2\csrc/u8x8_d_ssd1318.c ****   // U8X8_C(0x0c8),				/* c0: scan dir normal, c8: reverse */
  74:..\..\..\u8g2\u8g2\csrc/u8x8_d_ssd1318.c ****   
  75:..\..\..\u8g2\u8g2\csrc/u8x8_d_ssd1318.c ****   U8X8_CA(0x0da, 0x012),		/* com pin HW config, sequential com pin config (bit 4), disable left/rig
  76:..\..\..\u8g2\u8g2\csrc/u8x8_d_ssd1318.c **** 
  77:..\..\..\u8g2\u8g2\csrc/u8x8_d_ssd1318.c ****   U8X8_CA(0x081, 0x00f), 		/* value from issue 784, seems to be a little bit low... */
  78:..\..\..\u8g2\u8g2\csrc/u8x8_d_ssd1318.c ****   
  79:..\..\..\u8g2\u8g2\csrc/u8x8_d_ssd1318.c ****   
  80:..\..\..\u8g2\u8g2\csrc/u8x8_d_ssd1318.c ****   U8X8_CA(0x0d5, 0x0d1),		/* clock divide ratio (0x00=1) and oscillator frequency (0x8), value from
  81:..\..\..\u8g2\u8g2\csrc/u8x8_d_ssd1318.c ****   U8X8_CA(0x0d9, 0x022), 		/* [2] pre-charge period 0x022/f1, value from issue 784 example code */
  82:..\..\..\u8g2\u8g2\csrc/u8x8_d_ssd1318.c ****   U8X8_CA(0x0db, 0x030), 		/* vcomh deselect level, value from issue 784 example code  */  
  83:..\..\..\u8g2\u8g2\csrc/u8x8_d_ssd1318.c ****   
  84:..\..\..\u8g2\u8g2\csrc/u8x8_d_ssd1318.c ****   
  85:..\..\..\u8g2\u8g2\csrc/u8x8_d_ssd1318.c ****   //U8X8_CA(0x020, 0x000),		/* horizontal addressing mode */
  86:..\..\..\u8g2\u8g2\csrc/u8x8_d_ssd1318.c ****   //U8X8_C(0x02e),				/* Deactivate scroll */ 
  87:..\..\..\u8g2\u8g2\csrc/u8x8_d_ssd1318.c ****   
  88:..\..\..\u8g2\u8g2\csrc/u8x8_d_ssd1318.c ****   U8X8_C(0x0a4),				/* output ram to display */
ARM GAS  C:\Users\jesse\AppData\Local\Temp\ccWbVbA2.s 			page 3


  89:..\..\..\u8g2\u8g2\csrc/u8x8_d_ssd1318.c ****   U8X8_C(0x0a6),				/* none inverted normal display mode */
  90:..\..\..\u8g2\u8g2\csrc/u8x8_d_ssd1318.c ****     
  91:..\..\..\u8g2\u8g2\csrc/u8x8_d_ssd1318.c ****   U8X8_END_TRANSFER(),             	/* disable chip */
  92:..\..\..\u8g2\u8g2\csrc/u8x8_d_ssd1318.c ****   U8X8_END()             			/* end of sequence */
  93:..\..\..\u8g2\u8g2\csrc/u8x8_d_ssd1318.c **** };
  94:..\..\..\u8g2\u8g2\csrc/u8x8_d_ssd1318.c **** 
  95:..\..\..\u8g2\u8g2\csrc/u8x8_d_ssd1318.c **** 
  96:..\..\..\u8g2\u8g2\csrc/u8x8_d_ssd1318.c **** /* with external charge pump */
  97:..\..\..\u8g2\u8g2\csrc/u8x8_d_ssd1318.c **** static const uint8_t u8x8_d_ssd1318_128x96_xcp_init_seq[] = {
  98:..\..\..\u8g2\u8g2\csrc/u8x8_d_ssd1318.c ****     
  99:..\..\..\u8g2\u8g2\csrc/u8x8_d_ssd1318.c ****   U8X8_START_TRANSFER(),             	/* enable chip, delay is part of the transfer start */
 100:..\..\..\u8g2\u8g2\csrc/u8x8_d_ssd1318.c ****   
 101:..\..\..\u8g2\u8g2\csrc/u8x8_d_ssd1318.c ****   
 102:..\..\..\u8g2\u8g2\csrc/u8x8_d_ssd1318.c ****   U8X8_CA(0x0fd, 0x012),		/* unlock */
 103:..\..\..\u8g2\u8g2\csrc/u8x8_d_ssd1318.c ****   U8X8_C(0x0ae),		                /* display off */
 104:..\..\..\u8g2\u8g2\csrc/u8x8_d_ssd1318.c ****   U8X8_CA(0x0ad, 0x0d0),		/* external or internal IREF selection */
 105:..\..\..\u8g2\u8g2\csrc/u8x8_d_ssd1318.c ****   U8X8_CA(0x0a8, 0x05f),		/* multiplex ratio, 96 duty */
 106:..\..\..\u8g2\u8g2\csrc/u8x8_d_ssd1318.c ****   U8X8_CA(0x0d3, 0x000),		/* display offset */
 107:..\..\..\u8g2\u8g2\csrc/u8x8_d_ssd1318.c ****   U8X8_CA(0x0a2, 0x000),		/* start line */
 108:..\..\..\u8g2\u8g2\csrc/u8x8_d_ssd1318.c ****   
 109:..\..\..\u8g2\u8g2\csrc/u8x8_d_ssd1318.c ****   
 110:..\..\..\u8g2\u8g2\csrc/u8x8_d_ssd1318.c ****   // not sure if we have to set something for external charge pump
 111:..\..\..\u8g2\u8g2\csrc/u8x8_d_ssd1318.c ****   // ...
 112:..\..\..\u8g2\u8g2\csrc/u8x8_d_ssd1318.c ****   
 113:..\..\..\u8g2\u8g2\csrc/u8x8_d_ssd1318.c **** 
 114:..\..\..\u8g2\u8g2\csrc/u8x8_d_ssd1318.c ****   U8X8_C(0x0a1),				/* segment remap a0/a1*/
 115:..\..\..\u8g2\u8g2\csrc/u8x8_d_ssd1318.c ****   U8X8_C(0x0c0),				/* c0: scan dir normal, c8: reverse */
 116:..\..\..\u8g2\u8g2\csrc/u8x8_d_ssd1318.c ****   // Flipmode
 117:..\..\..\u8g2\u8g2\csrc/u8x8_d_ssd1318.c ****   // U8X8_C(0x0a0),				/* segment remap a0/a1*/
 118:..\..\..\u8g2\u8g2\csrc/u8x8_d_ssd1318.c ****   // U8X8_C(0x0c8),				/* c0: scan dir normal, c8: reverse */
 119:..\..\..\u8g2\u8g2\csrc/u8x8_d_ssd1318.c ****   
 120:..\..\..\u8g2\u8g2\csrc/u8x8_d_ssd1318.c ****   U8X8_CA(0x0da, 0x012),		/* com pin HW config, sequential com pin config (bit 4), disable left/rig
 121:..\..\..\u8g2\u8g2\csrc/u8x8_d_ssd1318.c **** 
 122:..\..\..\u8g2\u8g2\csrc/u8x8_d_ssd1318.c ****   U8X8_CA(0x081, 0x00f), 		/* value from issue 784, seems to be a little bit low... */
 123:..\..\..\u8g2\u8g2\csrc/u8x8_d_ssd1318.c ****   
 124:..\..\..\u8g2\u8g2\csrc/u8x8_d_ssd1318.c ****   
 125:..\..\..\u8g2\u8g2\csrc/u8x8_d_ssd1318.c ****   U8X8_CA(0x0d5, 0x0d1),		/* clock divide ratio (0x00=1) and oscillator frequency (0x8), value from
 126:..\..\..\u8g2\u8g2\csrc/u8x8_d_ssd1318.c ****   U8X8_CA(0x0d9, 0x022), 		/* [2] pre-charge period 0x022/f1, value from issue 784 example code */
 127:..\..\..\u8g2\u8g2\csrc/u8x8_d_ssd1318.c ****   U8X8_CA(0x0db, 0x030), 		/* vcomh deselect level, value from issue 784 example code  */  
 128:..\..\..\u8g2\u8g2\csrc/u8x8_d_ssd1318.c ****   
 129:..\..\..\u8g2\u8g2\csrc/u8x8_d_ssd1318.c ****   
 130:..\..\..\u8g2\u8g2\csrc/u8x8_d_ssd1318.c ****   //U8X8_CA(0x020, 0x000),		/* horizontal addressing mode */
 131:..\..\..\u8g2\u8g2\csrc/u8x8_d_ssd1318.c ****   //U8X8_C(0x02e),				/* Deactivate scroll */ 
 132:..\..\..\u8g2\u8g2\csrc/u8x8_d_ssd1318.c ****   
 133:..\..\..\u8g2\u8g2\csrc/u8x8_d_ssd1318.c ****   U8X8_C(0x0a4),				/* output ram to display */
 134:..\..\..\u8g2\u8g2\csrc/u8x8_d_ssd1318.c ****   U8X8_C(0x0a6),				/* none inverted normal display mode */
 135:..\..\..\u8g2\u8g2\csrc/u8x8_d_ssd1318.c ****     
 136:..\..\..\u8g2\u8g2\csrc/u8x8_d_ssd1318.c ****   U8X8_END_TRANSFER(),             	/* disable chip */
 137:..\..\..\u8g2\u8g2\csrc/u8x8_d_ssd1318.c ****   U8X8_END()             			/* end of sequence */
 138:..\..\..\u8g2\u8g2\csrc/u8x8_d_ssd1318.c **** };
 139:..\..\..\u8g2\u8g2\csrc/u8x8_d_ssd1318.c **** 
 140:..\..\..\u8g2\u8g2\csrc/u8x8_d_ssd1318.c **** 
 141:..\..\..\u8g2\u8g2\csrc/u8x8_d_ssd1318.c **** static const uint8_t u8x8_d_ssd1318_128x96_powersave0_seq[] = {
 142:..\..\..\u8g2\u8g2\csrc/u8x8_d_ssd1318.c ****   U8X8_START_TRANSFER(),             	/* enable chip, delay is part of the transfer start */
 143:..\..\..\u8g2\u8g2\csrc/u8x8_d_ssd1318.c ****   U8X8_C(0x0af),		                /* display on */
 144:..\..\..\u8g2\u8g2\csrc/u8x8_d_ssd1318.c ****   U8X8_END_TRANSFER(),             	/* disable chip */
 145:..\..\..\u8g2\u8g2\csrc/u8x8_d_ssd1318.c ****   U8X8_END()             			/* end of sequence */
ARM GAS  C:\Users\jesse\AppData\Local\Temp\ccWbVbA2.s 			page 4


 146:..\..\..\u8g2\u8g2\csrc/u8x8_d_ssd1318.c **** };
 147:..\..\..\u8g2\u8g2\csrc/u8x8_d_ssd1318.c **** 
 148:..\..\..\u8g2\u8g2\csrc/u8x8_d_ssd1318.c **** static const uint8_t u8x8_d_ssd1318_128x96_powersave1_seq[] = {
 149:..\..\..\u8g2\u8g2\csrc/u8x8_d_ssd1318.c ****   U8X8_START_TRANSFER(),             	/* enable chip, delay is part of the transfer start */
 150:..\..\..\u8g2\u8g2\csrc/u8x8_d_ssd1318.c ****   U8X8_C(0x0ae),		                /* display off */
 151:..\..\..\u8g2\u8g2\csrc/u8x8_d_ssd1318.c ****   U8X8_END_TRANSFER(),             	/* disable chip */
 152:..\..\..\u8g2\u8g2\csrc/u8x8_d_ssd1318.c ****   U8X8_END()             			/* end of sequence */
 153:..\..\..\u8g2\u8g2\csrc/u8x8_d_ssd1318.c **** };
 154:..\..\..\u8g2\u8g2\csrc/u8x8_d_ssd1318.c **** 
 155:..\..\..\u8g2\u8g2\csrc/u8x8_d_ssd1318.c **** static const uint8_t u8x8_d_ssd1318_128x96_flip0_seq[] = {
 156:..\..\..\u8g2\u8g2\csrc/u8x8_d_ssd1318.c ****   U8X8_START_TRANSFER(),             	/* enable chip, delay is part of the transfer start */
 157:..\..\..\u8g2\u8g2\csrc/u8x8_d_ssd1318.c ****   U8X8_C(0x0a1),				/* segment remap a0/a1*/
 158:..\..\..\u8g2\u8g2\csrc/u8x8_d_ssd1318.c ****   U8X8_C(0x0c0),				/* c0: scan dir normal, c8: reverse */
 159:..\..\..\u8g2\u8g2\csrc/u8x8_d_ssd1318.c ****   U8X8_END_TRANSFER(),             	/* disable chip */
 160:..\..\..\u8g2\u8g2\csrc/u8x8_d_ssd1318.c ****   U8X8_END()             			/* end of sequence */
 161:..\..\..\u8g2\u8g2\csrc/u8x8_d_ssd1318.c **** };
 162:..\..\..\u8g2\u8g2\csrc/u8x8_d_ssd1318.c **** 
 163:..\..\..\u8g2\u8g2\csrc/u8x8_d_ssd1318.c **** static const uint8_t u8x8_d_ssd1318_128x96_flip1_seq[] = {
 164:..\..\..\u8g2\u8g2\csrc/u8x8_d_ssd1318.c ****   U8X8_START_TRANSFER(),             	/* enable chip, delay is part of the transfer start */
 165:..\..\..\u8g2\u8g2\csrc/u8x8_d_ssd1318.c ****   U8X8_C(0x0a0),				/* segment remap a0/a1*/
 166:..\..\..\u8g2\u8g2\csrc/u8x8_d_ssd1318.c ****   U8X8_C(0x0c8),				/* c0: scan dir normal, c8: reverse */
 167:..\..\..\u8g2\u8g2\csrc/u8x8_d_ssd1318.c ****   U8X8_END_TRANSFER(),             	/* disable chip */
 168:..\..\..\u8g2\u8g2\csrc/u8x8_d_ssd1318.c ****   U8X8_END()             			/* end of sequence */
 169:..\..\..\u8g2\u8g2\csrc/u8x8_d_ssd1318.c **** };
 170:..\..\..\u8g2\u8g2\csrc/u8x8_d_ssd1318.c **** 
 171:..\..\..\u8g2\u8g2\csrc/u8x8_d_ssd1318.c **** 
 172:..\..\..\u8g2\u8g2\csrc/u8x8_d_ssd1318.c **** static uint8_t u8x8_d_ssd1318_generic(u8x8_t *u8x8, uint8_t msg, uint8_t arg_int, void *arg_ptr)
 173:..\..\..\u8g2\u8g2\csrc/u8x8_d_ssd1318.c **** {
  27              		.loc 1 173 0
  28              		.cfi_startproc
  29              		@ args = 0, pretend = 0, frame = 0
  30              		@ frame_needed = 0, uses_anonymous_args = 0
  31              	.LVL0:
 174:..\..\..\u8g2\u8g2\csrc/u8x8_d_ssd1318.c ****   uint8_t x, c;
 175:..\..\..\u8g2\u8g2\csrc/u8x8_d_ssd1318.c ****   uint8_t *ptr;
 176:..\..\..\u8g2\u8g2\csrc/u8x8_d_ssd1318.c ****   switch(msg)
  32              		.loc 1 176 0
  33 0000 0B39     		subs	r1, r1, #11
  34              	.LVL1:
 173:..\..\..\u8g2\u8g2\csrc/u8x8_d_ssd1318.c ****   uint8_t x, c;
  35              		.loc 1 173 0
  36 0002 F8B5     		push	{r3, r4, r5, r6, r7, lr}
  37              		.cfi_def_cfa_offset 24
  38              		.cfi_offset 3, -24
  39              		.cfi_offset 4, -20
  40              		.cfi_offset 5, -16
  41              		.cfi_offset 6, -12
  42              		.cfi_offset 7, -8
  43              		.cfi_offset 14, -4
 173:..\..\..\u8g2\u8g2\csrc/u8x8_d_ssd1318.c ****   uint8_t x, c;
  44              		.loc 1 173 0
  45 0004 0446     		mov	r4, r0
  46 0006 1546     		mov	r5, r2
  47 0008 1F46     		mov	r7, r3
  48              		.loc 1 176 0
  49 000a 0429     		cmp	r1, #4
  50 000c 55D8     		bhi	.L11
ARM GAS  C:\Users\jesse\AppData\Local\Temp\ccWbVbA2.s 			page 5


  51 000e DFE801F0 		tbb	[pc, r1]
  52              	.LVL2:
  53              	.L4:
  54 0012 03       		.byte	(.L3-.L4)/2
  55 0013 54       		.byte	(.L11-.L4)/2
  56 0014 0B       		.byte	(.L5-.L4)/2
  57 0015 1A       		.byte	(.L6-.L4)/2
  58 0016 29       		.byte	(.L7-.L4)/2
  59 0017 00       		.p2align 1
  60              	.L3:
 177:..\..\..\u8g2\u8g2\csrc/u8x8_d_ssd1318.c ****   {
 178:..\..\..\u8g2\u8g2\csrc/u8x8_d_ssd1318.c ****     /* handled by the calling function
 179:..\..\..\u8g2\u8g2\csrc/u8x8_d_ssd1318.c ****     case U8X8_MSG_DISPLAY_SETUP_MEMORY:
 180:..\..\..\u8g2\u8g2\csrc/u8x8_d_ssd1318.c ****       u8x8_d_helper_display_setup_memory(u8x8, &u8x8_ssd1318_128x96_display_info);
 181:..\..\..\u8g2\u8g2\csrc/u8x8_d_ssd1318.c ****       break;
 182:..\..\..\u8g2\u8g2\csrc/u8x8_d_ssd1318.c ****     */
 183:..\..\..\u8g2\u8g2\csrc/u8x8_d_ssd1318.c ****     /* handled by the calling function
 184:..\..\..\u8g2\u8g2\csrc/u8x8_d_ssd1318.c ****     case U8X8_MSG_DISPLAY_INIT:
 185:..\..\..\u8g2\u8g2\csrc/u8x8_d_ssd1318.c ****       u8x8_d_helper_display_init(u8x8);
 186:..\..\..\u8g2\u8g2\csrc/u8x8_d_ssd1318.c ****       u8x8_cad_SendSequence(u8x8, u8x8_d_ssd1318_128x96_init_seq);    
 187:..\..\..\u8g2\u8g2\csrc/u8x8_d_ssd1318.c ****       break;
 188:..\..\..\u8g2\u8g2\csrc/u8x8_d_ssd1318.c ****     */
 189:..\..\..\u8g2\u8g2\csrc/u8x8_d_ssd1318.c ****     case U8X8_MSG_DISPLAY_SET_POWER_SAVE:
 190:..\..\..\u8g2\u8g2\csrc/u8x8_d_ssd1318.c ****       if ( arg_int == 0 )
  61              		.loc 1 190 0
  62 0018 0AB9     		cbnz	r2, .L8
 191:..\..\..\u8g2\u8g2\csrc/u8x8_d_ssd1318.c **** 	u8x8_cad_SendSequence(u8x8, u8x8_d_ssd1318_128x96_powersave0_seq);
  63              		.loc 1 191 0
  64 001a 2949     		ldr	r1, .L18
  65 001c 00E0     		b	.L16
  66              	.L8:
 192:..\..\..\u8g2\u8g2\csrc/u8x8_d_ssd1318.c ****       else
 193:..\..\..\u8g2\u8g2\csrc/u8x8_d_ssd1318.c **** 	u8x8_cad_SendSequence(u8x8, u8x8_d_ssd1318_128x96_powersave1_seq);
  67              		.loc 1 193 0
  68 001e 2949     		ldr	r1, .L18+4
  69              	.L16:
  70 0020 2046     		mov	r0, r4
  71              	.LVL3:
  72 0022 FFF7FEFF 		bl	u8x8_cad_SendSequence
  73              	.LVL4:
  74 0026 1BE0     		b	.L13
  75              	.LVL5:
  76              	.L5:
 194:..\..\..\u8g2\u8g2\csrc/u8x8_d_ssd1318.c ****       break;
 195:..\..\..\u8g2\u8g2\csrc/u8x8_d_ssd1318.c ****     case U8X8_MSG_DISPLAY_SET_FLIP_MODE:
 196:..\..\..\u8g2\u8g2\csrc/u8x8_d_ssd1318.c ****       if ( arg_int == 0 )
  77              		.loc 1 196 0
  78 0028 2AB9     		cbnz	r2, .L9
 197:..\..\..\u8g2\u8g2\csrc/u8x8_d_ssd1318.c ****       {
 198:..\..\..\u8g2\u8g2\csrc/u8x8_d_ssd1318.c **** 	u8x8_cad_SendSequence(u8x8, u8x8_d_ssd1318_128x96_flip0_seq);
  79              		.loc 1 198 0
  80 002a 2749     		ldr	r1, .L18+8
  81 002c FFF7FEFF 		bl	u8x8_cad_SendSequence
  82              	.LVL6:
 199:..\..\..\u8g2\u8g2\csrc/u8x8_d_ssd1318.c **** 	u8x8->x_offset = u8x8->display_info->default_x_offset;
  83              		.loc 1 199 0
  84 0030 2368     		ldr	r3, [r4]
ARM GAS  C:\Users\jesse\AppData\Local\Temp\ccWbVbA2.s 			page 6


  85 0032 9B7C     		ldrb	r3, [r3, #18]	@ zero_extendqisi2
  86 0034 04E0     		b	.L15
  87              	.LVL7:
  88              	.L9:
 200:..\..\..\u8g2\u8g2\csrc/u8x8_d_ssd1318.c ****       }
 201:..\..\..\u8g2\u8g2\csrc/u8x8_d_ssd1318.c ****       else
 202:..\..\..\u8g2\u8g2\csrc/u8x8_d_ssd1318.c ****       {
 203:..\..\..\u8g2\u8g2\csrc/u8x8_d_ssd1318.c **** 	u8x8_cad_SendSequence(u8x8, u8x8_d_ssd1318_128x96_flip1_seq);
  89              		.loc 1 203 0
  90 0036 2549     		ldr	r1, .L18+12
  91 0038 FFF7FEFF 		bl	u8x8_cad_SendSequence
  92              	.LVL8:
 204:..\..\..\u8g2\u8g2\csrc/u8x8_d_ssd1318.c **** 	u8x8->x_offset = u8x8->display_info->flipmode_x_offset;
  93              		.loc 1 204 0
  94 003c 2368     		ldr	r3, [r4]
  95 003e DB7C     		ldrb	r3, [r3, #19]	@ zero_extendqisi2
  96              	.L15:
  97 0040 84F82230 		strb	r3, [r4, #34]
  98 0044 0CE0     		b	.L13
  99              	.LVL9:
 100              	.L6:
 205:..\..\..\u8g2\u8g2\csrc/u8x8_d_ssd1318.c ****       }
 206:..\..\..\u8g2\u8g2\csrc/u8x8_d_ssd1318.c ****       break;
 207:..\..\..\u8g2\u8g2\csrc/u8x8_d_ssd1318.c **** #ifdef U8X8_WITH_SET_CONTRAST
 208:..\..\..\u8g2\u8g2\csrc/u8x8_d_ssd1318.c ****     case U8X8_MSG_DISPLAY_SET_CONTRAST:
 209:..\..\..\u8g2\u8g2\csrc/u8x8_d_ssd1318.c ****       u8x8_cad_StartTransfer(u8x8);
 101              		.loc 1 209 0
 102 0046 FFF7FEFF 		bl	u8x8_cad_StartTransfer
 103              	.LVL10:
 210:..\..\..\u8g2\u8g2\csrc/u8x8_d_ssd1318.c ****       u8x8_cad_SendCmd(u8x8, 0x081 );
 104              		.loc 1 210 0
 105 004a 8121     		movs	r1, #129
 106 004c 2046     		mov	r0, r4
 107 004e FFF7FEFF 		bl	u8x8_cad_SendCmd
 108              	.LVL11:
 211:..\..\..\u8g2\u8g2\csrc/u8x8_d_ssd1318.c ****       u8x8_cad_SendArg(u8x8, arg_int );	/* ssd1318 has range from 0 to 255 */
 109              		.loc 1 211 0
 110 0052 2946     		mov	r1, r5
 111 0054 2046     		mov	r0, r4
 112 0056 FFF7FEFF 		bl	u8x8_cad_SendArg
 113              	.LVL12:
 114              	.L14:
 212:..\..\..\u8g2\u8g2\csrc/u8x8_d_ssd1318.c ****       u8x8_cad_EndTransfer(u8x8);
 115              		.loc 1 212 0
 116 005a 2046     		mov	r0, r4
 117 005c FFF7FEFF 		bl	u8x8_cad_EndTransfer
 118              	.LVL13:
 119              	.L13:
 213:..\..\..\u8g2\u8g2\csrc/u8x8_d_ssd1318.c ****       break;
 214:..\..\..\u8g2\u8g2\csrc/u8x8_d_ssd1318.c **** #endif
 215:..\..\..\u8g2\u8g2\csrc/u8x8_d_ssd1318.c ****     case U8X8_MSG_DISPLAY_DRAW_TILE:
 216:..\..\..\u8g2\u8g2\csrc/u8x8_d_ssd1318.c ****       u8x8_cad_StartTransfer(u8x8);
 217:..\..\..\u8g2\u8g2\csrc/u8x8_d_ssd1318.c ****       x = ((u8x8_tile_t *)arg_ptr)->x_pos;    
 218:..\..\..\u8g2\u8g2\csrc/u8x8_d_ssd1318.c ****       x *= 8;
 219:..\..\..\u8g2\u8g2\csrc/u8x8_d_ssd1318.c ****       x += u8x8->x_offset;
 220:..\..\..\u8g2\u8g2\csrc/u8x8_d_ssd1318.c ****     
 221:..\..\..\u8g2\u8g2\csrc/u8x8_d_ssd1318.c ****       u8x8_cad_SendCmd(u8x8, 0x040 );	/* set line offset to 0 */
ARM GAS  C:\Users\jesse\AppData\Local\Temp\ccWbVbA2.s 			page 7


 222:..\..\..\u8g2\u8g2\csrc/u8x8_d_ssd1318.c ****     
 223:..\..\..\u8g2\u8g2\csrc/u8x8_d_ssd1318.c ****       u8x8_cad_SendCmd(u8x8, 0x010 | (x>>4) );
 224:..\..\..\u8g2\u8g2\csrc/u8x8_d_ssd1318.c ****       u8x8_cad_SendArg(u8x8, 0x000 | ((x&15)));					/* probably wrong, should be SendCmd */
 225:..\..\..\u8g2\u8g2\csrc/u8x8_d_ssd1318.c ****       u8x8_cad_SendArg(u8x8, 0x0b0 | (((u8x8_tile_t *)arg_ptr)->y_pos));	/* probably wrong, should 
 226:..\..\..\u8g2\u8g2\csrc/u8x8_d_ssd1318.c **** 
 227:..\..\..\u8g2\u8g2\csrc/u8x8_d_ssd1318.c ****     
 228:..\..\..\u8g2\u8g2\csrc/u8x8_d_ssd1318.c ****       do
 229:..\..\..\u8g2\u8g2\csrc/u8x8_d_ssd1318.c ****       {
 230:..\..\..\u8g2\u8g2\csrc/u8x8_d_ssd1318.c **** 	c = ((u8x8_tile_t *)arg_ptr)->cnt;
 231:..\..\..\u8g2\u8g2\csrc/u8x8_d_ssd1318.c **** 	ptr = ((u8x8_tile_t *)arg_ptr)->tile_ptr;
 232:..\..\..\u8g2\u8g2\csrc/u8x8_d_ssd1318.c **** 	u8x8_cad_SendData(u8x8, c*8, ptr); 	/* note: SendData can not handle more than 255 bytes */
 233:..\..\..\u8g2\u8g2\csrc/u8x8_d_ssd1318.c **** 	/*
 234:..\..\..\u8g2\u8g2\csrc/u8x8_d_ssd1318.c **** 	do
 235:..\..\..\u8g2\u8g2\csrc/u8x8_d_ssd1318.c **** 	{
 236:..\..\..\u8g2\u8g2\csrc/u8x8_d_ssd1318.c **** 	  u8x8_cad_SendData(u8x8, 8, ptr);
 237:..\..\..\u8g2\u8g2\csrc/u8x8_d_ssd1318.c **** 	  ptr += 8;
 238:..\..\..\u8g2\u8g2\csrc/u8x8_d_ssd1318.c **** 	  c--;
 239:..\..\..\u8g2\u8g2\csrc/u8x8_d_ssd1318.c **** 	} while( c > 0 );
 240:..\..\..\u8g2\u8g2\csrc/u8x8_d_ssd1318.c **** 	*/
 241:..\..\..\u8g2\u8g2\csrc/u8x8_d_ssd1318.c **** 	arg_int--;
 242:..\..\..\u8g2\u8g2\csrc/u8x8_d_ssd1318.c ****       } while( arg_int > 0 );
 243:..\..\..\u8g2\u8g2\csrc/u8x8_d_ssd1318.c ****       
 244:..\..\..\u8g2\u8g2\csrc/u8x8_d_ssd1318.c ****       u8x8_cad_EndTransfer(u8x8);
 245:..\..\..\u8g2\u8g2\csrc/u8x8_d_ssd1318.c ****       break;
 246:..\..\..\u8g2\u8g2\csrc/u8x8_d_ssd1318.c ****     default:
 247:..\..\..\u8g2\u8g2\csrc/u8x8_d_ssd1318.c ****       return 0;
 248:..\..\..\u8g2\u8g2\csrc/u8x8_d_ssd1318.c ****   }
 249:..\..\..\u8g2\u8g2\csrc/u8x8_d_ssd1318.c ****   return 1;
 120              		.loc 1 249 0
 121 0060 0120     		movs	r0, #1
 213:..\..\..\u8g2\u8g2\csrc/u8x8_d_ssd1318.c ****       break;
 122              		.loc 1 213 0
 123 0062 F8BD     		pop	{r3, r4, r5, r6, r7, pc}
 124              	.LVL14:
 125              	.L7:
 216:..\..\..\u8g2\u8g2\csrc/u8x8_d_ssd1318.c ****       x = ((u8x8_tile_t *)arg_ptr)->x_pos;    
 126              		.loc 1 216 0
 127 0064 FFF7FEFF 		bl	u8x8_cad_StartTransfer
 128              	.LVL15:
 219:..\..\..\u8g2\u8g2\csrc/u8x8_d_ssd1318.c ****     
 129              		.loc 1 219 0
 130 0068 94F82230 		ldrb	r3, [r4, #34]	@ zero_extendqisi2
 217:..\..\..\u8g2\u8g2\csrc/u8x8_d_ssd1318.c ****       x *= 8;
 131              		.loc 1 217 0
 132 006c 7E79     		ldrb	r6, [r7, #5]	@ zero_extendqisi2
 133              	.LVL16:
 221:..\..\..\u8g2\u8g2\csrc/u8x8_d_ssd1318.c ****     
 134              		.loc 1 221 0
 135 006e 4021     		movs	r1, #64
 219:..\..\..\u8g2\u8g2\csrc/u8x8_d_ssd1318.c ****     
 136              		.loc 1 219 0
 137 0070 03EBC606 		add	r6, r3, r6, lsl #3
 138              	.LVL17:
 139 0074 06F0FF06 		and	r6, r6, #255
 140              	.LVL18:
 221:..\..\..\u8g2\u8g2\csrc/u8x8_d_ssd1318.c ****     
 141              		.loc 1 221 0
ARM GAS  C:\Users\jesse\AppData\Local\Temp\ccWbVbA2.s 			page 8


 142 0078 2046     		mov	r0, r4
 143 007a FFF7FEFF 		bl	u8x8_cad_SendCmd
 144              	.LVL19:
 223:..\..\..\u8g2\u8g2\csrc/u8x8_d_ssd1318.c ****       u8x8_cad_SendArg(u8x8, 0x000 | ((x&15)));					/* probably wrong, should be SendCmd */
 145              		.loc 1 223 0
 146 007e 3109     		lsrs	r1, r6, #4
 147 0080 41F01001 		orr	r1, r1, #16
 148 0084 2046     		mov	r0, r4
 149 0086 FFF7FEFF 		bl	u8x8_cad_SendCmd
 150              	.LVL20:
 224:..\..\..\u8g2\u8g2\csrc/u8x8_d_ssd1318.c ****       u8x8_cad_SendArg(u8x8, 0x0b0 | (((u8x8_tile_t *)arg_ptr)->y_pos));	/* probably wrong, should 
 151              		.loc 1 224 0
 152 008a 06F00F01 		and	r1, r6, #15
 153 008e 2046     		mov	r0, r4
 154 0090 FFF7FEFF 		bl	u8x8_cad_SendArg
 155              	.LVL21:
 225:..\..\..\u8g2\u8g2\csrc/u8x8_d_ssd1318.c **** 
 156              		.loc 1 225 0
 157 0094 B979     		ldrb	r1, [r7, #6]	@ zero_extendqisi2
 158 0096 2046     		mov	r0, r4
 159 0098 41F0B001 		orr	r1, r1, #176
 160 009c FFF7FEFF 		bl	u8x8_cad_SendArg
 161              	.LVL22:
 162              	.L10:
 232:..\..\..\u8g2\u8g2\csrc/u8x8_d_ssd1318.c **** 	/*
 163              		.loc 1 232 0 discriminator 1
 164 00a0 3979     		ldrb	r1, [r7, #4]	@ zero_extendqisi2
 165 00a2 3A68     		ldr	r2, [r7]
 166 00a4 C900     		lsls	r1, r1, #3
 167 00a6 01F0F801 		and	r1, r1, #248
 168 00aa 2046     		mov	r0, r4
 241:..\..\..\u8g2\u8g2\csrc/u8x8_d_ssd1318.c ****       } while( arg_int > 0 );
 169              		.loc 1 241 0 discriminator 1
 170 00ac 013D     		subs	r5, r5, #1
 171              	.LVL23:
 232:..\..\..\u8g2\u8g2\csrc/u8x8_d_ssd1318.c **** 	/*
 172              		.loc 1 232 0 discriminator 1
 173 00ae FFF7FEFF 		bl	u8x8_cad_SendData
 174              	.LVL24:
 242:..\..\..\u8g2\u8g2\csrc/u8x8_d_ssd1318.c ****       
 175              		.loc 1 242 0 discriminator 1
 176 00b2 15F0FF05 		ands	r5, r5, #255
 177              	.LVL25:
 178 00b6 F3D1     		bne	.L10
 179 00b8 CFE7     		b	.L14
 180              	.LVL26:
 181              	.L11:
 247:..\..\..\u8g2\u8g2\csrc/u8x8_d_ssd1318.c ****   }
 182              		.loc 1 247 0
 183 00ba 0020     		movs	r0, #0
 184              	.LVL27:
 250:..\..\..\u8g2\u8g2\csrc/u8x8_d_ssd1318.c **** }
 185              		.loc 1 250 0
 186 00bc F8BD     		pop	{r3, r4, r5, r6, r7, pc}
 187              	.LVL28:
 188              	.L19:
 189 00be 00BF     		.align	2
ARM GAS  C:\Users\jesse\AppData\Local\Temp\ccWbVbA2.s 			page 9


 190              	.L18:
 191 00c0 00000000 		.word	.LANCHOR0
 192 00c4 05000000 		.word	.LANCHOR0+5
 193 00c8 0A000000 		.word	.LANCHOR0+10
 194 00cc 11000000 		.word	.LANCHOR0+17
 195              		.cfi_endproc
 196              	.LFE0:
 197              		.size	u8x8_d_ssd1318_generic, .-u8x8_d_ssd1318_generic
 198              		.section	.text.u8x8_d_ssd1318_128x96,"ax",%progbits
 199              		.align	1
 200              		.global	u8x8_d_ssd1318_128x96
 201              		.thumb
 202              		.thumb_func
 203              		.type	u8x8_d_ssd1318_128x96, %function
 204              	u8x8_d_ssd1318_128x96:
 205              	.LFB1:
 251:..\..\..\u8g2\u8g2\csrc/u8x8_d_ssd1318.c **** 
 252:..\..\..\u8g2\u8g2\csrc/u8x8_d_ssd1318.c **** 
 253:..\..\..\u8g2\u8g2\csrc/u8x8_d_ssd1318.c **** static const u8x8_display_info_t u8x8_ssd1318_128x96_display_info =
 254:..\..\..\u8g2\u8g2\csrc/u8x8_d_ssd1318.c **** {
 255:..\..\..\u8g2\u8g2\csrc/u8x8_d_ssd1318.c ****   /* chip_enable_level = */ 0,
 256:..\..\..\u8g2\u8g2\csrc/u8x8_d_ssd1318.c ****   /* chip_disable_level = */ 1,
 257:..\..\..\u8g2\u8g2\csrc/u8x8_d_ssd1318.c ****   
 258:..\..\..\u8g2\u8g2\csrc/u8x8_d_ssd1318.c ****   /* post_chip_enable_wait_ns = */ 20,
 259:..\..\..\u8g2\u8g2\csrc/u8x8_d_ssd1318.c ****   /* pre_chip_disable_wait_ns = */ 10,
 260:..\..\..\u8g2\u8g2\csrc/u8x8_d_ssd1318.c ****   /* reset_pulse_width_ms = */ 100, 	/* SSD1306: 3 us */
 261:..\..\..\u8g2\u8g2\csrc/u8x8_d_ssd1318.c ****   /* post_reset_wait_ms = */ 100, /* far east OLEDs need much longer setup time */
 262:..\..\..\u8g2\u8g2\csrc/u8x8_d_ssd1318.c ****   /* sda_setup_time_ns = */ 50,		/* SSD1306: 15ns, but cycle time is 100ns, so use 100/2 */
 263:..\..\..\u8g2\u8g2\csrc/u8x8_d_ssd1318.c ****   /* sck_pulse_width_ns = */ 50,	/* SSD1306: 20ns, but cycle time is 100ns, so use 100/2, AVR: belo
 264:..\..\..\u8g2\u8g2\csrc/u8x8_d_ssd1318.c ****   /* sck_clock_hz = */ 8000000UL,	/* since Arduino 1.6.0, the SPI bus speed in Hz. Should be  10000
 265:..\..\..\u8g2\u8g2\csrc/u8x8_d_ssd1318.c ****   /* spi_mode = */ 0,		/* active high, rising edge */
 266:..\..\..\u8g2\u8g2\csrc/u8x8_d_ssd1318.c ****   /* i2c_bus_clock_100kHz = */ 4,
 267:..\..\..\u8g2\u8g2\csrc/u8x8_d_ssd1318.c ****   /* data_setup_time_ns = */ 40,
 268:..\..\..\u8g2\u8g2\csrc/u8x8_d_ssd1318.c ****   /* write_pulse_width_ns = */ 150,	/* SSD1306: cycle time is 300ns, so use 300/2 = 150 */
 269:..\..\..\u8g2\u8g2\csrc/u8x8_d_ssd1318.c ****   /* tile_width = */ 16,
 270:..\..\..\u8g2\u8g2\csrc/u8x8_d_ssd1318.c ****   /* tile_hight = */ 12,
 271:..\..\..\u8g2\u8g2\csrc/u8x8_d_ssd1318.c ****   /* default_x_offset = */ 0,
 272:..\..\..\u8g2\u8g2\csrc/u8x8_d_ssd1318.c ****   /* flipmode_x_offset = */ 0,
 273:..\..\..\u8g2\u8g2\csrc/u8x8_d_ssd1318.c ****   /* pixel_width = */ 128,
 274:..\..\..\u8g2\u8g2\csrc/u8x8_d_ssd1318.c ****   /* pixel_height = */ 96
 275:..\..\..\u8g2\u8g2\csrc/u8x8_d_ssd1318.c **** };
 276:..\..\..\u8g2\u8g2\csrc/u8x8_d_ssd1318.c **** 
 277:..\..\..\u8g2\u8g2\csrc/u8x8_d_ssd1318.c **** uint8_t u8x8_d_ssd1318_128x96(u8x8_t *u8x8, uint8_t msg, uint8_t arg_int, void *arg_ptr)
 278:..\..\..\u8g2\u8g2\csrc/u8x8_d_ssd1318.c **** {
 206              		.loc 1 278 0
 207              		.cfi_startproc
 208              		@ args = 0, pretend = 0, frame = 0
 209              		@ frame_needed = 0, uses_anonymous_args = 0
 210              	.LVL29:
 211 0000 38B5     		push	{r3, r4, r5, lr}
 212              		.cfi_def_cfa_offset 16
 213              		.cfi_offset 3, -16
 214              		.cfi_offset 4, -12
 215              		.cfi_offset 5, -8
 216              		.cfi_offset 14, -4
 217              		.loc 1 278 0
 218 0002 0446     		mov	r4, r0
ARM GAS  C:\Users\jesse\AppData\Local\Temp\ccWbVbA2.s 			page 10


 219 0004 0D46     		mov	r5, r1
 279:..\..\..\u8g2\u8g2\csrc/u8x8_d_ssd1318.c ****     
 280:..\..\..\u8g2\u8g2\csrc/u8x8_d_ssd1318.c ****   if ( u8x8_d_ssd1318_generic(u8x8, msg, arg_int, arg_ptr) != 0 )
 220              		.loc 1 280 0
 221 0006 FFF7FEFF 		bl	u8x8_d_ssd1318_generic
 222              	.LVL30:
 223 000a 78B9     		cbnz	r0, .L24
 281:..\..\..\u8g2\u8g2\csrc/u8x8_d_ssd1318.c ****     return 1;
 282:..\..\..\u8g2\u8g2\csrc/u8x8_d_ssd1318.c ****   
 283:..\..\..\u8g2\u8g2\csrc/u8x8_d_ssd1318.c ****   switch(msg)
 224              		.loc 1 283 0
 225 000c 092D     		cmp	r5, #9
 226 000e 09D0     		beq	.L22
 227 0010 0A2D     		cmp	r5, #10
 228 0012 0CD1     		bne	.L21
 284:..\..\..\u8g2\u8g2\csrc/u8x8_d_ssd1318.c ****   {
 285:..\..\..\u8g2\u8g2\csrc/u8x8_d_ssd1318.c ****     case U8X8_MSG_DISPLAY_INIT:
 286:..\..\..\u8g2\u8g2\csrc/u8x8_d_ssd1318.c ****       u8x8_d_helper_display_init(u8x8);
 229              		.loc 1 286 0
 230 0014 2046     		mov	r0, r4
 231 0016 FFF7FEFF 		bl	u8x8_d_helper_display_init
 232              	.LVL31:
 287:..\..\..\u8g2\u8g2\csrc/u8x8_d_ssd1318.c ****       u8x8_cad_SendSequence(u8x8, u8x8_d_ssd1318_128x96_icp_init_seq);    
 233              		.loc 1 287 0
 234 001a 0549     		ldr	r1, .L25
 235 001c 2046     		mov	r0, r4
 236 001e FFF7FEFF 		bl	u8x8_cad_SendSequence
 237              	.LVL32:
 238 0022 03E0     		b	.L24
 239              	.L22:
 288:..\..\..\u8g2\u8g2\csrc/u8x8_d_ssd1318.c ****       break;
 289:..\..\..\u8g2\u8g2\csrc/u8x8_d_ssd1318.c ****     case U8X8_MSG_DISPLAY_SETUP_MEMORY:
 290:..\..\..\u8g2\u8g2\csrc/u8x8_d_ssd1318.c ****       u8x8_d_helper_display_setup_memory(u8x8, &u8x8_ssd1318_128x96_display_info);
 240              		.loc 1 290 0
 241 0024 0349     		ldr	r1, .L25+4
 242 0026 2046     		mov	r0, r4
 243 0028 FFF7FEFF 		bl	u8x8_d_helper_display_setup_memory
 244              	.LVL33:
 245              	.L24:
 281:..\..\..\u8g2\u8g2\csrc/u8x8_d_ssd1318.c ****   
 246              		.loc 1 281 0
 247 002c 0120     		movs	r0, #1
 248              	.L21:
 291:..\..\..\u8g2\u8g2\csrc/u8x8_d_ssd1318.c ****       break;
 292:..\..\..\u8g2\u8g2\csrc/u8x8_d_ssd1318.c ****     default:
 293:..\..\..\u8g2\u8g2\csrc/u8x8_d_ssd1318.c ****       return 0;
 294:..\..\..\u8g2\u8g2\csrc/u8x8_d_ssd1318.c ****   }
 295:..\..\..\u8g2\u8g2\csrc/u8x8_d_ssd1318.c ****   return 1;
 296:..\..\..\u8g2\u8g2\csrc/u8x8_d_ssd1318.c **** }
 249              		.loc 1 296 0
 250 002e 38BD     		pop	{r3, r4, r5, pc}
 251              	.LVL34:
 252              	.L26:
 253              		.align	2
 254              	.L25:
 255 0030 18000000 		.word	.LANCHOR0+24
 256 0034 58000000 		.word	.LANCHOR0+88
ARM GAS  C:\Users\jesse\AppData\Local\Temp\ccWbVbA2.s 			page 11


 257              		.cfi_endproc
 258              	.LFE1:
 259              		.size	u8x8_d_ssd1318_128x96, .-u8x8_d_ssd1318_128x96
 260              		.section	.text.u8x8_d_ssd1318_128x96_xcp,"ax",%progbits
 261              		.align	1
 262              		.global	u8x8_d_ssd1318_128x96_xcp
 263              		.thumb
 264              		.thumb_func
 265              		.type	u8x8_d_ssd1318_128x96_xcp, %function
 266              	u8x8_d_ssd1318_128x96_xcp:
 267              	.LFB2:
 297:..\..\..\u8g2\u8g2\csrc/u8x8_d_ssd1318.c **** 
 298:..\..\..\u8g2\u8g2\csrc/u8x8_d_ssd1318.c **** uint8_t u8x8_d_ssd1318_128x96_xcp(u8x8_t *u8x8, uint8_t msg, uint8_t arg_int, void *arg_ptr)
 299:..\..\..\u8g2\u8g2\csrc/u8x8_d_ssd1318.c **** {
 268              		.loc 1 299 0
 269              		.cfi_startproc
 270              		@ args = 0, pretend = 0, frame = 0
 271              		@ frame_needed = 0, uses_anonymous_args = 0
 272              	.LVL35:
 273 0000 38B5     		push	{r3, r4, r5, lr}
 274              		.cfi_def_cfa_offset 16
 275              		.cfi_offset 3, -16
 276              		.cfi_offset 4, -12
 277              		.cfi_offset 5, -8
 278              		.cfi_offset 14, -4
 279              		.loc 1 299 0
 280 0002 0446     		mov	r4, r0
 281 0004 0D46     		mov	r5, r1
 300:..\..\..\u8g2\u8g2\csrc/u8x8_d_ssd1318.c ****     
 301:..\..\..\u8g2\u8g2\csrc/u8x8_d_ssd1318.c ****   if ( u8x8_d_ssd1318_generic(u8x8, msg, arg_int, arg_ptr) != 0 )
 282              		.loc 1 301 0
 283 0006 FFF7FEFF 		bl	u8x8_d_ssd1318_generic
 284              	.LVL36:
 285 000a 78B9     		cbnz	r0, .L31
 302:..\..\..\u8g2\u8g2\csrc/u8x8_d_ssd1318.c ****     return 1;
 303:..\..\..\u8g2\u8g2\csrc/u8x8_d_ssd1318.c ****   
 304:..\..\..\u8g2\u8g2\csrc/u8x8_d_ssd1318.c ****   switch(msg)
 286              		.loc 1 304 0
 287 000c 092D     		cmp	r5, #9
 288 000e 09D0     		beq	.L29
 289 0010 0A2D     		cmp	r5, #10
 290 0012 0CD1     		bne	.L28
 305:..\..\..\u8g2\u8g2\csrc/u8x8_d_ssd1318.c ****   {
 306:..\..\..\u8g2\u8g2\csrc/u8x8_d_ssd1318.c ****     case U8X8_MSG_DISPLAY_INIT:
 307:..\..\..\u8g2\u8g2\csrc/u8x8_d_ssd1318.c ****       u8x8_d_helper_display_init(u8x8);
 291              		.loc 1 307 0
 292 0014 2046     		mov	r0, r4
 293 0016 FFF7FEFF 		bl	u8x8_d_helper_display_init
 294              	.LVL37:
 308:..\..\..\u8g2\u8g2\csrc/u8x8_d_ssd1318.c ****       u8x8_cad_SendSequence(u8x8, u8x8_d_ssd1318_128x96_xcp_init_seq);    
 295              		.loc 1 308 0
 296 001a 0549     		ldr	r1, .L32
 297 001c 2046     		mov	r0, r4
 298 001e FFF7FEFF 		bl	u8x8_cad_SendSequence
 299              	.LVL38:
 300 0022 03E0     		b	.L31
 301              	.L29:
ARM GAS  C:\Users\jesse\AppData\Local\Temp\ccWbVbA2.s 			page 12


 309:..\..\..\u8g2\u8g2\csrc/u8x8_d_ssd1318.c ****       break;
 310:..\..\..\u8g2\u8g2\csrc/u8x8_d_ssd1318.c ****     case U8X8_MSG_DISPLAY_SETUP_MEMORY:
 311:..\..\..\u8g2\u8g2\csrc/u8x8_d_ssd1318.c ****       u8x8_d_helper_display_setup_memory(u8x8, &u8x8_ssd1318_128x96_display_info);
 302              		.loc 1 311 0
 303 0024 0349     		ldr	r1, .L32+4
 304 0026 2046     		mov	r0, r4
 305 0028 FFF7FEFF 		bl	u8x8_d_helper_display_setup_memory
 306              	.LVL39:
 307              	.L31:
 302:..\..\..\u8g2\u8g2\csrc/u8x8_d_ssd1318.c ****   
 308              		.loc 1 302 0
 309 002c 0120     		movs	r0, #1
 310              	.L28:
 312:..\..\..\u8g2\u8g2\csrc/u8x8_d_ssd1318.c ****       break;
 313:..\..\..\u8g2\u8g2\csrc/u8x8_d_ssd1318.c ****     default:
 314:..\..\..\u8g2\u8g2\csrc/u8x8_d_ssd1318.c ****       return 0;
 315:..\..\..\u8g2\u8g2\csrc/u8x8_d_ssd1318.c ****   }
 316:..\..\..\u8g2\u8g2\csrc/u8x8_d_ssd1318.c ****   return 1;
 317:..\..\..\u8g2\u8g2\csrc/u8x8_d_ssd1318.c **** }
 311              		.loc 1 317 0
 312 002e 38BD     		pop	{r3, r4, r5, pc}
 313              	.LVL40:
 314              	.L33:
 315              		.align	2
 316              	.L32:
 317 0030 70000000 		.word	.LANCHOR0+112
 318 0034 58000000 		.word	.LANCHOR0+88
 319              		.cfi_endproc
 320              	.LFE2:
 321              		.size	u8x8_d_ssd1318_128x96_xcp, .-u8x8_d_ssd1318_128x96_xcp
 322              		.section	.rodata
 323              		.align	2
 324              		.set	.LANCHOR0,. + 0
 325              		.type	u8x8_d_ssd1318_128x96_powersave0_seq, %object
 326              		.size	u8x8_d_ssd1318_128x96_powersave0_seq, 5
 327              	u8x8_d_ssd1318_128x96_powersave0_seq:
 328 0000 18       		.byte	24
 329 0001 15       		.byte	21
 330 0002 AF       		.byte	-81
 331 0003 19       		.byte	25
 332 0004 FF       		.byte	-1
 333              		.type	u8x8_d_ssd1318_128x96_powersave1_seq, %object
 334              		.size	u8x8_d_ssd1318_128x96_powersave1_seq, 5
 335              	u8x8_d_ssd1318_128x96_powersave1_seq:
 336 0005 18       		.byte	24
 337 0006 15       		.byte	21
 338 0007 AE       		.byte	-82
 339 0008 19       		.byte	25
 340 0009 FF       		.byte	-1
 341              		.type	u8x8_d_ssd1318_128x96_flip0_seq, %object
 342              		.size	u8x8_d_ssd1318_128x96_flip0_seq, 7
 343              	u8x8_d_ssd1318_128x96_flip0_seq:
 344 000a 18       		.byte	24
 345 000b 15       		.byte	21
 346 000c A1       		.byte	-95
 347 000d 15       		.byte	21
 348 000e C0       		.byte	-64
ARM GAS  C:\Users\jesse\AppData\Local\Temp\ccWbVbA2.s 			page 13


 349 000f 19       		.byte	25
 350 0010 FF       		.byte	-1
 351              		.type	u8x8_d_ssd1318_128x96_flip1_seq, %object
 352              		.size	u8x8_d_ssd1318_128x96_flip1_seq, 7
 353              	u8x8_d_ssd1318_128x96_flip1_seq:
 354 0011 18       		.byte	24
 355 0012 15       		.byte	21
 356 0013 A0       		.byte	-96
 357 0014 15       		.byte	21
 358 0015 C8       		.byte	-56
 359 0016 19       		.byte	25
 360 0017 FF       		.byte	-1
 361              		.type	u8x8_d_ssd1318_128x96_icp_init_seq, %object
 362              		.size	u8x8_d_ssd1318_128x96_icp_init_seq, 61
 363              	u8x8_d_ssd1318_128x96_icp_init_seq:
 364 0018 18       		.byte	24
 365 0019 15       		.byte	21
 366 001a FD       		.byte	-3
 367 001b 16       		.byte	22
 368 001c 12       		.byte	18
 369 001d 15       		.byte	21
 370 001e AE       		.byte	-82
 371 001f 15       		.byte	21
 372 0020 AD       		.byte	-83
 373 0021 16       		.byte	22
 374 0022 D0       		.byte	-48
 375 0023 15       		.byte	21
 376 0024 A8       		.byte	-88
 377 0025 16       		.byte	22
 378 0026 5F       		.byte	95
 379 0027 15       		.byte	21
 380 0028 D3       		.byte	-45
 381 0029 16       		.byte	22
 382 002a 00       		.byte	0
 383 002b 15       		.byte	21
 384 002c A2       		.byte	-94
 385 002d 16       		.byte	22
 386 002e 00       		.byte	0
 387 002f 15       		.byte	21
 388 0030 8D       		.byte	-115
 389 0031 16       		.byte	22
 390 0032 C4       		.byte	-60
 391 0033 16       		.byte	22
 392 0034 AC       		.byte	-84
 393 0035 16       		.byte	22
 394 0036 01       		.byte	1
 395 0037 15       		.byte	21
 396 0038 A1       		.byte	-95
 397 0039 15       		.byte	21
 398 003a C0       		.byte	-64
 399 003b 15       		.byte	21
 400 003c DA       		.byte	-38
 401 003d 16       		.byte	22
 402 003e 12       		.byte	18
 403 003f 15       		.byte	21
 404 0040 81       		.byte	-127
 405 0041 16       		.byte	22
ARM GAS  C:\Users\jesse\AppData\Local\Temp\ccWbVbA2.s 			page 14


 406 0042 0F       		.byte	15
 407 0043 15       		.byte	21
 408 0044 D5       		.byte	-43
 409 0045 16       		.byte	22
 410 0046 D1       		.byte	-47
 411 0047 15       		.byte	21
 412 0048 D9       		.byte	-39
 413 0049 16       		.byte	22
 414 004a 22       		.byte	34
 415 004b 15       		.byte	21
 416 004c DB       		.byte	-37
 417 004d 16       		.byte	22
 418 004e 30       		.byte	48
 419 004f 15       		.byte	21
 420 0050 A4       		.byte	-92
 421 0051 15       		.byte	21
 422 0052 A6       		.byte	-90
 423 0053 19       		.byte	25
 424 0054 FF       		.byte	-1
 425 0055 000000   		.space	3
 426              		.type	u8x8_ssd1318_128x96_display_info, %object
 427              		.size	u8x8_ssd1318_128x96_display_info, 24
 428              	u8x8_ssd1318_128x96_display_info:
 429 0058 00       		.byte	0
 430 0059 01       		.byte	1
 431 005a 14       		.byte	20
 432 005b 0A       		.byte	10
 433 005c 64       		.byte	100
 434 005d 64       		.byte	100
 435 005e 32       		.byte	50
 436 005f 32       		.byte	50
 437 0060 00127A00 		.word	8000000
 438 0064 00       		.byte	0
 439 0065 04       		.byte	4
 440 0066 28       		.byte	40
 441 0067 96       		.byte	-106
 442 0068 10       		.byte	16
 443 0069 0C       		.byte	12
 444 006a 00       		.byte	0
 445 006b 00       		.byte	0
 446 006c 8000     		.short	128
 447 006e 6000     		.short	96
 448              		.type	u8x8_d_ssd1318_128x96_xcp_init_seq, %object
 449              		.size	u8x8_d_ssd1318_128x96_xcp_init_seq, 53
 450              	u8x8_d_ssd1318_128x96_xcp_init_seq:
 451 0070 18       		.byte	24
 452 0071 15       		.byte	21
 453 0072 FD       		.byte	-3
 454 0073 16       		.byte	22
 455 0074 12       		.byte	18
 456 0075 15       		.byte	21
 457 0076 AE       		.byte	-82
 458 0077 15       		.byte	21
 459 0078 AD       		.byte	-83
 460 0079 16       		.byte	22
 461 007a D0       		.byte	-48
 462 007b 15       		.byte	21
ARM GAS  C:\Users\jesse\AppData\Local\Temp\ccWbVbA2.s 			page 15


 463 007c A8       		.byte	-88
 464 007d 16       		.byte	22
 465 007e 5F       		.byte	95
 466 007f 15       		.byte	21
 467 0080 D3       		.byte	-45
 468 0081 16       		.byte	22
 469 0082 00       		.byte	0
 470 0083 15       		.byte	21
 471 0084 A2       		.byte	-94
 472 0085 16       		.byte	22
 473 0086 00       		.byte	0
 474 0087 15       		.byte	21
 475 0088 A1       		.byte	-95
 476 0089 15       		.byte	21
 477 008a C0       		.byte	-64
 478 008b 15       		.byte	21
 479 008c DA       		.byte	-38
 480 008d 16       		.byte	22
 481 008e 12       		.byte	18
 482 008f 15       		.byte	21
 483 0090 81       		.byte	-127
 484 0091 16       		.byte	22
 485 0092 0F       		.byte	15
 486 0093 15       		.byte	21
 487 0094 D5       		.byte	-43
 488 0095 16       		.byte	22
 489 0096 D1       		.byte	-47
 490 0097 15       		.byte	21
 491 0098 D9       		.byte	-39
 492 0099 16       		.byte	22
 493 009a 22       		.byte	34
 494 009b 15       		.byte	21
 495 009c DB       		.byte	-37
 496 009d 16       		.byte	22
 497 009e 30       		.byte	48
 498 009f 15       		.byte	21
 499 00a0 A4       		.byte	-92
 500 00a1 15       		.byte	21
 501 00a2 A6       		.byte	-90
 502 00a3 19       		.byte	25
 503 00a4 FF       		.byte	-1
 504              		.text
 505              	.Letext0:
 506              		.file 2 "c:\\program files (x86)\\cypress\\psoc creator\\4.4\\psoc creator\\import\\gnu\\arm\\5.4.
 507              		.file 3 "c:\\program files (x86)\\cypress\\psoc creator\\4.4\\psoc creator\\import\\gnu\\arm\\5.4.
 508              		.file 4 "..\\..\\..\\u8g2\\u8g2\\csrc\\u8x8.h"