ARM GAS  C:\Users\jesse\AppData\Local\Temp\ccFp01sw.s 			page 1


   1              		.syntax unified
   2              		.cpu cortex-m3
   3              		.fpu softvfp
   4              		.eabi_attribute 20, 1
   5              		.eabi_attribute 21, 1
   6              		.eabi_attribute 23, 3
   7              		.eabi_attribute 24, 1
   8              		.eabi_attribute 25, 1
   9              		.eabi_attribute 26, 1
  10              		.eabi_attribute 30, 4
  11              		.eabi_attribute 34, 1
  12              		.eabi_attribute 18, 4
  13              		.thumb
  14              		.syntax unified
  15              		.file	"u8x8_d_uc1611.c"
  16              		.text
  17              	.Ltext0:
  18              		.cfi_sections	.debug_frame
  19              		.section	.text.u8x8_d_uc1611_common,"ax",%progbits
  20              		.align	1
  21              		.global	u8x8_d_uc1611_common
  22              		.thumb
  23              		.thumb_func
  24              		.type	u8x8_d_uc1611_common, %function
  25              	u8x8_d_uc1611_common:
  26              	.LFB0:
  27              		.file 1 "..\\..\\..\\u8g2\\u8g2\\csrc\\u8x8_d_uc1611.c"
   1:..\..\..\u8g2\u8g2\csrc/u8x8_d_uc1611.c **** /*
   2:..\..\..\u8g2\u8g2\csrc/u8x8_d_uc1611.c **** 
   3:..\..\..\u8g2\u8g2\csrc/u8x8_d_uc1611.c ****   u8x8_d_uc1611.c
   4:..\..\..\u8g2\u8g2\csrc/u8x8_d_uc1611.c ****   
   5:..\..\..\u8g2\u8g2\csrc/u8x8_d_uc1611.c ****   Universal 8bit Graphics Library (https://github.com/olikraus/u8g2/)
   6:..\..\..\u8g2\u8g2\csrc/u8x8_d_uc1611.c **** 
   7:..\..\..\u8g2\u8g2\csrc/u8x8_d_uc1611.c ****   Copyright (c) 2016, olikraus@gmail.com
   8:..\..\..\u8g2\u8g2\csrc/u8x8_d_uc1611.c ****   All rights reserved.
   9:..\..\..\u8g2\u8g2\csrc/u8x8_d_uc1611.c **** 
  10:..\..\..\u8g2\u8g2\csrc/u8x8_d_uc1611.c ****   Redistribution and use in source and binary forms, with or without modification, 
  11:..\..\..\u8g2\u8g2\csrc/u8x8_d_uc1611.c ****   are permitted provided that the following conditions are met:
  12:..\..\..\u8g2\u8g2\csrc/u8x8_d_uc1611.c **** 
  13:..\..\..\u8g2\u8g2\csrc/u8x8_d_uc1611.c ****   * Redistributions of source code must retain the above copyright notice, this list 
  14:..\..\..\u8g2\u8g2\csrc/u8x8_d_uc1611.c ****     of conditions and the following disclaimer.
  15:..\..\..\u8g2\u8g2\csrc/u8x8_d_uc1611.c ****     
  16:..\..\..\u8g2\u8g2\csrc/u8x8_d_uc1611.c ****   * Redistributions in binary form must reproduce the above copyright notice, this 
  17:..\..\..\u8g2\u8g2\csrc/u8x8_d_uc1611.c ****     list of conditions and the following disclaimer in the documentation and/or other 
  18:..\..\..\u8g2\u8g2\csrc/u8x8_d_uc1611.c ****     materials provided with the distribution.
  19:..\..\..\u8g2\u8g2\csrc/u8x8_d_uc1611.c **** 
  20:..\..\..\u8g2\u8g2\csrc/u8x8_d_uc1611.c ****   THIS SOFTWARE IS PROVIDED BY THE COPYRIGHT HOLDERS AND 
  21:..\..\..\u8g2\u8g2\csrc/u8x8_d_uc1611.c ****   CONTRIBUTORS "AS IS" AND ANY EXPRESS OR IMPLIED WARRANTIES, 
  22:..\..\..\u8g2\u8g2\csrc/u8x8_d_uc1611.c ****   INCLUDING, BUT NOT LIMITED TO, THE IMPLIED WARRANTIES OF 
  23:..\..\..\u8g2\u8g2\csrc/u8x8_d_uc1611.c ****   MERCHANTABILITY AND FITNESS FOR A PARTICULAR PURPOSE ARE 
  24:..\..\..\u8g2\u8g2\csrc/u8x8_d_uc1611.c ****   DISCLAIMED. IN NO EVENT SHALL THE COPYRIGHT HOLDER OR 
  25:..\..\..\u8g2\u8g2\csrc/u8x8_d_uc1611.c ****   CONTRIBUTORS BE LIABLE FOR ANY DIRECT, INDIRECT, INCIDENTAL, 
  26:..\..\..\u8g2\u8g2\csrc/u8x8_d_uc1611.c ****   SPECIAL, EXEMPLARY, OR CONSEQUENTIAL DAMAGES (INCLUDING, BUT 
  27:..\..\..\u8g2\u8g2\csrc/u8x8_d_uc1611.c ****   NOT LIMITED TO, PROCUREMENT OF SUBSTITUTE GOODS OR SERVICES; 
  28:..\..\..\u8g2\u8g2\csrc/u8x8_d_uc1611.c ****   LOSS OF USE, DATA, OR PROFITS; OR BUSINESS INTERRUPTION) HOWEVER 
  29:..\..\..\u8g2\u8g2\csrc/u8x8_d_uc1611.c ****   CAUSED AND ON ANY THEORY OF LIABILITY, WHETHER IN CONTRACT, 
  30:..\..\..\u8g2\u8g2\csrc/u8x8_d_uc1611.c ****   STRICT LIABILITY, OR TORT (INCLUDING NEGLIGENCE OR OTHERWISE) 
ARM GAS  C:\Users\jesse\AppData\Local\Temp\ccFp01sw.s 			page 2


  31:..\..\..\u8g2\u8g2\csrc/u8x8_d_uc1611.c ****   ARISING IN ANY WAY OUT OF THE USE OF THIS SOFTWARE, EVEN IF 
  32:..\..\..\u8g2\u8g2\csrc/u8x8_d_uc1611.c ****   ADVISED OF THE POSSIBILITY OF SUCH DAMAGE.  
  33:..\..\..\u8g2\u8g2\csrc/u8x8_d_uc1611.c **** 
  34:..\..\..\u8g2\u8g2\csrc/u8x8_d_uc1611.c **** 
  35:..\..\..\u8g2\u8g2\csrc/u8x8_d_uc1611.c ****   6 Nov 2016: Not yet finished
  36:..\..\..\u8g2\u8g2\csrc/u8x8_d_uc1611.c ****   
  37:..\..\..\u8g2\u8g2\csrc/u8x8_d_uc1611.c ****   There are two controller:
  38:..\..\..\u8g2\u8g2\csrc/u8x8_d_uc1611.c ****   UC1611s		160x256
  39:..\..\..\u8g2\u8g2\csrc/u8x8_d_uc1611.c ****   UC1611			160x240
  40:..\..\..\u8g2\u8g2\csrc/u8x8_d_uc1611.c ****   
  41:..\..\..\u8g2\u8g2\csrc/u8x8_d_uc1611.c ****   Differences:
  42:..\..\..\u8g2\u8g2\csrc/u8x8_d_uc1611.c ****   UC1611		0xa8 cmd: enables 80 display rows
  43:..\..\..\u8g2\u8g2\csrc/u8x8_d_uc1611.c ****   UC1611s	0xa8 cmd: controlls graylevels
  44:..\..\..\u8g2\u8g2\csrc/u8x8_d_uc1611.c ****   
  45:..\..\..\u8g2\u8g2\csrc/u8x8_d_uc1611.c ****   UC1611		0xc0 cmd: single byte command for LCD mapping control
  46:..\..\..\u8g2\u8g2\csrc/u8x8_d_uc1611.c ****   UC1611s	0xc0 cmd: double byte command for LCD mapping control
  47:..\..\..\u8g2\u8g2\csrc/u8x8_d_uc1611.c ****   
  48:..\..\..\u8g2\u8g2\csrc/u8x8_d_uc1611.c ****   
  49:..\..\..\u8g2\u8g2\csrc/u8x8_d_uc1611.c **** */
  50:..\..\..\u8g2\u8g2\csrc/u8x8_d_uc1611.c **** #include "u8x8.h"
  51:..\..\..\u8g2\u8g2\csrc/u8x8_d_uc1611.c **** 
  52:..\..\..\u8g2\u8g2\csrc/u8x8_d_uc1611.c **** 
  53:..\..\..\u8g2\u8g2\csrc/u8x8_d_uc1611.c **** 
  54:..\..\..\u8g2\u8g2\csrc/u8x8_d_uc1611.c **** 
  55:..\..\..\u8g2\u8g2\csrc/u8x8_d_uc1611.c **** 
  56:..\..\..\u8g2\u8g2\csrc/u8x8_d_uc1611.c **** static const uint8_t u8x8_d_uc1611s_powersave0_seq[] = {
  57:..\..\..\u8g2\u8g2\csrc/u8x8_d_uc1611.c ****   U8X8_START_TRANSFER(),             	/* enable chip, delay is part of the transfer start */
  58:..\..\..\u8g2\u8g2\csrc/u8x8_d_uc1611.c ****   U8X8_C(0x0a9),		                /* display on, UC1611s */
  59:..\..\..\u8g2\u8g2\csrc/u8x8_d_uc1611.c ****   U8X8_END_TRANSFER(),             	/* disable chip */
  60:..\..\..\u8g2\u8g2\csrc/u8x8_d_uc1611.c ****   U8X8_END()             			/* end of sequence */
  61:..\..\..\u8g2\u8g2\csrc/u8x8_d_uc1611.c **** };
  62:..\..\..\u8g2\u8g2\csrc/u8x8_d_uc1611.c **** 
  63:..\..\..\u8g2\u8g2\csrc/u8x8_d_uc1611.c **** static const uint8_t u8x8_d_uc1611s_powersave1_seq[] = {
  64:..\..\..\u8g2\u8g2\csrc/u8x8_d_uc1611.c ****   U8X8_START_TRANSFER(),             	/* enable chip, delay is part of the transfer start */
  65:..\..\..\u8g2\u8g2\csrc/u8x8_d_uc1611.c ****   U8X8_C(0x0a8),		                /* display off, enter sleep mode, UC1611s */
  66:..\..\..\u8g2\u8g2\csrc/u8x8_d_uc1611.c ****   U8X8_END_TRANSFER(),             	/* disable chip */
  67:..\..\..\u8g2\u8g2\csrc/u8x8_d_uc1611.c ****   U8X8_END()             			/* end of sequence */
  68:..\..\..\u8g2\u8g2\csrc/u8x8_d_uc1611.c **** };
  69:..\..\..\u8g2\u8g2\csrc/u8x8_d_uc1611.c **** 
  70:..\..\..\u8g2\u8g2\csrc/u8x8_d_uc1611.c **** static const uint8_t u8x8_d_uc1611s_flip0_seq[] = {
  71:..\..\..\u8g2\u8g2\csrc/u8x8_d_uc1611.c ****   U8X8_START_TRANSFER(),             	/* enable chip, delay is part of the transfer start */
  72:..\..\..\u8g2\u8g2\csrc/u8x8_d_uc1611.c ****   U8X8_CA(0x0c0, 0x004),            	/* LCD Mapping */
  73:..\..\..\u8g2\u8g2\csrc/u8x8_d_uc1611.c ****   U8X8_END_TRANSFER(),             	/* disable chip */
  74:..\..\..\u8g2\u8g2\csrc/u8x8_d_uc1611.c ****   U8X8_END()             			/* end of sequence */
  75:..\..\..\u8g2\u8g2\csrc/u8x8_d_uc1611.c **** };
  76:..\..\..\u8g2\u8g2\csrc/u8x8_d_uc1611.c **** 
  77:..\..\..\u8g2\u8g2\csrc/u8x8_d_uc1611.c **** static const uint8_t u8x8_d_uc1611s_flip1_seq[] = {
  78:..\..\..\u8g2\u8g2\csrc/u8x8_d_uc1611.c ****   U8X8_START_TRANSFER(),             	/* enable chip, delay is part of the transfer start */
  79:..\..\..\u8g2\u8g2\csrc/u8x8_d_uc1611.c ****   U8X8_CA(0x0c0, 0x002),            	/* LCD Mapping */
  80:..\..\..\u8g2\u8g2\csrc/u8x8_d_uc1611.c ****   U8X8_END_TRANSFER(),             	/* disable chip */
  81:..\..\..\u8g2\u8g2\csrc/u8x8_d_uc1611.c ****   U8X8_END()             			/* end of sequence */
  82:..\..\..\u8g2\u8g2\csrc/u8x8_d_uc1611.c **** };
  83:..\..\..\u8g2\u8g2\csrc/u8x8_d_uc1611.c **** 
  84:..\..\..\u8g2\u8g2\csrc/u8x8_d_uc1611.c **** uint8_t u8x8_d_uc1611_common(u8x8_t *u8x8, uint8_t msg, uint8_t arg_int, void *arg_ptr)
  85:..\..\..\u8g2\u8g2\csrc/u8x8_d_uc1611.c **** {
  28              		.loc 1 85 0
  29              		.cfi_startproc
ARM GAS  C:\Users\jesse\AppData\Local\Temp\ccFp01sw.s 			page 3


  30              		@ args = 0, pretend = 0, frame = 0
  31              		@ frame_needed = 0, uses_anonymous_args = 0
  32              	.LVL0:
  86:..\..\..\u8g2\u8g2\csrc/u8x8_d_uc1611.c ****   uint8_t x, y, c;
  87:..\..\..\u8g2\u8g2\csrc/u8x8_d_uc1611.c ****   uint8_t *ptr;
  88:..\..\..\u8g2\u8g2\csrc/u8x8_d_uc1611.c ****   switch(msg)
  33              		.loc 1 88 0
  34 0000 0E29     		cmp	r1, #14
  85:..\..\..\u8g2\u8g2\csrc/u8x8_d_uc1611.c ****   uint8_t x, y, c;
  35              		.loc 1 85 0
  36 0002 F8B5     		push	{r3, r4, r5, r6, r7, lr}
  37              		.cfi_def_cfa_offset 24
  38              		.cfi_offset 3, -24
  39              		.cfi_offset 4, -20
  40              		.cfi_offset 5, -16
  41              		.cfi_offset 6, -12
  42              		.cfi_offset 7, -8
  43              		.cfi_offset 14, -4
  85:..\..\..\u8g2\u8g2\csrc/u8x8_d_uc1611.c ****   uint8_t x, y, c;
  44              		.loc 1 85 0
  45 0004 0446     		mov	r4, r0
  46 0006 1646     		mov	r6, r2
  47 0008 1F46     		mov	r7, r3
  48              		.loc 1 88 0
  49 000a 31D0     		beq	.L3
  50 000c 0F29     		cmp	r1, #15
  51 000e 3ED1     		bne	.L8
  52              	.LVL1:
  53              	.LBB4:
  54              	.LBB5:
  89:..\..\..\u8g2\u8g2\csrc/u8x8_d_uc1611.c ****   {
  90:..\..\..\u8g2\u8g2\csrc/u8x8_d_uc1611.c ****     case U8X8_MSG_DISPLAY_DRAW_TILE:
  91:..\..\..\u8g2\u8g2\csrc/u8x8_d_uc1611.c ****       u8x8_cad_StartTransfer(u8x8);
  55              		.loc 1 91 0
  56 0010 FFF7FEFF 		bl	u8x8_cad_StartTransfer
  57              	.LVL2:
  92:..\..\..\u8g2\u8g2\csrc/u8x8_d_uc1611.c ****     
  93:..\..\..\u8g2\u8g2\csrc/u8x8_d_uc1611.c ****       x = ((u8x8_tile_t *)arg_ptr)->x_pos;
  94:..\..\..\u8g2\u8g2\csrc/u8x8_d_uc1611.c ****       x *= 8;
  95:..\..\..\u8g2\u8g2\csrc/u8x8_d_uc1611.c ****       x += u8x8->x_offset;
  58              		.loc 1 95 0
  59 0014 94F82230 		ldrb	r3, [r4, #34]	@ zero_extendqisi2
  93:..\..\..\u8g2\u8g2\csrc/u8x8_d_uc1611.c ****       x *= 8;
  60              		.loc 1 93 0
  61 0018 7D79     		ldrb	r5, [r7, #5]	@ zero_extendqisi2
  62              	.LVL3:
  96:..\..\..\u8g2\u8g2\csrc/u8x8_d_uc1611.c ****    
  97:..\..\..\u8g2\u8g2\csrc/u8x8_d_uc1611.c ****       u8x8_cad_SendCmd(u8x8, 0x000 | ((x&15)));
  63              		.loc 1 97 0
  64 001a 2046     		mov	r0, r4
  95:..\..\..\u8g2\u8g2\csrc/u8x8_d_uc1611.c ****    
  65              		.loc 1 95 0
  66 001c 03EBC505 		add	r5, r3, r5, lsl #3
  67              	.LVL4:
  68 0020 05F0FF05 		and	r5, r5, #255
  69              	.LVL5:
  70              		.loc 1 97 0
ARM GAS  C:\Users\jesse\AppData\Local\Temp\ccFp01sw.s 			page 4


  71 0024 05F00F01 		and	r1, r5, #15
  72 0028 FFF7FEFF 		bl	u8x8_cad_SendCmd
  73              	.LVL6:
  98:..\..\..\u8g2\u8g2\csrc/u8x8_d_uc1611.c ****       u8x8_cad_SendCmd(u8x8, 0x010 | (x>>4) );
  74              		.loc 1 98 0
  75 002c 2909     		lsrs	r1, r5, #4
  76 002e 41F01001 		orr	r1, r1, #16
  77 0032 2046     		mov	r0, r4
  78 0034 FFF7FEFF 		bl	u8x8_cad_SendCmd
  79              	.LVL7:
  99:..\..\..\u8g2\u8g2\csrc/u8x8_d_uc1611.c ****     
 100:..\..\..\u8g2\u8g2\csrc/u8x8_d_uc1611.c ****       y = ((u8x8_tile_t *)arg_ptr)->y_pos;
  80              		.loc 1 100 0
  81 0038 BD79     		ldrb	r5, [r7, #6]	@ zero_extendqisi2
  82              	.LVL8:
 101:..\..\..\u8g2\u8g2\csrc/u8x8_d_uc1611.c ****       u8x8_cad_SendCmd(u8x8, 0x060 | (y&15));
  83              		.loc 1 101 0
  84 003a 2046     		mov	r0, r4
  85 003c 05F00F01 		and	r1, r5, #15
  86 0040 41F06001 		orr	r1, r1, #96
  87 0044 FFF7FEFF 		bl	u8x8_cad_SendCmd
  88              	.LVL9:
 102:..\..\..\u8g2\u8g2\csrc/u8x8_d_uc1611.c ****       u8x8_cad_SendCmd(u8x8, 0x070 | (y>>4));
  89              		.loc 1 102 0
  90 0048 2909     		lsrs	r1, r5, #4
  91 004a 41F07001 		orr	r1, r1, #112
  92 004e 2046     		mov	r0, r4
  93 0050 FFF7FEFF 		bl	u8x8_cad_SendCmd
  94              	.LVL10:
 103:..\..\..\u8g2\u8g2\csrc/u8x8_d_uc1611.c ****     
 104:..\..\..\u8g2\u8g2\csrc/u8x8_d_uc1611.c ****       c = ((u8x8_tile_t *)arg_ptr)->cnt;
  95              		.loc 1 104 0
  96 0054 3D79     		ldrb	r5, [r7, #4]	@ zero_extendqisi2
  97              	.LVL11:
 105:..\..\..\u8g2\u8g2\csrc/u8x8_d_uc1611.c ****       c *= 8;
 106:..\..\..\u8g2\u8g2\csrc/u8x8_d_uc1611.c ****       ptr = ((u8x8_tile_t *)arg_ptr)->tile_ptr;
  98              		.loc 1 106 0
  99 0056 3F68     		ldr	r7, [r7]
 100              	.LVL12:
 105:..\..\..\u8g2\u8g2\csrc/u8x8_d_uc1611.c ****       c *= 8;
 101              		.loc 1 105 0
 102 0058 ED00     		lsls	r5, r5, #3
 103              	.LVL13:
 104 005a EDB2     		uxtb	r5, r5
 105              	.LVL14:
 106              	.L5:
 107:..\..\..\u8g2\u8g2\csrc/u8x8_d_uc1611.c ****       do
 108:..\..\..\u8g2\u8g2\csrc/u8x8_d_uc1611.c ****       {
 109:..\..\..\u8g2\u8g2\csrc/u8x8_d_uc1611.c **** 	u8x8_cad_SendData(u8x8, c, ptr);	/* note: SendData can not handle more than 255 bytes */
 107              		.loc 1 109 0
 108 005c 3A46     		mov	r2, r7
 109 005e 2946     		mov	r1, r5
 110 0060 2046     		mov	r0, r4
 110:..\..\..\u8g2\u8g2\csrc/u8x8_d_uc1611.c **** 	arg_int--;
 111              		.loc 1 110 0
 112 0062 013E     		subs	r6, r6, #1
 113              	.LVL15:
ARM GAS  C:\Users\jesse\AppData\Local\Temp\ccFp01sw.s 			page 5


 109:..\..\..\u8g2\u8g2\csrc/u8x8_d_uc1611.c **** 	arg_int--;
 114              		.loc 1 109 0
 115 0064 FFF7FEFF 		bl	u8x8_cad_SendData
 116              	.LVL16:
 111:..\..\..\u8g2\u8g2\csrc/u8x8_d_uc1611.c ****       } while( arg_int > 0 );
 117              		.loc 1 111 0
 118 0068 16F0FF06 		ands	r6, r6, #255
 119              	.LVL17:
 120 006c F6D1     		bne	.L5
 121 006e 09E0     		b	.L9
 122              	.LVL18:
 123              	.L3:
 124              	.LBE5:
 125              	.LBE4:
 112:..\..\..\u8g2\u8g2\csrc/u8x8_d_uc1611.c ****       
 113:..\..\..\u8g2\u8g2\csrc/u8x8_d_uc1611.c ****       u8x8_cad_EndTransfer(u8x8);
 114:..\..\..\u8g2\u8g2\csrc/u8x8_d_uc1611.c ****       break;
 115:..\..\..\u8g2\u8g2\csrc/u8x8_d_uc1611.c ****     /*	handled in the calling procedure 
 116:..\..\..\u8g2\u8g2\csrc/u8x8_d_uc1611.c ****     case U8X8_MSG_DISPLAY_SETUP_MEMORY:
 117:..\..\..\u8g2\u8g2\csrc/u8x8_d_uc1611.c ****       u8x8_d_helper_display_setup_memory(u8x8, &u8x8_uc1611_128x64_display_info);
 118:..\..\..\u8g2\u8g2\csrc/u8x8_d_uc1611.c ****       break;
 119:..\..\..\u8g2\u8g2\csrc/u8x8_d_uc1611.c ****     case U8X8_MSG_DISPLAY_INIT:
 120:..\..\..\u8g2\u8g2\csrc/u8x8_d_uc1611.c ****       u8x8_d_helper_display_init(u8x8);
 121:..\..\..\u8g2\u8g2\csrc/u8x8_d_uc1611.c ****       u8x8_cad_SendSequence(u8x8, u8x8_d_uc1701_dogs102_init_seq);
 122:..\..\..\u8g2\u8g2\csrc/u8x8_d_uc1611.c ****       break;
 123:..\..\..\u8g2\u8g2\csrc/u8x8_d_uc1611.c ****     */
 124:..\..\..\u8g2\u8g2\csrc/u8x8_d_uc1611.c **** #ifdef U8X8_WITH_SET_CONTRAST
 125:..\..\..\u8g2\u8g2\csrc/u8x8_d_uc1611.c ****     case U8X8_MSG_DISPLAY_SET_CONTRAST:
 126:..\..\..\u8g2\u8g2\csrc/u8x8_d_uc1611.c ****       u8x8_cad_StartTransfer(u8x8);
 126              		.loc 1 126 0
 127 0070 FFF7FEFF 		bl	u8x8_cad_StartTransfer
 128              	.LVL19:
 127:..\..\..\u8g2\u8g2\csrc/u8x8_d_uc1611.c ****       u8x8_cad_SendCmd(u8x8, 0x081 );
 129              		.loc 1 127 0
 130 0074 8121     		movs	r1, #129
 131 0076 2046     		mov	r0, r4
 132 0078 FFF7FEFF 		bl	u8x8_cad_SendCmd
 133              	.LVL20:
 128:..\..\..\u8g2\u8g2\csrc/u8x8_d_uc1611.c ****       u8x8_cad_SendArg(u8x8, arg_int  );	/* uc1611 has range from 0 to 255 */
 134              		.loc 1 128 0
 135 007c 3146     		mov	r1, r6
 136 007e 2046     		mov	r0, r4
 137 0080 FFF7FEFF 		bl	u8x8_cad_SendArg
 138              	.LVL21:
 139              	.L9:
 129:..\..\..\u8g2\u8g2\csrc/u8x8_d_uc1611.c ****       u8x8_cad_EndTransfer(u8x8);
 140              		.loc 1 129 0
 141 0084 2046     		mov	r0, r4
 142 0086 FFF7FEFF 		bl	u8x8_cad_EndTransfer
 143              	.LVL22:
 130:..\..\..\u8g2\u8g2\csrc/u8x8_d_uc1611.c ****       break;
 131:..\..\..\u8g2\u8g2\csrc/u8x8_d_uc1611.c **** #endif
 132:..\..\..\u8g2\u8g2\csrc/u8x8_d_uc1611.c ****     default:
 133:..\..\..\u8g2\u8g2\csrc/u8x8_d_uc1611.c ****       return 0;
 134:..\..\..\u8g2\u8g2\csrc/u8x8_d_uc1611.c ****   }
 135:..\..\..\u8g2\u8g2\csrc/u8x8_d_uc1611.c ****   return 1;
 144              		.loc 1 135 0
ARM GAS  C:\Users\jesse\AppData\Local\Temp\ccFp01sw.s 			page 6


 145 008a 0120     		movs	r0, #1
 130:..\..\..\u8g2\u8g2\csrc/u8x8_d_uc1611.c ****       break;
 146              		.loc 1 130 0
 147 008c F8BD     		pop	{r3, r4, r5, r6, r7, pc}
 148              	.LVL23:
 149              	.L8:
 133:..\..\..\u8g2\u8g2\csrc/u8x8_d_uc1611.c ****   }
 150              		.loc 1 133 0
 151 008e 0020     		movs	r0, #0
 152              	.LVL24:
 136:..\..\..\u8g2\u8g2\csrc/u8x8_d_uc1611.c **** }
 153              		.loc 1 136 0
 154 0090 F8BD     		pop	{r3, r4, r5, r6, r7, pc}
 155              		.cfi_endproc
 156              	.LFE0:
 157              		.size	u8x8_d_uc1611_common, .-u8x8_d_uc1611_common
 158              		.section	.text.u8x8_d_uc1611_ea_dogm240,"ax",%progbits
 159              		.align	1
 160              		.global	u8x8_d_uc1611_ea_dogm240
 161              		.thumb
 162              		.thumb_func
 163              		.type	u8x8_d_uc1611_ea_dogm240, %function
 164              	u8x8_d_uc1611_ea_dogm240:
 165              	.LFB1:
 137:..\..\..\u8g2\u8g2\csrc/u8x8_d_uc1611.c **** 
 138:..\..\..\u8g2\u8g2\csrc/u8x8_d_uc1611.c **** /*================================================*/
 139:..\..\..\u8g2\u8g2\csrc/u8x8_d_uc1611.c **** /* EA DOGM240 */
 140:..\..\..\u8g2\u8g2\csrc/u8x8_d_uc1611.c **** 
 141:..\..\..\u8g2\u8g2\csrc/u8x8_d_uc1611.c **** 
 142:..\..\..\u8g2\u8g2\csrc/u8x8_d_uc1611.c **** /*
 143:..\..\..\u8g2\u8g2\csrc/u8x8_d_uc1611.c ****   UC1611 has two chip select inputs (CS0 and CS1).
 144:..\..\..\u8g2\u8g2\csrc/u8x8_d_uc1611.c ****   CS0 is low active, CS1 is high active. It will depend on the display
 145:..\..\..\u8g2\u8g2\csrc/u8x8_d_uc1611.c ****   module whether the display has a is low or high active chip select.
 146:..\..\..\u8g2\u8g2\csrc/u8x8_d_uc1611.c **** */
 147:..\..\..\u8g2\u8g2\csrc/u8x8_d_uc1611.c **** 
 148:..\..\..\u8g2\u8g2\csrc/u8x8_d_uc1611.c **** static const u8x8_display_info_t u8x8_uc1611_240x64_display_info =
 149:..\..\..\u8g2\u8g2\csrc/u8x8_d_uc1611.c **** {
 150:..\..\..\u8g2\u8g2\csrc/u8x8_d_uc1611.c ****   /* chip_enable_level = */ 0,
 151:..\..\..\u8g2\u8g2\csrc/u8x8_d_uc1611.c ****   /* chip_disable_level = */ 1,
 152:..\..\..\u8g2\u8g2\csrc/u8x8_d_uc1611.c ****   
 153:..\..\..\u8g2\u8g2\csrc/u8x8_d_uc1611.c ****   /* post_chip_enable_wait_ns = */ 10,	/* uc1611 datasheet, page 60, actually 0 */
 154:..\..\..\u8g2\u8g2\csrc/u8x8_d_uc1611.c ****   /* pre_chip_disable_wait_ns = */ 10,	/* uc1611 datasheet, page 60, actually 0 */
 155:..\..\..\u8g2\u8g2\csrc/u8x8_d_uc1611.c ****   /* reset_pulse_width_ms = */ 1, 
 156:..\..\..\u8g2\u8g2\csrc/u8x8_d_uc1611.c ****   /* post_reset_wait_ms = */ 10, 	/* uc1611 datasheet, page 67 */
 157:..\..\..\u8g2\u8g2\csrc/u8x8_d_uc1611.c ****   /* sda_setup_time_ns = */ 10,		/* uc1611 datasheet, page 64, actually 0 */
 158:..\..\..\u8g2\u8g2\csrc/u8x8_d_uc1611.c ****   /* sck_pulse_width_ns = */ 60,	/* half of cycle time  */
 159:..\..\..\u8g2\u8g2\csrc/u8x8_d_uc1611.c ****   /* sck_clock_hz = */ 8000000UL,	/* since Arduino 1.6.0, the SPI bus speed in Hz. Should be  10000
 160:..\..\..\u8g2\u8g2\csrc/u8x8_d_uc1611.c ****   /* spi_mode = */ 0,		/* active high, rising edge */
 161:..\..\..\u8g2\u8g2\csrc/u8x8_d_uc1611.c ****   /* i2c_bus_clock_100kHz = */ 4,
 162:..\..\..\u8g2\u8g2\csrc/u8x8_d_uc1611.c ****   /* data_setup_time_ns = */ 30,	/* uc1611 datasheet, page 60 */
 163:..\..\..\u8g2\u8g2\csrc/u8x8_d_uc1611.c ****   /* write_pulse_width_ns = */ 80,	/* uc1611 datasheet, page 60 */
 164:..\..\..\u8g2\u8g2\csrc/u8x8_d_uc1611.c ****   /* tile_width = */ 30,		/* width of 30*8=240 pixel */
 165:..\..\..\u8g2\u8g2\csrc/u8x8_d_uc1611.c ****   /* tile_hight = */ 8,
 166:..\..\..\u8g2\u8g2\csrc/u8x8_d_uc1611.c ****   /* default_x_offset = */ 0,
 167:..\..\..\u8g2\u8g2\csrc/u8x8_d_uc1611.c ****   /* flipmode_x_offset = */ 0,
 168:..\..\..\u8g2\u8g2\csrc/u8x8_d_uc1611.c ****   /* pixel_width = */ 240,
 169:..\..\..\u8g2\u8g2\csrc/u8x8_d_uc1611.c ****   /* pixel_height = */ 64
ARM GAS  C:\Users\jesse\AppData\Local\Temp\ccFp01sw.s 			page 7


 170:..\..\..\u8g2\u8g2\csrc/u8x8_d_uc1611.c **** };
 171:..\..\..\u8g2\u8g2\csrc/u8x8_d_uc1611.c **** 
 172:..\..\..\u8g2\u8g2\csrc/u8x8_d_uc1611.c **** static const uint8_t u8x8_d_uc1611_ea_dogm240_init_seq[] = {
 173:..\..\..\u8g2\u8g2\csrc/u8x8_d_uc1611.c ****     
 174:..\..\..\u8g2\u8g2\csrc/u8x8_d_uc1611.c ****   U8X8_START_TRANSFER(),             	/* enable chip, delay is part of the transfer start */
 175:..\..\..\u8g2\u8g2\csrc/u8x8_d_uc1611.c ****   U8X8_C(0x02f),            			/* internal pump control */
 176:..\..\..\u8g2\u8g2\csrc/u8x8_d_uc1611.c ****   U8X8_CA(0x0f1, 63),			/* set COM end */
 177:..\..\..\u8g2\u8g2\csrc/u8x8_d_uc1611.c ****   U8X8_CA(0x0f2, 0x000),		/* display line start */
 178:..\..\..\u8g2\u8g2\csrc/u8x8_d_uc1611.c ****   U8X8_CA(0x0f3, 63),			/* display line end */
 179:..\..\..\u8g2\u8g2\csrc/u8x8_d_uc1611.c ****   U8X8_C(0x0a3),            			/* line rate */
 180:..\..\..\u8g2\u8g2\csrc/u8x8_d_uc1611.c ****   U8X8_CA(0x081, 0x0a4),		/* set contrast, EA default: 0x0b7 */
 181:..\..\..\u8g2\u8g2\csrc/u8x8_d_uc1611.c ****   
 182:..\..\..\u8g2\u8g2\csrc/u8x8_d_uc1611.c ****   //U8X8_C(0x0a9),            			/* display enable */
 183:..\..\..\u8g2\u8g2\csrc/u8x8_d_uc1611.c **** 
 184:..\..\..\u8g2\u8g2\csrc/u8x8_d_uc1611.c ****   U8X8_C(0x0d1),            			/* display pattern */  
 185:..\..\..\u8g2\u8g2\csrc/u8x8_d_uc1611.c ****   U8X8_C(0x089),            			/* auto increment */
 186:..\..\..\u8g2\u8g2\csrc/u8x8_d_uc1611.c ****   U8X8_CA(0x0c0, 0x004),            	/* LCD Mapping */
 187:..\..\..\u8g2\u8g2\csrc/u8x8_d_uc1611.c ****   U8X8_C(0x000),		                /* column low nibble */
 188:..\..\..\u8g2\u8g2\csrc/u8x8_d_uc1611.c ****   U8X8_C(0x010),		                /* column high nibble */  
 189:..\..\..\u8g2\u8g2\csrc/u8x8_d_uc1611.c ****   U8X8_C(0x060),		                /* page adr low */
 190:..\..\..\u8g2\u8g2\csrc/u8x8_d_uc1611.c ****   U8X8_C(0x070),		                /* page adr high */
 191:..\..\..\u8g2\u8g2\csrc/u8x8_d_uc1611.c ****   
 192:..\..\..\u8g2\u8g2\csrc/u8x8_d_uc1611.c ****   
 193:..\..\..\u8g2\u8g2\csrc/u8x8_d_uc1611.c ****   U8X8_END_TRANSFER(),             	/* disable chip */
 194:..\..\..\u8g2\u8g2\csrc/u8x8_d_uc1611.c ****   U8X8_END()             			/* end of sequence */
 195:..\..\..\u8g2\u8g2\csrc/u8x8_d_uc1611.c **** };
 196:..\..\..\u8g2\u8g2\csrc/u8x8_d_uc1611.c **** 
 197:..\..\..\u8g2\u8g2\csrc/u8x8_d_uc1611.c **** /* UC1611s 240x64 display */
 198:..\..\..\u8g2\u8g2\csrc/u8x8_d_uc1611.c **** uint8_t u8x8_d_uc1611_ea_dogm240(u8x8_t *u8x8, uint8_t msg, uint8_t arg_int, void *arg_ptr)
 199:..\..\..\u8g2\u8g2\csrc/u8x8_d_uc1611.c **** {
 166              		.loc 1 199 0
 167              		.cfi_startproc
 168              		@ args = 0, pretend = 0, frame = 0
 169              		@ frame_needed = 0, uses_anonymous_args = 0
 170              	.LVL25:
 171 0000 70B5     		push	{r4, r5, r6, lr}
 172              		.cfi_def_cfa_offset 16
 173              		.cfi_offset 4, -16
 174              		.cfi_offset 5, -12
 175              		.cfi_offset 6, -8
 176              		.cfi_offset 14, -4
 177              		.loc 1 199 0
 178 0002 0446     		mov	r4, r0
 179 0004 0D46     		mov	r5, r1
 180 0006 1646     		mov	r6, r2
 200:..\..\..\u8g2\u8g2\csrc/u8x8_d_uc1611.c ****   /* call common procedure first and handle messages there */
 201:..\..\..\u8g2\u8g2\csrc/u8x8_d_uc1611.c ****   if ( u8x8_d_uc1611_common(u8x8, msg, arg_int, arg_ptr) == 0 )
 181              		.loc 1 201 0
 182 0008 FFF7FEFF 		bl	u8x8_d_uc1611_common
 183              	.LVL26:
 184 000c 50BB     		cbnz	r0, .L20
 202:..\..\..\u8g2\u8g2\csrc/u8x8_d_uc1611.c ****   {
 203:..\..\..\u8g2\u8g2\csrc/u8x8_d_uc1611.c ****     /* msg not handled, then try here */
 204:..\..\..\u8g2\u8g2\csrc/u8x8_d_uc1611.c ****     switch(msg)
 185              		.loc 1 204 0
 186 000e A5F10901 		sub	r1, r5, #9
 187 0012 0429     		cmp	r1, #4
ARM GAS  C:\Users\jesse\AppData\Local\Temp\ccFp01sw.s 			page 8


 188 0014 27D8     		bhi	.L12
 189 0016 DFE801F0 		tbb	[pc, r1]
 190              	.L14:
 191 001a 03       		.byte	(.L13-.L14)/2
 192 001b 08       		.byte	(.L15-.L14)/2
 193 001c 0D       		.byte	(.L16-.L14)/2
 194 001d 26       		.byte	(.L12-.L14)/2
 195 001e 15       		.byte	(.L17-.L14)/2
 196 001f 00       		.p2align 1
 197              	.L13:
 205:..\..\..\u8g2\u8g2\csrc/u8x8_d_uc1611.c ****     {
 206:..\..\..\u8g2\u8g2\csrc/u8x8_d_uc1611.c ****       case U8X8_MSG_DISPLAY_SETUP_MEMORY:
 207:..\..\..\u8g2\u8g2\csrc/u8x8_d_uc1611.c **** 	u8x8_d_helper_display_setup_memory(u8x8, &u8x8_uc1611_240x64_display_info);
 198              		.loc 1 207 0
 199 0020 1149     		ldr	r1, .L23
 200 0022 2046     		mov	r0, r4
 201 0024 FFF7FEFF 		bl	u8x8_d_helper_display_setup_memory
 202              	.LVL27:
 203 0028 1CE0     		b	.L20
 204              	.L15:
 208:..\..\..\u8g2\u8g2\csrc/u8x8_d_uc1611.c **** 	break;
 209:..\..\..\u8g2\u8g2\csrc/u8x8_d_uc1611.c ****       case U8X8_MSG_DISPLAY_INIT:
 210:..\..\..\u8g2\u8g2\csrc/u8x8_d_uc1611.c **** 	u8x8_d_helper_display_init(u8x8);
 205              		.loc 1 210 0
 206 002a 2046     		mov	r0, r4
 207 002c FFF7FEFF 		bl	u8x8_d_helper_display_init
 208              	.LVL28:
 211:..\..\..\u8g2\u8g2\csrc/u8x8_d_uc1611.c **** 	u8x8_cad_SendSequence(u8x8, u8x8_d_uc1611_ea_dogm240_init_seq);
 209              		.loc 1 211 0
 210 0030 0E49     		ldr	r1, .L23+4
 211 0032 03E0     		b	.L22
 212              	.L16:
 212:..\..\..\u8g2\u8g2\csrc/u8x8_d_uc1611.c **** 	break;
 213:..\..\..\u8g2\u8g2\csrc/u8x8_d_uc1611.c ****       case U8X8_MSG_DISPLAY_SET_POWER_SAVE:
 214:..\..\..\u8g2\u8g2\csrc/u8x8_d_uc1611.c **** 	if ( arg_int == 0 )
 213              		.loc 1 214 0
 214 0034 0EB9     		cbnz	r6, .L18
 215:..\..\..\u8g2\u8g2\csrc/u8x8_d_uc1611.c **** 	  u8x8_cad_SendSequence(u8x8, u8x8_d_uc1611s_powersave0_seq);
 215              		.loc 1 215 0
 216 0036 0E49     		ldr	r1, .L23+8
 217 0038 00E0     		b	.L22
 218              	.L18:
 216:..\..\..\u8g2\u8g2\csrc/u8x8_d_uc1611.c **** 	else
 217:..\..\..\u8g2\u8g2\csrc/u8x8_d_uc1611.c **** 	  u8x8_cad_SendSequence(u8x8, u8x8_d_uc1611s_powersave1_seq);
 219              		.loc 1 217 0
 220 003a 0E49     		ldr	r1, .L23+12
 221              	.L22:
 222 003c 2046     		mov	r0, r4
 223 003e FFF7FEFF 		bl	u8x8_cad_SendSequence
 224              	.LVL29:
 225 0042 0FE0     		b	.L20
 226              	.L17:
 218:..\..\..\u8g2\u8g2\csrc/u8x8_d_uc1611.c **** 	break;
 219:..\..\..\u8g2\u8g2\csrc/u8x8_d_uc1611.c ****       case U8X8_MSG_DISPLAY_SET_FLIP_MODE:
 220:..\..\..\u8g2\u8g2\csrc/u8x8_d_uc1611.c **** 	if ( arg_int == 0 )
 227              		.loc 1 220 0
 228 0044 36B9     		cbnz	r6, .L19
ARM GAS  C:\Users\jesse\AppData\Local\Temp\ccFp01sw.s 			page 9


 221:..\..\..\u8g2\u8g2\csrc/u8x8_d_uc1611.c **** 	{
 222:..\..\..\u8g2\u8g2\csrc/u8x8_d_uc1611.c **** 	  u8x8_cad_SendSequence(u8x8, u8x8_d_uc1611s_flip0_seq);
 229              		.loc 1 222 0
 230 0046 0C49     		ldr	r1, .L23+16
 231 0048 2046     		mov	r0, r4
 232 004a FFF7FEFF 		bl	u8x8_cad_SendSequence
 233              	.LVL30:
 223:..\..\..\u8g2\u8g2\csrc/u8x8_d_uc1611.c **** 	  u8x8->x_offset = u8x8->display_info->default_x_offset;
 234              		.loc 1 223 0
 235 004e 2368     		ldr	r3, [r4]
 236 0050 9B7C     		ldrb	r3, [r3, #18]	@ zero_extendqisi2
 237 0052 05E0     		b	.L21
 238              	.L19:
 224:..\..\..\u8g2\u8g2\csrc/u8x8_d_uc1611.c **** 	}
 225:..\..\..\u8g2\u8g2\csrc/u8x8_d_uc1611.c **** 	else
 226:..\..\..\u8g2\u8g2\csrc/u8x8_d_uc1611.c **** 	{
 227:..\..\..\u8g2\u8g2\csrc/u8x8_d_uc1611.c **** 	  u8x8_cad_SendSequence(u8x8, u8x8_d_uc1611s_flip1_seq);
 239              		.loc 1 227 0
 240 0054 0949     		ldr	r1, .L23+20
 241 0056 2046     		mov	r0, r4
 242 0058 FFF7FEFF 		bl	u8x8_cad_SendSequence
 243              	.LVL31:
 228:..\..\..\u8g2\u8g2\csrc/u8x8_d_uc1611.c **** 	  u8x8->x_offset = u8x8->display_info->flipmode_x_offset;
 244              		.loc 1 228 0
 245 005c 2368     		ldr	r3, [r4]
 246 005e DB7C     		ldrb	r3, [r3, #19]	@ zero_extendqisi2
 247              	.L21:
 248 0060 84F82230 		strb	r3, [r4, #34]
 249              	.L20:
 229:..\..\..\u8g2\u8g2\csrc/u8x8_d_uc1611.c **** 	}	
 230:..\..\..\u8g2\u8g2\csrc/u8x8_d_uc1611.c **** 	break;
 231:..\..\..\u8g2\u8g2\csrc/u8x8_d_uc1611.c ****       default:
 232:..\..\..\u8g2\u8g2\csrc/u8x8_d_uc1611.c **** 	return 0;		/* msg unknown */
 233:..\..\..\u8g2\u8g2\csrc/u8x8_d_uc1611.c ****     }
 234:..\..\..\u8g2\u8g2\csrc/u8x8_d_uc1611.c ****   }
 235:..\..\..\u8g2\u8g2\csrc/u8x8_d_uc1611.c ****   return 1;
 250              		.loc 1 235 0
 251 0064 0120     		movs	r0, #1
 252              	.L12:
 236:..\..\..\u8g2\u8g2\csrc/u8x8_d_uc1611.c **** }
 253              		.loc 1 236 0
 254 0066 70BD     		pop	{r4, r5, r6, pc}
 255              	.LVL32:
 256              	.L24:
 257              		.align	2
 258              	.L23:
 259 0068 00000000 		.word	.LANCHOR0
 260 006c 18000000 		.word	.LANCHOR0+24
 261 0070 3F000000 		.word	.LANCHOR0+63
 262 0074 44000000 		.word	.LANCHOR0+68
 263 0078 49000000 		.word	.LANCHOR0+73
 264 007c 50000000 		.word	.LANCHOR0+80
 265              		.cfi_endproc
 266              	.LFE1:
 267              		.size	u8x8_d_uc1611_ea_dogm240, .-u8x8_d_uc1611_ea_dogm240
 268              		.section	.text.u8x8_d_uc1611_ea_dogxl240,"ax",%progbits
 269              		.align	1
ARM GAS  C:\Users\jesse\AppData\Local\Temp\ccFp01sw.s 			page 10


 270              		.global	u8x8_d_uc1611_ea_dogxl240
 271              		.thumb
 272              		.thumb_func
 273              		.type	u8x8_d_uc1611_ea_dogxl240, %function
 274              	u8x8_d_uc1611_ea_dogxl240:
 275              	.LFB2:
 237:..\..\..\u8g2\u8g2\csrc/u8x8_d_uc1611.c **** 
 238:..\..\..\u8g2\u8g2\csrc/u8x8_d_uc1611.c **** /*================================================*/
 239:..\..\..\u8g2\u8g2\csrc/u8x8_d_uc1611.c **** /* EA DOGXL240 */
 240:..\..\..\u8g2\u8g2\csrc/u8x8_d_uc1611.c **** 
 241:..\..\..\u8g2\u8g2\csrc/u8x8_d_uc1611.c **** static const uint8_t u8x8_d_uc1611_ea_dogxl240_init_seq[] = {
 242:..\..\..\u8g2\u8g2\csrc/u8x8_d_uc1611.c ****     
 243:..\..\..\u8g2\u8g2\csrc/u8x8_d_uc1611.c ****   U8X8_START_TRANSFER(),             	/* enable chip, delay is part of the transfer start */
 244:..\..\..\u8g2\u8g2\csrc/u8x8_d_uc1611.c ****   U8X8_C(0x02f),            			/* internal pump control */
 245:..\..\..\u8g2\u8g2\csrc/u8x8_d_uc1611.c ****   U8X8_CA(0x0f1, 0x07f),			/* set COM end */
 246:..\..\..\u8g2\u8g2\csrc/u8x8_d_uc1611.c ****   U8X8_CA(0x0f2, 0x000),		/* display line start */
 247:..\..\..\u8g2\u8g2\csrc/u8x8_d_uc1611.c ****   U8X8_CA(0x0f3, 127),		/* display line end */
 248:..\..\..\u8g2\u8g2\csrc/u8x8_d_uc1611.c ****   U8X8_C(0x0a3),            			/* line rate */
 249:..\..\..\u8g2\u8g2\csrc/u8x8_d_uc1611.c ****   U8X8_CA(0x081, 0x08f),		/* set contrast */
 250:..\..\..\u8g2\u8g2\csrc/u8x8_d_uc1611.c ****   
 251:..\..\..\u8g2\u8g2\csrc/u8x8_d_uc1611.c ****   //U8X8_C(0x0a9),            			/* display enable */
 252:..\..\..\u8g2\u8g2\csrc/u8x8_d_uc1611.c **** 
 253:..\..\..\u8g2\u8g2\csrc/u8x8_d_uc1611.c ****   U8X8_C(0x0d1),            			/* display pattern */  
 254:..\..\..\u8g2\u8g2\csrc/u8x8_d_uc1611.c ****   U8X8_C(0x089),            			/* auto increment */
 255:..\..\..\u8g2\u8g2\csrc/u8x8_d_uc1611.c ****   U8X8_CA(0x0c0, 0x004),            	/* LCD Mapping */
 256:..\..\..\u8g2\u8g2\csrc/u8x8_d_uc1611.c ****   U8X8_C(0x000),		                /* column low nibble */
 257:..\..\..\u8g2\u8g2\csrc/u8x8_d_uc1611.c ****   U8X8_C(0x010),		                /* column high nibble */  
 258:..\..\..\u8g2\u8g2\csrc/u8x8_d_uc1611.c ****   U8X8_C(0x060),		                /* page adr low */
 259:..\..\..\u8g2\u8g2\csrc/u8x8_d_uc1611.c ****   U8X8_C(0x070),		                /* page adr high */
 260:..\..\..\u8g2\u8g2\csrc/u8x8_d_uc1611.c ****   
 261:..\..\..\u8g2\u8g2\csrc/u8x8_d_uc1611.c ****   
 262:..\..\..\u8g2\u8g2\csrc/u8x8_d_uc1611.c ****   U8X8_END_TRANSFER(),             	/* disable chip */
 263:..\..\..\u8g2\u8g2\csrc/u8x8_d_uc1611.c ****   U8X8_END()             			/* end of sequence */
 264:..\..\..\u8g2\u8g2\csrc/u8x8_d_uc1611.c **** };
 265:..\..\..\u8g2\u8g2\csrc/u8x8_d_uc1611.c **** 
 266:..\..\..\u8g2\u8g2\csrc/u8x8_d_uc1611.c **** static const u8x8_display_info_t u8x8_uc1611_240x128_display_info =
 267:..\..\..\u8g2\u8g2\csrc/u8x8_d_uc1611.c **** {
 268:..\..\..\u8g2\u8g2\csrc/u8x8_d_uc1611.c ****   /* chip_enable_level = */ 0,
 269:..\..\..\u8g2\u8g2\csrc/u8x8_d_uc1611.c ****   /* chip_disable_level = */ 1,
 270:..\..\..\u8g2\u8g2\csrc/u8x8_d_uc1611.c ****   
 271:..\..\..\u8g2\u8g2\csrc/u8x8_d_uc1611.c ****   /* post_chip_enable_wait_ns = */ 10,	/* uc1611 datasheet, page 60, actually 0 */
 272:..\..\..\u8g2\u8g2\csrc/u8x8_d_uc1611.c ****   /* pre_chip_disable_wait_ns = */ 10,	/* uc1611 datasheet, page 60, actually 0 */
 273:..\..\..\u8g2\u8g2\csrc/u8x8_d_uc1611.c ****   /* reset_pulse_width_ms = */ 1, 
 274:..\..\..\u8g2\u8g2\csrc/u8x8_d_uc1611.c ****   /* post_reset_wait_ms = */ 10, 	/* uc1611 datasheet, page 67 */
 275:..\..\..\u8g2\u8g2\csrc/u8x8_d_uc1611.c ****   /* sda_setup_time_ns = */ 10,		/* uc1611 datasheet, page 64, actually 0 */
 276:..\..\..\u8g2\u8g2\csrc/u8x8_d_uc1611.c ****   /* sck_pulse_width_ns = */ 60,	/* half of cycle time  */
 277:..\..\..\u8g2\u8g2\csrc/u8x8_d_uc1611.c ****   /* sck_clock_hz = */ 8000000UL,	/* since Arduino 1.6.0, the SPI bus speed in Hz. Should be  10000
 278:..\..\..\u8g2\u8g2\csrc/u8x8_d_uc1611.c ****   /* spi_mode = */ 0,		/* active high, rising edge */
 279:..\..\..\u8g2\u8g2\csrc/u8x8_d_uc1611.c ****   /* i2c_bus_clock_100kHz = */ 4,
 280:..\..\..\u8g2\u8g2\csrc/u8x8_d_uc1611.c ****   /* data_setup_time_ns = */ 30,	/* uc1611 datasheet, page 60 */
 281:..\..\..\u8g2\u8g2\csrc/u8x8_d_uc1611.c ****   /* write_pulse_width_ns = */ 80,	/* uc1611 datasheet, page 60 */
 282:..\..\..\u8g2\u8g2\csrc/u8x8_d_uc1611.c ****   /* tile_width = */ 30,		/* width of 30*8=240 pixel */
 283:..\..\..\u8g2\u8g2\csrc/u8x8_d_uc1611.c ****   /* tile_hight = */ 16,
 284:..\..\..\u8g2\u8g2\csrc/u8x8_d_uc1611.c ****   /* default_x_offset = */ 0,
 285:..\..\..\u8g2\u8g2\csrc/u8x8_d_uc1611.c ****   /* flipmode_x_offset = */ 0,
 286:..\..\..\u8g2\u8g2\csrc/u8x8_d_uc1611.c ****   /* pixel_width = */ 240,
 287:..\..\..\u8g2\u8g2\csrc/u8x8_d_uc1611.c ****   /* pixel_height = */ 128
ARM GAS  C:\Users\jesse\AppData\Local\Temp\ccFp01sw.s 			page 11


 288:..\..\..\u8g2\u8g2\csrc/u8x8_d_uc1611.c **** };
 289:..\..\..\u8g2\u8g2\csrc/u8x8_d_uc1611.c **** 
 290:..\..\..\u8g2\u8g2\csrc/u8x8_d_uc1611.c **** /* UC1611s 240x128 display */
 291:..\..\..\u8g2\u8g2\csrc/u8x8_d_uc1611.c **** uint8_t u8x8_d_uc1611_ea_dogxl240(u8x8_t *u8x8, uint8_t msg, uint8_t arg_int, void *arg_ptr)
 292:..\..\..\u8g2\u8g2\csrc/u8x8_d_uc1611.c **** {
 276              		.loc 1 292 0
 277              		.cfi_startproc
 278              		@ args = 0, pretend = 0, frame = 0
 279              		@ frame_needed = 0, uses_anonymous_args = 0
 280              	.LVL33:
 281 0000 70B5     		push	{r4, r5, r6, lr}
 282              		.cfi_def_cfa_offset 16
 283              		.cfi_offset 4, -16
 284              		.cfi_offset 5, -12
 285              		.cfi_offset 6, -8
 286              		.cfi_offset 14, -4
 287              		.loc 1 292 0
 288 0002 0446     		mov	r4, r0
 289 0004 0D46     		mov	r5, r1
 290 0006 1646     		mov	r6, r2
 293:..\..\..\u8g2\u8g2\csrc/u8x8_d_uc1611.c ****   /* call common procedure first and handle messages there */
 294:..\..\..\u8g2\u8g2\csrc/u8x8_d_uc1611.c ****   if ( u8x8_d_uc1611_common(u8x8, msg, arg_int, arg_ptr) == 0 )
 291              		.loc 1 294 0
 292 0008 FFF7FEFF 		bl	u8x8_d_uc1611_common
 293              	.LVL34:
 294 000c 50BB     		cbnz	r0, .L34
 295:..\..\..\u8g2\u8g2\csrc/u8x8_d_uc1611.c ****   {
 296:..\..\..\u8g2\u8g2\csrc/u8x8_d_uc1611.c ****     /* msg not handled, then try here */
 297:..\..\..\u8g2\u8g2\csrc/u8x8_d_uc1611.c ****     switch(msg)
 295              		.loc 1 297 0
 296 000e A5F10901 		sub	r1, r5, #9
 297 0012 0429     		cmp	r1, #4
 298 0014 27D8     		bhi	.L26
 299 0016 DFE801F0 		tbb	[pc, r1]
 300              	.L28:
 301 001a 03       		.byte	(.L27-.L28)/2
 302 001b 08       		.byte	(.L29-.L28)/2
 303 001c 0D       		.byte	(.L30-.L28)/2
 304 001d 26       		.byte	(.L26-.L28)/2
 305 001e 15       		.byte	(.L31-.L28)/2
 306 001f 00       		.p2align 1
 307              	.L27:
 298:..\..\..\u8g2\u8g2\csrc/u8x8_d_uc1611.c ****     {
 299:..\..\..\u8g2\u8g2\csrc/u8x8_d_uc1611.c ****       case U8X8_MSG_DISPLAY_SETUP_MEMORY:
 300:..\..\..\u8g2\u8g2\csrc/u8x8_d_uc1611.c **** 	u8x8_d_helper_display_setup_memory(u8x8, &u8x8_uc1611_240x128_display_info);
 308              		.loc 1 300 0
 309 0020 1149     		ldr	r1, .L37
 310 0022 2046     		mov	r0, r4
 311 0024 FFF7FEFF 		bl	u8x8_d_helper_display_setup_memory
 312              	.LVL35:
 313 0028 1CE0     		b	.L34
 314              	.L29:
 301:..\..\..\u8g2\u8g2\csrc/u8x8_d_uc1611.c **** 	break;
 302:..\..\..\u8g2\u8g2\csrc/u8x8_d_uc1611.c ****       case U8X8_MSG_DISPLAY_INIT:
 303:..\..\..\u8g2\u8g2\csrc/u8x8_d_uc1611.c **** 	u8x8_d_helper_display_init(u8x8);
 315              		.loc 1 303 0
 316 002a 2046     		mov	r0, r4
ARM GAS  C:\Users\jesse\AppData\Local\Temp\ccFp01sw.s 			page 12


 317 002c FFF7FEFF 		bl	u8x8_d_helper_display_init
 318              	.LVL36:
 304:..\..\..\u8g2\u8g2\csrc/u8x8_d_uc1611.c **** 	u8x8_cad_SendSequence(u8x8, u8x8_d_uc1611_ea_dogxl240_init_seq);
 319              		.loc 1 304 0
 320 0030 0E49     		ldr	r1, .L37+4
 321 0032 03E0     		b	.L36
 322              	.L30:
 305:..\..\..\u8g2\u8g2\csrc/u8x8_d_uc1611.c **** 	break;
 306:..\..\..\u8g2\u8g2\csrc/u8x8_d_uc1611.c ****       case U8X8_MSG_DISPLAY_SET_POWER_SAVE:
 307:..\..\..\u8g2\u8g2\csrc/u8x8_d_uc1611.c **** 	if ( arg_int == 0 )
 323              		.loc 1 307 0
 324 0034 0EB9     		cbnz	r6, .L32
 308:..\..\..\u8g2\u8g2\csrc/u8x8_d_uc1611.c **** 	  u8x8_cad_SendSequence(u8x8, u8x8_d_uc1611s_powersave0_seq);
 325              		.loc 1 308 0
 326 0036 0E49     		ldr	r1, .L37+8
 327 0038 00E0     		b	.L36
 328              	.L32:
 309:..\..\..\u8g2\u8g2\csrc/u8x8_d_uc1611.c **** 	else
 310:..\..\..\u8g2\u8g2\csrc/u8x8_d_uc1611.c **** 	  u8x8_cad_SendSequence(u8x8, u8x8_d_uc1611s_powersave1_seq);
 329              		.loc 1 310 0
 330 003a 0E49     		ldr	r1, .L37+12
 331              	.L36:
 332 003c 2046     		mov	r0, r4
 333 003e FFF7FEFF 		bl	u8x8_cad_SendSequence
 334              	.LVL37:
 335 0042 0FE0     		b	.L34
 336              	.L31:
 311:..\..\..\u8g2\u8g2\csrc/u8x8_d_uc1611.c **** 	break;
 312:..\..\..\u8g2\u8g2\csrc/u8x8_d_uc1611.c ****       case U8X8_MSG_DISPLAY_SET_FLIP_MODE:
 313:..\..\..\u8g2\u8g2\csrc/u8x8_d_uc1611.c **** 	if ( arg_int == 0 )
 337              		.loc 1 313 0
 338 0044 36B9     		cbnz	r6, .L33
 314:..\..\..\u8g2\u8g2\csrc/u8x8_d_uc1611.c **** 	{
 315:..\..\..\u8g2\u8g2\csrc/u8x8_d_uc1611.c **** 	  u8x8_cad_SendSequence(u8x8, u8x8_d_uc1611s_flip0_seq);
 339              		.loc 1 315 0
 340 0046 0C49     		ldr	r1, .L37+16
 341 0048 2046     		mov	r0, r4
 342 004a FFF7FEFF 		bl	u8x8_cad_SendSequence
 343              	.LVL38:
 316:..\..\..\u8g2\u8g2\csrc/u8x8_d_uc1611.c **** 	  u8x8->x_offset = u8x8->display_info->default_x_offset;
 344              		.loc 1 316 0
 345 004e 2368     		ldr	r3, [r4]
 346 0050 9B7C     		ldrb	r3, [r3, #18]	@ zero_extendqisi2
 347 0052 05E0     		b	.L35
 348              	.L33:
 317:..\..\..\u8g2\u8g2\csrc/u8x8_d_uc1611.c **** 	}
 318:..\..\..\u8g2\u8g2\csrc/u8x8_d_uc1611.c **** 	else
 319:..\..\..\u8g2\u8g2\csrc/u8x8_d_uc1611.c **** 	{
 320:..\..\..\u8g2\u8g2\csrc/u8x8_d_uc1611.c **** 	  u8x8_cad_SendSequence(u8x8, u8x8_d_uc1611s_flip1_seq);
 349              		.loc 1 320 0
 350 0054 0949     		ldr	r1, .L37+20
 351 0056 2046     		mov	r0, r4
 352 0058 FFF7FEFF 		bl	u8x8_cad_SendSequence
 353              	.LVL39:
 321:..\..\..\u8g2\u8g2\csrc/u8x8_d_uc1611.c **** 	  u8x8->x_offset = u8x8->display_info->flipmode_x_offset;
 354              		.loc 1 321 0
 355 005c 2368     		ldr	r3, [r4]
ARM GAS  C:\Users\jesse\AppData\Local\Temp\ccFp01sw.s 			page 13


 356 005e DB7C     		ldrb	r3, [r3, #19]	@ zero_extendqisi2
 357              	.L35:
 358 0060 84F82230 		strb	r3, [r4, #34]
 359              	.L34:
 322:..\..\..\u8g2\u8g2\csrc/u8x8_d_uc1611.c **** 	}	
 323:..\..\..\u8g2\u8g2\csrc/u8x8_d_uc1611.c **** 	break;
 324:..\..\..\u8g2\u8g2\csrc/u8x8_d_uc1611.c ****       default:
 325:..\..\..\u8g2\u8g2\csrc/u8x8_d_uc1611.c **** 	return 0;		/* msg unknown */
 326:..\..\..\u8g2\u8g2\csrc/u8x8_d_uc1611.c ****     }
 327:..\..\..\u8g2\u8g2\csrc/u8x8_d_uc1611.c ****   }
 328:..\..\..\u8g2\u8g2\csrc/u8x8_d_uc1611.c ****   return 1;
 360              		.loc 1 328 0
 361 0064 0120     		movs	r0, #1
 362              	.L26:
 329:..\..\..\u8g2\u8g2\csrc/u8x8_d_uc1611.c **** }
 363              		.loc 1 329 0
 364 0066 70BD     		pop	{r4, r5, r6, pc}
 365              	.LVL40:
 366              	.L38:
 367              		.align	2
 368              	.L37:
 369 0068 58000000 		.word	.LANCHOR0+88
 370 006c 70000000 		.word	.LANCHOR0+112
 371 0070 3F000000 		.word	.LANCHOR0+63
 372 0074 44000000 		.word	.LANCHOR0+68
 373 0078 49000000 		.word	.LANCHOR0+73
 374 007c 50000000 		.word	.LANCHOR0+80
 375              		.cfi_endproc
 376              	.LFE2:
 377              		.size	u8x8_d_uc1611_ea_dogxl240, .-u8x8_d_uc1611_ea_dogxl240
 378              		.section	.text.u8x8_d_uc1611_ew50850,"ax",%progbits
 379              		.align	1
 380              		.global	u8x8_d_uc1611_ew50850
 381              		.thumb
 382              		.thumb_func
 383              		.type	u8x8_d_uc1611_ew50850, %function
 384              	u8x8_d_uc1611_ew50850:
 385              	.LFB3:
 330:..\..\..\u8g2\u8g2\csrc/u8x8_d_uc1611.c **** 
 331:..\..\..\u8g2\u8g2\csrc/u8x8_d_uc1611.c **** /*================================================*/
 332:..\..\..\u8g2\u8g2\csrc/u8x8_d_uc1611.c **** /* EMERGING DISPLAY, EW50850FLWP 240x160 */
 333:..\..\..\u8g2\u8g2\csrc/u8x8_d_uc1611.c **** /* active high CS (CS1), UC1611 display  */
 334:..\..\..\u8g2\u8g2\csrc/u8x8_d_uc1611.c **** 
 335:..\..\..\u8g2\u8g2\csrc/u8x8_d_uc1611.c **** static const uint8_t u8x8_d_uc1611_ew50850_init_seq[] = {
 336:..\..\..\u8g2\u8g2\csrc/u8x8_d_uc1611.c ****     
 337:..\..\..\u8g2\u8g2\csrc/u8x8_d_uc1611.c ****   U8X8_START_TRANSFER(),             	/* enable chip, delay is part of the transfer start */
 338:..\..\..\u8g2\u8g2\csrc/u8x8_d_uc1611.c ****   U8X8_C(0x02f),            			/* internal pump control */
 339:..\..\..\u8g2\u8g2\csrc/u8x8_d_uc1611.c ****   U8X8_CA(0x0f1, 159),			/* set COM end */
 340:..\..\..\u8g2\u8g2\csrc/u8x8_d_uc1611.c ****   U8X8_CA(0x0f2, 0),			/* display line start */
 341:..\..\..\u8g2\u8g2\csrc/u8x8_d_uc1611.c ****   U8X8_CA(0x0f3, 159),			/* display line end */
 342:..\..\..\u8g2\u8g2\csrc/u8x8_d_uc1611.c ****   U8X8_C(0x0a3),            			/* line rate */
 343:..\..\..\u8g2\u8g2\csrc/u8x8_d_uc1611.c ****   U8X8_CA(0x081, 75),			/* set contrast */
 344:..\..\..\u8g2\u8g2\csrc/u8x8_d_uc1611.c ****   
 345:..\..\..\u8g2\u8g2\csrc/u8x8_d_uc1611.c ****   //U8X8_C(0x0a9),            			/* display enable */
 346:..\..\..\u8g2\u8g2\csrc/u8x8_d_uc1611.c **** 
 347:..\..\..\u8g2\u8g2\csrc/u8x8_d_uc1611.c ****   U8X8_C(0x0d2),            			/* gray level mode: 16 gray shades */  
 348:..\..\..\u8g2\u8g2\csrc/u8x8_d_uc1611.c ****   U8X8_C(0x089),            			/* auto increment */
ARM GAS  C:\Users\jesse\AppData\Local\Temp\ccFp01sw.s 			page 14


 349:..\..\..\u8g2\u8g2\csrc/u8x8_d_uc1611.c ****   U8X8_C(0x0c0),            			/* LCD Mapping Bit 0: MSF, Bit 1: MX, Bit 2: MY */
 350:..\..\..\u8g2\u8g2\csrc/u8x8_d_uc1611.c ****   U8X8_C(0x000),		                /* column low nibble */
 351:..\..\..\u8g2\u8g2\csrc/u8x8_d_uc1611.c ****   U8X8_C(0x010),		                /* column high nibble */  
 352:..\..\..\u8g2\u8g2\csrc/u8x8_d_uc1611.c ****   U8X8_C(0x060),		                /* page adr low */
 353:..\..\..\u8g2\u8g2\csrc/u8x8_d_uc1611.c ****   U8X8_C(0x070),		                /* page adr high */
 354:..\..\..\u8g2\u8g2\csrc/u8x8_d_uc1611.c ****     
 355:..\..\..\u8g2\u8g2\csrc/u8x8_d_uc1611.c ****   U8X8_END_TRANSFER(),             	/* disable chip */
 356:..\..\..\u8g2\u8g2\csrc/u8x8_d_uc1611.c ****   U8X8_END()             			/* end of sequence */
 357:..\..\..\u8g2\u8g2\csrc/u8x8_d_uc1611.c **** };
 358:..\..\..\u8g2\u8g2\csrc/u8x8_d_uc1611.c **** 
 359:..\..\..\u8g2\u8g2\csrc/u8x8_d_uc1611.c **** static const u8x8_display_info_t u8x8_uc1611_ew50850_display_info =
 360:..\..\..\u8g2\u8g2\csrc/u8x8_d_uc1611.c **** {
 361:..\..\..\u8g2\u8g2\csrc/u8x8_d_uc1611.c ****   /* chip_enable_level = */ 1,		/* active high */
 362:..\..\..\u8g2\u8g2\csrc/u8x8_d_uc1611.c ****   /* chip_disable_level = */ 0,
 363:..\..\..\u8g2\u8g2\csrc/u8x8_d_uc1611.c ****   
 364:..\..\..\u8g2\u8g2\csrc/u8x8_d_uc1611.c ****   /* post_chip_enable_wait_ns = */ 10,	/* uc1611 datasheet, page 60, actually 0 */
 365:..\..\..\u8g2\u8g2\csrc/u8x8_d_uc1611.c ****   /* pre_chip_disable_wait_ns = */ 10,	/* uc1611 datasheet, page 60, actually 0 */
 366:..\..\..\u8g2\u8g2\csrc/u8x8_d_uc1611.c ****   /* reset_pulse_width_ms = */ 1, 
 367:..\..\..\u8g2\u8g2\csrc/u8x8_d_uc1611.c ****   /* post_reset_wait_ms = */ 10, 	/* uc1611 datasheet, page 67 */
 368:..\..\..\u8g2\u8g2\csrc/u8x8_d_uc1611.c ****   /* sda_setup_time_ns = */ 10,		/* uc1611 datasheet, page 64, actually 0 */
 369:..\..\..\u8g2\u8g2\csrc/u8x8_d_uc1611.c ****   /* sck_pulse_width_ns = */ 60,	/* half of cycle time  */
 370:..\..\..\u8g2\u8g2\csrc/u8x8_d_uc1611.c ****   /* sck_clock_hz = */ 8000000UL,	/* since Arduino 1.6.0, the SPI bus speed in Hz. Should be  10000
 371:..\..\..\u8g2\u8g2\csrc/u8x8_d_uc1611.c ****   /* spi_mode = */ 0,		/* active high, rising edge */
 372:..\..\..\u8g2\u8g2\csrc/u8x8_d_uc1611.c ****   /* i2c_bus_clock_100kHz = */ 4,
 373:..\..\..\u8g2\u8g2\csrc/u8x8_d_uc1611.c ****   /* data_setup_time_ns = */ 30,	/* uc1611 datasheet, page 60 */
 374:..\..\..\u8g2\u8g2\csrc/u8x8_d_uc1611.c ****   /* write_pulse_width_ns = */ 80,	/* uc1611 datasheet, page 60 */
 375:..\..\..\u8g2\u8g2\csrc/u8x8_d_uc1611.c ****   /* tile_width = */ 30,		/* width of 30*8=240 pixel */
 376:..\..\..\u8g2\u8g2\csrc/u8x8_d_uc1611.c ****   /* tile_hight = */ 20,		/* height: 160 pixel */
 377:..\..\..\u8g2\u8g2\csrc/u8x8_d_uc1611.c ****   /* default_x_offset = */ 0,
 378:..\..\..\u8g2\u8g2\csrc/u8x8_d_uc1611.c ****   /* flipmode_x_offset = */ 0,
 379:..\..\..\u8g2\u8g2\csrc/u8x8_d_uc1611.c ****   /* pixel_width = */ 240,
 380:..\..\..\u8g2\u8g2\csrc/u8x8_d_uc1611.c ****   /* pixel_height = */ 160
 381:..\..\..\u8g2\u8g2\csrc/u8x8_d_uc1611.c **** };
 382:..\..\..\u8g2\u8g2\csrc/u8x8_d_uc1611.c **** 
 383:..\..\..\u8g2\u8g2\csrc/u8x8_d_uc1611.c **** static const uint8_t u8x8_d_uc1611_alt_flip0_seq[] = {
 384:..\..\..\u8g2\u8g2\csrc/u8x8_d_uc1611.c ****   U8X8_START_TRANSFER(),             	/* enable chip, delay is part of the transfer start */
 385:..\..\..\u8g2\u8g2\csrc/u8x8_d_uc1611.c ****   U8X8_C(0x0c0),				/* LCD Mapping Bit 0: MSF, Bit 1: MX, Bit 2: MY */
 386:..\..\..\u8g2\u8g2\csrc/u8x8_d_uc1611.c ****   U8X8_END_TRANSFER(),             	/* disable chip */
 387:..\..\..\u8g2\u8g2\csrc/u8x8_d_uc1611.c ****   U8X8_END()             			/* end of sequence */
 388:..\..\..\u8g2\u8g2\csrc/u8x8_d_uc1611.c **** };
 389:..\..\..\u8g2\u8g2\csrc/u8x8_d_uc1611.c **** 
 390:..\..\..\u8g2\u8g2\csrc/u8x8_d_uc1611.c **** static const uint8_t u8x8_d_uc1611_alt_flip1_seq[] = {
 391:..\..\..\u8g2\u8g2\csrc/u8x8_d_uc1611.c ****   U8X8_START_TRANSFER(),             	/* enable chip, delay is part of the transfer start */
 392:..\..\..\u8g2\u8g2\csrc/u8x8_d_uc1611.c ****   U8X8_C(0x0c6),				/* LCD Mapping Bit 0: MSF, Bit 1: MX, Bit 2: MY */
 393:..\..\..\u8g2\u8g2\csrc/u8x8_d_uc1611.c ****   U8X8_END_TRANSFER(),             	/* disable chip */
 394:..\..\..\u8g2\u8g2\csrc/u8x8_d_uc1611.c ****   U8X8_END()             			/* end of sequence */
 395:..\..\..\u8g2\u8g2\csrc/u8x8_d_uc1611.c **** };
 396:..\..\..\u8g2\u8g2\csrc/u8x8_d_uc1611.c **** 
 397:..\..\..\u8g2\u8g2\csrc/u8x8_d_uc1611.c **** static const uint8_t u8x8_d_uc1611_powersave0_seq[] = {
 398:..\..\..\u8g2\u8g2\csrc/u8x8_d_uc1611.c ****   U8X8_START_TRANSFER(),             	/* enable chip, delay is part of the transfer start */
 399:..\..\..\u8g2\u8g2\csrc/u8x8_d_uc1611.c ****   U8X8_C(0x0af),		                /* display on, UC1611 */
 400:..\..\..\u8g2\u8g2\csrc/u8x8_d_uc1611.c ****   U8X8_END_TRANSFER(),             	/* disable chip */
 401:..\..\..\u8g2\u8g2\csrc/u8x8_d_uc1611.c ****   U8X8_END()             			/* end of sequence */
 402:..\..\..\u8g2\u8g2\csrc/u8x8_d_uc1611.c **** };
 403:..\..\..\u8g2\u8g2\csrc/u8x8_d_uc1611.c **** 
 404:..\..\..\u8g2\u8g2\csrc/u8x8_d_uc1611.c **** static const uint8_t u8x8_d_uc1611_powersave1_seq[] = {
 405:..\..\..\u8g2\u8g2\csrc/u8x8_d_uc1611.c ****   U8X8_START_TRANSFER(),             	/* enable chip, delay is part of the transfer start */
ARM GAS  C:\Users\jesse\AppData\Local\Temp\ccFp01sw.s 			page 15


 406:..\..\..\u8g2\u8g2\csrc/u8x8_d_uc1611.c ****   U8X8_C(0x0a8),		                /* display off, enter sleep mode, UC1611 */
 407:..\..\..\u8g2\u8g2\csrc/u8x8_d_uc1611.c ****   U8X8_END_TRANSFER(),             	/* disable chip */
 408:..\..\..\u8g2\u8g2\csrc/u8x8_d_uc1611.c ****   U8X8_END()             			/* end of sequence */
 409:..\..\..\u8g2\u8g2\csrc/u8x8_d_uc1611.c **** };
 410:..\..\..\u8g2\u8g2\csrc/u8x8_d_uc1611.c **** 
 411:..\..\..\u8g2\u8g2\csrc/u8x8_d_uc1611.c **** 
 412:..\..\..\u8g2\u8g2\csrc/u8x8_d_uc1611.c **** /* EW50850, 240x160 */
 413:..\..\..\u8g2\u8g2\csrc/u8x8_d_uc1611.c **** uint8_t u8x8_d_uc1611_ew50850(u8x8_t *u8x8, uint8_t msg, uint8_t arg_int, void *arg_ptr)
 414:..\..\..\u8g2\u8g2\csrc/u8x8_d_uc1611.c **** {
 386              		.loc 1 414 0
 387              		.cfi_startproc
 388              		@ args = 0, pretend = 0, frame = 24
 389              		@ frame_needed = 0, uses_anonymous_args = 0
 390              	.LVL41:
 391 0000 2DE9F04F 		push	{r4, r5, r6, r7, r8, r9, r10, fp, lr}
 392              		.cfi_def_cfa_offset 36
 393              		.cfi_offset 4, -36
 394              		.cfi_offset 5, -32
 395              		.cfi_offset 6, -28
 396              		.cfi_offset 7, -24
 397              		.cfi_offset 8, -20
 398              		.cfi_offset 9, -16
 399              		.cfi_offset 10, -12
 400              		.cfi_offset 11, -8
 401              		.cfi_offset 14, -4
 415:..\..\..\u8g2\u8g2\csrc/u8x8_d_uc1611.c ****   uint8_t x, y, c, i, v, m0, m1, ai;
 416:..\..\..\u8g2\u8g2\csrc/u8x8_d_uc1611.c ****   uint8_t *ptr;
 417:..\..\..\u8g2\u8g2\csrc/u8x8_d_uc1611.c ****   /* msg not handled, then try here */
 418:..\..\..\u8g2\u8g2\csrc/u8x8_d_uc1611.c ****   switch(msg)
 402              		.loc 1 418 0
 403 0004 0939     		subs	r1, r1, #9
 404              	.LVL42:
 414:..\..\..\u8g2\u8g2\csrc/u8x8_d_uc1611.c ****   uint8_t x, y, c, i, v, m0, m1, ai;
 405              		.loc 1 414 0
 406 0006 87B0     		sub	sp, sp, #28
 407              		.cfi_def_cfa_offset 64
 414:..\..\..\u8g2\u8g2\csrc/u8x8_d_uc1611.c ****   uint8_t x, y, c, i, v, m0, m1, ai;
 408              		.loc 1 414 0
 409 0008 0446     		mov	r4, r0
 410 000a 9246     		mov	r10, r2
 411 000c 9B46     		mov	fp, r3
 412              		.loc 1 418 0
 413 000e 0629     		cmp	r1, #6
 414 0010 00F2A080 		bhi	.L56
 415 0014 DFE801F0 		tbb	[pc, r1]
 416              	.LVL43:
 417              	.L42:
 418 0018 70       		.byte	(.L41-.L42)/2
 419 0019 74       		.byte	(.L43-.L42)/2
 420 001a 78       		.byte	(.L44-.L42)/2
 421 001b 9E       		.byte	(.L56-.L42)/2
 422 001c 80       		.byte	(.L45-.L42)/2
 423 001d 90       		.byte	(.L46-.L42)/2
 424 001e 04       		.byte	(.L47-.L42)/2
 425 001f 00       		.p2align 1
 426              	.L47:
 419:..\..\..\u8g2\u8g2\csrc/u8x8_d_uc1611.c ****   {
ARM GAS  C:\Users\jesse\AppData\Local\Temp\ccFp01sw.s 			page 16


 420:..\..\..\u8g2\u8g2\csrc/u8x8_d_uc1611.c ****     case U8X8_MSG_DISPLAY_DRAW_TILE:
 421:..\..\..\u8g2\u8g2\csrc/u8x8_d_uc1611.c ****       u8x8_cad_StartTransfer(u8x8);
 427              		.loc 1 421 0
 428 0020 FFF7FEFF 		bl	u8x8_cad_StartTransfer
 429              	.LVL44:
 422:..\..\..\u8g2\u8g2\csrc/u8x8_d_uc1611.c ****     
 423:..\..\..\u8g2\u8g2\csrc/u8x8_d_uc1611.c ****       x = ((u8x8_tile_t *)arg_ptr)->x_pos;
 430              		.loc 1 423 0
 431 0024 9BF80520 		ldrb	r2, [fp, #5]	@ zero_extendqisi2
 432              	.LVL45:
 424:..\..\..\u8g2\u8g2\csrc/u8x8_d_uc1611.c ****       x *= 8;
 425:..\..\..\u8g2\u8g2\csrc/u8x8_d_uc1611.c ****       x += u8x8->x_offset;
 433              		.loc 1 425 0
 434 0028 94F82230 		ldrb	r3, [r4, #34]	@ zero_extendqisi2
 426:..\..\..\u8g2\u8g2\csrc/u8x8_d_uc1611.c ****    
 427:..\..\..\u8g2\u8g2\csrc/u8x8_d_uc1611.c ****       y = ((u8x8_tile_t *)arg_ptr)->y_pos;
 428:..\..\..\u8g2\u8g2\csrc/u8x8_d_uc1611.c ****       y*=4;
 429:..\..\..\u8g2\u8g2\csrc/u8x8_d_uc1611.c ****       m0 = 1;
 430:..\..\..\u8g2\u8g2\csrc/u8x8_d_uc1611.c ****       m1 = 2;
 431:..\..\..\u8g2\u8g2\csrc/u8x8_d_uc1611.c ****       for( i = 0; i < 4; i++ )
 432:..\..\..\u8g2\u8g2\csrc/u8x8_d_uc1611.c ****       {
 433:..\..\..\u8g2\u8g2\csrc/u8x8_d_uc1611.c ****         u8x8_cad_SendCmd(u8x8, 0x000 | ((x&15)));
 434:..\..\..\u8g2\u8g2\csrc/u8x8_d_uc1611.c ****         u8x8_cad_SendCmd(u8x8, 0x010 | (x>>4) );
 435              		.loc 1 434 0
 436 002c 0026     		movs	r6, #0
 425:..\..\..\u8g2\u8g2\csrc/u8x8_d_uc1611.c ****    
 437              		.loc 1 425 0
 438 002e 03EBC203 		add	r3, r3, r2, lsl #3
 427:..\..\..\u8g2\u8g2\csrc/u8x8_d_uc1611.c ****       y*=4;
 439              		.loc 1 427 0
 440 0032 9BF80620 		ldrb	r2, [fp, #6]	@ zero_extendqisi2
 441              	.LVL46:
 425:..\..\..\u8g2\u8g2\csrc/u8x8_d_uc1611.c ****    
 442              		.loc 1 425 0
 443 0036 03F0FF03 		and	r3, r3, #255
 444              	.LVL47:
 428:..\..\..\u8g2\u8g2\csrc/u8x8_d_uc1611.c ****       m0 = 1;
 445              		.loc 1 428 0
 446 003a 9200     		lsls	r2, r2, #2
 447              	.LVL48:
 448 003c D2B2     		uxtb	r2, r2
 449 003e 0092     		str	r2, [sp]
 450              	.LVL49:
 451              		.loc 1 434 0
 452 0040 1A09     		lsrs	r2, r3, #4
 453 0042 42F01002 		orr	r2, r2, #16
 433:..\..\..\u8g2\u8g2\csrc/u8x8_d_uc1611.c ****         u8x8_cad_SendCmd(u8x8, 0x010 | (x>>4) );
 454              		.loc 1 433 0
 455 0046 03F00F03 		and	r3, r3, #15
 456              	.LVL50:
 457              		.loc 1 434 0
 458 004a 0192     		str	r2, [sp, #4]
 430:..\..\..\u8g2\u8g2\csrc/u8x8_d_uc1611.c ****       for( i = 0; i < 4; i++ )
 459              		.loc 1 430 0
 460 004c 0227     		movs	r7, #2
 429:..\..\..\u8g2\u8g2\csrc/u8x8_d_uc1611.c ****       m1 = 2;
 461              		.loc 1 429 0
ARM GAS  C:\Users\jesse\AppData\Local\Temp\ccFp01sw.s 			page 17


 462 004e 4FF00108 		mov	r8, #1
 433:..\..\..\u8g2\u8g2\csrc/u8x8_d_uc1611.c ****         u8x8_cad_SendCmd(u8x8, 0x010 | (x>>4) );
 463              		.loc 1 433 0
 464 0052 0293     		str	r3, [sp, #8]
 465              	.LVL51:
 466              	.L53:
 467 0054 009B     		ldr	r3, [sp]
 468 0056 0299     		ldr	r1, [sp, #8]
 469 0058 9D19     		adds	r5, r3, r6
 470 005a 2046     		mov	r0, r4
 471 005c FFF7FEFF 		bl	u8x8_cad_SendCmd
 472              	.LVL52:
 473 0060 EDB2     		uxtb	r5, r5
 474              	.LVL53:
 475              		.loc 1 434 0
 476 0062 0199     		ldr	r1, [sp, #4]
 477 0064 2046     		mov	r0, r4
 478 0066 FFF7FEFF 		bl	u8x8_cad_SendCmd
 479              	.LVL54:
 435:..\..\..\u8g2\u8g2\csrc/u8x8_d_uc1611.c ****     
 436:..\..\..\u8g2\u8g2\csrc/u8x8_d_uc1611.c **** 	u8x8_cad_SendCmd(u8x8, 0x060 | (y&15));
 480              		.loc 1 436 0
 481 006a 05F00F01 		and	r1, r5, #15
 482 006e 41F06001 		orr	r1, r1, #96
 483 0072 2046     		mov	r0, r4
 484 0074 FFF7FEFF 		bl	u8x8_cad_SendCmd
 485              	.LVL55:
 437:..\..\..\u8g2\u8g2\csrc/u8x8_d_uc1611.c **** 	u8x8_cad_SendCmd(u8x8, 0x070 | (y>>4));
 486              		.loc 1 437 0
 487 0078 2909     		lsrs	r1, r5, #4
 488 007a 41F07001 		orr	r1, r1, #112
 489 007e 2046     		mov	r0, r4
 490 0080 FFF7FEFF 		bl	u8x8_cad_SendCmd
 491              	.LVL56:
 438:..\..\..\u8g2\u8g2\csrc/u8x8_d_uc1611.c ****       
 439:..\..\..\u8g2\u8g2\csrc/u8x8_d_uc1611.c **** 	ai = arg_int;
 492              		.loc 1 439 0
 493 0084 D146     		mov	r9, r10
 494              	.LVL57:
 495              	.L52:
 440:..\..\..\u8g2\u8g2\csrc/u8x8_d_uc1611.c **** 	do
 441:..\..\..\u8g2\u8g2\csrc/u8x8_d_uc1611.c **** 	{
 442:..\..\..\u8g2\u8g2\csrc/u8x8_d_uc1611.c **** 	  c = ((u8x8_tile_t *)arg_ptr)->cnt;
 496              		.loc 1 442 0
 497 0086 9BF80450 		ldrb	r5, [fp, #4]	@ zero_extendqisi2
 498              	.LVL58:
 499 008a DBF80030 		ldr	r3, [fp]
 443:..\..\..\u8g2\u8g2\csrc/u8x8_d_uc1611.c **** 	  c *= 8;
 500              		.loc 1 443 0
 501 008e ED00     		lsls	r5, r5, #3
 502              	.LVL59:
 503 0090 EDB2     		uxtb	r5, r5
 504              	.LVL60:
 505              	.L48:
 444:..\..\..\u8g2\u8g2\csrc/u8x8_d_uc1611.c **** 	  ptr = ((u8x8_tile_t *)arg_ptr)->tile_ptr;
 445:..\..\..\u8g2\u8g2\csrc/u8x8_d_uc1611.c **** 	  while( c > 0 )
 506              		.loc 1 445 0
ARM GAS  C:\Users\jesse\AppData\Local\Temp\ccFp01sw.s 			page 18


 507 0092 15B3     		cbz	r5, .L69
 446:..\..\..\u8g2\u8g2\csrc/u8x8_d_uc1611.c **** 	  {
 447:..\..\..\u8g2\u8g2\csrc/u8x8_d_uc1611.c **** 	    v = 0;
 508              		.loc 1 447 0
 509 0094 4FF00002 		mov	r2, #0
 510 0098 8DF81720 		strb	r2, [sp, #23]
 448:..\..\..\u8g2\u8g2\csrc/u8x8_d_uc1611.c **** 	    if ( *ptr & m0 )
 511              		.loc 1 448 0
 512 009c 1978     		ldrb	r1, [r3]	@ zero_extendqisi2
 513 009e 1A46     		mov	r2, r3
 514 00a0 18EA010F 		tst	r8, r1
 449:..\..\..\u8g2\u8g2\csrc/u8x8_d_uc1611.c **** 	      v|= 0x0f;
 515              		.loc 1 449 0
 516 00a4 1CBF     		itt	ne
 517 00a6 0F21     		movne	r1, #15
 518 00a8 8DF81710 		strbne	r1, [sp, #23]
 450:..\..\..\u8g2\u8g2\csrc/u8x8_d_uc1611.c **** 	    if ( *ptr & m1 )
 519              		.loc 1 450 0
 520 00ac 1278     		ldrb	r2, [r2]	@ zero_extendqisi2
 521 00ae 0133     		adds	r3, r3, #1
 522              	.LVL61:
 523 00b0 1742     		tst	r7, r2
 451:..\..\..\u8g2\u8g2\csrc/u8x8_d_uc1611.c **** 	      v|= 0xf0;
 524              		.loc 1 451 0
 525 00b2 18BF     		it	ne
 526 00b4 9DF81720 		ldrbne	r2, [sp, #23]	@ zero_extendqisi2
 452:..\..\..\u8g2\u8g2\csrc/u8x8_d_uc1611.c **** 	    u8x8_cad_SendData(u8x8, 1, &v);	/* note: SendData can not handle more than 255 bytes */
 527              		.loc 1 452 0
 528 00b8 4FF00101 		mov	r1, #1
 451:..\..\..\u8g2\u8g2\csrc/u8x8_d_uc1611.c **** 	      v|= 0xf0;
 529              		.loc 1 451 0
 530 00bc 1CBF     		itt	ne
 531 00be 62F00F02 		ornne	r2, r2, #15
 532 00c2 8DF81720 		strbne	r2, [sp, #23]
 533              		.loc 1 452 0
 534 00c6 2046     		mov	r0, r4
 535 00c8 0DF11702 		add	r2, sp, #23
 453:..\..\..\u8g2\u8g2\csrc/u8x8_d_uc1611.c **** 	    c--;
 536              		.loc 1 453 0
 537 00cc 013D     		subs	r5, r5, #1
 538              	.LVL62:
 539 00ce 0393     		str	r3, [sp, #12]
 540 00d0 EDB2     		uxtb	r5, r5
 452:..\..\..\u8g2\u8g2\csrc/u8x8_d_uc1611.c **** 	    u8x8_cad_SendData(u8x8, 1, &v);	/* note: SendData can not handle more than 255 bytes */
 541              		.loc 1 452 0
 542 00d2 FFF7FEFF 		bl	u8x8_cad_SendData
 543              	.LVL63:
 544              		.loc 1 453 0
 545 00d6 039B     		ldr	r3, [sp, #12]
 546              	.LVL64:
 547 00d8 DBE7     		b	.L48
 548              	.L69:
 454:..\..\..\u8g2\u8g2\csrc/u8x8_d_uc1611.c ****             ptr++;
 455:..\..\..\u8g2\u8g2\csrc/u8x8_d_uc1611.c **** 	  }
 456:..\..\..\u8g2\u8g2\csrc/u8x8_d_uc1611.c **** 	  ai--;
 549              		.loc 1 456 0
 550 00da 09F1FF39 		add	r9, r9, #-1
ARM GAS  C:\Users\jesse\AppData\Local\Temp\ccFp01sw.s 			page 19


 551              	.LVL65:
 457:..\..\..\u8g2\u8g2\csrc/u8x8_d_uc1611.c **** 	} while( ai > 0 );
 552              		.loc 1 457 0
 553 00de 19F0FF09 		ands	r9, r9, #255
 554              	.LVL66:
 555 00e2 D0D1     		bne	.L52
 556 00e4 0136     		adds	r6, r6, #1
 557              	.LVL67:
 458:..\..\..\u8g2\u8g2\csrc/u8x8_d_uc1611.c **** 	
 459:..\..\..\u8g2\u8g2\csrc/u8x8_d_uc1611.c **** 	m0 <<= 2;
 558              		.loc 1 459 0 discriminator 2
 559 00e6 4FEA8808 		lsl	r8, r8, #2
 560              	.LVL68:
 460:..\..\..\u8g2\u8g2\csrc/u8x8_d_uc1611.c **** 	m1 <<= 2;
 561              		.loc 1 460 0 discriminator 2
 562 00ea BF00     		lsls	r7, r7, #2
 563              	.LVL69:
 431:..\..\..\u8g2\u8g2\csrc/u8x8_d_uc1611.c ****       {
 564              		.loc 1 431 0 discriminator 2
 565 00ec 042E     		cmp	r6, #4
 459:..\..\..\u8g2\u8g2\csrc/u8x8_d_uc1611.c **** 	m1 <<= 2;
 566              		.loc 1 459 0 discriminator 2
 567 00ee 5FFA88F8 		uxtb	r8, r8
 568              	.LVL70:
 569              		.loc 1 460 0 discriminator 2
 570 00f2 FFB2     		uxtb	r7, r7
 571              	.LVL71:
 431:..\..\..\u8g2\u8g2\csrc/u8x8_d_uc1611.c ****       {
 572              		.loc 1 431 0 discriminator 2
 573 00f4 AED1     		bne	.L53
 574 00f6 29E0     		b	.L67
 575              	.LVL72:
 576              	.L41:
 461:..\..\..\u8g2\u8g2\csrc/u8x8_d_uc1611.c **** 	y++;
 462:..\..\..\u8g2\u8g2\csrc/u8x8_d_uc1611.c ****       }
 463:..\..\..\u8g2\u8g2\csrc/u8x8_d_uc1611.c ****       u8x8_cad_EndTransfer(u8x8);
 464:..\..\..\u8g2\u8g2\csrc/u8x8_d_uc1611.c ****       break;
 465:..\..\..\u8g2\u8g2\csrc/u8x8_d_uc1611.c ****     case U8X8_MSG_DISPLAY_SETUP_MEMORY:
 466:..\..\..\u8g2\u8g2\csrc/u8x8_d_uc1611.c ****       u8x8_d_helper_display_setup_memory(u8x8, &u8x8_uc1611_ew50850_display_info);
 577              		.loc 1 466 0
 578 00f8 1849     		ldr	r1, .L70
 579 00fa FFF7FEFF 		bl	u8x8_d_helper_display_setup_memory
 580              	.LVL73:
 581 00fe 19E0     		b	.L65
 582              	.LVL74:
 583              	.L43:
 467:..\..\..\u8g2\u8g2\csrc/u8x8_d_uc1611.c ****       break;
 468:..\..\..\u8g2\u8g2\csrc/u8x8_d_uc1611.c ****     case U8X8_MSG_DISPLAY_INIT:
 469:..\..\..\u8g2\u8g2\csrc/u8x8_d_uc1611.c ****       u8x8_d_helper_display_init(u8x8);
 584              		.loc 1 469 0
 585 0100 FFF7FEFF 		bl	u8x8_d_helper_display_init
 586              	.LVL75:
 470:..\..\..\u8g2\u8g2\csrc/u8x8_d_uc1611.c ****       u8x8_cad_SendSequence(u8x8, u8x8_d_uc1611_ew50850_init_seq);
 587              		.loc 1 470 0
 588 0104 1649     		ldr	r1, .L70+4
 589 0106 03E0     		b	.L68
 590              	.LVL76:
ARM GAS  C:\Users\jesse\AppData\Local\Temp\ccFp01sw.s 			page 20


 591              	.L44:
 471:..\..\..\u8g2\u8g2\csrc/u8x8_d_uc1611.c ****       break;
 472:..\..\..\u8g2\u8g2\csrc/u8x8_d_uc1611.c ****     case U8X8_MSG_DISPLAY_SET_POWER_SAVE:
 473:..\..\..\u8g2\u8g2\csrc/u8x8_d_uc1611.c ****       if ( arg_int == 0 )
 592              		.loc 1 473 0
 593 0108 0AB9     		cbnz	r2, .L54
 474:..\..\..\u8g2\u8g2\csrc/u8x8_d_uc1611.c **** 	u8x8_cad_SendSequence(u8x8, u8x8_d_uc1611_powersave0_seq);
 594              		.loc 1 474 0
 595 010a 1649     		ldr	r1, .L70+8
 596 010c 00E0     		b	.L68
 597              	.L54:
 475:..\..\..\u8g2\u8g2\csrc/u8x8_d_uc1611.c ****       else
 476:..\..\..\u8g2\u8g2\csrc/u8x8_d_uc1611.c **** 	u8x8_cad_SendSequence(u8x8, u8x8_d_uc1611_powersave1_seq);
 598              		.loc 1 476 0
 599 010e 1649     		ldr	r1, .L70+12
 600              	.LVL77:
 601              	.L68:
 602 0110 2046     		mov	r0, r4
 603 0112 FFF7FEFF 		bl	u8x8_cad_SendSequence
 604              	.LVL78:
 605 0116 0DE0     		b	.L65
 606              	.LVL79:
 607              	.L45:
 477:..\..\..\u8g2\u8g2\csrc/u8x8_d_uc1611.c ****       break;
 478:..\..\..\u8g2\u8g2\csrc/u8x8_d_uc1611.c ****     case U8X8_MSG_DISPLAY_SET_FLIP_MODE:
 479:..\..\..\u8g2\u8g2\csrc/u8x8_d_uc1611.c ****       if ( arg_int == 0 )
 608              		.loc 1 479 0
 609 0118 2AB9     		cbnz	r2, .L55
 480:..\..\..\u8g2\u8g2\csrc/u8x8_d_uc1611.c ****       {
 481:..\..\..\u8g2\u8g2\csrc/u8x8_d_uc1611.c **** 	u8x8_cad_SendSequence(u8x8, u8x8_d_uc1611_alt_flip0_seq);
 610              		.loc 1 481 0
 611 011a 1449     		ldr	r1, .L70+16
 612 011c FFF7FEFF 		bl	u8x8_cad_SendSequence
 613              	.LVL80:
 482:..\..\..\u8g2\u8g2\csrc/u8x8_d_uc1611.c **** 	u8x8->x_offset = u8x8->display_info->default_x_offset;
 614              		.loc 1 482 0
 615 0120 2368     		ldr	r3, [r4]
 616 0122 9B7C     		ldrb	r3, [r3, #18]	@ zero_extendqisi2
 617 0124 04E0     		b	.L66
 618              	.LVL81:
 619              	.L55:
 483:..\..\..\u8g2\u8g2\csrc/u8x8_d_uc1611.c ****       }
 484:..\..\..\u8g2\u8g2\csrc/u8x8_d_uc1611.c ****       else
 485:..\..\..\u8g2\u8g2\csrc/u8x8_d_uc1611.c ****       {
 486:..\..\..\u8g2\u8g2\csrc/u8x8_d_uc1611.c **** 	u8x8_cad_SendSequence(u8x8, u8x8_d_uc1611_alt_flip1_seq);
 620              		.loc 1 486 0
 621 0126 1249     		ldr	r1, .L70+20
 622 0128 FFF7FEFF 		bl	u8x8_cad_SendSequence
 623              	.LVL82:
 487:..\..\..\u8g2\u8g2\csrc/u8x8_d_uc1611.c **** 	u8x8->x_offset = u8x8->display_info->flipmode_x_offset;
 624              		.loc 1 487 0
 625 012c 2368     		ldr	r3, [r4]
 626 012e DB7C     		ldrb	r3, [r3, #19]	@ zero_extendqisi2
 627              	.L66:
 628 0130 84F82230 		strb	r3, [r4, #34]
 629              	.L65:
 488:..\..\..\u8g2\u8g2\csrc/u8x8_d_uc1611.c ****       }	
ARM GAS  C:\Users\jesse\AppData\Local\Temp\ccFp01sw.s 			page 21


 489:..\..\..\u8g2\u8g2\csrc/u8x8_d_uc1611.c ****       break;
 490:..\..\..\u8g2\u8g2\csrc/u8x8_d_uc1611.c **** #ifdef U8X8_WITH_SET_CONTRAST
 491:..\..\..\u8g2\u8g2\csrc/u8x8_d_uc1611.c ****   case U8X8_MSG_DISPLAY_SET_CONTRAST:
 492:..\..\..\u8g2\u8g2\csrc/u8x8_d_uc1611.c ****     u8x8_cad_StartTransfer(u8x8);
 493:..\..\..\u8g2\u8g2\csrc/u8x8_d_uc1611.c ****     u8x8_cad_SendCmd(u8x8, 0x081 );
 494:..\..\..\u8g2\u8g2\csrc/u8x8_d_uc1611.c ****     u8x8_cad_SendArg(u8x8, arg_int  );	/* uc1611 has range from 0 to 255 */
 495:..\..\..\u8g2\u8g2\csrc/u8x8_d_uc1611.c ****     u8x8_cad_EndTransfer(u8x8);
 496:..\..\..\u8g2\u8g2\csrc/u8x8_d_uc1611.c ****     break;
 497:..\..\..\u8g2\u8g2\csrc/u8x8_d_uc1611.c **** #endif
 498:..\..\..\u8g2\u8g2\csrc/u8x8_d_uc1611.c ****     default:
 499:..\..\..\u8g2\u8g2\csrc/u8x8_d_uc1611.c ****       return 0;		/* msg unknown */
 500:..\..\..\u8g2\u8g2\csrc/u8x8_d_uc1611.c ****   }
 501:..\..\..\u8g2\u8g2\csrc/u8x8_d_uc1611.c ****   return 1;
 630              		.loc 1 501 0
 631 0134 0120     		movs	r0, #1
 632 0136 0EE0     		b	.L40
 633              	.LVL83:
 634              	.L46:
 492:..\..\..\u8g2\u8g2\csrc/u8x8_d_uc1611.c ****     u8x8_cad_SendCmd(u8x8, 0x081 );
 635              		.loc 1 492 0
 636 0138 FFF7FEFF 		bl	u8x8_cad_StartTransfer
 637              	.LVL84:
 493:..\..\..\u8g2\u8g2\csrc/u8x8_d_uc1611.c ****     u8x8_cad_SendArg(u8x8, arg_int  );	/* uc1611 has range from 0 to 255 */
 638              		.loc 1 493 0
 639 013c 8121     		movs	r1, #129
 640 013e 2046     		mov	r0, r4
 641 0140 FFF7FEFF 		bl	u8x8_cad_SendCmd
 642              	.LVL85:
 494:..\..\..\u8g2\u8g2\csrc/u8x8_d_uc1611.c ****     u8x8_cad_EndTransfer(u8x8);
 643              		.loc 1 494 0
 644 0144 5146     		mov	r1, r10
 645 0146 2046     		mov	r0, r4
 646 0148 FFF7FEFF 		bl	u8x8_cad_SendArg
 647              	.LVL86:
 648              	.L67:
 495:..\..\..\u8g2\u8g2\csrc/u8x8_d_uc1611.c ****     break;
 649              		.loc 1 495 0
 650 014c 2046     		mov	r0, r4
 651 014e FFF7FEFF 		bl	u8x8_cad_EndTransfer
 652              	.LVL87:
 653 0152 EFE7     		b	.L65
 654              	.LVL88:
 655              	.L56:
 499:..\..\..\u8g2\u8g2\csrc/u8x8_d_uc1611.c ****   }
 656              		.loc 1 499 0
 657 0154 0020     		movs	r0, #0
 658              	.LVL89:
 659              	.L40:
 502:..\..\..\u8g2\u8g2\csrc/u8x8_d_uc1611.c **** }
 660              		.loc 1 502 0
 661 0156 07B0     		add	sp, sp, #28
 662              		.cfi_def_cfa_offset 36
 663              		@ sp needed
 664 0158 BDE8F08F 		pop	{r4, r5, r6, r7, r8, r9, r10, fp, pc}
 665              	.LVL90:
 666              	.L71:
 667              		.align	2
ARM GAS  C:\Users\jesse\AppData\Local\Temp\ccFp01sw.s 			page 22


 668              	.L70:
 669 015c 98000000 		.word	.LANCHOR0+152
 670 0160 B0000000 		.word	.LANCHOR0+176
 671 0164 D5000000 		.word	.LANCHOR0+213
 672 0168 DA000000 		.word	.LANCHOR0+218
 673 016c DF000000 		.word	.LANCHOR0+223
 674 0170 E4000000 		.word	.LANCHOR0+228
 675              		.cfi_endproc
 676              	.LFE3:
 677              		.size	u8x8_d_uc1611_ew50850, .-u8x8_d_uc1611_ew50850
 678              		.section	.text.u8x8_d_uc1611_cg160160,"ax",%progbits
 679              		.align	1
 680              		.global	u8x8_d_uc1611_cg160160
 681              		.thumb
 682              		.thumb_func
 683              		.type	u8x8_d_uc1611_cg160160, %function
 684              	u8x8_d_uc1611_cg160160:
 685              	.LFB4:
 503:..\..\..\u8g2\u8g2\csrc/u8x8_d_uc1611.c **** 
 504:..\..\..\u8g2\u8g2\csrc/u8x8_d_uc1611.c **** 
 505:..\..\..\u8g2\u8g2\csrc/u8x8_d_uc1611.c **** /*================================================*/
 506:..\..\..\u8g2\u8g2\csrc/u8x8_d_uc1611.c **** /* CG160160D, http://www.cloverdisplay.com/pdf/CG160160D.pdf  */
 507:..\..\..\u8g2\u8g2\csrc/u8x8_d_uc1611.c **** 
 508:..\..\..\u8g2\u8g2\csrc/u8x8_d_uc1611.c **** /*
 509:..\..\..\u8g2\u8g2\csrc/u8x8_d_uc1611.c ****   UC1611 has two chip select inputs (CS0 and CS1).
 510:..\..\..\u8g2\u8g2\csrc/u8x8_d_uc1611.c ****   CS0 is low active, CS1 is high active. It will depend on the display
 511:..\..\..\u8g2\u8g2\csrc/u8x8_d_uc1611.c ****   module whether the display has a is low or high active chip select.
 512:..\..\..\u8g2\u8g2\csrc/u8x8_d_uc1611.c **** 
 513:..\..\..\u8g2\u8g2\csrc/u8x8_d_uc1611.c ****   Connect CS1 to 3.3V and CS0 to GPIO
 514:..\..\..\u8g2\u8g2\csrc/u8x8_d_uc1611.c **** */
 515:..\..\..\u8g2\u8g2\csrc/u8x8_d_uc1611.c **** 
 516:..\..\..\u8g2\u8g2\csrc/u8x8_d_uc1611.c **** static const u8x8_display_info_t u8x8_uc1611_cg160160_display_info =
 517:..\..\..\u8g2\u8g2\csrc/u8x8_d_uc1611.c **** {
 518:..\..\..\u8g2\u8g2\csrc/u8x8_d_uc1611.c ****   /* chip_enable_level = */ 0,			/* use CS0 of the UC1611 */
 519:..\..\..\u8g2\u8g2\csrc/u8x8_d_uc1611.c ****   /* chip_disable_level = */ 1,
 520:..\..\..\u8g2\u8g2\csrc/u8x8_d_uc1611.c ****   
 521:..\..\..\u8g2\u8g2\csrc/u8x8_d_uc1611.c ****   /* post_chip_enable_wait_ns = */ 10,	/* uc1611 datasheet, page 60, actually 0 */
 522:..\..\..\u8g2\u8g2\csrc/u8x8_d_uc1611.c ****   /* pre_chip_disable_wait_ns = */ 10,	/* uc1611 datasheet, page 60, actually 0 */
 523:..\..\..\u8g2\u8g2\csrc/u8x8_d_uc1611.c ****   /* reset_pulse_width_ms = */ 1, 
 524:..\..\..\u8g2\u8g2\csrc/u8x8_d_uc1611.c ****   /* post_reset_wait_ms = */ 10, 	/* uc1611 datasheet, page 67 */
 525:..\..\..\u8g2\u8g2\csrc/u8x8_d_uc1611.c ****   /* sda_setup_time_ns = */ 10,		/* uc1611 datasheet, page 64, actually 0 */
 526:..\..\..\u8g2\u8g2\csrc/u8x8_d_uc1611.c ****   /* sck_pulse_width_ns = */ 60,	/* half of cycle time  */
 527:..\..\..\u8g2\u8g2\csrc/u8x8_d_uc1611.c ****   /* sck_clock_hz = */ 8000000UL,	/* since Arduino 1.6.0, the SPI bus speed in Hz. Should be  10000
 528:..\..\..\u8g2\u8g2\csrc/u8x8_d_uc1611.c ****   /* spi_mode = */ 0,		/* active high, rising edge */
 529:..\..\..\u8g2\u8g2\csrc/u8x8_d_uc1611.c ****   /* i2c_bus_clock_100kHz = */ 4,
 530:..\..\..\u8g2\u8g2\csrc/u8x8_d_uc1611.c ****   /* data_setup_time_ns = */ 30,	/* uc1611 datasheet, page 60 */
 531:..\..\..\u8g2\u8g2\csrc/u8x8_d_uc1611.c ****   /* write_pulse_width_ns = */ 80,	/* uc1611 datasheet, page 60 */
 532:..\..\..\u8g2\u8g2\csrc/u8x8_d_uc1611.c ****   /* tile_width = */ 20,		/* width of 20*8=160 pixel */
 533:..\..\..\u8g2\u8g2\csrc/u8x8_d_uc1611.c ****   /* tile_hight = */ 20,
 534:..\..\..\u8g2\u8g2\csrc/u8x8_d_uc1611.c ****   /* default_x_offset = */ 0,
 535:..\..\..\u8g2\u8g2\csrc/u8x8_d_uc1611.c ****   /* flipmode_x_offset = */ 0,
 536:..\..\..\u8g2\u8g2\csrc/u8x8_d_uc1611.c ****   /* pixel_width = */ 160,
 537:..\..\..\u8g2\u8g2\csrc/u8x8_d_uc1611.c ****   /* pixel_height = */ 160
 538:..\..\..\u8g2\u8g2\csrc/u8x8_d_uc1611.c **** };
 539:..\..\..\u8g2\u8g2\csrc/u8x8_d_uc1611.c **** 
 540:..\..\..\u8g2\u8g2\csrc/u8x8_d_uc1611.c **** /*
 541:..\..\..\u8g2\u8g2\csrc/u8x8_d_uc1611.c **** System Reset: E2H 	--> DONE
ARM GAS  C:\Users\jesse\AppData\Local\Temp\ccFp01sw.s 			page 23


 542:..\..\..\u8g2\u8g2\csrc/u8x8_d_uc1611.c **** Set Temp. Compensation: 24H --> DONE
 543:..\..\..\u8g2\u8g2\csrc/u8x8_d_uc1611.c **** Set up LCD format specific parameters MX,MY,etc(double-byte command): C0H,04H  --> FLIP0
 544:..\..\..\u8g2\u8g2\csrc/u8x8_d_uc1611.c **** Set line rate: A3H --> DONE
 545:..\..\..\u8g2\u8g2\csrc/u8x8_d_uc1611.c **** Set Pump Control (internal Vlcd): 2FH --> DONE
 546:..\..\..\u8g2\u8g2\csrc/u8x8_d_uc1611.c **** Set Isolation Clock Front (3 bytes command): 82H, 13H, 01H  --> DONE
 547:..\..\..\u8g2\u8g2\csrc/u8x8_d_uc1611.c **** Set Isolation Clock Back (3 bytes command): 82H, 14H, 00H  --> DONE
 548:..\..\..\u8g2\u8g2\csrc/u8x8_d_uc1611.c **** Set LCD Bias Ratio: EAH 
 549:..\..\..\u8g2\u8g2\csrc/u8x8_d_uc1611.c **** LCD Specific Operation Voltage Setting (double-byte command): 81H, 90H --> DONE
 550:..\..\..\u8g2\u8g2\csrc/u8x8_d_uc1611.c **** Set RAM Address Control: 80H --> DOES NOT MAKE SENSE
 551:..\..\..\u8g2\u8g2\csrc/u8x8_d_uc1611.c **** Set Page Addr. MSB: 72H 		--> DONE
 552:..\..\..\u8g2\u8g2\csrc/u8x8_d_uc1611.c **** Set Page Addr. LSB : 60H 		--> DONE
 553:..\..\..\u8g2\u8g2\csrc/u8x8_d_uc1611.c **** Set Column Addr. LSB: 00H 		--> DONE
 554:..\..\..\u8g2\u8g2\csrc/u8x8_d_uc1611.c **** Set Column Addr.MSB: 10H 		--> DONE
 555:..\..\..\u8g2\u8g2\csrc/u8x8_d_uc1611.c **** Window Program Enable : F8H 		--> NOT REQURED
 556:..\..\..\u8g2\u8g2\csrc/u8x8_d_uc1611.c **** Window Starting Column (double-byte command): F4H , 00H --> NOT REQURED
 557:..\..\..\u8g2\u8g2\csrc/u8x8_d_uc1611.c **** Window Ending Column (double-byte command): F6H, 9FH --> NOT REQURED
 558:..\..\..\u8g2\u8g2\csrc/u8x8_d_uc1611.c **** Set one bit for one pixel: D1H 		--> DONE
 559:..\..\..\u8g2\u8g2\csrc/u8x8_d_uc1611.c **** Set Display Enable: A9H 
 560:..\..\..\u8g2\u8g2\csrc/u8x8_d_uc1611.c **** */
 561:..\..\..\u8g2\u8g2\csrc/u8x8_d_uc1611.c **** 
 562:..\..\..\u8g2\u8g2\csrc/u8x8_d_uc1611.c **** static const uint8_t u8x8_d_uc1611_cg160160_init_seq[] = {
 563:..\..\..\u8g2\u8g2\csrc/u8x8_d_uc1611.c ****     
 564:..\..\..\u8g2\u8g2\csrc/u8x8_d_uc1611.c ****   U8X8_START_TRANSFER(),             	/* enable chip, delay is part of the transfer start */
 565:..\..\..\u8g2\u8g2\csrc/u8x8_d_uc1611.c ****   U8X8_C(0x0e2),				/* system reset */
 566:..\..\..\u8g2\u8g2\csrc/u8x8_d_uc1611.c ****   U8X8_DLY(2),
 567:..\..\..\u8g2\u8g2\csrc/u8x8_d_uc1611.c ****   U8X8_C(0x024),            			/* Temp. Compensation to 0 = -0.05%/ Grad C */
 568:..\..\..\u8g2\u8g2\csrc/u8x8_d_uc1611.c ****   U8X8_C(0x0a3),            			/* line rate */  
 569:..\..\..\u8g2\u8g2\csrc/u8x8_d_uc1611.c ****   U8X8_C(0x02f),            			/* internal pump control */
 570:..\..\..\u8g2\u8g2\csrc/u8x8_d_uc1611.c ****   U8X8_CAA(0x082, 0x013, 0x001), /* Isolation front clock, "1" is the default value */
 571:..\..\..\u8g2\u8g2\csrc/u8x8_d_uc1611.c ****   U8X8_CAA(0x082, 0x014, 0x000), /* Isolation back clock, "0" is the default value */
 572:..\..\..\u8g2\u8g2\csrc/u8x8_d_uc1611.c ****   U8X8_C(0x0ea),            			/* bias ratio, default: 0x0ea */
 573:..\..\..\u8g2\u8g2\csrc/u8x8_d_uc1611.c ****   U8X8_CA(0x081, 0x090),		/* set contrast, CG160160: 0x090 */
 574:..\..\..\u8g2\u8g2\csrc/u8x8_d_uc1611.c ****   
 575:..\..\..\u8g2\u8g2\csrc/u8x8_d_uc1611.c ****   //U8X8_CA(0x0f1, 159),			/* set COM end */
 576:..\..\..\u8g2\u8g2\csrc/u8x8_d_uc1611.c ****   //U8X8_CA(0x0f2, 0),			/* display line start */
 577:..\..\..\u8g2\u8g2\csrc/u8x8_d_uc1611.c ****   //U8X8_CA(0x0f3, 159),			/* display line end */
 578:..\..\..\u8g2\u8g2\csrc/u8x8_d_uc1611.c ****   
 579:..\..\..\u8g2\u8g2\csrc/u8x8_d_uc1611.c ****   //U8X8_C(0x0a9),            			/* display enable */
 580:..\..\..\u8g2\u8g2\csrc/u8x8_d_uc1611.c **** 
 581:..\..\..\u8g2\u8g2\csrc/u8x8_d_uc1611.c ****   U8X8_C(0x089),            			/* RAM Address Control: auto increment */
 582:..\..\..\u8g2\u8g2\csrc/u8x8_d_uc1611.c ****   U8X8_C(0x0d1),            			/* display pattern */  
 583:..\..\..\u8g2\u8g2\csrc/u8x8_d_uc1611.c ****   U8X8_CA(0x0c0, 0x004),            	/* LCD Mapping */
 584:..\..\..\u8g2\u8g2\csrc/u8x8_d_uc1611.c ****   U8X8_C(0x000),		                /* column low nibble */
 585:..\..\..\u8g2\u8g2\csrc/u8x8_d_uc1611.c ****   U8X8_C(0x010),		                /* column high nibble */  
 586:..\..\..\u8g2\u8g2\csrc/u8x8_d_uc1611.c ****   U8X8_C(0x060),		                /* page adr low */
 587:..\..\..\u8g2\u8g2\csrc/u8x8_d_uc1611.c ****   U8X8_C(0x070),		                /* page adr high */
 588:..\..\..\u8g2\u8g2\csrc/u8x8_d_uc1611.c ****   
 589:..\..\..\u8g2\u8g2\csrc/u8x8_d_uc1611.c ****   
 590:..\..\..\u8g2\u8g2\csrc/u8x8_d_uc1611.c ****   U8X8_END_TRANSFER(),             	/* disable chip */
 591:..\..\..\u8g2\u8g2\csrc/u8x8_d_uc1611.c ****   U8X8_END()             			/* end of sequence */
 592:..\..\..\u8g2\u8g2\csrc/u8x8_d_uc1611.c **** };
 593:..\..\..\u8g2\u8g2\csrc/u8x8_d_uc1611.c **** 
 594:..\..\..\u8g2\u8g2\csrc/u8x8_d_uc1611.c **** /* cg160160 display */
 595:..\..\..\u8g2\u8g2\csrc/u8x8_d_uc1611.c **** uint8_t u8x8_d_uc1611_cg160160(u8x8_t *u8x8, uint8_t msg, uint8_t arg_int, void *arg_ptr)
 596:..\..\..\u8g2\u8g2\csrc/u8x8_d_uc1611.c **** {
 686              		.loc 1 596 0
 687              		.cfi_startproc
ARM GAS  C:\Users\jesse\AppData\Local\Temp\ccFp01sw.s 			page 24


 688              		@ args = 0, pretend = 0, frame = 0
 689              		@ frame_needed = 0, uses_anonymous_args = 0
 690              	.LVL91:
 691 0000 70B5     		push	{r4, r5, r6, lr}
 692              		.cfi_def_cfa_offset 16
 693              		.cfi_offset 4, -16
 694              		.cfi_offset 5, -12
 695              		.cfi_offset 6, -8
 696              		.cfi_offset 14, -4
 697              		.loc 1 596 0
 698 0002 0446     		mov	r4, r0
 699 0004 0D46     		mov	r5, r1
 700 0006 1646     		mov	r6, r2
 597:..\..\..\u8g2\u8g2\csrc/u8x8_d_uc1611.c ****   /* call common procedure first and handle messages there */
 598:..\..\..\u8g2\u8g2\csrc/u8x8_d_uc1611.c ****   if ( u8x8_d_uc1611_common(u8x8, msg, arg_int, arg_ptr) == 0 )
 701              		.loc 1 598 0
 702 0008 FFF7FEFF 		bl	u8x8_d_uc1611_common
 703              	.LVL92:
 704 000c 50BB     		cbnz	r0, .L81
 599:..\..\..\u8g2\u8g2\csrc/u8x8_d_uc1611.c ****   {
 600:..\..\..\u8g2\u8g2\csrc/u8x8_d_uc1611.c ****     /* msg not handled, then try here */
 601:..\..\..\u8g2\u8g2\csrc/u8x8_d_uc1611.c ****     switch(msg)
 705              		.loc 1 601 0
 706 000e A5F10901 		sub	r1, r5, #9
 707 0012 0429     		cmp	r1, #4
 708 0014 27D8     		bhi	.L73
 709 0016 DFE801F0 		tbb	[pc, r1]
 710              	.L75:
 711 001a 03       		.byte	(.L74-.L75)/2
 712 001b 08       		.byte	(.L76-.L75)/2
 713 001c 0D       		.byte	(.L77-.L75)/2
 714 001d 26       		.byte	(.L73-.L75)/2
 715 001e 15       		.byte	(.L78-.L75)/2
 716 001f 00       		.p2align 1
 717              	.L74:
 602:..\..\..\u8g2\u8g2\csrc/u8x8_d_uc1611.c ****     {
 603:..\..\..\u8g2\u8g2\csrc/u8x8_d_uc1611.c ****       case U8X8_MSG_DISPLAY_SETUP_MEMORY:
 604:..\..\..\u8g2\u8g2\csrc/u8x8_d_uc1611.c **** 	u8x8_d_helper_display_setup_memory(u8x8, &u8x8_uc1611_cg160160_display_info);
 718              		.loc 1 604 0
 719 0020 1149     		ldr	r1, .L84
 720 0022 2046     		mov	r0, r4
 721 0024 FFF7FEFF 		bl	u8x8_d_helper_display_setup_memory
 722              	.LVL93:
 723 0028 1CE0     		b	.L81
 724              	.L76:
 605:..\..\..\u8g2\u8g2\csrc/u8x8_d_uc1611.c **** 	break;
 606:..\..\..\u8g2\u8g2\csrc/u8x8_d_uc1611.c ****       case U8X8_MSG_DISPLAY_INIT:
 607:..\..\..\u8g2\u8g2\csrc/u8x8_d_uc1611.c **** 	u8x8_d_helper_display_init(u8x8);
 725              		.loc 1 607 0
 726 002a 2046     		mov	r0, r4
 727 002c FFF7FEFF 		bl	u8x8_d_helper_display_init
 728              	.LVL94:
 608:..\..\..\u8g2\u8g2\csrc/u8x8_d_uc1611.c **** 	u8x8_cad_SendSequence(u8x8, u8x8_d_uc1611_cg160160_init_seq);
 729              		.loc 1 608 0
 730 0030 0E49     		ldr	r1, .L84+4
 731 0032 03E0     		b	.L83
 732              	.L77:
ARM GAS  C:\Users\jesse\AppData\Local\Temp\ccFp01sw.s 			page 25


 609:..\..\..\u8g2\u8g2\csrc/u8x8_d_uc1611.c **** 	break;
 610:..\..\..\u8g2\u8g2\csrc/u8x8_d_uc1611.c ****       case U8X8_MSG_DISPLAY_SET_POWER_SAVE:
 611:..\..\..\u8g2\u8g2\csrc/u8x8_d_uc1611.c **** 	if ( arg_int == 0 )
 733              		.loc 1 611 0
 734 0034 0EB9     		cbnz	r6, .L79
 612:..\..\..\u8g2\u8g2\csrc/u8x8_d_uc1611.c **** 	  u8x8_cad_SendSequence(u8x8, u8x8_d_uc1611s_powersave0_seq);
 735              		.loc 1 612 0
 736 0036 0E49     		ldr	r1, .L84+8
 737 0038 00E0     		b	.L83
 738              	.L79:
 613:..\..\..\u8g2\u8g2\csrc/u8x8_d_uc1611.c **** 	else
 614:..\..\..\u8g2\u8g2\csrc/u8x8_d_uc1611.c **** 	  u8x8_cad_SendSequence(u8x8, u8x8_d_uc1611s_powersave1_seq);
 739              		.loc 1 614 0
 740 003a 0E49     		ldr	r1, .L84+12
 741              	.L83:
 742 003c 2046     		mov	r0, r4
 743 003e FFF7FEFF 		bl	u8x8_cad_SendSequence
 744              	.LVL95:
 745 0042 0FE0     		b	.L81
 746              	.L78:
 615:..\..\..\u8g2\u8g2\csrc/u8x8_d_uc1611.c **** 	break;
 616:..\..\..\u8g2\u8g2\csrc/u8x8_d_uc1611.c ****       case U8X8_MSG_DISPLAY_SET_FLIP_MODE:
 617:..\..\..\u8g2\u8g2\csrc/u8x8_d_uc1611.c **** 	if ( arg_int == 0 )
 747              		.loc 1 617 0
 748 0044 36B9     		cbnz	r6, .L80
 618:..\..\..\u8g2\u8g2\csrc/u8x8_d_uc1611.c **** 	{
 619:..\..\..\u8g2\u8g2\csrc/u8x8_d_uc1611.c **** 	  u8x8_cad_SendSequence(u8x8, u8x8_d_uc1611s_flip0_seq);
 749              		.loc 1 619 0
 750 0046 0C49     		ldr	r1, .L84+16
 751 0048 2046     		mov	r0, r4
 752 004a FFF7FEFF 		bl	u8x8_cad_SendSequence
 753              	.LVL96:
 620:..\..\..\u8g2\u8g2\csrc/u8x8_d_uc1611.c **** 	  u8x8->x_offset = u8x8->display_info->default_x_offset;
 754              		.loc 1 620 0
 755 004e 2368     		ldr	r3, [r4]
 756 0050 9B7C     		ldrb	r3, [r3, #18]	@ zero_extendqisi2
 757 0052 05E0     		b	.L82
 758              	.L80:
 621:..\..\..\u8g2\u8g2\csrc/u8x8_d_uc1611.c **** 	}
 622:..\..\..\u8g2\u8g2\csrc/u8x8_d_uc1611.c **** 	else
 623:..\..\..\u8g2\u8g2\csrc/u8x8_d_uc1611.c **** 	{
 624:..\..\..\u8g2\u8g2\csrc/u8x8_d_uc1611.c **** 	  u8x8_cad_SendSequence(u8x8, u8x8_d_uc1611s_flip1_seq);
 759              		.loc 1 624 0
 760 0054 0949     		ldr	r1, .L84+20
 761 0056 2046     		mov	r0, r4
 762 0058 FFF7FEFF 		bl	u8x8_cad_SendSequence
 763              	.LVL97:
 625:..\..\..\u8g2\u8g2\csrc/u8x8_d_uc1611.c **** 	  u8x8->x_offset = u8x8->display_info->flipmode_x_offset;
 764              		.loc 1 625 0
 765 005c 2368     		ldr	r3, [r4]
 766 005e DB7C     		ldrb	r3, [r3, #19]	@ zero_extendqisi2
 767              	.L82:
 768 0060 84F82230 		strb	r3, [r4, #34]
 769              	.L81:
 626:..\..\..\u8g2\u8g2\csrc/u8x8_d_uc1611.c **** 	}	
 627:..\..\..\u8g2\u8g2\csrc/u8x8_d_uc1611.c **** 	break;
 628:..\..\..\u8g2\u8g2\csrc/u8x8_d_uc1611.c ****       default:
ARM GAS  C:\Users\jesse\AppData\Local\Temp\ccFp01sw.s 			page 26


 629:..\..\..\u8g2\u8g2\csrc/u8x8_d_uc1611.c **** 	return 0;		/* msg unknown */
 630:..\..\..\u8g2\u8g2\csrc/u8x8_d_uc1611.c ****     }
 631:..\..\..\u8g2\u8g2\csrc/u8x8_d_uc1611.c ****   }
 632:..\..\..\u8g2\u8g2\csrc/u8x8_d_uc1611.c ****   return 1;
 770              		.loc 1 632 0
 771 0064 0120     		movs	r0, #1
 772              	.L73:
 633:..\..\..\u8g2\u8g2\csrc/u8x8_d_uc1611.c **** }
 773              		.loc 1 633 0
 774 0066 70BD     		pop	{r4, r5, r6, pc}
 775              	.LVL98:
 776              	.L85:
 777              		.align	2
 778              	.L84:
 779 0068 EC000000 		.word	.LANCHOR0+236
 780 006c 04010000 		.word	.LANCHOR0+260
 781 0070 3F000000 		.word	.LANCHOR0+63
 782 0074 44000000 		.word	.LANCHOR0+68
 783 0078 49000000 		.word	.LANCHOR0+73
 784 007c 50000000 		.word	.LANCHOR0+80
 785              		.cfi_endproc
 786              	.LFE4:
 787              		.size	u8x8_d_uc1611_cg160160, .-u8x8_d_uc1611_cg160160
 788              		.section	.text.u8x8_d_uc1611_ids4073,"ax",%progbits
 789              		.align	1
 790              		.global	u8x8_d_uc1611_ids4073
 791              		.thumb
 792              		.thumb_func
 793              		.type	u8x8_d_uc1611_ids4073, %function
 794              	u8x8_d_uc1611_ids4073:
 795              	.LFB5:
 634:..\..\..\u8g2\u8g2\csrc/u8x8_d_uc1611.c **** 
 635:..\..\..\u8g2\u8g2\csrc/u8x8_d_uc1611.c **** 
 636:..\..\..\u8g2\u8g2\csrc/u8x8_d_uc1611.c **** /*================================================*/
 637:..\..\..\u8g2\u8g2\csrc/u8x8_d_uc1611.c **** /* CI064-4073-06 (Intelligent Display Solutions), IDS4073*/
 638:..\..\..\u8g2\u8g2\csrc/u8x8_d_uc1611.c **** /* https://docs.rs-online.com/7e6e/0900766b8156b018.pdf */
 639:..\..\..\u8g2\u8g2\csrc/u8x8_d_uc1611.c **** 
 640:..\..\..\u8g2\u8g2\csrc/u8x8_d_uc1611.c **** static const uint8_t u8x8_d_uc1611_ids4073_init_seq[] = {
 641:..\..\..\u8g2\u8g2\csrc/u8x8_d_uc1611.c ****     
 642:..\..\..\u8g2\u8g2\csrc/u8x8_d_uc1611.c ****   U8X8_START_TRANSFER(),             	/* enable chip, delay is part of the transfer start */
 643:..\..\..\u8g2\u8g2\csrc/u8x8_d_uc1611.c ****   U8X8_C(0x02f),            			/* internal pump control */
 644:..\..\..\u8g2\u8g2\csrc/u8x8_d_uc1611.c ****   U8X8_CA(0x0f1, 0x07f),			/* set COM end */
 645:..\..\..\u8g2\u8g2\csrc/u8x8_d_uc1611.c ****   U8X8_CA(0x0f2, 0x000),		/* display line start */
 646:..\..\..\u8g2\u8g2\csrc/u8x8_d_uc1611.c ****   U8X8_CA(0x0f3, 127),		/* display line end */
 647:..\..\..\u8g2\u8g2\csrc/u8x8_d_uc1611.c ****   U8X8_C(0x0a3),            			/* line rate */
 648:..\..\..\u8g2\u8g2\csrc/u8x8_d_uc1611.c ****   U8X8_CA(0x081, 0x08f),		/* set contrast */
 649:..\..\..\u8g2\u8g2\csrc/u8x8_d_uc1611.c ****   
 650:..\..\..\u8g2\u8g2\csrc/u8x8_d_uc1611.c ****   //U8X8_C(0x0a9),            			/* display enable */
 651:..\..\..\u8g2\u8g2\csrc/u8x8_d_uc1611.c **** 
 652:..\..\..\u8g2\u8g2\csrc/u8x8_d_uc1611.c ****   U8X8_C(0x0d1),            			/* display pattern */  
 653:..\..\..\u8g2\u8g2\csrc/u8x8_d_uc1611.c ****   U8X8_C(0x089),            			/* auto increment */
 654:..\..\..\u8g2\u8g2\csrc/u8x8_d_uc1611.c ****   U8X8_CA(0x0c0, 0x004),            	/* LCD Mapping */
 655:..\..\..\u8g2\u8g2\csrc/u8x8_d_uc1611.c ****   U8X8_C(0x000),		                /* column low nibble */
 656:..\..\..\u8g2\u8g2\csrc/u8x8_d_uc1611.c ****   U8X8_C(0x010),		                /* column high nibble */  
 657:..\..\..\u8g2\u8g2\csrc/u8x8_d_uc1611.c ****   U8X8_C(0x060),		                /* page adr low */
 658:..\..\..\u8g2\u8g2\csrc/u8x8_d_uc1611.c ****   U8X8_C(0x070),		                /* page adr high */
 659:..\..\..\u8g2\u8g2\csrc/u8x8_d_uc1611.c ****   
ARM GAS  C:\Users\jesse\AppData\Local\Temp\ccFp01sw.s 			page 27


 660:..\..\..\u8g2\u8g2\csrc/u8x8_d_uc1611.c ****   
 661:..\..\..\u8g2\u8g2\csrc/u8x8_d_uc1611.c ****   U8X8_END_TRANSFER(),             	/* disable chip */
 662:..\..\..\u8g2\u8g2\csrc/u8x8_d_uc1611.c ****   U8X8_END()             			/* end of sequence */
 663:..\..\..\u8g2\u8g2\csrc/u8x8_d_uc1611.c **** };
 664:..\..\..\u8g2\u8g2\csrc/u8x8_d_uc1611.c **** 
 665:..\..\..\u8g2\u8g2\csrc/u8x8_d_uc1611.c **** 
 666:..\..\..\u8g2\u8g2\csrc/u8x8_d_uc1611.c **** static const u8x8_display_info_t u8x8_uc1611_256x128_display_info =
 667:..\..\..\u8g2\u8g2\csrc/u8x8_d_uc1611.c **** {
 668:..\..\..\u8g2\u8g2\csrc/u8x8_d_uc1611.c ****   /* chip_enable_level = */ 0,
 669:..\..\..\u8g2\u8g2\csrc/u8x8_d_uc1611.c ****   /* chip_disable_level = */ 1,
 670:..\..\..\u8g2\u8g2\csrc/u8x8_d_uc1611.c ****   
 671:..\..\..\u8g2\u8g2\csrc/u8x8_d_uc1611.c ****   /* post_chip_enable_wait_ns = */ 10,	/* uc1611 datasheet, page 60, actually 0 */
 672:..\..\..\u8g2\u8g2\csrc/u8x8_d_uc1611.c ****   /* pre_chip_disable_wait_ns = */ 10,	/* uc1611 datasheet, page 60, actually 0 */
 673:..\..\..\u8g2\u8g2\csrc/u8x8_d_uc1611.c ****   /* reset_pulse_width_ms = */ 1, 
 674:..\..\..\u8g2\u8g2\csrc/u8x8_d_uc1611.c ****   /* post_reset_wait_ms = */ 10, 	/* uc1611 datasheet, page 67 */
 675:..\..\..\u8g2\u8g2\csrc/u8x8_d_uc1611.c ****   /* sda_setup_time_ns = */ 10,		/* uc1611 datasheet, page 64, actually 0 */
 676:..\..\..\u8g2\u8g2\csrc/u8x8_d_uc1611.c ****   /* sck_pulse_width_ns = */ 60,	/* half of cycle time  */
 677:..\..\..\u8g2\u8g2\csrc/u8x8_d_uc1611.c ****   /* sck_clock_hz = */ 8000000UL,	/* since Arduino 1.6.0, the SPI bus speed in Hz. Should be  10000
 678:..\..\..\u8g2\u8g2\csrc/u8x8_d_uc1611.c ****   /* spi_mode = */ 0,		/* active high, rising edge */
 679:..\..\..\u8g2\u8g2\csrc/u8x8_d_uc1611.c ****   /* i2c_bus_clock_100kHz = */ 4,
 680:..\..\..\u8g2\u8g2\csrc/u8x8_d_uc1611.c ****   /* data_setup_time_ns = */ 30,	/* uc1611 datasheet, page 60 */
 681:..\..\..\u8g2\u8g2\csrc/u8x8_d_uc1611.c ****   /* write_pulse_width_ns = */ 80,	/* uc1611 datasheet, page 60 */
 682:..\..\..\u8g2\u8g2\csrc/u8x8_d_uc1611.c ****   /* tile_width = */ 32,		/* width of 32*8=256 pixel */
 683:..\..\..\u8g2\u8g2\csrc/u8x8_d_uc1611.c ****   /* tile_hight = */ 16,
 684:..\..\..\u8g2\u8g2\csrc/u8x8_d_uc1611.c ****   /* default_x_offset = */ 0,
 685:..\..\..\u8g2\u8g2\csrc/u8x8_d_uc1611.c ****   /* flipmode_x_offset = */ 0,
 686:..\..\..\u8g2\u8g2\csrc/u8x8_d_uc1611.c ****   /* pixel_width = */ 256,
 687:..\..\..\u8g2\u8g2\csrc/u8x8_d_uc1611.c ****   /* pixel_height = */ 128
 688:..\..\..\u8g2\u8g2\csrc/u8x8_d_uc1611.c **** };
 689:..\..\..\u8g2\u8g2\csrc/u8x8_d_uc1611.c **** 
 690:..\..\..\u8g2\u8g2\csrc/u8x8_d_uc1611.c **** /* UC1611s 256x128 display */
 691:..\..\..\u8g2\u8g2\csrc/u8x8_d_uc1611.c **** uint8_t u8x8_d_uc1611_ids4073(u8x8_t *u8x8, uint8_t msg, uint8_t arg_int, void *arg_ptr)
 692:..\..\..\u8g2\u8g2\csrc/u8x8_d_uc1611.c **** {
 796              		.loc 1 692 0
 797              		.cfi_startproc
 798              		@ args = 0, pretend = 0, frame = 0
 799              		@ frame_needed = 0, uses_anonymous_args = 0
 800              	.LVL99:
 693:..\..\..\u8g2\u8g2\csrc/u8x8_d_uc1611.c ****   uint8_t x, y, c;
 694:..\..\..\u8g2\u8g2\csrc/u8x8_d_uc1611.c ****   uint8_t *ptr;
 695:..\..\..\u8g2\u8g2\csrc/u8x8_d_uc1611.c ****   switch(msg)
 801              		.loc 1 695 0
 802 0000 0939     		subs	r1, r1, #9
 803              	.LVL100:
 692:..\..\..\u8g2\u8g2\csrc/u8x8_d_uc1611.c ****   uint8_t x, y, c;
 804              		.loc 1 692 0
 805 0002 2DE9F041 		push	{r4, r5, r6, r7, r8, lr}
 806              		.cfi_def_cfa_offset 24
 807              		.cfi_offset 4, -24
 808              		.cfi_offset 5, -20
 809              		.cfi_offset 6, -16
 810              		.cfi_offset 7, -12
 811              		.cfi_offset 8, -8
 812              		.cfi_offset 14, -4
 692:..\..\..\u8g2\u8g2\csrc/u8x8_d_uc1611.c ****   uint8_t x, y, c;
 813              		.loc 1 692 0
 814 0006 0446     		mov	r4, r0
ARM GAS  C:\Users\jesse\AppData\Local\Temp\ccFp01sw.s 			page 28


 815 0008 1546     		mov	r5, r2
 816 000a 1F46     		mov	r7, r3
 817              		.loc 1 695 0
 818 000c 0629     		cmp	r1, #6
 819 000e 70D8     		bhi	.L99
 820 0010 DFE801F0 		tbb	[pc, r1]
 821              	.LVL101:
 822              	.L89:
 823 0014 4E       		.byte	(.L88-.L89)/2
 824 0015 52       		.byte	(.L90-.L89)/2
 825 0016 56       		.byte	(.L91-.L89)/2
 826 0017 6F       		.byte	(.L99-.L89)/2
 827 0018 5E       		.byte	(.L92-.L89)/2
 828 0019 40       		.byte	(.L93-.L89)/2
 829 001a 04       		.byte	(.L94-.L89)/2
 830 001b 00       		.p2align 1
 831              	.L94:
 696:..\..\..\u8g2\u8g2\csrc/u8x8_d_uc1611.c ****   {
 697:..\..\..\u8g2\u8g2\csrc/u8x8_d_uc1611.c ****     case U8X8_MSG_DISPLAY_DRAW_TILE:
 698:..\..\..\u8g2\u8g2\csrc/u8x8_d_uc1611.c ****       u8x8_cad_StartTransfer(u8x8);
 832              		.loc 1 698 0
 833 001c FFF7FEFF 		bl	u8x8_cad_StartTransfer
 834              	.LVL102:
 699:..\..\..\u8g2\u8g2\csrc/u8x8_d_uc1611.c ****     
 700:..\..\..\u8g2\u8g2\csrc/u8x8_d_uc1611.c ****       x = ((u8x8_tile_t *)arg_ptr)->x_pos;
 701:..\..\..\u8g2\u8g2\csrc/u8x8_d_uc1611.c ****       x *= 8;
 702:..\..\..\u8g2\u8g2\csrc/u8x8_d_uc1611.c ****       x += u8x8->x_offset;
 835              		.loc 1 702 0
 836 0020 94F82230 		ldrb	r3, [r4, #34]	@ zero_extendqisi2
 700:..\..\..\u8g2\u8g2\csrc/u8x8_d_uc1611.c ****       x *= 8;
 837              		.loc 1 700 0
 838 0024 7E79     		ldrb	r6, [r7, #5]	@ zero_extendqisi2
 839              	.LVL103:
 703:..\..\..\u8g2\u8g2\csrc/u8x8_d_uc1611.c ****    
 704:..\..\..\u8g2\u8g2\csrc/u8x8_d_uc1611.c ****       u8x8_cad_SendCmd(u8x8, 0x000 | ((x&15)));
 840              		.loc 1 704 0
 841 0026 2046     		mov	r0, r4
 702:..\..\..\u8g2\u8g2\csrc/u8x8_d_uc1611.c ****    
 842              		.loc 1 702 0
 843 0028 03EBC606 		add	r6, r3, r6, lsl #3
 844              	.LVL104:
 845 002c 06F0FF06 		and	r6, r6, #255
 846              	.LVL105:
 847              		.loc 1 704 0
 848 0030 06F00F01 		and	r1, r6, #15
 849 0034 FFF7FEFF 		bl	u8x8_cad_SendCmd
 850              	.LVL106:
 705:..\..\..\u8g2\u8g2\csrc/u8x8_d_uc1611.c ****       u8x8_cad_SendCmd(u8x8, 0x010 | (x>>4) );
 851              		.loc 1 705 0
 852 0038 3109     		lsrs	r1, r6, #4
 853 003a 41F01001 		orr	r1, r1, #16
 854 003e 2046     		mov	r0, r4
 855 0040 FFF7FEFF 		bl	u8x8_cad_SendCmd
 856              	.LVL107:
 706:..\..\..\u8g2\u8g2\csrc/u8x8_d_uc1611.c ****     
 707:..\..\..\u8g2\u8g2\csrc/u8x8_d_uc1611.c ****       y = ((u8x8_tile_t *)arg_ptr)->y_pos;
 857              		.loc 1 707 0
ARM GAS  C:\Users\jesse\AppData\Local\Temp\ccFp01sw.s 			page 29


 858 0044 BE79     		ldrb	r6, [r7, #6]	@ zero_extendqisi2
 859              	.LVL108:
 708:..\..\..\u8g2\u8g2\csrc/u8x8_d_uc1611.c ****       u8x8_cad_SendCmd(u8x8, 0x060 | (y&15));
 860              		.loc 1 708 0
 861 0046 2046     		mov	r0, r4
 862 0048 06F00F01 		and	r1, r6, #15
 863 004c 41F06001 		orr	r1, r1, #96
 864 0050 FFF7FEFF 		bl	u8x8_cad_SendCmd
 865              	.LVL109:
 709:..\..\..\u8g2\u8g2\csrc/u8x8_d_uc1611.c ****       u8x8_cad_SendCmd(u8x8, 0x070 | (y>>4));
 866              		.loc 1 709 0
 867 0054 3109     		lsrs	r1, r6, #4
 868 0056 41F07001 		orr	r1, r1, #112
 869 005a 2046     		mov	r0, r4
 870 005c FFF7FEFF 		bl	u8x8_cad_SendCmd
 871              	.LVL110:
 872              	.L96:
 710:..\..\..\u8g2\u8g2\csrc/u8x8_d_uc1611.c ****     
 711:..\..\..\u8g2\u8g2\csrc/u8x8_d_uc1611.c ****       do
 712:..\..\..\u8g2\u8g2\csrc/u8x8_d_uc1611.c ****       {
 713:..\..\..\u8g2\u8g2\csrc/u8x8_d_uc1611.c ****         c = ((u8x8_tile_t *)arg_ptr)->cnt;
 873              		.loc 1 713 0
 874 0060 3E79     		ldrb	r6, [r7, #4]	@ zero_extendqisi2
 875              	.LVL111:
 714:..\..\..\u8g2\u8g2\csrc/u8x8_d_uc1611.c ****         ptr = ((u8x8_tile_t *)arg_ptr)->tile_ptr;
 876              		.loc 1 714 0
 877 0062 D7F80080 		ldr	r8, [r7]
 878              	.LVL112:
 715:..\..\..\u8g2\u8g2\csrc/u8x8_d_uc1611.c ****         /* SendData can not handle more than 255 bytes */
 716:..\..\..\u8g2\u8g2\csrc/u8x8_d_uc1611.c ****         if ( c > 31 )
 879              		.loc 1 716 0
 880 0066 1F2E     		cmp	r6, #31
 881 0068 08D9     		bls	.L95
 717:..\..\..\u8g2\u8g2\csrc/u8x8_d_uc1611.c ****         {
 718:..\..\..\u8g2\u8g2\csrc/u8x8_d_uc1611.c ****           u8x8_cad_SendData(u8x8, 248, ptr); 	/* 31*8=248 */
 882              		.loc 1 718 0
 883 006a 4246     		mov	r2, r8
 884 006c F821     		movs	r1, #248
 885 006e 2046     		mov	r0, r4
 886 0070 FFF7FEFF 		bl	u8x8_cad_SendData
 887              	.LVL113:
 719:..\..\..\u8g2\u8g2\csrc/u8x8_d_uc1611.c ****           ptr+=248;
 720:..\..\..\u8g2\u8g2\csrc/u8x8_d_uc1611.c ****           c -= 31;
 888              		.loc 1 720 0
 889 0074 1F3E     		subs	r6, r6, #31
 890              	.LVL114:
 719:..\..\..\u8g2\u8g2\csrc/u8x8_d_uc1611.c ****           ptr+=248;
 891              		.loc 1 719 0
 892 0076 08F1F808 		add	r8, r8, #248
 893              	.LVL115:
 894              		.loc 1 720 0
 895 007a F6B2     		uxtb	r6, r6
 896              	.LVL116:
 897              	.L95:
 721:..\..\..\u8g2\u8g2\csrc/u8x8_d_uc1611.c ****         }
 722:..\..\..\u8g2\u8g2\csrc/u8x8_d_uc1611.c ****         
 723:..\..\..\u8g2\u8g2\csrc/u8x8_d_uc1611.c ****         u8x8_cad_SendData(u8x8, c*8, ptr); 	
ARM GAS  C:\Users\jesse\AppData\Local\Temp\ccFp01sw.s 			page 30


 898              		.loc 1 723 0
 899 007c F100     		lsls	r1, r6, #3
 900 007e 4246     		mov	r2, r8
 901 0080 01F0F801 		and	r1, r1, #248
 902 0084 2046     		mov	r0, r4
 724:..\..\..\u8g2\u8g2\csrc/u8x8_d_uc1611.c ****         arg_int--;
 903              		.loc 1 724 0
 904 0086 013D     		subs	r5, r5, #1
 905              	.LVL117:
 723:..\..\..\u8g2\u8g2\csrc/u8x8_d_uc1611.c ****         arg_int--;
 906              		.loc 1 723 0
 907 0088 FFF7FEFF 		bl	u8x8_cad_SendData
 908              	.LVL118:
 725:..\..\..\u8g2\u8g2\csrc/u8x8_d_uc1611.c ****       } while( arg_int > 0 );
 909              		.loc 1 725 0
 910 008c 15F0FF05 		ands	r5, r5, #255
 911              	.LVL119:
 912 0090 E6D1     		bne	.L96
 913 0092 09E0     		b	.L103
 914              	.LVL120:
 915              	.L93:
 726:..\..\..\u8g2\u8g2\csrc/u8x8_d_uc1611.c ****       
 727:..\..\..\u8g2\u8g2\csrc/u8x8_d_uc1611.c ****       u8x8_cad_EndTransfer(u8x8);
 728:..\..\..\u8g2\u8g2\csrc/u8x8_d_uc1611.c ****       break;
 729:..\..\..\u8g2\u8g2\csrc/u8x8_d_uc1611.c **** #ifdef U8X8_WITH_SET_CONTRAST
 730:..\..\..\u8g2\u8g2\csrc/u8x8_d_uc1611.c ****     case U8X8_MSG_DISPLAY_SET_CONTRAST:
 731:..\..\..\u8g2\u8g2\csrc/u8x8_d_uc1611.c ****       u8x8_cad_StartTransfer(u8x8);
 916              		.loc 1 731 0
 917 0094 FFF7FEFF 		bl	u8x8_cad_StartTransfer
 918              	.LVL121:
 732:..\..\..\u8g2\u8g2\csrc/u8x8_d_uc1611.c ****       u8x8_cad_SendCmd(u8x8, 0x081 );
 919              		.loc 1 732 0
 920 0098 8121     		movs	r1, #129
 921 009a 2046     		mov	r0, r4
 922 009c FFF7FEFF 		bl	u8x8_cad_SendCmd
 923              	.LVL122:
 733:..\..\..\u8g2\u8g2\csrc/u8x8_d_uc1611.c ****       u8x8_cad_SendArg(u8x8, arg_int  );	/* uc1611 has range from 0 to 255 */
 924              		.loc 1 733 0
 925 00a0 2946     		mov	r1, r5
 926 00a2 2046     		mov	r0, r4
 927 00a4 FFF7FEFF 		bl	u8x8_cad_SendArg
 928              	.LVL123:
 929              	.L103:
 734:..\..\..\u8g2\u8g2\csrc/u8x8_d_uc1611.c ****       u8x8_cad_EndTransfer(u8x8);
 930              		.loc 1 734 0
 931 00a8 2046     		mov	r0, r4
 932 00aa FFF7FEFF 		bl	u8x8_cad_EndTransfer
 933              	.LVL124:
 934 00ae 17E0     		b	.L101
 935              	.LVL125:
 936              	.L88:
 735:..\..\..\u8g2\u8g2\csrc/u8x8_d_uc1611.c ****       break;
 736:..\..\..\u8g2\u8g2\csrc/u8x8_d_uc1611.c **** #endif
 737:..\..\..\u8g2\u8g2\csrc/u8x8_d_uc1611.c ****     
 738:..\..\..\u8g2\u8g2\csrc/u8x8_d_uc1611.c ****     case U8X8_MSG_DISPLAY_SETUP_MEMORY:
 739:..\..\..\u8g2\u8g2\csrc/u8x8_d_uc1611.c ****       u8x8_d_helper_display_setup_memory(u8x8, &u8x8_uc1611_256x128_display_info);
 937              		.loc 1 739 0
ARM GAS  C:\Users\jesse\AppData\Local\Temp\ccFp01sw.s 			page 31


 938 00b0 1149     		ldr	r1, .L105
 939 00b2 FFF7FEFF 		bl	u8x8_d_helper_display_setup_memory
 940              	.LVL126:
 941 00b6 13E0     		b	.L101
 942              	.LVL127:
 943              	.L90:
 740:..\..\..\u8g2\u8g2\csrc/u8x8_d_uc1611.c ****       break;
 741:..\..\..\u8g2\u8g2\csrc/u8x8_d_uc1611.c ****     case U8X8_MSG_DISPLAY_INIT:
 742:..\..\..\u8g2\u8g2\csrc/u8x8_d_uc1611.c ****       u8x8_d_helper_display_init(u8x8);
 944              		.loc 1 742 0
 945 00b8 FFF7FEFF 		bl	u8x8_d_helper_display_init
 946              	.LVL128:
 743:..\..\..\u8g2\u8g2\csrc/u8x8_d_uc1611.c ****       u8x8_cad_SendSequence(u8x8, u8x8_d_uc1611_ids4073_init_seq);
 947              		.loc 1 743 0
 948 00bc 0F49     		ldr	r1, .L105+4
 949 00be 03E0     		b	.L104
 950              	.LVL129:
 951              	.L91:
 744:..\..\..\u8g2\u8g2\csrc/u8x8_d_uc1611.c ****       break;
 745:..\..\..\u8g2\u8g2\csrc/u8x8_d_uc1611.c ****     case U8X8_MSG_DISPLAY_SET_POWER_SAVE:
 746:..\..\..\u8g2\u8g2\csrc/u8x8_d_uc1611.c ****       if ( arg_int == 0 )
 952              		.loc 1 746 0
 953 00c0 0AB9     		cbnz	r2, .L97
 747:..\..\..\u8g2\u8g2\csrc/u8x8_d_uc1611.c **** 	u8x8_cad_SendSequence(u8x8, u8x8_d_uc1611s_powersave0_seq);
 954              		.loc 1 747 0
 955 00c2 0F49     		ldr	r1, .L105+8
 956 00c4 00E0     		b	.L104
 957              	.L97:
 748:..\..\..\u8g2\u8g2\csrc/u8x8_d_uc1611.c ****       else
 749:..\..\..\u8g2\u8g2\csrc/u8x8_d_uc1611.c **** 	u8x8_cad_SendSequence(u8x8, u8x8_d_uc1611s_powersave1_seq);
 958              		.loc 1 749 0
 959 00c6 0F49     		ldr	r1, .L105+12
 960              	.LVL130:
 961              	.L104:
 962 00c8 2046     		mov	r0, r4
 963 00ca FFF7FEFF 		bl	u8x8_cad_SendSequence
 964              	.LVL131:
 965 00ce 07E0     		b	.L101
 966              	.LVL132:
 967              	.L92:
 750:..\..\..\u8g2\u8g2\csrc/u8x8_d_uc1611.c ****       break;
 751:..\..\..\u8g2\u8g2\csrc/u8x8_d_uc1611.c ****     case U8X8_MSG_DISPLAY_SET_FLIP_MODE:
 752:..\..\..\u8g2\u8g2\csrc/u8x8_d_uc1611.c ****       if ( arg_int == 0 )
 968              		.loc 1 752 0
 969 00d0 4AB9     		cbnz	r2, .L98
 753:..\..\..\u8g2\u8g2\csrc/u8x8_d_uc1611.c ****       {
 754:..\..\..\u8g2\u8g2\csrc/u8x8_d_uc1611.c **** 	u8x8_cad_SendSequence(u8x8, u8x8_d_uc1611s_flip0_seq);
 970              		.loc 1 754 0
 971 00d2 0D49     		ldr	r1, .L105+16
 972 00d4 FFF7FEFF 		bl	u8x8_cad_SendSequence
 973              	.LVL133:
 755:..\..\..\u8g2\u8g2\csrc/u8x8_d_uc1611.c **** 	u8x8->x_offset = u8x8->display_info->default_x_offset;
 974              		.loc 1 755 0
 975 00d8 2368     		ldr	r3, [r4]
 976 00da 9B7C     		ldrb	r3, [r3, #18]	@ zero_extendqisi2
 977              	.L102:
 978 00dc 84F82230 		strb	r3, [r4, #34]
ARM GAS  C:\Users\jesse\AppData\Local\Temp\ccFp01sw.s 			page 32


 979              	.LVL134:
 980              	.L101:
 756:..\..\..\u8g2\u8g2\csrc/u8x8_d_uc1611.c ****       }
 757:..\..\..\u8g2\u8g2\csrc/u8x8_d_uc1611.c ****       else
 758:..\..\..\u8g2\u8g2\csrc/u8x8_d_uc1611.c ****       {
 759:..\..\..\u8g2\u8g2\csrc/u8x8_d_uc1611.c **** 	u8x8_cad_SendSequence(u8x8, u8x8_d_uc1611s_flip1_seq);
 760:..\..\..\u8g2\u8g2\csrc/u8x8_d_uc1611.c **** 	u8x8->x_offset = u8x8->display_info->flipmode_x_offset;
 761:..\..\..\u8g2\u8g2\csrc/u8x8_d_uc1611.c ****       }	
 762:..\..\..\u8g2\u8g2\csrc/u8x8_d_uc1611.c ****       break;
 763:..\..\..\u8g2\u8g2\csrc/u8x8_d_uc1611.c ****     default:
 764:..\..\..\u8g2\u8g2\csrc/u8x8_d_uc1611.c ****       return 0;		/* msg unknown */
 765:..\..\..\u8g2\u8g2\csrc/u8x8_d_uc1611.c ****   }
 766:..\..\..\u8g2\u8g2\csrc/u8x8_d_uc1611.c ****   return 1;
 981              		.loc 1 766 0
 982 00e0 0120     		movs	r0, #1
 983 00e2 BDE8F081 		pop	{r4, r5, r6, r7, r8, pc}
 984              	.LVL135:
 985              	.L98:
 759:..\..\..\u8g2\u8g2\csrc/u8x8_d_uc1611.c **** 	u8x8->x_offset = u8x8->display_info->flipmode_x_offset;
 986              		.loc 1 759 0
 987 00e6 0949     		ldr	r1, .L105+20
 988 00e8 FFF7FEFF 		bl	u8x8_cad_SendSequence
 989              	.LVL136:
 760:..\..\..\u8g2\u8g2\csrc/u8x8_d_uc1611.c ****       }	
 990              		.loc 1 760 0
 991 00ec 2368     		ldr	r3, [r4]
 992 00ee DB7C     		ldrb	r3, [r3, #19]	@ zero_extendqisi2
 993 00f0 F4E7     		b	.L102
 994              	.LVL137:
 995              	.L99:
 764:..\..\..\u8g2\u8g2\csrc/u8x8_d_uc1611.c ****   }
 996              		.loc 1 764 0
 997 00f2 0020     		movs	r0, #0
 998              	.LVL138:
 767:..\..\..\u8g2\u8g2\csrc/u8x8_d_uc1611.c **** }
 999              		.loc 1 767 0
 1000 00f4 BDE8F081 		pop	{r4, r5, r6, r7, r8, pc}
 1001              	.LVL139:
 1002              	.L106:
 1003              		.align	2
 1004              	.L105:
 1005 00f8 34010000 		.word	.LANCHOR0+308
 1006 00fc 4C010000 		.word	.LANCHOR0+332
 1007 0100 3F000000 		.word	.LANCHOR0+63
 1008 0104 44000000 		.word	.LANCHOR0+68
 1009 0108 49000000 		.word	.LANCHOR0+73
 1010 010c 50000000 		.word	.LANCHOR0+80
 1011              		.cfi_endproc
 1012              	.LFE5:
 1013              		.size	u8x8_d_uc1611_ids4073, .-u8x8_d_uc1611_ids4073
 1014              		.section	.rodata
 1015              		.align	2
 1016              		.set	.LANCHOR0,. + 0
 1017              		.type	u8x8_uc1611_240x64_display_info, %object
 1018              		.size	u8x8_uc1611_240x64_display_info, 24
 1019              	u8x8_uc1611_240x64_display_info:
 1020 0000 00       		.byte	0
ARM GAS  C:\Users\jesse\AppData\Local\Temp\ccFp01sw.s 			page 33


 1021 0001 01       		.byte	1
 1022 0002 0A       		.byte	10
 1023 0003 0A       		.byte	10
 1024 0004 01       		.byte	1
 1025 0005 0A       		.byte	10
 1026 0006 0A       		.byte	10
 1027 0007 3C       		.byte	60
 1028 0008 00127A00 		.word	8000000
 1029 000c 00       		.byte	0
 1030 000d 04       		.byte	4
 1031 000e 1E       		.byte	30
 1032 000f 50       		.byte	80
 1033 0010 1E       		.byte	30
 1034 0011 08       		.byte	8
 1035 0012 00       		.byte	0
 1036 0013 00       		.byte	0
 1037 0014 F000     		.short	240
 1038 0016 4000     		.short	64
 1039              		.type	u8x8_d_uc1611_ea_dogm240_init_seq, %object
 1040              		.size	u8x8_d_uc1611_ea_dogm240_init_seq, 39
 1041              	u8x8_d_uc1611_ea_dogm240_init_seq:
 1042 0018 18       		.byte	24
 1043 0019 15       		.byte	21
 1044 001a 2F       		.byte	47
 1045 001b 15       		.byte	21
 1046 001c F1       		.byte	-15
 1047 001d 16       		.byte	22
 1048 001e 3F       		.byte	63
 1049 001f 15       		.byte	21
 1050 0020 F2       		.byte	-14
 1051 0021 16       		.byte	22
 1052 0022 00       		.byte	0
 1053 0023 15       		.byte	21
 1054 0024 F3       		.byte	-13
 1055 0025 16       		.byte	22
 1056 0026 3F       		.byte	63
 1057 0027 15       		.byte	21
 1058 0028 A3       		.byte	-93
 1059 0029 15       		.byte	21
 1060 002a 81       		.byte	-127
 1061 002b 16       		.byte	22
 1062 002c A4       		.byte	-92
 1063 002d 15       		.byte	21
 1064 002e D1       		.byte	-47
 1065 002f 15       		.byte	21
 1066 0030 89       		.byte	-119
 1067 0031 15       		.byte	21
 1068 0032 C0       		.byte	-64
 1069 0033 16       		.byte	22
 1070 0034 04       		.byte	4
 1071 0035 15       		.byte	21
 1072 0036 00       		.byte	0
 1073 0037 15       		.byte	21
 1074 0038 10       		.byte	16
 1075 0039 15       		.byte	21
 1076 003a 60       		.byte	96
 1077 003b 15       		.byte	21
ARM GAS  C:\Users\jesse\AppData\Local\Temp\ccFp01sw.s 			page 34


 1078 003c 70       		.byte	112
 1079 003d 19       		.byte	25
 1080 003e FF       		.byte	-1
 1081              		.type	u8x8_d_uc1611s_powersave0_seq, %object
 1082              		.size	u8x8_d_uc1611s_powersave0_seq, 5
 1083              	u8x8_d_uc1611s_powersave0_seq:
 1084 003f 18       		.byte	24
 1085 0040 15       		.byte	21
 1086 0041 A9       		.byte	-87
 1087 0042 19       		.byte	25
 1088 0043 FF       		.byte	-1
 1089              		.type	u8x8_d_uc1611s_powersave1_seq, %object
 1090              		.size	u8x8_d_uc1611s_powersave1_seq, 5
 1091              	u8x8_d_uc1611s_powersave1_seq:
 1092 0044 18       		.byte	24
 1093 0045 15       		.byte	21
 1094 0046 A8       		.byte	-88
 1095 0047 19       		.byte	25
 1096 0048 FF       		.byte	-1
 1097              		.type	u8x8_d_uc1611s_flip0_seq, %object
 1098              		.size	u8x8_d_uc1611s_flip0_seq, 7
 1099              	u8x8_d_uc1611s_flip0_seq:
 1100 0049 18       		.byte	24
 1101 004a 15       		.byte	21
 1102 004b C0       		.byte	-64
 1103 004c 16       		.byte	22
 1104 004d 04       		.byte	4
 1105 004e 19       		.byte	25
 1106 004f FF       		.byte	-1
 1107              		.type	u8x8_d_uc1611s_flip1_seq, %object
 1108              		.size	u8x8_d_uc1611s_flip1_seq, 7
 1109              	u8x8_d_uc1611s_flip1_seq:
 1110 0050 18       		.byte	24
 1111 0051 15       		.byte	21
 1112 0052 C0       		.byte	-64
 1113 0053 16       		.byte	22
 1114 0054 02       		.byte	2
 1115 0055 19       		.byte	25
 1116 0056 FF       		.byte	-1
 1117 0057 00       		.space	1
 1118              		.type	u8x8_uc1611_240x128_display_info, %object
 1119              		.size	u8x8_uc1611_240x128_display_info, 24
 1120              	u8x8_uc1611_240x128_display_info:
 1121 0058 00       		.byte	0
 1122 0059 01       		.byte	1
 1123 005a 0A       		.byte	10
 1124 005b 0A       		.byte	10
 1125 005c 01       		.byte	1
 1126 005d 0A       		.byte	10
 1127 005e 0A       		.byte	10
 1128 005f 3C       		.byte	60
 1129 0060 00127A00 		.word	8000000
 1130 0064 00       		.byte	0
 1131 0065 04       		.byte	4
 1132 0066 1E       		.byte	30
 1133 0067 50       		.byte	80
 1134 0068 1E       		.byte	30
ARM GAS  C:\Users\jesse\AppData\Local\Temp\ccFp01sw.s 			page 35


 1135 0069 10       		.byte	16
 1136 006a 00       		.byte	0
 1137 006b 00       		.byte	0
 1138 006c F000     		.short	240
 1139 006e 8000     		.short	128
 1140              		.type	u8x8_d_uc1611_ea_dogxl240_init_seq, %object
 1141              		.size	u8x8_d_uc1611_ea_dogxl240_init_seq, 39
 1142              	u8x8_d_uc1611_ea_dogxl240_init_seq:
 1143 0070 18       		.byte	24
 1144 0071 15       		.byte	21
 1145 0072 2F       		.byte	47
 1146 0073 15       		.byte	21
 1147 0074 F1       		.byte	-15
 1148 0075 16       		.byte	22
 1149 0076 7F       		.byte	127
 1150 0077 15       		.byte	21
 1151 0078 F2       		.byte	-14
 1152 0079 16       		.byte	22
 1153 007a 00       		.byte	0
 1154 007b 15       		.byte	21
 1155 007c F3       		.byte	-13
 1156 007d 16       		.byte	22
 1157 007e 7F       		.byte	127
 1158 007f 15       		.byte	21
 1159 0080 A3       		.byte	-93
 1160 0081 15       		.byte	21
 1161 0082 81       		.byte	-127
 1162 0083 16       		.byte	22
 1163 0084 8F       		.byte	-113
 1164 0085 15       		.byte	21
 1165 0086 D1       		.byte	-47
 1166 0087 15       		.byte	21
 1167 0088 89       		.byte	-119
 1168 0089 15       		.byte	21
 1169 008a C0       		.byte	-64
 1170 008b 16       		.byte	22
 1171 008c 04       		.byte	4
 1172 008d 15       		.byte	21
 1173 008e 00       		.byte	0
 1174 008f 15       		.byte	21
 1175 0090 10       		.byte	16
 1176 0091 15       		.byte	21
 1177 0092 60       		.byte	96
 1178 0093 15       		.byte	21
 1179 0094 70       		.byte	112
 1180 0095 19       		.byte	25
 1181 0096 FF       		.byte	-1
 1182 0097 00       		.space	1
 1183              		.type	u8x8_uc1611_ew50850_display_info, %object
 1184              		.size	u8x8_uc1611_ew50850_display_info, 24
 1185              	u8x8_uc1611_ew50850_display_info:
 1186 0098 01       		.byte	1
 1187 0099 00       		.byte	0
 1188 009a 0A       		.byte	10
 1189 009b 0A       		.byte	10
 1190 009c 01       		.byte	1
 1191 009d 0A       		.byte	10
ARM GAS  C:\Users\jesse\AppData\Local\Temp\ccFp01sw.s 			page 36


 1192 009e 0A       		.byte	10
 1193 009f 3C       		.byte	60
 1194 00a0 00127A00 		.word	8000000
 1195 00a4 00       		.byte	0
 1196 00a5 04       		.byte	4
 1197 00a6 1E       		.byte	30
 1198 00a7 50       		.byte	80
 1199 00a8 1E       		.byte	30
 1200 00a9 14       		.byte	20
 1201 00aa 00       		.byte	0
 1202 00ab 00       		.byte	0
 1203 00ac F000     		.short	240
 1204 00ae A000     		.short	160
 1205              		.type	u8x8_d_uc1611_ew50850_init_seq, %object
 1206              		.size	u8x8_d_uc1611_ew50850_init_seq, 37
 1207              	u8x8_d_uc1611_ew50850_init_seq:
 1208 00b0 18       		.byte	24
 1209 00b1 15       		.byte	21
 1210 00b2 2F       		.byte	47
 1211 00b3 15       		.byte	21
 1212 00b4 F1       		.byte	-15
 1213 00b5 16       		.byte	22
 1214 00b6 9F       		.byte	-97
 1215 00b7 15       		.byte	21
 1216 00b8 F2       		.byte	-14
 1217 00b9 16       		.byte	22
 1218 00ba 00       		.byte	0
 1219 00bb 15       		.byte	21
 1220 00bc F3       		.byte	-13
 1221 00bd 16       		.byte	22
 1222 00be 9F       		.byte	-97
 1223 00bf 15       		.byte	21
 1224 00c0 A3       		.byte	-93
 1225 00c1 15       		.byte	21
 1226 00c2 81       		.byte	-127
 1227 00c3 16       		.byte	22
 1228 00c4 4B       		.byte	75
 1229 00c5 15       		.byte	21
 1230 00c6 D2       		.byte	-46
 1231 00c7 15       		.byte	21
 1232 00c8 89       		.byte	-119
 1233 00c9 15       		.byte	21
 1234 00ca C0       		.byte	-64
 1235 00cb 15       		.byte	21
 1236 00cc 00       		.byte	0
 1237 00cd 15       		.byte	21
 1238 00ce 10       		.byte	16
 1239 00cf 15       		.byte	21
 1240 00d0 60       		.byte	96
 1241 00d1 15       		.byte	21
 1242 00d2 70       		.byte	112
 1243 00d3 19       		.byte	25
 1244 00d4 FF       		.byte	-1
 1245              		.type	u8x8_d_uc1611_powersave0_seq, %object
 1246              		.size	u8x8_d_uc1611_powersave0_seq, 5
 1247              	u8x8_d_uc1611_powersave0_seq:
 1248 00d5 18       		.byte	24
ARM GAS  C:\Users\jesse\AppData\Local\Temp\ccFp01sw.s 			page 37


 1249 00d6 15       		.byte	21
 1250 00d7 AF       		.byte	-81
 1251 00d8 19       		.byte	25
 1252 00d9 FF       		.byte	-1
 1253              		.type	u8x8_d_uc1611_powersave1_seq, %object
 1254              		.size	u8x8_d_uc1611_powersave1_seq, 5
 1255              	u8x8_d_uc1611_powersave1_seq:
 1256 00da 18       		.byte	24
 1257 00db 15       		.byte	21
 1258 00dc A8       		.byte	-88
 1259 00dd 19       		.byte	25
 1260 00de FF       		.byte	-1
 1261              		.type	u8x8_d_uc1611_alt_flip0_seq, %object
 1262              		.size	u8x8_d_uc1611_alt_flip0_seq, 5
 1263              	u8x8_d_uc1611_alt_flip0_seq:
 1264 00df 18       		.byte	24
 1265 00e0 15       		.byte	21
 1266 00e1 C0       		.byte	-64
 1267 00e2 19       		.byte	25
 1268 00e3 FF       		.byte	-1
 1269              		.type	u8x8_d_uc1611_alt_flip1_seq, %object
 1270              		.size	u8x8_d_uc1611_alt_flip1_seq, 5
 1271              	u8x8_d_uc1611_alt_flip1_seq:
 1272 00e4 18       		.byte	24
 1273 00e5 15       		.byte	21
 1274 00e6 C6       		.byte	-58
 1275 00e7 19       		.byte	25
 1276 00e8 FF       		.byte	-1
 1277 00e9 000000   		.space	3
 1278              		.type	u8x8_uc1611_cg160160_display_info, %object
 1279              		.size	u8x8_uc1611_cg160160_display_info, 24
 1280              	u8x8_uc1611_cg160160_display_info:
 1281 00ec 00       		.byte	0
 1282 00ed 01       		.byte	1
 1283 00ee 0A       		.byte	10
 1284 00ef 0A       		.byte	10
 1285 00f0 01       		.byte	1
 1286 00f1 0A       		.byte	10
 1287 00f2 0A       		.byte	10
 1288 00f3 3C       		.byte	60
 1289 00f4 00127A00 		.word	8000000
 1290 00f8 00       		.byte	0
 1291 00f9 04       		.byte	4
 1292 00fa 1E       		.byte	30
 1293 00fb 50       		.byte	80
 1294 00fc 14       		.byte	20
 1295 00fd 14       		.byte	20
 1296 00fe 00       		.byte	0
 1297 00ff 00       		.byte	0
 1298 0100 A000     		.short	160
 1299 0102 A000     		.short	160
 1300              		.type	u8x8_d_uc1611_cg160160_init_seq, %object
 1301              		.size	u8x8_d_uc1611_cg160160_init_seq, 47
 1302              	u8x8_d_uc1611_cg160160_init_seq:
 1303 0104 18       		.byte	24
 1304 0105 15       		.byte	21
 1305 0106 E2       		.byte	-30
ARM GAS  C:\Users\jesse\AppData\Local\Temp\ccFp01sw.s 			page 38


 1306 0107 FE       		.byte	-2
 1307 0108 02       		.byte	2
 1308 0109 15       		.byte	21
 1309 010a 24       		.byte	36
 1310 010b 15       		.byte	21
 1311 010c A3       		.byte	-93
 1312 010d 15       		.byte	21
 1313 010e 2F       		.byte	47
 1314 010f 15       		.byte	21
 1315 0110 82       		.byte	-126
 1316 0111 16       		.byte	22
 1317 0112 13       		.byte	19
 1318 0113 16       		.byte	22
 1319 0114 01       		.byte	1
 1320 0115 15       		.byte	21
 1321 0116 82       		.byte	-126
 1322 0117 16       		.byte	22
 1323 0118 14       		.byte	20
 1324 0119 16       		.byte	22
 1325 011a 00       		.byte	0
 1326 011b 15       		.byte	21
 1327 011c EA       		.byte	-22
 1328 011d 15       		.byte	21
 1329 011e 81       		.byte	-127
 1330 011f 16       		.byte	22
 1331 0120 90       		.byte	-112
 1332 0121 15       		.byte	21
 1333 0122 89       		.byte	-119
 1334 0123 15       		.byte	21
 1335 0124 D1       		.byte	-47
 1336 0125 15       		.byte	21
 1337 0126 C0       		.byte	-64
 1338 0127 16       		.byte	22
 1339 0128 04       		.byte	4
 1340 0129 15       		.byte	21
 1341 012a 00       		.byte	0
 1342 012b 15       		.byte	21
 1343 012c 10       		.byte	16
 1344 012d 15       		.byte	21
 1345 012e 60       		.byte	96
 1346 012f 15       		.byte	21
 1347 0130 70       		.byte	112
 1348 0131 19       		.byte	25
 1349 0132 FF       		.byte	-1
 1350 0133 00       		.space	1
 1351              		.type	u8x8_uc1611_256x128_display_info, %object
 1352              		.size	u8x8_uc1611_256x128_display_info, 24
 1353              	u8x8_uc1611_256x128_display_info:
 1354 0134 00       		.byte	0
 1355 0135 01       		.byte	1
 1356 0136 0A       		.byte	10
 1357 0137 0A       		.byte	10
 1358 0138 01       		.byte	1
 1359 0139 0A       		.byte	10
 1360 013a 0A       		.byte	10
 1361 013b 3C       		.byte	60
 1362 013c 00127A00 		.word	8000000
ARM GAS  C:\Users\jesse\AppData\Local\Temp\ccFp01sw.s 			page 39


 1363 0140 00       		.byte	0
 1364 0141 04       		.byte	4
 1365 0142 1E       		.byte	30
 1366 0143 50       		.byte	80
 1367 0144 20       		.byte	32
 1368 0145 10       		.byte	16
 1369 0146 00       		.byte	0
 1370 0147 00       		.byte	0
 1371 0148 0001     		.short	256
 1372 014a 8000     		.short	128
 1373              		.type	u8x8_d_uc1611_ids4073_init_seq, %object
 1374              		.size	u8x8_d_uc1611_ids4073_init_seq, 39
 1375              	u8x8_d_uc1611_ids4073_init_seq:
 1376 014c 18       		.byte	24
 1377 014d 15       		.byte	21
 1378 014e 2F       		.byte	47
 1379 014f 15       		.byte	21
 1380 0150 F1       		.byte	-15
 1381 0151 16       		.byte	22
 1382 0152 7F       		.byte	127
 1383 0153 15       		.byte	21
 1384 0154 F2       		.byte	-14
 1385 0155 16       		.byte	22
 1386 0156 00       		.byte	0
 1387 0157 15       		.byte	21
 1388 0158 F3       		.byte	-13
 1389 0159 16       		.byte	22
 1390 015a 7F       		.byte	127
 1391 015b 15       		.byte	21
 1392 015c A3       		.byte	-93
 1393 015d 15       		.byte	21
 1394 015e 81       		.byte	-127
 1395 015f 16       		.byte	22
 1396 0160 8F       		.byte	-113
 1397 0161 15       		.byte	21
 1398 0162 D1       		.byte	-47
 1399 0163 15       		.byte	21
 1400 0164 89       		.byte	-119
 1401 0165 15       		.byte	21
 1402 0166 C0       		.byte	-64
 1403 0167 16       		.byte	22
 1404 0168 04       		.byte	4
 1405 0169 15       		.byte	21
 1406 016a 00       		.byte	0
 1407 016b 15       		.byte	21
 1408 016c 10       		.byte	16
 1409 016d 15       		.byte	21
 1410 016e 60       		.byte	96
 1411 016f 15       		.byte	21
 1412 0170 70       		.byte	112
 1413 0171 19       		.byte	25
 1414 0172 FF       		.byte	-1
 1415              		.text
 1416              	.Letext0:
 1417              		.file 2 "c:\\program files (x86)\\cypress\\psoc creator\\4.4\\psoc creator\\import\\gnu\\arm\\5.4.
 1418              		.file 3 "c:\\program files (x86)\\cypress\\psoc creator\\4.4\\psoc creator\\import\\gnu\\arm\\5.4.
 1419              		.file 4 "..\\..\\..\\u8g2\\u8g2\\csrc\\u8x8.h"
ARM GAS  C:\Users\jesse\AppData\Local\Temp\ccFp01sw.s 			page 40

