ARM GAS  C:\Users\jesse\AppData\Local\Temp\ccN1qmcr.s 			page 1


   1              		.syntax unified
   2              		.cpu cortex-m3
   3              		.fpu softvfp
   4              		.eabi_attribute 20, 1
   5              		.eabi_attribute 21, 1
   6              		.eabi_attribute 23, 3
   7              		.eabi_attribute 24, 1
   8              		.eabi_attribute 25, 1
   9              		.eabi_attribute 26, 1
  10              		.eabi_attribute 30, 4
  11              		.eabi_attribute 34, 1
  12              		.eabi_attribute 18, 4
  13              		.thumb
  14              		.syntax unified
  15              		.file	"u8x8_d_s1d15e06.c"
  16              		.text
  17              	.Ltext0:
  18              		.cfi_sections	.debug_frame
  19              		.section	.text.u8x8_d_s1d15e06_common,"ax",%progbits
  20              		.align	1
  21              		.global	u8x8_d_s1d15e06_common
  22              		.thumb
  23              		.thumb_func
  24              		.type	u8x8_d_s1d15e06_common, %function
  25              	u8x8_d_s1d15e06_common:
  26              	.LFB0:
  27              		.file 1 "..\\..\\..\\u8g2\\u8g2\\csrc\\u8x8_d_s1d15e06.c"
   1:..\..\..\u8g2\u8g2\csrc/u8x8_d_s1d15e06.c **** /*
   2:..\..\..\u8g2\u8g2\csrc/u8x8_d_s1d15e06.c **** 
   3:..\..\..\u8g2\u8g2\csrc/u8x8_d_s1d15e06.c ****   u8x8_d_s1d15e06.c
   4:..\..\..\u8g2\u8g2\csrc/u8x8_d_s1d15e06.c ****   
   5:..\..\..\u8g2\u8g2\csrc/u8x8_d_s1d15e06.c ****   https://github.com/olikraus/u8g2/pull/1190
   6:..\..\..\u8g2\u8g2\csrc/u8x8_d_s1d15e06.c ****   https://github.com/olikraus/u8g2/issues/1172
   7:..\..\..\u8g2\u8g2\csrc/u8x8_d_s1d15e06.c ****   
   8:..\..\..\u8g2\u8g2\csrc/u8x8_d_s1d15e06.c ****   Universal 8bit Graphics Library (https://github.com/olikraus/u8g2/)
   9:..\..\..\u8g2\u8g2\csrc/u8x8_d_s1d15e06.c ****   
  10:..\..\..\u8g2\u8g2\csrc/u8x8_d_s1d15e06.c ****   Copyright (c) 2020, olikraus@gmail.com
  11:..\..\..\u8g2\u8g2\csrc/u8x8_d_s1d15e06.c ****   
  12:..\..\..\u8g2\u8g2\csrc/u8x8_d_s1d15e06.c ****   All rights reserved.
  13:..\..\..\u8g2\u8g2\csrc/u8x8_d_s1d15e06.c ****   
  14:..\..\..\u8g2\u8g2\csrc/u8x8_d_s1d15e06.c ****   Redistribution and use in source and binary forms, with or without modification, 
  15:..\..\..\u8g2\u8g2\csrc/u8x8_d_s1d15e06.c ****   are permitted provided that the following conditions are met:
  16:..\..\..\u8g2\u8g2\csrc/u8x8_d_s1d15e06.c ****   * Redistributions of source code must retain the above copyright notice, this list 
  17:..\..\..\u8g2\u8g2\csrc/u8x8_d_s1d15e06.c ****     of conditions and the following disclaimer.
  18:..\..\..\u8g2\u8g2\csrc/u8x8_d_s1d15e06.c ****     
  19:..\..\..\u8g2\u8g2\csrc/u8x8_d_s1d15e06.c ****   * Redistributions in binary form must reproduce the above copyright notice, this 
  20:..\..\..\u8g2\u8g2\csrc/u8x8_d_s1d15e06.c ****     list of conditions and the following disclaimer in the documentation and/or other 
  21:..\..\..\u8g2\u8g2\csrc/u8x8_d_s1d15e06.c ****     materials provided with the distribution.
  22:..\..\..\u8g2\u8g2\csrc/u8x8_d_s1d15e06.c ****     
  23:..\..\..\u8g2\u8g2\csrc/u8x8_d_s1d15e06.c ****   THIS SOFTWARE IS PROVIDED BY THE COPYRIGHT HOLDERS AND 
  24:..\..\..\u8g2\u8g2\csrc/u8x8_d_s1d15e06.c ****   CONTRIBUTORS "AS IS" AND ANY EXPRESS OR IMPLIED WARRANTIES, 
  25:..\..\..\u8g2\u8g2\csrc/u8x8_d_s1d15e06.c ****   INCLUDING, BUT NOT LIMITED TO, THE IMPLIED WARRANTIES OF 
  26:..\..\..\u8g2\u8g2\csrc/u8x8_d_s1d15e06.c ****   MERCHANTABILITY AND FITNESS FOR A PARTICULAR PURPOSE ARE 
  27:..\..\..\u8g2\u8g2\csrc/u8x8_d_s1d15e06.c ****   DISCLAIMED. IN NO EVENT SHALL THE COPYRIGHT HOLDER OR 
  28:..\..\..\u8g2\u8g2\csrc/u8x8_d_s1d15e06.c ****   CONTRIBUTORS BE LIABLE FOR ANY DIRECT, INDIRECT, INCIDENTAL, 
  29:..\..\..\u8g2\u8g2\csrc/u8x8_d_s1d15e06.c ****   SPECIAL, EXEMPLARY, OR CONSEQUENTIAL DAMAGES (INCLUDING, BUT 
  30:..\..\..\u8g2\u8g2\csrc/u8x8_d_s1d15e06.c ****   NOT LIMITED TO, PROCUREMENT OF SUBSTITUTE GOODS OR SERVICES; 
ARM GAS  C:\Users\jesse\AppData\Local\Temp\ccN1qmcr.s 			page 2


  31:..\..\..\u8g2\u8g2\csrc/u8x8_d_s1d15e06.c ****   LOSS OF USE, DATA, OR PROFITS; OR BUSINESS INTERRUPTION) HOWEVER 
  32:..\..\..\u8g2\u8g2\csrc/u8x8_d_s1d15e06.c ****   CAUSED AND ON ANY THEORY OF LIABILITY, WHETHER IN CONTRACT, 
  33:..\..\..\u8g2\u8g2\csrc/u8x8_d_s1d15e06.c ****   STRICT LIABILITY, OR TORT (INCLUDING NEGLIGENCE OR OTHERWISE) 
  34:..\..\..\u8g2\u8g2\csrc/u8x8_d_s1d15e06.c ****   ARISING IN ANY WAY OUT OF THE USE OF THIS SOFTWARE, EVEN IF 
  35:..\..\..\u8g2\u8g2\csrc/u8x8_d_s1d15e06.c ****   ADVISED OF THE POSSIBILITY OF SUCH DAMAGE.  
  36:..\..\..\u8g2\u8g2\csrc/u8x8_d_s1d15e06.c ****   
  37:..\..\..\u8g2\u8g2\csrc/u8x8_d_s1d15e06.c **** */
  38:..\..\..\u8g2\u8g2\csrc/u8x8_d_s1d15e06.c **** #include "u8x8.h"
  39:..\..\..\u8g2\u8g2\csrc/u8x8_d_s1d15e06.c **** 
  40:..\..\..\u8g2\u8g2\csrc/u8x8_d_s1d15e06.c **** static const uint8_t u8x8_d_s1d15e06_powersave0_seq[] = {
  41:..\..\..\u8g2\u8g2\csrc/u8x8_d_s1d15e06.c ****   U8X8_START_TRANSFER(),             	/* enable chip, delay is part of the transfer start */
  42:..\..\..\u8g2\u8g2\csrc/u8x8_d_s1d15e06.c ****   U8X8_C(0xA8),		                /* display on */
  43:..\..\..\u8g2\u8g2\csrc/u8x8_d_s1d15e06.c ****   U8X8_END_TRANSFER(),             	/* disable chip */
  44:..\..\..\u8g2\u8g2\csrc/u8x8_d_s1d15e06.c ****   U8X8_END()             			/* end of sequence */
  45:..\..\..\u8g2\u8g2\csrc/u8x8_d_s1d15e06.c **** };
  46:..\..\..\u8g2\u8g2\csrc/u8x8_d_s1d15e06.c **** 
  47:..\..\..\u8g2\u8g2\csrc/u8x8_d_s1d15e06.c **** static const uint8_t u8x8_d_s1d15e06_powersave1_seq[] = {
  48:..\..\..\u8g2\u8g2\csrc/u8x8_d_s1d15e06.c ****   U8X8_START_TRANSFER(),             	/* enable chip, delay is part of the transfer start */
  49:..\..\..\u8g2\u8g2\csrc/u8x8_d_s1d15e06.c ****   U8X8_C(0xA8|1),		                /* display off, enter sleep mode */
  50:..\..\..\u8g2\u8g2\csrc/u8x8_d_s1d15e06.c ****   U8X8_END_TRANSFER(),             	/* disable chip */
  51:..\..\..\u8g2\u8g2\csrc/u8x8_d_s1d15e06.c ****   U8X8_END()             			/* end of sequence */
  52:..\..\..\u8g2\u8g2\csrc/u8x8_d_s1d15e06.c **** };
  53:..\..\..\u8g2\u8g2\csrc/u8x8_d_s1d15e06.c **** 
  54:..\..\..\u8g2\u8g2\csrc/u8x8_d_s1d15e06.c **** static const uint8_t u8x8_d_s1d15e06_flip0_seq[] = {
  55:..\..\..\u8g2\u8g2\csrc/u8x8_d_s1d15e06.c ****   U8X8_START_TRANSFER(),            /* enable chip, delay is part of the transfer start */
  56:..\..\..\u8g2\u8g2\csrc/u8x8_d_s1d15e06.c ****   U8X8_C(0xA6),            			/* LCD Mapping */
  57:..\..\..\u8g2\u8g2\csrc/u8x8_d_s1d15e06.c ****   U8X8_END_TRANSFER(),             	/* disable chip */
  58:..\..\..\u8g2\u8g2\csrc/u8x8_d_s1d15e06.c ****   U8X8_END()             			/* end of sequence */
  59:..\..\..\u8g2\u8g2\csrc/u8x8_d_s1d15e06.c **** };
  60:..\..\..\u8g2\u8g2\csrc/u8x8_d_s1d15e06.c **** 
  61:..\..\..\u8g2\u8g2\csrc/u8x8_d_s1d15e06.c **** static const uint8_t u8x8_d_s1d15e06_flip1_seq[] = {
  62:..\..\..\u8g2\u8g2\csrc/u8x8_d_s1d15e06.c ****   U8X8_START_TRANSFER(),            /* enable chip, delay is part of the transfer start */
  63:..\..\..\u8g2\u8g2\csrc/u8x8_d_s1d15e06.c ****   U8X8_C(0xA7),            			/* LCD Mapping */
  64:..\..\..\u8g2\u8g2\csrc/u8x8_d_s1d15e06.c ****   U8X8_END_TRANSFER(),             	/* disable chip */
  65:..\..\..\u8g2\u8g2\csrc/u8x8_d_s1d15e06.c ****   U8X8_END()             			/* end of sequence */
  66:..\..\..\u8g2\u8g2\csrc/u8x8_d_s1d15e06.c **** };
  67:..\..\..\u8g2\u8g2\csrc/u8x8_d_s1d15e06.c **** 
  68:..\..\..\u8g2\u8g2\csrc/u8x8_d_s1d15e06.c **** uint8_t u8x8_d_s1d15e06_common(u8x8_t *u8x8, uint8_t msg, uint8_t arg_int, void *arg_ptr)
  69:..\..\..\u8g2\u8g2\csrc/u8x8_d_s1d15e06.c **** {
  28              		.loc 1 69 0
  29              		.cfi_startproc
  30              		@ args = 0, pretend = 0, frame = 0
  31              		@ frame_needed = 0, uses_anonymous_args = 0
  32              	.LVL0:
  70:..\..\..\u8g2\u8g2\csrc/u8x8_d_s1d15e06.c ****   uint8_t x, y, c;
  71:..\..\..\u8g2\u8g2\csrc/u8x8_d_s1d15e06.c ****   uint8_t *ptr;
  72:..\..\..\u8g2\u8g2\csrc/u8x8_d_s1d15e06.c ****   switch(msg)
  33              		.loc 1 72 0
  34 0000 0B39     		subs	r1, r1, #11
  35              	.LVL1:
  69:..\..\..\u8g2\u8g2\csrc/u8x8_d_s1d15e06.c ****   uint8_t x, y, c;
  36              		.loc 1 69 0
  37 0002 F8B5     		push	{r3, r4, r5, r6, r7, lr}
  38              		.cfi_def_cfa_offset 24
  39              		.cfi_offset 3, -24
  40              		.cfi_offset 4, -20
  41              		.cfi_offset 5, -16
ARM GAS  C:\Users\jesse\AppData\Local\Temp\ccN1qmcr.s 			page 3


  42              		.cfi_offset 6, -12
  43              		.cfi_offset 7, -8
  44              		.cfi_offset 14, -4
  69:..\..\..\u8g2\u8g2\csrc/u8x8_d_s1d15e06.c ****   uint8_t x, y, c;
  45              		.loc 1 69 0
  46 0004 0446     		mov	r4, r0
  47 0006 1546     		mov	r5, r2
  48 0008 1F46     		mov	r7, r3
  49              		.loc 1 72 0
  50 000a 0429     		cmp	r1, #4
  51 000c 46D8     		bhi	.L11
  52 000e DFE801F0 		tbb	[pc, r1]
  53              	.LVL2:
  54              	.L4:
  55 0012 2D       		.byte	(.L3-.L4)/2
  56 0013 45       		.byte	(.L11-.L4)/2
  57 0014 36       		.byte	(.L5-.L4)/2
  58 0015 34       		.byte	(.L14-.L4)/2
  59 0016 03       		.byte	(.L7-.L4)/2
  60 0017 00       		.p2align 1
  61              	.L7:
  62              	.LBB4:
  63              	.LBB5:
  73:..\..\..\u8g2\u8g2\csrc/u8x8_d_s1d15e06.c ****   {
  74:..\..\..\u8g2\u8g2\csrc/u8x8_d_s1d15e06.c ****     case U8X8_MSG_DISPLAY_DRAW_TILE:
  75:..\..\..\u8g2\u8g2\csrc/u8x8_d_s1d15e06.c ****       u8x8_cad_StartTransfer(u8x8);
  64              		.loc 1 75 0
  65 0018 FFF7FEFF 		bl	u8x8_cad_StartTransfer
  66              	.LVL3:
  76:..\..\..\u8g2\u8g2\csrc/u8x8_d_s1d15e06.c **** 
  77:..\..\..\u8g2\u8g2\csrc/u8x8_d_s1d15e06.c ****       x = ((u8x8_tile_t *)arg_ptr)->x_pos;
  78:..\..\..\u8g2\u8g2\csrc/u8x8_d_s1d15e06.c ****       x *= 8;
  79:..\..\..\u8g2\u8g2\csrc/u8x8_d_s1d15e06.c **** 
  80:..\..\..\u8g2\u8g2\csrc/u8x8_d_s1d15e06.c **** 	  u8x8_cad_SendCmd(u8x8, 0xB1);	//Page Address - Row
  67              		.loc 1 80 0
  68 001c B121     		movs	r1, #177
  69 001e 2046     		mov	r0, r4
  77:..\..\..\u8g2\u8g2\csrc/u8x8_d_s1d15e06.c ****       x *= 8;
  70              		.loc 1 77 0
  71 0020 7E79     		ldrb	r6, [r7, #5]	@ zero_extendqisi2
  72              	.LVL4:
  73              		.loc 1 80 0
  74 0022 FFF7FEFF 		bl	u8x8_cad_SendCmd
  75              	.LVL5:
  81:..\..\..\u8g2\u8g2\csrc/u8x8_d_s1d15e06.c **** 	  u8x8_cad_SendArg(u8x8, (((u8x8_tile_t *)arg_ptr)->y_pos));
  76              		.loc 1 81 0
  77 0026 B979     		ldrb	r1, [r7, #6]	@ zero_extendqisi2
  78 0028 2046     		mov	r0, r4
  79 002a FFF7FEFF 		bl	u8x8_cad_SendArg
  80              	.LVL6:
  82:..\..\..\u8g2\u8g2\csrc/u8x8_d_s1d15e06.c **** 
  83:..\..\..\u8g2\u8g2\csrc/u8x8_d_s1d15e06.c ****       y = ((u8x8_tile_t *)arg_ptr)->y_pos;
  84:..\..\..\u8g2\u8g2\csrc/u8x8_d_s1d15e06.c ****       y += u8x8->x_offset;
  85:..\..\..\u8g2\u8g2\csrc/u8x8_d_s1d15e06.c **** 
  86:..\..\..\u8g2\u8g2\csrc/u8x8_d_s1d15e06.c ****       u8x8_cad_SendCmd(u8x8, 0x13);	/* col */
  81              		.loc 1 86 0
  82 002e 1321     		movs	r1, #19
ARM GAS  C:\Users\jesse\AppData\Local\Temp\ccN1qmcr.s 			page 4


  83 0030 2046     		mov	r0, r4
  84 0032 FFF7FEFF 		bl	u8x8_cad_SendCmd
  85              	.LVL7:
  87:..\..\..\u8g2\u8g2\csrc/u8x8_d_s1d15e06.c ****       u8x8_cad_SendArg(u8x8, x);
  86              		.loc 1 87 0
  87 0036 F100     		lsls	r1, r6, #3
  88 0038 01F0F801 		and	r1, r1, #248
  89 003c 2046     		mov	r0, r4
  90 003e FFF7FEFF 		bl	u8x8_cad_SendArg
  91              	.LVL8:
  88:..\..\..\u8g2\u8g2\csrc/u8x8_d_s1d15e06.c **** 
  89:..\..\..\u8g2\u8g2\csrc/u8x8_d_s1d15e06.c **** 	  u8x8_cad_SendCmd(u8x8, 0x1D );	//Data Write
  92              		.loc 1 89 0
  93 0042 1D21     		movs	r1, #29
  94 0044 2046     		mov	r0, r4
  95 0046 FFF7FEFF 		bl	u8x8_cad_SendCmd
  96              	.LVL9:
  90:..\..\..\u8g2\u8g2\csrc/u8x8_d_s1d15e06.c **** 
  91:..\..\..\u8g2\u8g2\csrc/u8x8_d_s1d15e06.c ****       c = ((u8x8_tile_t *)arg_ptr)->cnt;
  97              		.loc 1 91 0
  98 004a 3E79     		ldrb	r6, [r7, #4]	@ zero_extendqisi2
  99              	.LVL10:
  92:..\..\..\u8g2\u8g2\csrc/u8x8_d_s1d15e06.c ****       c *= 8;
  93:..\..\..\u8g2\u8g2\csrc/u8x8_d_s1d15e06.c ****       ptr = ((u8x8_tile_t *)arg_ptr)->tile_ptr;
 100              		.loc 1 93 0
 101 004c 3F68     		ldr	r7, [r7]
 102              	.LVL11:
  92:..\..\..\u8g2\u8g2\csrc/u8x8_d_s1d15e06.c ****       c *= 8;
 103              		.loc 1 92 0
 104 004e F600     		lsls	r6, r6, #3
 105              	.LVL12:
 106 0050 F6B2     		uxtb	r6, r6
 107              	.LVL13:
 108              	.L8:
  94:..\..\..\u8g2\u8g2\csrc/u8x8_d_s1d15e06.c ****       do
  95:..\..\..\u8g2\u8g2\csrc/u8x8_d_s1d15e06.c ****       {
  96:..\..\..\u8g2\u8g2\csrc/u8x8_d_s1d15e06.c **** 		u8x8_cad_SendData(u8x8, c, ptr);	/* note: SendData can not handle more than 255 bytes */
 109              		.loc 1 96 0
 110 0052 3A46     		mov	r2, r7
 111 0054 3146     		mov	r1, r6
 112 0056 2046     		mov	r0, r4
  97:..\..\..\u8g2\u8g2\csrc/u8x8_d_s1d15e06.c **** 		arg_int--;
 113              		.loc 1 97 0
 114 0058 013D     		subs	r5, r5, #1
 115              	.LVL14:
  96:..\..\..\u8g2\u8g2\csrc/u8x8_d_s1d15e06.c **** 		arg_int--;
 116              		.loc 1 96 0
 117 005a FFF7FEFF 		bl	u8x8_cad_SendData
 118              	.LVL15:
  98:..\..\..\u8g2\u8g2\csrc/u8x8_d_s1d15e06.c ****       } while( arg_int > 0 );
 119              		.loc 1 98 0
 120 005e 15F0FF05 		ands	r5, r5, #255
 121              	.LVL16:
 122 0062 F6D1     		bne	.L8
  99:..\..\..\u8g2\u8g2\csrc/u8x8_d_s1d15e06.c **** 
 100:..\..\..\u8g2\u8g2\csrc/u8x8_d_s1d15e06.c ****       u8x8_cad_EndTransfer(u8x8);
 123              		.loc 1 100 0
ARM GAS  C:\Users\jesse\AppData\Local\Temp\ccN1qmcr.s 			page 5


 124 0064 2046     		mov	r0, r4
 125 0066 FFF7FEFF 		bl	u8x8_cad_EndTransfer
 126              	.LVL17:
 127 006a 06E0     		b	.L14
 128              	.LVL18:
 129              	.L3:
 130              	.LBE5:
 131              	.LBE4:
 101:..\..\..\u8g2\u8g2\csrc/u8x8_d_s1d15e06.c ****       break;
 102:..\..\..\u8g2\u8g2\csrc/u8x8_d_s1d15e06.c ****     /*	handled in the calling procedure 
 103:..\..\..\u8g2\u8g2\csrc/u8x8_d_s1d15e06.c ****     case U8X8_MSG_DISPLAY_SETUP_MEMORY:
 104:..\..\..\u8g2\u8g2\csrc/u8x8_d_s1d15e06.c ****       u8x8_d_helper_display_setup_memory(u8x8, &u8x8_uc1608_128x64_display_info);
 105:..\..\..\u8g2\u8g2\csrc/u8x8_d_s1d15e06.c ****       break;
 106:..\..\..\u8g2\u8g2\csrc/u8x8_d_s1d15e06.c ****     case U8X8_MSG_DISPLAY_INIT:
 107:..\..\..\u8g2\u8g2\csrc/u8x8_d_s1d15e06.c ****       u8x8_d_helper_display_init(u8x8);
 108:..\..\..\u8g2\u8g2\csrc/u8x8_d_s1d15e06.c ****       u8x8_cad_SendSequence(u8x8, u8x8_d_uc1701_dogs102_init_seq);
 109:..\..\..\u8g2\u8g2\csrc/u8x8_d_s1d15e06.c ****       break;
 110:..\..\..\u8g2\u8g2\csrc/u8x8_d_s1d15e06.c ****     */
 111:..\..\..\u8g2\u8g2\csrc/u8x8_d_s1d15e06.c ****     case U8X8_MSG_DISPLAY_SET_POWER_SAVE:
 112:..\..\..\u8g2\u8g2\csrc/u8x8_d_s1d15e06.c ****       if ( arg_int == 0 )
 132              		.loc 1 112 0
 133 006c 0AB9     		cbnz	r2, .L9
 113:..\..\..\u8g2\u8g2\csrc/u8x8_d_s1d15e06.c **** 	u8x8_cad_SendSequence(u8x8, u8x8_d_s1d15e06_powersave0_seq);
 134              		.loc 1 113 0
 135 006e 0C49     		ldr	r1, .L17
 136 0070 00E0     		b	.L13
 137              	.L9:
 114:..\..\..\u8g2\u8g2\csrc/u8x8_d_s1d15e06.c ****       else
 115:..\..\..\u8g2\u8g2\csrc/u8x8_d_s1d15e06.c **** 	u8x8_cad_SendSequence(u8x8, u8x8_d_s1d15e06_powersave1_seq);
 138              		.loc 1 115 0
 139 0072 0C49     		ldr	r1, .L17+4
 140              	.L13:
 141 0074 2046     		mov	r0, r4
 142              	.LVL19:
 143 0076 FFF7FEFF 		bl	u8x8_cad_SendSequence
 144              	.LVL20:
 145              	.L14:
 116:..\..\..\u8g2\u8g2\csrc/u8x8_d_s1d15e06.c ****       break;
 117:..\..\..\u8g2\u8g2\csrc/u8x8_d_s1d15e06.c ****     case U8X8_MSG_DISPLAY_SET_FLIP_MODE:
 118:..\..\..\u8g2\u8g2\csrc/u8x8_d_s1d15e06.c ****       if ( arg_int == 0 )
 119:..\..\..\u8g2\u8g2\csrc/u8x8_d_s1d15e06.c ****       {
 120:..\..\..\u8g2\u8g2\csrc/u8x8_d_s1d15e06.c **** 	u8x8_cad_SendSequence(u8x8, u8x8_d_s1d15e06_flip0_seq);
 121:..\..\..\u8g2\u8g2\csrc/u8x8_d_s1d15e06.c **** 	u8x8->x_offset = u8x8->display_info->default_x_offset;
 122:..\..\..\u8g2\u8g2\csrc/u8x8_d_s1d15e06.c ****       }
 123:..\..\..\u8g2\u8g2\csrc/u8x8_d_s1d15e06.c ****       else
 124:..\..\..\u8g2\u8g2\csrc/u8x8_d_s1d15e06.c ****       {
 125:..\..\..\u8g2\u8g2\csrc/u8x8_d_s1d15e06.c **** 	u8x8_cad_SendSequence(u8x8, u8x8_d_s1d15e06_flip1_seq);
 126:..\..\..\u8g2\u8g2\csrc/u8x8_d_s1d15e06.c **** 	u8x8->x_offset = u8x8->display_info->flipmode_x_offset;
 127:..\..\..\u8g2\u8g2\csrc/u8x8_d_s1d15e06.c ****       }	
 128:..\..\..\u8g2\u8g2\csrc/u8x8_d_s1d15e06.c ****       break;
 129:..\..\..\u8g2\u8g2\csrc/u8x8_d_s1d15e06.c **** #ifdef U8X8_WITH_SET_CONTRAST
 130:..\..\..\u8g2\u8g2\csrc/u8x8_d_s1d15e06.c ****     case U8X8_MSG_DISPLAY_SET_CONTRAST:
 131:..\..\..\u8g2\u8g2\csrc/u8x8_d_s1d15e06.c ****       break;
 132:..\..\..\u8g2\u8g2\csrc/u8x8_d_s1d15e06.c **** #endif
 133:..\..\..\u8g2\u8g2\csrc/u8x8_d_s1d15e06.c ****     default:
 134:..\..\..\u8g2\u8g2\csrc/u8x8_d_s1d15e06.c ****       return 0;
 135:..\..\..\u8g2\u8g2\csrc/u8x8_d_s1d15e06.c ****   }
ARM GAS  C:\Users\jesse\AppData\Local\Temp\ccN1qmcr.s 			page 6


 136:..\..\..\u8g2\u8g2\csrc/u8x8_d_s1d15e06.c ****   return 1;
 146              		.loc 1 136 0
 147 007a 0120     		movs	r0, #1
 148 007c F8BD     		pop	{r3, r4, r5, r6, r7, pc}
 149              	.LVL21:
 150              	.L5:
 118:..\..\..\u8g2\u8g2\csrc/u8x8_d_s1d15e06.c ****       {
 151              		.loc 1 118 0
 152 007e 2AB9     		cbnz	r2, .L10
 120:..\..\..\u8g2\u8g2\csrc/u8x8_d_s1d15e06.c **** 	u8x8->x_offset = u8x8->display_info->default_x_offset;
 153              		.loc 1 120 0
 154 0080 0949     		ldr	r1, .L17+8
 155 0082 FFF7FEFF 		bl	u8x8_cad_SendSequence
 156              	.LVL22:
 121:..\..\..\u8g2\u8g2\csrc/u8x8_d_s1d15e06.c ****       }
 157              		.loc 1 121 0
 158 0086 2368     		ldr	r3, [r4]
 159 0088 9B7C     		ldrb	r3, [r3, #18]	@ zero_extendqisi2
 160 008a 04E0     		b	.L15
 161              	.LVL23:
 162              	.L10:
 125:..\..\..\u8g2\u8g2\csrc/u8x8_d_s1d15e06.c **** 	u8x8->x_offset = u8x8->display_info->flipmode_x_offset;
 163              		.loc 1 125 0
 164 008c 0749     		ldr	r1, .L17+12
 165 008e FFF7FEFF 		bl	u8x8_cad_SendSequence
 166              	.LVL24:
 126:..\..\..\u8g2\u8g2\csrc/u8x8_d_s1d15e06.c ****       }	
 167              		.loc 1 126 0
 168 0092 2368     		ldr	r3, [r4]
 169 0094 DB7C     		ldrb	r3, [r3, #19]	@ zero_extendqisi2
 170              	.L15:
 171 0096 84F82230 		strb	r3, [r4, #34]
 172 009a EEE7     		b	.L14
 173              	.LVL25:
 174              	.L11:
 134:..\..\..\u8g2\u8g2\csrc/u8x8_d_s1d15e06.c ****   }
 175              		.loc 1 134 0
 176 009c 0020     		movs	r0, #0
 177              	.LVL26:
 137:..\..\..\u8g2\u8g2\csrc/u8x8_d_s1d15e06.c **** }
 178              		.loc 1 137 0
 179 009e F8BD     		pop	{r3, r4, r5, r6, r7, pc}
 180              	.LVL27:
 181              	.L18:
 182              		.align	2
 183              	.L17:
 184 00a0 00000000 		.word	.LANCHOR0
 185 00a4 05000000 		.word	.LANCHOR0+5
 186 00a8 0A000000 		.word	.LANCHOR0+10
 187 00ac 0F000000 		.word	.LANCHOR0+15
 188              		.cfi_endproc
 189              	.LFE0:
 190              		.size	u8x8_d_s1d15e06_common, .-u8x8_d_s1d15e06_common
 191              		.section	.text.u8x8_d_s1d15e06_160100,"ax",%progbits
 192              		.align	1
 193              		.global	u8x8_d_s1d15e06_160100
 194              		.thumb
ARM GAS  C:\Users\jesse\AppData\Local\Temp\ccN1qmcr.s 			page 7


 195              		.thumb_func
 196              		.type	u8x8_d_s1d15e06_160100, %function
 197              	u8x8_d_s1d15e06_160100:
 198              	.LFB1:
 138:..\..\..\u8g2\u8g2\csrc/u8x8_d_s1d15e06.c **** 
 139:..\..\..\u8g2\u8g2\csrc/u8x8_d_s1d15e06.c **** /*================================================*/
 140:..\..\..\u8g2\u8g2\csrc/u8x8_d_s1d15e06.c **** /* s1d15e06 160x100 */
 141:..\..\..\u8g2\u8g2\csrc/u8x8_d_s1d15e06.c **** 
 142:..\..\..\u8g2\u8g2\csrc/u8x8_d_s1d15e06.c **** 
 143:..\..\..\u8g2\u8g2\csrc/u8x8_d_s1d15e06.c **** static const u8x8_display_info_t u8x8_s1d15e06_160100_display_info =
 144:..\..\..\u8g2\u8g2\csrc/u8x8_d_s1d15e06.c **** {
 145:..\..\..\u8g2\u8g2\csrc/u8x8_d_s1d15e06.c ****   /* chip_enable_level = */ 0,	/* s1d15e06 has low active CS */
 146:..\..\..\u8g2\u8g2\csrc/u8x8_d_s1d15e06.c ****   /* chip_disable_level = */ 1,
 147:..\..\..\u8g2\u8g2\csrc/u8x8_d_s1d15e06.c **** 
 148:..\..\..\u8g2\u8g2\csrc/u8x8_d_s1d15e06.c ****   /* post_chip_enable_wait_ns = */ 10,	/* uc1608 datasheet, page 39, actually 0 */
 149:..\..\..\u8g2\u8g2\csrc/u8x8_d_s1d15e06.c ****   /* pre_chip_disable_wait_ns = */ 20,	/* uc1608 datasheet, page 39 */
 150:..\..\..\u8g2\u8g2\csrc/u8x8_d_s1d15e06.c ****   /* reset_pulse_width_ms = */ 1, 	/* uc1608 datasheet, page 42 */
 151:..\..\..\u8g2\u8g2\csrc/u8x8_d_s1d15e06.c ****   /* post_reset_wait_ms = */ 10, 	
 152:..\..\..\u8g2\u8g2\csrc/u8x8_d_s1d15e06.c ****   /* sda_setup_time_ns = */ 30,		/* uc1608 datasheet, page 41 */
 153:..\..\..\u8g2\u8g2\csrc/u8x8_d_s1d15e06.c ****   /* sck_pulse_width_ns = */ 65,	/* half of cycle time  */
 154:..\..\..\u8g2\u8g2\csrc/u8x8_d_s1d15e06.c ****   /* sck_clock_hz = */ 8000000UL,	/* since Arduino 1.6.0, the SPI bus speed in Hz. Should be  10000
 155:..\..\..\u8g2\u8g2\csrc/u8x8_d_s1d15e06.c ****   /* spi_mode = */ 0,		/* active high, rising edge */
 156:..\..\..\u8g2\u8g2\csrc/u8x8_d_s1d15e06.c ****   /* i2c_bus_clock_100kHz = */ 4,
 157:..\..\..\u8g2\u8g2\csrc/u8x8_d_s1d15e06.c ****   /* data_setup_time_ns = */ 30,	/* uc1608 datasheet, page 39 */
 158:..\..\..\u8g2\u8g2\csrc/u8x8_d_s1d15e06.c ****   /* write_pulse_width_ns = */ 65,	/* uc1608 datasheet, page 39 */
 159:..\..\..\u8g2\u8g2\csrc/u8x8_d_s1d15e06.c ****   /* tile_width = */ 20,		/* width of 20*8=160 pixel */
 160:..\..\..\u8g2\u8g2\csrc/u8x8_d_s1d15e06.c ****   /* tile_hight = */ 13,
 161:..\..\..\u8g2\u8g2\csrc/u8x8_d_s1d15e06.c ****   /* default_x_offset = */ 0,	/* reused as y page offset */
 162:..\..\..\u8g2\u8g2\csrc/u8x8_d_s1d15e06.c ****   /* flipmode_x_offset = */ 0,	/* reused as y page offset */
 163:..\..\..\u8g2\u8g2\csrc/u8x8_d_s1d15e06.c ****   /* pixel_width = */ 160,
 164:..\..\..\u8g2\u8g2\csrc/u8x8_d_s1d15e06.c ****   /* pixel_height = */ 100
 165:..\..\..\u8g2\u8g2\csrc/u8x8_d_s1d15e06.c **** };
 166:..\..\..\u8g2\u8g2\csrc/u8x8_d_s1d15e06.c **** 
 167:..\..\..\u8g2\u8g2\csrc/u8x8_d_s1d15e06.c **** static const uint8_t u8x8_d_s1d15e06_160100_init_seq[] = {
 168:..\..\..\u8g2\u8g2\csrc/u8x8_d_s1d15e06.c **** 
 169:..\..\..\u8g2\u8g2\csrc/u8x8_d_s1d15e06.c ****   U8X8_START_TRANSFER(),           	/* enable chip, delay is part of the transfer start */
 170:..\..\..\u8g2\u8g2\csrc/u8x8_d_s1d15e06.c **** 
 171:..\..\..\u8g2\u8g2\csrc/u8x8_d_s1d15e06.c **** 									/* (Command no in datasheet) Description */
 172:..\..\..\u8g2\u8g2\csrc/u8x8_d_s1d15e06.c ****   U8X8_C(0xA0|1),           		/* (12) Column Address Direction (Reverse) */
 173:..\..\..\u8g2\u8g2\csrc/u8x8_d_s1d15e06.c **** 
 174:..\..\..\u8g2\u8g2\csrc/u8x8_d_s1d15e06.c ****   U8X8_C(0xC4|1),       	    	/* (5) Common Output Status (Reverse) */
 175:..\..\..\u8g2\u8g2\csrc/u8x8_d_s1d15e06.c ****   U8X8_C(0x84),            			/* (11) Display Data In. Direction (Normal) */
 176:..\..\..\u8g2\u8g2\csrc/u8x8_d_s1d15e06.c **** 
 177:..\..\..\u8g2\u8g2\csrc/u8x8_d_s1d15e06.c ****   U8X8_C(0xA6),            			/* (3) Display Normal Reverse (Normal) */
 178:..\..\..\u8g2\u8g2\csrc/u8x8_d_s1d15e06.c ****   U8X8_C(0xA4), 	           		/* (4) Display All Light (Normal) */
 179:..\..\..\u8g2\u8g2\csrc/u8x8_d_s1d15e06.c **** 
 180:..\..\..\u8g2\u8g2\csrc/u8x8_d_s1d15e06.c **** 
 181:..\..\..\u8g2\u8g2\csrc/u8x8_d_s1d15e06.c ****   U8X8_CAA(0x6D,0x18,0x04), 		/* (18) Duty Set Command, 
 182:..\..\..\u8g2\u8g2\csrc/u8x8_d_s1d15e06.c **** 										Parameter "Duty Set" 1/96 ,
 183:..\..\..\u8g2\u8g2\csrc/u8x8_d_s1d15e06.c **** 										Parameter "Start Point Set" */
 184:..\..\..\u8g2\u8g2\csrc/u8x8_d_s1d15e06.c **** 
 185:..\..\..\u8g2\u8g2\csrc/u8x8_d_s1d15e06.c ****   U8X8_CA(0x66, 0x01),           	/* (15) Display Mode, Parameter 0 (4 Gray Scale) 1 (Binary) */
 186:..\..\..\u8g2\u8g2\csrc/u8x8_d_s1d15e06.c ****   U8X8_CA(0x39, 0x43),            	/* (16) Gray Scale Pattern Set, Pattern */
 187:..\..\..\u8g2\u8g2\csrc/u8x8_d_s1d15e06.c ****   U8X8_C(0xBE|1),          	  		/* (2) Display Off Mode (0 VSS / 1 Vcc) */
 188:..\..\..\u8g2\u8g2\csrc/u8x8_d_s1d15e06.c **** 
 189:..\..\..\u8g2\u8g2\csrc/u8x8_d_s1d15e06.c ****   U8X8_CA(0x2B, 0x03),				/* (27) LCD Drive Mode Voltage Select, Parameter */
 190:..\..\..\u8g2\u8g2\csrc/u8x8_d_s1d15e06.c **** 
ARM GAS  C:\Users\jesse\AppData\Local\Temp\ccN1qmcr.s 			page 8


 191:..\..\..\u8g2\u8g2\csrc/u8x8_d_s1d15e06.c ****   U8X8_CA(0x81, 0x32),		        /* (28) Electronic Volume, Parameter */
 192:..\..\..\u8g2\u8g2\csrc/u8x8_d_s1d15e06.c ****   U8X8_C(0xE4|1),			        /* (14) N-Line On Off (On) */  
 193:..\..\..\u8g2\u8g2\csrc/u8x8_d_s1d15e06.c ****   U8X8_CA(0x36, 0x05),		        /* (13) N-Line Inversion Drive, Parameter (6x4)  */
 194:..\..\..\u8g2\u8g2\csrc/u8x8_d_s1d15e06.c **** 
 195:..\..\..\u8g2\u8g2\csrc/u8x8_d_s1d15e06.c ****   U8X8_CA(0x41, 0x03),		        /* (13) (26) Step-up CK Frequency Select, fosc/8  */
 196:..\..\..\u8g2\u8g2\csrc/u8x8_d_s1d15e06.c ****   U8X8_CA(0x5F, 0x04),		        /* (24) Built-in Oscillator Frequency, Parameter  */
 197:..\..\..\u8g2\u8g2\csrc/u8x8_d_s1d15e06.c ****   U8X8_C(0xAA|1),			        /* (23) Built-in OSC On */  
 198:..\..\..\u8g2\u8g2\csrc/u8x8_d_s1d15e06.c **** 
 199:..\..\..\u8g2\u8g2\csrc/u8x8_d_s1d15e06.c ****   U8X8_CA(0x25, 0x1F),		        /* (25) Power Control Set, Parameter  */
 200:..\..\..\u8g2\u8g2\csrc/u8x8_d_s1d15e06.c **** 
 201:..\..\..\u8g2\u8g2\csrc/u8x8_d_s1d15e06.c ****   U8X8_CA(0x8A, 0x00),		        /* (6) Start Line Setup, Parameter  */
 202:..\..\..\u8g2\u8g2\csrc/u8x8_d_s1d15e06.c ****   U8X8_CA(0xB1, 0x00),		        /* (7) Page Address Set, Parameter  */
 203:..\..\..\u8g2\u8g2\csrc/u8x8_d_s1d15e06.c ****   U8X8_CA(0x13, 0x00),		        /* (8) Column Address Set  */
 204:..\..\..\u8g2\u8g2\csrc/u8x8_d_s1d15e06.c **** 
 205:..\..\..\u8g2\u8g2\csrc/u8x8_d_s1d15e06.c ****   U8X8_C(0xAE|1),			        /* (1) Display ON/OFF */  
 206:..\..\..\u8g2\u8g2\csrc/u8x8_d_s1d15e06.c **** 
 207:..\..\..\u8g2\u8g2\csrc/u8x8_d_s1d15e06.c ****   U8X8_END_TRANSFER(),             	/* disable chip */
 208:..\..\..\u8g2\u8g2\csrc/u8x8_d_s1d15e06.c ****   U8X8_END()             			/* end of sequence */
 209:..\..\..\u8g2\u8g2\csrc/u8x8_d_s1d15e06.c **** };
 210:..\..\..\u8g2\u8g2\csrc/u8x8_d_s1d15e06.c **** 
 211:..\..\..\u8g2\u8g2\csrc/u8x8_d_s1d15e06.c **** uint8_t u8x8_d_s1d15e06_160100(u8x8_t *u8x8, uint8_t msg, uint8_t arg_int, void *arg_ptr)
 212:..\..\..\u8g2\u8g2\csrc/u8x8_d_s1d15e06.c **** {
 199              		.loc 1 212 0
 200              		.cfi_startproc
 201              		@ args = 0, pretend = 0, frame = 0
 202              		@ frame_needed = 0, uses_anonymous_args = 0
 203              	.LVL28:
 213:..\..\..\u8g2\u8g2\csrc/u8x8_d_s1d15e06.c **** 
 214:..\..\..\u8g2\u8g2\csrc/u8x8_d_s1d15e06.c ****   /* checking for the flip mode cmd first */
 215:..\..\..\u8g2\u8g2\csrc/u8x8_d_s1d15e06.c ****   if ( msg == U8X8_MSG_DISPLAY_SET_FLIP_MODE )
 204              		.loc 1 215 0
 205 0000 0D29     		cmp	r1, #13
 212:..\..\..\u8g2\u8g2\csrc/u8x8_d_s1d15e06.c **** 
 206              		.loc 1 212 0
 207 0002 70B5     		push	{r4, r5, r6, lr}
 208              		.cfi_def_cfa_offset 16
 209              		.cfi_offset 4, -16
 210              		.cfi_offset 5, -12
 211              		.cfi_offset 6, -8
 212              		.cfi_offset 14, -4
 212:..\..\..\u8g2\u8g2\csrc/u8x8_d_s1d15e06.c **** 
 213              		.loc 1 212 0
 214 0004 0446     		mov	r4, r0
 215 0006 0D46     		mov	r5, r1
 216              		.loc 1 215 0
 217 0008 0ED1     		bne	.L20
 216:..\..\..\u8g2\u8g2\csrc/u8x8_d_s1d15e06.c ****   {
 217:..\..\..\u8g2\u8g2\csrc/u8x8_d_s1d15e06.c ****       if ( arg_int == 0 )
 218              		.loc 1 217 0
 219 000a 2AB9     		cbnz	r2, .L21
 218:..\..\..\u8g2\u8g2\csrc/u8x8_d_s1d15e06.c ****       {
 219:..\..\..\u8g2\u8g2\csrc/u8x8_d_s1d15e06.c **** 	u8x8_cad_SendSequence(u8x8, u8x8_d_s1d15e06_flip0_seq);
 220              		.loc 1 219 0
 221 000c 1149     		ldr	r1, .L27
 222              	.LVL29:
 223 000e FFF7FEFF 		bl	u8x8_cad_SendSequence
 224              	.LVL30:
ARM GAS  C:\Users\jesse\AppData\Local\Temp\ccN1qmcr.s 			page 9


 220:..\..\..\u8g2\u8g2\csrc/u8x8_d_s1d15e06.c **** 	u8x8->x_offset = u8x8->display_info->default_x_offset;
 225              		.loc 1 220 0
 226 0012 2368     		ldr	r3, [r4]
 227 0014 9B7C     		ldrb	r3, [r3, #18]	@ zero_extendqisi2
 228 0016 04E0     		b	.L26
 229              	.LVL31:
 230              	.L21:
 221:..\..\..\u8g2\u8g2\csrc/u8x8_d_s1d15e06.c ****       }
 222:..\..\..\u8g2\u8g2\csrc/u8x8_d_s1d15e06.c ****       else
 223:..\..\..\u8g2\u8g2\csrc/u8x8_d_s1d15e06.c ****       {
 224:..\..\..\u8g2\u8g2\csrc/u8x8_d_s1d15e06.c **** 	u8x8_cad_SendSequence(u8x8, u8x8_d_s1d15e06_flip1_seq);
 231              		.loc 1 224 0
 232 0018 0F49     		ldr	r1, .L27+4
 233              	.LVL32:
 234 001a FFF7FEFF 		bl	u8x8_cad_SendSequence
 235              	.LVL33:
 225:..\..\..\u8g2\u8g2\csrc/u8x8_d_s1d15e06.c **** 	u8x8->x_offset = u8x8->display_info->flipmode_x_offset;
 236              		.loc 1 225 0
 237 001e 2368     		ldr	r3, [r4]
 238 0020 DB7C     		ldrb	r3, [r3, #19]	@ zero_extendqisi2
 239              	.L26:
 240 0022 84F82230 		strb	r3, [r4, #34]
 241 0026 13E0     		b	.L25
 242              	.LVL34:
 243              	.L20:
 226:..\..\..\u8g2\u8g2\csrc/u8x8_d_s1d15e06.c ****       }	
 227:..\..\..\u8g2\u8g2\csrc/u8x8_d_s1d15e06.c ****       return 1;
 228:..\..\..\u8g2\u8g2\csrc/u8x8_d_s1d15e06.c ****   }
 229:..\..\..\u8g2\u8g2\csrc/u8x8_d_s1d15e06.c ****   /* call the common procedure, this now leads to the effect, that the flip code is executed again 
 230:..\..\..\u8g2\u8g2\csrc/u8x8_d_s1d15e06.c ****   /* maybe we should paste the common code here to avoid this */
 231:..\..\..\u8g2\u8g2\csrc/u8x8_d_s1d15e06.c **** 
 232:..\..\..\u8g2\u8g2\csrc/u8x8_d_s1d15e06.c **** 
 233:..\..\..\u8g2\u8g2\csrc/u8x8_d_s1d15e06.c ****   if ( u8x8_d_s1d15e06_common(u8x8, msg, arg_int, arg_ptr) == 0 )
 244              		.loc 1 233 0
 245 0028 FFF7FEFF 		bl	u8x8_d_s1d15e06_common
 246              	.LVL35:
 247 002c 80B9     		cbnz	r0, .L25
 234:..\..\..\u8g2\u8g2\csrc/u8x8_d_s1d15e06.c ****   {
 235:..\..\..\u8g2\u8g2\csrc/u8x8_d_s1d15e06.c ****     /* msg not handled, then try here */
 236:..\..\..\u8g2\u8g2\csrc/u8x8_d_s1d15e06.c ****     switch(msg)
 248              		.loc 1 236 0
 249 002e 092D     		cmp	r5, #9
 250 0030 02D0     		beq	.L23
 251 0032 0A2D     		cmp	r5, #10
 252 0034 05D0     		beq	.L24
 253 0036 70BD     		pop	{r4, r5, r6, pc}
 254              	.LVL36:
 255              	.L23:
 237:..\..\..\u8g2\u8g2\csrc/u8x8_d_s1d15e06.c ****     {
 238:..\..\..\u8g2\u8g2\csrc/u8x8_d_s1d15e06.c ****       case U8X8_MSG_DISPLAY_SETUP_MEMORY:
 239:..\..\..\u8g2\u8g2\csrc/u8x8_d_s1d15e06.c **** 	u8x8_d_helper_display_setup_memory(u8x8, &u8x8_s1d15e06_160100_display_info);
 256              		.loc 1 239 0
 257 0038 0849     		ldr	r1, .L27+8
 258 003a 2046     		mov	r0, r4
 259 003c FFF7FEFF 		bl	u8x8_d_helper_display_setup_memory
 260              	.LVL37:
 261 0040 06E0     		b	.L25
ARM GAS  C:\Users\jesse\AppData\Local\Temp\ccN1qmcr.s 			page 10


 262              	.L24:
 240:..\..\..\u8g2\u8g2\csrc/u8x8_d_s1d15e06.c **** 	break;
 241:..\..\..\u8g2\u8g2\csrc/u8x8_d_s1d15e06.c ****       case U8X8_MSG_DISPLAY_INIT:
 242:..\..\..\u8g2\u8g2\csrc/u8x8_d_s1d15e06.c **** 	u8x8_d_helper_display_init(u8x8);
 263              		.loc 1 242 0
 264 0042 2046     		mov	r0, r4
 265 0044 FFF7FEFF 		bl	u8x8_d_helper_display_init
 266              	.LVL38:
 243:..\..\..\u8g2\u8g2\csrc/u8x8_d_s1d15e06.c **** 	u8x8_cad_SendSequence(u8x8, u8x8_d_s1d15e06_160100_init_seq);
 267              		.loc 1 243 0
 268 0048 0549     		ldr	r1, .L27+12
 269 004a 2046     		mov	r0, r4
 270 004c FFF7FEFF 		bl	u8x8_cad_SendSequence
 271              	.LVL39:
 272              	.L25:
 244:..\..\..\u8g2\u8g2\csrc/u8x8_d_s1d15e06.c **** 	break;
 245:..\..\..\u8g2\u8g2\csrc/u8x8_d_s1d15e06.c ****       default:
 246:..\..\..\u8g2\u8g2\csrc/u8x8_d_s1d15e06.c **** 	return 0;		/* msg unknown */
 247:..\..\..\u8g2\u8g2\csrc/u8x8_d_s1d15e06.c ****     }
 248:..\..\..\u8g2\u8g2\csrc/u8x8_d_s1d15e06.c ****   }
 249:..\..\..\u8g2\u8g2\csrc/u8x8_d_s1d15e06.c ****   return 1;
 273              		.loc 1 249 0
 274 0050 0120     		movs	r0, #1
 250:..\..\..\u8g2\u8g2\csrc/u8x8_d_s1d15e06.c **** }
 275              		.loc 1 250 0
 276 0052 70BD     		pop	{r4, r5, r6, pc}
 277              	.LVL40:
 278              	.L28:
 279              		.align	2
 280              	.L27:
 281 0054 0A000000 		.word	.LANCHOR0+10
 282 0058 0F000000 		.word	.LANCHOR0+15
 283 005c 14000000 		.word	.LANCHOR0+20
 284 0060 2C000000 		.word	.LANCHOR0+44
 285              		.cfi_endproc
 286              	.LFE1:
 287              		.size	u8x8_d_s1d15e06_160100, .-u8x8_d_s1d15e06_160100
 288              		.section	.rodata
 289              		.align	2
 290              		.set	.LANCHOR0,. + 0
 291              		.type	u8x8_d_s1d15e06_powersave0_seq, %object
 292              		.size	u8x8_d_s1d15e06_powersave0_seq, 5
 293              	u8x8_d_s1d15e06_powersave0_seq:
 294 0000 18       		.byte	24
 295 0001 15       		.byte	21
 296 0002 A8       		.byte	-88
 297 0003 19       		.byte	25
 298 0004 FF       		.byte	-1
 299              		.type	u8x8_d_s1d15e06_powersave1_seq, %object
 300              		.size	u8x8_d_s1d15e06_powersave1_seq, 5
 301              	u8x8_d_s1d15e06_powersave1_seq:
 302 0005 18       		.byte	24
 303 0006 15       		.byte	21
 304 0007 A9       		.byte	-87
 305 0008 19       		.byte	25
 306 0009 FF       		.byte	-1
 307              		.type	u8x8_d_s1d15e06_flip0_seq, %object
ARM GAS  C:\Users\jesse\AppData\Local\Temp\ccN1qmcr.s 			page 11


 308              		.size	u8x8_d_s1d15e06_flip0_seq, 5
 309              	u8x8_d_s1d15e06_flip0_seq:
 310 000a 18       		.byte	24
 311 000b 15       		.byte	21
 312 000c A6       		.byte	-90
 313 000d 19       		.byte	25
 314 000e FF       		.byte	-1
 315              		.type	u8x8_d_s1d15e06_flip1_seq, %object
 316              		.size	u8x8_d_s1d15e06_flip1_seq, 5
 317              	u8x8_d_s1d15e06_flip1_seq:
 318 000f 18       		.byte	24
 319 0010 15       		.byte	21
 320 0011 A7       		.byte	-89
 321 0012 19       		.byte	25
 322 0013 FF       		.byte	-1
 323              		.type	u8x8_s1d15e06_160100_display_info, %object
 324              		.size	u8x8_s1d15e06_160100_display_info, 24
 325              	u8x8_s1d15e06_160100_display_info:
 326 0014 00       		.byte	0
 327 0015 01       		.byte	1
 328 0016 0A       		.byte	10
 329 0017 14       		.byte	20
 330 0018 01       		.byte	1
 331 0019 0A       		.byte	10
 332 001a 1E       		.byte	30
 333 001b 41       		.byte	65
 334 001c 00127A00 		.word	8000000
 335 0020 00       		.byte	0
 336 0021 04       		.byte	4
 337 0022 1E       		.byte	30
 338 0023 41       		.byte	65
 339 0024 14       		.byte	20
 340 0025 0D       		.byte	13
 341 0026 00       		.byte	0
 342 0027 00       		.byte	0
 343 0028 A000     		.short	160
 344 002a 6400     		.short	100
 345              		.type	u8x8_d_s1d15e06_160100_init_seq, %object
 346              		.size	u8x8_d_s1d15e06_160100_init_seq, 71
 347              	u8x8_d_s1d15e06_160100_init_seq:
 348 002c 18       		.byte	24
 349 002d 15       		.byte	21
 350 002e A1       		.byte	-95
 351 002f 15       		.byte	21
 352 0030 C5       		.byte	-59
 353 0031 15       		.byte	21
 354 0032 84       		.byte	-124
 355 0033 15       		.byte	21
 356 0034 A6       		.byte	-90
 357 0035 15       		.byte	21
 358 0036 A4       		.byte	-92
 359 0037 15       		.byte	21
 360 0038 6D       		.byte	109
 361 0039 16       		.byte	22
 362 003a 18       		.byte	24
 363 003b 16       		.byte	22
 364 003c 04       		.byte	4
ARM GAS  C:\Users\jesse\AppData\Local\Temp\ccN1qmcr.s 			page 12


 365 003d 15       		.byte	21
 366 003e 66       		.byte	102
 367 003f 16       		.byte	22
 368 0040 01       		.byte	1
 369 0041 15       		.byte	21
 370 0042 39       		.byte	57
 371 0043 16       		.byte	22
 372 0044 43       		.byte	67
 373 0045 15       		.byte	21
 374 0046 BF       		.byte	-65
 375 0047 15       		.byte	21
 376 0048 2B       		.byte	43
 377 0049 16       		.byte	22
 378 004a 03       		.byte	3
 379 004b 15       		.byte	21
 380 004c 81       		.byte	-127
 381 004d 16       		.byte	22
 382 004e 32       		.byte	50
 383 004f 15       		.byte	21
 384 0050 E5       		.byte	-27
 385 0051 15       		.byte	21
 386 0052 36       		.byte	54
 387 0053 16       		.byte	22
 388 0054 05       		.byte	5
 389 0055 15       		.byte	21
 390 0056 41       		.byte	65
 391 0057 16       		.byte	22
 392 0058 03       		.byte	3
 393 0059 15       		.byte	21
 394 005a 5F       		.byte	95
 395 005b 16       		.byte	22
 396 005c 04       		.byte	4
 397 005d 15       		.byte	21
 398 005e AB       		.byte	-85
 399 005f 15       		.byte	21
 400 0060 25       		.byte	37
 401 0061 16       		.byte	22
 402 0062 1F       		.byte	31
 403 0063 15       		.byte	21
 404 0064 8A       		.byte	-118
 405 0065 16       		.byte	22
 406 0066 00       		.byte	0
 407 0067 15       		.byte	21
 408 0068 B1       		.byte	-79
 409 0069 16       		.byte	22
 410 006a 00       		.byte	0
 411 006b 15       		.byte	21
 412 006c 13       		.byte	19
 413 006d 16       		.byte	22
 414 006e 00       		.byte	0
 415 006f 15       		.byte	21
 416 0070 AF       		.byte	-81
 417 0071 19       		.byte	25
 418 0072 FF       		.byte	-1
 419              		.text
 420              	.Letext0:
 421              		.file 2 "c:\\program files (x86)\\cypress\\psoc creator\\4.4\\psoc creator\\import\\gnu\\arm\\5.4.
ARM GAS  C:\Users\jesse\AppData\Local\Temp\ccN1qmcr.s 			page 13


 422              		.file 3 "c:\\program files (x86)\\cypress\\psoc creator\\4.4\\psoc creator\\import\\gnu\\arm\\5.4.
 423              		.file 4 "..\\..\\..\\u8g2\\u8g2\\csrc\\u8x8.h"