ARM GAS  C:\Users\jesse\AppData\Local\Temp\cczJQ9WN.s 			page 1


   1              		.syntax unified
   2              		.cpu cortex-m3
   3              		.fpu softvfp
   4              		.eabi_attribute 20, 1
   5              		.eabi_attribute 21, 1
   6              		.eabi_attribute 23, 3
   7              		.eabi_attribute 24, 1
   8              		.eabi_attribute 25, 1
   9              		.eabi_attribute 26, 1
  10              		.eabi_attribute 30, 4
  11              		.eabi_attribute 34, 1
  12              		.eabi_attribute 18, 4
  13              		.thumb
  14              		.syntax unified
  15              		.file	"u8x8_8x8.c"
  16              		.text
  17              	.Ltext0:
  18              		.cfi_sections	.debug_frame
  19              		.section	.text.u8x8_get_glyph_data,"ax",%progbits
  20              		.align	1
  21              		.thumb
  22              		.thumb_func
  23              		.type	u8x8_get_glyph_data, %function
  24              	u8x8_get_glyph_data:
  25              	.LFB1:
  26              		.file 1 "..\\..\\..\\u8g2\\u8g2\\csrc\\u8x8_8x8.c"
   1:..\..\..\u8g2\u8g2\csrc/u8x8_8x8.c **** /*
   2:..\..\..\u8g2\u8g2\csrc/u8x8_8x8.c **** 
   3:..\..\..\u8g2\u8g2\csrc/u8x8_8x8.c ****   u8x8_8x8.c
   4:..\..\..\u8g2\u8g2\csrc/u8x8_8x8.c ****   
   5:..\..\..\u8g2\u8g2\csrc/u8x8_8x8.c ****   font procedures, directly interfaces display procedures
   6:..\..\..\u8g2\u8g2\csrc/u8x8_8x8.c ****   
   7:..\..\..\u8g2\u8g2\csrc/u8x8_8x8.c ****   Universal 8bit Graphics Library (https://github.com/olikraus/u8g2/)
   8:..\..\..\u8g2\u8g2\csrc/u8x8_8x8.c **** 
   9:..\..\..\u8g2\u8g2\csrc/u8x8_8x8.c ****   Copyright (c) 2016, olikraus@gmail.com
  10:..\..\..\u8g2\u8g2\csrc/u8x8_8x8.c ****   All rights reserved.
  11:..\..\..\u8g2\u8g2\csrc/u8x8_8x8.c **** 
  12:..\..\..\u8g2\u8g2\csrc/u8x8_8x8.c ****   Redistribution and use in source and binary forms, with or without modification, 
  13:..\..\..\u8g2\u8g2\csrc/u8x8_8x8.c ****   are permitted provided that the following conditions are met:
  14:..\..\..\u8g2\u8g2\csrc/u8x8_8x8.c **** 
  15:..\..\..\u8g2\u8g2\csrc/u8x8_8x8.c ****   * Redistributions of source code must retain the above copyright notice, this list 
  16:..\..\..\u8g2\u8g2\csrc/u8x8_8x8.c ****     of conditions and the following disclaimer.
  17:..\..\..\u8g2\u8g2\csrc/u8x8_8x8.c ****     
  18:..\..\..\u8g2\u8g2\csrc/u8x8_8x8.c ****   * Redistributions in binary form must reproduce the above copyright notice, this 
  19:..\..\..\u8g2\u8g2\csrc/u8x8_8x8.c ****     list of conditions and the following disclaimer in the documentation and/or other 
  20:..\..\..\u8g2\u8g2\csrc/u8x8_8x8.c ****     materials provided with the distribution.
  21:..\..\..\u8g2\u8g2\csrc/u8x8_8x8.c **** 
  22:..\..\..\u8g2\u8g2\csrc/u8x8_8x8.c ****   THIS SOFTWARE IS PROVIDED BY THE COPYRIGHT HOLDERS AND 
  23:..\..\..\u8g2\u8g2\csrc/u8x8_8x8.c ****   CONTRIBUTORS "AS IS" AND ANY EXPRESS OR IMPLIED WARRANTIES, 
  24:..\..\..\u8g2\u8g2\csrc/u8x8_8x8.c ****   INCLUDING, BUT NOT LIMITED TO, THE IMPLIED WARRANTIES OF 
  25:..\..\..\u8g2\u8g2\csrc/u8x8_8x8.c ****   MERCHANTABILITY AND FITNESS FOR A PARTICULAR PURPOSE ARE 
  26:..\..\..\u8g2\u8g2\csrc/u8x8_8x8.c ****   DISCLAIMED. IN NO EVENT SHALL THE COPYRIGHT HOLDER OR 
  27:..\..\..\u8g2\u8g2\csrc/u8x8_8x8.c ****   CONTRIBUTORS BE LIABLE FOR ANY DIRECT, INDIRECT, INCIDENTAL, 
  28:..\..\..\u8g2\u8g2\csrc/u8x8_8x8.c ****   SPECIAL, EXEMPLARY, OR CONSEQUENTIAL DAMAGES (INCLUDING, BUT 
  29:..\..\..\u8g2\u8g2\csrc/u8x8_8x8.c ****   NOT LIMITED TO, PROCUREMENT OF SUBSTITUTE GOODS OR SERVICES; 
  30:..\..\..\u8g2\u8g2\csrc/u8x8_8x8.c ****   LOSS OF USE, DATA, OR PROFITS; OR BUSINESS INTERRUPTION) HOWEVER 
  31:..\..\..\u8g2\u8g2\csrc/u8x8_8x8.c ****   CAUSED AND ON ANY THEORY OF LIABILITY, WHETHER IN CONTRACT, 
ARM GAS  C:\Users\jesse\AppData\Local\Temp\cczJQ9WN.s 			page 2


  32:..\..\..\u8g2\u8g2\csrc/u8x8_8x8.c ****   STRICT LIABILITY, OR TORT (INCLUDING NEGLIGENCE OR OTHERWISE) 
  33:..\..\..\u8g2\u8g2\csrc/u8x8_8x8.c ****   ARISING IN ANY WAY OUT OF THE USE OF THIS SOFTWARE, EVEN IF 
  34:..\..\..\u8g2\u8g2\csrc/u8x8_8x8.c ****   ADVISED OF THE POSSIBILITY OF SUCH DAMAGE.    
  35:..\..\..\u8g2\u8g2\csrc/u8x8_8x8.c **** 
  36:..\..\..\u8g2\u8g2\csrc/u8x8_8x8.c **** */
  37:..\..\..\u8g2\u8g2\csrc/u8x8_8x8.c **** 
  38:..\..\..\u8g2\u8g2\csrc/u8x8_8x8.c **** #include "u8x8.h"
  39:..\..\..\u8g2\u8g2\csrc/u8x8_8x8.c **** 
  40:..\..\..\u8g2\u8g2\csrc/u8x8_8x8.c **** #if defined(ESP8266)
  41:..\..\..\u8g2\u8g2\csrc/u8x8_8x8.c **** uint8_t u8x8_pgm_read_esp(const uint8_t * addr) 
  42:..\..\..\u8g2\u8g2\csrc/u8x8_8x8.c **** {
  43:..\..\..\u8g2\u8g2\csrc/u8x8_8x8.c ****     uint32_t bytes;
  44:..\..\..\u8g2\u8g2\csrc/u8x8_8x8.c ****     bytes = *(uint32_t*)((uint32_t)addr & ~3);
  45:..\..\..\u8g2\u8g2\csrc/u8x8_8x8.c ****     return ((uint8_t*)&bytes)[(uint32_t)addr & 3];
  46:..\..\..\u8g2\u8g2\csrc/u8x8_8x8.c **** }
  47:..\..\..\u8g2\u8g2\csrc/u8x8_8x8.c **** #endif
  48:..\..\..\u8g2\u8g2\csrc/u8x8_8x8.c **** 
  49:..\..\..\u8g2\u8g2\csrc/u8x8_8x8.c **** 
  50:..\..\..\u8g2\u8g2\csrc/u8x8_8x8.c **** void u8x8_SetFont(u8x8_t *u8x8, const uint8_t *font_8x8)
  51:..\..\..\u8g2\u8g2\csrc/u8x8_8x8.c **** {
  52:..\..\..\u8g2\u8g2\csrc/u8x8_8x8.c ****   u8x8->font = font_8x8;
  53:..\..\..\u8g2\u8g2\csrc/u8x8_8x8.c **** }
  54:..\..\..\u8g2\u8g2\csrc/u8x8_8x8.c **** 
  55:..\..\..\u8g2\u8g2\csrc/u8x8_8x8.c **** /*
  56:..\..\..\u8g2\u8g2\csrc/u8x8_8x8.c ****  Args:
  57:..\..\..\u8g2\u8g2\csrc/u8x8_8x8.c ****    u8x8: ptr to u8x8 structure
  58:..\..\..\u8g2\u8g2\csrc/u8x8_8x8.c ****    encoding: glyph for which the data is requested (must be between 0 and 255)
  59:..\..\..\u8g2\u8g2\csrc/u8x8_8x8.c ****    buf: pointer to 8 bytes
  60:..\..\..\u8g2\u8g2\csrc/u8x8_8x8.c **** */
  61:..\..\..\u8g2\u8g2\csrc/u8x8_8x8.c **** static void u8x8_get_glyph_data(u8x8_t *u8x8, uint8_t encoding, uint8_t *buf, uint8_t tile_offset) 
  62:..\..\..\u8g2\u8g2\csrc/u8x8_8x8.c **** static void u8x8_get_glyph_data(u8x8_t *u8x8, uint8_t encoding, uint8_t *buf, uint8_t tile_offset) 
  63:..\..\..\u8g2\u8g2\csrc/u8x8_8x8.c **** {
  27              		.loc 1 63 0
  28              		.cfi_startproc
  29              		@ args = 0, pretend = 0, frame = 0
  30              		@ frame_needed = 0, uses_anonymous_args = 0
  31              	.LVL0:
  32 0000 F0B5     		push	{r4, r5, r6, r7, lr}
  33              		.cfi_def_cfa_offset 20
  34              		.cfi_offset 4, -20
  35              		.cfi_offset 5, -16
  36              		.cfi_offset 6, -12
  37              		.cfi_offset 7, -8
  38              		.cfi_offset 14, -4
  64:..\..\..\u8g2\u8g2\csrc/u8x8_8x8.c ****   uint8_t first, last, tiles, i;
  65:..\..\..\u8g2\u8g2\csrc/u8x8_8x8.c ****   uint16_t offset;
  66:..\..\..\u8g2\u8g2\csrc/u8x8_8x8.c ****   first = u8x8_pgm_read(u8x8->font+0);
  39              		.loc 1 66 0
  40 0002 C669     		ldr	r6, [r0, #28]
  41 0004 551E     		subs	r5, r2, #1
  42 0006 3778     		ldrb	r7, [r6]	@ zero_extendqisi2
  43              	.LVL1:
  67:..\..\..\u8g2\u8g2\csrc/u8x8_8x8.c ****   last = u8x8_pgm_read(u8x8->font+1);
  68:..\..\..\u8g2\u8g2\csrc/u8x8_8x8.c ****   tiles = u8x8_pgm_read(u8x8->font+2);		/* new 2019 format */
  69:..\..\..\u8g2\u8g2\csrc/u8x8_8x8.c ****   tiles *= u8x8_pgm_read(u8x8->font+3);	/* new 2019 format */
  70:..\..\..\u8g2\u8g2\csrc/u8x8_8x8.c ****   
  71:..\..\..\u8g2\u8g2\csrc/u8x8_8x8.c ****   /* get the glyph bitmap from the font */
ARM GAS  C:\Users\jesse\AppData\Local\Temp\cczJQ9WN.s 			page 3


  72:..\..\..\u8g2\u8g2\csrc/u8x8_8x8.c ****   if ( first <= encoding && encoding <= last )
  44              		.loc 1 72 0
  45 0008 8F42     		cmp	r7, r1
  46 000a 1FD8     		bhi	.L2
  47              		.loc 1 72 0 is_stmt 0 discriminator 1
  48 000c 7478     		ldrb	r4, [r6, #1]	@ zero_extendqisi2
  49 000e 8C42     		cmp	r4, r1
  50 0010 1CD3     		bcc	.L2
  51              	.LVL2:
  68:..\..\..\u8g2\u8g2\csrc/u8x8_8x8.c ****   tiles *= u8x8_pgm_read(u8x8->font+3);	/* new 2019 format */
  52              		.loc 1 68 0 is_stmt 1
  53 0012 96F802E0 		ldrb	lr, [r6, #2]	@ zero_extendqisi2
  73:..\..\..\u8g2\u8g2\csrc/u8x8_8x8.c ****   {
  74:..\..\..\u8g2\u8g2\csrc/u8x8_8x8.c ****     offset = encoding;
  75:..\..\..\u8g2\u8g2\csrc/u8x8_8x8.c ****     offset -= first;
  76:..\..\..\u8g2\u8g2\csrc/u8x8_8x8.c ****     offset *= tiles;		/* new 2019 format */
  54              		.loc 1 76 0
  55 0016 F478     		ldrb	r4, [r6, #3]	@ zero_extendqisi2
  75:..\..\..\u8g2\u8g2\csrc/u8x8_8x8.c ****     offset *= tiles;		/* new 2019 format */
  56              		.loc 1 75 0
  57 0018 C91B     		subs	r1, r1, r7
  58              	.LVL3:
  59              		.loc 1 76 0
  60 001a 04FB0EF4 		mul	r4, r4, lr
  61 001e E4B2     		uxtb	r4, r4
  62              	.LVL4:
  77:..\..\..\u8g2\u8g2\csrc/u8x8_8x8.c ****     offset += tile_offset;	/* new 2019 format */
  63              		.loc 1 77 0
  64 0020 01FB0433 		mla	r3, r1, r4, r3
  65              	.LVL5:
  66 0024 2C46     		mov	r4, r5
  67              	.LVL6:
  68 0026 9BB2     		uxth	r3, r3
  69              	.LVL7:
  78:..\..\..\u8g2\u8g2\csrc/u8x8_8x8.c ****     offset *= 8;
  70              		.loc 1 78 0
  71 0028 DB00     		lsls	r3, r3, #3
  72              	.LVL8:
  73 002a 9BB2     		uxth	r3, r3
  74              	.LVL9:
  79:..\..\..\u8g2\u8g2\csrc/u8x8_8x8.c ****     offset +=4;			/* changed from 2 to 4, new 2019 format */
  75              		.loc 1 79 0
  76 002c 191D     		adds	r1, r3, #4
  77 002e 0C33     		adds	r3, r3, #12
  78              	.LVL10:
  79 0030 89B2     		uxth	r1, r1
  80              	.LVL11:
  81 0032 9BB2     		uxth	r3, r3
  82              	.LVL12:
  83              	.L3:
  80:..\..\..\u8g2\u8g2\csrc/u8x8_8x8.c ****     for( i = 0; i < 8; i++ )
  81:..\..\..\u8g2\u8g2\csrc/u8x8_8x8.c ****     {
  82:..\..\..\u8g2\u8g2\csrc/u8x8_8x8.c ****       buf[i] = u8x8_pgm_read(u8x8->font+offset);
  84              		.loc 1 82 0 discriminator 3
  85 0034 C669     		ldr	r6, [r0, #28]
  86 0036 765C     		ldrb	r6, [r6, r1]	@ zero_extendqisi2
  83:..\..\..\u8g2\u8g2\csrc/u8x8_8x8.c ****       offset++;
ARM GAS  C:\Users\jesse\AppData\Local\Temp\cczJQ9WN.s 			page 4


  87              		.loc 1 83 0 discriminator 3
  88 0038 0131     		adds	r1, r1, #1
  89              	.LVL13:
  90 003a 89B2     		uxth	r1, r1
  91              	.LVL14:
  80:..\..\..\u8g2\u8g2\csrc/u8x8_8x8.c ****     for( i = 0; i < 8; i++ )
  92              		.loc 1 80 0 discriminator 3
  93 003c 9942     		cmp	r1, r3
  82:..\..\..\u8g2\u8g2\csrc/u8x8_8x8.c ****       offset++;
  94              		.loc 1 82 0 discriminator 3
  95 003e 04F8016F 		strb	r6, [r4, #1]!
  80:..\..\..\u8g2\u8g2\csrc/u8x8_8x8.c ****     for( i = 0; i < 8; i++ )
  96              		.loc 1 80 0 discriminator 3
  97 0042 F7D1     		bne	.L3
  98              	.LVL15:
  99              	.L7:
  84:..\..\..\u8g2\u8g2\csrc/u8x8_8x8.c ****     }
  85:..\..\..\u8g2\u8g2\csrc/u8x8_8x8.c ****   }
  86:..\..\..\u8g2\u8g2\csrc/u8x8_8x8.c ****   else
  87:..\..\..\u8g2\u8g2\csrc/u8x8_8x8.c ****   {
  88:..\..\..\u8g2\u8g2\csrc/u8x8_8x8.c ****     for( i = 0; i < 8; i++ )
  89:..\..\..\u8g2\u8g2\csrc/u8x8_8x8.c ****     {
  90:..\..\..\u8g2\u8g2\csrc/u8x8_8x8.c ****       buf[i] = 0;
  91:..\..\..\u8g2\u8g2\csrc/u8x8_8x8.c ****     }
  92:..\..\..\u8g2\u8g2\csrc/u8x8_8x8.c ****   }
  93:..\..\..\u8g2\u8g2\csrc/u8x8_8x8.c ****   
  94:..\..\..\u8g2\u8g2\csrc/u8x8_8x8.c ****   /* invert the bitmap if required */
  95:..\..\..\u8g2\u8g2\csrc/u8x8_8x8.c ****   if ( u8x8->is_font_inverse_mode )
 100              		.loc 1 95 0
 101 0044 90F82330 		ldrb	r3, [r0, #35]	@ zero_extendqisi2
 102 0048 43B9     		cbnz	r3, .L4
 103 004a F0BD     		pop	{r4, r5, r6, r7, pc}
 104              	.LVL16:
 105              	.L2:
 106 004c 2B46     		mov	r3, r5
 107              	.LVL17:
 108 004e D11D     		adds	r1, r2, #7
 109              	.LVL18:
  90:..\..\..\u8g2\u8g2\csrc/u8x8_8x8.c ****     }
 110              		.loc 1 90 0 discriminator 3
 111 0050 0024     		movs	r4, #0
 112              	.LVL19:
 113              	.L6:
 114 0052 03F8014F 		strb	r4, [r3, #1]!
 115              	.LVL20:
  88:..\..\..\u8g2\u8g2\csrc/u8x8_8x8.c ****     {
 116              		.loc 1 88 0 discriminator 3
 117 0056 8B42     		cmp	r3, r1
 118 0058 FBD1     		bne	.L6
 119 005a F3E7     		b	.L7
 120              	.LVL21:
 121              	.L4:
 122 005c 2B46     		mov	r3, r5
 123 005e 0732     		adds	r2, r2, #7
 124              	.LVL22:
 125              	.L8:
  96:..\..\..\u8g2\u8g2\csrc/u8x8_8x8.c ****   {
ARM GAS  C:\Users\jesse\AppData\Local\Temp\cczJQ9WN.s 			page 5


  97:..\..\..\u8g2\u8g2\csrc/u8x8_8x8.c ****     for( i = 0; i < 8; i++ )
  98:..\..\..\u8g2\u8g2\csrc/u8x8_8x8.c ****     {
  99:..\..\..\u8g2\u8g2\csrc/u8x8_8x8.c ****       buf[i] ^= 255;
 126              		.loc 1 99 0 discriminator 3
 127 0060 13F8011F 		ldrb	r1, [r3, #1]!	@ zero_extendqisi2
 128              	.LVL23:
 129 0064 C943     		mvns	r1, r1
  97:..\..\..\u8g2\u8g2\csrc/u8x8_8x8.c ****     {
 130              		.loc 1 97 0 discriminator 3
 131 0066 9342     		cmp	r3, r2
 132              		.loc 1 99 0 discriminator 3
 133 0068 1970     		strb	r1, [r3]
 134              	.LVL24:
  97:..\..\..\u8g2\u8g2\csrc/u8x8_8x8.c ****     {
 135              		.loc 1 97 0 discriminator 3
 136 006a F9D1     		bne	.L8
 137 006c F0BD     		pop	{r4, r5, r6, r7, pc}
 138              		.cfi_endproc
 139              	.LFE1:
 140              		.size	u8x8_get_glyph_data, .-u8x8_get_glyph_data
 141              		.section	.text.u8x8_upscale_buf,"ax",%progbits
 142              		.align	1
 143              		.thumb
 144              		.thumb_func
 145              		.type	u8x8_upscale_buf, %function
 146              	u8x8_upscale_buf:
 147              	.LFB4:
 100:..\..\..\u8g2\u8g2\csrc/u8x8_8x8.c ****     }
 101:..\..\..\u8g2\u8g2\csrc/u8x8_8x8.c ****   }
 102:..\..\..\u8g2\u8g2\csrc/u8x8_8x8.c ****   
 103:..\..\..\u8g2\u8g2\csrc/u8x8_8x8.c **** }
 104:..\..\..\u8g2\u8g2\csrc/u8x8_8x8.c **** 
 105:..\..\..\u8g2\u8g2\csrc/u8x8_8x8.c **** void u8x8_DrawGlyph(u8x8_t *u8x8, uint8_t x, uint8_t y, uint8_t encoding)
 106:..\..\..\u8g2\u8g2\csrc/u8x8_8x8.c **** {
 107:..\..\..\u8g2\u8g2\csrc/u8x8_8x8.c ****   uint8_t th = u8x8_pgm_read(u8x8->font+2);		/* new 2019 format */
 108:..\..\..\u8g2\u8g2\csrc/u8x8_8x8.c ****   uint8_t tv = u8x8_pgm_read(u8x8->font+3);	/* new 2019 format */
 109:..\..\..\u8g2\u8g2\csrc/u8x8_8x8.c ****   uint8_t xx, tile;
 110:..\..\..\u8g2\u8g2\csrc/u8x8_8x8.c ****   uint8_t buf[8];
 111:..\..\..\u8g2\u8g2\csrc/u8x8_8x8.c ****   th += x;
 112:..\..\..\u8g2\u8g2\csrc/u8x8_8x8.c ****   tv += y;
 113:..\..\..\u8g2\u8g2\csrc/u8x8_8x8.c ****   tile = 0;
 114:..\..\..\u8g2\u8g2\csrc/u8x8_8x8.c ****   do
 115:..\..\..\u8g2\u8g2\csrc/u8x8_8x8.c ****   {
 116:..\..\..\u8g2\u8g2\csrc/u8x8_8x8.c ****     xx = x;
 117:..\..\..\u8g2\u8g2\csrc/u8x8_8x8.c ****     do
 118:..\..\..\u8g2\u8g2\csrc/u8x8_8x8.c ****     {
 119:..\..\..\u8g2\u8g2\csrc/u8x8_8x8.c ****       u8x8_get_glyph_data(u8x8, encoding, buf, tile);
 120:..\..\..\u8g2\u8g2\csrc/u8x8_8x8.c ****       u8x8_DrawTile(u8x8, xx, y, 1, buf);
 121:..\..\..\u8g2\u8g2\csrc/u8x8_8x8.c ****       tile++;
 122:..\..\..\u8g2\u8g2\csrc/u8x8_8x8.c ****       xx++;
 123:..\..\..\u8g2\u8g2\csrc/u8x8_8x8.c ****     } while( xx < th );
 124:..\..\..\u8g2\u8g2\csrc/u8x8_8x8.c ****     y++;
 125:..\..\..\u8g2\u8g2\csrc/u8x8_8x8.c ****   } while( y < tv );
 126:..\..\..\u8g2\u8g2\csrc/u8x8_8x8.c **** }
 127:..\..\..\u8g2\u8g2\csrc/u8x8_8x8.c **** 
 128:..\..\..\u8g2\u8g2\csrc/u8x8_8x8.c **** 
 129:..\..\..\u8g2\u8g2\csrc/u8x8_8x8.c **** /*
ARM GAS  C:\Users\jesse\AppData\Local\Temp\cczJQ9WN.s 			page 6


 130:..\..\..\u8g2\u8g2\csrc/u8x8_8x8.c ****   Source: http://graphics.stanford.edu/~seander/bithacks.html
 131:..\..\..\u8g2\u8g2\csrc/u8x8_8x8.c **** 	Section: Interleave bits by Binary Magic Numbers 
 132:..\..\..\u8g2\u8g2\csrc/u8x8_8x8.c ****    Original codes is here:
 133:..\..\..\u8g2\u8g2\csrc/u8x8_8x8.c **** 		static const unsigned int B[] = {0x55555555, 0x33333333, 0x0F0F0F0F, 0x00FF00FF};
 134:..\..\..\u8g2\u8g2\csrc/u8x8_8x8.c **** 		static const unsigned int S[] = {1, 2, 4, 8};
 135:..\..\..\u8g2\u8g2\csrc/u8x8_8x8.c **** 
 136:..\..\..\u8g2\u8g2\csrc/u8x8_8x8.c **** 		unsigned int x; // Interleave lower 16 bits of x and y, so the bits of x
 137:..\..\..\u8g2\u8g2\csrc/u8x8_8x8.c **** 		unsigned int y; // are in the even positions and bits from y in the odd;
 138:..\..\..\u8g2\u8g2\csrc/u8x8_8x8.c **** 		unsigned int z; // z gets the resulting 32-bit Morton Number.  
 139:..\..\..\u8g2\u8g2\csrc/u8x8_8x8.c **** 				// x and y must initially be less than 65536.
 140:..\..\..\u8g2\u8g2\csrc/u8x8_8x8.c **** 
 141:..\..\..\u8g2\u8g2\csrc/u8x8_8x8.c **** 		x = (x | (x << S[3])) & B[3];
 142:..\..\..\u8g2\u8g2\csrc/u8x8_8x8.c **** 		x = (x | (x << S[2])) & B[2];
 143:..\..\..\u8g2\u8g2\csrc/u8x8_8x8.c **** 		x = (x | (x << S[1])) & B[1];
 144:..\..\..\u8g2\u8g2\csrc/u8x8_8x8.c **** 		x = (x | (x << S[0])) & B[0];
 145:..\..\..\u8g2\u8g2\csrc/u8x8_8x8.c **** 
 146:..\..\..\u8g2\u8g2\csrc/u8x8_8x8.c **** 		y = (y | (y << S[3])) & B[3];
 147:..\..\..\u8g2\u8g2\csrc/u8x8_8x8.c **** 		y = (y | (y << S[2])) & B[2];
 148:..\..\..\u8g2\u8g2\csrc/u8x8_8x8.c **** 		y = (y | (y << S[1])) & B[1];
 149:..\..\..\u8g2\u8g2\csrc/u8x8_8x8.c **** 		y = (y | (y << S[0])) & B[0];
 150:..\..\..\u8g2\u8g2\csrc/u8x8_8x8.c **** 
 151:..\..\..\u8g2\u8g2\csrc/u8x8_8x8.c **** 		z = x | (y << 1);
 152:..\..\..\u8g2\u8g2\csrc/u8x8_8x8.c **** */
 153:..\..\..\u8g2\u8g2\csrc/u8x8_8x8.c **** uint16_t u8x8_upscale_byte(uint8_t x) 
 154:..\..\..\u8g2\u8g2\csrc/u8x8_8x8.c **** {
 155:..\..\..\u8g2\u8g2\csrc/u8x8_8x8.c **** 	uint16_t y = x;
 156:..\..\..\u8g2\u8g2\csrc/u8x8_8x8.c **** 	y |= (y << 4);		// x = (x | (x << S[2])) & B[2];
 157:..\..\..\u8g2\u8g2\csrc/u8x8_8x8.c **** 	y &= 0x0f0f;
 158:..\..\..\u8g2\u8g2\csrc/u8x8_8x8.c **** 	y |= (y << 2);		// x = (x | (x << S[1])) & B[1];
 159:..\..\..\u8g2\u8g2\csrc/u8x8_8x8.c **** 	y &= 0x3333;
 160:..\..\..\u8g2\u8g2\csrc/u8x8_8x8.c **** 	y |= (y << 1);		// x = (x | (x << S[0])) & B[0];
 161:..\..\..\u8g2\u8g2\csrc/u8x8_8x8.c **** 	y &= 0x5555;
 162:..\..\..\u8g2\u8g2\csrc/u8x8_8x8.c ****   
 163:..\..\..\u8g2\u8g2\csrc/u8x8_8x8.c **** 	y |= (y << 1);		// z = x | (y << 1);
 164:..\..\..\u8g2\u8g2\csrc/u8x8_8x8.c **** 	return y;
 165:..\..\..\u8g2\u8g2\csrc/u8x8_8x8.c **** }
 166:..\..\..\u8g2\u8g2\csrc/u8x8_8x8.c **** 
 167:..\..\..\u8g2\u8g2\csrc/u8x8_8x8.c **** static void u8x8_upscale_buf(uint8_t *src, uint8_t *dest) U8X8_NOINLINE;
 168:..\..\..\u8g2\u8g2\csrc/u8x8_8x8.c **** static void u8x8_upscale_buf(uint8_t *src, uint8_t *dest)
 169:..\..\..\u8g2\u8g2\csrc/u8x8_8x8.c **** {
 148              		.loc 1 169 0
 149              		.cfi_startproc
 150              		@ args = 0, pretend = 0, frame = 0
 151              		@ frame_needed = 0, uses_anonymous_args = 0
 152              		@ link register save eliminated.
 153              	.LVL25:
 154 0000 0231     		adds	r1, r1, #2
 155              	.LVL26:
 156 0002 031D     		adds	r3, r0, #4
 157              	.LVL27:
 158              	.L14:
 170:..\..\..\u8g2\u8g2\csrc/u8x8_8x8.c ****   uint8_t i = 4;  
 171:..\..\..\u8g2\u8g2\csrc/u8x8_8x8.c ****   do 
 172:..\..\..\u8g2\u8g2\csrc/u8x8_8x8.c ****   {
 173:..\..\..\u8g2\u8g2\csrc/u8x8_8x8.c ****     *dest++ = *src;
 159              		.loc 1 173 0 discriminator 1
 160 0004 0278     		ldrb	r2, [r0]	@ zero_extendqisi2
ARM GAS  C:\Users\jesse\AppData\Local\Temp\cczJQ9WN.s 			page 7


 161 0006 0231     		adds	r1, r1, #2
 162              	.LVL28:
 163 0008 01F8042C 		strb	r2, [r1, #-4]
 164              	.LVL29:
 174:..\..\..\u8g2\u8g2\csrc/u8x8_8x8.c ****     *dest++ = *src++;
 165              		.loc 1 174 0 discriminator 1
 166 000c 10F8012B 		ldrb	r2, [r0], #1	@ zero_extendqisi2
 167              	.LVL30:
 175:..\..\..\u8g2\u8g2\csrc/u8x8_8x8.c ****     i--;
 176:..\..\..\u8g2\u8g2\csrc/u8x8_8x8.c ****   } while( i > 0 );
 168              		.loc 1 176 0 discriminator 1
 169 0010 9842     		cmp	r0, r3
 174:..\..\..\u8g2\u8g2\csrc/u8x8_8x8.c ****     *dest++ = *src++;
 170              		.loc 1 174 0 discriminator 1
 171 0012 01F8032C 		strb	r2, [r1, #-3]
 172              		.loc 1 176 0 discriminator 1
 173 0016 F5D1     		bne	.L14
 177:..\..\..\u8g2\u8g2\csrc/u8x8_8x8.c **** }
 174              		.loc 1 177 0
 175 0018 7047     		bx	lr
 176              		.cfi_endproc
 177              	.LFE4:
 178              		.size	u8x8_upscale_buf, .-u8x8_upscale_buf
 179              		.section	.text.u8x8_ascii_next,"ax",%progbits
 180              		.align	1
 181              		.global	u8x8_ascii_next
 182              		.thumb
 183              		.thumb_func
 184              		.type	u8x8_ascii_next, %function
 185              	u8x8_ascii_next:
 186              	.LFB10:
 178:..\..\..\u8g2\u8g2\csrc/u8x8_8x8.c **** 
 179:..\..\..\u8g2\u8g2\csrc/u8x8_8x8.c **** static void u8x8_draw_2x2_subglyph(u8x8_t *u8x8, uint8_t x, uint8_t y, uint8_t encoding, uint8_t ti
 180:..\..\..\u8g2\u8g2\csrc/u8x8_8x8.c **** {
 181:..\..\..\u8g2\u8g2\csrc/u8x8_8x8.c ****   uint8_t i;
 182:..\..\..\u8g2\u8g2\csrc/u8x8_8x8.c ****   uint16_t t;
 183:..\..\..\u8g2\u8g2\csrc/u8x8_8x8.c ****   uint8_t buf[8];
 184:..\..\..\u8g2\u8g2\csrc/u8x8_8x8.c ****   uint8_t buf1[8];
 185:..\..\..\u8g2\u8g2\csrc/u8x8_8x8.c ****   uint8_t buf2[8];
 186:..\..\..\u8g2\u8g2\csrc/u8x8_8x8.c ****   u8x8_get_glyph_data(u8x8, encoding, buf, tile);
 187:..\..\..\u8g2\u8g2\csrc/u8x8_8x8.c ****   for( i = 0; i < 8; i ++ )
 188:..\..\..\u8g2\u8g2\csrc/u8x8_8x8.c ****   {
 189:..\..\..\u8g2\u8g2\csrc/u8x8_8x8.c ****       t = u8x8_upscale_byte(buf[i]);
 190:..\..\..\u8g2\u8g2\csrc/u8x8_8x8.c ****       buf1[i] = t >> 8;
 191:..\..\..\u8g2\u8g2\csrc/u8x8_8x8.c ****       buf2[i] = t & 255;
 192:..\..\..\u8g2\u8g2\csrc/u8x8_8x8.c ****   }
 193:..\..\..\u8g2\u8g2\csrc/u8x8_8x8.c ****   u8x8_upscale_buf(buf2, buf);
 194:..\..\..\u8g2\u8g2\csrc/u8x8_8x8.c ****   u8x8_DrawTile(u8x8, x, y, 1, buf);
 195:..\..\..\u8g2\u8g2\csrc/u8x8_8x8.c ****   
 196:..\..\..\u8g2\u8g2\csrc/u8x8_8x8.c ****   u8x8_upscale_buf(buf2+4, buf);
 197:..\..\..\u8g2\u8g2\csrc/u8x8_8x8.c ****   u8x8_DrawTile(u8x8, x+1, y, 1, buf);
 198:..\..\..\u8g2\u8g2\csrc/u8x8_8x8.c ****   
 199:..\..\..\u8g2\u8g2\csrc/u8x8_8x8.c ****   u8x8_upscale_buf(buf1, buf);
 200:..\..\..\u8g2\u8g2\csrc/u8x8_8x8.c ****   u8x8_DrawTile(u8x8, x, y+1, 1, buf);
 201:..\..\..\u8g2\u8g2\csrc/u8x8_8x8.c ****   
 202:..\..\..\u8g2\u8g2\csrc/u8x8_8x8.c ****   u8x8_upscale_buf(buf1+4, buf);
 203:..\..\..\u8g2\u8g2\csrc/u8x8_8x8.c ****   u8x8_DrawTile(u8x8, x+1, y+1, 1, buf);  
ARM GAS  C:\Users\jesse\AppData\Local\Temp\cczJQ9WN.s 			page 8


 204:..\..\..\u8g2\u8g2\csrc/u8x8_8x8.c **** }
 205:..\..\..\u8g2\u8g2\csrc/u8x8_8x8.c **** 
 206:..\..\..\u8g2\u8g2\csrc/u8x8_8x8.c **** 
 207:..\..\..\u8g2\u8g2\csrc/u8x8_8x8.c **** void u8x8_Draw2x2Glyph(u8x8_t *u8x8, uint8_t x, uint8_t y, uint8_t encoding)
 208:..\..\..\u8g2\u8g2\csrc/u8x8_8x8.c **** {
 209:..\..\..\u8g2\u8g2\csrc/u8x8_8x8.c ****   uint8_t th = u8x8_pgm_read(u8x8->font+2);		/* new 2019 format */
 210:..\..\..\u8g2\u8g2\csrc/u8x8_8x8.c ****   uint8_t tv = u8x8_pgm_read(u8x8->font+3);	/* new 2019 format */
 211:..\..\..\u8g2\u8g2\csrc/u8x8_8x8.c ****   uint8_t xx, tile;
 212:..\..\..\u8g2\u8g2\csrc/u8x8_8x8.c ****   th *= 2;
 213:..\..\..\u8g2\u8g2\csrc/u8x8_8x8.c ****   th += x;
 214:..\..\..\u8g2\u8g2\csrc/u8x8_8x8.c ****   tv *= 2;
 215:..\..\..\u8g2\u8g2\csrc/u8x8_8x8.c ****   tv += y;
 216:..\..\..\u8g2\u8g2\csrc/u8x8_8x8.c ****   tile = 0;
 217:..\..\..\u8g2\u8g2\csrc/u8x8_8x8.c ****   do
 218:..\..\..\u8g2\u8g2\csrc/u8x8_8x8.c ****   {
 219:..\..\..\u8g2\u8g2\csrc/u8x8_8x8.c ****     xx = x;
 220:..\..\..\u8g2\u8g2\csrc/u8x8_8x8.c ****     do
 221:..\..\..\u8g2\u8g2\csrc/u8x8_8x8.c ****     {
 222:..\..\..\u8g2\u8g2\csrc/u8x8_8x8.c ****       u8x8_draw_2x2_subglyph(u8x8, xx, y, encoding, tile);
 223:..\..\..\u8g2\u8g2\csrc/u8x8_8x8.c ****       tile++;
 224:..\..\..\u8g2\u8g2\csrc/u8x8_8x8.c ****       xx+=2;
 225:..\..\..\u8g2\u8g2\csrc/u8x8_8x8.c ****     } while( xx < th );
 226:..\..\..\u8g2\u8g2\csrc/u8x8_8x8.c ****     y+=2;
 227:..\..\..\u8g2\u8g2\csrc/u8x8_8x8.c ****   } while( y < tv );  
 228:..\..\..\u8g2\u8g2\csrc/u8x8_8x8.c **** }
 229:..\..\..\u8g2\u8g2\csrc/u8x8_8x8.c **** 
 230:..\..\..\u8g2\u8g2\csrc/u8x8_8x8.c **** /* https://github.com/olikraus/u8g2/issues/474 */
 231:..\..\..\u8g2\u8g2\csrc/u8x8_8x8.c **** static void u8x8_draw_1x2_subglyph(u8x8_t *u8x8, uint8_t x, uint8_t y, uint8_t encoding, uint8_t ti
 232:..\..\..\u8g2\u8g2\csrc/u8x8_8x8.c **** {
 233:..\..\..\u8g2\u8g2\csrc/u8x8_8x8.c ****   uint8_t i;
 234:..\..\..\u8g2\u8g2\csrc/u8x8_8x8.c ****   uint16_t t;
 235:..\..\..\u8g2\u8g2\csrc/u8x8_8x8.c ****   uint8_t buf[8];
 236:..\..\..\u8g2\u8g2\csrc/u8x8_8x8.c ****   uint8_t buf1[8];
 237:..\..\..\u8g2\u8g2\csrc/u8x8_8x8.c ****   uint8_t buf2[8];
 238:..\..\..\u8g2\u8g2\csrc/u8x8_8x8.c ****   u8x8_get_glyph_data(u8x8, encoding, buf, tile);
 239:..\..\..\u8g2\u8g2\csrc/u8x8_8x8.c ****   for( i = 0; i < 8; i ++ )
 240:..\..\..\u8g2\u8g2\csrc/u8x8_8x8.c ****   {
 241:..\..\..\u8g2\u8g2\csrc/u8x8_8x8.c ****       t = u8x8_upscale_byte(buf[i]);
 242:..\..\..\u8g2\u8g2\csrc/u8x8_8x8.c ****       buf1[i] = t >> 8;
 243:..\..\..\u8g2\u8g2\csrc/u8x8_8x8.c ****       buf2[i] = t & 255;
 244:..\..\..\u8g2\u8g2\csrc/u8x8_8x8.c ****   }
 245:..\..\..\u8g2\u8g2\csrc/u8x8_8x8.c ****   u8x8_DrawTile(u8x8, x,   y, 1, buf2);
 246:..\..\..\u8g2\u8g2\csrc/u8x8_8x8.c ****   u8x8_DrawTile(u8x8, x, y+1, 1, buf1);
 247:..\..\..\u8g2\u8g2\csrc/u8x8_8x8.c **** }
 248:..\..\..\u8g2\u8g2\csrc/u8x8_8x8.c **** 
 249:..\..\..\u8g2\u8g2\csrc/u8x8_8x8.c **** void u8x8_Draw1x2Glyph(u8x8_t *u8x8, uint8_t x, uint8_t y, uint8_t encoding)
 250:..\..\..\u8g2\u8g2\csrc/u8x8_8x8.c **** {
 251:..\..\..\u8g2\u8g2\csrc/u8x8_8x8.c ****   uint8_t th = u8x8_pgm_read(u8x8->font+2);		/* new 2019 format */
 252:..\..\..\u8g2\u8g2\csrc/u8x8_8x8.c ****   uint8_t tv = u8x8_pgm_read(u8x8->font+3);	/* new 2019 format */
 253:..\..\..\u8g2\u8g2\csrc/u8x8_8x8.c ****   uint8_t xx, tile;
 254:..\..\..\u8g2\u8g2\csrc/u8x8_8x8.c ****   th += x;
 255:..\..\..\u8g2\u8g2\csrc/u8x8_8x8.c ****   tv *= 2;
 256:..\..\..\u8g2\u8g2\csrc/u8x8_8x8.c ****   tv += y;
 257:..\..\..\u8g2\u8g2\csrc/u8x8_8x8.c ****   tile = 0;
 258:..\..\..\u8g2\u8g2\csrc/u8x8_8x8.c ****   do
 259:..\..\..\u8g2\u8g2\csrc/u8x8_8x8.c ****   {
 260:..\..\..\u8g2\u8g2\csrc/u8x8_8x8.c ****     xx = x;
ARM GAS  C:\Users\jesse\AppData\Local\Temp\cczJQ9WN.s 			page 9


 261:..\..\..\u8g2\u8g2\csrc/u8x8_8x8.c ****     do
 262:..\..\..\u8g2\u8g2\csrc/u8x8_8x8.c ****     {
 263:..\..\..\u8g2\u8g2\csrc/u8x8_8x8.c ****       u8x8_draw_1x2_subglyph(u8x8, xx, y, encoding, tile);
 264:..\..\..\u8g2\u8g2\csrc/u8x8_8x8.c ****       tile++;
 265:..\..\..\u8g2\u8g2\csrc/u8x8_8x8.c ****       xx++;
 266:..\..\..\u8g2\u8g2\csrc/u8x8_8x8.c ****     } while( xx < th );
 267:..\..\..\u8g2\u8g2\csrc/u8x8_8x8.c ****     y+=2;
 268:..\..\..\u8g2\u8g2\csrc/u8x8_8x8.c ****   } while( y < tv );  
 269:..\..\..\u8g2\u8g2\csrc/u8x8_8x8.c **** }
 270:..\..\..\u8g2\u8g2\csrc/u8x8_8x8.c **** 
 271:..\..\..\u8g2\u8g2\csrc/u8x8_8x8.c **** /*
 272:..\..\..\u8g2\u8g2\csrc/u8x8_8x8.c **** source: https://en.wikipedia.org/wiki/UTF-8
 273:..\..\..\u8g2\u8g2\csrc/u8x8_8x8.c **** Bits	from 		to			bytes	Byte 1 		Byte 2 		Byte 3 		Byte 4 		Byte 5 		Byte 6
 274:..\..\..\u8g2\u8g2\csrc/u8x8_8x8.c ****   7 	U+0000 		U+007F 		1 		0xxxxxxx
 275:..\..\..\u8g2\u8g2\csrc/u8x8_8x8.c **** 11 	U+0080 		U+07FF 		2 		110xxxxx 	10xxxxxx
 276:..\..\..\u8g2\u8g2\csrc/u8x8_8x8.c **** 16 	U+0800 		U+FFFF 		3 		1110xxxx 	10xxxxxx 	10xxxxxx
 277:..\..\..\u8g2\u8g2\csrc/u8x8_8x8.c **** 21 	U+10000 	U+1FFFFF 	4 		11110xxx 	10xxxxxx 	10xxxxxx 	10xxxxxx
 278:..\..\..\u8g2\u8g2\csrc/u8x8_8x8.c **** 26 	U+200000 	U+3FFFFFF 	5 		111110xx 	10xxxxxx 	10xxxxxx 	10xxxxxx 	10xxxxxx
 279:..\..\..\u8g2\u8g2\csrc/u8x8_8x8.c **** 31 	U+4000000 	U+7FFFFFFF 	6 		1111110x 	10xxxxxx 	10xxxxxx 	10xxxxxx 	10xxxxxx 	10xxxxxx  
 280:..\..\..\u8g2\u8g2\csrc/u8x8_8x8.c **** 
 281:..\..\..\u8g2\u8g2\csrc/u8x8_8x8.c **** 
 282:..\..\..\u8g2\u8g2\csrc/u8x8_8x8.c **** */
 283:..\..\..\u8g2\u8g2\csrc/u8x8_8x8.c **** 
 284:..\..\..\u8g2\u8g2\csrc/u8x8_8x8.c **** /* reset the internal state machine */
 285:..\..\..\u8g2\u8g2\csrc/u8x8_8x8.c **** void u8x8_utf8_init(u8x8_t *u8x8)
 286:..\..\..\u8g2\u8g2\csrc/u8x8_8x8.c **** {
 287:..\..\..\u8g2\u8g2\csrc/u8x8_8x8.c ****   u8x8->utf8_state = 0;	/* also reset during u8x8_SetupDefaults() */
 288:..\..\..\u8g2\u8g2\csrc/u8x8_8x8.c **** }
 289:..\..\..\u8g2\u8g2\csrc/u8x8_8x8.c **** 
 290:..\..\..\u8g2\u8g2\csrc/u8x8_8x8.c **** uint16_t u8x8_ascii_next(U8X8_UNUSED u8x8_t *u8x8, uint8_t b)
 291:..\..\..\u8g2\u8g2\csrc/u8x8_8x8.c **** {
 187              		.loc 1 291 0
 188              		.cfi_startproc
 189              		@ args = 0, pretend = 0, frame = 0
 190              		@ frame_needed = 0, uses_anonymous_args = 0
 191              		@ link register save eliminated.
 192              	.LVL31:
 292:..\..\..\u8g2\u8g2\csrc/u8x8_8x8.c ****   if ( b == 0 || b == '\n' ) /* '\n' terminates the string to support the string list procedures */
 193              		.loc 1 292 0
 194 0000 19B1     		cbz	r1, .L19
 195              		.loc 1 292 0 is_stmt 0 discriminator 1
 196 0002 0A29     		cmp	r1, #10
 197 0004 01D0     		beq	.L19
 293:..\..\..\u8g2\u8g2\csrc/u8x8_8x8.c ****     return 0x0ffff;	/* end of string detected*/
 294:..\..\..\u8g2\u8g2\csrc/u8x8_8x8.c ****   return b;
 198              		.loc 1 294 0 is_stmt 1
 199 0006 88B2     		uxth	r0, r1
 200              	.LVL32:
 201 0008 7047     		bx	lr
 202              	.LVL33:
 203              	.L19:
 293:..\..\..\u8g2\u8g2\csrc/u8x8_8x8.c ****     return 0x0ffff;	/* end of string detected*/
 204              		.loc 1 293 0
 205 000a 4FF6FF70 		movw	r0, #65535
 206              	.LVL34:
 295:..\..\..\u8g2\u8g2\csrc/u8x8_8x8.c **** }
 207              		.loc 1 295 0
ARM GAS  C:\Users\jesse\AppData\Local\Temp\cczJQ9WN.s 			page 10


 208 000e 7047     		bx	lr
 209              		.cfi_endproc
 210              	.LFE10:
 211              		.size	u8x8_ascii_next, .-u8x8_ascii_next
 212              		.section	.text.u8x8_utf8_next,"ax",%progbits
 213              		.align	1
 214              		.global	u8x8_utf8_next
 215              		.thumb
 216              		.thumb_func
 217              		.type	u8x8_utf8_next, %function
 218              	u8x8_utf8_next:
 219              	.LFB11:
 296:..\..\..\u8g2\u8g2\csrc/u8x8_8x8.c **** 
 297:..\..\..\u8g2\u8g2\csrc/u8x8_8x8.c **** /*
 298:..\..\..\u8g2\u8g2\csrc/u8x8_8x8.c ****   pass a byte from an utf8 encoded string to the utf8 decoder state machine
 299:..\..\..\u8g2\u8g2\csrc/u8x8_8x8.c ****   returns 
 300:..\..\..\u8g2\u8g2\csrc/u8x8_8x8.c ****     0x0fffe: no glyph, just continue
 301:..\..\..\u8g2\u8g2\csrc/u8x8_8x8.c ****     0x0ffff: end of string
 302:..\..\..\u8g2\u8g2\csrc/u8x8_8x8.c ****     anything else: The decoded encoding
 303:..\..\..\u8g2\u8g2\csrc/u8x8_8x8.c **** */
 304:..\..\..\u8g2\u8g2\csrc/u8x8_8x8.c **** uint16_t u8x8_utf8_next(u8x8_t *u8x8, uint8_t b)
 305:..\..\..\u8g2\u8g2\csrc/u8x8_8x8.c **** {
 220              		.loc 1 305 0
 221              		.cfi_startproc
 222              		@ args = 0, pretend = 0, frame = 0
 223              		@ frame_needed = 0, uses_anonymous_args = 0
 224              		@ link register save eliminated.
 225              	.LVL35:
 306:..\..\..\u8g2\u8g2\csrc/u8x8_8x8.c ****   if ( b == 0 || b == '\n' )	/* '\n' terminates the string to support the string list procedures */
 226              		.loc 1 306 0
 227 0000 0029     		cmp	r1, #0
 228 0002 43D0     		beq	.L30
 229              		.loc 1 306 0 is_stmt 0 discriminator 1
 230 0004 0A29     		cmp	r1, #10
 231 0006 41D0     		beq	.L30
 307:..\..\..\u8g2\u8g2\csrc/u8x8_8x8.c ****     return 0x0ffff;	/* end of string detected, pending UTF8 is discarded */
 308:..\..\..\u8g2\u8g2\csrc/u8x8_8x8.c ****   if ( u8x8->utf8_state == 0 )
 232              		.loc 1 308 0 is_stmt 1
 233 0008 90F82630 		ldrb	r3, [r0, #38]	@ zero_extendqisi2
 234 000c 6BBB     		cbnz	r3, .L22
 235              	.LVL36:
 236              	.LBB12:
 237              	.LBB13:
 309:..\..\..\u8g2\u8g2\csrc/u8x8_8x8.c ****   {
 310:..\..\..\u8g2\u8g2\csrc/u8x8_8x8.c ****     if ( b >= 0xfc )	/* 6 byte sequence */
 238              		.loc 1 310 0
 239 000e FB29     		cmp	r1, #251
 240 0010 05D9     		bls	.L23
 311:..\..\..\u8g2\u8g2\csrc/u8x8_8x8.c ****     {
 312:..\..\..\u8g2\u8g2\csrc/u8x8_8x8.c ****       u8x8->utf8_state = 5;
 241              		.loc 1 312 0
 242 0012 0523     		movs	r3, #5
 243 0014 80F82630 		strb	r3, [r0, #38]
 313:..\..\..\u8g2\u8g2\csrc/u8x8_8x8.c ****       b &= 1;
 244              		.loc 1 313 0
 245 0018 01F00101 		and	r1, r1, #1
 246              	.LVL37:
ARM GAS  C:\Users\jesse\AppData\Local\Temp\cczJQ9WN.s 			page 11


 247 001c 21E0     		b	.L24
 248              	.LVL38:
 249              	.L23:
 314:..\..\..\u8g2\u8g2\csrc/u8x8_8x8.c ****     }
 315:..\..\..\u8g2\u8g2\csrc/u8x8_8x8.c ****     else if ( b >= 0xf8 )
 250              		.loc 1 315 0
 251 001e F729     		cmp	r1, #247
 252 0020 05D9     		bls	.L25
 316:..\..\..\u8g2\u8g2\csrc/u8x8_8x8.c ****     {
 317:..\..\..\u8g2\u8g2\csrc/u8x8_8x8.c ****       u8x8->utf8_state = 4;
 253              		.loc 1 317 0
 254 0022 0423     		movs	r3, #4
 255 0024 80F82630 		strb	r3, [r0, #38]
 318:..\..\..\u8g2\u8g2\csrc/u8x8_8x8.c ****       b &= 3;
 256              		.loc 1 318 0
 257 0028 01F00301 		and	r1, r1, #3
 258              	.LVL39:
 259 002c 19E0     		b	.L24
 260              	.LVL40:
 261              	.L25:
 319:..\..\..\u8g2\u8g2\csrc/u8x8_8x8.c ****     }
 320:..\..\..\u8g2\u8g2\csrc/u8x8_8x8.c ****     else if ( b >= 0xf0 )
 262              		.loc 1 320 0
 263 002e EF29     		cmp	r1, #239
 264 0030 05D9     		bls	.L26
 321:..\..\..\u8g2\u8g2\csrc/u8x8_8x8.c ****     {
 322:..\..\..\u8g2\u8g2\csrc/u8x8_8x8.c ****       u8x8->utf8_state = 3;
 265              		.loc 1 322 0
 266 0032 0323     		movs	r3, #3
 267 0034 80F82630 		strb	r3, [r0, #38]
 323:..\..\..\u8g2\u8g2\csrc/u8x8_8x8.c ****       b &= 7;      
 268              		.loc 1 323 0
 269 0038 01F00701 		and	r1, r1, #7
 270              	.LVL41:
 271 003c 11E0     		b	.L24
 272              	.LVL42:
 273              	.L26:
 324:..\..\..\u8g2\u8g2\csrc/u8x8_8x8.c ****     }
 325:..\..\..\u8g2\u8g2\csrc/u8x8_8x8.c ****     else if ( b >= 0xe0 )
 274              		.loc 1 325 0
 275 003e DF29     		cmp	r1, #223
 276 0040 05D9     		bls	.L27
 326:..\..\..\u8g2\u8g2\csrc/u8x8_8x8.c ****     {
 327:..\..\..\u8g2\u8g2\csrc/u8x8_8x8.c ****       u8x8->utf8_state = 2;
 277              		.loc 1 327 0
 278 0042 0223     		movs	r3, #2
 279 0044 80F82630 		strb	r3, [r0, #38]
 328:..\..\..\u8g2\u8g2\csrc/u8x8_8x8.c ****       b &= 15;
 280              		.loc 1 328 0
 281 0048 01F00F01 		and	r1, r1, #15
 282              	.LVL43:
 283 004c 09E0     		b	.L24
 284              	.LVL44:
 285              	.L27:
 329:..\..\..\u8g2\u8g2\csrc/u8x8_8x8.c ****     }
 330:..\..\..\u8g2\u8g2\csrc/u8x8_8x8.c ****     else if ( b >= 0xc0 )
 286              		.loc 1 330 0
ARM GAS  C:\Users\jesse\AppData\Local\Temp\cczJQ9WN.s 			page 12


 287 004e BF29     		cmp	r1, #191
 288 0050 05D9     		bls	.L28
 331:..\..\..\u8g2\u8g2\csrc/u8x8_8x8.c ****     {
 332:..\..\..\u8g2\u8g2\csrc/u8x8_8x8.c ****       u8x8->utf8_state = 1;
 289              		.loc 1 332 0
 290 0052 0123     		movs	r3, #1
 291 0054 80F82630 		strb	r3, [r0, #38]
 333:..\..\..\u8g2\u8g2\csrc/u8x8_8x8.c ****       b &= 0x01f;
 292              		.loc 1 333 0
 293 0058 01F01F01 		and	r1, r1, #31
 294              	.LVL45:
 295 005c 01E0     		b	.L24
 296              	.LVL46:
 297              	.L28:
 334:..\..\..\u8g2\u8g2\csrc/u8x8_8x8.c ****     }
 335:..\..\..\u8g2\u8g2\csrc/u8x8_8x8.c ****     else
 336:..\..\..\u8g2\u8g2\csrc/u8x8_8x8.c ****     {
 337:..\..\..\u8g2\u8g2\csrc/u8x8_8x8.c ****       /* do nothing, just use the value as encoding */
 338:..\..\..\u8g2\u8g2\csrc/u8x8_8x8.c ****       return b;
 298              		.loc 1 338 0
 299 005e 89B2     		uxth	r1, r1
 300              	.LVL47:
 301 0060 16E0     		b	.L21
 302              	.LVL48:
 303              	.L24:
 339:..\..\..\u8g2\u8g2\csrc/u8x8_8x8.c ****     }
 340:..\..\..\u8g2\u8g2\csrc/u8x8_8x8.c ****     u8x8->encoding = b;
 304              		.loc 1 340 0
 305 0062 0184     		strh	r1, [r0, #32]	@ movhi
 341:..\..\..\u8g2\u8g2\csrc/u8x8_8x8.c ****     return 0x0fffe;
 306              		.loc 1 341 0
 307 0064 4FF6FE71 		movw	r1, #65534
 308              	.LVL49:
 309 0068 12E0     		b	.L21
 310              	.LVL50:
 311              	.L22:
 312              	.LBE13:
 313              	.LBE12:
 342:..\..\..\u8g2\u8g2\csrc/u8x8_8x8.c ****   }
 343:..\..\..\u8g2\u8g2\csrc/u8x8_8x8.c ****   else
 344:..\..\..\u8g2\u8g2\csrc/u8x8_8x8.c ****   {
 345:..\..\..\u8g2\u8g2\csrc/u8x8_8x8.c ****     u8x8->utf8_state--;
 346:..\..\..\u8g2\u8g2\csrc/u8x8_8x8.c ****     /* The case b < 0x080 (an illegal UTF8 encoding) is not checked here. */
 347:..\..\..\u8g2\u8g2\csrc/u8x8_8x8.c ****     u8x8->encoding<<=6;
 348:..\..\..\u8g2\u8g2\csrc/u8x8_8x8.c ****     b &= 0x03f;
 349:..\..\..\u8g2\u8g2\csrc/u8x8_8x8.c ****     u8x8->encoding |= b;
 314              		.loc 1 349 0
 315 006a 028C     		ldrh	r2, [r0, #32]
 316 006c 01F03F01 		and	r1, r1, #63
 317              	.LVL51:
 318 0070 41EA8211 		orr	r1, r1, r2, lsl #6
 350:..\..\..\u8g2\u8g2\csrc/u8x8_8x8.c ****     if ( u8x8->utf8_state != 0 )
 351:..\..\..\u8g2\u8g2\csrc/u8x8_8x8.c ****       return 0x0fffe;	/* nothing to do yet */
 319              		.loc 1 351 0
 320 0074 4FF6FE72 		movw	r2, #65534
 345:..\..\..\u8g2\u8g2\csrc/u8x8_8x8.c ****     /* The case b < 0x080 (an illegal UTF8 encoding) is not checked here. */
 321              		.loc 1 345 0
ARM GAS  C:\Users\jesse\AppData\Local\Temp\cczJQ9WN.s 			page 13


 322 0078 013B     		subs	r3, r3, #1
 323 007a DBB2     		uxtb	r3, r3
 349:..\..\..\u8g2\u8g2\csrc/u8x8_8x8.c ****     if ( u8x8->utf8_state != 0 )
 324              		.loc 1 349 0
 325 007c 89B2     		uxth	r1, r1
 326 007e 0184     		strh	r1, [r0, #32]	@ movhi
 345:..\..\..\u8g2\u8g2\csrc/u8x8_8x8.c ****     /* The case b < 0x080 (an illegal UTF8 encoding) is not checked here. */
 327              		.loc 1 345 0
 328 0080 80F82630 		strb	r3, [r0, #38]
 329              	.LVL52:
 330              		.loc 1 351 0
 331 0084 002B     		cmp	r3, #0
 332 0086 18BF     		it	ne
 333 0088 1146     		movne	r1, r2
 334 008a 01E0     		b	.L21
 335              	.LVL53:
 336              	.L30:
 307:..\..\..\u8g2\u8g2\csrc/u8x8_8x8.c ****   if ( u8x8->utf8_state == 0 )
 337              		.loc 1 307 0
 338 008c 4FF6FF71 		movw	r1, #65535
 339              	.LVL54:
 340              	.L21:
 352:..\..\..\u8g2\u8g2\csrc/u8x8_8x8.c ****   }
 353:..\..\..\u8g2\u8g2\csrc/u8x8_8x8.c ****   return u8x8->encoding;
 354:..\..\..\u8g2\u8g2\csrc/u8x8_8x8.c **** }
 341              		.loc 1 354 0
 342 0090 0846     		mov	r0, r1
 343              	.LVL55:
 344 0092 7047     		bx	lr
 345              		.cfi_endproc
 346              	.LFE11:
 347              		.size	u8x8_utf8_next, .-u8x8_utf8_next
 348              		.section	.text.u8x8_SetFont,"ax",%progbits
 349              		.align	1
 350              		.global	u8x8_SetFont
 351              		.thumb
 352              		.thumb_func
 353              		.type	u8x8_SetFont, %function
 354              	u8x8_SetFont:
 355              	.LFB0:
  51:..\..\..\u8g2\u8g2\csrc/u8x8_8x8.c ****   u8x8->font = font_8x8;
 356              		.loc 1 51 0
 357              		.cfi_startproc
 358              		@ args = 0, pretend = 0, frame = 0
 359              		@ frame_needed = 0, uses_anonymous_args = 0
 360              		@ link register save eliminated.
 361              	.LVL56:
  52:..\..\..\u8g2\u8g2\csrc/u8x8_8x8.c **** }
 362              		.loc 1 52 0
 363 0000 C161     		str	r1, [r0, #28]
 364 0002 7047     		bx	lr
 365              		.cfi_endproc
 366              	.LFE0:
 367              		.size	u8x8_SetFont, .-u8x8_SetFont
 368              		.section	.text.u8x8_DrawGlyph,"ax",%progbits
 369              		.align	1
 370              		.global	u8x8_DrawGlyph
ARM GAS  C:\Users\jesse\AppData\Local\Temp\cczJQ9WN.s 			page 14


 371              		.thumb
 372              		.thumb_func
 373              		.type	u8x8_DrawGlyph, %function
 374              	u8x8_DrawGlyph:
 375              	.LFB2:
 106:..\..\..\u8g2\u8g2\csrc/u8x8_8x8.c ****   uint8_t th = u8x8_pgm_read(u8x8->font+2);		/* new 2019 format */
 376              		.loc 1 106 0
 377              		.cfi_startproc
 378              		@ args = 0, pretend = 0, frame = 24
 379              		@ frame_needed = 0, uses_anonymous_args = 0
 380              	.LVL57:
 381 0000 2DE9F04F 		push	{r4, r5, r6, r7, r8, r9, r10, fp, lr}
 382              		.cfi_def_cfa_offset 36
 383              		.cfi_offset 4, -36
 384              		.cfi_offset 5, -32
 385              		.cfi_offset 6, -28
 386              		.cfi_offset 7, -24
 387              		.cfi_offset 8, -20
 388              		.cfi_offset 9, -16
 389              		.cfi_offset 10, -12
 390              		.cfi_offset 11, -8
 391              		.cfi_offset 14, -4
 392 0004 1446     		mov	r4, r2
 393 0006 0746     		mov	r7, r0
 394 0008 8846     		mov	r8, r1
 395 000a 89B0     		sub	sp, sp, #36
 396              		.cfi_def_cfa_offset 72
 106:..\..\..\u8g2\u8g2\csrc/u8x8_8x8.c ****   uint8_t th = u8x8_pgm_read(u8x8->font+2);		/* new 2019 format */
 397              		.loc 1 106 0
 398 000c 0493     		str	r3, [sp, #16]
 107:..\..\..\u8g2\u8g2\csrc/u8x8_8x8.c ****   uint8_t tv = u8x8_pgm_read(u8x8->font+3);	/* new 2019 format */
 399              		.loc 1 107 0
 400 000e C369     		ldr	r3, [r0, #28]
 401              	.LVL58:
 113:..\..\..\u8g2\u8g2\csrc/u8x8_8x8.c ****   do
 402              		.loc 1 113 0
 403 0010 4FF0000A 		mov	r10, #0
 107:..\..\..\u8g2\u8g2\csrc/u8x8_8x8.c ****   uint8_t tv = u8x8_pgm_read(u8x8->font+3);	/* new 2019 format */
 404              		.loc 1 107 0
 405 0014 9A78     		ldrb	r2, [r3, #2]	@ zero_extendqisi2
 406              	.LVL59:
 108:..\..\..\u8g2\u8g2\csrc/u8x8_8x8.c ****   uint8_t xx, tile;
 407              		.loc 1 108 0
 408 0016 DB78     		ldrb	r3, [r3, #3]	@ zero_extendqisi2
 409              	.LVL60:
 111:..\..\..\u8g2\u8g2\csrc/u8x8_8x8.c ****   tv += y;
 410              		.loc 1 111 0
 411 0018 0A44     		add	r2, r2, r1
 412              	.LVL61:
 112:..\..\..\u8g2\u8g2\csrc/u8x8_8x8.c ****   tile = 0;
 413              		.loc 1 112 0
 414 001a 2344     		add	r3, r3, r4
 415              	.LVL62:
 111:..\..\..\u8g2\u8g2\csrc/u8x8_8x8.c ****   tv += y;
 416              		.loc 1 111 0
 417 001c D2B2     		uxtb	r2, r2
 112:..\..\..\u8g2\u8g2\csrc/u8x8_8x8.c ****   tile = 0;
ARM GAS  C:\Users\jesse\AppData\Local\Temp\cczJQ9WN.s 			page 15


 418              		.loc 1 112 0
 419 001e DBB2     		uxtb	r3, r3
 111:..\..\..\u8g2\u8g2\csrc/u8x8_8x8.c ****   tv += y;
 420              		.loc 1 111 0
 421 0020 0292     		str	r2, [sp, #8]
 422              	.LVL63:
 112:..\..\..\u8g2\u8g2\csrc/u8x8_8x8.c ****   tile = 0;
 423              		.loc 1 112 0
 424 0022 0393     		str	r3, [sp, #12]
 425              	.LVL64:
 119:..\..\..\u8g2\u8g2\csrc/u8x8_8x8.c ****       u8x8_DrawTile(u8x8, xx, y, 1, buf);
 426              		.loc 1 119 0
 427 0024 0DF1180B 		add	fp, sp, #24
 428              	.LVL65:
 429              	.L35:
 430 0028 0AF10103 		add	r3, r10, #1
 431 002c DBB2     		uxtb	r3, r3
 432 002e 0026     		movs	r6, #0
 433 0030 0593     		str	r3, [sp, #20]
 434              	.LVL66:
 435              	.L34:
 436 0032 F5B2     		uxtb	r5, r6
 437 0034 08EB0509 		add	r9, r8, r5
 119:..\..\..\u8g2\u8g2\csrc/u8x8_8x8.c ****       u8x8_DrawTile(u8x8, xx, y, 1, buf);
 438              		.loc 1 119 0 is_stmt 0 discriminator 1
 439 0038 0AEB0503 		add	r3, r10, r5
 440 003c DBB2     		uxtb	r3, r3
 441 003e 5A46     		mov	r2, fp
 442 0040 0499     		ldr	r1, [sp, #16]
 443 0042 3846     		mov	r0, r7
 444 0044 5FFA89F9 		uxtb	r9, r9
 445              	.LVL67:
 446 0048 FFF7FEFF 		bl	u8x8_get_glyph_data
 447              	.LVL68:
 120:..\..\..\u8g2\u8g2\csrc/u8x8_8x8.c ****       tile++;
 448              		.loc 1 120 0 is_stmt 1 discriminator 1
 449 004c 0123     		movs	r3, #1
 450 004e 2246     		mov	r2, r4
 451 0050 CDF800B0 		str	fp, [sp]
 452 0054 4946     		mov	r1, r9
 453 0056 3846     		mov	r0, r7
 454 0058 FFF7FEFF 		bl	u8x8_DrawTile
 455              	.LVL69:
 456 005c 059B     		ldr	r3, [sp, #20]
 457 005e 0136     		adds	r6, r6, #1
 458 0060 1D44     		add	r5, r5, r3
 459              	.LVL70:
 123:..\..\..\u8g2\u8g2\csrc/u8x8_8x8.c ****     y++;
 460              		.loc 1 123 0 discriminator 1
 461 0062 029A     		ldr	r2, [sp, #8]
 462 0064 08EB0603 		add	r3, r8, r6
 463 0068 DBB2     		uxtb	r3, r3
 464 006a 9A42     		cmp	r2, r3
 465 006c EDB2     		uxtb	r5, r5
 466              	.LVL71:
 467 006e E0D8     		bhi	.L34
 124:..\..\..\u8g2\u8g2\csrc/u8x8_8x8.c ****   } while( y < tv );
ARM GAS  C:\Users\jesse\AppData\Local\Temp\cczJQ9WN.s 			page 16


 468              		.loc 1 124 0
 469 0070 0134     		adds	r4, r4, #1
 470              	.LVL72:
 125:..\..\..\u8g2\u8g2\csrc/u8x8_8x8.c **** }
 471              		.loc 1 125 0
 472 0072 039B     		ldr	r3, [sp, #12]
 124:..\..\..\u8g2\u8g2\csrc/u8x8_8x8.c ****   } while( y < tv );
 473              		.loc 1 124 0
 474 0074 E4B2     		uxtb	r4, r4
 475              	.LVL73:
 125:..\..\..\u8g2\u8g2\csrc/u8x8_8x8.c **** }
 476              		.loc 1 125 0
 477 0076 A342     		cmp	r3, r4
 478 0078 01D9     		bls	.L38
 479 007a AA46     		mov	r10, r5
 480 007c D4E7     		b	.L35
 481              	.L38:
 126:..\..\..\u8g2\u8g2\csrc/u8x8_8x8.c **** 
 482              		.loc 1 126 0
 483 007e 09B0     		add	sp, sp, #36
 484              		.cfi_def_cfa_offset 36
 485              		@ sp needed
 486 0080 BDE8F08F 		pop	{r4, r5, r6, r7, r8, r9, r10, fp, pc}
 487              		.cfi_endproc
 488              	.LFE2:
 489              		.size	u8x8_DrawGlyph, .-u8x8_DrawGlyph
 490              		.section	.text.u8x8_draw_string,"ax",%progbits
 491              		.align	1
 492              		.thumb
 493              		.thumb_func
 494              		.type	u8x8_draw_string, %function
 495              	u8x8_draw_string:
 496              	.LFB12:
 355:..\..\..\u8g2\u8g2\csrc/u8x8_8x8.c **** 
 356:..\..\..\u8g2\u8g2\csrc/u8x8_8x8.c **** 
 357:..\..\..\u8g2\u8g2\csrc/u8x8_8x8.c **** 
 358:..\..\..\u8g2\u8g2\csrc/u8x8_8x8.c **** static uint8_t u8x8_draw_string(u8x8_t *u8x8, uint8_t x, uint8_t y, const char *s) U8X8_NOINLINE;
 359:..\..\..\u8g2\u8g2\csrc/u8x8_8x8.c **** static uint8_t u8x8_draw_string(u8x8_t *u8x8, uint8_t x, uint8_t y, const char *s)
 360:..\..\..\u8g2\u8g2\csrc/u8x8_8x8.c **** {
 497              		.loc 1 360 0
 498              		.cfi_startproc
 499              		@ args = 0, pretend = 0, frame = 0
 500              		@ frame_needed = 0, uses_anonymous_args = 0
 501              	.LVL74:
 502 0000 2DE9F84F 		push	{r3, r4, r5, r6, r7, r8, r9, r10, fp, lr}
 503              		.cfi_def_cfa_offset 40
 504              		.cfi_offset 3, -40
 505              		.cfi_offset 4, -36
 506              		.cfi_offset 5, -32
 507              		.cfi_offset 6, -28
 508              		.cfi_offset 7, -24
 509              		.cfi_offset 8, -20
 510              		.cfi_offset 9, -16
 511              		.cfi_offset 10, -12
 512              		.cfi_offset 11, -8
 513              		.cfi_offset 14, -4
 514              		.loc 1 360 0
ARM GAS  C:\Users\jesse\AppData\Local\Temp\cczJQ9WN.s 			page 17


 515 0004 0646     		mov	r6, r0
 516 0006 0D46     		mov	r5, r1
 361:..\..\..\u8g2\u8g2\csrc/u8x8_8x8.c ****   uint16_t e;
 362:..\..\..\u8g2\u8g2\csrc/u8x8_8x8.c ****   uint8_t cnt = 0;
 363:..\..\..\u8g2\u8g2\csrc/u8x8_8x8.c ****   uint8_t th = u8x8_pgm_read(u8x8->font+2);		/* new 2019 format */
 364:..\..\..\u8g2\u8g2\csrc/u8x8_8x8.c **** 
 365:..\..\..\u8g2\u8g2\csrc/u8x8_8x8.c ****   u8x8_utf8_init(u8x8);
 366:..\..\..\u8g2\u8g2\csrc/u8x8_8x8.c ****   for(;;)
 367:..\..\..\u8g2\u8g2\csrc/u8x8_8x8.c ****   {
 368:..\..\..\u8g2\u8g2\csrc/u8x8_8x8.c ****     e = u8x8->next_cb(u8x8, (uint8_t)*s);
 369:..\..\..\u8g2\u8g2\csrc/u8x8_8x8.c ****     if ( e == 0x0ffff )
 517              		.loc 1 369 0
 518 0008 4FF6FF7A 		movw	r10, #65535
 370:..\..\..\u8g2\u8g2\csrc/u8x8_8x8.c ****       break;
 371:..\..\..\u8g2\u8g2\csrc/u8x8_8x8.c ****     s++;
 372:..\..\..\u8g2\u8g2\csrc/u8x8_8x8.c ****     if ( e != 0x0fffe )
 519              		.loc 1 372 0
 520 000c 4FF6FE7B 		movw	fp, #65534
 360:..\..\..\u8g2\u8g2\csrc/u8x8_8x8.c ****   uint16_t e;
 521              		.loc 1 360 0
 522 0010 9146     		mov	r9, r2
 363:..\..\..\u8g2\u8g2\csrc/u8x8_8x8.c **** 
 523              		.loc 1 363 0
 524 0012 C269     		ldr	r2, [r0, #28]
 525              	.LVL75:
 526              	.LBB14:
 527              	.LBB15:
 287:..\..\..\u8g2\u8g2\csrc/u8x8_8x8.c **** }
 528              		.loc 1 287 0
 529 0014 0024     		movs	r4, #0
 530              	.LBE15:
 531              	.LBE14:
 363:..\..\..\u8g2\u8g2\csrc/u8x8_8x8.c **** 
 532              		.loc 1 363 0
 533 0016 92F80280 		ldrb	r8, [r2, #2]	@ zero_extendqisi2
 534              	.LVL76:
 535 001a 5F1E     		subs	r7, r3, #1
 536              	.LBB17:
 537              	.LBB16:
 287:..\..\..\u8g2\u8g2\csrc/u8x8_8x8.c **** }
 538              		.loc 1 287 0
 539 001c 80F82640 		strb	r4, [r0, #38]
 540              	.LVL77:
 541              	.L40:
 542              	.LBE16:
 543              	.LBE17:
 368:..\..\..\u8g2\u8g2\csrc/u8x8_8x8.c ****     if ( e == 0x0ffff )
 544              		.loc 1 368 0
 545 0020 7368     		ldr	r3, [r6, #4]
 546 0022 17F8011F 		ldrb	r1, [r7, #1]!	@ zero_extendqisi2
 547              	.LVL78:
 548 0026 3046     		mov	r0, r6
 549 0028 9847     		blx	r3
 550              	.LVL79:
 369:..\..\..\u8g2\u8g2\csrc/u8x8_8x8.c ****       break;
 551              		.loc 1 369 0
 552 002a 5045     		cmp	r0, r10
ARM GAS  C:\Users\jesse\AppData\Local\Temp\cczJQ9WN.s 			page 18


 553 002c 0CD0     		beq	.L41
 554              	.LVL80:
 555              		.loc 1 372 0
 556 002e 5845     		cmp	r0, fp
 557 0030 F6D0     		beq	.L40
 373:..\..\..\u8g2\u8g2\csrc/u8x8_8x8.c ****     {
 374:..\..\..\u8g2\u8g2\csrc/u8x8_8x8.c ****       u8x8_DrawGlyph(u8x8, x, y, e);
 558              		.loc 1 374 0
 559 0032 C3B2     		uxtb	r3, r0
 560 0034 2946     		mov	r1, r5
 561 0036 4A46     		mov	r2, r9
 562 0038 3046     		mov	r0, r6
 563              	.LVL81:
 375:..\..\..\u8g2\u8g2\csrc/u8x8_8x8.c ****       x+=th;
 564              		.loc 1 375 0
 565 003a 4544     		add	r5, r5, r8
 566              	.LVL82:
 376:..\..\..\u8g2\u8g2\csrc/u8x8_8x8.c ****       cnt++;
 567              		.loc 1 376 0
 568 003c 0134     		adds	r4, r4, #1
 569              	.LVL83:
 374:..\..\..\u8g2\u8g2\csrc/u8x8_8x8.c ****       x+=th;
 570              		.loc 1 374 0
 571 003e FFF7FEFF 		bl	u8x8_DrawGlyph
 572              	.LVL84:
 375:..\..\..\u8g2\u8g2\csrc/u8x8_8x8.c ****       x+=th;
 573              		.loc 1 375 0
 574 0042 EDB2     		uxtb	r5, r5
 575              	.LVL85:
 576              		.loc 1 376 0
 577 0044 E4B2     		uxtb	r4, r4
 578              	.LVL86:
 579 0046 EBE7     		b	.L40
 580              	.LVL87:
 581              	.L41:
 377:..\..\..\u8g2\u8g2\csrc/u8x8_8x8.c ****     }
 378:..\..\..\u8g2\u8g2\csrc/u8x8_8x8.c ****   }
 379:..\..\..\u8g2\u8g2\csrc/u8x8_8x8.c ****   return cnt;
 380:..\..\..\u8g2\u8g2\csrc/u8x8_8x8.c **** }
 582              		.loc 1 380 0
 583 0048 2046     		mov	r0, r4
 584              	.LVL88:
 585 004a BDE8F88F 		pop	{r3, r4, r5, r6, r7, r8, r9, r10, fp, pc}
 586              		.cfi_endproc
 587              	.LFE12:
 588              		.size	u8x8_draw_string, .-u8x8_draw_string
 589              		.section	.text.u8x8_upscale_byte,"ax",%progbits
 590              		.align	1
 591              		.global	u8x8_upscale_byte
 592              		.thumb
 593              		.thumb_func
 594              		.type	u8x8_upscale_byte, %function
 595              	u8x8_upscale_byte:
 596              	.LFB3:
 154:..\..\..\u8g2\u8g2\csrc/u8x8_8x8.c **** 	uint16_t y = x;
 597              		.loc 1 154 0
 598              		.cfi_startproc
ARM GAS  C:\Users\jesse\AppData\Local\Temp\cczJQ9WN.s 			page 19


 599              		@ args = 0, pretend = 0, frame = 0
 600              		@ frame_needed = 0, uses_anonymous_args = 0
 601              		@ link register save eliminated.
 602              	.LVL89:
 156:..\..\..\u8g2\u8g2\csrc/u8x8_8x8.c **** 	y &= 0x0f0f;
 603              		.loc 1 156 0
 604 0000 40EA0010 		orr	r0, r0, r0, lsl #4
 605              	.LVL90:
 157:..\..\..\u8g2\u8g2\csrc/u8x8_8x8.c **** 	y |= (y << 2);		// x = (x | (x << S[1])) & B[1];
 606              		.loc 1 157 0
 607 0004 20F0F000 		bic	r0, r0, #240
 608              	.LVL91:
 609 0008 0005     		lsls	r0, r0, #20
 610 000a 000D     		lsrs	r0, r0, #20
 611              	.LVL92:
 158:..\..\..\u8g2\u8g2\csrc/u8x8_8x8.c **** 	y &= 0x3333;
 612              		.loc 1 158 0
 613 000c 40EA8000 		orr	r0, r0, r0, lsl #2
 614              	.LVL93:
 159:..\..\..\u8g2\u8g2\csrc/u8x8_8x8.c **** 	y |= (y << 1);		// x = (x | (x << S[0])) & B[0];
 615              		.loc 1 159 0
 616 0010 20F44C60 		bic	r0, r0, #3264
 617              	.LVL94:
 618 0014 20F00C00 		bic	r0, r0, #12
 619 0018 8004     		lsls	r0, r0, #18
 620 001a 800C     		lsrs	r0, r0, #18
 621              	.LVL95:
 160:..\..\..\u8g2\u8g2\csrc/u8x8_8x8.c **** 	y &= 0x5555;
 622              		.loc 1 160 0
 623 001c 40EA4000 		orr	r0, r0, r0, lsl #1
 624              	.LVL96:
 161:..\..\..\u8g2\u8g2\csrc/u8x8_8x8.c ****   
 625              		.loc 1 161 0
 626 0020 20F42A50 		bic	r0, r0, #10880
 627              	.LVL97:
 628 0024 20F02A00 		bic	r0, r0, #42
 629 0028 4004     		lsls	r0, r0, #17
 630 002a 400C     		lsrs	r0, r0, #17
 631              	.LVL98:
 165:..\..\..\u8g2\u8g2\csrc/u8x8_8x8.c **** 
 632              		.loc 1 165 0
 633 002c 40EA4000 		orr	r0, r0, r0, lsl #1
 634              	.LVL99:
 635 0030 7047     		bx	lr
 636              		.cfi_endproc
 637              	.LFE3:
 638              		.size	u8x8_upscale_byte, .-u8x8_upscale_byte
 639              		.section	.text.u8x8_Draw2x2Glyph,"ax",%progbits
 640              		.align	1
 641              		.global	u8x8_Draw2x2Glyph
 642              		.thumb
 643              		.thumb_func
 644              		.type	u8x8_Draw2x2Glyph, %function
 645              	u8x8_Draw2x2Glyph:
 646              	.LFB6:
 208:..\..\..\u8g2\u8g2\csrc/u8x8_8x8.c ****   uint8_t th = u8x8_pgm_read(u8x8->font+2);		/* new 2019 format */
 647              		.loc 1 208 0
ARM GAS  C:\Users\jesse\AppData\Local\Temp\cczJQ9WN.s 			page 20


 648              		.cfi_startproc
 649              		@ args = 0, pretend = 0, frame = 40
 650              		@ frame_needed = 0, uses_anonymous_args = 0
 651              	.LVL100:
 652 0000 2DE9F04F 		push	{r4, r5, r6, r7, r8, r9, r10, fp, lr}
 653              		.cfi_def_cfa_offset 36
 654              		.cfi_offset 4, -36
 655              		.cfi_offset 5, -32
 656              		.cfi_offset 6, -28
 657              		.cfi_offset 7, -24
 658              		.cfi_offset 8, -20
 659              		.cfi_offset 9, -16
 660              		.cfi_offset 10, -12
 661              		.cfi_offset 11, -8
 662              		.cfi_offset 14, -4
 663 0004 1546     		mov	r5, r2
 664 0006 0746     		mov	r7, r0
 665 0008 8A46     		mov	r10, r1
 666 000a 8DB0     		sub	sp, sp, #52
 667              		.cfi_def_cfa_offset 88
 208:..\..\..\u8g2\u8g2\csrc/u8x8_8x8.c ****   uint8_t th = u8x8_pgm_read(u8x8->font+2);		/* new 2019 format */
 668              		.loc 1 208 0
 669 000c 0593     		str	r3, [sp, #20]
 209:..\..\..\u8g2\u8g2\csrc/u8x8_8x8.c ****   uint8_t tv = u8x8_pgm_read(u8x8->font+3);	/* new 2019 format */
 670              		.loc 1 209 0
 671 000e C369     		ldr	r3, [r0, #28]
 672              	.LVL101:
 216:..\..\..\u8g2\u8g2\csrc/u8x8_8x8.c ****   do
 673              		.loc 1 216 0
 674 0010 4FF00008 		mov	r8, #0
 209:..\..\..\u8g2\u8g2\csrc/u8x8_8x8.c ****   uint8_t tv = u8x8_pgm_read(u8x8->font+3);	/* new 2019 format */
 675              		.loc 1 209 0
 676 0014 9A78     		ldrb	r2, [r3, #2]	@ zero_extendqisi2
 677              	.LVL102:
 210:..\..\..\u8g2\u8g2\csrc/u8x8_8x8.c ****   uint8_t xx, tile;
 678              		.loc 1 210 0
 679 0016 DB78     		ldrb	r3, [r3, #3]	@ zero_extendqisi2
 680              	.LVL103:
 213:..\..\..\u8g2\u8g2\csrc/u8x8_8x8.c ****   tv *= 2;
 681              		.loc 1 213 0
 682 0018 01EB4202 		add	r2, r1, r2, lsl #1
 683              	.LVL104:
 215:..\..\..\u8g2\u8g2\csrc/u8x8_8x8.c ****   tile = 0;
 684              		.loc 1 215 0
 685 001c 05EB4303 		add	r3, r5, r3, lsl #1
 686              	.LVL105:
 213:..\..\..\u8g2\u8g2\csrc/u8x8_8x8.c ****   tv *= 2;
 687              		.loc 1 213 0
 688 0020 02F0FF02 		and	r2, r2, #255
 215:..\..\..\u8g2\u8g2\csrc/u8x8_8x8.c ****   tile = 0;
 689              		.loc 1 215 0
 690 0024 03F0FF03 		and	r3, r3, #255
 213:..\..\..\u8g2\u8g2\csrc/u8x8_8x8.c ****   tv *= 2;
 691              		.loc 1 213 0
 692 0028 0392     		str	r2, [sp, #12]
 693              	.LVL106:
 215:..\..\..\u8g2\u8g2\csrc/u8x8_8x8.c ****   tile = 0;
ARM GAS  C:\Users\jesse\AppData\Local\Temp\cczJQ9WN.s 			page 21


 694              		.loc 1 215 0
 695 002a 0493     		str	r3, [sp, #16]
 696              	.LVL107:
 697              	.LBB20:
 698              	.LBB21:
 186:..\..\..\u8g2\u8g2\csrc/u8x8_8x8.c ****   for( i = 0; i < 8; i ++ )
 699              		.loc 1 186 0
 700 002c 06AC     		add	r4, sp, #24
 701              	.LVL108:
 702              	.L47:
 703              	.LBE21:
 704              	.LBE20:
 219:..\..\..\u8g2\u8g2\csrc/u8x8_8x8.c ****     do
 705              		.loc 1 219 0
 706 002e 5646     		mov	r6, r10
 707 0030 6B1C     		adds	r3, r5, #1
 708 0032 DBB2     		uxtb	r3, r3
 709 0034 0293     		str	r3, [sp, #8]
 710              	.L46:
 711              	.LVL109:
 712              	.LBB23:
 713              	.LBB22:
 186:..\..\..\u8g2\u8g2\csrc/u8x8_8x8.c ****   for( i = 0; i < 8; i ++ )
 714              		.loc 1 186 0 discriminator 1
 715 0036 4346     		mov	r3, r8
 716 0038 2246     		mov	r2, r4
 717 003a 0599     		ldr	r1, [sp, #20]
 718 003c 3846     		mov	r0, r7
 719 003e FFF7FEFF 		bl	u8x8_get_glyph_data
 720              	.LVL110:
 721 0042 0023     		movs	r3, #0
 722              	.LVL111:
 723              	.L45:
 189:..\..\..\u8g2\u8g2\csrc/u8x8_8x8.c ****       buf1[i] = t >> 8;
 724              		.loc 1 189 0
 725 0044 E05C     		ldrb	r0, [r4, r3]	@ zero_extendqisi2
 726 0046 FFF7FEFF 		bl	u8x8_upscale_byte
 727              	.LVL112:
 190:..\..\..\u8g2\u8g2\csrc/u8x8_8x8.c ****       buf2[i] = t & 255;
 728              		.loc 1 190 0
 729 004a 0DF1200B 		add	fp, sp, #32
 730 004e 020A     		lsrs	r2, r0, #8
 731 0050 03F80B20 		strb	r2, [r3, fp]
 191:..\..\..\u8g2\u8g2\csrc/u8x8_8x8.c ****   }
 732              		.loc 1 191 0
 733 0054 0AAA     		add	r2, sp, #40
 734 0056 9854     		strb	r0, [r3, r2]
 735              	.LVL113:
 736 0058 0133     		adds	r3, r3, #1
 737              	.LVL114:
 187:..\..\..\u8g2\u8g2\csrc/u8x8_8x8.c ****   {
 738              		.loc 1 187 0
 739 005a 082B     		cmp	r3, #8
 740 005c F2D1     		bne	.L45
 193:..\..\..\u8g2\u8g2\csrc/u8x8_8x8.c ****   u8x8_DrawTile(u8x8, x, y, 1, buf);
 741              		.loc 1 193 0
 742 005e 1046     		mov	r0, r2
ARM GAS  C:\Users\jesse\AppData\Local\Temp\cczJQ9WN.s 			page 22


 743              	.LVL115:
 744 0060 2146     		mov	r1, r4
 745 0062 FFF7FEFF 		bl	u8x8_upscale_buf
 746              	.LVL116:
 747 0066 06F10109 		add	r9, r6, #1
 194:..\..\..\u8g2\u8g2\csrc/u8x8_8x8.c ****   
 748              		.loc 1 194 0
 749 006a 0123     		movs	r3, #1
 750 006c 2A46     		mov	r2, r5
 751 006e 3146     		mov	r1, r6
 752 0070 0094     		str	r4, [sp]
 753 0072 3846     		mov	r0, r7
 754 0074 FFF7FEFF 		bl	u8x8_DrawTile
 755              	.LVL117:
 756 0078 5FFA89F9 		uxtb	r9, r9
 196:..\..\..\u8g2\u8g2\csrc/u8x8_8x8.c ****   u8x8_DrawTile(u8x8, x+1, y, 1, buf);
 757              		.loc 1 196 0
 758 007c 2146     		mov	r1, r4
 759 007e 0BA8     		add	r0, sp, #44
 760 0080 FFF7FEFF 		bl	u8x8_upscale_buf
 761              	.LVL118:
 197:..\..\..\u8g2\u8g2\csrc/u8x8_8x8.c ****   
 762              		.loc 1 197 0
 763 0084 0123     		movs	r3, #1
 764 0086 2A46     		mov	r2, r5
 765 0088 4946     		mov	r1, r9
 766 008a 0094     		str	r4, [sp]
 767 008c 3846     		mov	r0, r7
 768 008e FFF7FEFF 		bl	u8x8_DrawTile
 769              	.LVL119:
 199:..\..\..\u8g2\u8g2\csrc/u8x8_8x8.c ****   u8x8_DrawTile(u8x8, x, y+1, 1, buf);
 770              		.loc 1 199 0
 771 0092 2146     		mov	r1, r4
 772 0094 5846     		mov	r0, fp
 773 0096 FFF7FEFF 		bl	u8x8_upscale_buf
 774              	.LVL120:
 200:..\..\..\u8g2\u8g2\csrc/u8x8_8x8.c ****   
 775              		.loc 1 200 0
 776 009a 0123     		movs	r3, #1
 777 009c 029A     		ldr	r2, [sp, #8]
 778 009e 3146     		mov	r1, r6
 779 00a0 0094     		str	r4, [sp]
 780 00a2 3846     		mov	r0, r7
 781 00a4 FFF7FEFF 		bl	u8x8_DrawTile
 782              	.LVL121:
 202:..\..\..\u8g2\u8g2\csrc/u8x8_8x8.c ****   u8x8_DrawTile(u8x8, x+1, y+1, 1, buf);  
 783              		.loc 1 202 0
 784 00a8 2146     		mov	r1, r4
 785 00aa 09A8     		add	r0, sp, #36
 786 00ac FFF7FEFF 		bl	u8x8_upscale_buf
 787              	.LVL122:
 203:..\..\..\u8g2\u8g2\csrc/u8x8_8x8.c **** }
 788              		.loc 1 203 0
 789 00b0 0123     		movs	r3, #1
 790 00b2 0094     		str	r4, [sp]
 791 00b4 029A     		ldr	r2, [sp, #8]
 792 00b6 4946     		mov	r1, r9
ARM GAS  C:\Users\jesse\AppData\Local\Temp\cczJQ9WN.s 			page 23


 793 00b8 3846     		mov	r0, r7
 794 00ba FFF7FEFF 		bl	u8x8_DrawTile
 795              	.LVL123:
 796              	.LBE22:
 797              	.LBE23:
 224:..\..\..\u8g2\u8g2\csrc/u8x8_8x8.c ****     } while( xx < th );
 798              		.loc 1 224 0
 799 00be 0236     		adds	r6, r6, #2
 800              	.LVL124:
 225:..\..\..\u8g2\u8g2\csrc/u8x8_8x8.c ****     y+=2;
 801              		.loc 1 225 0
 802 00c0 039B     		ldr	r3, [sp, #12]
 224:..\..\..\u8g2\u8g2\csrc/u8x8_8x8.c ****     } while( xx < th );
 803              		.loc 1 224 0
 804 00c2 F6B2     		uxtb	r6, r6
 223:..\..\..\u8g2\u8g2\csrc/u8x8_8x8.c ****       xx+=2;
 805              		.loc 1 223 0
 806 00c4 08F10108 		add	r8, r8, #1
 807              	.LVL125:
 225:..\..\..\u8g2\u8g2\csrc/u8x8_8x8.c ****     y+=2;
 808              		.loc 1 225 0
 809 00c8 B342     		cmp	r3, r6
 223:..\..\..\u8g2\u8g2\csrc/u8x8_8x8.c ****       xx+=2;
 810              		.loc 1 223 0
 811 00ca 5FFA88F8 		uxtb	r8, r8
 812              	.LVL126:
 225:..\..\..\u8g2\u8g2\csrc/u8x8_8x8.c ****     y+=2;
 813              		.loc 1 225 0
 814 00ce B2D8     		bhi	.L46
 226:..\..\..\u8g2\u8g2\csrc/u8x8_8x8.c ****   } while( y < tv );  
 815              		.loc 1 226 0
 816 00d0 0235     		adds	r5, r5, #2
 817              	.LVL127:
 227:..\..\..\u8g2\u8g2\csrc/u8x8_8x8.c **** }
 818              		.loc 1 227 0
 819 00d2 049B     		ldr	r3, [sp, #16]
 226:..\..\..\u8g2\u8g2\csrc/u8x8_8x8.c ****   } while( y < tv );  
 820              		.loc 1 226 0
 821 00d4 EDB2     		uxtb	r5, r5
 822              	.LVL128:
 227:..\..\..\u8g2\u8g2\csrc/u8x8_8x8.c **** }
 823              		.loc 1 227 0
 824 00d6 AB42     		cmp	r3, r5
 825 00d8 A9D8     		bhi	.L47
 228:..\..\..\u8g2\u8g2\csrc/u8x8_8x8.c **** 
 826              		.loc 1 228 0
 827 00da 0DB0     		add	sp, sp, #52
 828              		.cfi_def_cfa_offset 36
 829              		@ sp needed
 830 00dc BDE8F08F 		pop	{r4, r5, r6, r7, r8, r9, r10, fp, pc}
 831              		.cfi_endproc
 832              	.LFE6:
 833              		.size	u8x8_Draw2x2Glyph, .-u8x8_Draw2x2Glyph
 834              		.section	.text.u8x8_draw_2x2_string,"ax",%progbits
 835              		.align	1
 836              		.thumb
 837              		.thumb_func
ARM GAS  C:\Users\jesse\AppData\Local\Temp\cczJQ9WN.s 			page 24


 838              		.type	u8x8_draw_2x2_string, %function
 839              	u8x8_draw_2x2_string:
 840              	.LFB15:
 381:..\..\..\u8g2\u8g2\csrc/u8x8_8x8.c **** 
 382:..\..\..\u8g2\u8g2\csrc/u8x8_8x8.c **** 
 383:..\..\..\u8g2\u8g2\csrc/u8x8_8x8.c **** uint8_t u8x8_DrawString(u8x8_t *u8x8, uint8_t x, uint8_t y, const char *s)
 384:..\..\..\u8g2\u8g2\csrc/u8x8_8x8.c **** {
 385:..\..\..\u8g2\u8g2\csrc/u8x8_8x8.c ****   u8x8->next_cb = u8x8_ascii_next;
 386:..\..\..\u8g2\u8g2\csrc/u8x8_8x8.c ****   return u8x8_draw_string(u8x8, x, y, s);
 387:..\..\..\u8g2\u8g2\csrc/u8x8_8x8.c **** }
 388:..\..\..\u8g2\u8g2\csrc/u8x8_8x8.c **** 
 389:..\..\..\u8g2\u8g2\csrc/u8x8_8x8.c **** uint8_t u8x8_DrawUTF8(u8x8_t *u8x8, uint8_t x, uint8_t y, const char *s)
 390:..\..\..\u8g2\u8g2\csrc/u8x8_8x8.c **** {
 391:..\..\..\u8g2\u8g2\csrc/u8x8_8x8.c ****   u8x8->next_cb = u8x8_utf8_next;
 392:..\..\..\u8g2\u8g2\csrc/u8x8_8x8.c ****   return u8x8_draw_string(u8x8, x, y, s);
 393:..\..\..\u8g2\u8g2\csrc/u8x8_8x8.c **** }
 394:..\..\..\u8g2\u8g2\csrc/u8x8_8x8.c **** 
 395:..\..\..\u8g2\u8g2\csrc/u8x8_8x8.c **** 
 396:..\..\..\u8g2\u8g2\csrc/u8x8_8x8.c **** 
 397:..\..\..\u8g2\u8g2\csrc/u8x8_8x8.c **** static uint8_t u8x8_draw_2x2_string(u8x8_t *u8x8, uint8_t x, uint8_t y, const char *s) U8X8_NOINLIN
 398:..\..\..\u8g2\u8g2\csrc/u8x8_8x8.c **** static uint8_t u8x8_draw_2x2_string(u8x8_t *u8x8, uint8_t x, uint8_t y, const char *s)
 399:..\..\..\u8g2\u8g2\csrc/u8x8_8x8.c **** {
 841              		.loc 1 399 0
 842              		.cfi_startproc
 843              		@ args = 0, pretend = 0, frame = 0
 844              		@ frame_needed = 0, uses_anonymous_args = 0
 845              	.LVL129:
 846 0000 2DE9F84F 		push	{r3, r4, r5, r6, r7, r8, r9, r10, fp, lr}
 847              		.cfi_def_cfa_offset 40
 848              		.cfi_offset 3, -40
 849              		.cfi_offset 4, -36
 850              		.cfi_offset 5, -32
 851              		.cfi_offset 6, -28
 852              		.cfi_offset 7, -24
 853              		.cfi_offset 8, -20
 854              		.cfi_offset 9, -16
 855              		.cfi_offset 10, -12
 856              		.cfi_offset 11, -8
 857              		.cfi_offset 14, -4
 858              		.loc 1 399 0
 859 0004 0746     		mov	r7, r0
 860 0006 0D46     		mov	r5, r1
 400:..\..\..\u8g2\u8g2\csrc/u8x8_8x8.c ****   uint16_t e;
 401:..\..\..\u8g2\u8g2\csrc/u8x8_8x8.c ****   uint8_t cnt = 0;
 402:..\..\..\u8g2\u8g2\csrc/u8x8_8x8.c ****   uint8_t th = u8x8_pgm_read(u8x8->font+2);	/* new 2019 format */
 403:..\..\..\u8g2\u8g2\csrc/u8x8_8x8.c ****   
 404:..\..\..\u8g2\u8g2\csrc/u8x8_8x8.c ****   th <<= 1;
 405:..\..\..\u8g2\u8g2\csrc/u8x8_8x8.c ****   
 406:..\..\..\u8g2\u8g2\csrc/u8x8_8x8.c ****   u8x8_utf8_init(u8x8);
 407:..\..\..\u8g2\u8g2\csrc/u8x8_8x8.c ****   for(;;)
 408:..\..\..\u8g2\u8g2\csrc/u8x8_8x8.c ****   {
 409:..\..\..\u8g2\u8g2\csrc/u8x8_8x8.c ****     e = u8x8->next_cb(u8x8, (uint8_t)*s);
 410:..\..\..\u8g2\u8g2\csrc/u8x8_8x8.c ****     if ( e == 0x0ffff )
 861              		.loc 1 410 0
 862 0008 4FF6FF7A 		movw	r10, #65535
 411:..\..\..\u8g2\u8g2\csrc/u8x8_8x8.c ****       break;
 412:..\..\..\u8g2\u8g2\csrc/u8x8_8x8.c ****     s++;
ARM GAS  C:\Users\jesse\AppData\Local\Temp\cczJQ9WN.s 			page 25


 413:..\..\..\u8g2\u8g2\csrc/u8x8_8x8.c ****     if ( e != 0x0fffe )
 863              		.loc 1 413 0
 864 000c 4FF6FE7B 		movw	fp, #65534
 399:..\..\..\u8g2\u8g2\csrc/u8x8_8x8.c ****   uint16_t e;
 865              		.loc 1 399 0
 866 0010 9146     		mov	r9, r2
 402:..\..\..\u8g2\u8g2\csrc/u8x8_8x8.c ****   
 867              		.loc 1 402 0
 868 0012 C269     		ldr	r2, [r0, #28]
 869              	.LVL130:
 870              	.LBB24:
 871              	.LBB25:
 287:..\..\..\u8g2\u8g2\csrc/u8x8_8x8.c **** }
 872              		.loc 1 287 0
 873 0014 0024     		movs	r4, #0
 874              	.LBE25:
 875              	.LBE24:
 402:..\..\..\u8g2\u8g2\csrc/u8x8_8x8.c ****   
 876              		.loc 1 402 0
 877 0016 9678     		ldrb	r6, [r2, #2]	@ zero_extendqisi2
 878              	.LVL131:
 879 0018 03F1FF38 		add	r8, r3, #-1
 404:..\..\..\u8g2\u8g2\csrc/u8x8_8x8.c ****   
 880              		.loc 1 404 0
 881 001c 7600     		lsls	r6, r6, #1
 882              	.LVL132:
 883 001e F6B2     		uxtb	r6, r6
 884              	.LVL133:
 885              	.LBB27:
 886              	.LBB26:
 287:..\..\..\u8g2\u8g2\csrc/u8x8_8x8.c **** }
 887              		.loc 1 287 0
 888 0020 80F82640 		strb	r4, [r0, #38]
 889              	.LVL134:
 890              	.L52:
 891              	.LBE26:
 892              	.LBE27:
 409:..\..\..\u8g2\u8g2\csrc/u8x8_8x8.c ****     if ( e == 0x0ffff )
 893              		.loc 1 409 0
 894 0024 7B68     		ldr	r3, [r7, #4]
 895 0026 18F8011F 		ldrb	r1, [r8, #1]!	@ zero_extendqisi2
 896              	.LVL135:
 897 002a 3846     		mov	r0, r7
 898 002c 9847     		blx	r3
 899              	.LVL136:
 410:..\..\..\u8g2\u8g2\csrc/u8x8_8x8.c ****       break;
 900              		.loc 1 410 0
 901 002e 5045     		cmp	r0, r10
 902 0030 0CD0     		beq	.L53
 903              	.LVL137:
 904              		.loc 1 413 0
 905 0032 5845     		cmp	r0, fp
 906 0034 F6D0     		beq	.L52
 414:..\..\..\u8g2\u8g2\csrc/u8x8_8x8.c ****     {
 415:..\..\..\u8g2\u8g2\csrc/u8x8_8x8.c ****       u8x8_Draw2x2Glyph(u8x8, x, y, e);
 907              		.loc 1 415 0
 908 0036 C3B2     		uxtb	r3, r0
ARM GAS  C:\Users\jesse\AppData\Local\Temp\cczJQ9WN.s 			page 26


 909 0038 2946     		mov	r1, r5
 910 003a 4A46     		mov	r2, r9
 911 003c 3846     		mov	r0, r7
 912              	.LVL138:
 416:..\..\..\u8g2\u8g2\csrc/u8x8_8x8.c ****       x+=th;
 913              		.loc 1 416 0
 914 003e 3544     		add	r5, r5, r6
 915              	.LVL139:
 417:..\..\..\u8g2\u8g2\csrc/u8x8_8x8.c ****       cnt++;
 916              		.loc 1 417 0
 917 0040 0134     		adds	r4, r4, #1
 918              	.LVL140:
 415:..\..\..\u8g2\u8g2\csrc/u8x8_8x8.c ****       x+=th;
 919              		.loc 1 415 0
 920 0042 FFF7FEFF 		bl	u8x8_Draw2x2Glyph
 921              	.LVL141:
 416:..\..\..\u8g2\u8g2\csrc/u8x8_8x8.c ****       x+=th;
 922              		.loc 1 416 0
 923 0046 EDB2     		uxtb	r5, r5
 924              	.LVL142:
 925              		.loc 1 417 0
 926 0048 E4B2     		uxtb	r4, r4
 927              	.LVL143:
 928 004a EBE7     		b	.L52
 929              	.LVL144:
 930              	.L53:
 418:..\..\..\u8g2\u8g2\csrc/u8x8_8x8.c ****     }
 419:..\..\..\u8g2\u8g2\csrc/u8x8_8x8.c ****   }
 420:..\..\..\u8g2\u8g2\csrc/u8x8_8x8.c ****   return cnt;
 421:..\..\..\u8g2\u8g2\csrc/u8x8_8x8.c **** }
 931              		.loc 1 421 0
 932 004c 2046     		mov	r0, r4
 933              	.LVL145:
 934 004e BDE8F88F 		pop	{r3, r4, r5, r6, r7, r8, r9, r10, fp, pc}
 935              		.cfi_endproc
 936              	.LFE15:
 937              		.size	u8x8_draw_2x2_string, .-u8x8_draw_2x2_string
 938              		.section	.text.u8x8_Draw1x2Glyph,"ax",%progbits
 939              		.align	1
 940              		.global	u8x8_Draw1x2Glyph
 941              		.thumb
 942              		.thumb_func
 943              		.type	u8x8_Draw1x2Glyph, %function
 944              	u8x8_Draw1x2Glyph:
 945              	.LFB8:
 250:..\..\..\u8g2\u8g2\csrc/u8x8_8x8.c ****   uint8_t th = u8x8_pgm_read(u8x8->font+2);		/* new 2019 format */
 946              		.loc 1 250 0
 947              		.cfi_startproc
 948              		@ args = 0, pretend = 0, frame = 40
 949              		@ frame_needed = 0, uses_anonymous_args = 0
 950              	.LVL146:
 951 0000 2DE9F04F 		push	{r4, r5, r6, r7, r8, r9, r10, fp, lr}
 952              		.cfi_def_cfa_offset 36
 953              		.cfi_offset 4, -36
 954              		.cfi_offset 5, -32
 955              		.cfi_offset 6, -28
 956              		.cfi_offset 7, -24
ARM GAS  C:\Users\jesse\AppData\Local\Temp\cczJQ9WN.s 			page 27


 957              		.cfi_offset 8, -20
 958              		.cfi_offset 9, -16
 959              		.cfi_offset 10, -12
 960              		.cfi_offset 11, -8
 961              		.cfi_offset 14, -4
 962 0004 1446     		mov	r4, r2
 963 0006 0646     		mov	r6, r0
 964 0008 8946     		mov	r9, r1
 965 000a 8DB0     		sub	sp, sp, #52
 966              		.cfi_def_cfa_offset 88
 250:..\..\..\u8g2\u8g2\csrc/u8x8_8x8.c ****   uint8_t th = u8x8_pgm_read(u8x8->font+2);		/* new 2019 format */
 967              		.loc 1 250 0
 968 000c 0493     		str	r3, [sp, #16]
 251:..\..\..\u8g2\u8g2\csrc/u8x8_8x8.c ****   uint8_t tv = u8x8_pgm_read(u8x8->font+3);	/* new 2019 format */
 969              		.loc 1 251 0
 970 000e C369     		ldr	r3, [r0, #28]
 971              	.LVL147:
 257:..\..\..\u8g2\u8g2\csrc/u8x8_8x8.c ****   do
 972              		.loc 1 257 0
 973 0010 4FF0000A 		mov	r10, #0
 251:..\..\..\u8g2\u8g2\csrc/u8x8_8x8.c ****   uint8_t tv = u8x8_pgm_read(u8x8->font+3);	/* new 2019 format */
 974              		.loc 1 251 0
 975 0014 9A78     		ldrb	r2, [r3, #2]	@ zero_extendqisi2
 976              	.LVL148:
 252:..\..\..\u8g2\u8g2\csrc/u8x8_8x8.c ****   uint8_t xx, tile;
 977              		.loc 1 252 0
 978 0016 DB78     		ldrb	r3, [r3, #3]	@ zero_extendqisi2
 979              	.LVL149:
 254:..\..\..\u8g2\u8g2\csrc/u8x8_8x8.c ****   tv *= 2;
 980              		.loc 1 254 0
 981 0018 0A44     		add	r2, r2, r1
 982              	.LVL150:
 256:..\..\..\u8g2\u8g2\csrc/u8x8_8x8.c ****   tile = 0;
 983              		.loc 1 256 0
 984 001a 04EB4303 		add	r3, r4, r3, lsl #1
 985              	.LVL151:
 254:..\..\..\u8g2\u8g2\csrc/u8x8_8x8.c ****   tv *= 2;
 986              		.loc 1 254 0
 987 001e D2B2     		uxtb	r2, r2
 256:..\..\..\u8g2\u8g2\csrc/u8x8_8x8.c ****   tile = 0;
 988              		.loc 1 256 0
 989 0020 03F0FF03 		and	r3, r3, #255
 254:..\..\..\u8g2\u8g2\csrc/u8x8_8x8.c ****   tv *= 2;
 990              		.loc 1 254 0
 991 0024 0292     		str	r2, [sp, #8]
 992              	.LVL152:
 256:..\..\..\u8g2\u8g2\csrc/u8x8_8x8.c ****   tile = 0;
 993              		.loc 1 256 0
 994 0026 0393     		str	r3, [sp, #12]
 995              	.LVL153:
 996              	.LBB30:
 997              	.LBB31:
 238:..\..\..\u8g2\u8g2\csrc/u8x8_8x8.c ****   for( i = 0; i < 8; i ++ )
 998              		.loc 1 238 0
 999 0028 0DF1180B 		add	fp, sp, #24
 1000              	.LVL154:
 1001              	.L58:
ARM GAS  C:\Users\jesse\AppData\Local\Temp\cczJQ9WN.s 			page 28


 246:..\..\..\u8g2\u8g2\csrc/u8x8_8x8.c **** }
 1002              		.loc 1 246 0
 1003 002c 631C     		adds	r3, r4, #1
 1004 002e DBB2     		uxtb	r3, r3
 1005              	.LBE31:
 1006              	.LBE30:
 1007 0030 0027     		movs	r7, #0
 1008              	.LBB33:
 1009              	.LBB32:
 1010 0032 0593     		str	r3, [sp, #20]
 1011              	.LVL155:
 1012              	.L57:
 1013 0034 FDB2     		uxtb	r5, r7
 238:..\..\..\u8g2\u8g2\csrc/u8x8_8x8.c ****   for( i = 0; i < 8; i ++ )
 1014              		.loc 1 238 0 discriminator 1
 1015 0036 0AEB0503 		add	r3, r10, r5
 1016 003a DBB2     		uxtb	r3, r3
 1017 003c 09EB0508 		add	r8, r9, r5
 1018 0040 5A46     		mov	r2, fp
 1019 0042 0499     		ldr	r1, [sp, #16]
 1020 0044 3046     		mov	r0, r6
 1021 0046 FFF7FEFF 		bl	u8x8_get_glyph_data
 1022              	.LVL156:
 1023 004a 5FFA88F8 		uxtb	r8, r8
 1024              	.LVL157:
 1025 004e 0023     		movs	r3, #0
 1026              	.LVL158:
 1027              	.L56:
 241:..\..\..\u8g2\u8g2\csrc/u8x8_8x8.c ****       buf1[i] = t >> 8;
 1028              		.loc 1 241 0
 1029 0050 1BF80300 		ldrb	r0, [fp, r3]	@ zero_extendqisi2
 1030 0054 FFF7FEFF 		bl	u8x8_upscale_byte
 1031              	.LVL159:
 242:..\..\..\u8g2\u8g2\csrc/u8x8_8x8.c ****       buf2[i] = t & 255;
 1032              		.loc 1 242 0
 1033 0058 08A9     		add	r1, sp, #32
 1034 005a 020A     		lsrs	r2, r0, #8
 1035 005c CA54     		strb	r2, [r1, r3]
 243:..\..\..\u8g2\u8g2\csrc/u8x8_8x8.c ****   }
 1036              		.loc 1 243 0
 1037 005e 0AAA     		add	r2, sp, #40
 1038 0060 9854     		strb	r0, [r3, r2]
 1039              	.LVL160:
 1040 0062 0133     		adds	r3, r3, #1
 1041              	.LVL161:
 239:..\..\..\u8g2\u8g2\csrc/u8x8_8x8.c ****   {
 1042              		.loc 1 239 0
 1043 0064 082B     		cmp	r3, #8
 1044 0066 F3D1     		bne	.L56
 245:..\..\..\u8g2\u8g2\csrc/u8x8_8x8.c ****   u8x8_DrawTile(u8x8, x, y+1, 1, buf1);
 1045              		.loc 1 245 0
 1046 0068 0092     		str	r2, [sp]
 1047 006a 0123     		movs	r3, #1
 1048 006c 2246     		mov	r2, r4
 1049 006e 4146     		mov	r1, r8
 1050 0070 3046     		mov	r0, r6
 1051              	.LVL162:
ARM GAS  C:\Users\jesse\AppData\Local\Temp\cczJQ9WN.s 			page 29


 1052 0072 FFF7FEFF 		bl	u8x8_DrawTile
 1053              	.LVL163:
 246:..\..\..\u8g2\u8g2\csrc/u8x8_8x8.c **** }
 1054              		.loc 1 246 0
 1055 0076 08AB     		add	r3, sp, #32
 1056 0078 0093     		str	r3, [sp]
 1057 007a 059A     		ldr	r2, [sp, #20]
 1058 007c 0123     		movs	r3, #1
 1059 007e 4146     		mov	r1, r8
 1060 0080 3046     		mov	r0, r6
 1061 0082 FFF7FEFF 		bl	u8x8_DrawTile
 1062              	.LVL164:
 1063 0086 0137     		adds	r7, r7, #1
 1064 0088 0AF10103 		add	r3, r10, #1
 1065 008c 1D44     		add	r5, r5, r3
 1066              	.LVL165:
 1067              	.LBE32:
 1068              	.LBE33:
 266:..\..\..\u8g2\u8g2\csrc/u8x8_8x8.c ****     y+=2;
 1069              		.loc 1 266 0
 1070 008e 029A     		ldr	r2, [sp, #8]
 1071 0090 09EB0703 		add	r3, r9, r7
 1072 0094 DBB2     		uxtb	r3, r3
 1073 0096 9A42     		cmp	r2, r3
 1074 0098 05F0FF05 		and	r5, r5, #255
 1075              	.LVL166:
 1076 009c CAD8     		bhi	.L57
 267:..\..\..\u8g2\u8g2\csrc/u8x8_8x8.c ****   } while( y < tv );  
 1077              		.loc 1 267 0
 1078 009e 0234     		adds	r4, r4, #2
 1079              	.LVL167:
 268:..\..\..\u8g2\u8g2\csrc/u8x8_8x8.c **** }
 1080              		.loc 1 268 0
 1081 00a0 039B     		ldr	r3, [sp, #12]
 267:..\..\..\u8g2\u8g2\csrc/u8x8_8x8.c ****   } while( y < tv );  
 1082              		.loc 1 267 0
 1083 00a2 E4B2     		uxtb	r4, r4
 1084              	.LVL168:
 268:..\..\..\u8g2\u8g2\csrc/u8x8_8x8.c **** }
 1085              		.loc 1 268 0
 1086 00a4 A342     		cmp	r3, r4
 1087 00a6 01D9     		bls	.L62
 1088 00a8 AA46     		mov	r10, r5
 1089 00aa BFE7     		b	.L58
 1090              	.L62:
 269:..\..\..\u8g2\u8g2\csrc/u8x8_8x8.c **** 
 1091              		.loc 1 269 0
 1092 00ac 0DB0     		add	sp, sp, #52
 1093              		.cfi_def_cfa_offset 36
 1094              		@ sp needed
 1095 00ae BDE8F08F 		pop	{r4, r5, r6, r7, r8, r9, r10, fp, pc}
 1096              		.cfi_endproc
 1097              	.LFE8:
 1098              		.size	u8x8_Draw1x2Glyph, .-u8x8_Draw1x2Glyph
 1099              		.section	.text.u8x8_draw_1x2_string,"ax",%progbits
 1100              		.align	1
 1101              		.thumb
ARM GAS  C:\Users\jesse\AppData\Local\Temp\cczJQ9WN.s 			page 30


 1102              		.thumb_func
 1103              		.type	u8x8_draw_1x2_string, %function
 1104              	u8x8_draw_1x2_string:
 1105              	.LFB18:
 422:..\..\..\u8g2\u8g2\csrc/u8x8_8x8.c **** 
 423:..\..\..\u8g2\u8g2\csrc/u8x8_8x8.c **** 
 424:..\..\..\u8g2\u8g2\csrc/u8x8_8x8.c **** uint8_t u8x8_Draw2x2String(u8x8_t *u8x8, uint8_t x, uint8_t y, const char *s)
 425:..\..\..\u8g2\u8g2\csrc/u8x8_8x8.c **** {
 426:..\..\..\u8g2\u8g2\csrc/u8x8_8x8.c ****   u8x8->next_cb = u8x8_ascii_next;
 427:..\..\..\u8g2\u8g2\csrc/u8x8_8x8.c ****   return u8x8_draw_2x2_string(u8x8, x, y, s);
 428:..\..\..\u8g2\u8g2\csrc/u8x8_8x8.c **** }
 429:..\..\..\u8g2\u8g2\csrc/u8x8_8x8.c **** 
 430:..\..\..\u8g2\u8g2\csrc/u8x8_8x8.c **** uint8_t u8x8_Draw2x2UTF8(u8x8_t *u8x8, uint8_t x, uint8_t y, const char *s)
 431:..\..\..\u8g2\u8g2\csrc/u8x8_8x8.c **** {
 432:..\..\..\u8g2\u8g2\csrc/u8x8_8x8.c ****   u8x8->next_cb = u8x8_utf8_next;
 433:..\..\..\u8g2\u8g2\csrc/u8x8_8x8.c ****   return u8x8_draw_2x2_string(u8x8, x, y, s);
 434:..\..\..\u8g2\u8g2\csrc/u8x8_8x8.c **** }
 435:..\..\..\u8g2\u8g2\csrc/u8x8_8x8.c **** 
 436:..\..\..\u8g2\u8g2\csrc/u8x8_8x8.c **** 
 437:..\..\..\u8g2\u8g2\csrc/u8x8_8x8.c **** 
 438:..\..\..\u8g2\u8g2\csrc/u8x8_8x8.c **** static uint8_t u8x8_draw_1x2_string(u8x8_t *u8x8, uint8_t x, uint8_t y, const char *s) U8X8_NOINLIN
 439:..\..\..\u8g2\u8g2\csrc/u8x8_8x8.c **** static uint8_t u8x8_draw_1x2_string(u8x8_t *u8x8, uint8_t x, uint8_t y, const char *s)
 440:..\..\..\u8g2\u8g2\csrc/u8x8_8x8.c **** {  
 1106              		.loc 1 440 0
 1107              		.cfi_startproc
 1108              		@ args = 0, pretend = 0, frame = 0
 1109              		@ frame_needed = 0, uses_anonymous_args = 0
 1110              	.LVL169:
 1111 0000 2DE9F84F 		push	{r3, r4, r5, r6, r7, r8, r9, r10, fp, lr}
 1112              		.cfi_def_cfa_offset 40
 1113              		.cfi_offset 3, -40
 1114              		.cfi_offset 4, -36
 1115              		.cfi_offset 5, -32
 1116              		.cfi_offset 6, -28
 1117              		.cfi_offset 7, -24
 1118              		.cfi_offset 8, -20
 1119              		.cfi_offset 9, -16
 1120              		.cfi_offset 10, -12
 1121              		.cfi_offset 11, -8
 1122              		.cfi_offset 14, -4
 1123              		.loc 1 440 0
 1124 0004 0646     		mov	r6, r0
 1125 0006 0D46     		mov	r5, r1
 441:..\..\..\u8g2\u8g2\csrc/u8x8_8x8.c ****   uint16_t e;
 442:..\..\..\u8g2\u8g2\csrc/u8x8_8x8.c ****   uint8_t cnt = 0;
 443:..\..\..\u8g2\u8g2\csrc/u8x8_8x8.c ****   uint8_t th = u8x8_pgm_read(u8x8->font+2);	/* new 2019 format */
 444:..\..\..\u8g2\u8g2\csrc/u8x8_8x8.c ****   u8x8_utf8_init(u8x8);
 445:..\..\..\u8g2\u8g2\csrc/u8x8_8x8.c ****   for(;;)
 446:..\..\..\u8g2\u8g2\csrc/u8x8_8x8.c ****   {
 447:..\..\..\u8g2\u8g2\csrc/u8x8_8x8.c ****     e = u8x8->next_cb(u8x8, (uint8_t)*s);
 448:..\..\..\u8g2\u8g2\csrc/u8x8_8x8.c ****     if ( e == 0x0ffff )
 1126              		.loc 1 448 0
 1127 0008 4FF6FF7A 		movw	r10, #65535
 449:..\..\..\u8g2\u8g2\csrc/u8x8_8x8.c ****       break;
 450:..\..\..\u8g2\u8g2\csrc/u8x8_8x8.c ****     s++;
 451:..\..\..\u8g2\u8g2\csrc/u8x8_8x8.c ****     if ( e != 0x0fffe )
 1128              		.loc 1 451 0
ARM GAS  C:\Users\jesse\AppData\Local\Temp\cczJQ9WN.s 			page 31


 1129 000c 4FF6FE7B 		movw	fp, #65534
 440:..\..\..\u8g2\u8g2\csrc/u8x8_8x8.c ****   uint16_t e;
 1130              		.loc 1 440 0
 1131 0010 9146     		mov	r9, r2
 443:..\..\..\u8g2\u8g2\csrc/u8x8_8x8.c ****   u8x8_utf8_init(u8x8);
 1132              		.loc 1 443 0
 1133 0012 C269     		ldr	r2, [r0, #28]
 1134              	.LVL170:
 1135              	.LBB34:
 1136              	.LBB35:
 287:..\..\..\u8g2\u8g2\csrc/u8x8_8x8.c **** }
 1137              		.loc 1 287 0
 1138 0014 0024     		movs	r4, #0
 1139              	.LBE35:
 1140              	.LBE34:
 443:..\..\..\u8g2\u8g2\csrc/u8x8_8x8.c ****   u8x8_utf8_init(u8x8);
 1141              		.loc 1 443 0
 1142 0016 92F80280 		ldrb	r8, [r2, #2]	@ zero_extendqisi2
 1143              	.LVL171:
 1144 001a 5F1E     		subs	r7, r3, #1
 1145              	.LBB37:
 1146              	.LBB36:
 287:..\..\..\u8g2\u8g2\csrc/u8x8_8x8.c **** }
 1147              		.loc 1 287 0
 1148 001c 80F82640 		strb	r4, [r0, #38]
 1149              	.LVL172:
 1150              	.L64:
 1151              	.LBE36:
 1152              	.LBE37:
 447:..\..\..\u8g2\u8g2\csrc/u8x8_8x8.c ****     if ( e == 0x0ffff )
 1153              		.loc 1 447 0
 1154 0020 7368     		ldr	r3, [r6, #4]
 1155 0022 17F8011F 		ldrb	r1, [r7, #1]!	@ zero_extendqisi2
 1156              	.LVL173:
 1157 0026 3046     		mov	r0, r6
 1158 0028 9847     		blx	r3
 1159              	.LVL174:
 448:..\..\..\u8g2\u8g2\csrc/u8x8_8x8.c ****       break;
 1160              		.loc 1 448 0
 1161 002a 5045     		cmp	r0, r10
 1162 002c 0CD0     		beq	.L65
 1163              	.LVL175:
 1164              		.loc 1 451 0
 1165 002e 5845     		cmp	r0, fp
 1166 0030 F6D0     		beq	.L64
 452:..\..\..\u8g2\u8g2\csrc/u8x8_8x8.c ****     {
 453:..\..\..\u8g2\u8g2\csrc/u8x8_8x8.c ****       u8x8_Draw1x2Glyph(u8x8, x, y, e);
 1167              		.loc 1 453 0
 1168 0032 C3B2     		uxtb	r3, r0
 1169 0034 2946     		mov	r1, r5
 1170 0036 4A46     		mov	r2, r9
 1171 0038 3046     		mov	r0, r6
 1172              	.LVL176:
 454:..\..\..\u8g2\u8g2\csrc/u8x8_8x8.c ****       x+=th;
 1173              		.loc 1 454 0
 1174 003a 4544     		add	r5, r5, r8
 1175              	.LVL177:
ARM GAS  C:\Users\jesse\AppData\Local\Temp\cczJQ9WN.s 			page 32


 455:..\..\..\u8g2\u8g2\csrc/u8x8_8x8.c ****       cnt++;
 1176              		.loc 1 455 0
 1177 003c 0134     		adds	r4, r4, #1
 1178              	.LVL178:
 453:..\..\..\u8g2\u8g2\csrc/u8x8_8x8.c ****       x+=th;
 1179              		.loc 1 453 0
 1180 003e FFF7FEFF 		bl	u8x8_Draw1x2Glyph
 1181              	.LVL179:
 454:..\..\..\u8g2\u8g2\csrc/u8x8_8x8.c ****       x+=th;
 1182              		.loc 1 454 0
 1183 0042 EDB2     		uxtb	r5, r5
 1184              	.LVL180:
 1185              		.loc 1 455 0
 1186 0044 E4B2     		uxtb	r4, r4
 1187              	.LVL181:
 1188 0046 EBE7     		b	.L64
 1189              	.LVL182:
 1190              	.L65:
 456:..\..\..\u8g2\u8g2\csrc/u8x8_8x8.c ****     }
 457:..\..\..\u8g2\u8g2\csrc/u8x8_8x8.c ****   }
 458:..\..\..\u8g2\u8g2\csrc/u8x8_8x8.c ****   return cnt;
 459:..\..\..\u8g2\u8g2\csrc/u8x8_8x8.c **** }
 1191              		.loc 1 459 0
 1192 0048 2046     		mov	r0, r4
 1193              	.LVL183:
 1194 004a BDE8F88F 		pop	{r3, r4, r5, r6, r7, r8, r9, r10, fp, pc}
 1195              		.cfi_endproc
 1196              	.LFE18:
 1197              		.size	u8x8_draw_1x2_string, .-u8x8_draw_1x2_string
 1198              		.section	.text.u8x8_utf8_init,"ax",%progbits
 1199              		.align	1
 1200              		.global	u8x8_utf8_init
 1201              		.thumb
 1202              		.thumb_func
 1203              		.type	u8x8_utf8_init, %function
 1204              	u8x8_utf8_init:
 1205              	.LFB9:
 286:..\..\..\u8g2\u8g2\csrc/u8x8_8x8.c ****   u8x8->utf8_state = 0;	/* also reset during u8x8_SetupDefaults() */
 1206              		.loc 1 286 0
 1207              		.cfi_startproc
 1208              		@ args = 0, pretend = 0, frame = 0
 1209              		@ frame_needed = 0, uses_anonymous_args = 0
 1210              		@ link register save eliminated.
 1211              	.LVL184:
 287:..\..\..\u8g2\u8g2\csrc/u8x8_8x8.c **** }
 1212              		.loc 1 287 0
 1213 0000 0023     		movs	r3, #0
 1214 0002 80F82630 		strb	r3, [r0, #38]
 1215 0006 7047     		bx	lr
 1216              		.cfi_endproc
 1217              	.LFE9:
 1218              		.size	u8x8_utf8_init, .-u8x8_utf8_init
 1219              		.section	.text.u8x8_DrawString,"ax",%progbits
 1220              		.align	1
 1221              		.global	u8x8_DrawString
 1222              		.thumb
 1223              		.thumb_func
ARM GAS  C:\Users\jesse\AppData\Local\Temp\cczJQ9WN.s 			page 33


 1224              		.type	u8x8_DrawString, %function
 1225              	u8x8_DrawString:
 1226              	.LFB13:
 384:..\..\..\u8g2\u8g2\csrc/u8x8_8x8.c ****   u8x8->next_cb = u8x8_ascii_next;
 1227              		.loc 1 384 0
 1228              		.cfi_startproc
 1229              		@ args = 0, pretend = 0, frame = 0
 1230              		@ frame_needed = 0, uses_anonymous_args = 0
 1231              		@ link register save eliminated.
 1232              	.LVL185:
 1233 0000 10B4     		push	{r4}
 1234              		.cfi_def_cfa_offset 4
 1235              		.cfi_offset 4, -4
 385:..\..\..\u8g2\u8g2\csrc/u8x8_8x8.c ****   return u8x8_draw_string(u8x8, x, y, s);
 1236              		.loc 1 385 0
 1237 0002 024C     		ldr	r4, .L69
 1238 0004 4460     		str	r4, [r0, #4]
 387:..\..\..\u8g2\u8g2\csrc/u8x8_8x8.c **** 
 1239              		.loc 1 387 0
 1240 0006 10BC     		pop	{r4}
 1241              		.cfi_restore 4
 1242              		.cfi_def_cfa_offset 0
 386:..\..\..\u8g2\u8g2\csrc/u8x8_8x8.c **** }
 1243              		.loc 1 386 0
 1244 0008 FFF7FEBF 		b	u8x8_draw_string
 1245              	.LVL186:
 1246              	.L70:
 1247              		.align	2
 1248              	.L69:
 1249 000c 00000000 		.word	u8x8_ascii_next
 1250              		.cfi_endproc
 1251              	.LFE13:
 1252              		.size	u8x8_DrawString, .-u8x8_DrawString
 1253              		.section	.text.u8x8_DrawUTF8,"ax",%progbits
 1254              		.align	1
 1255              		.global	u8x8_DrawUTF8
 1256              		.thumb
 1257              		.thumb_func
 1258              		.type	u8x8_DrawUTF8, %function
 1259              	u8x8_DrawUTF8:
 1260              	.LFB14:
 390:..\..\..\u8g2\u8g2\csrc/u8x8_8x8.c ****   u8x8->next_cb = u8x8_utf8_next;
 1261              		.loc 1 390 0
 1262              		.cfi_startproc
 1263              		@ args = 0, pretend = 0, frame = 0
 1264              		@ frame_needed = 0, uses_anonymous_args = 0
 1265              		@ link register save eliminated.
 1266              	.LVL187:
 1267 0000 10B4     		push	{r4}
 1268              		.cfi_def_cfa_offset 4
 1269              		.cfi_offset 4, -4
 391:..\..\..\u8g2\u8g2\csrc/u8x8_8x8.c ****   return u8x8_draw_string(u8x8, x, y, s);
 1270              		.loc 1 391 0
 1271 0002 024C     		ldr	r4, .L72
 1272 0004 4460     		str	r4, [r0, #4]
 393:..\..\..\u8g2\u8g2\csrc/u8x8_8x8.c **** 
 1273              		.loc 1 393 0
ARM GAS  C:\Users\jesse\AppData\Local\Temp\cczJQ9WN.s 			page 34


 1274 0006 10BC     		pop	{r4}
 1275              		.cfi_restore 4
 1276              		.cfi_def_cfa_offset 0
 392:..\..\..\u8g2\u8g2\csrc/u8x8_8x8.c **** }
 1277              		.loc 1 392 0
 1278 0008 FFF7FEBF 		b	u8x8_draw_string
 1279              	.LVL188:
 1280              	.L73:
 1281              		.align	2
 1282              	.L72:
 1283 000c 00000000 		.word	u8x8_utf8_next
 1284              		.cfi_endproc
 1285              	.LFE14:
 1286              		.size	u8x8_DrawUTF8, .-u8x8_DrawUTF8
 1287              		.section	.text.u8x8_Draw2x2String,"ax",%progbits
 1288              		.align	1
 1289              		.global	u8x8_Draw2x2String
 1290              		.thumb
 1291              		.thumb_func
 1292              		.type	u8x8_Draw2x2String, %function
 1293              	u8x8_Draw2x2String:
 1294              	.LFB16:
 425:..\..\..\u8g2\u8g2\csrc/u8x8_8x8.c ****   u8x8->next_cb = u8x8_ascii_next;
 1295              		.loc 1 425 0
 1296              		.cfi_startproc
 1297              		@ args = 0, pretend = 0, frame = 0
 1298              		@ frame_needed = 0, uses_anonymous_args = 0
 1299              		@ link register save eliminated.
 1300              	.LVL189:
 1301 0000 10B4     		push	{r4}
 1302              		.cfi_def_cfa_offset 4
 1303              		.cfi_offset 4, -4
 426:..\..\..\u8g2\u8g2\csrc/u8x8_8x8.c ****   return u8x8_draw_2x2_string(u8x8, x, y, s);
 1304              		.loc 1 426 0
 1305 0002 024C     		ldr	r4, .L75
 1306 0004 4460     		str	r4, [r0, #4]
 428:..\..\..\u8g2\u8g2\csrc/u8x8_8x8.c **** 
 1307              		.loc 1 428 0
 1308 0006 10BC     		pop	{r4}
 1309              		.cfi_restore 4
 1310              		.cfi_def_cfa_offset 0
 427:..\..\..\u8g2\u8g2\csrc/u8x8_8x8.c **** }
 1311              		.loc 1 427 0
 1312 0008 FFF7FEBF 		b	u8x8_draw_2x2_string
 1313              	.LVL190:
 1314              	.L76:
 1315              		.align	2
 1316              	.L75:
 1317 000c 00000000 		.word	u8x8_ascii_next
 1318              		.cfi_endproc
 1319              	.LFE16:
 1320              		.size	u8x8_Draw2x2String, .-u8x8_Draw2x2String
 1321              		.section	.text.u8x8_Draw2x2UTF8,"ax",%progbits
 1322              		.align	1
 1323              		.global	u8x8_Draw2x2UTF8
 1324              		.thumb
 1325              		.thumb_func
ARM GAS  C:\Users\jesse\AppData\Local\Temp\cczJQ9WN.s 			page 35


 1326              		.type	u8x8_Draw2x2UTF8, %function
 1327              	u8x8_Draw2x2UTF8:
 1328              	.LFB17:
 431:..\..\..\u8g2\u8g2\csrc/u8x8_8x8.c ****   u8x8->next_cb = u8x8_utf8_next;
 1329              		.loc 1 431 0
 1330              		.cfi_startproc
 1331              		@ args = 0, pretend = 0, frame = 0
 1332              		@ frame_needed = 0, uses_anonymous_args = 0
 1333              		@ link register save eliminated.
 1334              	.LVL191:
 1335 0000 10B4     		push	{r4}
 1336              		.cfi_def_cfa_offset 4
 1337              		.cfi_offset 4, -4
 432:..\..\..\u8g2\u8g2\csrc/u8x8_8x8.c ****   return u8x8_draw_2x2_string(u8x8, x, y, s);
 1338              		.loc 1 432 0
 1339 0002 024C     		ldr	r4, .L78
 1340 0004 4460     		str	r4, [r0, #4]
 434:..\..\..\u8g2\u8g2\csrc/u8x8_8x8.c **** 
 1341              		.loc 1 434 0
 1342 0006 10BC     		pop	{r4}
 1343              		.cfi_restore 4
 1344              		.cfi_def_cfa_offset 0
 433:..\..\..\u8g2\u8g2\csrc/u8x8_8x8.c **** }
 1345              		.loc 1 433 0
 1346 0008 FFF7FEBF 		b	u8x8_draw_2x2_string
 1347              	.LVL192:
 1348              	.L79:
 1349              		.align	2
 1350              	.L78:
 1351 000c 00000000 		.word	u8x8_utf8_next
 1352              		.cfi_endproc
 1353              	.LFE17:
 1354              		.size	u8x8_Draw2x2UTF8, .-u8x8_Draw2x2UTF8
 1355              		.section	.text.u8x8_Draw1x2String,"ax",%progbits
 1356              		.align	1
 1357              		.global	u8x8_Draw1x2String
 1358              		.thumb
 1359              		.thumb_func
 1360              		.type	u8x8_Draw1x2String, %function
 1361              	u8x8_Draw1x2String:
 1362              	.LFB19:
 460:..\..\..\u8g2\u8g2\csrc/u8x8_8x8.c **** 
 461:..\..\..\u8g2\u8g2\csrc/u8x8_8x8.c **** 
 462:..\..\..\u8g2\u8g2\csrc/u8x8_8x8.c **** uint8_t u8x8_Draw1x2String(u8x8_t *u8x8, uint8_t x, uint8_t y, const char *s)
 463:..\..\..\u8g2\u8g2\csrc/u8x8_8x8.c **** {
 1363              		.loc 1 463 0
 1364              		.cfi_startproc
 1365              		@ args = 0, pretend = 0, frame = 0
 1366              		@ frame_needed = 0, uses_anonymous_args = 0
 1367              		@ link register save eliminated.
 1368              	.LVL193:
 1369 0000 10B4     		push	{r4}
 1370              		.cfi_def_cfa_offset 4
 1371              		.cfi_offset 4, -4
 464:..\..\..\u8g2\u8g2\csrc/u8x8_8x8.c ****   u8x8->next_cb = u8x8_ascii_next;
 1372              		.loc 1 464 0
 1373 0002 024C     		ldr	r4, .L81
ARM GAS  C:\Users\jesse\AppData\Local\Temp\cczJQ9WN.s 			page 36


 1374 0004 4460     		str	r4, [r0, #4]
 465:..\..\..\u8g2\u8g2\csrc/u8x8_8x8.c ****   return u8x8_draw_1x2_string(u8x8, x, y, s);
 466:..\..\..\u8g2\u8g2\csrc/u8x8_8x8.c **** }
 1375              		.loc 1 466 0
 1376 0006 10BC     		pop	{r4}
 1377              		.cfi_restore 4
 1378              		.cfi_def_cfa_offset 0
 465:..\..\..\u8g2\u8g2\csrc/u8x8_8x8.c ****   return u8x8_draw_1x2_string(u8x8, x, y, s);
 1379              		.loc 1 465 0
 1380 0008 FFF7FEBF 		b	u8x8_draw_1x2_string
 1381              	.LVL194:
 1382              	.L82:
 1383              		.align	2
 1384              	.L81:
 1385 000c 00000000 		.word	u8x8_ascii_next
 1386              		.cfi_endproc
 1387              	.LFE19:
 1388              		.size	u8x8_Draw1x2String, .-u8x8_Draw1x2String
 1389              		.section	.text.u8x8_Draw1x2UTF8,"ax",%progbits
 1390              		.align	1
 1391              		.global	u8x8_Draw1x2UTF8
 1392              		.thumb
 1393              		.thumb_func
 1394              		.type	u8x8_Draw1x2UTF8, %function
 1395              	u8x8_Draw1x2UTF8:
 1396              	.LFB20:
 467:..\..\..\u8g2\u8g2\csrc/u8x8_8x8.c **** 
 468:..\..\..\u8g2\u8g2\csrc/u8x8_8x8.c **** uint8_t u8x8_Draw1x2UTF8(u8x8_t *u8x8, uint8_t x, uint8_t y, const char *s)
 469:..\..\..\u8g2\u8g2\csrc/u8x8_8x8.c **** {
 1397              		.loc 1 469 0
 1398              		.cfi_startproc
 1399              		@ args = 0, pretend = 0, frame = 0
 1400              		@ frame_needed = 0, uses_anonymous_args = 0
 1401              		@ link register save eliminated.
 1402              	.LVL195:
 1403 0000 10B4     		push	{r4}
 1404              		.cfi_def_cfa_offset 4
 1405              		.cfi_offset 4, -4
 470:..\..\..\u8g2\u8g2\csrc/u8x8_8x8.c ****   u8x8->next_cb = u8x8_utf8_next;
 1406              		.loc 1 470 0
 1407 0002 024C     		ldr	r4, .L84
 1408 0004 4460     		str	r4, [r0, #4]
 471:..\..\..\u8g2\u8g2\csrc/u8x8_8x8.c ****   return u8x8_draw_1x2_string(u8x8, x, y, s);
 472:..\..\..\u8g2\u8g2\csrc/u8x8_8x8.c **** }
 1409              		.loc 1 472 0
 1410 0006 10BC     		pop	{r4}
 1411              		.cfi_restore 4
 1412              		.cfi_def_cfa_offset 0
 471:..\..\..\u8g2\u8g2\csrc/u8x8_8x8.c ****   return u8x8_draw_1x2_string(u8x8, x, y, s);
 1413              		.loc 1 471 0
 1414 0008 FFF7FEBF 		b	u8x8_draw_1x2_string
 1415              	.LVL196:
 1416              	.L85:
 1417              		.align	2
 1418              	.L84:
 1419 000c 00000000 		.word	u8x8_utf8_next
 1420              		.cfi_endproc
ARM GAS  C:\Users\jesse\AppData\Local\Temp\cczJQ9WN.s 			page 37


 1421              	.LFE20:
 1422              		.size	u8x8_Draw1x2UTF8, .-u8x8_Draw1x2UTF8
 1423              		.section	.text.u8x8_GetUTF8Len,"ax",%progbits
 1424              		.align	1
 1425              		.global	u8x8_GetUTF8Len
 1426              		.thumb
 1427              		.thumb_func
 1428              		.type	u8x8_GetUTF8Len, %function
 1429              	u8x8_GetUTF8Len:
 1430              	.LFB21:
 473:..\..\..\u8g2\u8g2\csrc/u8x8_8x8.c **** 
 474:..\..\..\u8g2\u8g2\csrc/u8x8_8x8.c **** 
 475:..\..\..\u8g2\u8g2\csrc/u8x8_8x8.c **** 
 476:..\..\..\u8g2\u8g2\csrc/u8x8_8x8.c **** uint8_t u8x8_GetUTF8Len(u8x8_t *u8x8, const char *s)
 477:..\..\..\u8g2\u8g2\csrc/u8x8_8x8.c **** {
 1431              		.loc 1 477 0
 1432              		.cfi_startproc
 1433              		@ args = 0, pretend = 0, frame = 0
 1434              		@ frame_needed = 0, uses_anonymous_args = 0
 1435              	.LVL197:
 1436 0000 2DE9F041 		push	{r4, r5, r6, r7, r8, lr}
 1437              		.cfi_def_cfa_offset 24
 1438              		.cfi_offset 4, -24
 1439              		.cfi_offset 5, -20
 1440              		.cfi_offset 6, -16
 1441              		.cfi_offset 7, -12
 1442              		.cfi_offset 8, -8
 1443              		.cfi_offset 14, -4
 1444              		.loc 1 477 0
 1445 0004 0646     		mov	r6, r0
 478:..\..\..\u8g2\u8g2\csrc/u8x8_8x8.c ****   uint16_t e;
 479:..\..\..\u8g2\u8g2\csrc/u8x8_8x8.c ****   uint8_t cnt = 0;
 480:..\..\..\u8g2\u8g2\csrc/u8x8_8x8.c ****   u8x8_utf8_init(u8x8);
 481:..\..\..\u8g2\u8g2\csrc/u8x8_8x8.c ****   for(;;)
 482:..\..\..\u8g2\u8g2\csrc/u8x8_8x8.c ****   {
 483:..\..\..\u8g2\u8g2\csrc/u8x8_8x8.c ****     e = u8x8_utf8_next(u8x8, *s);
 484:..\..\..\u8g2\u8g2\csrc/u8x8_8x8.c ****     if ( e == 0x0ffff )
 1446              		.loc 1 484 0
 1447 0006 4FF6FF77 		movw	r7, #65535
 485:..\..\..\u8g2\u8g2\csrc/u8x8_8x8.c ****       break;
 486:..\..\..\u8g2\u8g2\csrc/u8x8_8x8.c ****     s++;
 487:..\..\..\u8g2\u8g2\csrc/u8x8_8x8.c ****     if ( e != 0x0fffe )
 1448              		.loc 1 487 0
 1449 000a 4FF6FE78 		movw	r8, #65534
 1450              	.LBB38:
 1451              	.LBB39:
 287:..\..\..\u8g2\u8g2\csrc/u8x8_8x8.c **** }
 1452              		.loc 1 287 0
 1453 000e 0024     		movs	r4, #0
 1454 0010 80F82640 		strb	r4, [r0, #38]
 1455 0014 4D1E     		subs	r5, r1, #1
 1456              	.LVL198:
 1457              	.L87:
 1458              	.LBE39:
 1459              	.LBE38:
 483:..\..\..\u8g2\u8g2\csrc/u8x8_8x8.c ****     if ( e == 0x0ffff )
 1460              		.loc 1 483 0
ARM GAS  C:\Users\jesse\AppData\Local\Temp\cczJQ9WN.s 			page 38


 1461 0016 15F8011F 		ldrb	r1, [r5, #1]!	@ zero_extendqisi2
 1462              	.LVL199:
 1463 001a 3046     		mov	r0, r6
 1464 001c FFF7FEFF 		bl	u8x8_utf8_next
 1465              	.LVL200:
 484:..\..\..\u8g2\u8g2\csrc/u8x8_8x8.c ****       break;
 1466              		.loc 1 484 0
 1467 0020 B842     		cmp	r0, r7
 1468 0022 04D0     		beq	.L88
 1469              	.LVL201:
 1470              		.loc 1 487 0
 1471 0024 4045     		cmp	r0, r8
 1472 0026 F6D0     		beq	.L87
 488:..\..\..\u8g2\u8g2\csrc/u8x8_8x8.c ****       cnt++;
 1473              		.loc 1 488 0
 1474 0028 0134     		adds	r4, r4, #1
 1475              	.LVL202:
 1476 002a E4B2     		uxtb	r4, r4
 1477              	.LVL203:
 1478 002c F3E7     		b	.L87
 1479              	.LVL204:
 1480              	.L88:
 489:..\..\..\u8g2\u8g2\csrc/u8x8_8x8.c ****   }
 490:..\..\..\u8g2\u8g2\csrc/u8x8_8x8.c ****   return cnt;
 491:..\..\..\u8g2\u8g2\csrc/u8x8_8x8.c **** }
 1481              		.loc 1 491 0
 1482 002e 2046     		mov	r0, r4
 1483              	.LVL205:
 1484 0030 BDE8F081 		pop	{r4, r5, r6, r7, r8, pc}
 1485              		.cfi_endproc
 1486              	.LFE21:
 1487              		.size	u8x8_GetUTF8Len, .-u8x8_GetUTF8Len
 1488              		.text
 1489              	.Letext0:
 1490              		.file 2 "c:\\program files (x86)\\cypress\\psoc creator\\4.4\\psoc creator\\import\\gnu\\arm\\5.4.
 1491              		.file 3 "c:\\program files (x86)\\cypress\\psoc creator\\4.4\\psoc creator\\import\\gnu\\arm\\5.4.
 1492              		.file 4 "..\\..\\..\\u8g2\\u8g2\\csrc\\u8x8.h"