ARM GAS  C:\Users\jesse\AppData\Local\Temp\cch7cynh.s 			page 1


   1              		.syntax unified
   2              		.cpu cortex-m3
   3              		.fpu softvfp
   4              		.eabi_attribute 20, 1
   5              		.eabi_attribute 21, 1
   6              		.eabi_attribute 23, 3
   7              		.eabi_attribute 24, 1
   8              		.eabi_attribute 25, 1
   9              		.eabi_attribute 26, 1
  10              		.eabi_attribute 30, 4
  11              		.eabi_attribute 34, 1
  12              		.eabi_attribute 18, 4
  13              		.thumb
  14              		.syntax unified
  15              		.file	"u8x8_d_ssd1306_48x64.c"
  16              		.text
  17              	.Ltext0:
  18              		.cfi_sections	.debug_frame
  19              		.section	.text.u8x8_d_ssd1306_48x64_winstar,"ax",%progbits
  20              		.align	1
  21              		.global	u8x8_d_ssd1306_48x64_winstar
  22              		.thumb
  23              		.thumb_func
  24              		.type	u8x8_d_ssd1306_48x64_winstar, %function
  25              	u8x8_d_ssd1306_48x64_winstar:
  26              	.LFB1:
  27              		.file 1 "..\\..\\..\\u8g2\\u8g2\\csrc\\u8x8_d_ssd1306_48x64.c"
   1:..\..\..\u8g2\u8g2\csrc/u8x8_d_ssd1306_48x64.c **** /*
   2:..\..\..\u8g2\u8g2\csrc/u8x8_d_ssd1306_48x64.c **** 
   3:..\..\..\u8g2\u8g2\csrc/u8x8_d_ssd1306_48x64.c ****  u8x8_d_ssd1306_48x64_winstar.c
   4:..\..\..\u8g2\u8g2\csrc/u8x8_d_ssd1306_48x64.c **** 
   5:..\..\..\u8g2\u8g2\csrc/u8x8_d_ssd1306_48x64.c ****  Universal 8bit Graphics Library (https://github.com/olikraus/u8g2/)
   6:..\..\..\u8g2\u8g2\csrc/u8x8_d_ssd1306_48x64.c **** 
   7:..\..\..\u8g2\u8g2\csrc/u8x8_d_ssd1306_48x64.c ****  Copyright (c) 2016, olikraus@gmail.com
   8:..\..\..\u8g2\u8g2\csrc/u8x8_d_ssd1306_48x64.c ****  All rights reserved.
   9:..\..\..\u8g2\u8g2\csrc/u8x8_d_ssd1306_48x64.c **** 
  10:..\..\..\u8g2\u8g2\csrc/u8x8_d_ssd1306_48x64.c ****  Redistribution and use in source and binary forms, with or without modification,
  11:..\..\..\u8g2\u8g2\csrc/u8x8_d_ssd1306_48x64.c ****  are permitted provided that the following conditions are met:
  12:..\..\..\u8g2\u8g2\csrc/u8x8_d_ssd1306_48x64.c **** 
  13:..\..\..\u8g2\u8g2\csrc/u8x8_d_ssd1306_48x64.c ****  * Redistributions of source code must retain the above copyright notice, this list
  14:..\..\..\u8g2\u8g2\csrc/u8x8_d_ssd1306_48x64.c ****  of conditions and the following disclaimer.
  15:..\..\..\u8g2\u8g2\csrc/u8x8_d_ssd1306_48x64.c **** 
  16:..\..\..\u8g2\u8g2\csrc/u8x8_d_ssd1306_48x64.c ****  * Redistributions in binary form must reproduce the above copyright notice, this
  17:..\..\..\u8g2\u8g2\csrc/u8x8_d_ssd1306_48x64.c ****  list of conditions and the following disclaimer in the documentation and/or other
  18:..\..\..\u8g2\u8g2\csrc/u8x8_d_ssd1306_48x64.c ****  materials provided with the distribution.
  19:..\..\..\u8g2\u8g2\csrc/u8x8_d_ssd1306_48x64.c **** 
  20:..\..\..\u8g2\u8g2\csrc/u8x8_d_ssd1306_48x64.c ****  THIS SOFTWARE IS PROVIDED BY THE COPYRIGHT HOLDERS AND
  21:..\..\..\u8g2\u8g2\csrc/u8x8_d_ssd1306_48x64.c ****  CONTRIBUTORS "AS IS" AND ANY EXPRESS OR IMPLIED WARRANTIES,
  22:..\..\..\u8g2\u8g2\csrc/u8x8_d_ssd1306_48x64.c ****  INCLUDING, BUT NOT LIMITED TO, THE IMPLIED WARRANTIES OF
  23:..\..\..\u8g2\u8g2\csrc/u8x8_d_ssd1306_48x64.c ****  MERCHANTABILITY AND FITNESS FOR A PARTICULAR PURPOSE ARE
  24:..\..\..\u8g2\u8g2\csrc/u8x8_d_ssd1306_48x64.c ****  DISCLAIMED. IN NO EVENT SHALL THE COPYRIGHT HOLDER OR
  25:..\..\..\u8g2\u8g2\csrc/u8x8_d_ssd1306_48x64.c ****  CONTRIBUTORS BE LIABLE FOR ANY DIRECT, INDIRECT, INCIDENTAL,
  26:..\..\..\u8g2\u8g2\csrc/u8x8_d_ssd1306_48x64.c ****  SPECIAL, EXEMPLARY, OR CONSEQUENTIAL DAMAGES (INCLUDING, BUT
  27:..\..\..\u8g2\u8g2\csrc/u8x8_d_ssd1306_48x64.c ****  NOT LIMITED TO, PROCUREMENT OF SUBSTITUTE GOODS OR SERVICES;
  28:..\..\..\u8g2\u8g2\csrc/u8x8_d_ssd1306_48x64.c ****  LOSS OF USE, DATA, OR PROFITS; OR BUSINESS INTERRUPTION) HOWEVER
  29:..\..\..\u8g2\u8g2\csrc/u8x8_d_ssd1306_48x64.c ****  CAUSED AND ON ANY THEORY OF LIABILITY, WHETHER IN CONTRACT,
  30:..\..\..\u8g2\u8g2\csrc/u8x8_d_ssd1306_48x64.c ****  STRICT LIABILITY, OR TORT (INCLUDING NEGLIGENCE OR OTHERWISE)
ARM GAS  C:\Users\jesse\AppData\Local\Temp\cch7cynh.s 			page 2


  31:..\..\..\u8g2\u8g2\csrc/u8x8_d_ssd1306_48x64.c ****  ARISING IN ANY WAY OUT OF THE USE OF THIS SOFTWARE, EVEN IF
  32:..\..\..\u8g2\u8g2\csrc/u8x8_d_ssd1306_48x64.c ****  ADVISED OF THE POSSIBILITY OF SUCH DAMAGE.
  33:..\..\..\u8g2\u8g2\csrc/u8x8_d_ssd1306_48x64.c **** 
  34:..\..\..\u8g2\u8g2\csrc/u8x8_d_ssd1306_48x64.c ****  */
  35:..\..\..\u8g2\u8g2\csrc/u8x8_d_ssd1306_48x64.c **** #include "u8x8.h"
  36:..\..\..\u8g2\u8g2\csrc/u8x8_d_ssd1306_48x64.c **** 
  37:..\..\..\u8g2\u8g2\csrc/u8x8_d_ssd1306_48x64.c **** /* Winstar 0.71 OLED */
  38:..\..\..\u8g2\u8g2\csrc/u8x8_d_ssd1306_48x64.c **** static const uint8_t u8x8_d_ssd1306_48x64_winstar_init_seq[] =
  39:..\..\..\u8g2\u8g2\csrc/u8x8_d_ssd1306_48x64.c **** {
  40:..\..\..\u8g2\u8g2\csrc/u8x8_d_ssd1306_48x64.c **** 
  41:..\..\..\u8g2\u8g2\csrc/u8x8_d_ssd1306_48x64.c **** U8X8_START_TRANSFER(), /* enable chip, delay is part of the transfer start */
  42:..\..\..\u8g2\u8g2\csrc/u8x8_d_ssd1306_48x64.c **** 
  43:..\..\..\u8g2\u8g2\csrc/u8x8_d_ssd1306_48x64.c ****     U8X8_C(0x0ae), /* display off */
  44:..\..\..\u8g2\u8g2\csrc/u8x8_d_ssd1306_48x64.c ****     U8X8_CA(0x0d5, 0x080), /* clock divide ratio (0x00=1) and oscillator frequency (0x8) */
  45:..\..\..\u8g2\u8g2\csrc/u8x8_d_ssd1306_48x64.c ****     U8X8_CA(0x0a8, 0x03f), /* multiplex ratio, 0.71 OLED: changed from 0x2f to 0x3f */
  46:..\..\..\u8g2\u8g2\csrc/u8x8_d_ssd1306_48x64.c ****     U8X8_CA(0x0d3, 0x000), /* display offset, 0.71 OLED  */
  47:..\..\..\u8g2\u8g2\csrc/u8x8_d_ssd1306_48x64.c ****     U8X8_C(0x040), /* set display start line to 0, 0.71 OLED */
  48:..\..\..\u8g2\u8g2\csrc/u8x8_d_ssd1306_48x64.c ****     U8X8_CA(0x08d, 0x014), /* [2] charge pump setting (p62): 0x014 enable, 0x010 disable, 0.71 OLED
  49:..\..\..\u8g2\u8g2\csrc/u8x8_d_ssd1306_48x64.c **** 
  50:..\..\..\u8g2\u8g2\csrc/u8x8_d_ssd1306_48x64.c ****     /// according to the datasheet, 0x00 is NOT page addressing mode, but horizontal addressing mod
  51:..\..\..\u8g2\u8g2\csrc/u8x8_d_ssd1306_48x64.c ****     /// so it looks like u8g2 expects horizontal addressing (and the inline comment is wrong) while
  52:..\..\..\u8g2\u8g2\csrc/u8x8_d_ssd1306_48x64.c ****     /// actually uses page addressing (which is the reset default)
  53:..\..\..\u8g2\u8g2\csrc/u8x8_d_ssd1306_48x64.c ****     U8X8_CA(0x020, 0x000), /* horizontal addressing mode */
  54:..\..\..\u8g2\u8g2\csrc/u8x8_d_ssd1306_48x64.c **** 
  55:..\..\..\u8g2\u8g2\csrc/u8x8_d_ssd1306_48x64.c ****     U8X8_C(0x0a1), /* segment remap a0/a1, 0.71 OLED  */
  56:..\..\..\u8g2\u8g2\csrc/u8x8_d_ssd1306_48x64.c ****     U8X8_C(0x0c8), /* c0: scan dir normal, c8: reverse, 0.71 OLED  */
  57:..\..\..\u8g2\u8g2\csrc/u8x8_d_ssd1306_48x64.c ****     // Flipmode
  58:..\..\..\u8g2\u8g2\csrc/u8x8_d_ssd1306_48x64.c ****     // U8X8_C(0x0a0),       /* segment remap a0/a1*/
  59:..\..\..\u8g2\u8g2\csrc/u8x8_d_ssd1306_48x64.c ****     // U8X8_C(0x0c0),       /* c0: scan dir normal, c8: reverse */
  60:..\..\..\u8g2\u8g2\csrc/u8x8_d_ssd1306_48x64.c **** 
  61:..\..\..\u8g2\u8g2\csrc/u8x8_d_ssd1306_48x64.c ****     U8X8_CA(0x0da, 0x012), /* com pin HW config, sequential com pin config (bit 4), disable left/ri
  62:..\..\..\u8g2\u8g2\csrc/u8x8_d_ssd1306_48x64.c ****     U8X8_CA(0x081, 0x07f), /* [2] set contrast control, 0.71 OLED datasheet: 0x7f */
  63:..\..\..\u8g2\u8g2\csrc/u8x8_d_ssd1306_48x64.c ****     U8X8_CA(0x0d9, 0x022), /* [2] pre-charge period 0x022/f1, 0.71 OLED datasheet: 0x22 */
  64:..\..\..\u8g2\u8g2\csrc/u8x8_d_ssd1306_48x64.c ****     U8X8_CA(0x0db, 0x040), /* vcomh deselect level, 0.71 OLED datasheet: 0x40 */
  65:..\..\..\u8g2\u8g2\csrc/u8x8_d_ssd1306_48x64.c **** 
  66:..\..\..\u8g2\u8g2\csrc/u8x8_d_ssd1306_48x64.c ****     // U8X8_C(0x02e),        /* Deactivate scroll */
  67:..\..\..\u8g2\u8g2\csrc/u8x8_d_ssd1306_48x64.c ****     U8X8_C(0x0a4), /* output ram to display */
  68:..\..\..\u8g2\u8g2\csrc/u8x8_d_ssd1306_48x64.c ****     U8X8_C(0x0a6), /* none inverted normal display mode */
  69:..\..\..\u8g2\u8g2\csrc/u8x8_d_ssd1306_48x64.c **** 
  70:..\..\..\u8g2\u8g2\csrc/u8x8_d_ssd1306_48x64.c ****     U8X8_END_TRANSFER(), /* disable chip */
  71:..\..\..\u8g2\u8g2\csrc/u8x8_d_ssd1306_48x64.c ****     U8X8_END() /* end of sequence */
  72:..\..\..\u8g2\u8g2\csrc/u8x8_d_ssd1306_48x64.c **** };
  73:..\..\..\u8g2\u8g2\csrc/u8x8_d_ssd1306_48x64.c **** 
  74:..\..\..\u8g2\u8g2\csrc/u8x8_d_ssd1306_48x64.c **** static const uint8_t u8x8_d_ssd1306_48x64_powersave0_seq[] =
  75:..\..\..\u8g2\u8g2\csrc/u8x8_d_ssd1306_48x64.c **** {
  76:..\..\..\u8g2\u8g2\csrc/u8x8_d_ssd1306_48x64.c **** U8X8_START_TRANSFER(), /* enable chip, delay is part of the transfer start */
  77:..\..\..\u8g2\u8g2\csrc/u8x8_d_ssd1306_48x64.c **** U8X8_C(0x0af), /* display on */
  78:..\..\..\u8g2\u8g2\csrc/u8x8_d_ssd1306_48x64.c **** U8X8_END_TRANSFER(), /* disable chip */
  79:..\..\..\u8g2\u8g2\csrc/u8x8_d_ssd1306_48x64.c **** U8X8_END() /* end of sequence */
  80:..\..\..\u8g2\u8g2\csrc/u8x8_d_ssd1306_48x64.c **** };
  81:..\..\..\u8g2\u8g2\csrc/u8x8_d_ssd1306_48x64.c **** 
  82:..\..\..\u8g2\u8g2\csrc/u8x8_d_ssd1306_48x64.c **** static const uint8_t u8x8_d_ssd1306_48x64_powersave1_seq[] =
  83:..\..\..\u8g2\u8g2\csrc/u8x8_d_ssd1306_48x64.c **** {
  84:..\..\..\u8g2\u8g2\csrc/u8x8_d_ssd1306_48x64.c **** U8X8_START_TRANSFER(), /* enable chip, delay is part of the transfer start */
  85:..\..\..\u8g2\u8g2\csrc/u8x8_d_ssd1306_48x64.c **** U8X8_C(0x0ae), /* display off */
  86:..\..\..\u8g2\u8g2\csrc/u8x8_d_ssd1306_48x64.c **** U8X8_END_TRANSFER(), /* disable chip */
  87:..\..\..\u8g2\u8g2\csrc/u8x8_d_ssd1306_48x64.c **** U8X8_END() /* end of sequence */
ARM GAS  C:\Users\jesse\AppData\Local\Temp\cch7cynh.s 			page 3


  88:..\..\..\u8g2\u8g2\csrc/u8x8_d_ssd1306_48x64.c **** };
  89:..\..\..\u8g2\u8g2\csrc/u8x8_d_ssd1306_48x64.c **** 
  90:..\..\..\u8g2\u8g2\csrc/u8x8_d_ssd1306_48x64.c **** static const uint8_t u8x8_d_ssd1306_48x64_flip0_seq[] =
  91:..\..\..\u8g2\u8g2\csrc/u8x8_d_ssd1306_48x64.c **** {
  92:..\..\..\u8g2\u8g2\csrc/u8x8_d_ssd1306_48x64.c **** U8X8_START_TRANSFER(), /* enable chip, delay is part of the transfer start */
  93:..\..\..\u8g2\u8g2\csrc/u8x8_d_ssd1306_48x64.c **** U8X8_C(0x0a1), /* segment remap a0/a1*/
  94:..\..\..\u8g2\u8g2\csrc/u8x8_d_ssd1306_48x64.c **** U8X8_C(0x0c8), /* c0: scan dir normal, c8: reverse */
  95:..\..\..\u8g2\u8g2\csrc/u8x8_d_ssd1306_48x64.c **** U8X8_END_TRANSFER(), /* disable chip */
  96:..\..\..\u8g2\u8g2\csrc/u8x8_d_ssd1306_48x64.c **** U8X8_END() /* end of sequence */
  97:..\..\..\u8g2\u8g2\csrc/u8x8_d_ssd1306_48x64.c **** };
  98:..\..\..\u8g2\u8g2\csrc/u8x8_d_ssd1306_48x64.c **** 
  99:..\..\..\u8g2\u8g2\csrc/u8x8_d_ssd1306_48x64.c **** static const uint8_t u8x8_d_ssd1306_48x64_flip1_seq[] =
 100:..\..\..\u8g2\u8g2\csrc/u8x8_d_ssd1306_48x64.c **** {
 101:..\..\..\u8g2\u8g2\csrc/u8x8_d_ssd1306_48x64.c **** U8X8_START_TRANSFER(), /* enable chip, delay is part of the transfer start */
 102:..\..\..\u8g2\u8g2\csrc/u8x8_d_ssd1306_48x64.c **** U8X8_C(0x0a0), /* segment remap a0/a1*/
 103:..\..\..\u8g2\u8g2\csrc/u8x8_d_ssd1306_48x64.c **** U8X8_C(0x0c0), /* c0: scan dir normal, c8: reverse */
 104:..\..\..\u8g2\u8g2\csrc/u8x8_d_ssd1306_48x64.c **** U8X8_END_TRANSFER(), /* disable chip */
 105:..\..\..\u8g2\u8g2\csrc/u8x8_d_ssd1306_48x64.c **** U8X8_END() /* end of sequence */
 106:..\..\..\u8g2\u8g2\csrc/u8x8_d_ssd1306_48x64.c **** };
 107:..\..\..\u8g2\u8g2\csrc/u8x8_d_ssd1306_48x64.c **** 
 108:..\..\..\u8g2\u8g2\csrc/u8x8_d_ssd1306_48x64.c **** static uint8_t u8x8_d_ssd1306_48x64_generic(u8x8_t *u8x8, uint8_t msg,
 109:..\..\..\u8g2\u8g2\csrc/u8x8_d_ssd1306_48x64.c ****     uint8_t arg_int, void *arg_ptr)
 110:..\..\..\u8g2\u8g2\csrc/u8x8_d_ssd1306_48x64.c **** {
 111:..\..\..\u8g2\u8g2\csrc/u8x8_d_ssd1306_48x64.c ****   uint8_t x, c;
 112:..\..\..\u8g2\u8g2\csrc/u8x8_d_ssd1306_48x64.c ****   uint8_t *ptr;
 113:..\..\..\u8g2\u8g2\csrc/u8x8_d_ssd1306_48x64.c ****   switch (msg)
 114:..\..\..\u8g2\u8g2\csrc/u8x8_d_ssd1306_48x64.c ****   {
 115:..\..\..\u8g2\u8g2\csrc/u8x8_d_ssd1306_48x64.c ****     /* handled by the calling function
 116:..\..\..\u8g2\u8g2\csrc/u8x8_d_ssd1306_48x64.c ****      case U8X8_MSG_DISPLAY_SETUP_MEMORY:
 117:..\..\..\u8g2\u8g2\csrc/u8x8_d_ssd1306_48x64.c ****      u8x8_d_helper_display_setup_memory(u8x8, &u8x8_ssd1306_48x64_display_info);
 118:..\..\..\u8g2\u8g2\csrc/u8x8_d_ssd1306_48x64.c ****      break;
 119:..\..\..\u8g2\u8g2\csrc/u8x8_d_ssd1306_48x64.c ****      case U8X8_MSG_DISPLAY_INIT:
 120:..\..\..\u8g2\u8g2\csrc/u8x8_d_ssd1306_48x64.c ****      u8x8_d_helper_display_init(u8x8);
 121:..\..\..\u8g2\u8g2\csrc/u8x8_d_ssd1306_48x64.c ****      u8x8_cad_SendSequence(u8x8, u8x8_d_ssd1306_48x64_winstar_init_seq);
 122:..\..\..\u8g2\u8g2\csrc/u8x8_d_ssd1306_48x64.c ****      break;
 123:..\..\..\u8g2\u8g2\csrc/u8x8_d_ssd1306_48x64.c ****      */
 124:..\..\..\u8g2\u8g2\csrc/u8x8_d_ssd1306_48x64.c ****     case U8X8_MSG_DISPLAY_SET_POWER_SAVE:
 125:..\..\..\u8g2\u8g2\csrc/u8x8_d_ssd1306_48x64.c ****       if (arg_int == 0)
 126:..\..\..\u8g2\u8g2\csrc/u8x8_d_ssd1306_48x64.c ****         u8x8_cad_SendSequence(u8x8, u8x8_d_ssd1306_48x64_powersave0_seq);
 127:..\..\..\u8g2\u8g2\csrc/u8x8_d_ssd1306_48x64.c ****       else
 128:..\..\..\u8g2\u8g2\csrc/u8x8_d_ssd1306_48x64.c ****         u8x8_cad_SendSequence(u8x8, u8x8_d_ssd1306_48x64_powersave1_seq);
 129:..\..\..\u8g2\u8g2\csrc/u8x8_d_ssd1306_48x64.c ****       break;
 130:..\..\..\u8g2\u8g2\csrc/u8x8_d_ssd1306_48x64.c ****     case U8X8_MSG_DISPLAY_SET_FLIP_MODE:
 131:..\..\..\u8g2\u8g2\csrc/u8x8_d_ssd1306_48x64.c ****       if (arg_int == 0)
 132:..\..\..\u8g2\u8g2\csrc/u8x8_d_ssd1306_48x64.c ****       {
 133:..\..\..\u8g2\u8g2\csrc/u8x8_d_ssd1306_48x64.c ****         u8x8_cad_SendSequence(u8x8, u8x8_d_ssd1306_48x64_flip0_seq);
 134:..\..\..\u8g2\u8g2\csrc/u8x8_d_ssd1306_48x64.c ****         u8x8->x_offset = u8x8->display_info->default_x_offset;
 135:..\..\..\u8g2\u8g2\csrc/u8x8_d_ssd1306_48x64.c ****       }
 136:..\..\..\u8g2\u8g2\csrc/u8x8_d_ssd1306_48x64.c ****       else
 137:..\..\..\u8g2\u8g2\csrc/u8x8_d_ssd1306_48x64.c ****       {
 138:..\..\..\u8g2\u8g2\csrc/u8x8_d_ssd1306_48x64.c ****         u8x8_cad_SendSequence(u8x8, u8x8_d_ssd1306_48x64_flip1_seq);
 139:..\..\..\u8g2\u8g2\csrc/u8x8_d_ssd1306_48x64.c ****         u8x8->x_offset = u8x8->display_info->flipmode_x_offset;
 140:..\..\..\u8g2\u8g2\csrc/u8x8_d_ssd1306_48x64.c ****       }
 141:..\..\..\u8g2\u8g2\csrc/u8x8_d_ssd1306_48x64.c ****       break;
 142:..\..\..\u8g2\u8g2\csrc/u8x8_d_ssd1306_48x64.c **** #ifdef U8X8_WITH_SET_CONTRAST
 143:..\..\..\u8g2\u8g2\csrc/u8x8_d_ssd1306_48x64.c ****     case U8X8_MSG_DISPLAY_SET_CONTRAST:
 144:..\..\..\u8g2\u8g2\csrc/u8x8_d_ssd1306_48x64.c ****       u8x8_cad_StartTransfer(u8x8);
ARM GAS  C:\Users\jesse\AppData\Local\Temp\cch7cynh.s 			page 4


 145:..\..\..\u8g2\u8g2\csrc/u8x8_d_ssd1306_48x64.c ****       u8x8_cad_SendCmd(u8x8, 0x081);
 146:..\..\..\u8g2\u8g2\csrc/u8x8_d_ssd1306_48x64.c ****       u8x8_cad_SendArg(u8x8, arg_int); /* ssd1306 has range from 0 to 255 */
 147:..\..\..\u8g2\u8g2\csrc/u8x8_d_ssd1306_48x64.c ****       u8x8_cad_EndTransfer(u8x8);
 148:..\..\..\u8g2\u8g2\csrc/u8x8_d_ssd1306_48x64.c ****       break;
 149:..\..\..\u8g2\u8g2\csrc/u8x8_d_ssd1306_48x64.c **** #endif
 150:..\..\..\u8g2\u8g2\csrc/u8x8_d_ssd1306_48x64.c ****     case U8X8_MSG_DISPLAY_DRAW_TILE:
 151:..\..\..\u8g2\u8g2\csrc/u8x8_d_ssd1306_48x64.c ****       u8x8_cad_StartTransfer(u8x8);
 152:..\..\..\u8g2\u8g2\csrc/u8x8_d_ssd1306_48x64.c ****       x = ((u8x8_tile_t *) arg_ptr)->x_pos;
 153:..\..\..\u8g2\u8g2\csrc/u8x8_d_ssd1306_48x64.c ****       x *= 8;
 154:..\..\..\u8g2\u8g2\csrc/u8x8_d_ssd1306_48x64.c ****       x += u8x8->x_offset;
 155:..\..\..\u8g2\u8g2\csrc/u8x8_d_ssd1306_48x64.c ****       u8x8_cad_SendCmd(u8x8, 0x010 | (x >> 4));
 156:..\..\..\u8g2\u8g2\csrc/u8x8_d_ssd1306_48x64.c ****       u8x8_cad_SendCmd(u8x8, 0x000 | ((x & 15)));
 157:..\..\..\u8g2\u8g2\csrc/u8x8_d_ssd1306_48x64.c ****       u8x8_cad_SendCmd(u8x8, 0x0b0 | (((u8x8_tile_t *) arg_ptr)->y_pos));
 158:..\..\..\u8g2\u8g2\csrc/u8x8_d_ssd1306_48x64.c **** 
 159:..\..\..\u8g2\u8g2\csrc/u8x8_d_ssd1306_48x64.c ****       do
 160:..\..\..\u8g2\u8g2\csrc/u8x8_d_ssd1306_48x64.c ****       {
 161:..\..\..\u8g2\u8g2\csrc/u8x8_d_ssd1306_48x64.c ****         c = ((u8x8_tile_t *) arg_ptr)->cnt;
 162:..\..\..\u8g2\u8g2\csrc/u8x8_d_ssd1306_48x64.c ****         ptr = ((u8x8_tile_t *) arg_ptr)->tile_ptr;
 163:..\..\..\u8g2\u8g2\csrc/u8x8_d_ssd1306_48x64.c ****         u8x8_cad_SendData(u8x8, c * 8, ptr); /* note: SendData can not handle more than 255 bytes *
 164:..\..\..\u8g2\u8g2\csrc/u8x8_d_ssd1306_48x64.c ****         arg_int--;
 165:..\..\..\u8g2\u8g2\csrc/u8x8_d_ssd1306_48x64.c ****       } while (arg_int > 0);
 166:..\..\..\u8g2\u8g2\csrc/u8x8_d_ssd1306_48x64.c **** 
 167:..\..\..\u8g2\u8g2\csrc/u8x8_d_ssd1306_48x64.c ****       u8x8_cad_EndTransfer(u8x8);
 168:..\..\..\u8g2\u8g2\csrc/u8x8_d_ssd1306_48x64.c ****       break;
 169:..\..\..\u8g2\u8g2\csrc/u8x8_d_ssd1306_48x64.c ****     default:
 170:..\..\..\u8g2\u8g2\csrc/u8x8_d_ssd1306_48x64.c ****       return 0;
 171:..\..\..\u8g2\u8g2\csrc/u8x8_d_ssd1306_48x64.c ****   }
 172:..\..\..\u8g2\u8g2\csrc/u8x8_d_ssd1306_48x64.c ****   return 1;
 173:..\..\..\u8g2\u8g2\csrc/u8x8_d_ssd1306_48x64.c **** }
 174:..\..\..\u8g2\u8g2\csrc/u8x8_d_ssd1306_48x64.c **** 
 175:..\..\..\u8g2\u8g2\csrc/u8x8_d_ssd1306_48x64.c **** static const u8x8_display_info_t u8x8_ssd1306_48x64_display_info =
 176:..\..\..\u8g2\u8g2\csrc/u8x8_d_ssd1306_48x64.c **** {
 177:..\..\..\u8g2\u8g2\csrc/u8x8_d_ssd1306_48x64.c **** /* chip_enable_level = */0,
 178:..\..\..\u8g2\u8g2\csrc/u8x8_d_ssd1306_48x64.c **** /* chip_disable_level = */1,
 179:..\..\..\u8g2\u8g2\csrc/u8x8_d_ssd1306_48x64.c **** 
 180:..\..\..\u8g2\u8g2\csrc/u8x8_d_ssd1306_48x64.c **** /* post_chip_enable_wait_ns = */20,
 181:..\..\..\u8g2\u8g2\csrc/u8x8_d_ssd1306_48x64.c **** /* pre_chip_disable_wait_ns = */10,
 182:..\..\..\u8g2\u8g2\csrc/u8x8_d_ssd1306_48x64.c **** /* reset_pulse_width_ms = */100, /* SSD1306: 3 us */
 183:..\..\..\u8g2\u8g2\csrc/u8x8_d_ssd1306_48x64.c **** /* post_reset_wait_ms = */100, /* far east OLEDs need much longer setup time */
 184:..\..\..\u8g2\u8g2\csrc/u8x8_d_ssd1306_48x64.c **** /* sda_setup_time_ns = */50, /* SSD1306: 15ns, but cycle time is 100ns, so use 100/2 */
 185:..\..\..\u8g2\u8g2\csrc/u8x8_d_ssd1306_48x64.c **** /* sck_pulse_width_ns = */50, /* SSD1306: 20ns, but cycle time is 100ns, so use 100/2, AVR: below 7
 186:..\..\..\u8g2\u8g2\csrc/u8x8_d_ssd1306_48x64.c **** /* sck_clock_hz = */8000000UL, /* since Arduino 1.6.0, the SPI bus speed in Hz. Should be  10000000
 187:..\..\..\u8g2\u8g2\csrc/u8x8_d_ssd1306_48x64.c **** /* spi_mode = */0, /* active high, rising edge */
 188:..\..\..\u8g2\u8g2\csrc/u8x8_d_ssd1306_48x64.c **** /* i2c_bus_clock_100kHz = */4,
 189:..\..\..\u8g2\u8g2\csrc/u8x8_d_ssd1306_48x64.c **** /* data_setup_time_ns = */40,
 190:..\..\..\u8g2\u8g2\csrc/u8x8_d_ssd1306_48x64.c **** /* write_pulse_width_ns = */150, /* SSD1306: cycle time is 300ns, so use 300/2 = 150 */
 191:..\..\..\u8g2\u8g2\csrc/u8x8_d_ssd1306_48x64.c **** /* tile_width = */6,
 192:..\..\..\u8g2\u8g2\csrc/u8x8_d_ssd1306_48x64.c **** /* tile_height = */8,
 193:..\..\..\u8g2\u8g2\csrc/u8x8_d_ssd1306_48x64.c **** /* default_x_offset = */40,
 194:..\..\..\u8g2\u8g2\csrc/u8x8_d_ssd1306_48x64.c **** /* flipmode_x_offset = */40,
 195:..\..\..\u8g2\u8g2\csrc/u8x8_d_ssd1306_48x64.c **** /* pixel_width = */48,
 196:..\..\..\u8g2\u8g2\csrc/u8x8_d_ssd1306_48x64.c **** /* pixel_height = */64 };
 197:..\..\..\u8g2\u8g2\csrc/u8x8_d_ssd1306_48x64.c **** 
 198:..\..\..\u8g2\u8g2\csrc/u8x8_d_ssd1306_48x64.c **** /* Winstar 0.71" OLED */
 199:..\..\..\u8g2\u8g2\csrc/u8x8_d_ssd1306_48x64.c **** uint8_t u8x8_d_ssd1306_48x64_winstar(u8x8_t *u8x8, uint8_t msg, uint8_t arg_int,
 200:..\..\..\u8g2\u8g2\csrc/u8x8_d_ssd1306_48x64.c ****     void *arg_ptr)
 201:..\..\..\u8g2\u8g2\csrc/u8x8_d_ssd1306_48x64.c **** {
ARM GAS  C:\Users\jesse\AppData\Local\Temp\cch7cynh.s 			page 5


  28              		.loc 1 201 0
  29              		.cfi_startproc
  30              		@ args = 0, pretend = 0, frame = 0
  31              		@ frame_needed = 0, uses_anonymous_args = 0
  32              	.LVL0:
 202:..\..\..\u8g2\u8g2\csrc/u8x8_d_ssd1306_48x64.c ****   if (msg == U8X8_MSG_DISPLAY_SETUP_MEMORY)
  33              		.loc 1 202 0
  34 0000 0929     		cmp	r1, #9
 201:..\..\..\u8g2\u8g2\csrc/u8x8_d_ssd1306_48x64.c ****   if (msg == U8X8_MSG_DISPLAY_SETUP_MEMORY)
  35              		.loc 1 201 0
  36 0002 F8B5     		push	{r3, r4, r5, r6, r7, lr}
  37              		.cfi_def_cfa_offset 24
  38              		.cfi_offset 3, -24
  39              		.cfi_offset 4, -20
  40              		.cfi_offset 5, -16
  41              		.cfi_offset 6, -12
  42              		.cfi_offset 7, -8
  43              		.cfi_offset 14, -4
 201:..\..\..\u8g2\u8g2\csrc/u8x8_d_ssd1306_48x64.c ****   if (msg == U8X8_MSG_DISPLAY_SETUP_MEMORY)
  44              		.loc 1 201 0
  45 0004 0446     		mov	r4, r0
  46 0006 1546     		mov	r5, r2
  47 0008 1F46     		mov	r7, r3
  48              		.loc 1 202 0
  49 000a 03D1     		bne	.L2
 203:..\..\..\u8g2\u8g2\csrc/u8x8_d_ssd1306_48x64.c ****   {
 204:..\..\..\u8g2\u8g2\csrc/u8x8_d_ssd1306_48x64.c ****     u8x8_d_helper_display_setup_memory(u8x8, &u8x8_ssd1306_48x64_display_info);
  50              		.loc 1 204 0
  51 000c 3049     		ldr	r1, .L20
  52              	.LVL1:
  53 000e FFF7FEFF 		bl	u8x8_d_helper_display_setup_memory
  54              	.LVL2:
  55 0012 58E0     		b	.L16
  56              	.LVL3:
  57              	.L2:
 205:..\..\..\u8g2\u8g2\csrc/u8x8_d_ssd1306_48x64.c ****     return 1;
 206:..\..\..\u8g2\u8g2\csrc/u8x8_d_ssd1306_48x64.c ****   }
 207:..\..\..\u8g2\u8g2\csrc/u8x8_d_ssd1306_48x64.c ****   else if (msg == U8X8_MSG_DISPLAY_INIT)
  58              		.loc 1 207 0
  59 0014 0A29     		cmp	r1, #10
  60 0016 03D1     		bne	.L4
 208:..\..\..\u8g2\u8g2\csrc/u8x8_d_ssd1306_48x64.c ****   {
 209:..\..\..\u8g2\u8g2\csrc/u8x8_d_ssd1306_48x64.c ****     u8x8_d_helper_display_init(u8x8);
  61              		.loc 1 209 0
  62 0018 FFF7FEFF 		bl	u8x8_d_helper_display_init
  63              	.LVL4:
 210:..\..\..\u8g2\u8g2\csrc/u8x8_d_ssd1306_48x64.c ****     u8x8_cad_SendSequence(u8x8, u8x8_d_ssd1306_48x64_winstar_init_seq);
  64              		.loc 1 210 0
  65 001c 2D49     		ldr	r1, .L20+4
  66 001e 0BE0     		b	.L18
  67              	.LVL5:
  68              	.L4:
  69              	.LBB4:
  70              	.LBB5:
 113:..\..\..\u8g2\u8g2\csrc/u8x8_d_ssd1306_48x64.c ****   {
  71              		.loc 1 113 0
  72 0020 0B39     		subs	r1, r1, #11
ARM GAS  C:\Users\jesse\AppData\Local\Temp\cch7cynh.s 			page 6


  73              	.LVL6:
  74 0022 0429     		cmp	r1, #4
  75 0024 51D8     		bhi	.L13
  76 0026 DFE801F0 		tbb	[pc, r1]
  77              	.LVL7:
  78              	.L6:
  79 002a 03       		.byte	(.L5-.L6)/2
  80 002b 50       		.byte	(.L13-.L6)/2
  81 002c 0B       		.byte	(.L7-.L6)/2
  82 002d 1A       		.byte	(.L8-.L6)/2
  83 002e 25       		.byte	(.L9-.L6)/2
  84 002f 00       		.p2align 1
  85              	.L5:
 125:..\..\..\u8g2\u8g2\csrc/u8x8_d_ssd1306_48x64.c ****         u8x8_cad_SendSequence(u8x8, u8x8_d_ssd1306_48x64_powersave0_seq);
  86              		.loc 1 125 0
  87 0030 0AB9     		cbnz	r2, .L10
 126:..\..\..\u8g2\u8g2\csrc/u8x8_d_ssd1306_48x64.c ****       else
  88              		.loc 1 126 0
  89 0032 2949     		ldr	r1, .L20+8
  90 0034 00E0     		b	.L18
  91              	.L10:
 128:..\..\..\u8g2\u8g2\csrc/u8x8_d_ssd1306_48x64.c ****       break;
  92              		.loc 1 128 0
  93 0036 2949     		ldr	r1, .L20+12
  94              	.LVL8:
  95              	.L18:
  96 0038 2046     		mov	r0, r4
  97 003a FFF7FEFF 		bl	u8x8_cad_SendSequence
  98              	.LVL9:
  99 003e 42E0     		b	.L16
 100              	.LVL10:
 101              	.L7:
 131:..\..\..\u8g2\u8g2\csrc/u8x8_d_ssd1306_48x64.c ****       {
 102              		.loc 1 131 0
 103 0040 2AB9     		cbnz	r2, .L11
 133:..\..\..\u8g2\u8g2\csrc/u8x8_d_ssd1306_48x64.c ****         u8x8->x_offset = u8x8->display_info->default_x_offset;
 104              		.loc 1 133 0
 105 0042 2749     		ldr	r1, .L20+16
 106 0044 FFF7FEFF 		bl	u8x8_cad_SendSequence
 107              	.LVL11:
 134:..\..\..\u8g2\u8g2\csrc/u8x8_d_ssd1306_48x64.c ****       }
 108              		.loc 1 134 0
 109 0048 2368     		ldr	r3, [r4]
 110 004a 9B7C     		ldrb	r3, [r3, #18]	@ zero_extendqisi2
 111 004c 04E0     		b	.L17
 112              	.LVL12:
 113              	.L11:
 138:..\..\..\u8g2\u8g2\csrc/u8x8_d_ssd1306_48x64.c ****         u8x8->x_offset = u8x8->display_info->flipmode_x_offset;
 114              		.loc 1 138 0
 115 004e 2549     		ldr	r1, .L20+20
 116 0050 FFF7FEFF 		bl	u8x8_cad_SendSequence
 117              	.LVL13:
 139:..\..\..\u8g2\u8g2\csrc/u8x8_d_ssd1306_48x64.c ****       }
 118              		.loc 1 139 0
 119 0054 2368     		ldr	r3, [r4]
 120 0056 DB7C     		ldrb	r3, [r3, #19]	@ zero_extendqisi2
 121              	.L17:
ARM GAS  C:\Users\jesse\AppData\Local\Temp\cch7cynh.s 			page 7


 122 0058 84F82230 		strb	r3, [r4, #34]
 123 005c 33E0     		b	.L16
 124              	.LVL14:
 125              	.L8:
 144:..\..\..\u8g2\u8g2\csrc/u8x8_d_ssd1306_48x64.c ****       u8x8_cad_SendCmd(u8x8, 0x081);
 126              		.loc 1 144 0
 127 005e FFF7FEFF 		bl	u8x8_cad_StartTransfer
 128              	.LVL15:
 145:..\..\..\u8g2\u8g2\csrc/u8x8_d_ssd1306_48x64.c ****       u8x8_cad_SendArg(u8x8, arg_int); /* ssd1306 has range from 0 to 255 */
 129              		.loc 1 145 0
 130 0062 8121     		movs	r1, #129
 131 0064 2046     		mov	r0, r4
 132 0066 FFF7FEFF 		bl	u8x8_cad_SendCmd
 133              	.LVL16:
 146:..\..\..\u8g2\u8g2\csrc/u8x8_d_ssd1306_48x64.c ****       u8x8_cad_EndTransfer(u8x8);
 134              		.loc 1 146 0
 135 006a 2946     		mov	r1, r5
 136 006c 2046     		mov	r0, r4
 137 006e FFF7FEFF 		bl	u8x8_cad_SendArg
 138              	.LVL17:
 139 0072 25E0     		b	.L15
 140              	.LVL18:
 141              	.L9:
 151:..\..\..\u8g2\u8g2\csrc/u8x8_d_ssd1306_48x64.c ****       x = ((u8x8_tile_t *) arg_ptr)->x_pos;
 142              		.loc 1 151 0
 143 0074 FFF7FEFF 		bl	u8x8_cad_StartTransfer
 144              	.LVL19:
 154:..\..\..\u8g2\u8g2\csrc/u8x8_d_ssd1306_48x64.c ****       u8x8_cad_SendCmd(u8x8, 0x010 | (x >> 4));
 145              		.loc 1 154 0
 146 0078 94F82230 		ldrb	r3, [r4, #34]	@ zero_extendqisi2
 152:..\..\..\u8g2\u8g2\csrc/u8x8_d_ssd1306_48x64.c ****       x *= 8;
 147              		.loc 1 152 0
 148 007c 7E79     		ldrb	r6, [r7, #5]	@ zero_extendqisi2
 149              	.LVL20:
 155:..\..\..\u8g2\u8g2\csrc/u8x8_d_ssd1306_48x64.c ****       u8x8_cad_SendCmd(u8x8, 0x000 | ((x & 15)));
 150              		.loc 1 155 0
 151 007e 2046     		mov	r0, r4
 154:..\..\..\u8g2\u8g2\csrc/u8x8_d_ssd1306_48x64.c ****       u8x8_cad_SendCmd(u8x8, 0x010 | (x >> 4));
 152              		.loc 1 154 0
 153 0080 03EBC606 		add	r6, r3, r6, lsl #3
 154              	.LVL21:
 155 0084 06F0FF06 		and	r6, r6, #255
 156              	.LVL22:
 155:..\..\..\u8g2\u8g2\csrc/u8x8_d_ssd1306_48x64.c ****       u8x8_cad_SendCmd(u8x8, 0x000 | ((x & 15)));
 157              		.loc 1 155 0
 158 0088 3109     		lsrs	r1, r6, #4
 159 008a 41F01001 		orr	r1, r1, #16
 160 008e FFF7FEFF 		bl	u8x8_cad_SendCmd
 161              	.LVL23:
 156:..\..\..\u8g2\u8g2\csrc/u8x8_d_ssd1306_48x64.c ****       u8x8_cad_SendCmd(u8x8, 0x0b0 | (((u8x8_tile_t *) arg_ptr)->y_pos));
 162              		.loc 1 156 0
 163 0092 06F00F01 		and	r1, r6, #15
 164 0096 2046     		mov	r0, r4
 165 0098 FFF7FEFF 		bl	u8x8_cad_SendCmd
 166              	.LVL24:
 157:..\..\..\u8g2\u8g2\csrc/u8x8_d_ssd1306_48x64.c **** 
 167              		.loc 1 157 0
ARM GAS  C:\Users\jesse\AppData\Local\Temp\cch7cynh.s 			page 8


 168 009c B979     		ldrb	r1, [r7, #6]	@ zero_extendqisi2
 169 009e 2046     		mov	r0, r4
 170 00a0 41F0B001 		orr	r1, r1, #176
 171 00a4 FFF7FEFF 		bl	u8x8_cad_SendCmd
 172              	.LVL25:
 173              	.L12:
 163:..\..\..\u8g2\u8g2\csrc/u8x8_d_ssd1306_48x64.c ****         arg_int--;
 174              		.loc 1 163 0
 175 00a8 3979     		ldrb	r1, [r7, #4]	@ zero_extendqisi2
 176 00aa 3A68     		ldr	r2, [r7]
 177 00ac C900     		lsls	r1, r1, #3
 178 00ae 01F0F801 		and	r1, r1, #248
 179 00b2 2046     		mov	r0, r4
 164:..\..\..\u8g2\u8g2\csrc/u8x8_d_ssd1306_48x64.c ****       } while (arg_int > 0);
 180              		.loc 1 164 0
 181 00b4 013D     		subs	r5, r5, #1
 182              	.LVL26:
 163:..\..\..\u8g2\u8g2\csrc/u8x8_d_ssd1306_48x64.c ****         arg_int--;
 183              		.loc 1 163 0
 184 00b6 FFF7FEFF 		bl	u8x8_cad_SendData
 185              	.LVL27:
 165:..\..\..\u8g2\u8g2\csrc/u8x8_d_ssd1306_48x64.c **** 
 186              		.loc 1 165 0
 187 00ba 15F0FF05 		ands	r5, r5, #255
 188              	.LVL28:
 189 00be F3D1     		bne	.L12
 190              	.LVL29:
 191              	.L15:
 167:..\..\..\u8g2\u8g2\csrc/u8x8_d_ssd1306_48x64.c ****       break;
 192              		.loc 1 167 0
 193 00c0 2046     		mov	r0, r4
 194 00c2 FFF7FEFF 		bl	u8x8_cad_EndTransfer
 195              	.LVL30:
 196              	.L16:
 172:..\..\..\u8g2\u8g2\csrc/u8x8_d_ssd1306_48x64.c **** }
 197              		.loc 1 172 0
 198 00c6 0120     		movs	r0, #1
 199 00c8 F8BD     		pop	{r3, r4, r5, r6, r7, pc}
 200              	.LVL31:
 201              	.L13:
 170:..\..\..\u8g2\u8g2\csrc/u8x8_d_ssd1306_48x64.c ****   }
 202              		.loc 1 170 0
 203 00ca 0020     		movs	r0, #0
 204              	.LVL32:
 205              	.LBE5:
 206              	.LBE4:
 211:..\..\..\u8g2\u8g2\csrc/u8x8_d_ssd1306_48x64.c ****     return 1;
 212:..\..\..\u8g2\u8g2\csrc/u8x8_d_ssd1306_48x64.c ****   }
 213:..\..\..\u8g2\u8g2\csrc/u8x8_d_ssd1306_48x64.c ****   return u8x8_d_ssd1306_48x64_generic(u8x8, msg, arg_int, arg_ptr);
 214:..\..\..\u8g2\u8g2\csrc/u8x8_d_ssd1306_48x64.c **** }
 207              		.loc 1 214 0
 208 00cc F8BD     		pop	{r3, r4, r5, r6, r7, pc}
 209              	.LVL33:
 210              	.L21:
 211 00ce 00BF     		.align	2
 212              	.L20:
 213 00d0 00000000 		.word	.LANCHOR0
ARM GAS  C:\Users\jesse\AppData\Local\Temp\cch7cynh.s 			page 9


 214 00d4 18000000 		.word	.LANCHOR0+24
 215 00d8 4B000000 		.word	.LANCHOR0+75
 216 00dc 50000000 		.word	.LANCHOR0+80
 217 00e0 55000000 		.word	.LANCHOR0+85
 218 00e4 5C000000 		.word	.LANCHOR0+92
 219              		.cfi_endproc
 220              	.LFE1:
 221              		.size	u8x8_d_ssd1306_48x64_winstar, .-u8x8_d_ssd1306_48x64_winstar
 222              		.section	.rodata
 223              		.align	2
 224              		.set	.LANCHOR0,. + 0
 225              		.type	u8x8_ssd1306_48x64_display_info, %object
 226              		.size	u8x8_ssd1306_48x64_display_info, 24
 227              	u8x8_ssd1306_48x64_display_info:
 228 0000 00       		.byte	0
 229 0001 01       		.byte	1
 230 0002 14       		.byte	20
 231 0003 0A       		.byte	10
 232 0004 64       		.byte	100
 233 0005 64       		.byte	100
 234 0006 32       		.byte	50
 235 0007 32       		.byte	50
 236 0008 00127A00 		.word	8000000
 237 000c 00       		.byte	0
 238 000d 04       		.byte	4
 239 000e 28       		.byte	40
 240 000f 96       		.byte	-106
 241 0010 06       		.byte	6
 242 0011 08       		.byte	8
 243 0012 28       		.byte	40
 244 0013 28       		.byte	40
 245 0014 3000     		.short	48
 246 0016 4000     		.short	64
 247              		.type	u8x8_d_ssd1306_48x64_winstar_init_seq, %object
 248              		.size	u8x8_d_ssd1306_48x64_winstar_init_seq, 51
 249              	u8x8_d_ssd1306_48x64_winstar_init_seq:
 250 0018 18       		.byte	24
 251 0019 15       		.byte	21
 252 001a AE       		.byte	-82
 253 001b 15       		.byte	21
 254 001c D5       		.byte	-43
 255 001d 16       		.byte	22
 256 001e 80       		.byte	-128
 257 001f 15       		.byte	21
 258 0020 A8       		.byte	-88
 259 0021 16       		.byte	22
 260 0022 3F       		.byte	63
 261 0023 15       		.byte	21
 262 0024 D3       		.byte	-45
 263 0025 16       		.byte	22
 264 0026 00       		.byte	0
 265 0027 15       		.byte	21
 266 0028 40       		.byte	64
 267 0029 15       		.byte	21
 268 002a 8D       		.byte	-115
 269 002b 16       		.byte	22
 270 002c 14       		.byte	20
ARM GAS  C:\Users\jesse\AppData\Local\Temp\cch7cynh.s 			page 10


 271 002d 15       		.byte	21
 272 002e 20       		.byte	32
 273 002f 16       		.byte	22
 274 0030 00       		.byte	0
 275 0031 15       		.byte	21
 276 0032 A1       		.byte	-95
 277 0033 15       		.byte	21
 278 0034 C8       		.byte	-56
 279 0035 15       		.byte	21
 280 0036 DA       		.byte	-38
 281 0037 16       		.byte	22
 282 0038 12       		.byte	18
 283 0039 15       		.byte	21
 284 003a 81       		.byte	-127
 285 003b 16       		.byte	22
 286 003c 7F       		.byte	127
 287 003d 15       		.byte	21
 288 003e D9       		.byte	-39
 289 003f 16       		.byte	22
 290 0040 22       		.byte	34
 291 0041 15       		.byte	21
 292 0042 DB       		.byte	-37
 293 0043 16       		.byte	22
 294 0044 40       		.byte	64
 295 0045 15       		.byte	21
 296 0046 A4       		.byte	-92
 297 0047 15       		.byte	21
 298 0048 A6       		.byte	-90
 299 0049 19       		.byte	25
 300 004a FF       		.byte	-1
 301              		.type	u8x8_d_ssd1306_48x64_powersave0_seq, %object
 302              		.size	u8x8_d_ssd1306_48x64_powersave0_seq, 5
 303              	u8x8_d_ssd1306_48x64_powersave0_seq:
 304 004b 18       		.byte	24
 305 004c 15       		.byte	21
 306 004d AF       		.byte	-81
 307 004e 19       		.byte	25
 308 004f FF       		.byte	-1
 309              		.type	u8x8_d_ssd1306_48x64_powersave1_seq, %object
 310              		.size	u8x8_d_ssd1306_48x64_powersave1_seq, 5
 311              	u8x8_d_ssd1306_48x64_powersave1_seq:
 312 0050 18       		.byte	24
 313 0051 15       		.byte	21
 314 0052 AE       		.byte	-82
 315 0053 19       		.byte	25
 316 0054 FF       		.byte	-1
 317              		.type	u8x8_d_ssd1306_48x64_flip0_seq, %object
 318              		.size	u8x8_d_ssd1306_48x64_flip0_seq, 7
 319              	u8x8_d_ssd1306_48x64_flip0_seq:
 320 0055 18       		.byte	24
 321 0056 15       		.byte	21
 322 0057 A1       		.byte	-95
 323 0058 15       		.byte	21
 324 0059 C8       		.byte	-56
 325 005a 19       		.byte	25
 326 005b FF       		.byte	-1
 327              		.type	u8x8_d_ssd1306_48x64_flip1_seq, %object
ARM GAS  C:\Users\jesse\AppData\Local\Temp\cch7cynh.s 			page 11


 328              		.size	u8x8_d_ssd1306_48x64_flip1_seq, 7
 329              	u8x8_d_ssd1306_48x64_flip1_seq:
 330 005c 18       		.byte	24
 331 005d 15       		.byte	21
 332 005e A0       		.byte	-96
 333 005f 15       		.byte	21
 334 0060 C0       		.byte	-64
 335 0061 19       		.byte	25
 336 0062 FF       		.byte	-1
 337              		.text
 338              	.Letext0:
 339              		.file 2 "c:\\program files (x86)\\cypress\\psoc creator\\4.4\\psoc creator\\import\\gnu\\arm\\5.4.
 340              		.file 3 "c:\\program files (x86)\\cypress\\psoc creator\\4.4\\psoc creator\\import\\gnu\\arm\\5.4.
 341              		.file 4 "..\\..\\..\\u8g2\\u8g2\\csrc\\u8x8.h"