ARM GAS  C:\Users\jesse\AppData\Local\Temp\cc2rbJIT.s 			page 1


   1              		.syntax unified
   2              		.cpu cortex-m3
   3              		.fpu softvfp
   4              		.eabi_attribute 20, 1
   5              		.eabi_attribute 21, 1
   6              		.eabi_attribute 23, 3
   7              		.eabi_attribute 24, 1
   8              		.eabi_attribute 25, 1
   9              		.eabi_attribute 26, 1
  10              		.eabi_attribute 30, 4
  11              		.eabi_attribute 34, 1
  12              		.eabi_attribute 18, 4
  13              		.thumb
  14              		.syntax unified
  15              		.file	"u8x8_d_ist7920.c"
  16              		.text
  17              	.Ltext0:
  18              		.cfi_sections	.debug_frame
  19              		.section	.text.u8x8_d_ist7920_128x128,"ax",%progbits
  20              		.align	1
  21              		.global	u8x8_d_ist7920_128x128
  22              		.thumb
  23              		.thumb_func
  24              		.type	u8x8_d_ist7920_128x128, %function
  25              	u8x8_d_ist7920_128x128:
  26              	.LFB0:
  27              		.file 1 "..\\..\\..\\u8g2\\u8g2\\csrc\\u8x8_d_ist7920.c"
   1:..\..\..\u8g2\u8g2\csrc/u8x8_d_ist7920.c **** /*
   2:..\..\..\u8g2\u8g2\csrc/u8x8_d_ist7920.c **** 
   3:..\..\..\u8g2\u8g2\csrc/u8x8_d_ist7920.c ****   u8x8_d_ist7920.c
   4:..\..\..\u8g2\u8g2\csrc/u8x8_d_ist7920.c ****   
   5:..\..\..\u8g2\u8g2\csrc/u8x8_d_ist7920.c ****   this is NOT ST7920!
   6:..\..\..\u8g2\u8g2\csrc/u8x8_d_ist7920.c ****   
   7:..\..\..\u8g2\u8g2\csrc/u8x8_d_ist7920.c ****   Universal 8bit Graphics Library (https://github.com/olikraus/u8g2/)
   8:..\..\..\u8g2\u8g2\csrc/u8x8_d_ist7920.c **** 
   9:..\..\..\u8g2\u8g2\csrc/u8x8_d_ist7920.c ****   Copyright (c) 2019, olikraus@gmail.com
  10:..\..\..\u8g2\u8g2\csrc/u8x8_d_ist7920.c ****   All rights reserved.
  11:..\..\..\u8g2\u8g2\csrc/u8x8_d_ist7920.c **** 
  12:..\..\..\u8g2\u8g2\csrc/u8x8_d_ist7920.c ****   Redistribution and use in source and binary forms, with or without modification, 
  13:..\..\..\u8g2\u8g2\csrc/u8x8_d_ist7920.c ****   are permitted provided that the following conditions are met:
  14:..\..\..\u8g2\u8g2\csrc/u8x8_d_ist7920.c **** 
  15:..\..\..\u8g2\u8g2\csrc/u8x8_d_ist7920.c ****   * Redistributions of source code must retain the above copyright notice, this list 
  16:..\..\..\u8g2\u8g2\csrc/u8x8_d_ist7920.c ****     of conditions and the following disclaimer.
  17:..\..\..\u8g2\u8g2\csrc/u8x8_d_ist7920.c ****     
  18:..\..\..\u8g2\u8g2\csrc/u8x8_d_ist7920.c ****   * Redistributions in binary form must reproduce the above copyright notice, this 
  19:..\..\..\u8g2\u8g2\csrc/u8x8_d_ist7920.c ****     list of conditions and the following disclaimer in the documentation and/or other 
  20:..\..\..\u8g2\u8g2\csrc/u8x8_d_ist7920.c ****     materials provided with the distribution.
  21:..\..\..\u8g2\u8g2\csrc/u8x8_d_ist7920.c **** 
  22:..\..\..\u8g2\u8g2\csrc/u8x8_d_ist7920.c ****   THIS SOFTWARE IS PROVIDED BY THE COPYRIGHT HOLDERS AND 
  23:..\..\..\u8g2\u8g2\csrc/u8x8_d_ist7920.c ****   CONTRIBUTORS "AS IS" AND ANY EXPRESS OR IMPLIED WARRANTIES, 
  24:..\..\..\u8g2\u8g2\csrc/u8x8_d_ist7920.c ****   INCLUDING, BUT NOT LIMITED TO, THE IMPLIED WARRANTIES OF 
  25:..\..\..\u8g2\u8g2\csrc/u8x8_d_ist7920.c ****   MERCHANTABILITY AND FITNESS FOR A PARTICULAR PURPOSE ARE 
  26:..\..\..\u8g2\u8g2\csrc/u8x8_d_ist7920.c ****   DISCLAIMED. IN NO EVENT SHALL THE COPYRIGHT HOLDER OR 
  27:..\..\..\u8g2\u8g2\csrc/u8x8_d_ist7920.c ****   CONTRIBUTORS BE LIABLE FOR ANY DIRECT, INDIRECT, INCIDENTAL, 
  28:..\..\..\u8g2\u8g2\csrc/u8x8_d_ist7920.c ****   SPECIAL, EXEMPLARY, OR CONSEQUENTIAL DAMAGES (INCLUDING, BUT 
  29:..\..\..\u8g2\u8g2\csrc/u8x8_d_ist7920.c ****   NOT LIMITED TO, PROCUREMENT OF SUBSTITUTE GOODS OR SERVICES; 
  30:..\..\..\u8g2\u8g2\csrc/u8x8_d_ist7920.c ****   LOSS OF USE, DATA, OR PROFITS; OR BUSINESS INTERRUPTION) HOWEVER 
ARM GAS  C:\Users\jesse\AppData\Local\Temp\cc2rbJIT.s 			page 2


  31:..\..\..\u8g2\u8g2\csrc/u8x8_d_ist7920.c ****   CAUSED AND ON ANY THEORY OF LIABILITY, WHETHER IN CONTRACT, 
  32:..\..\..\u8g2\u8g2\csrc/u8x8_d_ist7920.c ****   STRICT LIABILITY, OR TORT (INCLUDING NEGLIGENCE OR OTHERWISE) 
  33:..\..\..\u8g2\u8g2\csrc/u8x8_d_ist7920.c ****   ARISING IN ANY WAY OUT OF THE USE OF THIS SOFTWARE, EVEN IF 
  34:..\..\..\u8g2\u8g2\csrc/u8x8_d_ist7920.c ****   ADVISED OF THE POSSIBILITY OF SUCH DAMAGE.  
  35:..\..\..\u8g2\u8g2\csrc/u8x8_d_ist7920.c **** 
  36:..\..\..\u8g2\u8g2\csrc/u8x8_d_ist7920.c ****   
  37:..\..\..\u8g2\u8g2\csrc/u8x8_d_ist7920.c **** */
  38:..\..\..\u8g2\u8g2\csrc/u8x8_d_ist7920.c **** #include "u8x8.h"
  39:..\..\..\u8g2\u8g2\csrc/u8x8_d_ist7920.c **** 
  40:..\..\..\u8g2\u8g2\csrc/u8x8_d_ist7920.c **** 
  41:..\..\..\u8g2\u8g2\csrc/u8x8_d_ist7920.c **** 
  42:..\..\..\u8g2\u8g2\csrc/u8x8_d_ist7920.c **** 
  43:..\..\..\u8g2\u8g2\csrc/u8x8_d_ist7920.c **** static const uint8_t u8x8_d_ist7920_128x128_powersave0_seq[] = {
  44:..\..\..\u8g2\u8g2\csrc/u8x8_d_ist7920.c ****   U8X8_START_TRANSFER(),             	/* enable chip, delay is part of the transfer start */
  45:..\..\..\u8g2\u8g2\csrc/u8x8_d_ist7920.c ****   U8X8_C(0x03d),		                /* display on */
  46:..\..\..\u8g2\u8g2\csrc/u8x8_d_ist7920.c ****   U8X8_END_TRANSFER(),             	/* disable chip */
  47:..\..\..\u8g2\u8g2\csrc/u8x8_d_ist7920.c ****   U8X8_END()             			/* end of sequence */
  48:..\..\..\u8g2\u8g2\csrc/u8x8_d_ist7920.c **** };
  49:..\..\..\u8g2\u8g2\csrc/u8x8_d_ist7920.c **** 
  50:..\..\..\u8g2\u8g2\csrc/u8x8_d_ist7920.c **** static const uint8_t u8x8_d_ist7920_128x128_powersave1_seq[] = {
  51:..\..\..\u8g2\u8g2\csrc/u8x8_d_ist7920.c ****   U8X8_START_TRANSFER(),             	/* enable chip, delay is part of the transfer start */
  52:..\..\..\u8g2\u8g2\csrc/u8x8_d_ist7920.c ****   U8X8_C(0x03c),		                /* display off */
  53:..\..\..\u8g2\u8g2\csrc/u8x8_d_ist7920.c ****   U8X8_END_TRANSFER(),             	/* disable chip */
  54:..\..\..\u8g2\u8g2\csrc/u8x8_d_ist7920.c ****   U8X8_END()             			/* end of sequence */
  55:..\..\..\u8g2\u8g2\csrc/u8x8_d_ist7920.c **** };
  56:..\..\..\u8g2\u8g2\csrc/u8x8_d_ist7920.c **** 
  57:..\..\..\u8g2\u8g2\csrc/u8x8_d_ist7920.c **** static const uint8_t u8x8_d_ist7920_128x128_flip0_seq[] = {
  58:..\..\..\u8g2\u8g2\csrc/u8x8_d_ist7920.c ****   U8X8_START_TRANSFER(),             	/* enable chip, delay is part of the transfer start */
  59:..\..\..\u8g2\u8g2\csrc/u8x8_d_ist7920.c ****   U8X8_C(0x064),				/* Display Ctrl: Bit3: SHL 2:ADC 1:EON, 0:REV */
  60:..\..\..\u8g2\u8g2\csrc/u8x8_d_ist7920.c ****   U8X8_END_TRANSFER(),             	/* disable chip */
  61:..\..\..\u8g2\u8g2\csrc/u8x8_d_ist7920.c ****   U8X8_END()             			/* end of sequence */
  62:..\..\..\u8g2\u8g2\csrc/u8x8_d_ist7920.c **** };
  63:..\..\..\u8g2\u8g2\csrc/u8x8_d_ist7920.c **** 
  64:..\..\..\u8g2\u8g2\csrc/u8x8_d_ist7920.c **** static const uint8_t u8x8_d_ist7920_128x128_flip1_seq[] = {
  65:..\..\..\u8g2\u8g2\csrc/u8x8_d_ist7920.c ****   U8X8_START_TRANSFER(),             	/* enable chip, delay is part of the transfer start */
  66:..\..\..\u8g2\u8g2\csrc/u8x8_d_ist7920.c ****   U8X8_C(0x068),				/* Display Ctrl: Bit3: SHL 2:ADC 1:EON, 0:REV */
  67:..\..\..\u8g2\u8g2\csrc/u8x8_d_ist7920.c ****   U8X8_END_TRANSFER(),             	/* disable chip */
  68:..\..\..\u8g2\u8g2\csrc/u8x8_d_ist7920.c ****   U8X8_END()             			/* end of sequence */
  69:..\..\..\u8g2\u8g2\csrc/u8x8_d_ist7920.c **** };
  70:..\..\..\u8g2\u8g2\csrc/u8x8_d_ist7920.c **** 
  71:..\..\..\u8g2\u8g2\csrc/u8x8_d_ist7920.c **** 
  72:..\..\..\u8g2\u8g2\csrc/u8x8_d_ist7920.c **** static const u8x8_display_info_t u8x8_ist7920_128x128_display_info =
  73:..\..\..\u8g2\u8g2\csrc/u8x8_d_ist7920.c **** {
  74:..\..\..\u8g2\u8g2\csrc/u8x8_d_ist7920.c ****   /* chip_enable_level = */ 0,
  75:..\..\..\u8g2\u8g2\csrc/u8x8_d_ist7920.c ****   /* chip_disable_level = */ 1,
  76:..\..\..\u8g2\u8g2\csrc/u8x8_d_ist7920.c ****   
  77:..\..\..\u8g2\u8g2\csrc/u8x8_d_ist7920.c ****   /* post_chip_enable_wait_ns = */ 90,	/* IST7920 datasheet, page 48 */
  78:..\..\..\u8g2\u8g2\csrc/u8x8_d_ist7920.c ****   /* pre_chip_disable_wait_ns = */ 90,	/* IST7920 datasheet, page 48 */
  79:..\..\..\u8g2\u8g2\csrc/u8x8_d_ist7920.c ****   /* reset_pulse_width_ms = */ 10,		 
  80:..\..\..\u8g2\u8g2\csrc/u8x8_d_ist7920.c ****   /* post_reset_wait_ms = */ 20, 		/* IST7920 Startup Seq.. */
  81:..\..\..\u8g2\u8g2\csrc/u8x8_d_ist7920.c ****   /* sda_setup_time_ns = */ 45,		/* IST7920 datasheet, page 48 */
  82:..\..\..\u8g2\u8g2\csrc/u8x8_d_ist7920.c ****   /* sck_pulse_width_ns = */ 130,	/* IST7920 datasheet, page 48 */
  83:..\..\..\u8g2\u8g2\csrc/u8x8_d_ist7920.c ****   /* sck_clock_hz = */ 3000000UL,	/* IST7920 datasheet: 260ns */
  84:..\..\..\u8g2\u8g2\csrc/u8x8_d_ist7920.c ****   /* spi_mode = */ 0,		/* active high, rising edge (not verified) */
  85:..\..\..\u8g2\u8g2\csrc/u8x8_d_ist7920.c ****   /* i2c_bus_clock_100kHz = */ 4,	/* 400kHz according to IST7920 datasheet */
  86:..\..\..\u8g2\u8g2\csrc/u8x8_d_ist7920.c ****   /* data_setup_time_ns = */ 60,	/* IST7920 datasheet, page 47 */
  87:..\..\..\u8g2\u8g2\csrc/u8x8_d_ist7920.c ****   /* write_pulse_width_ns = */ 150,	/* IST7920 datasheet, page 47 */
ARM GAS  C:\Users\jesse\AppData\Local\Temp\cc2rbJIT.s 			page 3


  88:..\..\..\u8g2\u8g2\csrc/u8x8_d_ist7920.c ****   /* tile_width = */ 16,		/* width of 16*8=128 pixel */
  89:..\..\..\u8g2\u8g2\csrc/u8x8_d_ist7920.c ****   /* tile_hight = */ 16,
  90:..\..\..\u8g2\u8g2\csrc/u8x8_d_ist7920.c ****   /* default_x_offset = */ 0,
  91:..\..\..\u8g2\u8g2\csrc/u8x8_d_ist7920.c ****   /* flipmode_x_offset = */ 0,
  92:..\..\..\u8g2\u8g2\csrc/u8x8_d_ist7920.c ****   /* pixel_width = */ 128,
  93:..\..\..\u8g2\u8g2\csrc/u8x8_d_ist7920.c ****   /* pixel_height = */ 128
  94:..\..\..\u8g2\u8g2\csrc/u8x8_d_ist7920.c **** };
  95:..\..\..\u8g2\u8g2\csrc/u8x8_d_ist7920.c **** 
  96:..\..\..\u8g2\u8g2\csrc/u8x8_d_ist7920.c **** /* 1/128 Duty, 1/10 Bias, 128x128 round display */
  97:..\..\..\u8g2\u8g2\csrc/u8x8_d_ist7920.c **** static const uint8_t u8x8_d_ist7920_128x128_init_seq[] = {
  98:..\..\..\u8g2\u8g2\csrc/u8x8_d_ist7920.c ****     
  99:..\..\..\u8g2\u8g2\csrc/u8x8_d_ist7920.c ****   U8X8_START_TRANSFER(),             	/* enable chip, delay is part of the transfer start */
 100:..\..\..\u8g2\u8g2\csrc/u8x8_d_ist7920.c **** 
 101:..\..\..\u8g2\u8g2\csrc/u8x8_d_ist7920.c ****   U8X8_C(0x076),				/* Software Reset */
 102:..\..\..\u8g2\u8g2\csrc/u8x8_d_ist7920.c ****   U8X8_DLY(50),
 103:..\..\..\u8g2\u8g2\csrc/u8x8_d_ist7920.c ****   U8X8_C(0x03c),				/* display off */
 104:..\..\..\u8g2\u8g2\csrc/u8x8_d_ist7920.c ****   
 105:..\..\..\u8g2\u8g2\csrc/u8x8_d_ist7920.c ****   
 106:..\..\..\u8g2\u8g2\csrc/u8x8_d_ist7920.c ****   U8X8_CA(0x090, 128),			/* Set Duty */
 107:..\..\..\u8g2\u8g2\csrc/u8x8_d_ist7920.c ****   //U8X8_CAA(0x0b2, 0x011, 0x00),	/* Set Frame Control */  
 108:..\..\..\u8g2\u8g2\csrc/u8x8_d_ist7920.c **** 
 109:..\..\..\u8g2\u8g2\csrc/u8x8_d_ist7920.c ****   U8X8_CA(0x030, 16),			/* Set Bias 0: 1/8, 8: 1/9, 16: 1/10, 24: 1/11, 48: 1/12 ... */  
 110:..\..\..\u8g2\u8g2\csrc/u8x8_d_ist7920.c ****   U8X8_CA(0x031, 0x03f),		/* Set voltage generate clock(31H/11H) */  
 111:..\..\..\u8g2\u8g2\csrc/u8x8_d_ist7920.c ****   //U8X8_CA(0x032, 0x015),		/* Temperature compensation */  
 112:..\..\..\u8g2\u8g2\csrc/u8x8_d_ist7920.c ****   U8X8_CA(0x033, 0x020),		/* Power Control */
 113:..\..\..\u8g2\u8g2\csrc/u8x8_d_ist7920.c ****   U8X8_DLY(100),
 114:..\..\..\u8g2\u8g2\csrc/u8x8_d_ist7920.c ****   U8X8_CA(0x033, 0x02c),		/* Power Control */
 115:..\..\..\u8g2\u8g2\csrc/u8x8_d_ist7920.c ****   U8X8_DLY(100),
 116:..\..\..\u8g2\u8g2\csrc/u8x8_d_ist7920.c ****   U8X8_C(0xfd),				/* set booster */
 117:..\..\..\u8g2\u8g2\csrc/u8x8_d_ist7920.c ****   U8X8_DLY(100),
 118:..\..\..\u8g2\u8g2\csrc/u8x8_d_ist7920.c ****   U8X8_CA(0x033, 0x02f),		/* Power Control */
 119:..\..\..\u8g2\u8g2\csrc/u8x8_d_ist7920.c ****   U8X8_DLY(200),
 120:..\..\..\u8g2\u8g2\csrc/u8x8_d_ist7920.c ****   
 121:..\..\..\u8g2\u8g2\csrc/u8x8_d_ist7920.c ****   U8X8_C(0x064),				/* Display Ctrl: Bit3: SHL 2:ADC 1:EON, 0:REV */
 122:..\..\..\u8g2\u8g2\csrc/u8x8_d_ist7920.c **** 
 123:..\..\..\u8g2\u8g2\csrc/u8x8_d_ist7920.c ****   U8X8_CAA(0x074, 0x000, 0x00f),	/* AY Window */  
 124:..\..\..\u8g2\u8g2\csrc/u8x8_d_ist7920.c ****   U8X8_CAA(0x075, 0x000, 0x07f),	/* AX Window */  
 125:..\..\..\u8g2\u8g2\csrc/u8x8_d_ist7920.c ****   
 126:..\..\..\u8g2\u8g2\csrc/u8x8_d_ist7920.c ****   U8X8_CA(0x040, 64),			/* Start line at 64 */
 127:..\..\..\u8g2\u8g2\csrc/u8x8_d_ist7920.c **** 
 128:..\..\..\u8g2\u8g2\csrc/u8x8_d_ist7920.c ****   U8X8_CA(0x0b1, 100),			/* electronic volume */  
 129:..\..\..\u8g2\u8g2\csrc/u8x8_d_ist7920.c **** 
 130:..\..\..\u8g2\u8g2\csrc/u8x8_d_ist7920.c **** 
 131:..\..\..\u8g2\u8g2\csrc/u8x8_d_ist7920.c ****   U8X8_END_TRANSFER(),             	/* disable chip */
 132:..\..\..\u8g2\u8g2\csrc/u8x8_d_ist7920.c ****   U8X8_END()             			/* end of sequence */
 133:..\..\..\u8g2\u8g2\csrc/u8x8_d_ist7920.c **** };
 134:..\..\..\u8g2\u8g2\csrc/u8x8_d_ist7920.c **** 
 135:..\..\..\u8g2\u8g2\csrc/u8x8_d_ist7920.c **** uint8_t u8x8_d_ist7920_128x128(u8x8_t *u8x8, uint8_t msg, uint8_t arg_int, void *arg_ptr)
 136:..\..\..\u8g2\u8g2\csrc/u8x8_d_ist7920.c **** {
  28              		.loc 1 136 0
  29              		.cfi_startproc
  30              		@ args = 0, pretend = 0, frame = 0
  31              		@ frame_needed = 0, uses_anonymous_args = 0
  32              	.LVL0:
 137:..\..\..\u8g2\u8g2\csrc/u8x8_d_ist7920.c ****   uint8_t x, c;
 138:..\..\..\u8g2\u8g2\csrc/u8x8_d_ist7920.c ****   uint8_t *ptr;
 139:..\..\..\u8g2\u8g2\csrc/u8x8_d_ist7920.c ****   switch(msg)
ARM GAS  C:\Users\jesse\AppData\Local\Temp\cc2rbJIT.s 			page 4


  33              		.loc 1 139 0
  34 0000 0939     		subs	r1, r1, #9
  35              	.LVL1:
 136:..\..\..\u8g2\u8g2\csrc/u8x8_d_ist7920.c ****   uint8_t x, c;
  36              		.loc 1 136 0
  37 0002 F8B5     		push	{r3, r4, r5, r6, r7, lr}
  38              		.cfi_def_cfa_offset 24
  39              		.cfi_offset 3, -24
  40              		.cfi_offset 4, -20
  41              		.cfi_offset 5, -16
  42              		.cfi_offset 6, -12
  43              		.cfi_offset 7, -8
  44              		.cfi_offset 14, -4
 136:..\..\..\u8g2\u8g2\csrc/u8x8_d_ist7920.c ****   uint8_t x, c;
  45              		.loc 1 136 0
  46 0004 0446     		mov	r4, r0
  47 0006 1546     		mov	r5, r2
  48 0008 1F46     		mov	r7, r3
  49              		.loc 1 139 0
  50 000a 0629     		cmp	r1, #6
  51 000c 5AD8     		bhi	.L13
  52 000e DFE801F0 		tbb	[pc, r1]
  53              	.LVL2:
  54              	.L4:
  55 0012 04       		.byte	(.L3-.L4)/2
  56 0013 08       		.byte	(.L5-.L4)/2
  57 0014 0C       		.byte	(.L6-.L4)/2
  58 0015 59       		.byte	(.L13-.L4)/2
  59 0016 14       		.byte	(.L7-.L4)/2
  60 0017 23       		.byte	(.L8-.L4)/2
  61 0018 32       		.byte	(.L9-.L4)/2
  62 0019 00       		.p2align 1
  63              	.L3:
 140:..\..\..\u8g2\u8g2\csrc/u8x8_d_ist7920.c ****   {
 141:..\..\..\u8g2\u8g2\csrc/u8x8_d_ist7920.c ****     case U8X8_MSG_DISPLAY_SETUP_MEMORY:
 142:..\..\..\u8g2\u8g2\csrc/u8x8_d_ist7920.c ****       u8x8_d_helper_display_setup_memory(u8x8, &u8x8_ist7920_128x128_display_info);
  64              		.loc 1 142 0
  65 001a 2B49     		ldr	r1, .L20
  66 001c FFF7FEFF 		bl	u8x8_d_helper_display_setup_memory
  67              	.LVL3:
  68 0020 27E0     		b	.L15
  69              	.LVL4:
  70              	.L5:
 143:..\..\..\u8g2\u8g2\csrc/u8x8_d_ist7920.c ****       break;
 144:..\..\..\u8g2\u8g2\csrc/u8x8_d_ist7920.c ****     case U8X8_MSG_DISPLAY_INIT:
 145:..\..\..\u8g2\u8g2\csrc/u8x8_d_ist7920.c ****       u8x8_d_helper_display_init(u8x8);
  71              		.loc 1 145 0
  72 0022 FFF7FEFF 		bl	u8x8_d_helper_display_init
  73              	.LVL5:
 146:..\..\..\u8g2\u8g2\csrc/u8x8_d_ist7920.c ****       u8x8_cad_SendSequence(u8x8, u8x8_d_ist7920_128x128_init_seq);
  74              		.loc 1 146 0
  75 0026 2949     		ldr	r1, .L20+4
  76 0028 03E0     		b	.L18
  77              	.LVL6:
  78              	.L6:
 147:..\..\..\u8g2\u8g2\csrc/u8x8_d_ist7920.c ****       break;
 148:..\..\..\u8g2\u8g2\csrc/u8x8_d_ist7920.c ****     case U8X8_MSG_DISPLAY_SET_POWER_SAVE:
ARM GAS  C:\Users\jesse\AppData\Local\Temp\cc2rbJIT.s 			page 5


 149:..\..\..\u8g2\u8g2\csrc/u8x8_d_ist7920.c ****       if ( arg_int == 0 )
  79              		.loc 1 149 0
  80 002a 0AB9     		cbnz	r2, .L10
 150:..\..\..\u8g2\u8g2\csrc/u8x8_d_ist7920.c **** 	u8x8_cad_SendSequence(u8x8, u8x8_d_ist7920_128x128_powersave0_seq);
  81              		.loc 1 150 0
  82 002c 2849     		ldr	r1, .L20+8
  83 002e 00E0     		b	.L18
  84              	.L10:
 151:..\..\..\u8g2\u8g2\csrc/u8x8_d_ist7920.c ****       else
 152:..\..\..\u8g2\u8g2\csrc/u8x8_d_ist7920.c **** 	u8x8_cad_SendSequence(u8x8, u8x8_d_ist7920_128x128_powersave1_seq);
  85              		.loc 1 152 0
  86 0030 2849     		ldr	r1, .L20+12
  87              	.LVL7:
  88              	.L18:
  89 0032 2046     		mov	r0, r4
  90 0034 FFF7FEFF 		bl	u8x8_cad_SendSequence
  91              	.LVL8:
  92 0038 1BE0     		b	.L15
  93              	.LVL9:
  94              	.L7:
 153:..\..\..\u8g2\u8g2\csrc/u8x8_d_ist7920.c ****       break;
 154:..\..\..\u8g2\u8g2\csrc/u8x8_d_ist7920.c ****     case U8X8_MSG_DISPLAY_SET_FLIP_MODE:
 155:..\..\..\u8g2\u8g2\csrc/u8x8_d_ist7920.c ****       if ( arg_int == 0 )
  95              		.loc 1 155 0
  96 003a 2AB9     		cbnz	r2, .L11
 156:..\..\..\u8g2\u8g2\csrc/u8x8_d_ist7920.c ****       {
 157:..\..\..\u8g2\u8g2\csrc/u8x8_d_ist7920.c **** 	u8x8_cad_SendSequence(u8x8, u8x8_d_ist7920_128x128_flip0_seq);
  97              		.loc 1 157 0
  98 003c 2649     		ldr	r1, .L20+16
  99 003e FFF7FEFF 		bl	u8x8_cad_SendSequence
 100              	.LVL10:
 158:..\..\..\u8g2\u8g2\csrc/u8x8_d_ist7920.c **** 	u8x8->x_offset = u8x8->display_info->default_x_offset;
 101              		.loc 1 158 0
 102 0042 2368     		ldr	r3, [r4]
 103 0044 9B7C     		ldrb	r3, [r3, #18]	@ zero_extendqisi2
 104 0046 04E0     		b	.L17
 105              	.LVL11:
 106              	.L11:
 159:..\..\..\u8g2\u8g2\csrc/u8x8_d_ist7920.c ****       }
 160:..\..\..\u8g2\u8g2\csrc/u8x8_d_ist7920.c ****       else
 161:..\..\..\u8g2\u8g2\csrc/u8x8_d_ist7920.c ****       {
 162:..\..\..\u8g2\u8g2\csrc/u8x8_d_ist7920.c **** 	u8x8_cad_SendSequence(u8x8, u8x8_d_ist7920_128x128_flip1_seq);
 107              		.loc 1 162 0
 108 0048 2449     		ldr	r1, .L20+20
 109 004a FFF7FEFF 		bl	u8x8_cad_SendSequence
 110              	.LVL12:
 163:..\..\..\u8g2\u8g2\csrc/u8x8_d_ist7920.c **** 	u8x8->x_offset = u8x8->display_info->flipmode_x_offset;
 111              		.loc 1 163 0
 112 004e 2368     		ldr	r3, [r4]
 113 0050 DB7C     		ldrb	r3, [r3, #19]	@ zero_extendqisi2
 114              	.L17:
 115 0052 84F82230 		strb	r3, [r4, #34]
 116 0056 0CE0     		b	.L15
 117              	.LVL13:
 118              	.L8:
 164:..\..\..\u8g2\u8g2\csrc/u8x8_d_ist7920.c ****       }	
 165:..\..\..\u8g2\u8g2\csrc/u8x8_d_ist7920.c ****       break;
ARM GAS  C:\Users\jesse\AppData\Local\Temp\cc2rbJIT.s 			page 6


 166:..\..\..\u8g2\u8g2\csrc/u8x8_d_ist7920.c **** #ifdef U8X8_WITH_SET_CONTRAST
 167:..\..\..\u8g2\u8g2\csrc/u8x8_d_ist7920.c ****     case U8X8_MSG_DISPLAY_SET_CONTRAST:
 168:..\..\..\u8g2\u8g2\csrc/u8x8_d_ist7920.c ****       u8x8_cad_StartTransfer(u8x8);
 119              		.loc 1 168 0
 120 0058 FFF7FEFF 		bl	u8x8_cad_StartTransfer
 121              	.LVL14:
 169:..\..\..\u8g2\u8g2\csrc/u8x8_d_ist7920.c ****       u8x8_cad_SendCmd(u8x8, 0x0b1 );
 122              		.loc 1 169 0
 123 005c B121     		movs	r1, #177
 124 005e 2046     		mov	r0, r4
 125 0060 FFF7FEFF 		bl	u8x8_cad_SendCmd
 126              	.LVL15:
 170:..\..\..\u8g2\u8g2\csrc/u8x8_d_ist7920.c ****       u8x8_cad_SendArg(u8x8, arg_int );	/* st7920 has range from 0 to 255 */
 127              		.loc 1 170 0
 128 0064 2946     		mov	r1, r5
 129 0066 2046     		mov	r0, r4
 130 0068 FFF7FEFF 		bl	u8x8_cad_SendArg
 131              	.LVL16:
 132              	.L16:
 171:..\..\..\u8g2\u8g2\csrc/u8x8_d_ist7920.c ****       u8x8_cad_EndTransfer(u8x8);
 133              		.loc 1 171 0
 134 006c 2046     		mov	r0, r4
 135 006e FFF7FEFF 		bl	u8x8_cad_EndTransfer
 136              	.LVL17:
 137              	.L15:
 172:..\..\..\u8g2\u8g2\csrc/u8x8_d_ist7920.c ****       break;
 173:..\..\..\u8g2\u8g2\csrc/u8x8_d_ist7920.c **** #endif
 174:..\..\..\u8g2\u8g2\csrc/u8x8_d_ist7920.c ****     case U8X8_MSG_DISPLAY_DRAW_TILE:
 175:..\..\..\u8g2\u8g2\csrc/u8x8_d_ist7920.c ****       u8x8_cad_StartTransfer(u8x8);
 176:..\..\..\u8g2\u8g2\csrc/u8x8_d_ist7920.c ****     
 177:..\..\..\u8g2\u8g2\csrc/u8x8_d_ist7920.c ****       x = ((u8x8_tile_t *)arg_ptr)->x_pos;
 178:..\..\..\u8g2\u8g2\csrc/u8x8_d_ist7920.c ****       x *= 8;
 179:..\..\..\u8g2\u8g2\csrc/u8x8_d_ist7920.c ****       x += u8x8->x_offset;
 180:..\..\..\u8g2\u8g2\csrc/u8x8_d_ist7920.c ****       u8x8_cad_SendCmd(u8x8, 0x0c0 );
 181:..\..\..\u8g2\u8g2\csrc/u8x8_d_ist7920.c ****       u8x8_cad_SendArg(u8x8, x );
 182:..\..\..\u8g2\u8g2\csrc/u8x8_d_ist7920.c ****       u8x8_cad_SendCmd(u8x8, 0x001 );
 183:..\..\..\u8g2\u8g2\csrc/u8x8_d_ist7920.c ****       u8x8_cad_SendArg(u8x8, (((u8x8_tile_t *)arg_ptr)->y_pos) );
 184:..\..\..\u8g2\u8g2\csrc/u8x8_d_ist7920.c ****     
 185:..\..\..\u8g2\u8g2\csrc/u8x8_d_ist7920.c ****       c = ((u8x8_tile_t *)arg_ptr)->cnt;
 186:..\..\..\u8g2\u8g2\csrc/u8x8_d_ist7920.c ****       c *= 8;
 187:..\..\..\u8g2\u8g2\csrc/u8x8_d_ist7920.c ****       ptr = ((u8x8_tile_t *)arg_ptr)->tile_ptr;
 188:..\..\..\u8g2\u8g2\csrc/u8x8_d_ist7920.c ****       do
 189:..\..\..\u8g2\u8g2\csrc/u8x8_d_ist7920.c ****       {
 190:..\..\..\u8g2\u8g2\csrc/u8x8_d_ist7920.c **** 	u8x8_cad_SendData(u8x8, c, ptr);	/* note: SendData can not handle more than 255 bytes */
 191:..\..\..\u8g2\u8g2\csrc/u8x8_d_ist7920.c **** 	arg_int--;
 192:..\..\..\u8g2\u8g2\csrc/u8x8_d_ist7920.c ****       } while( arg_int > 0 );
 193:..\..\..\u8g2\u8g2\csrc/u8x8_d_ist7920.c ****       
 194:..\..\..\u8g2\u8g2\csrc/u8x8_d_ist7920.c ****       u8x8_cad_EndTransfer(u8x8);
 195:..\..\..\u8g2\u8g2\csrc/u8x8_d_ist7920.c ****       break;
 196:..\..\..\u8g2\u8g2\csrc/u8x8_d_ist7920.c ****     default:
 197:..\..\..\u8g2\u8g2\csrc/u8x8_d_ist7920.c ****       return 0;
 198:..\..\..\u8g2\u8g2\csrc/u8x8_d_ist7920.c ****   }
 199:..\..\..\u8g2\u8g2\csrc/u8x8_d_ist7920.c ****   return 1;
 138              		.loc 1 199 0
 139 0072 0120     		movs	r0, #1
 172:..\..\..\u8g2\u8g2\csrc/u8x8_d_ist7920.c ****       break;
 140              		.loc 1 172 0
ARM GAS  C:\Users\jesse\AppData\Local\Temp\cc2rbJIT.s 			page 7


 141 0074 F8BD     		pop	{r3, r4, r5, r6, r7, pc}
 142              	.LVL18:
 143              	.L9:
 175:..\..\..\u8g2\u8g2\csrc/u8x8_d_ist7920.c ****     
 144              		.loc 1 175 0
 145 0076 FFF7FEFF 		bl	u8x8_cad_StartTransfer
 146              	.LVL19:
 179:..\..\..\u8g2\u8g2\csrc/u8x8_d_ist7920.c ****       u8x8_cad_SendCmd(u8x8, 0x0c0 );
 147              		.loc 1 179 0
 148 007a 94F82230 		ldrb	r3, [r4, #34]	@ zero_extendqisi2
 177:..\..\..\u8g2\u8g2\csrc/u8x8_d_ist7920.c ****       x *= 8;
 149              		.loc 1 177 0
 150 007e 7E79     		ldrb	r6, [r7, #5]	@ zero_extendqisi2
 151              	.LVL20:
 180:..\..\..\u8g2\u8g2\csrc/u8x8_d_ist7920.c ****       u8x8_cad_SendArg(u8x8, x );
 152              		.loc 1 180 0
 153 0080 C021     		movs	r1, #192
 179:..\..\..\u8g2\u8g2\csrc/u8x8_d_ist7920.c ****       u8x8_cad_SendCmd(u8x8, 0x0c0 );
 154              		.loc 1 179 0
 155 0082 03EBC606 		add	r6, r3, r6, lsl #3
 156              	.LVL21:
 157 0086 06F0FF06 		and	r6, r6, #255
 158              	.LVL22:
 180:..\..\..\u8g2\u8g2\csrc/u8x8_d_ist7920.c ****       u8x8_cad_SendArg(u8x8, x );
 159              		.loc 1 180 0
 160 008a 2046     		mov	r0, r4
 161 008c FFF7FEFF 		bl	u8x8_cad_SendCmd
 162              	.LVL23:
 181:..\..\..\u8g2\u8g2\csrc/u8x8_d_ist7920.c ****       u8x8_cad_SendCmd(u8x8, 0x001 );
 163              		.loc 1 181 0
 164 0090 3146     		mov	r1, r6
 165 0092 2046     		mov	r0, r4
 166 0094 FFF7FEFF 		bl	u8x8_cad_SendArg
 167              	.LVL24:
 182:..\..\..\u8g2\u8g2\csrc/u8x8_d_ist7920.c ****       u8x8_cad_SendArg(u8x8, (((u8x8_tile_t *)arg_ptr)->y_pos) );
 168              		.loc 1 182 0
 169 0098 0121     		movs	r1, #1
 170 009a 2046     		mov	r0, r4
 171 009c FFF7FEFF 		bl	u8x8_cad_SendCmd
 172              	.LVL25:
 183:..\..\..\u8g2\u8g2\csrc/u8x8_d_ist7920.c ****     
 173              		.loc 1 183 0
 174 00a0 B979     		ldrb	r1, [r7, #6]	@ zero_extendqisi2
 175 00a2 2046     		mov	r0, r4
 176 00a4 FFF7FEFF 		bl	u8x8_cad_SendArg
 177              	.LVL26:
 185:..\..\..\u8g2\u8g2\csrc/u8x8_d_ist7920.c ****       c *= 8;
 178              		.loc 1 185 0
 179 00a8 3E79     		ldrb	r6, [r7, #4]	@ zero_extendqisi2
 180              	.LVL27:
 187:..\..\..\u8g2\u8g2\csrc/u8x8_d_ist7920.c ****       do
 181              		.loc 1 187 0
 182 00aa 3F68     		ldr	r7, [r7]
 183              	.LVL28:
 186:..\..\..\u8g2\u8g2\csrc/u8x8_d_ist7920.c ****       ptr = ((u8x8_tile_t *)arg_ptr)->tile_ptr;
 184              		.loc 1 186 0
 185 00ac F600     		lsls	r6, r6, #3
ARM GAS  C:\Users\jesse\AppData\Local\Temp\cc2rbJIT.s 			page 8


 186              	.LVL29:
 187 00ae F6B2     		uxtb	r6, r6
 188              	.LVL30:
 189              	.L12:
 190:..\..\..\u8g2\u8g2\csrc/u8x8_d_ist7920.c **** 	arg_int--;
 190              		.loc 1 190 0 discriminator 1
 191 00b0 3A46     		mov	r2, r7
 192 00b2 3146     		mov	r1, r6
 193 00b4 2046     		mov	r0, r4
 191:..\..\..\u8g2\u8g2\csrc/u8x8_d_ist7920.c ****       } while( arg_int > 0 );
 194              		.loc 1 191 0 discriminator 1
 195 00b6 013D     		subs	r5, r5, #1
 196              	.LVL31:
 190:..\..\..\u8g2\u8g2\csrc/u8x8_d_ist7920.c **** 	arg_int--;
 197              		.loc 1 190 0 discriminator 1
 198 00b8 FFF7FEFF 		bl	u8x8_cad_SendData
 199              	.LVL32:
 192:..\..\..\u8g2\u8g2\csrc/u8x8_d_ist7920.c ****       
 200              		.loc 1 192 0 discriminator 1
 201 00bc 15F0FF05 		ands	r5, r5, #255
 202              	.LVL33:
 203 00c0 F6D1     		bne	.L12
 204 00c2 D3E7     		b	.L16
 205              	.LVL34:
 206              	.L13:
 197:..\..\..\u8g2\u8g2\csrc/u8x8_d_ist7920.c ****   }
 207              		.loc 1 197 0
 208 00c4 0020     		movs	r0, #0
 209              	.LVL35:
 200:..\..\..\u8g2\u8g2\csrc/u8x8_d_ist7920.c **** }
 210              		.loc 1 200 0
 211 00c6 F8BD     		pop	{r3, r4, r5, r6, r7, pc}
 212              	.LVL36:
 213              	.L21:
 214              		.align	2
 215              	.L20:
 216 00c8 00000000 		.word	.LANCHOR0
 217 00cc 18000000 		.word	.LANCHOR0+24
 218 00d0 59000000 		.word	.LANCHOR0+89
 219 00d4 5E000000 		.word	.LANCHOR0+94
 220 00d8 63000000 		.word	.LANCHOR0+99
 221 00dc 68000000 		.word	.LANCHOR0+104
 222              		.cfi_endproc
 223              	.LFE0:
 224              		.size	u8x8_d_ist7920_128x128, .-u8x8_d_ist7920_128x128
 225              		.section	.rodata
 226              		.align	2
 227              		.set	.LANCHOR0,. + 0
 228              		.type	u8x8_ist7920_128x128_display_info, %object
 229              		.size	u8x8_ist7920_128x128_display_info, 24
 230              	u8x8_ist7920_128x128_display_info:
 231 0000 00       		.byte	0
 232 0001 01       		.byte	1
 233 0002 5A       		.byte	90
 234 0003 5A       		.byte	90
 235 0004 0A       		.byte	10
 236 0005 14       		.byte	20
ARM GAS  C:\Users\jesse\AppData\Local\Temp\cc2rbJIT.s 			page 9


 237 0006 2D       		.byte	45
 238 0007 82       		.byte	-126
 239 0008 C0C62D00 		.word	3000000
 240 000c 00       		.byte	0
 241 000d 04       		.byte	4
 242 000e 3C       		.byte	60
 243 000f 96       		.byte	-106
 244 0010 10       		.byte	16
 245 0011 10       		.byte	16
 246 0012 00       		.byte	0
 247 0013 00       		.byte	0
 248 0014 8000     		.short	128
 249 0016 8000     		.short	128
 250              		.type	u8x8_d_ist7920_128x128_init_seq, %object
 251              		.size	u8x8_d_ist7920_128x128_init_seq, 65
 252              	u8x8_d_ist7920_128x128_init_seq:
 253 0018 18       		.byte	24
 254 0019 15       		.byte	21
 255 001a 76       		.byte	118
 256 001b FE       		.byte	-2
 257 001c 32       		.byte	50
 258 001d 15       		.byte	21
 259 001e 3C       		.byte	60
 260 001f 15       		.byte	21
 261 0020 90       		.byte	-112
 262 0021 16       		.byte	22
 263 0022 80       		.byte	-128
 264 0023 15       		.byte	21
 265 0024 30       		.byte	48
 266 0025 16       		.byte	22
 267 0026 10       		.byte	16
 268 0027 15       		.byte	21
 269 0028 31       		.byte	49
 270 0029 16       		.byte	22
 271 002a 3F       		.byte	63
 272 002b 15       		.byte	21
 273 002c 33       		.byte	51
 274 002d 16       		.byte	22
 275 002e 20       		.byte	32
 276 002f FE       		.byte	-2
 277 0030 64       		.byte	100
 278 0031 15       		.byte	21
 279 0032 33       		.byte	51
 280 0033 16       		.byte	22
 281 0034 2C       		.byte	44
 282 0035 FE       		.byte	-2
 283 0036 64       		.byte	100
 284 0037 15       		.byte	21
 285 0038 FD       		.byte	-3
 286 0039 FE       		.byte	-2
 287 003a 64       		.byte	100
 288 003b 15       		.byte	21
 289 003c 33       		.byte	51
 290 003d 16       		.byte	22
 291 003e 2F       		.byte	47
 292 003f FE       		.byte	-2
 293 0040 C8       		.byte	-56
ARM GAS  C:\Users\jesse\AppData\Local\Temp\cc2rbJIT.s 			page 10


 294 0041 15       		.byte	21
 295 0042 64       		.byte	100
 296 0043 15       		.byte	21
 297 0044 74       		.byte	116
 298 0045 16       		.byte	22
 299 0046 00       		.byte	0
 300 0047 16       		.byte	22
 301 0048 0F       		.byte	15
 302 0049 15       		.byte	21
 303 004a 75       		.byte	117
 304 004b 16       		.byte	22
 305 004c 00       		.byte	0
 306 004d 16       		.byte	22
 307 004e 7F       		.byte	127
 308 004f 15       		.byte	21
 309 0050 40       		.byte	64
 310 0051 16       		.byte	22
 311 0052 40       		.byte	64
 312 0053 15       		.byte	21
 313 0054 B1       		.byte	-79
 314 0055 16       		.byte	22
 315 0056 64       		.byte	100
 316 0057 19       		.byte	25
 317 0058 FF       		.byte	-1
 318              		.type	u8x8_d_ist7920_128x128_powersave0_seq, %object
 319              		.size	u8x8_d_ist7920_128x128_powersave0_seq, 5
 320              	u8x8_d_ist7920_128x128_powersave0_seq:
 321 0059 18       		.byte	24
 322 005a 15       		.byte	21
 323 005b 3D       		.byte	61
 324 005c 19       		.byte	25
 325 005d FF       		.byte	-1
 326              		.type	u8x8_d_ist7920_128x128_powersave1_seq, %object
 327              		.size	u8x8_d_ist7920_128x128_powersave1_seq, 5
 328              	u8x8_d_ist7920_128x128_powersave1_seq:
 329 005e 18       		.byte	24
 330 005f 15       		.byte	21
 331 0060 3C       		.byte	60
 332 0061 19       		.byte	25
 333 0062 FF       		.byte	-1
 334              		.type	u8x8_d_ist7920_128x128_flip0_seq, %object
 335              		.size	u8x8_d_ist7920_128x128_flip0_seq, 5
 336              	u8x8_d_ist7920_128x128_flip0_seq:
 337 0063 18       		.byte	24
 338 0064 15       		.byte	21
 339 0065 64       		.byte	100
 340 0066 19       		.byte	25
 341 0067 FF       		.byte	-1
 342              		.type	u8x8_d_ist7920_128x128_flip1_seq, %object
 343              		.size	u8x8_d_ist7920_128x128_flip1_seq, 5
 344              	u8x8_d_ist7920_128x128_flip1_seq:
 345 0068 18       		.byte	24
 346 0069 15       		.byte	21
 347 006a 68       		.byte	104
 348 006b 19       		.byte	25
 349 006c FF       		.byte	-1
 350              		.text
ARM GAS  C:\Users\jesse\AppData\Local\Temp\cc2rbJIT.s 			page 11


 351              	.Letext0:
 352              		.file 2 "c:\\program files (x86)\\cypress\\psoc creator\\4.4\\psoc creator\\import\\gnu\\arm\\5.4.
 353              		.file 3 "c:\\program files (x86)\\cypress\\psoc creator\\4.4\\psoc creator\\import\\gnu\\arm\\5.4.
 354              		.file 4 "..\\..\\..\\u8g2\\u8g2\\csrc\\u8x8.h"