ARM GAS  C:\Users\jesse\AppData\Local\Temp\cc9dv931.s 			page 1


   1              		.syntax unified
   2              		.cpu cortex-m3
   3              		.fpu softvfp
   4              		.eabi_attribute 20, 1
   5              		.eabi_attribute 21, 1
   6              		.eabi_attribute 23, 3
   7              		.eabi_attribute 24, 1
   8              		.eabi_attribute 25, 1
   9              		.eabi_attribute 26, 1
  10              		.eabi_attribute 30, 4
  11              		.eabi_attribute 34, 1
  12              		.eabi_attribute 18, 4
  13              		.thumb
  14              		.syntax unified
  15              		.file	"u8x8_d_st7565.c"
  16              		.text
  17              	.Ltext0:
  18              		.cfi_sections	.debug_frame
  19              		.section	.text.u8x8_d_st7565_common,"ax",%progbits
  20              		.align	1
  21              		.global	u8x8_d_st7565_common
  22              		.thumb
  23              		.thumb_func
  24              		.type	u8x8_d_st7565_common, %function
  25              	u8x8_d_st7565_common:
  26              	.LFB0:
  27              		.file 1 "..\\..\\..\\u8g2\\u8g2\\csrc\\u8x8_d_st7565.c"
   1:..\..\..\u8g2\u8g2\csrc/u8x8_d_st7565.c **** /*
   2:..\..\..\u8g2\u8g2\csrc/u8x8_d_st7565.c **** 
   3:..\..\..\u8g2\u8g2\csrc/u8x8_d_st7565.c ****   u8x8_d_st7565.c
   4:..\..\..\u8g2\u8g2\csrc/u8x8_d_st7565.c ****   also includes support for nt7534 
   5:..\..\..\u8g2\u8g2\csrc/u8x8_d_st7565.c ****   
   6:..\..\..\u8g2\u8g2\csrc/u8x8_d_st7565.c ****   Universal 8bit Graphics Library (https://github.com/olikraus/u8g2/)
   7:..\..\..\u8g2\u8g2\csrc/u8x8_d_st7565.c **** 
   8:..\..\..\u8g2\u8g2\csrc/u8x8_d_st7565.c ****   Copyright (c) 2016, olikraus@gmail.com
   9:..\..\..\u8g2\u8g2\csrc/u8x8_d_st7565.c ****   All rights reserved.
  10:..\..\..\u8g2\u8g2\csrc/u8x8_d_st7565.c **** 
  11:..\..\..\u8g2\u8g2\csrc/u8x8_d_st7565.c ****   Redistribution and use in source and binary forms, with or without modification, 
  12:..\..\..\u8g2\u8g2\csrc/u8x8_d_st7565.c ****   are permitted provided that the following conditions are met:
  13:..\..\..\u8g2\u8g2\csrc/u8x8_d_st7565.c **** 
  14:..\..\..\u8g2\u8g2\csrc/u8x8_d_st7565.c ****   * Redistributions of source code must retain the above copyright notice, this list 
  15:..\..\..\u8g2\u8g2\csrc/u8x8_d_st7565.c ****     of conditions and the following disclaimer.
  16:..\..\..\u8g2\u8g2\csrc/u8x8_d_st7565.c ****     
  17:..\..\..\u8g2\u8g2\csrc/u8x8_d_st7565.c ****   * Redistributions in binary form must reproduce the above copyright notice, this 
  18:..\..\..\u8g2\u8g2\csrc/u8x8_d_st7565.c ****     list of conditions and the following disclaimer in the documentation and/or other 
  19:..\..\..\u8g2\u8g2\csrc/u8x8_d_st7565.c ****     materials provided with the distribution.
  20:..\..\..\u8g2\u8g2\csrc/u8x8_d_st7565.c **** 
  21:..\..\..\u8g2\u8g2\csrc/u8x8_d_st7565.c ****   THIS SOFTWARE IS PROVIDED BY THE COPYRIGHT HOLDERS AND 
  22:..\..\..\u8g2\u8g2\csrc/u8x8_d_st7565.c ****   CONTRIBUTORS "AS IS" AND ANY EXPRESS OR IMPLIED WARRANTIES, 
  23:..\..\..\u8g2\u8g2\csrc/u8x8_d_st7565.c ****   INCLUDING, BUT NOT LIMITED TO, THE IMPLIED WARRANTIES OF 
  24:..\..\..\u8g2\u8g2\csrc/u8x8_d_st7565.c ****   MERCHANTABILITY AND FITNESS FOR A PARTICULAR PURPOSE ARE 
  25:..\..\..\u8g2\u8g2\csrc/u8x8_d_st7565.c ****   DISCLAIMED. IN NO EVENT SHALL THE COPYRIGHT HOLDER OR 
  26:..\..\..\u8g2\u8g2\csrc/u8x8_d_st7565.c ****   CONTRIBUTORS BE LIABLE FOR ANY DIRECT, INDIRECT, INCIDENTAL, 
  27:..\..\..\u8g2\u8g2\csrc/u8x8_d_st7565.c ****   SPECIAL, EXEMPLARY, OR CONSEQUENTIAL DAMAGES (INCLUDING, BUT 
  28:..\..\..\u8g2\u8g2\csrc/u8x8_d_st7565.c ****   NOT LIMITED TO, PROCUREMENT OF SUBSTITUTE GOODS OR SERVICES; 
  29:..\..\..\u8g2\u8g2\csrc/u8x8_d_st7565.c ****   LOSS OF USE, DATA, OR PROFITS; OR BUSINESS INTERRUPTION) HOWEVER 
  30:..\..\..\u8g2\u8g2\csrc/u8x8_d_st7565.c ****   CAUSED AND ON ANY THEORY OF LIABILITY, WHETHER IN CONTRACT, 
ARM GAS  C:\Users\jesse\AppData\Local\Temp\cc9dv931.s 			page 2


  31:..\..\..\u8g2\u8g2\csrc/u8x8_d_st7565.c ****   STRICT LIABILITY, OR TORT (INCLUDING NEGLIGENCE OR OTHERWISE) 
  32:..\..\..\u8g2\u8g2\csrc/u8x8_d_st7565.c ****   ARISING IN ANY WAY OUT OF THE USE OF THIS SOFTWARE, EVEN IF 
  33:..\..\..\u8g2\u8g2\csrc/u8x8_d_st7565.c ****   ADVISED OF THE POSSIBILITY OF SUCH DAMAGE.  
  34:..\..\..\u8g2\u8g2\csrc/u8x8_d_st7565.c **** 
  35:..\..\..\u8g2\u8g2\csrc/u8x8_d_st7565.c ****   
  36:..\..\..\u8g2\u8g2\csrc/u8x8_d_st7565.c **** */
  37:..\..\..\u8g2\u8g2\csrc/u8x8_d_st7565.c **** #include "u8x8.h"
  38:..\..\..\u8g2\u8g2\csrc/u8x8_d_st7565.c **** 
  39:..\..\..\u8g2\u8g2\csrc/u8x8_d_st7565.c **** 
  40:..\..\..\u8g2\u8g2\csrc/u8x8_d_st7565.c **** 
  41:..\..\..\u8g2\u8g2\csrc/u8x8_d_st7565.c **** 
  42:..\..\..\u8g2\u8g2\csrc/u8x8_d_st7565.c **** 
  43:..\..\..\u8g2\u8g2\csrc/u8x8_d_st7565.c **** static const uint8_t u8x8_d_st7565_powersave0_seq[] = {
  44:..\..\..\u8g2\u8g2\csrc/u8x8_d_st7565.c ****   U8X8_START_TRANSFER(),             	/* enable chip, delay is part of the transfer start */
  45:..\..\..\u8g2\u8g2\csrc/u8x8_d_st7565.c ****   U8X8_C(0x0a4),		                /* all pixel off, issue 142 */
  46:..\..\..\u8g2\u8g2\csrc/u8x8_d_st7565.c ****   U8X8_C(0x0af),		                /* display on */
  47:..\..\..\u8g2\u8g2\csrc/u8x8_d_st7565.c ****   U8X8_END_TRANSFER(),             	/* disable chip */
  48:..\..\..\u8g2\u8g2\csrc/u8x8_d_st7565.c ****   U8X8_END()             			/* end of sequence */
  49:..\..\..\u8g2\u8g2\csrc/u8x8_d_st7565.c **** };
  50:..\..\..\u8g2\u8g2\csrc/u8x8_d_st7565.c **** 
  51:..\..\..\u8g2\u8g2\csrc/u8x8_d_st7565.c **** static const uint8_t u8x8_d_st7565_powersave1_seq[] = {
  52:..\..\..\u8g2\u8g2\csrc/u8x8_d_st7565.c ****   U8X8_START_TRANSFER(),             	/* enable chip, delay is part of the transfer start */
  53:..\..\..\u8g2\u8g2\csrc/u8x8_d_st7565.c ****   U8X8_C(0x0ae),		                /* display off */
  54:..\..\..\u8g2\u8g2\csrc/u8x8_d_st7565.c ****   U8X8_C(0x0a5),		                /* enter powersafe: all pixel on, issue 142 */
  55:..\..\..\u8g2\u8g2\csrc/u8x8_d_st7565.c ****   U8X8_END_TRANSFER(),             	/* disable chip */
  56:..\..\..\u8g2\u8g2\csrc/u8x8_d_st7565.c ****   U8X8_END()             			/* end of sequence */
  57:..\..\..\u8g2\u8g2\csrc/u8x8_d_st7565.c **** };
  58:..\..\..\u8g2\u8g2\csrc/u8x8_d_st7565.c **** 
  59:..\..\..\u8g2\u8g2\csrc/u8x8_d_st7565.c **** static const uint8_t u8x8_d_st7565_flip0_seq[] = {
  60:..\..\..\u8g2\u8g2\csrc/u8x8_d_st7565.c ****   U8X8_START_TRANSFER(),             	/* enable chip, delay is part of the transfer start */
  61:..\..\..\u8g2\u8g2\csrc/u8x8_d_st7565.c ****   U8X8_C(0x0a1),				/* segment remap a0/a1*/
  62:..\..\..\u8g2\u8g2\csrc/u8x8_d_st7565.c ****   U8X8_C(0x0c0),				/* c0: scan dir normal, c8: reverse */
  63:..\..\..\u8g2\u8g2\csrc/u8x8_d_st7565.c ****   U8X8_END_TRANSFER(),             	/* disable chip */
  64:..\..\..\u8g2\u8g2\csrc/u8x8_d_st7565.c ****   U8X8_END()             			/* end of sequence */
  65:..\..\..\u8g2\u8g2\csrc/u8x8_d_st7565.c **** };
  66:..\..\..\u8g2\u8g2\csrc/u8x8_d_st7565.c **** 
  67:..\..\..\u8g2\u8g2\csrc/u8x8_d_st7565.c **** static const uint8_t u8x8_d_st7565_flip1_seq[] = {
  68:..\..\..\u8g2\u8g2\csrc/u8x8_d_st7565.c ****   U8X8_START_TRANSFER(),             	/* enable chip, delay is part of the transfer start */
  69:..\..\..\u8g2\u8g2\csrc/u8x8_d_st7565.c ****   U8X8_C(0x0a0),				/* segment remap a0/a1*/
  70:..\..\..\u8g2\u8g2\csrc/u8x8_d_st7565.c ****   U8X8_C(0x0c8),				/* c0: scan dir normal, c8: reverse */
  71:..\..\..\u8g2\u8g2\csrc/u8x8_d_st7565.c ****   U8X8_END_TRANSFER(),             	/* disable chip */
  72:..\..\..\u8g2\u8g2\csrc/u8x8_d_st7565.c ****   U8X8_END()             			/* end of sequence */
  73:..\..\..\u8g2\u8g2\csrc/u8x8_d_st7565.c **** };
  74:..\..\..\u8g2\u8g2\csrc/u8x8_d_st7565.c **** 
  75:..\..\..\u8g2\u8g2\csrc/u8x8_d_st7565.c **** static const uint8_t u8x8_d_st7565_zflip0_seq[] = {
  76:..\..\..\u8g2\u8g2\csrc/u8x8_d_st7565.c ****   U8X8_START_TRANSFER(),             	/* enable chip, delay is part of the transfer start */
  77:..\..\..\u8g2\u8g2\csrc/u8x8_d_st7565.c ****   U8X8_C(0x0a1),				/* segment remap a0/a1*/
  78:..\..\..\u8g2\u8g2\csrc/u8x8_d_st7565.c ****   U8X8_C(0x0c8),				/* c0: scan dir normal, c8: reverse */
  79:..\..\..\u8g2\u8g2\csrc/u8x8_d_st7565.c ****   U8X8_END_TRANSFER(),             	/* disable chip */
  80:..\..\..\u8g2\u8g2\csrc/u8x8_d_st7565.c ****   U8X8_END()             			/* end of sequence */
  81:..\..\..\u8g2\u8g2\csrc/u8x8_d_st7565.c **** };
  82:..\..\..\u8g2\u8g2\csrc/u8x8_d_st7565.c **** 
  83:..\..\..\u8g2\u8g2\csrc/u8x8_d_st7565.c **** static const uint8_t u8x8_d_st7565_zflip1_seq[] = {
  84:..\..\..\u8g2\u8g2\csrc/u8x8_d_st7565.c ****   U8X8_START_TRANSFER(),             	/* enable chip, delay is part of the transfer start */
  85:..\..\..\u8g2\u8g2\csrc/u8x8_d_st7565.c ****   U8X8_C(0x0a0),				/* segment remap a0/a1*/
  86:..\..\..\u8g2\u8g2\csrc/u8x8_d_st7565.c ****   U8X8_C(0x0c0),				/* c0: scan dir normal, c8: reverse */
  87:..\..\..\u8g2\u8g2\csrc/u8x8_d_st7565.c ****   U8X8_END_TRANSFER(),             	/* disable chip */
ARM GAS  C:\Users\jesse\AppData\Local\Temp\cc9dv931.s 			page 3


  88:..\..\..\u8g2\u8g2\csrc/u8x8_d_st7565.c ****   U8X8_END()             			/* end of sequence */
  89:..\..\..\u8g2\u8g2\csrc/u8x8_d_st7565.c **** };
  90:..\..\..\u8g2\u8g2\csrc/u8x8_d_st7565.c **** 
  91:..\..\..\u8g2\u8g2\csrc/u8x8_d_st7565.c **** static const u8x8_display_info_t u8x8_st7565_128x64_display_info =
  92:..\..\..\u8g2\u8g2\csrc/u8x8_d_st7565.c **** {
  93:..\..\..\u8g2\u8g2\csrc/u8x8_d_st7565.c ****   /* chip_enable_level = */ 0,
  94:..\..\..\u8g2\u8g2\csrc/u8x8_d_st7565.c ****   /* chip_disable_level = */ 1,
  95:..\..\..\u8g2\u8g2\csrc/u8x8_d_st7565.c ****   
  96:..\..\..\u8g2\u8g2\csrc/u8x8_d_st7565.c ****   /* post_chip_enable_wait_ns = */ 150,	/* st7565 datasheet, table 26, tcsh */
  97:..\..\..\u8g2\u8g2\csrc/u8x8_d_st7565.c ****   /* pre_chip_disable_wait_ns = */ 50,	/* st7565 datasheet, table 26, tcss */
  98:..\..\..\u8g2\u8g2\csrc/u8x8_d_st7565.c ****   /* reset_pulse_width_ms = */ 1, 
  99:..\..\..\u8g2\u8g2\csrc/u8x8_d_st7565.c ****   /* post_reset_wait_ms = */ 1, 
 100:..\..\..\u8g2\u8g2\csrc/u8x8_d_st7565.c ****   /* sda_setup_time_ns = */ 50,		/* st7565 datasheet, table 26, tsds */
 101:..\..\..\u8g2\u8g2\csrc/u8x8_d_st7565.c ****   /* sck_pulse_width_ns = */ 120,	/* half of cycle time (100ns according to datasheet), AVR: below 
 102:..\..\..\u8g2\u8g2\csrc/u8x8_d_st7565.c ****   /* sck_clock_hz = */ 4000000UL,	/* since Arduino 1.6.0, the SPI bus speed in Hz. Should be  10000
 103:..\..\..\u8g2\u8g2\csrc/u8x8_d_st7565.c ****   /* spi_mode = */ 0,		/* active high, rising edge */
 104:..\..\..\u8g2\u8g2\csrc/u8x8_d_st7565.c ****   /* i2c_bus_clock_100kHz = */ 4,
 105:..\..\..\u8g2\u8g2\csrc/u8x8_d_st7565.c ****   /* data_setup_time_ns = */ 40,	/* st7565 datasheet, table 24, tds8 */
 106:..\..\..\u8g2\u8g2\csrc/u8x8_d_st7565.c ****   /* write_pulse_width_ns = */ 80,	/* st7565 datasheet, table 24, tcclw */
 107:..\..\..\u8g2\u8g2\csrc/u8x8_d_st7565.c ****   /* tile_width = */ 16,		/* width of 16*8=128 pixel */
 108:..\..\..\u8g2\u8g2\csrc/u8x8_d_st7565.c ****   /* tile_hight = */ 8,
 109:..\..\..\u8g2\u8g2\csrc/u8x8_d_st7565.c ****   /* default_x_offset = */ 0,
 110:..\..\..\u8g2\u8g2\csrc/u8x8_d_st7565.c ****   /* flipmode_x_offset = */ 4,
 111:..\..\..\u8g2\u8g2\csrc/u8x8_d_st7565.c ****   /* pixel_width = */ 128,
 112:..\..\..\u8g2\u8g2\csrc/u8x8_d_st7565.c ****   /* pixel_height = */ 64
 113:..\..\..\u8g2\u8g2\csrc/u8x8_d_st7565.c **** };
 114:..\..\..\u8g2\u8g2\csrc/u8x8_d_st7565.c **** 
 115:..\..\..\u8g2\u8g2\csrc/u8x8_d_st7565.c **** uint8_t u8x8_d_st7565_common(u8x8_t *u8x8, uint8_t msg, uint8_t arg_int, void *arg_ptr)
 116:..\..\..\u8g2\u8g2\csrc/u8x8_d_st7565.c **** {
  28              		.loc 1 116 0
  29              		.cfi_startproc
  30              		@ args = 0, pretend = 0, frame = 0
  31              		@ frame_needed = 0, uses_anonymous_args = 0
  32              	.LVL0:
 117:..\..\..\u8g2\u8g2\csrc/u8x8_d_st7565.c ****   uint8_t x, c;
 118:..\..\..\u8g2\u8g2\csrc/u8x8_d_st7565.c ****   uint8_t *ptr;
 119:..\..\..\u8g2\u8g2\csrc/u8x8_d_st7565.c ****   switch(msg)
  33              		.loc 1 119 0
  34 0000 0E29     		cmp	r1, #14
 116:..\..\..\u8g2\u8g2\csrc/u8x8_d_st7565.c ****   uint8_t x, c;
  35              		.loc 1 116 0
  36 0002 2DE9F041 		push	{r4, r5, r6, r7, r8, lr}
  37              		.cfi_def_cfa_offset 24
  38              		.cfi_offset 4, -24
  39              		.cfi_offset 5, -20
  40              		.cfi_offset 6, -16
  41              		.cfi_offset 7, -12
  42              		.cfi_offset 8, -8
  43              		.cfi_offset 14, -4
 116:..\..\..\u8g2\u8g2\csrc/u8x8_d_st7565.c ****   uint8_t x, c;
  44              		.loc 1 116 0
  45 0006 0646     		mov	r6, r0
  46 0008 1746     		mov	r7, r2
  47 000a 9846     		mov	r8, r3
  48              		.loc 1 119 0
  49 000c 3FD0     		beq	.L3
  50 000e 0F29     		cmp	r1, #15
ARM GAS  C:\Users\jesse\AppData\Local\Temp\cc9dv931.s 			page 4


  51 0010 02D0     		beq	.L4
  52 0012 0B29     		cmp	r1, #11
  53 0014 49D1     		bne	.L11
  54 0016 31E0     		b	.L16
  55              	.L4:
  56              	.LVL1:
  57              	.LBB4:
  58              	.LBB5:
 120:..\..\..\u8g2\u8g2\csrc/u8x8_d_st7565.c ****   {
 121:..\..\..\u8g2\u8g2\csrc/u8x8_d_st7565.c ****     case U8X8_MSG_DISPLAY_DRAW_TILE:
 122:..\..\..\u8g2\u8g2\csrc/u8x8_d_st7565.c ****       u8x8_cad_StartTransfer(u8x8);
  59              		.loc 1 122 0
  60 0018 FFF7FEFF 		bl	u8x8_cad_StartTransfer
  61              	.LVL2:
 123:..\..\..\u8g2\u8g2\csrc/u8x8_d_st7565.c ****     
 124:..\..\..\u8g2\u8g2\csrc/u8x8_d_st7565.c ****       x = ((u8x8_tile_t *)arg_ptr)->x_pos;
 125:..\..\..\u8g2\u8g2\csrc/u8x8_d_st7565.c ****       x *= 8;
 126:..\..\..\u8g2\u8g2\csrc/u8x8_d_st7565.c ****       x += u8x8->x_offset;
  62              		.loc 1 126 0
  63 001c 96F82230 		ldrb	r3, [r6, #34]	@ zero_extendqisi2
 124:..\..\..\u8g2\u8g2\csrc/u8x8_d_st7565.c ****       x *= 8;
  64              		.loc 1 124 0
  65 0020 98F80540 		ldrb	r4, [r8, #5]	@ zero_extendqisi2
  66              	.LVL3:
 127:..\..\..\u8g2\u8g2\csrc/u8x8_d_st7565.c ****       u8x8_cad_SendCmd(u8x8, 0x010 | (x>>4) );
  67              		.loc 1 127 0
  68 0024 3046     		mov	r0, r6
 126:..\..\..\u8g2\u8g2\csrc/u8x8_d_st7565.c ****       u8x8_cad_SendCmd(u8x8, 0x010 | (x>>4) );
  69              		.loc 1 126 0
  70 0026 03EBC404 		add	r4, r3, r4, lsl #3
  71              	.LVL4:
  72 002a 04F0FF04 		and	r4, r4, #255
  73              	.LVL5:
  74              		.loc 1 127 0
  75 002e 2109     		lsrs	r1, r4, #4
  76 0030 41F01001 		orr	r1, r1, #16
  77 0034 FFF7FEFF 		bl	u8x8_cad_SendCmd
  78              	.LVL6:
 128:..\..\..\u8g2\u8g2\csrc/u8x8_d_st7565.c ****       u8x8_cad_SendCmd(u8x8, 0x000 | ((x&15)));
  79              		.loc 1 128 0
  80 0038 04F00F01 		and	r1, r4, #15
  81 003c 3046     		mov	r0, r6
  82 003e FFF7FEFF 		bl	u8x8_cad_SendCmd
  83              	.LVL7:
 129:..\..\..\u8g2\u8g2\csrc/u8x8_d_st7565.c ****       u8x8_cad_SendCmd(u8x8, 0x0b0 | (((u8x8_tile_t *)arg_ptr)->y_pos));
  84              		.loc 1 129 0
  85 0042 98F80610 		ldrb	r1, [r8, #6]	@ zero_extendqisi2
  86 0046 3046     		mov	r0, r6
  87 0048 41F0B001 		orr	r1, r1, #176
  88 004c FFF7FEFF 		bl	u8x8_cad_SendCmd
  89              	.LVL8:
 130:..\..\..\u8g2\u8g2\csrc/u8x8_d_st7565.c ****     
 131:..\..\..\u8g2\u8g2\csrc/u8x8_d_st7565.c ****       c = ((u8x8_tile_t *)arg_ptr)->cnt;
  90              		.loc 1 131 0
  91 0050 98F80450 		ldrb	r5, [r8, #4]	@ zero_extendqisi2
  92              	.LVL9:
 132:..\..\..\u8g2\u8g2\csrc/u8x8_d_st7565.c ****       c *= 8;
ARM GAS  C:\Users\jesse\AppData\Local\Temp\cc9dv931.s 			page 5


 133:..\..\..\u8g2\u8g2\csrc/u8x8_d_st7565.c ****       ptr = ((u8x8_tile_t *)arg_ptr)->tile_ptr;
  93              		.loc 1 133 0
  94 0054 D8F80080 		ldr	r8, [r8]
  95              	.LVL10:
 132:..\..\..\u8g2\u8g2\csrc/u8x8_d_st7565.c ****       c *= 8;
  96              		.loc 1 132 0
  97 0058 ED00     		lsls	r5, r5, #3
  98              	.LVL11:
  99 005a EDB2     		uxtb	r5, r5
 100              	.LVL12:
 134:..\..\..\u8g2\u8g2\csrc/u8x8_d_st7565.c ****       /* 
 135:..\..\..\u8g2\u8g2\csrc/u8x8_d_st7565.c **** 	The following if condition checks the hardware limits of the st7565 
 136:..\..\..\u8g2\u8g2\csrc/u8x8_d_st7565.c **** 	controller: It is not allowed to write beyond the display limits.
 137:..\..\..\u8g2\u8g2\csrc/u8x8_d_st7565.c **** 	This is in fact an issue within flip mode.
 138:..\..\..\u8g2\u8g2\csrc/u8x8_d_st7565.c ****       */
 139:..\..\..\u8g2\u8g2\csrc/u8x8_d_st7565.c ****       if ( c + x > 132u )
 101              		.loc 1 139 0
 102 005c 2B19     		adds	r3, r5, r4
 103 005e 842B     		cmp	r3, #132
 104              	.LVL13:
 140:..\..\..\u8g2\u8g2\csrc/u8x8_d_st7565.c ****       {
 141:..\..\..\u8g2\u8g2\csrc/u8x8_d_st7565.c **** 	c = 132u;
 142:..\..\..\u8g2\u8g2\csrc/u8x8_d_st7565.c **** 	c -= x;
 105              		.loc 1 142 0
 106 0060 C4BF     		itt	gt
 107 0062 C4F18404 		rsbgt	r4, r4, #132
 108              	.LVL14:
 109 0066 E5B2     		uxtbgt	r5, r4
 110              	.LVL15:
 111              	.L7:
 143:..\..\..\u8g2\u8g2\csrc/u8x8_d_st7565.c ****       }
 144:..\..\..\u8g2\u8g2\csrc/u8x8_d_st7565.c ****       do
 145:..\..\..\u8g2\u8g2\csrc/u8x8_d_st7565.c ****       {
 146:..\..\..\u8g2\u8g2\csrc/u8x8_d_st7565.c **** 	u8x8_cad_SendData(u8x8, c, ptr);	/* note: SendData can not handle more than 255 bytes */
 112              		.loc 1 146 0
 113 0068 4246     		mov	r2, r8
 114 006a 2946     		mov	r1, r5
 115 006c 3046     		mov	r0, r6
 147:..\..\..\u8g2\u8g2\csrc/u8x8_d_st7565.c **** 	arg_int--;
 116              		.loc 1 147 0
 117 006e 013F     		subs	r7, r7, #1
 118              	.LVL16:
 146:..\..\..\u8g2\u8g2\csrc/u8x8_d_st7565.c **** 	arg_int--;
 119              		.loc 1 146 0
 120 0070 FFF7FEFF 		bl	u8x8_cad_SendData
 121              	.LVL17:
 148:..\..\..\u8g2\u8g2\csrc/u8x8_d_st7565.c ****       } while( arg_int > 0 );
 122              		.loc 1 148 0
 123 0074 17F0FF07 		ands	r7, r7, #255
 124              	.LVL18:
 125 0078 F6D1     		bne	.L7
 126 007a 12E0     		b	.L14
 127              	.LVL19:
 128              	.L16:
 129              	.LBE5:
 130              	.LBE4:
 149:..\..\..\u8g2\u8g2\csrc/u8x8_d_st7565.c ****       
ARM GAS  C:\Users\jesse\AppData\Local\Temp\cc9dv931.s 			page 6


 150:..\..\..\u8g2\u8g2\csrc/u8x8_d_st7565.c ****       u8x8_cad_EndTransfer(u8x8);
 151:..\..\..\u8g2\u8g2\csrc/u8x8_d_st7565.c ****       break;
 152:..\..\..\u8g2\u8g2\csrc/u8x8_d_st7565.c ****     /*	handled in the calling procedure 
 153:..\..\..\u8g2\u8g2\csrc/u8x8_d_st7565.c ****     case U8X8_MSG_DISPLAY_SETUP_MEMORY:
 154:..\..\..\u8g2\u8g2\csrc/u8x8_d_st7565.c ****       u8x8_d_helper_display_setup_memory(u8x8, &u8x8_st7565_128x64_display_info);
 155:..\..\..\u8g2\u8g2\csrc/u8x8_d_st7565.c ****       break;
 156:..\..\..\u8g2\u8g2\csrc/u8x8_d_st7565.c ****     case U8X8_MSG_DISPLAY_INIT:
 157:..\..\..\u8g2\u8g2\csrc/u8x8_d_st7565.c ****       u8x8_d_helper_display_init(u8x8);
 158:..\..\..\u8g2\u8g2\csrc/u8x8_d_st7565.c ****       u8x8_cad_SendSequence(u8x8, u8x8_d_uc1701_dogs102_init_seq);
 159:..\..\..\u8g2\u8g2\csrc/u8x8_d_st7565.c ****       break;
 160:..\..\..\u8g2\u8g2\csrc/u8x8_d_st7565.c ****     */
 161:..\..\..\u8g2\u8g2\csrc/u8x8_d_st7565.c ****     case U8X8_MSG_DISPLAY_SET_POWER_SAVE:
 162:..\..\..\u8g2\u8g2\csrc/u8x8_d_st7565.c ****       if ( arg_int == 0 )
 131              		.loc 1 162 0
 132 007c 0AB9     		cbnz	r2, .L8
 163:..\..\..\u8g2\u8g2\csrc/u8x8_d_st7565.c **** 	u8x8_cad_SendSequence(u8x8, u8x8_d_st7565_powersave0_seq);
 133              		.loc 1 163 0
 134 007e 0C49     		ldr	r1, .L17
 135              	.LVL20:
 136 0080 00E0     		b	.L12
 137              	.LVL21:
 138              	.L8:
 164:..\..\..\u8g2\u8g2\csrc/u8x8_d_st7565.c ****       else
 165:..\..\..\u8g2\u8g2\csrc/u8x8_d_st7565.c **** 	u8x8_cad_SendSequence(u8x8, u8x8_d_st7565_powersave1_seq);
 139              		.loc 1 165 0
 140 0082 0C49     		ldr	r1, .L17+4
 141              	.LVL22:
 142              	.L12:
 143 0084 FFF7FEFF 		bl	u8x8_cad_SendSequence
 144              	.LVL23:
 145              	.L13:
 166:..\..\..\u8g2\u8g2\csrc/u8x8_d_st7565.c ****       break;
 167:..\..\..\u8g2\u8g2\csrc/u8x8_d_st7565.c **** #ifdef U8X8_WITH_SET_CONTRAST
 168:..\..\..\u8g2\u8g2\csrc/u8x8_d_st7565.c ****     case U8X8_MSG_DISPLAY_SET_CONTRAST:
 169:..\..\..\u8g2\u8g2\csrc/u8x8_d_st7565.c ****       u8x8_cad_StartTransfer(u8x8);
 170:..\..\..\u8g2\u8g2\csrc/u8x8_d_st7565.c ****       u8x8_cad_SendCmd(u8x8, 0x081 );
 171:..\..\..\u8g2\u8g2\csrc/u8x8_d_st7565.c ****       u8x8_cad_SendArg(u8x8, arg_int >> 2 );	/* st7565 has range from 0 to 63 */
 172:..\..\..\u8g2\u8g2\csrc/u8x8_d_st7565.c ****       u8x8_cad_EndTransfer(u8x8);
 173:..\..\..\u8g2\u8g2\csrc/u8x8_d_st7565.c ****       break;
 174:..\..\..\u8g2\u8g2\csrc/u8x8_d_st7565.c **** #endif
 175:..\..\..\u8g2\u8g2\csrc/u8x8_d_st7565.c ****     default:
 176:..\..\..\u8g2\u8g2\csrc/u8x8_d_st7565.c ****       return 0;
 177:..\..\..\u8g2\u8g2\csrc/u8x8_d_st7565.c ****   }
 178:..\..\..\u8g2\u8g2\csrc/u8x8_d_st7565.c ****   return 1;
 146              		.loc 1 178 0
 147 0088 0120     		movs	r0, #1
 148 008a BDE8F081 		pop	{r4, r5, r6, r7, r8, pc}
 149              	.LVL24:
 150              	.L3:
 169:..\..\..\u8g2\u8g2\csrc/u8x8_d_st7565.c ****       u8x8_cad_SendCmd(u8x8, 0x081 );
 151              		.loc 1 169 0
 152 008e FFF7FEFF 		bl	u8x8_cad_StartTransfer
 153              	.LVL25:
 170:..\..\..\u8g2\u8g2\csrc/u8x8_d_st7565.c ****       u8x8_cad_SendArg(u8x8, arg_int >> 2 );	/* st7565 has range from 0 to 63 */
 154              		.loc 1 170 0
 155 0092 8121     		movs	r1, #129
 156 0094 3046     		mov	r0, r6
ARM GAS  C:\Users\jesse\AppData\Local\Temp\cc9dv931.s 			page 7


 157 0096 FFF7FEFF 		bl	u8x8_cad_SendCmd
 158              	.LVL26:
 171:..\..\..\u8g2\u8g2\csrc/u8x8_d_st7565.c ****       u8x8_cad_EndTransfer(u8x8);
 159              		.loc 1 171 0
 160 009a B908     		lsrs	r1, r7, #2
 161 009c 3046     		mov	r0, r6
 162 009e FFF7FEFF 		bl	u8x8_cad_SendArg
 163              	.LVL27:
 164              	.L14:
 172:..\..\..\u8g2\u8g2\csrc/u8x8_d_st7565.c ****       break;
 165              		.loc 1 172 0
 166 00a2 3046     		mov	r0, r6
 167 00a4 FFF7FEFF 		bl	u8x8_cad_EndTransfer
 168              	.LVL28:
 169 00a8 EEE7     		b	.L13
 170              	.LVL29:
 171              	.L11:
 176:..\..\..\u8g2\u8g2\csrc/u8x8_d_st7565.c ****   }
 172              		.loc 1 176 0
 173 00aa 0020     		movs	r0, #0
 174              	.LVL30:
 179:..\..\..\u8g2\u8g2\csrc/u8x8_d_st7565.c **** }
 175              		.loc 1 179 0
 176 00ac BDE8F081 		pop	{r4, r5, r6, r7, r8, pc}
 177              	.LVL31:
 178              	.L18:
 179              		.align	2
 180              	.L17:
 181 00b0 00000000 		.word	.LANCHOR0
 182 00b4 07000000 		.word	.LANCHOR0+7
 183              		.cfi_endproc
 184              	.LFE0:
 185              		.size	u8x8_d_st7565_common, .-u8x8_d_st7565_common
 186              		.section	.text.u8x8_d_st7565_ea_dogm128,"ax",%progbits
 187              		.align	1
 188              		.global	u8x8_d_st7565_ea_dogm128
 189              		.thumb
 190              		.thumb_func
 191              		.type	u8x8_d_st7565_ea_dogm128, %function
 192              	u8x8_d_st7565_ea_dogm128:
 193              	.LFB1:
 180:..\..\..\u8g2\u8g2\csrc/u8x8_d_st7565.c **** 
 181:..\..\..\u8g2\u8g2\csrc/u8x8_d_st7565.c **** /*================================================*/
 182:..\..\..\u8g2\u8g2\csrc/u8x8_d_st7565.c **** /* DOGM128 */
 183:..\..\..\u8g2\u8g2\csrc/u8x8_d_st7565.c **** 
 184:..\..\..\u8g2\u8g2\csrc/u8x8_d_st7565.c **** static const uint8_t u8x8_d_st7565_dogm128_init_seq[] = {
 185:..\..\..\u8g2\u8g2\csrc/u8x8_d_st7565.c ****     
 186:..\..\..\u8g2\u8g2\csrc/u8x8_d_st7565.c ****   U8X8_START_TRANSFER(),             	/* enable chip, delay is part of the transfer start */
 187:..\..\..\u8g2\u8g2\csrc/u8x8_d_st7565.c ****   
 188:..\..\..\u8g2\u8g2\csrc/u8x8_d_st7565.c ****   U8X8_C(0x0e2),            			/* soft reset */
 189:..\..\..\u8g2\u8g2\csrc/u8x8_d_st7565.c ****   U8X8_C(0x0ae),		                /* display off */
 190:..\..\..\u8g2\u8g2\csrc/u8x8_d_st7565.c ****   U8X8_C(0x040),		                /* set display start line to 0 */
 191:..\..\..\u8g2\u8g2\csrc/u8x8_d_st7565.c ****   
 192:..\..\..\u8g2\u8g2\csrc/u8x8_d_st7565.c ****   U8X8_C(0x0a1),		                /* ADC set to reverse */
 193:..\..\..\u8g2\u8g2\csrc/u8x8_d_st7565.c ****   U8X8_C(0x0c0),		                /* common output mode */
 194:..\..\..\u8g2\u8g2\csrc/u8x8_d_st7565.c ****   // Flipmode
 195:..\..\..\u8g2\u8g2\csrc/u8x8_d_st7565.c ****   // U8X8_C(0x0a0),		                /* ADC set to reverse */
ARM GAS  C:\Users\jesse\AppData\Local\Temp\cc9dv931.s 			page 8


 196:..\..\..\u8g2\u8g2\csrc/u8x8_d_st7565.c ****   // U8X8_C(0x0c8),		                /* common output mode */
 197:..\..\..\u8g2\u8g2\csrc/u8x8_d_st7565.c ****   
 198:..\..\..\u8g2\u8g2\csrc/u8x8_d_st7565.c ****   U8X8_C(0x0a6),		                /* display normal, bit val 0: LCD pixel off. */
 199:..\..\..\u8g2\u8g2\csrc/u8x8_d_st7565.c ****   U8X8_C(0x0a2),		                /* LCD bias 1/9 */
 200:..\..\..\u8g2\u8g2\csrc/u8x8_d_st7565.c ****   U8X8_C(0x02f),		                /* all power  control circuits on (regulator, booster and followe
 201:..\..\..\u8g2\u8g2\csrc/u8x8_d_st7565.c ****   U8X8_CA(0x0f8, 0x000),		/* set booster ratio to 4x */
 202:..\..\..\u8g2\u8g2\csrc/u8x8_d_st7565.c ****   U8X8_C(0x027),		                /* set V0 voltage resistor ratio to max  */
 203:..\..\..\u8g2\u8g2\csrc/u8x8_d_st7565.c ****   U8X8_CA(0x081, 0x018),		/* set contrast, contrast value, EA default: 0x016 */
 204:..\..\..\u8g2\u8g2\csrc/u8x8_d_st7565.c ****   
 205:..\..\..\u8g2\u8g2\csrc/u8x8_d_st7565.c ****   U8X8_C(0x0ae),		                /* display off */
 206:..\..\..\u8g2\u8g2\csrc/u8x8_d_st7565.c ****   U8X8_C(0x0a5),		                /* enter powersafe: all pixel on, issue 142 */
 207:..\..\..\u8g2\u8g2\csrc/u8x8_d_st7565.c ****   
 208:..\..\..\u8g2\u8g2\csrc/u8x8_d_st7565.c ****   U8X8_END_TRANSFER(),             	/* disable chip */
 209:..\..\..\u8g2\u8g2\csrc/u8x8_d_st7565.c ****   U8X8_END()             			/* end of sequence */
 210:..\..\..\u8g2\u8g2\csrc/u8x8_d_st7565.c **** };
 211:..\..\..\u8g2\u8g2\csrc/u8x8_d_st7565.c **** 
 212:..\..\..\u8g2\u8g2\csrc/u8x8_d_st7565.c **** uint8_t u8x8_d_st7565_ea_dogm128(u8x8_t *u8x8, uint8_t msg, uint8_t arg_int, void *arg_ptr)
 213:..\..\..\u8g2\u8g2\csrc/u8x8_d_st7565.c **** {
 194              		.loc 1 213 0
 195              		.cfi_startproc
 196              		@ args = 0, pretend = 0, frame = 0
 197              		@ frame_needed = 0, uses_anonymous_args = 0
 198              	.LVL32:
 199 0000 70B5     		push	{r4, r5, r6, lr}
 200              		.cfi_def_cfa_offset 16
 201              		.cfi_offset 4, -16
 202              		.cfi_offset 5, -12
 203              		.cfi_offset 6, -8
 204              		.cfi_offset 14, -4
 205              		.loc 1 213 0
 206 0002 0446     		mov	r4, r0
 207 0004 0D46     		mov	r5, r1
 208 0006 1646     		mov	r6, r2
 214:..\..\..\u8g2\u8g2\csrc/u8x8_d_st7565.c ****   /* call common procedure first and handle messages there */
 215:..\..\..\u8g2\u8g2\csrc/u8x8_d_st7565.c ****   if ( u8x8_d_st7565_common(u8x8, msg, arg_int, arg_ptr) == 0 )
 209              		.loc 1 215 0
 210 0008 FFF7FEFF 		bl	u8x8_d_st7565_common
 211              	.LVL33:
 212 000c 10BB     		cbnz	r0, .L25
 216:..\..\..\u8g2\u8g2\csrc/u8x8_d_st7565.c ****   {
 217:..\..\..\u8g2\u8g2\csrc/u8x8_d_st7565.c ****     /* msg not handled, then try here */
 218:..\..\..\u8g2\u8g2\csrc/u8x8_d_st7565.c ****     switch(msg)
 213              		.loc 1 218 0
 214 000e 0A2D     		cmp	r5, #10
 215 0010 08D0     		beq	.L21
 216 0012 0D2D     		cmp	r5, #13
 217 0014 0ED0     		beq	.L22
 218 0016 092D     		cmp	r5, #9
 219 0018 1DD1     		bne	.L20
 219:..\..\..\u8g2\u8g2\csrc/u8x8_d_st7565.c ****     {
 220:..\..\..\u8g2\u8g2\csrc/u8x8_d_st7565.c ****       case U8X8_MSG_DISPLAY_SETUP_MEMORY:
 221:..\..\..\u8g2\u8g2\csrc/u8x8_d_st7565.c **** 	u8x8_d_helper_display_setup_memory(u8x8, &u8x8_st7565_128x64_display_info);
 220              		.loc 1 221 0
 221 001a 0F49     		ldr	r1, .L27
 222 001c 2046     		mov	r0, r4
 223 001e FFF7FEFF 		bl	u8x8_d_helper_display_setup_memory
 224              	.LVL34:
ARM GAS  C:\Users\jesse\AppData\Local\Temp\cc9dv931.s 			page 9


 225 0022 17E0     		b	.L25
 226              	.L21:
 222:..\..\..\u8g2\u8g2\csrc/u8x8_d_st7565.c **** 	break;
 223:..\..\..\u8g2\u8g2\csrc/u8x8_d_st7565.c ****       case U8X8_MSG_DISPLAY_INIT:
 224:..\..\..\u8g2\u8g2\csrc/u8x8_d_st7565.c **** 	u8x8_d_helper_display_init(u8x8);
 227              		.loc 1 224 0
 228 0024 2046     		mov	r0, r4
 229 0026 FFF7FEFF 		bl	u8x8_d_helper_display_init
 230              	.LVL35:
 225:..\..\..\u8g2\u8g2\csrc/u8x8_d_st7565.c **** 	u8x8_cad_SendSequence(u8x8, u8x8_d_st7565_dogm128_init_seq);
 231              		.loc 1 225 0
 232 002a 0C49     		ldr	r1, .L27+4
 233 002c 2046     		mov	r0, r4
 234 002e FFF7FEFF 		bl	u8x8_cad_SendSequence
 235              	.LVL36:
 236 0032 0FE0     		b	.L25
 237              	.L22:
 226:..\..\..\u8g2\u8g2\csrc/u8x8_d_st7565.c **** 	break;
 227:..\..\..\u8g2\u8g2\csrc/u8x8_d_st7565.c ****       case U8X8_MSG_DISPLAY_SET_FLIP_MODE:
 228:..\..\..\u8g2\u8g2\csrc/u8x8_d_st7565.c **** 	if ( arg_int == 0 )
 238              		.loc 1 228 0
 239 0034 36B9     		cbnz	r6, .L24
 229:..\..\..\u8g2\u8g2\csrc/u8x8_d_st7565.c **** 	{
 230:..\..\..\u8g2\u8g2\csrc/u8x8_d_st7565.c **** 	  u8x8_cad_SendSequence(u8x8, u8x8_d_st7565_flip0_seq);
 240              		.loc 1 230 0
 241 0036 0A49     		ldr	r1, .L27+8
 242 0038 2046     		mov	r0, r4
 243 003a FFF7FEFF 		bl	u8x8_cad_SendSequence
 244              	.LVL37:
 231:..\..\..\u8g2\u8g2\csrc/u8x8_d_st7565.c **** 	  u8x8->x_offset = u8x8->display_info->default_x_offset;
 245              		.loc 1 231 0
 246 003e 2368     		ldr	r3, [r4]
 247 0040 9B7C     		ldrb	r3, [r3, #18]	@ zero_extendqisi2
 248 0042 05E0     		b	.L26
 249              	.L24:
 232:..\..\..\u8g2\u8g2\csrc/u8x8_d_st7565.c **** 	}
 233:..\..\..\u8g2\u8g2\csrc/u8x8_d_st7565.c **** 	else
 234:..\..\..\u8g2\u8g2\csrc/u8x8_d_st7565.c **** 	{
 235:..\..\..\u8g2\u8g2\csrc/u8x8_d_st7565.c **** 	  u8x8_cad_SendSequence(u8x8, u8x8_d_st7565_flip1_seq);
 250              		.loc 1 235 0
 251 0044 0749     		ldr	r1, .L27+12
 252 0046 2046     		mov	r0, r4
 253 0048 FFF7FEFF 		bl	u8x8_cad_SendSequence
 254              	.LVL38:
 236:..\..\..\u8g2\u8g2\csrc/u8x8_d_st7565.c **** 	  u8x8->x_offset = u8x8->display_info->flipmode_x_offset;
 255              		.loc 1 236 0
 256 004c 2368     		ldr	r3, [r4]
 257 004e DB7C     		ldrb	r3, [r3, #19]	@ zero_extendqisi2
 258              	.L26:
 259 0050 84F82230 		strb	r3, [r4, #34]
 260              	.L25:
 237:..\..\..\u8g2\u8g2\csrc/u8x8_d_st7565.c **** 	}	
 238:..\..\..\u8g2\u8g2\csrc/u8x8_d_st7565.c **** 	break;
 239:..\..\..\u8g2\u8g2\csrc/u8x8_d_st7565.c ****       default:
 240:..\..\..\u8g2\u8g2\csrc/u8x8_d_st7565.c **** 	return 0;		/* msg unknown */
 241:..\..\..\u8g2\u8g2\csrc/u8x8_d_st7565.c ****     }
 242:..\..\..\u8g2\u8g2\csrc/u8x8_d_st7565.c ****   }
ARM GAS  C:\Users\jesse\AppData\Local\Temp\cc9dv931.s 			page 10


 243:..\..\..\u8g2\u8g2\csrc/u8x8_d_st7565.c ****   return 1;
 261              		.loc 1 243 0
 262 0054 0120     		movs	r0, #1
 263              	.L20:
 244:..\..\..\u8g2\u8g2\csrc/u8x8_d_st7565.c **** }
 264              		.loc 1 244 0
 265 0056 70BD     		pop	{r4, r5, r6, pc}
 266              	.LVL39:
 267              	.L28:
 268              		.align	2
 269              	.L27:
 270 0058 10000000 		.word	.LANCHOR0+16
 271 005c 28000000 		.word	.LANCHOR0+40
 272 0060 49000000 		.word	.LANCHOR0+73
 273 0064 50000000 		.word	.LANCHOR0+80
 274              		.cfi_endproc
 275              	.LFE1:
 276              		.size	u8x8_d_st7565_ea_dogm128, .-u8x8_d_st7565_ea_dogm128
 277              		.section	.text.u8x8_d_st7565_lm6063,"ax",%progbits
 278              		.align	1
 279              		.global	u8x8_d_st7565_lm6063
 280              		.thumb
 281              		.thumb_func
 282              		.type	u8x8_d_st7565_lm6063, %function
 283              	u8x8_d_st7565_lm6063:
 284              	.LFB2:
 245:..\..\..\u8g2\u8g2\csrc/u8x8_d_st7565.c **** 
 246:..\..\..\u8g2\u8g2\csrc/u8x8_d_st7565.c **** 
 247:..\..\..\u8g2\u8g2\csrc/u8x8_d_st7565.c **** 
 248:..\..\..\u8g2\u8g2\csrc/u8x8_d_st7565.c **** /*================================================*/
 249:..\..\..\u8g2\u8g2\csrc/u8x8_d_st7565.c **** /* LM6063 https://github.com/olikraus/u8g2/issues/893 */
 250:..\..\..\u8g2\u8g2\csrc/u8x8_d_st7565.c **** 
 251:..\..\..\u8g2\u8g2\csrc/u8x8_d_st7565.c **** static const uint8_t u8x8_d_st7565_lm6063_init_seq[] = {
 252:..\..\..\u8g2\u8g2\csrc/u8x8_d_st7565.c ****     
 253:..\..\..\u8g2\u8g2\csrc/u8x8_d_st7565.c ****   U8X8_START_TRANSFER(),             	/* enable chip, delay is part of the transfer start */
 254:..\..\..\u8g2\u8g2\csrc/u8x8_d_st7565.c ****   
 255:..\..\..\u8g2\u8g2\csrc/u8x8_d_st7565.c ****   U8X8_C(0x0e2),            			/* soft reset */
 256:..\..\..\u8g2\u8g2\csrc/u8x8_d_st7565.c ****   U8X8_C(0x0ae),		                /* display off */
 257:..\..\..\u8g2\u8g2\csrc/u8x8_d_st7565.c ****   U8X8_C(0x040),		                /* set display start line to 0 */
 258:..\..\..\u8g2\u8g2\csrc/u8x8_d_st7565.c ****   
 259:..\..\..\u8g2\u8g2\csrc/u8x8_d_st7565.c ****   U8X8_C(0x0a1),		                /* ADC set to reverse */
 260:..\..\..\u8g2\u8g2\csrc/u8x8_d_st7565.c ****   U8X8_C(0x0c0),		                /* common output mode */
 261:..\..\..\u8g2\u8g2\csrc/u8x8_d_st7565.c ****   // Flipmode
 262:..\..\..\u8g2\u8g2\csrc/u8x8_d_st7565.c ****   // U8X8_C(0x0a0),		                /* ADC set to reverse */
 263:..\..\..\u8g2\u8g2\csrc/u8x8_d_st7565.c ****   // U8X8_C(0x0c8),		                /* common output mode */
 264:..\..\..\u8g2\u8g2\csrc/u8x8_d_st7565.c ****   
 265:..\..\..\u8g2\u8g2\csrc/u8x8_d_st7565.c ****   U8X8_C(0x0a6),		                /* display normal, bit val 0: LCD pixel off. */
 266:..\..\..\u8g2\u8g2\csrc/u8x8_d_st7565.c ****   U8X8_C(0x0a2),		                /* LCD bias 1/9 */
 267:..\..\..\u8g2\u8g2\csrc/u8x8_d_st7565.c ****   U8X8_C(0x02f),		                /* all power  control circuits on (regulator, booster and followe
 268:..\..\..\u8g2\u8g2\csrc/u8x8_d_st7565.c ****   U8X8_CA(0x0f8, 0x000),		/* set booster ratio to 4x */
 269:..\..\..\u8g2\u8g2\csrc/u8x8_d_st7565.c ****   U8X8_C(0x027),		                /* set V0 voltage resistor ratio to max  */
 270:..\..\..\u8g2\u8g2\csrc/u8x8_d_st7565.c ****   U8X8_CA(0x081, 50/4),		/* set contrast, contrast value, 40..60 seems to be good */
 271:..\..\..\u8g2\u8g2\csrc/u8x8_d_st7565.c ****   
 272:..\..\..\u8g2\u8g2\csrc/u8x8_d_st7565.c ****   U8X8_C(0x0ae),		                /* display off */
 273:..\..\..\u8g2\u8g2\csrc/u8x8_d_st7565.c ****   U8X8_C(0x0a5),		                /* enter powersafe: all pixel on, issue 142 */
 274:..\..\..\u8g2\u8g2\csrc/u8x8_d_st7565.c ****   
 275:..\..\..\u8g2\u8g2\csrc/u8x8_d_st7565.c ****   U8X8_END_TRANSFER(),             	/* disable chip */
ARM GAS  C:\Users\jesse\AppData\Local\Temp\cc9dv931.s 			page 11


 276:..\..\..\u8g2\u8g2\csrc/u8x8_d_st7565.c ****   U8X8_END()             			/* end of sequence */
 277:..\..\..\u8g2\u8g2\csrc/u8x8_d_st7565.c **** };
 278:..\..\..\u8g2\u8g2\csrc/u8x8_d_st7565.c **** 
 279:..\..\..\u8g2\u8g2\csrc/u8x8_d_st7565.c **** uint8_t u8x8_d_st7565_lm6063(u8x8_t *u8x8, uint8_t msg, uint8_t arg_int, void *arg_ptr)
 280:..\..\..\u8g2\u8g2\csrc/u8x8_d_st7565.c **** {
 285              		.loc 1 280 0
 286              		.cfi_startproc
 287              		@ args = 0, pretend = 0, frame = 0
 288              		@ frame_needed = 0, uses_anonymous_args = 0
 289              	.LVL40:
 290 0000 70B5     		push	{r4, r5, r6, lr}
 291              		.cfi_def_cfa_offset 16
 292              		.cfi_offset 4, -16
 293              		.cfi_offset 5, -12
 294              		.cfi_offset 6, -8
 295              		.cfi_offset 14, -4
 296              		.loc 1 280 0
 297 0002 0446     		mov	r4, r0
 298 0004 0D46     		mov	r5, r1
 299 0006 1646     		mov	r6, r2
 281:..\..\..\u8g2\u8g2\csrc/u8x8_d_st7565.c ****   /* call common procedure first and handle messages there */
 282:..\..\..\u8g2\u8g2\csrc/u8x8_d_st7565.c ****   if ( u8x8_d_st7565_common(u8x8, msg, arg_int, arg_ptr) == 0 )
 300              		.loc 1 282 0
 301 0008 FFF7FEFF 		bl	u8x8_d_st7565_common
 302              	.LVL41:
 303 000c 10BB     		cbnz	r0, .L35
 283:..\..\..\u8g2\u8g2\csrc/u8x8_d_st7565.c ****   {
 284:..\..\..\u8g2\u8g2\csrc/u8x8_d_st7565.c ****     /* msg not handled, then try here */
 285:..\..\..\u8g2\u8g2\csrc/u8x8_d_st7565.c ****     switch(msg)
 304              		.loc 1 285 0
 305 000e 0A2D     		cmp	r5, #10
 306 0010 08D0     		beq	.L31
 307 0012 0D2D     		cmp	r5, #13
 308 0014 0ED0     		beq	.L32
 309 0016 092D     		cmp	r5, #9
 310 0018 1DD1     		bne	.L30
 286:..\..\..\u8g2\u8g2\csrc/u8x8_d_st7565.c ****     {
 287:..\..\..\u8g2\u8g2\csrc/u8x8_d_st7565.c ****       case U8X8_MSG_DISPLAY_SETUP_MEMORY:
 288:..\..\..\u8g2\u8g2\csrc/u8x8_d_st7565.c **** 	u8x8_d_helper_display_setup_memory(u8x8, &u8x8_st7565_128x64_display_info);
 311              		.loc 1 288 0
 312 001a 0F49     		ldr	r1, .L37
 313 001c 2046     		mov	r0, r4
 314 001e FFF7FEFF 		bl	u8x8_d_helper_display_setup_memory
 315              	.LVL42:
 316 0022 17E0     		b	.L35
 317              	.L31:
 289:..\..\..\u8g2\u8g2\csrc/u8x8_d_st7565.c **** 	break;
 290:..\..\..\u8g2\u8g2\csrc/u8x8_d_st7565.c ****       case U8X8_MSG_DISPLAY_INIT:
 291:..\..\..\u8g2\u8g2\csrc/u8x8_d_st7565.c **** 	u8x8_d_helper_display_init(u8x8);
 318              		.loc 1 291 0
 319 0024 2046     		mov	r0, r4
 320 0026 FFF7FEFF 		bl	u8x8_d_helper_display_init
 321              	.LVL43:
 292:..\..\..\u8g2\u8g2\csrc/u8x8_d_st7565.c **** 	u8x8_cad_SendSequence(u8x8, u8x8_d_st7565_lm6063_init_seq);
 322              		.loc 1 292 0
 323 002a 0C49     		ldr	r1, .L37+4
 324 002c 2046     		mov	r0, r4
ARM GAS  C:\Users\jesse\AppData\Local\Temp\cc9dv931.s 			page 12


 325 002e FFF7FEFF 		bl	u8x8_cad_SendSequence
 326              	.LVL44:
 327 0032 0FE0     		b	.L35
 328              	.L32:
 293:..\..\..\u8g2\u8g2\csrc/u8x8_d_st7565.c **** 	break;
 294:..\..\..\u8g2\u8g2\csrc/u8x8_d_st7565.c ****       case U8X8_MSG_DISPLAY_SET_FLIP_MODE:
 295:..\..\..\u8g2\u8g2\csrc/u8x8_d_st7565.c **** 	if ( arg_int == 0 )
 329              		.loc 1 295 0
 330 0034 36B9     		cbnz	r6, .L34
 296:..\..\..\u8g2\u8g2\csrc/u8x8_d_st7565.c **** 	{
 297:..\..\..\u8g2\u8g2\csrc/u8x8_d_st7565.c **** 	  u8x8_cad_SendSequence(u8x8, u8x8_d_st7565_flip0_seq);
 331              		.loc 1 297 0
 332 0036 0A49     		ldr	r1, .L37+8
 333 0038 2046     		mov	r0, r4
 334 003a FFF7FEFF 		bl	u8x8_cad_SendSequence
 335              	.LVL45:
 298:..\..\..\u8g2\u8g2\csrc/u8x8_d_st7565.c **** 	  u8x8->x_offset = u8x8->display_info->default_x_offset;
 336              		.loc 1 298 0
 337 003e 2368     		ldr	r3, [r4]
 338 0040 9B7C     		ldrb	r3, [r3, #18]	@ zero_extendqisi2
 339 0042 05E0     		b	.L36
 340              	.L34:
 299:..\..\..\u8g2\u8g2\csrc/u8x8_d_st7565.c **** 	}
 300:..\..\..\u8g2\u8g2\csrc/u8x8_d_st7565.c **** 	else
 301:..\..\..\u8g2\u8g2\csrc/u8x8_d_st7565.c **** 	{
 302:..\..\..\u8g2\u8g2\csrc/u8x8_d_st7565.c **** 	  u8x8_cad_SendSequence(u8x8, u8x8_d_st7565_flip1_seq);
 341              		.loc 1 302 0
 342 0044 0749     		ldr	r1, .L37+12
 343 0046 2046     		mov	r0, r4
 344 0048 FFF7FEFF 		bl	u8x8_cad_SendSequence
 345              	.LVL46:
 303:..\..\..\u8g2\u8g2\csrc/u8x8_d_st7565.c **** 	  u8x8->x_offset = u8x8->display_info->flipmode_x_offset;
 346              		.loc 1 303 0
 347 004c 2368     		ldr	r3, [r4]
 348 004e DB7C     		ldrb	r3, [r3, #19]	@ zero_extendqisi2
 349              	.L36:
 350 0050 84F82230 		strb	r3, [r4, #34]
 351              	.L35:
 304:..\..\..\u8g2\u8g2\csrc/u8x8_d_st7565.c **** 	}	
 305:..\..\..\u8g2\u8g2\csrc/u8x8_d_st7565.c **** 	break;
 306:..\..\..\u8g2\u8g2\csrc/u8x8_d_st7565.c ****       default:
 307:..\..\..\u8g2\u8g2\csrc/u8x8_d_st7565.c **** 	return 0;		/* msg unknown */
 308:..\..\..\u8g2\u8g2\csrc/u8x8_d_st7565.c ****     }
 309:..\..\..\u8g2\u8g2\csrc/u8x8_d_st7565.c ****   }
 310:..\..\..\u8g2\u8g2\csrc/u8x8_d_st7565.c ****   return 1;
 352              		.loc 1 310 0
 353 0054 0120     		movs	r0, #1
 354              	.L30:
 311:..\..\..\u8g2\u8g2\csrc/u8x8_d_st7565.c **** }
 355              		.loc 1 311 0
 356 0056 70BD     		pop	{r4, r5, r6, pc}
 357              	.LVL47:
 358              	.L38:
 359              		.align	2
 360              	.L37:
 361 0058 10000000 		.word	.LANCHOR0+16
 362 005c 57000000 		.word	.LANCHOR0+87
ARM GAS  C:\Users\jesse\AppData\Local\Temp\cc9dv931.s 			page 13


 363 0060 49000000 		.word	.LANCHOR0+73
 364 0064 50000000 		.word	.LANCHOR0+80
 365              		.cfi_endproc
 366              	.LFE2:
 367              		.size	u8x8_d_st7565_lm6063, .-u8x8_d_st7565_lm6063
 368              		.section	.text.u8x8_d_st7565_64128n,"ax",%progbits
 369              		.align	1
 370              		.global	u8x8_d_st7565_64128n
 371              		.thumb
 372              		.thumb_func
 373              		.type	u8x8_d_st7565_64128n, %function
 374              	u8x8_d_st7565_64128n:
 375              	.LFB3:
 312:..\..\..\u8g2\u8g2\csrc/u8x8_d_st7565.c **** 
 313:..\..\..\u8g2\u8g2\csrc/u8x8_d_st7565.c **** 
 314:..\..\..\u8g2\u8g2\csrc/u8x8_d_st7565.c **** /*================================================*/
 315:..\..\..\u8g2\u8g2\csrc/u8x8_d_st7565.c **** /* Displaytech 64128n */
 316:..\..\..\u8g2\u8g2\csrc/u8x8_d_st7565.c **** 
 317:..\..\..\u8g2\u8g2\csrc/u8x8_d_st7565.c **** static const uint8_t u8x8_d_st7565_64128n_init_seq[] = {
 318:..\..\..\u8g2\u8g2\csrc/u8x8_d_st7565.c ****     
 319:..\..\..\u8g2\u8g2\csrc/u8x8_d_st7565.c ****   U8X8_START_TRANSFER(),             	/* enable chip, delay is part of the transfer start */
 320:..\..\..\u8g2\u8g2\csrc/u8x8_d_st7565.c **** 
 321:..\..\..\u8g2\u8g2\csrc/u8x8_d_st7565.c ****   #ifdef NOT_WORKING
 322:..\..\..\u8g2\u8g2\csrc/u8x8_d_st7565.c ****   
 323:..\..\..\u8g2\u8g2\csrc/u8x8_d_st7565.c ****   U8X8_C(0x0e2),            			/* soft reset */
 324:..\..\..\u8g2\u8g2\csrc/u8x8_d_st7565.c ****   U8X8_C(0x0ae),		                /* display off */
 325:..\..\..\u8g2\u8g2\csrc/u8x8_d_st7565.c ****   U8X8_C(0x040),		                /* set display start line to 0 */
 326:..\..\..\u8g2\u8g2\csrc/u8x8_d_st7565.c ****   
 327:..\..\..\u8g2\u8g2\csrc/u8x8_d_st7565.c ****   U8X8_C(0x0a1),		                /* ADC set to reverse */
 328:..\..\..\u8g2\u8g2\csrc/u8x8_d_st7565.c ****   U8X8_C(0x0c0),		                /* common output mode */
 329:..\..\..\u8g2\u8g2\csrc/u8x8_d_st7565.c ****   // Flipmode
 330:..\..\..\u8g2\u8g2\csrc/u8x8_d_st7565.c ****   // U8X8_C(0x0a0),		                /* ADC set to reverse */
 331:..\..\..\u8g2\u8g2\csrc/u8x8_d_st7565.c ****   // U8X8_C(0x0c8),		                /* common output mode */
 332:..\..\..\u8g2\u8g2\csrc/u8x8_d_st7565.c ****   
 333:..\..\..\u8g2\u8g2\csrc/u8x8_d_st7565.c ****   U8X8_C(0x0a6),		                /* display normal, bit val 0: LCD pixel off. */
 334:..\..\..\u8g2\u8g2\csrc/u8x8_d_st7565.c ****   U8X8_C(0x0a2),		                /* LCD bias 1/9 */
 335:..\..\..\u8g2\u8g2\csrc/u8x8_d_st7565.c ****   U8X8_C(0x02f),		                /* all power  control circuits on */
 336:..\..\..\u8g2\u8g2\csrc/u8x8_d_st7565.c ****   //U8X8_CA(0x0f8, 0x000),		/* set booster ratio to 4x */
 337:..\..\..\u8g2\u8g2\csrc/u8x8_d_st7565.c ****   //U8X8_C(0x027),		                /* set V0 voltage resistor ratio to max  */
 338:..\..\..\u8g2\u8g2\csrc/u8x8_d_st7565.c **** 
 339:..\..\..\u8g2\u8g2\csrc/u8x8_d_st7565.c ****   U8X8_C(0x010),                   		/* Set V0 voltage resistor ratio. Setting for controlling brig
 340:..\..\..\u8g2\u8g2\csrc/u8x8_d_st7565.c ****   
 341:..\..\..\u8g2\u8g2\csrc/u8x8_d_st7565.c ****   
 342:..\..\..\u8g2\u8g2\csrc/u8x8_d_st7565.c ****   U8X8_CA(0x081, 0x01e),		/* set contrast, contrast value */
 343:..\..\..\u8g2\u8g2\csrc/u8x8_d_st7565.c ****   
 344:..\..\..\u8g2\u8g2\csrc/u8x8_d_st7565.c ****   U8X8_C(0x0ae),		                /* display off */
 345:..\..\..\u8g2\u8g2\csrc/u8x8_d_st7565.c ****   U8X8_C(0x0a5),		                /* enter powersafe: all pixel on, issue 142 */
 346:..\..\..\u8g2\u8g2\csrc/u8x8_d_st7565.c **** #else
 347:..\..\..\u8g2\u8g2\csrc/u8x8_d_st7565.c **** 
 348:..\..\..\u8g2\u8g2\csrc/u8x8_d_st7565.c **** 
 349:..\..\..\u8g2\u8g2\csrc/u8x8_d_st7565.c ****   U8X8_C(0x0e2),            	   /* soft reset */
 350:..\..\..\u8g2\u8g2\csrc/u8x8_d_st7565.c ****   U8X8_C(0x0A2),   				   /* 0x0a2: LCD bias 1/9 (according to Displaytech 64128N datasheet) */
 351:..\..\..\u8g2\u8g2\csrc/u8x8_d_st7565.c ****   
 352:..\..\..\u8g2\u8g2\csrc/u8x8_d_st7565.c ****   U8X8_C(0x0a1),		                /* ADC set to reverse */
 353:..\..\..\u8g2\u8g2\csrc/u8x8_d_st7565.c ****   U8X8_C(0x0c0),		                /* common output mode */
 354:..\..\..\u8g2\u8g2\csrc/u8x8_d_st7565.c ****   //U8X8_C(0x0A0),  				   /* Normal ADC Select (according to Displaytech 64128N datasheet) */
 355:..\..\..\u8g2\u8g2\csrc/u8x8_d_st7565.c ****   //U8X8_C(0x0c8),                   /* common output mode: set scan direction normal operation/SHL
ARM GAS  C:\Users\jesse\AppData\Local\Temp\cc9dv931.s 			page 14


 356:..\..\..\u8g2\u8g2\csrc/u8x8_d_st7565.c ****   
 357:..\..\..\u8g2\u8g2\csrc/u8x8_d_st7565.c ****   U8X8_C(0x040),		           /* Display start line for Displaytech 64128N */
 358:..\..\..\u8g2\u8g2\csrc/u8x8_d_st7565.c ****   U8X8_C(0x028 | 0x04),            /* power control: turn on voltage converter */
 359:..\..\..\u8g2\u8g2\csrc/u8x8_d_st7565.c ****   U8X8_C(0x028 | 0x06),            /* power control: turn on voltage regulator */
 360:..\..\..\u8g2\u8g2\csrc/u8x8_d_st7565.c ****   U8X8_C(0x028 | 0x07),            /* power control: turn on voltage follower */
 361:..\..\..\u8g2\u8g2\csrc/u8x8_d_st7565.c ****   U8X8_C(0x010),                   /* Set V0 voltage resistor ratio. Setting for controlling bright
 362:..\..\..\u8g2\u8g2\csrc/u8x8_d_st7565.c **** 					      /* 19 Jul 17: Not sure if this is true, cmd 0x1? is used to set the column */
 363:..\..\..\u8g2\u8g2\csrc/u8x8_d_st7565.c ****   U8X8_C(0x0a6),                   /* display normal, bit val 0: LCD pixel off. */
 364:..\..\..\u8g2\u8g2\csrc/u8x8_d_st7565.c ****   U8X8_C(0x081),      	           /* set contrast */
 365:..\..\..\u8g2\u8g2\csrc/u8x8_d_st7565.c ****   U8X8_C(0x01e),        	       /* Contrast value. Setting for controlling brightness of Displaytec
 366:..\..\..\u8g2\u8g2\csrc/u8x8_d_st7565.c ****   //U8X8_C(0x0af),		           /* display on */
 367:..\..\..\u8g2\u8g2\csrc/u8x8_d_st7565.c ****   //U8X8_C(0x0a5),		           /* display all points, ST7565 */
 368:..\..\..\u8g2\u8g2\csrc/u8x8_d_st7565.c ****   //U8X8_C(0x0a4),		           /* normal display */
 369:..\..\..\u8g2\u8g2\csrc/u8x8_d_st7565.c **** 
 370:..\..\..\u8g2\u8g2\csrc/u8x8_d_st7565.c ****   U8X8_C(0x0ae),		                /* display off */
 371:..\..\..\u8g2\u8g2\csrc/u8x8_d_st7565.c **** 
 372:..\..\..\u8g2\u8g2\csrc/u8x8_d_st7565.c **** 
 373:..\..\..\u8g2\u8g2\csrc/u8x8_d_st7565.c **** #endif
 374:..\..\..\u8g2\u8g2\csrc/u8x8_d_st7565.c **** 
 375:..\..\..\u8g2\u8g2\csrc/u8x8_d_st7565.c ****   U8X8_END_TRANSFER(),             	/* disable chip */
 376:..\..\..\u8g2\u8g2\csrc/u8x8_d_st7565.c ****   U8X8_END()             			/* end of sequence */
 377:..\..\..\u8g2\u8g2\csrc/u8x8_d_st7565.c **** };
 378:..\..\..\u8g2\u8g2\csrc/u8x8_d_st7565.c **** 
 379:..\..\..\u8g2\u8g2\csrc/u8x8_d_st7565.c **** static const u8x8_display_info_t u8x8_st7565_64128n_display_info =
 380:..\..\..\u8g2\u8g2\csrc/u8x8_d_st7565.c **** {
 381:..\..\..\u8g2\u8g2\csrc/u8x8_d_st7565.c ****   /* chip_enable_level = */ 0,
 382:..\..\..\u8g2\u8g2\csrc/u8x8_d_st7565.c ****   /* chip_disable_level = */ 1,
 383:..\..\..\u8g2\u8g2\csrc/u8x8_d_st7565.c ****   
 384:..\..\..\u8g2\u8g2\csrc/u8x8_d_st7565.c ****   /* post_chip_enable_wait_ns = */ 150,	/* st7565 datasheet, table 26, tcsh */
 385:..\..\..\u8g2\u8g2\csrc/u8x8_d_st7565.c ****   /* pre_chip_disable_wait_ns = */ 50,	/* st7565 datasheet, table 26, tcss */
 386:..\..\..\u8g2\u8g2\csrc/u8x8_d_st7565.c ****   /* reset_pulse_width_ms = */ 1, 
 387:..\..\..\u8g2\u8g2\csrc/u8x8_d_st7565.c ****   /* post_reset_wait_ms = */ 1, 
 388:..\..\..\u8g2\u8g2\csrc/u8x8_d_st7565.c ****   /* sda_setup_time_ns = */ 50,		/* st7565 datasheet, table 26, tsds */
 389:..\..\..\u8g2\u8g2\csrc/u8x8_d_st7565.c ****   /* sck_pulse_width_ns = */ 120,	/* half of cycle time (100ns according to datasheet), AVR: below 
 390:..\..\..\u8g2\u8g2\csrc/u8x8_d_st7565.c ****   /* sck_clock_hz = */ 4000000UL,	/* since Arduino 1.6.0, the SPI bus speed in Hz. Should be  10000
 391:..\..\..\u8g2\u8g2\csrc/u8x8_d_st7565.c ****   /* spi_mode = */ 0,		/* active high, rising edge */
 392:..\..\..\u8g2\u8g2\csrc/u8x8_d_st7565.c ****   /* i2c_bus_clock_100kHz = */ 4,
 393:..\..\..\u8g2\u8g2\csrc/u8x8_d_st7565.c ****   /* data_setup_time_ns = */ 40,	/* st7565 datasheet, table 24, tds8 */
 394:..\..\..\u8g2\u8g2\csrc/u8x8_d_st7565.c ****   /* write_pulse_width_ns = */ 80,	/* st7565 datasheet, table 24, tcclw */
 395:..\..\..\u8g2\u8g2\csrc/u8x8_d_st7565.c ****   /* tile_width = */ 16,		/* width of 16*8=128 pixel */
 396:..\..\..\u8g2\u8g2\csrc/u8x8_d_st7565.c ****   /* tile_hight = */ 8,
 397:..\..\..\u8g2\u8g2\csrc/u8x8_d_st7565.c ****   /* default_x_offset = */ 4,
 398:..\..\..\u8g2\u8g2\csrc/u8x8_d_st7565.c ****   /* flipmode_x_offset = */ 0,
 399:..\..\..\u8g2\u8g2\csrc/u8x8_d_st7565.c ****   /* pixel_width = */ 128,
 400:..\..\..\u8g2\u8g2\csrc/u8x8_d_st7565.c ****   /* pixel_height = */ 64
 401:..\..\..\u8g2\u8g2\csrc/u8x8_d_st7565.c **** };
 402:..\..\..\u8g2\u8g2\csrc/u8x8_d_st7565.c **** 
 403:..\..\..\u8g2\u8g2\csrc/u8x8_d_st7565.c **** uint8_t u8x8_d_st7565_64128n(u8x8_t *u8x8, uint8_t msg, uint8_t arg_int, void *arg_ptr)
 404:..\..\..\u8g2\u8g2\csrc/u8x8_d_st7565.c **** {
 376              		.loc 1 404 0
 377              		.cfi_startproc
 378              		@ args = 0, pretend = 0, frame = 0
 379              		@ frame_needed = 0, uses_anonymous_args = 0
 380              	.LVL48:
 381 0000 70B5     		push	{r4, r5, r6, lr}
 382              		.cfi_def_cfa_offset 16
 383              		.cfi_offset 4, -16
ARM GAS  C:\Users\jesse\AppData\Local\Temp\cc9dv931.s 			page 15


 384              		.cfi_offset 5, -12
 385              		.cfi_offset 6, -8
 386              		.cfi_offset 14, -4
 387              		.loc 1 404 0
 388 0002 0446     		mov	r4, r0
 389 0004 0D46     		mov	r5, r1
 390 0006 1646     		mov	r6, r2
 405:..\..\..\u8g2\u8g2\csrc/u8x8_d_st7565.c ****   /* call common procedure first and handle messages there */
 406:..\..\..\u8g2\u8g2\csrc/u8x8_d_st7565.c ****   if ( u8x8_d_st7565_common(u8x8, msg, arg_int, arg_ptr) == 0 )
 391              		.loc 1 406 0
 392 0008 FFF7FEFF 		bl	u8x8_d_st7565_common
 393              	.LVL49:
 394 000c 10BB     		cbnz	r0, .L45
 407:..\..\..\u8g2\u8g2\csrc/u8x8_d_st7565.c ****   {
 408:..\..\..\u8g2\u8g2\csrc/u8x8_d_st7565.c ****     /* msg not handled, then try here */
 409:..\..\..\u8g2\u8g2\csrc/u8x8_d_st7565.c ****     switch(msg)
 395              		.loc 1 409 0
 396 000e 0A2D     		cmp	r5, #10
 397 0010 08D0     		beq	.L41
 398 0012 0D2D     		cmp	r5, #13
 399 0014 0ED0     		beq	.L42
 400 0016 092D     		cmp	r5, #9
 401 0018 1DD1     		bne	.L40
 410:..\..\..\u8g2\u8g2\csrc/u8x8_d_st7565.c ****     {
 411:..\..\..\u8g2\u8g2\csrc/u8x8_d_st7565.c ****       case U8X8_MSG_DISPLAY_SETUP_MEMORY:
 412:..\..\..\u8g2\u8g2\csrc/u8x8_d_st7565.c **** 	u8x8_d_helper_display_setup_memory(u8x8, &u8x8_st7565_64128n_display_info);
 402              		.loc 1 412 0
 403 001a 0F49     		ldr	r1, .L47
 404 001c 2046     		mov	r0, r4
 405 001e FFF7FEFF 		bl	u8x8_d_helper_display_setup_memory
 406              	.LVL50:
 407 0022 17E0     		b	.L45
 408              	.L41:
 413:..\..\..\u8g2\u8g2\csrc/u8x8_d_st7565.c **** 	break;
 414:..\..\..\u8g2\u8g2\csrc/u8x8_d_st7565.c ****       case U8X8_MSG_DISPLAY_INIT:
 415:..\..\..\u8g2\u8g2\csrc/u8x8_d_st7565.c **** 	u8x8_d_helper_display_init(u8x8);
 409              		.loc 1 415 0
 410 0024 2046     		mov	r0, r4
 411 0026 FFF7FEFF 		bl	u8x8_d_helper_display_init
 412              	.LVL51:
 416:..\..\..\u8g2\u8g2\csrc/u8x8_d_st7565.c **** 	u8x8_cad_SendSequence(u8x8, u8x8_d_st7565_64128n_init_seq);
 413              		.loc 1 416 0
 414 002a 0C49     		ldr	r1, .L47+4
 415 002c 2046     		mov	r0, r4
 416 002e FFF7FEFF 		bl	u8x8_cad_SendSequence
 417              	.LVL52:
 418 0032 0FE0     		b	.L45
 419              	.L42:
 417:..\..\..\u8g2\u8g2\csrc/u8x8_d_st7565.c **** 	break;
 418:..\..\..\u8g2\u8g2\csrc/u8x8_d_st7565.c ****       case U8X8_MSG_DISPLAY_SET_FLIP_MODE:
 419:..\..\..\u8g2\u8g2\csrc/u8x8_d_st7565.c **** 	if ( arg_int == 0 )
 420              		.loc 1 419 0
 421 0034 36B9     		cbnz	r6, .L44
 420:..\..\..\u8g2\u8g2\csrc/u8x8_d_st7565.c **** 	{
 421:..\..\..\u8g2\u8g2\csrc/u8x8_d_st7565.c **** 	  u8x8_cad_SendSequence(u8x8, u8x8_d_st7565_flip0_seq);
 422              		.loc 1 421 0
 423 0036 0A49     		ldr	r1, .L47+8
ARM GAS  C:\Users\jesse\AppData\Local\Temp\cc9dv931.s 			page 16


 424 0038 2046     		mov	r0, r4
 425 003a FFF7FEFF 		bl	u8x8_cad_SendSequence
 426              	.LVL53:
 422:..\..\..\u8g2\u8g2\csrc/u8x8_d_st7565.c **** 	  u8x8->x_offset = u8x8->display_info->default_x_offset;
 427              		.loc 1 422 0
 428 003e 2368     		ldr	r3, [r4]
 429 0040 9B7C     		ldrb	r3, [r3, #18]	@ zero_extendqisi2
 430 0042 05E0     		b	.L46
 431              	.L44:
 423:..\..\..\u8g2\u8g2\csrc/u8x8_d_st7565.c **** 	}
 424:..\..\..\u8g2\u8g2\csrc/u8x8_d_st7565.c **** 	else
 425:..\..\..\u8g2\u8g2\csrc/u8x8_d_st7565.c **** 	{
 426:..\..\..\u8g2\u8g2\csrc/u8x8_d_st7565.c **** 	  u8x8_cad_SendSequence(u8x8, u8x8_d_st7565_flip1_seq);
 432              		.loc 1 426 0
 433 0044 0749     		ldr	r1, .L47+12
 434 0046 2046     		mov	r0, r4
 435 0048 FFF7FEFF 		bl	u8x8_cad_SendSequence
 436              	.LVL54:
 427:..\..\..\u8g2\u8g2\csrc/u8x8_d_st7565.c **** 	  u8x8->x_offset = u8x8->display_info->flipmode_x_offset;
 437              		.loc 1 427 0
 438 004c 2368     		ldr	r3, [r4]
 439 004e DB7C     		ldrb	r3, [r3, #19]	@ zero_extendqisi2
 440              	.L46:
 441 0050 84F82230 		strb	r3, [r4, #34]
 442              	.L45:
 428:..\..\..\u8g2\u8g2\csrc/u8x8_d_st7565.c **** 	}	
 429:..\..\..\u8g2\u8g2\csrc/u8x8_d_st7565.c **** 	break;
 430:..\..\..\u8g2\u8g2\csrc/u8x8_d_st7565.c ****       default:
 431:..\..\..\u8g2\u8g2\csrc/u8x8_d_st7565.c **** 	return 0;		/* msg unknown */
 432:..\..\..\u8g2\u8g2\csrc/u8x8_d_st7565.c ****     }
 433:..\..\..\u8g2\u8g2\csrc/u8x8_d_st7565.c ****   }
 434:..\..\..\u8g2\u8g2\csrc/u8x8_d_st7565.c ****   return 1;
 443              		.loc 1 434 0
 444 0054 0120     		movs	r0, #1
 445              	.L40:
 435:..\..\..\u8g2\u8g2\csrc/u8x8_d_st7565.c **** }
 446              		.loc 1 435 0
 447 0056 70BD     		pop	{r4, r5, r6, pc}
 448              	.LVL55:
 449              	.L48:
 450              		.align	2
 451              	.L47:
 452 0058 78000000 		.word	.LANCHOR0+120
 453 005c 90000000 		.word	.LANCHOR0+144
 454 0060 49000000 		.word	.LANCHOR0+73
 455 0064 50000000 		.word	.LANCHOR0+80
 456              		.cfi_endproc
 457              	.LFE3:
 458              		.size	u8x8_d_st7565_64128n, .-u8x8_d_st7565_64128n
 459              		.section	.text.u8x8_d_st7565_zolen_128x64,"ax",%progbits
 460              		.align	1
 461              		.global	u8x8_d_st7565_zolen_128x64
 462              		.thumb
 463              		.thumb_func
 464              		.type	u8x8_d_st7565_zolen_128x64, %function
 465              	u8x8_d_st7565_zolen_128x64:
 466              	.LFB4:
ARM GAS  C:\Users\jesse\AppData\Local\Temp\cc9dv931.s 			page 17


 436:..\..\..\u8g2\u8g2\csrc/u8x8_d_st7565.c **** 
 437:..\..\..\u8g2\u8g2\csrc/u8x8_d_st7565.c **** /*================================================*/
 438:..\..\..\u8g2\u8g2\csrc/u8x8_d_st7565.c **** /* ZOLEN 128x64  */
 439:..\..\..\u8g2\u8g2\csrc/u8x8_d_st7565.c **** 
 440:..\..\..\u8g2\u8g2\csrc/u8x8_d_st7565.c **** static const uint8_t u8x8_d_st7565_zolen_128x64_init_seq[] = {
 441:..\..\..\u8g2\u8g2\csrc/u8x8_d_st7565.c ****     
 442:..\..\..\u8g2\u8g2\csrc/u8x8_d_st7565.c ****   U8X8_START_TRANSFER(),             	/* enable chip, delay is part of the transfer start */
 443:..\..\..\u8g2\u8g2\csrc/u8x8_d_st7565.c ****   
 444:..\..\..\u8g2\u8g2\csrc/u8x8_d_st7565.c ****   U8X8_C(0x0e2),            			/* soft reset */
 445:..\..\..\u8g2\u8g2\csrc/u8x8_d_st7565.c ****   U8X8_C(0x0ae),		                /* display off */
 446:..\..\..\u8g2\u8g2\csrc/u8x8_d_st7565.c ****   U8X8_C(0x040),		                /* set display start line to 0 */
 447:..\..\..\u8g2\u8g2\csrc/u8x8_d_st7565.c ****   
 448:..\..\..\u8g2\u8g2\csrc/u8x8_d_st7565.c ****   U8X8_C(0x0a1),		                /* ADC set to reverse */
 449:..\..\..\u8g2\u8g2\csrc/u8x8_d_st7565.c ****   U8X8_C(0x0c8),		                /* common output mode */
 450:..\..\..\u8g2\u8g2\csrc/u8x8_d_st7565.c ****   // Flipmode
 451:..\..\..\u8g2\u8g2\csrc/u8x8_d_st7565.c ****   // U8X8_C(0x0a0),		                /* ADC set to reverse */
 452:..\..\..\u8g2\u8g2\csrc/u8x8_d_st7565.c ****   // U8X8_C(0x0c0),		                /* common output mode */
 453:..\..\..\u8g2\u8g2\csrc/u8x8_d_st7565.c ****   
 454:..\..\..\u8g2\u8g2\csrc/u8x8_d_st7565.c ****   U8X8_C(0x0a6),		                /* display normal, bit val 0: LCD pixel off. */
 455:..\..\..\u8g2\u8g2\csrc/u8x8_d_st7565.c ****   U8X8_C(0x0a2),		                /* LCD bias 1/9 */
 456:..\..\..\u8g2\u8g2\csrc/u8x8_d_st7565.c ****   U8X8_C(0x02f),		                /* all power  control circuits on (regulator, booster and followe
 457:..\..\..\u8g2\u8g2\csrc/u8x8_d_st7565.c ****   U8X8_CA(0x0f8, 0x000),		/* set booster ratio to 4x */
 458:..\..\..\u8g2\u8g2\csrc/u8x8_d_st7565.c ****   U8X8_C(0x027),		                /* set V0 voltage resistor ratio to max  */
 459:..\..\..\u8g2\u8g2\csrc/u8x8_d_st7565.c ****   U8X8_CA(0x081, 0x007),		/* set contrast, contrast value, EA default: 0x016 */
 460:..\..\..\u8g2\u8g2\csrc/u8x8_d_st7565.c ****   
 461:..\..\..\u8g2\u8g2\csrc/u8x8_d_st7565.c ****   U8X8_C(0x0ae),		                /* display off */
 462:..\..\..\u8g2\u8g2\csrc/u8x8_d_st7565.c ****   U8X8_C(0x0a5),		                /* enter powersafe: all pixel on, issue 142 */
 463:..\..\..\u8g2\u8g2\csrc/u8x8_d_st7565.c ****   
 464:..\..\..\u8g2\u8g2\csrc/u8x8_d_st7565.c ****   U8X8_END_TRANSFER(),             	/* disable chip */
 465:..\..\..\u8g2\u8g2\csrc/u8x8_d_st7565.c ****   U8X8_END()             			/* end of sequence */
 466:..\..\..\u8g2\u8g2\csrc/u8x8_d_st7565.c **** };
 467:..\..\..\u8g2\u8g2\csrc/u8x8_d_st7565.c **** 
 468:..\..\..\u8g2\u8g2\csrc/u8x8_d_st7565.c **** uint8_t u8x8_d_st7565_zolen_128x64(u8x8_t *u8x8, uint8_t msg, uint8_t arg_int, void *arg_ptr)
 469:..\..\..\u8g2\u8g2\csrc/u8x8_d_st7565.c **** {
 467              		.loc 1 469 0
 468              		.cfi_startproc
 469              		@ args = 0, pretend = 0, frame = 0
 470              		@ frame_needed = 0, uses_anonymous_args = 0
 471              	.LVL56:
 472 0000 70B5     		push	{r4, r5, r6, lr}
 473              		.cfi_def_cfa_offset 16
 474              		.cfi_offset 4, -16
 475              		.cfi_offset 5, -12
 476              		.cfi_offset 6, -8
 477              		.cfi_offset 14, -4
 478              		.loc 1 469 0
 479 0002 0446     		mov	r4, r0
 480 0004 0D46     		mov	r5, r1
 481 0006 1646     		mov	r6, r2
 470:..\..\..\u8g2\u8g2\csrc/u8x8_d_st7565.c ****   /* call common procedure first and handle messages there */
 471:..\..\..\u8g2\u8g2\csrc/u8x8_d_st7565.c ****   if ( u8x8_d_st7565_common(u8x8, msg, arg_int, arg_ptr) == 0 )
 482              		.loc 1 471 0
 483 0008 FFF7FEFF 		bl	u8x8_d_st7565_common
 484              	.LVL57:
 485 000c 10BB     		cbnz	r0, .L55
 472:..\..\..\u8g2\u8g2\csrc/u8x8_d_st7565.c ****   {
 473:..\..\..\u8g2\u8g2\csrc/u8x8_d_st7565.c ****     /* msg not handled, then try here */
ARM GAS  C:\Users\jesse\AppData\Local\Temp\cc9dv931.s 			page 18


 474:..\..\..\u8g2\u8g2\csrc/u8x8_d_st7565.c ****     switch(msg)
 486              		.loc 1 474 0
 487 000e 0A2D     		cmp	r5, #10
 488 0010 08D0     		beq	.L51
 489 0012 0D2D     		cmp	r5, #13
 490 0014 0ED0     		beq	.L52
 491 0016 092D     		cmp	r5, #9
 492 0018 1DD1     		bne	.L50
 475:..\..\..\u8g2\u8g2\csrc/u8x8_d_st7565.c ****     {
 476:..\..\..\u8g2\u8g2\csrc/u8x8_d_st7565.c ****       case U8X8_MSG_DISPLAY_SETUP_MEMORY:
 477:..\..\..\u8g2\u8g2\csrc/u8x8_d_st7565.c **** 	u8x8_d_helper_display_setup_memory(u8x8, &u8x8_st7565_128x64_display_info);
 493              		.loc 1 477 0
 494 001a 0F49     		ldr	r1, .L57
 495 001c 2046     		mov	r0, r4
 496 001e FFF7FEFF 		bl	u8x8_d_helper_display_setup_memory
 497              	.LVL58:
 498 0022 17E0     		b	.L55
 499              	.L51:
 478:..\..\..\u8g2\u8g2\csrc/u8x8_d_st7565.c **** 	break;
 479:..\..\..\u8g2\u8g2\csrc/u8x8_d_st7565.c ****       case U8X8_MSG_DISPLAY_INIT:
 480:..\..\..\u8g2\u8g2\csrc/u8x8_d_st7565.c **** 	u8x8_d_helper_display_init(u8x8);
 500              		.loc 1 480 0
 501 0024 2046     		mov	r0, r4
 502 0026 FFF7FEFF 		bl	u8x8_d_helper_display_init
 503              	.LVL59:
 481:..\..\..\u8g2\u8g2\csrc/u8x8_d_st7565.c **** 	u8x8_cad_SendSequence(u8x8, u8x8_d_st7565_zolen_128x64_init_seq);
 504              		.loc 1 481 0
 505 002a 0C49     		ldr	r1, .L57+4
 506 002c 2046     		mov	r0, r4
 507 002e FFF7FEFF 		bl	u8x8_cad_SendSequence
 508              	.LVL60:
 509 0032 0FE0     		b	.L55
 510              	.L52:
 482:..\..\..\u8g2\u8g2\csrc/u8x8_d_st7565.c **** 	break;
 483:..\..\..\u8g2\u8g2\csrc/u8x8_d_st7565.c ****       case U8X8_MSG_DISPLAY_SET_FLIP_MODE:
 484:..\..\..\u8g2\u8g2\csrc/u8x8_d_st7565.c **** 	if ( arg_int == 0 )
 511              		.loc 1 484 0
 512 0034 36B9     		cbnz	r6, .L54
 485:..\..\..\u8g2\u8g2\csrc/u8x8_d_st7565.c **** 	{
 486:..\..\..\u8g2\u8g2\csrc/u8x8_d_st7565.c **** 	  u8x8_cad_SendSequence(u8x8, u8x8_d_st7565_zflip0_seq);
 513              		.loc 1 486 0
 514 0036 0A49     		ldr	r1, .L57+8
 515 0038 2046     		mov	r0, r4
 516 003a FFF7FEFF 		bl	u8x8_cad_SendSequence
 517              	.LVL61:
 487:..\..\..\u8g2\u8g2\csrc/u8x8_d_st7565.c **** 	  u8x8->x_offset = u8x8->display_info->default_x_offset;
 518              		.loc 1 487 0
 519 003e 2368     		ldr	r3, [r4]
 520 0040 9B7C     		ldrb	r3, [r3, #18]	@ zero_extendqisi2
 521 0042 05E0     		b	.L56
 522              	.L54:
 488:..\..\..\u8g2\u8g2\csrc/u8x8_d_st7565.c **** 	}
 489:..\..\..\u8g2\u8g2\csrc/u8x8_d_st7565.c **** 	else
 490:..\..\..\u8g2\u8g2\csrc/u8x8_d_st7565.c **** 	{
 491:..\..\..\u8g2\u8g2\csrc/u8x8_d_st7565.c **** 	  u8x8_cad_SendSequence(u8x8, u8x8_d_st7565_zflip1_seq);
 523              		.loc 1 491 0
 524 0044 0749     		ldr	r1, .L57+12
ARM GAS  C:\Users\jesse\AppData\Local\Temp\cc9dv931.s 			page 19


 525 0046 2046     		mov	r0, r4
 526 0048 FFF7FEFF 		bl	u8x8_cad_SendSequence
 527              	.LVL62:
 492:..\..\..\u8g2\u8g2\csrc/u8x8_d_st7565.c **** 	  u8x8->x_offset = u8x8->display_info->flipmode_x_offset;
 528              		.loc 1 492 0
 529 004c 2368     		ldr	r3, [r4]
 530 004e DB7C     		ldrb	r3, [r3, #19]	@ zero_extendqisi2
 531              	.L56:
 532 0050 84F82230 		strb	r3, [r4, #34]
 533              	.L55:
 493:..\..\..\u8g2\u8g2\csrc/u8x8_d_st7565.c **** 	}	
 494:..\..\..\u8g2\u8g2\csrc/u8x8_d_st7565.c **** 	break;
 495:..\..\..\u8g2\u8g2\csrc/u8x8_d_st7565.c ****       default:
 496:..\..\..\u8g2\u8g2\csrc/u8x8_d_st7565.c **** 	return 0;		/* msg unknown */
 497:..\..\..\u8g2\u8g2\csrc/u8x8_d_st7565.c ****     }
 498:..\..\..\u8g2\u8g2\csrc/u8x8_d_st7565.c ****   }
 499:..\..\..\u8g2\u8g2\csrc/u8x8_d_st7565.c ****   return 1;
 534              		.loc 1 499 0
 535 0054 0120     		movs	r0, #1
 536              	.L50:
 500:..\..\..\u8g2\u8g2\csrc/u8x8_d_st7565.c **** }
 537              		.loc 1 500 0
 538 0056 70BD     		pop	{r4, r5, r6, pc}
 539              	.LVL63:
 540              	.L58:
 541              		.align	2
 542              	.L57:
 543 0058 10000000 		.word	.LANCHOR0+16
 544 005c AD000000 		.word	.LANCHOR0+173
 545 0060 CE000000 		.word	.LANCHOR0+206
 546 0064 D5000000 		.word	.LANCHOR0+213
 547              		.cfi_endproc
 548              	.LFE4:
 549              		.size	u8x8_d_st7565_zolen_128x64, .-u8x8_d_st7565_zolen_128x64
 550              		.section	.text.u8x8_d_st7565_nhd_c12832,"ax",%progbits
 551              		.align	1
 552              		.global	u8x8_d_st7565_nhd_c12832
 553              		.thumb
 554              		.thumb_func
 555              		.type	u8x8_d_st7565_nhd_c12832, %function
 556              	u8x8_d_st7565_nhd_c12832:
 557              	.LFB5:
 501:..\..\..\u8g2\u8g2\csrc/u8x8_d_st7565.c **** 
 502:..\..\..\u8g2\u8g2\csrc/u8x8_d_st7565.c **** 
 503:..\..\..\u8g2\u8g2\csrc/u8x8_d_st7565.c **** 
 504:..\..\..\u8g2\u8g2\csrc/u8x8_d_st7565.c **** /*================================================*/
 505:..\..\..\u8g2\u8g2\csrc/u8x8_d_st7565.c **** /* NHD-C12832 */
 506:..\..\..\u8g2\u8g2\csrc/u8x8_d_st7565.c **** 
 507:..\..\..\u8g2\u8g2\csrc/u8x8_d_st7565.c **** static const u8x8_display_info_t u8x8_st7565_128x32_display_info =
 508:..\..\..\u8g2\u8g2\csrc/u8x8_d_st7565.c **** {
 509:..\..\..\u8g2\u8g2\csrc/u8x8_d_st7565.c ****   /* chip_enable_level = */ 0,
 510:..\..\..\u8g2\u8g2\csrc/u8x8_d_st7565.c ****   /* chip_disable_level = */ 1,
 511:..\..\..\u8g2\u8g2\csrc/u8x8_d_st7565.c ****   
 512:..\..\..\u8g2\u8g2\csrc/u8x8_d_st7565.c ****   /* post_chip_enable_wait_ns = */ 150,	/* st7565 datasheet, table 26, tcsh */
 513:..\..\..\u8g2\u8g2\csrc/u8x8_d_st7565.c ****   /* pre_chip_disable_wait_ns = */ 50,	/* st7565 datasheet, table 26, tcss */
 514:..\..\..\u8g2\u8g2\csrc/u8x8_d_st7565.c ****   /* reset_pulse_width_ms = */ 1, 
 515:..\..\..\u8g2\u8g2\csrc/u8x8_d_st7565.c ****   /* post_reset_wait_ms = */ 1, 
ARM GAS  C:\Users\jesse\AppData\Local\Temp\cc9dv931.s 			page 20


 516:..\..\..\u8g2\u8g2\csrc/u8x8_d_st7565.c ****   /* sda_setup_time_ns = */ 50,		/* st7565 datasheet, table 26, tsds */
 517:..\..\..\u8g2\u8g2\csrc/u8x8_d_st7565.c ****   /* sck_pulse_width_ns = */ 120,	/* half of cycle time (100ns according to datasheet), AVR: below 
 518:..\..\..\u8g2\u8g2\csrc/u8x8_d_st7565.c ****   /* sck_clock_hz = */ 4000000UL,	/* since Arduino 1.6.0, the SPI bus speed in Hz. Should be  10000
 519:..\..\..\u8g2\u8g2\csrc/u8x8_d_st7565.c ****   /* spi_mode = */ 0,		/* active high, rising edge */
 520:..\..\..\u8g2\u8g2\csrc/u8x8_d_st7565.c ****   /* i2c_bus_clock_100kHz = */ 4,
 521:..\..\..\u8g2\u8g2\csrc/u8x8_d_st7565.c ****   /* data_setup_time_ns = */ 40,	/* st7565 datasheet, table 24, tds8 */
 522:..\..\..\u8g2\u8g2\csrc/u8x8_d_st7565.c ****   /* write_pulse_width_ns = */ 80,	/* st7565 datasheet, table 24, tcclw */
 523:..\..\..\u8g2\u8g2\csrc/u8x8_d_st7565.c ****   /* tile_width = */ 16,		/* width of 16*8=128 pixel */
 524:..\..\..\u8g2\u8g2\csrc/u8x8_d_st7565.c ****   /* tile_hight = */ 4,
 525:..\..\..\u8g2\u8g2\csrc/u8x8_d_st7565.c ****   /* default_x_offset = */ 4,
 526:..\..\..\u8g2\u8g2\csrc/u8x8_d_st7565.c ****   /* flipmode_x_offset = */ 0,
 527:..\..\..\u8g2\u8g2\csrc/u8x8_d_st7565.c ****   /* pixel_width = */ 128,
 528:..\..\..\u8g2\u8g2\csrc/u8x8_d_st7565.c ****   /* pixel_height = */ 32
 529:..\..\..\u8g2\u8g2\csrc/u8x8_d_st7565.c **** };
 530:..\..\..\u8g2\u8g2\csrc/u8x8_d_st7565.c **** 
 531:..\..\..\u8g2\u8g2\csrc/u8x8_d_st7565.c **** 
 532:..\..\..\u8g2\u8g2\csrc/u8x8_d_st7565.c **** static const uint8_t u8x8_d_st7565_nhd_c12832_init_seq[] = {
 533:..\..\..\u8g2\u8g2\csrc/u8x8_d_st7565.c ****     
 534:..\..\..\u8g2\u8g2\csrc/u8x8_d_st7565.c ****   U8X8_START_TRANSFER(),             	/* enable chip, delay is part of the transfer start */
 535:..\..\..\u8g2\u8g2\csrc/u8x8_d_st7565.c ****   
 536:..\..\..\u8g2\u8g2\csrc/u8x8_d_st7565.c ****   U8X8_C(0x0e2),            			/* soft reset */
 537:..\..\..\u8g2\u8g2\csrc/u8x8_d_st7565.c ****   U8X8_C(0x0ae),		                /* display off */
 538:..\..\..\u8g2\u8g2\csrc/u8x8_d_st7565.c ****   U8X8_C(0x040),		                /* set display start line to 0 */
 539:..\..\..\u8g2\u8g2\csrc/u8x8_d_st7565.c ****   
 540:..\..\..\u8g2\u8g2\csrc/u8x8_d_st7565.c ****   U8X8_C(0x0a1),		                /* ADC set to reverse */
 541:..\..\..\u8g2\u8g2\csrc/u8x8_d_st7565.c ****   U8X8_C(0x0c0),		                /* common output mode */
 542:..\..\..\u8g2\u8g2\csrc/u8x8_d_st7565.c ****   // Flipmode
 543:..\..\..\u8g2\u8g2\csrc/u8x8_d_st7565.c ****   //U8X8_C(0x0a0),		                /* ADC set to reverse */
 544:..\..\..\u8g2\u8g2\csrc/u8x8_d_st7565.c ****   //U8X8_C(0x0c8),		                /* common output mode */
 545:..\..\..\u8g2\u8g2\csrc/u8x8_d_st7565.c ****   
 546:..\..\..\u8g2\u8g2\csrc/u8x8_d_st7565.c ****   U8X8_C(0x0a6),		                /* display normal, bit val 0: LCD pixel off. */
 547:..\..\..\u8g2\u8g2\csrc/u8x8_d_st7565.c ****   U8X8_C(0x0a2),		                /* LCD bias 1/9 */
 548:..\..\..\u8g2\u8g2\csrc/u8x8_d_st7565.c ****   U8X8_C(0x02f),		                /* all power  control circuits on */
 549:..\..\..\u8g2\u8g2\csrc/u8x8_d_st7565.c ****   U8X8_CA(0x0f8, 0x000),		/* set booster ratio to 4x */
 550:..\..\..\u8g2\u8g2\csrc/u8x8_d_st7565.c ****   U8X8_C(0x023),		                /* set V0 voltage resistor ratio to large*/
 551:..\..\..\u8g2\u8g2\csrc/u8x8_d_st7565.c ****   U8X8_CA(0x081, 0x00a),		/* set contrast, contrast value NHD C12832 */
 552:..\..\..\u8g2\u8g2\csrc/u8x8_d_st7565.c ****   
 553:..\..\..\u8g2\u8g2\csrc/u8x8_d_st7565.c ****   U8X8_C(0x0ae),		                /* display off */
 554:..\..\..\u8g2\u8g2\csrc/u8x8_d_st7565.c ****   U8X8_C(0x0a5),		                /* enter powersafe: all pixel on, issue 142 */
 555:..\..\..\u8g2\u8g2\csrc/u8x8_d_st7565.c ****   
 556:..\..\..\u8g2\u8g2\csrc/u8x8_d_st7565.c ****   U8X8_END_TRANSFER(),             	/* disable chip */
 557:..\..\..\u8g2\u8g2\csrc/u8x8_d_st7565.c ****   U8X8_END()             			/* end of sequence */
 558:..\..\..\u8g2\u8g2\csrc/u8x8_d_st7565.c **** };
 559:..\..\..\u8g2\u8g2\csrc/u8x8_d_st7565.c **** 
 560:..\..\..\u8g2\u8g2\csrc/u8x8_d_st7565.c **** uint8_t u8x8_d_st7565_nhd_c12832(u8x8_t *u8x8, uint8_t msg, uint8_t arg_int, void *arg_ptr)
 561:..\..\..\u8g2\u8g2\csrc/u8x8_d_st7565.c **** {
 558              		.loc 1 561 0
 559              		.cfi_startproc
 560              		@ args = 0, pretend = 0, frame = 0
 561              		@ frame_needed = 0, uses_anonymous_args = 0
 562              	.LVL64:
 563 0000 70B5     		push	{r4, r5, r6, lr}
 564              		.cfi_def_cfa_offset 16
 565              		.cfi_offset 4, -16
 566              		.cfi_offset 5, -12
 567              		.cfi_offset 6, -8
 568              		.cfi_offset 14, -4
ARM GAS  C:\Users\jesse\AppData\Local\Temp\cc9dv931.s 			page 21


 569              		.loc 1 561 0
 570 0002 0446     		mov	r4, r0
 571 0004 0D46     		mov	r5, r1
 572 0006 1646     		mov	r6, r2
 562:..\..\..\u8g2\u8g2\csrc/u8x8_d_st7565.c ****   /* call common procedure first and handle messages there */
 563:..\..\..\u8g2\u8g2\csrc/u8x8_d_st7565.c ****   if ( u8x8_d_st7565_common(u8x8, msg, arg_int, arg_ptr) == 0 )
 573              		.loc 1 563 0
 574 0008 FFF7FEFF 		bl	u8x8_d_st7565_common
 575              	.LVL65:
 576 000c 10BB     		cbnz	r0, .L65
 564:..\..\..\u8g2\u8g2\csrc/u8x8_d_st7565.c ****   {
 565:..\..\..\u8g2\u8g2\csrc/u8x8_d_st7565.c ****     /* msg not handled, then try here */
 566:..\..\..\u8g2\u8g2\csrc/u8x8_d_st7565.c ****     switch(msg)
 577              		.loc 1 566 0
 578 000e 0A2D     		cmp	r5, #10
 579 0010 08D0     		beq	.L61
 580 0012 0D2D     		cmp	r5, #13
 581 0014 0ED0     		beq	.L62
 582 0016 092D     		cmp	r5, #9
 583 0018 1DD1     		bne	.L60
 567:..\..\..\u8g2\u8g2\csrc/u8x8_d_st7565.c ****     {
 568:..\..\..\u8g2\u8g2\csrc/u8x8_d_st7565.c ****       case U8X8_MSG_DISPLAY_SETUP_MEMORY:
 569:..\..\..\u8g2\u8g2\csrc/u8x8_d_st7565.c **** 	u8x8_d_helper_display_setup_memory(u8x8, &u8x8_st7565_128x32_display_info);
 584              		.loc 1 569 0
 585 001a 0F49     		ldr	r1, .L67
 586 001c 2046     		mov	r0, r4
 587 001e FFF7FEFF 		bl	u8x8_d_helper_display_setup_memory
 588              	.LVL66:
 589 0022 17E0     		b	.L65
 590              	.L61:
 570:..\..\..\u8g2\u8g2\csrc/u8x8_d_st7565.c **** 	break;
 571:..\..\..\u8g2\u8g2\csrc/u8x8_d_st7565.c ****       case U8X8_MSG_DISPLAY_INIT:
 572:..\..\..\u8g2\u8g2\csrc/u8x8_d_st7565.c **** 	u8x8_d_helper_display_init(u8x8);
 591              		.loc 1 572 0
 592 0024 2046     		mov	r0, r4
 593 0026 FFF7FEFF 		bl	u8x8_d_helper_display_init
 594              	.LVL67:
 573:..\..\..\u8g2\u8g2\csrc/u8x8_d_st7565.c **** 	u8x8_cad_SendSequence(u8x8, u8x8_d_st7565_nhd_c12832_init_seq);
 595              		.loc 1 573 0
 596 002a 0C49     		ldr	r1, .L67+4
 597 002c 2046     		mov	r0, r4
 598 002e FFF7FEFF 		bl	u8x8_cad_SendSequence
 599              	.LVL68:
 600 0032 0FE0     		b	.L65
 601              	.L62:
 574:..\..\..\u8g2\u8g2\csrc/u8x8_d_st7565.c **** 	break;
 575:..\..\..\u8g2\u8g2\csrc/u8x8_d_st7565.c ****       case U8X8_MSG_DISPLAY_SET_FLIP_MODE:
 576:..\..\..\u8g2\u8g2\csrc/u8x8_d_st7565.c **** 	if ( arg_int == 0 )
 602              		.loc 1 576 0
 603 0034 36B9     		cbnz	r6, .L64
 577:..\..\..\u8g2\u8g2\csrc/u8x8_d_st7565.c **** 	{
 578:..\..\..\u8g2\u8g2\csrc/u8x8_d_st7565.c **** 	  u8x8_cad_SendSequence(u8x8, u8x8_d_st7565_flip0_seq);
 604              		.loc 1 578 0
 605 0036 0A49     		ldr	r1, .L67+8
 606 0038 2046     		mov	r0, r4
 607 003a FFF7FEFF 		bl	u8x8_cad_SendSequence
 608              	.LVL69:
ARM GAS  C:\Users\jesse\AppData\Local\Temp\cc9dv931.s 			page 22


 579:..\..\..\u8g2\u8g2\csrc/u8x8_d_st7565.c **** 	  u8x8->x_offset = u8x8->display_info->default_x_offset;
 609              		.loc 1 579 0
 610 003e 2368     		ldr	r3, [r4]
 611 0040 9B7C     		ldrb	r3, [r3, #18]	@ zero_extendqisi2
 612 0042 05E0     		b	.L66
 613              	.L64:
 580:..\..\..\u8g2\u8g2\csrc/u8x8_d_st7565.c **** 	}
 581:..\..\..\u8g2\u8g2\csrc/u8x8_d_st7565.c **** 	else
 582:..\..\..\u8g2\u8g2\csrc/u8x8_d_st7565.c **** 	{
 583:..\..\..\u8g2\u8g2\csrc/u8x8_d_st7565.c **** 	  u8x8_cad_SendSequence(u8x8, u8x8_d_st7565_flip1_seq);
 614              		.loc 1 583 0
 615 0044 0749     		ldr	r1, .L67+12
 616 0046 2046     		mov	r0, r4
 617 0048 FFF7FEFF 		bl	u8x8_cad_SendSequence
 618              	.LVL70:
 584:..\..\..\u8g2\u8g2\csrc/u8x8_d_st7565.c **** 	  u8x8->x_offset = u8x8->display_info->flipmode_x_offset;
 619              		.loc 1 584 0
 620 004c 2368     		ldr	r3, [r4]
 621 004e DB7C     		ldrb	r3, [r3, #19]	@ zero_extendqisi2
 622              	.L66:
 623 0050 84F82230 		strb	r3, [r4, #34]
 624              	.L65:
 585:..\..\..\u8g2\u8g2\csrc/u8x8_d_st7565.c **** 	}	
 586:..\..\..\u8g2\u8g2\csrc/u8x8_d_st7565.c **** 	break;
 587:..\..\..\u8g2\u8g2\csrc/u8x8_d_st7565.c ****       default:
 588:..\..\..\u8g2\u8g2\csrc/u8x8_d_st7565.c **** 	return 0;		/* msg unknown */
 589:..\..\..\u8g2\u8g2\csrc/u8x8_d_st7565.c ****     }
 590:..\..\..\u8g2\u8g2\csrc/u8x8_d_st7565.c ****   }
 591:..\..\..\u8g2\u8g2\csrc/u8x8_d_st7565.c ****   return 1;
 625              		.loc 1 591 0
 626 0054 0120     		movs	r0, #1
 627              	.L60:
 592:..\..\..\u8g2\u8g2\csrc/u8x8_d_st7565.c **** }
 628              		.loc 1 592 0
 629 0056 70BD     		pop	{r4, r5, r6, pc}
 630              	.LVL71:
 631              	.L68:
 632              		.align	2
 633              	.L67:
 634 0058 DC000000 		.word	.LANCHOR0+220
 635 005c F4000000 		.word	.LANCHOR0+244
 636 0060 49000000 		.word	.LANCHOR0+73
 637 0064 50000000 		.word	.LANCHOR0+80
 638              		.cfi_endproc
 639              	.LFE5:
 640              		.size	u8x8_d_st7565_nhd_c12832, .-u8x8_d_st7565_nhd_c12832
 641              		.section	.text.u8x8_d_st7565_nhd_c12864,"ax",%progbits
 642              		.align	1
 643              		.global	u8x8_d_st7565_nhd_c12864
 644              		.thumb
 645              		.thumb_func
 646              		.type	u8x8_d_st7565_nhd_c12864, %function
 647              	u8x8_d_st7565_nhd_c12864:
 648              	.LFB6:
 593:..\..\..\u8g2\u8g2\csrc/u8x8_d_st7565.c **** 
 594:..\..\..\u8g2\u8g2\csrc/u8x8_d_st7565.c **** /*================================================*/
 595:..\..\..\u8g2\u8g2\csrc/u8x8_d_st7565.c **** /* NHD-C12864 */
ARM GAS  C:\Users\jesse\AppData\Local\Temp\cc9dv931.s 			page 23


 596:..\..\..\u8g2\u8g2\csrc/u8x8_d_st7565.c **** 
 597:..\..\..\u8g2\u8g2\csrc/u8x8_d_st7565.c **** static const u8x8_display_info_t u8x8_st7565_nhd_c12864_display_info =
 598:..\..\..\u8g2\u8g2\csrc/u8x8_d_st7565.c **** {
 599:..\..\..\u8g2\u8g2\csrc/u8x8_d_st7565.c ****   /* chip_enable_level = */ 0,
 600:..\..\..\u8g2\u8g2\csrc/u8x8_d_st7565.c ****   /* chip_disable_level = */ 1,
 601:..\..\..\u8g2\u8g2\csrc/u8x8_d_st7565.c ****   
 602:..\..\..\u8g2\u8g2\csrc/u8x8_d_st7565.c ****   /* post_chip_enable_wait_ns = */ 150,	/* st7565 datasheet, table 26, tcsh */
 603:..\..\..\u8g2\u8g2\csrc/u8x8_d_st7565.c ****   /* pre_chip_disable_wait_ns = */ 50,	/* st7565 datasheet, table 26, tcss */
 604:..\..\..\u8g2\u8g2\csrc/u8x8_d_st7565.c ****   /* reset_pulse_width_ms = */ 1, 
 605:..\..\..\u8g2\u8g2\csrc/u8x8_d_st7565.c ****   /* post_reset_wait_ms = */ 1, 
 606:..\..\..\u8g2\u8g2\csrc/u8x8_d_st7565.c ****   /* sda_setup_time_ns = */ 50,		/* st7565 datasheet, table 26, tsds */
 607:..\..\..\u8g2\u8g2\csrc/u8x8_d_st7565.c ****   /* sck_pulse_width_ns = */ 120,	/* half of cycle time (100ns according to datasheet), AVR: below 
 608:..\..\..\u8g2\u8g2\csrc/u8x8_d_st7565.c ****   /* sck_clock_hz = */ 4000000UL,	/* since Arduino 1.6.0, the SPI bus speed in Hz. Should be  10000
 609:..\..\..\u8g2\u8g2\csrc/u8x8_d_st7565.c ****   /* spi_mode = */ 0,		/* active high, rising edge */
 610:..\..\..\u8g2\u8g2\csrc/u8x8_d_st7565.c ****   /* i2c_bus_clock_100kHz = */ 4,
 611:..\..\..\u8g2\u8g2\csrc/u8x8_d_st7565.c ****   /* data_setup_time_ns = */ 40,	/* st7565 datasheet, table 24, tds8 */
 612:..\..\..\u8g2\u8g2\csrc/u8x8_d_st7565.c ****   /* write_pulse_width_ns = */ 80,	/* st7565 datasheet, table 24, tcclw */
 613:..\..\..\u8g2\u8g2\csrc/u8x8_d_st7565.c ****   /* tile_width = */ 16,		/* width of 16*8=128 pixel */
 614:..\..\..\u8g2\u8g2\csrc/u8x8_d_st7565.c ****   /* tile_hight = */ 8,
 615:..\..\..\u8g2\u8g2\csrc/u8x8_d_st7565.c ****   /* default_x_offset = */ 4,
 616:..\..\..\u8g2\u8g2\csrc/u8x8_d_st7565.c ****   /* flipmode_x_offset = */ 0,
 617:..\..\..\u8g2\u8g2\csrc/u8x8_d_st7565.c ****   /* pixel_width = */ 128,
 618:..\..\..\u8g2\u8g2\csrc/u8x8_d_st7565.c ****   /* pixel_height = */ 64
 619:..\..\..\u8g2\u8g2\csrc/u8x8_d_st7565.c **** };
 620:..\..\..\u8g2\u8g2\csrc/u8x8_d_st7565.c **** 
 621:..\..\..\u8g2\u8g2\csrc/u8x8_d_st7565.c **** 
 622:..\..\..\u8g2\u8g2\csrc/u8x8_d_st7565.c **** static const uint8_t u8x8_d_st7565_nhd_c12864_init_seq[] = {
 623:..\..\..\u8g2\u8g2\csrc/u8x8_d_st7565.c ****     
 624:..\..\..\u8g2\u8g2\csrc/u8x8_d_st7565.c ****   U8X8_START_TRANSFER(),             	/* enable chip, delay is part of the transfer start */
 625:..\..\..\u8g2\u8g2\csrc/u8x8_d_st7565.c ****   
 626:..\..\..\u8g2\u8g2\csrc/u8x8_d_st7565.c ****   U8X8_C(0x0e2),            			/* soft reset */
 627:..\..\..\u8g2\u8g2\csrc/u8x8_d_st7565.c ****   U8X8_C(0x0ae),		                /* display off */
 628:..\..\..\u8g2\u8g2\csrc/u8x8_d_st7565.c ****   U8X8_C(0x040),		                /* set display start line to 0 */
 629:..\..\..\u8g2\u8g2\csrc/u8x8_d_st7565.c ****   
 630:..\..\..\u8g2\u8g2\csrc/u8x8_d_st7565.c ****   U8X8_C(0x0a1),		                /* ADC set to reverse */
 631:..\..\..\u8g2\u8g2\csrc/u8x8_d_st7565.c ****   U8X8_C(0x0c0),		                /* common output mode */
 632:..\..\..\u8g2\u8g2\csrc/u8x8_d_st7565.c ****   // Flipmode
 633:..\..\..\u8g2\u8g2\csrc/u8x8_d_st7565.c ****   //U8X8_C(0x0a0),		                /* ADC set to reverse */
 634:..\..\..\u8g2\u8g2\csrc/u8x8_d_st7565.c ****   //U8X8_C(0x0c8),		                /* common output mode */
 635:..\..\..\u8g2\u8g2\csrc/u8x8_d_st7565.c ****   
 636:..\..\..\u8g2\u8g2\csrc/u8x8_d_st7565.c ****   U8X8_C(0x0a6),		                /* display normal, bit val 0: LCD pixel off. */
 637:..\..\..\u8g2\u8g2\csrc/u8x8_d_st7565.c ****   U8X8_C(0x0a2),		                /* LCD bias 1/9 */
 638:..\..\..\u8g2\u8g2\csrc/u8x8_d_st7565.c ****   U8X8_C(0x02f),		                /* all power  control circuits on */
 639:..\..\..\u8g2\u8g2\csrc/u8x8_d_st7565.c ****   U8X8_CA(0x0f8, 0x000),		/* set booster ratio to 4x */
 640:..\..\..\u8g2\u8g2\csrc/u8x8_d_st7565.c ****   U8X8_C(0x025),		                /* set V0 voltage resistor ratio to large,  issue 1678: changed f
 641:..\..\..\u8g2\u8g2\csrc/u8x8_d_st7565.c ****   U8X8_CA(0x081, 170),			/* set contrast, contrast value NHD C12864, see issue 186, increased contr
 642:..\..\..\u8g2\u8g2\csrc/u8x8_d_st7565.c ****   
 643:..\..\..\u8g2\u8g2\csrc/u8x8_d_st7565.c ****   U8X8_C(0x0ae),		                /* display off */
 644:..\..\..\u8g2\u8g2\csrc/u8x8_d_st7565.c ****   U8X8_C(0x0a5),		                /* enter powersafe: all pixel on, issue 142 */
 645:..\..\..\u8g2\u8g2\csrc/u8x8_d_st7565.c ****   
 646:..\..\..\u8g2\u8g2\csrc/u8x8_d_st7565.c ****   U8X8_END_TRANSFER(),             	/* disable chip */
 647:..\..\..\u8g2\u8g2\csrc/u8x8_d_st7565.c ****   U8X8_END()             			/* end of sequence */
 648:..\..\..\u8g2\u8g2\csrc/u8x8_d_st7565.c **** };
 649:..\..\..\u8g2\u8g2\csrc/u8x8_d_st7565.c **** 
 650:..\..\..\u8g2\u8g2\csrc/u8x8_d_st7565.c **** uint8_t u8x8_d_st7565_nhd_c12864(u8x8_t *u8x8, uint8_t msg, uint8_t arg_int, void *arg_ptr)
 651:..\..\..\u8g2\u8g2\csrc/u8x8_d_st7565.c **** {
 649              		.loc 1 651 0
ARM GAS  C:\Users\jesse\AppData\Local\Temp\cc9dv931.s 			page 24


 650              		.cfi_startproc
 651              		@ args = 0, pretend = 0, frame = 0
 652              		@ frame_needed = 0, uses_anonymous_args = 0
 653              	.LVL72:
 654 0000 70B5     		push	{r4, r5, r6, lr}
 655              		.cfi_def_cfa_offset 16
 656              		.cfi_offset 4, -16
 657              		.cfi_offset 5, -12
 658              		.cfi_offset 6, -8
 659              		.cfi_offset 14, -4
 660              		.loc 1 651 0
 661 0002 0446     		mov	r4, r0
 662 0004 0D46     		mov	r5, r1
 663 0006 1646     		mov	r6, r2
 652:..\..\..\u8g2\u8g2\csrc/u8x8_d_st7565.c ****   /* call common procedure first and handle messages there */
 653:..\..\..\u8g2\u8g2\csrc/u8x8_d_st7565.c ****   if ( u8x8_d_st7565_common(u8x8, msg, arg_int, arg_ptr) == 0 )
 664              		.loc 1 653 0
 665 0008 FFF7FEFF 		bl	u8x8_d_st7565_common
 666              	.LVL73:
 667 000c 10BB     		cbnz	r0, .L75
 654:..\..\..\u8g2\u8g2\csrc/u8x8_d_st7565.c ****   {
 655:..\..\..\u8g2\u8g2\csrc/u8x8_d_st7565.c ****     /* msg not handled, then try here */
 656:..\..\..\u8g2\u8g2\csrc/u8x8_d_st7565.c ****     switch(msg)
 668              		.loc 1 656 0
 669 000e 0A2D     		cmp	r5, #10
 670 0010 08D0     		beq	.L71
 671 0012 0D2D     		cmp	r5, #13
 672 0014 0ED0     		beq	.L72
 673 0016 092D     		cmp	r5, #9
 674 0018 1DD1     		bne	.L70
 657:..\..\..\u8g2\u8g2\csrc/u8x8_d_st7565.c ****     {
 658:..\..\..\u8g2\u8g2\csrc/u8x8_d_st7565.c ****       case U8X8_MSG_DISPLAY_SETUP_MEMORY:
 659:..\..\..\u8g2\u8g2\csrc/u8x8_d_st7565.c **** 	u8x8_d_helper_display_setup_memory(u8x8, &u8x8_st7565_nhd_c12864_display_info);
 675              		.loc 1 659 0
 676 001a 0F49     		ldr	r1, .L77
 677 001c 2046     		mov	r0, r4
 678 001e FFF7FEFF 		bl	u8x8_d_helper_display_setup_memory
 679              	.LVL74:
 680 0022 17E0     		b	.L75
 681              	.L71:
 660:..\..\..\u8g2\u8g2\csrc/u8x8_d_st7565.c **** 	break;
 661:..\..\..\u8g2\u8g2\csrc/u8x8_d_st7565.c ****       case U8X8_MSG_DISPLAY_INIT:
 662:..\..\..\u8g2\u8g2\csrc/u8x8_d_st7565.c **** 	u8x8_d_helper_display_init(u8x8);
 682              		.loc 1 662 0
 683 0024 2046     		mov	r0, r4
 684 0026 FFF7FEFF 		bl	u8x8_d_helper_display_init
 685              	.LVL75:
 663:..\..\..\u8g2\u8g2\csrc/u8x8_d_st7565.c **** 	u8x8_cad_SendSequence(u8x8, u8x8_d_st7565_nhd_c12864_init_seq);
 686              		.loc 1 663 0
 687 002a 0C49     		ldr	r1, .L77+4
 688 002c 2046     		mov	r0, r4
 689 002e FFF7FEFF 		bl	u8x8_cad_SendSequence
 690              	.LVL76:
 691 0032 0FE0     		b	.L75
 692              	.L72:
 664:..\..\..\u8g2\u8g2\csrc/u8x8_d_st7565.c **** 	break;
 665:..\..\..\u8g2\u8g2\csrc/u8x8_d_st7565.c ****       case U8X8_MSG_DISPLAY_SET_FLIP_MODE:
ARM GAS  C:\Users\jesse\AppData\Local\Temp\cc9dv931.s 			page 25


 666:..\..\..\u8g2\u8g2\csrc/u8x8_d_st7565.c **** 	if ( arg_int == 0 )
 693              		.loc 1 666 0
 694 0034 36B9     		cbnz	r6, .L74
 695              	.LVL77:
 696              	.LBB8:
 697              	.LBB9:
 667:..\..\..\u8g2\u8g2\csrc/u8x8_d_st7565.c **** 	{
 668:..\..\..\u8g2\u8g2\csrc/u8x8_d_st7565.c **** 	  u8x8_cad_SendSequence(u8x8, u8x8_d_st7565_flip0_seq);
 698              		.loc 1 668 0
 699 0036 0A49     		ldr	r1, .L77+8
 700 0038 2046     		mov	r0, r4
 701 003a FFF7FEFF 		bl	u8x8_cad_SendSequence
 702              	.LVL78:
 669:..\..\..\u8g2\u8g2\csrc/u8x8_d_st7565.c **** 	  u8x8->x_offset = u8x8->display_info->default_x_offset;
 703              		.loc 1 669 0
 704 003e 2368     		ldr	r3, [r4]
 705 0040 9B7C     		ldrb	r3, [r3, #18]	@ zero_extendqisi2
 706 0042 05E0     		b	.L76
 707              	.LVL79:
 708              	.L74:
 709              	.LBE9:
 710              	.LBE8:
 670:..\..\..\u8g2\u8g2\csrc/u8x8_d_st7565.c **** 	}
 671:..\..\..\u8g2\u8g2\csrc/u8x8_d_st7565.c **** 	else
 672:..\..\..\u8g2\u8g2\csrc/u8x8_d_st7565.c **** 	{
 673:..\..\..\u8g2\u8g2\csrc/u8x8_d_st7565.c **** 	  u8x8_cad_SendSequence(u8x8, u8x8_d_st7565_flip1_seq);
 711              		.loc 1 673 0
 712 0044 0749     		ldr	r1, .L77+12
 713 0046 2046     		mov	r0, r4
 714 0048 FFF7FEFF 		bl	u8x8_cad_SendSequence
 715              	.LVL80:
 674:..\..\..\u8g2\u8g2\csrc/u8x8_d_st7565.c **** 	  u8x8->x_offset = u8x8->display_info->flipmode_x_offset;
 716              		.loc 1 674 0
 717 004c 2368     		ldr	r3, [r4]
 718 004e DB7C     		ldrb	r3, [r3, #19]	@ zero_extendqisi2
 719              	.L76:
 720 0050 84F82230 		strb	r3, [r4, #34]
 721              	.L75:
 675:..\..\..\u8g2\u8g2\csrc/u8x8_d_st7565.c **** 	}	
 676:..\..\..\u8g2\u8g2\csrc/u8x8_d_st7565.c **** 	break;
 677:..\..\..\u8g2\u8g2\csrc/u8x8_d_st7565.c ****       default:
 678:..\..\..\u8g2\u8g2\csrc/u8x8_d_st7565.c **** 	return 0;		/* msg unknown */
 679:..\..\..\u8g2\u8g2\csrc/u8x8_d_st7565.c ****     }
 680:..\..\..\u8g2\u8g2\csrc/u8x8_d_st7565.c ****   }
 681:..\..\..\u8g2\u8g2\csrc/u8x8_d_st7565.c ****   return 1;
 722              		.loc 1 681 0
 723 0054 0120     		movs	r0, #1
 724              	.L70:
 682:..\..\..\u8g2\u8g2\csrc/u8x8_d_st7565.c **** }
 725              		.loc 1 682 0
 726 0056 70BD     		pop	{r4, r5, r6, pc}
 727              	.LVL81:
 728              	.L78:
 729              		.align	2
 730              	.L77:
 731 0058 18010000 		.word	.LANCHOR0+280
 732 005c 30010000 		.word	.LANCHOR0+304
ARM GAS  C:\Users\jesse\AppData\Local\Temp\cc9dv931.s 			page 26


 733 0060 49000000 		.word	.LANCHOR0+73
 734 0064 50000000 		.word	.LANCHOR0+80
 735              		.cfi_endproc
 736              	.LFE6:
 737              		.size	u8x8_d_st7565_nhd_c12864, .-u8x8_d_st7565_nhd_c12864
 738              		.section	.text.u8x8_d_st7565_jlx12864,"ax",%progbits
 739              		.align	1
 740              		.global	u8x8_d_st7565_jlx12864
 741              		.thumb
 742              		.thumb_func
 743              		.type	u8x8_d_st7565_jlx12864, %function
 744              	u8x8_d_st7565_jlx12864:
 745              	.LFB7:
 683:..\..\..\u8g2\u8g2\csrc/u8x8_d_st7565.c **** /*================================================*/
 684:..\..\..\u8g2\u8g2\csrc/u8x8_d_st7565.c **** /* JLX12864 */
 685:..\..\..\u8g2\u8g2\csrc/u8x8_d_st7565.c **** 
 686:..\..\..\u8g2\u8g2\csrc/u8x8_d_st7565.c **** uint8_t u8x8_d_st7565_jlx12864(u8x8_t *u8x8, uint8_t msg, uint8_t arg_int, void *arg_ptr)
 687:..\..\..\u8g2\u8g2\csrc/u8x8_d_st7565.c **** {
 746              		.loc 1 687 0
 747              		.cfi_startproc
 748              		@ args = 0, pretend = 0, frame = 0
 749              		@ frame_needed = 0, uses_anonymous_args = 0
 750              		@ link register save eliminated.
 751              	.LVL82:
 688:..\..\..\u8g2\u8g2\csrc/u8x8_d_st7565.c ****   return u8x8_d_st7565_nhd_c12864(u8x8, msg, arg_int, arg_ptr);
 752              		.loc 1 688 0
 753 0000 FFF7FEBF 		b	u8x8_d_st7565_nhd_c12864
 754              	.LVL83:
 755              		.cfi_endproc
 756              	.LFE7:
 757              		.size	u8x8_d_st7565_jlx12864, .-u8x8_d_st7565_jlx12864
 758              		.section	.text.u8x8_d_st7565_lm6059,"ax",%progbits
 759              		.align	1
 760              		.global	u8x8_d_st7565_lm6059
 761              		.thumb
 762              		.thumb_func
 763              		.type	u8x8_d_st7565_lm6059, %function
 764              	u8x8_d_st7565_lm6059:
 765              	.LFB8:
 689:..\..\..\u8g2\u8g2\csrc/u8x8_d_st7565.c **** }
 690:..\..\..\u8g2\u8g2\csrc/u8x8_d_st7565.c **** 
 691:..\..\..\u8g2\u8g2\csrc/u8x8_d_st7565.c **** 
 692:..\..\..\u8g2\u8g2\csrc/u8x8_d_st7565.c **** /*================================================*/
 693:..\..\..\u8g2\u8g2\csrc/u8x8_d_st7565.c **** /* LM6059 (Adafruit)... probably this is a ST7567 display */
 694:..\..\..\u8g2\u8g2\csrc/u8x8_d_st7565.c **** 
 695:..\..\..\u8g2\u8g2\csrc/u8x8_d_st7565.c **** static const uint8_t u8x8_d_st7565_lm6059_init_seq[] = {
 696:..\..\..\u8g2\u8g2\csrc/u8x8_d_st7565.c ****     
 697:..\..\..\u8g2\u8g2\csrc/u8x8_d_st7565.c ****   U8X8_START_TRANSFER(),             	/* enable chip, delay is part of the transfer start */
 698:..\..\..\u8g2\u8g2\csrc/u8x8_d_st7565.c ****   
 699:..\..\..\u8g2\u8g2\csrc/u8x8_d_st7565.c ****   U8X8_C(0x0e2),            			/* soft reset */
 700:..\..\..\u8g2\u8g2\csrc/u8x8_d_st7565.c ****   U8X8_C(0x0ae),		                /* display off */
 701:..\..\..\u8g2\u8g2\csrc/u8x8_d_st7565.c ****   U8X8_C(0x060),		                /* set display start line to ... */
 702:..\..\..\u8g2\u8g2\csrc/u8x8_d_st7565.c ****   
 703:..\..\..\u8g2\u8g2\csrc/u8x8_d_st7565.c ****   U8X8_C(0x0a0),		                /* ADC set to reverse */
 704:..\..\..\u8g2\u8g2\csrc/u8x8_d_st7565.c ****   U8X8_C(0x0c8),		                /* common output mode */
 705:..\..\..\u8g2\u8g2\csrc/u8x8_d_st7565.c ****   //U8X8_C(0x0a1),		                /* ADC set to reverse */
 706:..\..\..\u8g2\u8g2\csrc/u8x8_d_st7565.c ****   //U8X8_C(0x0c0),		                /* common output mode */
ARM GAS  C:\Users\jesse\AppData\Local\Temp\cc9dv931.s 			page 27


 707:..\..\..\u8g2\u8g2\csrc/u8x8_d_st7565.c ****   // Flipmode
 708:..\..\..\u8g2\u8g2\csrc/u8x8_d_st7565.c ****   // U8X8_C(0x0a0),		                /* ADC set to reverse */
 709:..\..\..\u8g2\u8g2\csrc/u8x8_d_st7565.c ****   // U8X8_C(0x0c8),		                /* common output mode */
 710:..\..\..\u8g2\u8g2\csrc/u8x8_d_st7565.c ****   
 711:..\..\..\u8g2\u8g2\csrc/u8x8_d_st7565.c ****   U8X8_C(0x0a6),		                /* display normal, bit val 0: LCD pixel off. */
 712:..\..\..\u8g2\u8g2\csrc/u8x8_d_st7565.c ****   U8X8_C(0x0a3),		                /* LCD bias 1/9 */
 713:..\..\..\u8g2\u8g2\csrc/u8x8_d_st7565.c ****   U8X8_C(0x02f),		                /* all power  control circuits on (regulator, booster and followe
 714:..\..\..\u8g2\u8g2\csrc/u8x8_d_st7565.c ****   U8X8_CA(0x0f8, 0x000),		/* set booster ratio to 4x (ST7567 feature) */
 715:..\..\..\u8g2\u8g2\csrc/u8x8_d_st7565.c ****   U8X8_C(0x027),		                /* set V0 voltage resistor ratio to max  */
 716:..\..\..\u8g2\u8g2\csrc/u8x8_d_st7565.c ****   U8X8_CA(0x081, 0x018),		/* set contrast, contrast value, EA default: 0x016 */
 717:..\..\..\u8g2\u8g2\csrc/u8x8_d_st7565.c ****   
 718:..\..\..\u8g2\u8g2\csrc/u8x8_d_st7565.c ****   U8X8_C(0x0ae),		                /* display off */
 719:..\..\..\u8g2\u8g2\csrc/u8x8_d_st7565.c ****   U8X8_C(0x0a5),		                /* enter powersafe: all pixel on, issue 142 */
 720:..\..\..\u8g2\u8g2\csrc/u8x8_d_st7565.c ****   
 721:..\..\..\u8g2\u8g2\csrc/u8x8_d_st7565.c ****   U8X8_END_TRANSFER(),             	/* disable chip */
 722:..\..\..\u8g2\u8g2\csrc/u8x8_d_st7565.c ****   U8X8_END()             			/* end of sequence */
 723:..\..\..\u8g2\u8g2\csrc/u8x8_d_st7565.c **** };
 724:..\..\..\u8g2\u8g2\csrc/u8x8_d_st7565.c **** 
 725:..\..\..\u8g2\u8g2\csrc/u8x8_d_st7565.c **** static const u8x8_display_info_t u8x8_st7565_lm6059_display_info =
 726:..\..\..\u8g2\u8g2\csrc/u8x8_d_st7565.c **** {
 727:..\..\..\u8g2\u8g2\csrc/u8x8_d_st7565.c ****   /* chip_enable_level = */ 0,
 728:..\..\..\u8g2\u8g2\csrc/u8x8_d_st7565.c ****   /* chip_disable_level = */ 1,
 729:..\..\..\u8g2\u8g2\csrc/u8x8_d_st7565.c ****   
 730:..\..\..\u8g2\u8g2\csrc/u8x8_d_st7565.c ****   /* post_chip_enable_wait_ns = */ 150,	/* st7565 datasheet, table 26, tcsh */
 731:..\..\..\u8g2\u8g2\csrc/u8x8_d_st7565.c ****   /* pre_chip_disable_wait_ns = */ 50,	/* st7565 datasheet, table 26, tcss */
 732:..\..\..\u8g2\u8g2\csrc/u8x8_d_st7565.c ****   /* reset_pulse_width_ms = */ 1, 
 733:..\..\..\u8g2\u8g2\csrc/u8x8_d_st7565.c ****   /* post_reset_wait_ms = */ 1, 
 734:..\..\..\u8g2\u8g2\csrc/u8x8_d_st7565.c ****   /* sda_setup_time_ns = */ 50,		/* st7565 datasheet, table 26, tsds */
 735:..\..\..\u8g2\u8g2\csrc/u8x8_d_st7565.c ****   /* sck_pulse_width_ns = */ 120,	/* half of cycle time (100ns according to datasheet), AVR: below 
 736:..\..\..\u8g2\u8g2\csrc/u8x8_d_st7565.c ****   /* sck_clock_hz = */ 4000000UL,	/* since Arduino 1.6.0, the SPI bus speed in Hz. Should be  10000
 737:..\..\..\u8g2\u8g2\csrc/u8x8_d_st7565.c ****   /* spi_mode = */ 0,		/* active high, rising edge */
 738:..\..\..\u8g2\u8g2\csrc/u8x8_d_st7565.c ****   /* i2c_bus_clock_100kHz = */ 4,
 739:..\..\..\u8g2\u8g2\csrc/u8x8_d_st7565.c ****   /* data_setup_time_ns = */ 40,	/* st7565 datasheet, table 24, tds8 */
 740:..\..\..\u8g2\u8g2\csrc/u8x8_d_st7565.c ****   /* write_pulse_width_ns = */ 80,	/* st7565 datasheet, table 24, tcclw */
 741:..\..\..\u8g2\u8g2\csrc/u8x8_d_st7565.c ****   /* tile_width = */ 16,		/* width of 16*8=128 pixel */
 742:..\..\..\u8g2\u8g2\csrc/u8x8_d_st7565.c ****   /* tile_hight = */ 8,
 743:..\..\..\u8g2\u8g2\csrc/u8x8_d_st7565.c ****   /* default_x_offset = */ 1,	/* not sure... */
 744:..\..\..\u8g2\u8g2\csrc/u8x8_d_st7565.c ****   /* flipmode_x_offset = */ 3,
 745:..\..\..\u8g2\u8g2\csrc/u8x8_d_st7565.c ****   /* pixel_width = */ 128,
 746:..\..\..\u8g2\u8g2\csrc/u8x8_d_st7565.c ****   /* pixel_height = */ 64
 747:..\..\..\u8g2\u8g2\csrc/u8x8_d_st7565.c **** };
 748:..\..\..\u8g2\u8g2\csrc/u8x8_d_st7565.c **** 
 749:..\..\..\u8g2\u8g2\csrc/u8x8_d_st7565.c **** uint8_t u8x8_d_st7565_lm6059(u8x8_t *u8x8, uint8_t msg, uint8_t arg_int, void *arg_ptr)
 750:..\..\..\u8g2\u8g2\csrc/u8x8_d_st7565.c **** {
 766              		.loc 1 750 0
 767              		.cfi_startproc
 768              		@ args = 0, pretend = 0, frame = 0
 769              		@ frame_needed = 0, uses_anonymous_args = 0
 770              	.LVL84:
 771 0000 70B5     		push	{r4, r5, r6, lr}
 772              		.cfi_def_cfa_offset 16
 773              		.cfi_offset 4, -16
 774              		.cfi_offset 5, -12
 775              		.cfi_offset 6, -8
 776              		.cfi_offset 14, -4
 777              		.loc 1 750 0
 778 0002 0446     		mov	r4, r0
ARM GAS  C:\Users\jesse\AppData\Local\Temp\cc9dv931.s 			page 28


 779 0004 0D46     		mov	r5, r1
 780 0006 1646     		mov	r6, r2
 751:..\..\..\u8g2\u8g2\csrc/u8x8_d_st7565.c ****   /* call common procedure first and handle messages there */
 752:..\..\..\u8g2\u8g2\csrc/u8x8_d_st7565.c ****   if ( u8x8_d_st7565_common(u8x8, msg, arg_int, arg_ptr) == 0 )
 781              		.loc 1 752 0
 782 0008 FFF7FEFF 		bl	u8x8_d_st7565_common
 783              	.LVL85:
 784 000c 10BB     		cbnz	r0, .L86
 753:..\..\..\u8g2\u8g2\csrc/u8x8_d_st7565.c ****   {
 754:..\..\..\u8g2\u8g2\csrc/u8x8_d_st7565.c ****     /* msg not handled, then try here */
 755:..\..\..\u8g2\u8g2\csrc/u8x8_d_st7565.c ****     switch(msg)
 785              		.loc 1 755 0
 786 000e 0A2D     		cmp	r5, #10
 787 0010 08D0     		beq	.L82
 788 0012 0D2D     		cmp	r5, #13
 789 0014 0ED0     		beq	.L83
 790 0016 092D     		cmp	r5, #9
 791 0018 1DD1     		bne	.L81
 756:..\..\..\u8g2\u8g2\csrc/u8x8_d_st7565.c ****     {
 757:..\..\..\u8g2\u8g2\csrc/u8x8_d_st7565.c ****       case U8X8_MSG_DISPLAY_SETUP_MEMORY:
 758:..\..\..\u8g2\u8g2\csrc/u8x8_d_st7565.c **** 	u8x8_d_helper_display_setup_memory(u8x8, &u8x8_st7565_lm6059_display_info);
 792              		.loc 1 758 0
 793 001a 0F49     		ldr	r1, .L88
 794 001c 2046     		mov	r0, r4
 795 001e FFF7FEFF 		bl	u8x8_d_helper_display_setup_memory
 796              	.LVL86:
 797 0022 17E0     		b	.L86
 798              	.L82:
 759:..\..\..\u8g2\u8g2\csrc/u8x8_d_st7565.c **** 	break;
 760:..\..\..\u8g2\u8g2\csrc/u8x8_d_st7565.c ****       case U8X8_MSG_DISPLAY_INIT:
 761:..\..\..\u8g2\u8g2\csrc/u8x8_d_st7565.c **** 	u8x8_d_helper_display_init(u8x8);
 799              		.loc 1 761 0
 800 0024 2046     		mov	r0, r4
 801 0026 FFF7FEFF 		bl	u8x8_d_helper_display_init
 802              	.LVL87:
 762:..\..\..\u8g2\u8g2\csrc/u8x8_d_st7565.c **** 	u8x8_cad_SendSequence(u8x8, u8x8_d_st7565_lm6059_init_seq);
 803              		.loc 1 762 0
 804 002a 0C49     		ldr	r1, .L88+4
 805 002c 2046     		mov	r0, r4
 806 002e FFF7FEFF 		bl	u8x8_cad_SendSequence
 807              	.LVL88:
 808 0032 0FE0     		b	.L86
 809              	.L83:
 763:..\..\..\u8g2\u8g2\csrc/u8x8_d_st7565.c **** 	break;
 764:..\..\..\u8g2\u8g2\csrc/u8x8_d_st7565.c ****       case U8X8_MSG_DISPLAY_SET_FLIP_MODE:
 765:..\..\..\u8g2\u8g2\csrc/u8x8_d_st7565.c **** 	if ( arg_int == 0 )
 810              		.loc 1 765 0
 811 0034 36B9     		cbnz	r6, .L85
 766:..\..\..\u8g2\u8g2\csrc/u8x8_d_st7565.c **** 	{
 767:..\..\..\u8g2\u8g2\csrc/u8x8_d_st7565.c **** 	  u8x8_cad_SendSequence(u8x8, u8x8_d_st7565_flip1_seq);
 812              		.loc 1 767 0
 813 0036 0A49     		ldr	r1, .L88+8
 814 0038 2046     		mov	r0, r4
 815 003a FFF7FEFF 		bl	u8x8_cad_SendSequence
 816              	.LVL89:
 768:..\..\..\u8g2\u8g2\csrc/u8x8_d_st7565.c **** 	  u8x8->x_offset = u8x8->display_info->default_x_offset;
 817              		.loc 1 768 0
ARM GAS  C:\Users\jesse\AppData\Local\Temp\cc9dv931.s 			page 29


 818 003e 2368     		ldr	r3, [r4]
 819 0040 9B7C     		ldrb	r3, [r3, #18]	@ zero_extendqisi2
 820 0042 05E0     		b	.L87
 821              	.L85:
 769:..\..\..\u8g2\u8g2\csrc/u8x8_d_st7565.c **** 	}
 770:..\..\..\u8g2\u8g2\csrc/u8x8_d_st7565.c **** 	else
 771:..\..\..\u8g2\u8g2\csrc/u8x8_d_st7565.c **** 	{
 772:..\..\..\u8g2\u8g2\csrc/u8x8_d_st7565.c **** 	  u8x8_cad_SendSequence(u8x8, u8x8_d_st7565_flip0_seq);
 822              		.loc 1 772 0
 823 0044 0749     		ldr	r1, .L88+12
 824 0046 2046     		mov	r0, r4
 825 0048 FFF7FEFF 		bl	u8x8_cad_SendSequence
 826              	.LVL90:
 773:..\..\..\u8g2\u8g2\csrc/u8x8_d_st7565.c **** 	  u8x8->x_offset = u8x8->display_info->flipmode_x_offset;
 827              		.loc 1 773 0
 828 004c 2368     		ldr	r3, [r4]
 829 004e DB7C     		ldrb	r3, [r3, #19]	@ zero_extendqisi2
 830              	.L87:
 831 0050 84F82230 		strb	r3, [r4, #34]
 832              	.L86:
 774:..\..\..\u8g2\u8g2\csrc/u8x8_d_st7565.c **** 	}	
 775:..\..\..\u8g2\u8g2\csrc/u8x8_d_st7565.c **** 	break;
 776:..\..\..\u8g2\u8g2\csrc/u8x8_d_st7565.c ****       default:
 777:..\..\..\u8g2\u8g2\csrc/u8x8_d_st7565.c **** 	return 0;		/* msg unknown */
 778:..\..\..\u8g2\u8g2\csrc/u8x8_d_st7565.c ****     }
 779:..\..\..\u8g2\u8g2\csrc/u8x8_d_st7565.c ****   }
 780:..\..\..\u8g2\u8g2\csrc/u8x8_d_st7565.c ****   return 1;
 833              		.loc 1 780 0
 834 0054 0120     		movs	r0, #1
 835              	.L81:
 781:..\..\..\u8g2\u8g2\csrc/u8x8_d_st7565.c **** }
 836              		.loc 1 781 0
 837 0056 70BD     		pop	{r4, r5, r6, pc}
 838              	.LVL91:
 839              	.L89:
 840              		.align	2
 841              	.L88:
 842 0058 54010000 		.word	.LANCHOR0+340
 843 005c 6C010000 		.word	.LANCHOR0+364
 844 0060 50000000 		.word	.LANCHOR0+80
 845 0064 49000000 		.word	.LANCHOR0+73
 846              		.cfi_endproc
 847              	.LFE8:
 848              		.size	u8x8_d_st7565_lm6059, .-u8x8_d_st7565_lm6059
 849              		.section	.text.u8x8_d_st7565_ks0713,"ax",%progbits
 850              		.align	1
 851              		.global	u8x8_d_st7565_ks0713
 852              		.thumb
 853              		.thumb_func
 854              		.type	u8x8_d_st7565_ks0713, %function
 855              	u8x8_d_st7565_ks0713:
 856              	.LFB9:
 782:..\..\..\u8g2\u8g2\csrc/u8x8_d_st7565.c **** 
 783:..\..\..\u8g2\u8g2\csrc/u8x8_d_st7565.c **** /*================================================*/
 784:..\..\..\u8g2\u8g2\csrc/u8x8_d_st7565.c **** /* https://github.com/olikraus/u8g2/issues/1314 */
 785:..\..\..\u8g2\u8g2\csrc/u8x8_d_st7565.c **** /* KS0713 controller, takeover from LM6059 */
 786:..\..\..\u8g2\u8g2\csrc/u8x8_d_st7565.c **** 
ARM GAS  C:\Users\jesse\AppData\Local\Temp\cc9dv931.s 			page 30


 787:..\..\..\u8g2\u8g2\csrc/u8x8_d_st7565.c **** static const uint8_t u8x8_d_st7565_ks0713_init_seq[] = {
 788:..\..\..\u8g2\u8g2\csrc/u8x8_d_st7565.c ****     
 789:..\..\..\u8g2\u8g2\csrc/u8x8_d_st7565.c ****   U8X8_START_TRANSFER(),             /* enable chip, delay is part of the transfer start */
 790:..\..\..\u8g2\u8g2\csrc/u8x8_d_st7565.c ****   U8X8_C(0x0ae),		                /* display off */
 791:..\..\..\u8g2\u8g2\csrc/u8x8_d_st7565.c ****   U8X8_C(0x0e2),            			 /* soft reset */
 792:..\..\..\u8g2\u8g2\csrc/u8x8_d_st7565.c ****   U8X8_C(0x0a3),		                /* LCD bias 1/9 */
 793:..\..\..\u8g2\u8g2\csrc/u8x8_d_st7565.c ****   U8X8_C(0x0a0),		                /* ADC set to reverse */
 794:..\..\..\u8g2\u8g2\csrc/u8x8_d_st7565.c ****   U8X8_C(0x0c0),		                /* common output mode */
 795:..\..\..\u8g2\u8g2\csrc/u8x8_d_st7565.c ****   U8X8_C(0x02f),		                /* all power  control circuits on (regulator, booster and followe
 796:..\..\..\u8g2\u8g2\csrc/u8x8_d_st7565.c ****   U8X8_C(0x026),		                /* set V0 voltage resistor ratio to max  */
 797:..\..\..\u8g2\u8g2\csrc/u8x8_d_st7565.c ****   U8X8_C(0x0a6),		                /* display normal, bit val 0: LCD pixel off. */
 798:..\..\..\u8g2\u8g2\csrc/u8x8_d_st7565.c ****   U8X8_CA(0x081, 0x010),		       /* set contrast, contrast value, EA default: 0x016 */
 799:..\..\..\u8g2\u8g2\csrc/u8x8_d_st7565.c ****   U8X8_C(0x0af),		                /* display on */
 800:..\..\..\u8g2\u8g2\csrc/u8x8_d_st7565.c ****   U8X8_END_TRANSFER(),             	/* disable chip */
 801:..\..\..\u8g2\u8g2\csrc/u8x8_d_st7565.c ****   U8X8_END()             			/* end of sequence */
 802:..\..\..\u8g2\u8g2\csrc/u8x8_d_st7565.c **** };
 803:..\..\..\u8g2\u8g2\csrc/u8x8_d_st7565.c **** 
 804:..\..\..\u8g2\u8g2\csrc/u8x8_d_st7565.c **** uint8_t u8x8_d_st7565_ks0713(u8x8_t *u8x8, uint8_t msg, uint8_t arg_int, void *arg_ptr)
 805:..\..\..\u8g2\u8g2\csrc/u8x8_d_st7565.c **** {
 857              		.loc 1 805 0
 858              		.cfi_startproc
 859              		@ args = 0, pretend = 0, frame = 0
 860              		@ frame_needed = 0, uses_anonymous_args = 0
 861              	.LVL92:
 862 0000 70B5     		push	{r4, r5, r6, lr}
 863              		.cfi_def_cfa_offset 16
 864              		.cfi_offset 4, -16
 865              		.cfi_offset 5, -12
 866              		.cfi_offset 6, -8
 867              		.cfi_offset 14, -4
 868              		.loc 1 805 0
 869 0002 0446     		mov	r4, r0
 870 0004 0D46     		mov	r5, r1
 871 0006 1646     		mov	r6, r2
 806:..\..\..\u8g2\u8g2\csrc/u8x8_d_st7565.c ****   /* call common procedure first and handle messages there */
 807:..\..\..\u8g2\u8g2\csrc/u8x8_d_st7565.c ****   if ( u8x8_d_st7565_common(u8x8, msg, arg_int, arg_ptr) == 0 )
 872              		.loc 1 807 0
 873 0008 FFF7FEFF 		bl	u8x8_d_st7565_common
 874              	.LVL93:
 875 000c 10BB     		cbnz	r0, .L96
 808:..\..\..\u8g2\u8g2\csrc/u8x8_d_st7565.c ****   {
 809:..\..\..\u8g2\u8g2\csrc/u8x8_d_st7565.c ****     /* msg not handled, then try here */
 810:..\..\..\u8g2\u8g2\csrc/u8x8_d_st7565.c ****     switch(msg)
 876              		.loc 1 810 0
 877 000e 0A2D     		cmp	r5, #10
 878 0010 08D0     		beq	.L92
 879 0012 0D2D     		cmp	r5, #13
 880 0014 0ED0     		beq	.L93
 881 0016 092D     		cmp	r5, #9
 882 0018 1DD1     		bne	.L91
 811:..\..\..\u8g2\u8g2\csrc/u8x8_d_st7565.c ****     {
 812:..\..\..\u8g2\u8g2\csrc/u8x8_d_st7565.c ****       case U8X8_MSG_DISPLAY_SETUP_MEMORY:
 813:..\..\..\u8g2\u8g2\csrc/u8x8_d_st7565.c **** 	u8x8_d_helper_display_setup_memory(u8x8, &u8x8_st7565_lm6059_display_info);
 883              		.loc 1 813 0
 884 001a 0F49     		ldr	r1, .L98
 885 001c 2046     		mov	r0, r4
 886 001e FFF7FEFF 		bl	u8x8_d_helper_display_setup_memory
ARM GAS  C:\Users\jesse\AppData\Local\Temp\cc9dv931.s 			page 31


 887              	.LVL94:
 888 0022 17E0     		b	.L96
 889              	.L92:
 814:..\..\..\u8g2\u8g2\csrc/u8x8_d_st7565.c **** 	break;
 815:..\..\..\u8g2\u8g2\csrc/u8x8_d_st7565.c ****       case U8X8_MSG_DISPLAY_INIT:
 816:..\..\..\u8g2\u8g2\csrc/u8x8_d_st7565.c **** 	u8x8_d_helper_display_init(u8x8);
 890              		.loc 1 816 0
 891 0024 2046     		mov	r0, r4
 892 0026 FFF7FEFF 		bl	u8x8_d_helper_display_init
 893              	.LVL95:
 817:..\..\..\u8g2\u8g2\csrc/u8x8_d_st7565.c **** 	u8x8_cad_SendSequence(u8x8, u8x8_d_st7565_ks0713_init_seq);
 894              		.loc 1 817 0
 895 002a 0C49     		ldr	r1, .L98+4
 896 002c 2046     		mov	r0, r4
 897 002e FFF7FEFF 		bl	u8x8_cad_SendSequence
 898              	.LVL96:
 899 0032 0FE0     		b	.L96
 900              	.L93:
 818:..\..\..\u8g2\u8g2\csrc/u8x8_d_st7565.c **** 	break;
 819:..\..\..\u8g2\u8g2\csrc/u8x8_d_st7565.c ****       case U8X8_MSG_DISPLAY_SET_FLIP_MODE:
 820:..\..\..\u8g2\u8g2\csrc/u8x8_d_st7565.c **** 	if ( arg_int == 0 )
 901              		.loc 1 820 0
 902 0034 36B9     		cbnz	r6, .L95
 821:..\..\..\u8g2\u8g2\csrc/u8x8_d_st7565.c **** 	{
 822:..\..\..\u8g2\u8g2\csrc/u8x8_d_st7565.c **** 	  u8x8_cad_SendSequence(u8x8, u8x8_d_st7565_zflip1_seq);
 903              		.loc 1 822 0
 904 0036 0A49     		ldr	r1, .L98+8
 905 0038 2046     		mov	r0, r4
 906 003a FFF7FEFF 		bl	u8x8_cad_SendSequence
 907              	.LVL97:
 823:..\..\..\u8g2\u8g2\csrc/u8x8_d_st7565.c **** 	  u8x8->x_offset = u8x8->display_info->default_x_offset;
 908              		.loc 1 823 0
 909 003e 2368     		ldr	r3, [r4]
 910 0040 9B7C     		ldrb	r3, [r3, #18]	@ zero_extendqisi2
 911 0042 05E0     		b	.L97
 912              	.L95:
 824:..\..\..\u8g2\u8g2\csrc/u8x8_d_st7565.c **** 	}
 825:..\..\..\u8g2\u8g2\csrc/u8x8_d_st7565.c **** 	else
 826:..\..\..\u8g2\u8g2\csrc/u8x8_d_st7565.c **** 	{
 827:..\..\..\u8g2\u8g2\csrc/u8x8_d_st7565.c **** 	  u8x8_cad_SendSequence(u8x8, u8x8_d_st7565_zflip0_seq);
 913              		.loc 1 827 0
 914 0044 0749     		ldr	r1, .L98+12
 915 0046 2046     		mov	r0, r4
 916 0048 FFF7FEFF 		bl	u8x8_cad_SendSequence
 917              	.LVL98:
 828:..\..\..\u8g2\u8g2\csrc/u8x8_d_st7565.c **** 	  u8x8->x_offset = u8x8->display_info->flipmode_x_offset;
 918              		.loc 1 828 0
 919 004c 2368     		ldr	r3, [r4]
 920 004e DB7C     		ldrb	r3, [r3, #19]	@ zero_extendqisi2
 921              	.L97:
 922 0050 84F82230 		strb	r3, [r4, #34]
 923              	.L96:
 829:..\..\..\u8g2\u8g2\csrc/u8x8_d_st7565.c **** 	}	
 830:..\..\..\u8g2\u8g2\csrc/u8x8_d_st7565.c **** 	break;
 831:..\..\..\u8g2\u8g2\csrc/u8x8_d_st7565.c ****       default:
 832:..\..\..\u8g2\u8g2\csrc/u8x8_d_st7565.c **** 	return 0;		/* msg unknown */
 833:..\..\..\u8g2\u8g2\csrc/u8x8_d_st7565.c ****     }
ARM GAS  C:\Users\jesse\AppData\Local\Temp\cc9dv931.s 			page 32


 834:..\..\..\u8g2\u8g2\csrc/u8x8_d_st7565.c ****   }
 835:..\..\..\u8g2\u8g2\csrc/u8x8_d_st7565.c ****   return 1;
 924              		.loc 1 835 0
 925 0054 0120     		movs	r0, #1
 926              	.L91:
 836:..\..\..\u8g2\u8g2\csrc/u8x8_d_st7565.c **** }
 927              		.loc 1 836 0
 928 0056 70BD     		pop	{r4, r5, r6, pc}
 929              	.LVL99:
 930              	.L99:
 931              		.align	2
 932              	.L98:
 933 0058 54010000 		.word	.LANCHOR0+340
 934 005c 8D010000 		.word	.LANCHOR0+397
 935 0060 D5000000 		.word	.LANCHOR0+213
 936 0064 CE000000 		.word	.LANCHOR0+206
 937              		.cfi_endproc
 938              	.LFE9:
 939              		.size	u8x8_d_st7565_ks0713, .-u8x8_d_st7565_ks0713
 940              		.section	.text.u8x8_d_st7565_lx12864,"ax",%progbits
 941              		.align	1
 942              		.global	u8x8_d_st7565_lx12864
 943              		.thumb
 944              		.thumb_func
 945              		.type	u8x8_d_st7565_lx12864, %function
 946              	u8x8_d_st7565_lx12864:
 947              	.LFB10:
 837:..\..\..\u8g2\u8g2\csrc/u8x8_d_st7565.c **** 
 838:..\..\..\u8g2\u8g2\csrc/u8x8_d_st7565.c **** 
 839:..\..\..\u8g2\u8g2\csrc/u8x8_d_st7565.c **** /*================================================*/
 840:..\..\..\u8g2\u8g2\csrc/u8x8_d_st7565.c **** /* LX12864 issue 576 */
 841:..\..\..\u8g2\u8g2\csrc/u8x8_d_st7565.c **** 
 842:..\..\..\u8g2\u8g2\csrc/u8x8_d_st7565.c **** static const uint8_t u8x8_d_st7565_lx12864_init_seq[] = {
 843:..\..\..\u8g2\u8g2\csrc/u8x8_d_st7565.c ****     
 844:..\..\..\u8g2\u8g2\csrc/u8x8_d_st7565.c ****   U8X8_START_TRANSFER(),             	/* enable chip, delay is part of the transfer start */
 845:..\..\..\u8g2\u8g2\csrc/u8x8_d_st7565.c ****   
 846:..\..\..\u8g2\u8g2\csrc/u8x8_d_st7565.c ****   U8X8_C(0x0e2),            			/* soft reset */
 847:..\..\..\u8g2\u8g2\csrc/u8x8_d_st7565.c ****   U8X8_C(0x0ae),		                /* display off */
 848:..\..\..\u8g2\u8g2\csrc/u8x8_d_st7565.c ****   U8X8_C(0x060),		                /* set display start line to ... */
 849:..\..\..\u8g2\u8g2\csrc/u8x8_d_st7565.c ****   
 850:..\..\..\u8g2\u8g2\csrc/u8x8_d_st7565.c ****   U8X8_C(0x0a0),		                /* ADC set to reverse */
 851:..\..\..\u8g2\u8g2\csrc/u8x8_d_st7565.c ****   U8X8_C(0x0c8),		                /* common output mode */
 852:..\..\..\u8g2\u8g2\csrc/u8x8_d_st7565.c ****   //U8X8_C(0x0a1),		                /* ADC set to reverse */
 853:..\..\..\u8g2\u8g2\csrc/u8x8_d_st7565.c ****   //U8X8_C(0x0c0),		                /* common output mode */
 854:..\..\..\u8g2\u8g2\csrc/u8x8_d_st7565.c ****   // Flipmode
 855:..\..\..\u8g2\u8g2\csrc/u8x8_d_st7565.c ****   // U8X8_C(0x0a0),		                /* ADC set to reverse */
 856:..\..\..\u8g2\u8g2\csrc/u8x8_d_st7565.c ****   // U8X8_C(0x0c8),		                /* common output mode */
 857:..\..\..\u8g2\u8g2\csrc/u8x8_d_st7565.c ****   
 858:..\..\..\u8g2\u8g2\csrc/u8x8_d_st7565.c ****   U8X8_C(0x0a6),		                /* display normal, bit val 0: LCD pixel off. */
 859:..\..\..\u8g2\u8g2\csrc/u8x8_d_st7565.c ****   U8X8_C(0x0a2),		                /* LCD bias 1/9 */
 860:..\..\..\u8g2\u8g2\csrc/u8x8_d_st7565.c ****   U8X8_C(0x02f),		                /* all power  control circuits on (regulator, booster and followe
 861:..\..\..\u8g2\u8g2\csrc/u8x8_d_st7565.c ****   U8X8_CA(0x0f8, 0x000),		/* set booster ratio to 4x (ST7567 feature) */
 862:..\..\..\u8g2\u8g2\csrc/u8x8_d_st7565.c ****   U8X8_C(0x027),		                /* set V0 voltage resistor ratio to max  */
 863:..\..\..\u8g2\u8g2\csrc/u8x8_d_st7565.c ****   U8X8_CA(0x081, 0x008),		/* set contrast, contrast value */
 864:..\..\..\u8g2\u8g2\csrc/u8x8_d_st7565.c ****   
 865:..\..\..\u8g2\u8g2\csrc/u8x8_d_st7565.c ****   U8X8_C(0x0ae),		                /* display off */
 866:..\..\..\u8g2\u8g2\csrc/u8x8_d_st7565.c ****   U8X8_C(0x0a5),		                /* enter powersafe: all pixel on, issue 142 */
ARM GAS  C:\Users\jesse\AppData\Local\Temp\cc9dv931.s 			page 33


 867:..\..\..\u8g2\u8g2\csrc/u8x8_d_st7565.c ****   
 868:..\..\..\u8g2\u8g2\csrc/u8x8_d_st7565.c ****   U8X8_END_TRANSFER(),             	/* disable chip */
 869:..\..\..\u8g2\u8g2\csrc/u8x8_d_st7565.c ****   U8X8_END()             			/* end of sequence */
 870:..\..\..\u8g2\u8g2\csrc/u8x8_d_st7565.c **** };
 871:..\..\..\u8g2\u8g2\csrc/u8x8_d_st7565.c **** 
 872:..\..\..\u8g2\u8g2\csrc/u8x8_d_st7565.c **** static const u8x8_display_info_t u8x8_st7565_lx12864_display_info =
 873:..\..\..\u8g2\u8g2\csrc/u8x8_d_st7565.c **** {
 874:..\..\..\u8g2\u8g2\csrc/u8x8_d_st7565.c ****   /* chip_enable_level = */ 0,
 875:..\..\..\u8g2\u8g2\csrc/u8x8_d_st7565.c ****   /* chip_disable_level = */ 1,
 876:..\..\..\u8g2\u8g2\csrc/u8x8_d_st7565.c ****   
 877:..\..\..\u8g2\u8g2\csrc/u8x8_d_st7565.c ****   /* post_chip_enable_wait_ns = */ 150,	/* st7565 datasheet, table 26, tcsh */
 878:..\..\..\u8g2\u8g2\csrc/u8x8_d_st7565.c ****   /* pre_chip_disable_wait_ns = */ 50,	/* st7565 datasheet, table 26, tcss */
 879:..\..\..\u8g2\u8g2\csrc/u8x8_d_st7565.c ****   /* reset_pulse_width_ms = */ 1, 
 880:..\..\..\u8g2\u8g2\csrc/u8x8_d_st7565.c ****   /* post_reset_wait_ms = */ 1, 
 881:..\..\..\u8g2\u8g2\csrc/u8x8_d_st7565.c ****   /* sda_setup_time_ns = */ 50,		/* st7565 datasheet, table 26, tsds */
 882:..\..\..\u8g2\u8g2\csrc/u8x8_d_st7565.c ****   /* sck_pulse_width_ns = */ 120,	/* half of cycle time (100ns according to datasheet), AVR: below 
 883:..\..\..\u8g2\u8g2\csrc/u8x8_d_st7565.c ****   /* sck_clock_hz = */ 4000000UL,	/* since Arduino 1.6.0, the SPI bus speed in Hz. Should be  10000
 884:..\..\..\u8g2\u8g2\csrc/u8x8_d_st7565.c ****   /* spi_mode = */ 0,		/* active high, rising edge */
 885:..\..\..\u8g2\u8g2\csrc/u8x8_d_st7565.c ****   /* i2c_bus_clock_100kHz = */ 4,
 886:..\..\..\u8g2\u8g2\csrc/u8x8_d_st7565.c ****   /* data_setup_time_ns = */ 40,	/* st7565 datasheet, table 24, tds8 */
 887:..\..\..\u8g2\u8g2\csrc/u8x8_d_st7565.c ****   /* write_pulse_width_ns = */ 80,	/* st7565 datasheet, table 24, tcclw */
 888:..\..\..\u8g2\u8g2\csrc/u8x8_d_st7565.c ****   /* tile_width = */ 16,		/* width of 16*8=128 pixel */
 889:..\..\..\u8g2\u8g2\csrc/u8x8_d_st7565.c ****   /* tile_hight = */ 8,
 890:..\..\..\u8g2\u8g2\csrc/u8x8_d_st7565.c ****   /* default_x_offset = */ 1,	/* not sure... */
 891:..\..\..\u8g2\u8g2\csrc/u8x8_d_st7565.c ****   /* flipmode_x_offset = */ 3,
 892:..\..\..\u8g2\u8g2\csrc/u8x8_d_st7565.c ****   /* pixel_width = */ 128,
 893:..\..\..\u8g2\u8g2\csrc/u8x8_d_st7565.c ****   /* pixel_height = */ 64
 894:..\..\..\u8g2\u8g2\csrc/u8x8_d_st7565.c **** };
 895:..\..\..\u8g2\u8g2\csrc/u8x8_d_st7565.c **** 
 896:..\..\..\u8g2\u8g2\csrc/u8x8_d_st7565.c **** uint8_t u8x8_d_st7565_lx12864(u8x8_t *u8x8, uint8_t msg, uint8_t arg_int, void *arg_ptr)
 897:..\..\..\u8g2\u8g2\csrc/u8x8_d_st7565.c **** {
 948              		.loc 1 897 0
 949              		.cfi_startproc
 950              		@ args = 0, pretend = 0, frame = 0
 951              		@ frame_needed = 0, uses_anonymous_args = 0
 952              	.LVL100:
 953 0000 70B5     		push	{r4, r5, r6, lr}
 954              		.cfi_def_cfa_offset 16
 955              		.cfi_offset 4, -16
 956              		.cfi_offset 5, -12
 957              		.cfi_offset 6, -8
 958              		.cfi_offset 14, -4
 959              		.loc 1 897 0
 960 0002 0446     		mov	r4, r0
 961 0004 0D46     		mov	r5, r1
 962 0006 1646     		mov	r6, r2
 898:..\..\..\u8g2\u8g2\csrc/u8x8_d_st7565.c ****   /* call common procedure first and handle messages there */
 899:..\..\..\u8g2\u8g2\csrc/u8x8_d_st7565.c ****   if ( u8x8_d_st7565_common(u8x8, msg, arg_int, arg_ptr) == 0 )
 963              		.loc 1 899 0
 964 0008 FFF7FEFF 		bl	u8x8_d_st7565_common
 965              	.LVL101:
 966 000c 10BB     		cbnz	r0, .L106
 900:..\..\..\u8g2\u8g2\csrc/u8x8_d_st7565.c ****   {
 901:..\..\..\u8g2\u8g2\csrc/u8x8_d_st7565.c ****     /* msg not handled, then try here */
 902:..\..\..\u8g2\u8g2\csrc/u8x8_d_st7565.c ****     switch(msg)
 967              		.loc 1 902 0
 968 000e 0A2D     		cmp	r5, #10
ARM GAS  C:\Users\jesse\AppData\Local\Temp\cc9dv931.s 			page 34


 969 0010 08D0     		beq	.L102
 970 0012 0D2D     		cmp	r5, #13
 971 0014 0ED0     		beq	.L103
 972 0016 092D     		cmp	r5, #9
 973 0018 1DD1     		bne	.L101
 903:..\..\..\u8g2\u8g2\csrc/u8x8_d_st7565.c ****     {
 904:..\..\..\u8g2\u8g2\csrc/u8x8_d_st7565.c ****       case U8X8_MSG_DISPLAY_SETUP_MEMORY:
 905:..\..\..\u8g2\u8g2\csrc/u8x8_d_st7565.c **** 	u8x8_d_helper_display_setup_memory(u8x8, &u8x8_st7565_lx12864_display_info);
 974              		.loc 1 905 0
 975 001a 0F49     		ldr	r1, .L108
 976 001c 2046     		mov	r0, r4
 977 001e FFF7FEFF 		bl	u8x8_d_helper_display_setup_memory
 978              	.LVL102:
 979 0022 17E0     		b	.L106
 980              	.L102:
 906:..\..\..\u8g2\u8g2\csrc/u8x8_d_st7565.c **** 	break;
 907:..\..\..\u8g2\u8g2\csrc/u8x8_d_st7565.c ****       case U8X8_MSG_DISPLAY_INIT:
 908:..\..\..\u8g2\u8g2\csrc/u8x8_d_st7565.c **** 	u8x8_d_helper_display_init(u8x8);
 981              		.loc 1 908 0
 982 0024 2046     		mov	r0, r4
 983 0026 FFF7FEFF 		bl	u8x8_d_helper_display_init
 984              	.LVL103:
 909:..\..\..\u8g2\u8g2\csrc/u8x8_d_st7565.c **** 	u8x8_cad_SendSequence(u8x8, u8x8_d_st7565_lx12864_init_seq);
 985              		.loc 1 909 0
 986 002a 0C49     		ldr	r1, .L108+4
 987 002c 2046     		mov	r0, r4
 988 002e FFF7FEFF 		bl	u8x8_cad_SendSequence
 989              	.LVL104:
 990 0032 0FE0     		b	.L106
 991              	.L103:
 910:..\..\..\u8g2\u8g2\csrc/u8x8_d_st7565.c **** 	break;
 911:..\..\..\u8g2\u8g2\csrc/u8x8_d_st7565.c ****       case U8X8_MSG_DISPLAY_SET_FLIP_MODE:
 912:..\..\..\u8g2\u8g2\csrc/u8x8_d_st7565.c **** 	if ( arg_int == 0 )
 992              		.loc 1 912 0
 993 0034 36B9     		cbnz	r6, .L105
 913:..\..\..\u8g2\u8g2\csrc/u8x8_d_st7565.c **** 	{
 914:..\..\..\u8g2\u8g2\csrc/u8x8_d_st7565.c **** 	  u8x8_cad_SendSequence(u8x8, u8x8_d_st7565_flip1_seq);
 994              		.loc 1 914 0
 995 0036 0A49     		ldr	r1, .L108+8
 996 0038 2046     		mov	r0, r4
 997 003a FFF7FEFF 		bl	u8x8_cad_SendSequence
 998              	.LVL105:
 915:..\..\..\u8g2\u8g2\csrc/u8x8_d_st7565.c **** 	  u8x8->x_offset = u8x8->display_info->default_x_offset;
 999              		.loc 1 915 0
 1000 003e 2368     		ldr	r3, [r4]
 1001 0040 9B7C     		ldrb	r3, [r3, #18]	@ zero_extendqisi2
 1002 0042 05E0     		b	.L107
 1003              	.L105:
 916:..\..\..\u8g2\u8g2\csrc/u8x8_d_st7565.c **** 	}
 917:..\..\..\u8g2\u8g2\csrc/u8x8_d_st7565.c **** 	else
 918:..\..\..\u8g2\u8g2\csrc/u8x8_d_st7565.c **** 	{
 919:..\..\..\u8g2\u8g2\csrc/u8x8_d_st7565.c **** 	  u8x8_cad_SendSequence(u8x8, u8x8_d_st7565_flip0_seq);
 1004              		.loc 1 919 0
 1005 0044 0749     		ldr	r1, .L108+12
 1006 0046 2046     		mov	r0, r4
 1007 0048 FFF7FEFF 		bl	u8x8_cad_SendSequence
 1008              	.LVL106:
ARM GAS  C:\Users\jesse\AppData\Local\Temp\cc9dv931.s 			page 35


 920:..\..\..\u8g2\u8g2\csrc/u8x8_d_st7565.c **** 	  u8x8->x_offset = u8x8->display_info->flipmode_x_offset;
 1009              		.loc 1 920 0
 1010 004c 2368     		ldr	r3, [r4]
 1011 004e DB7C     		ldrb	r3, [r3, #19]	@ zero_extendqisi2
 1012              	.L107:
 1013 0050 84F82230 		strb	r3, [r4, #34]
 1014              	.L106:
 921:..\..\..\u8g2\u8g2\csrc/u8x8_d_st7565.c **** 	}	
 922:..\..\..\u8g2\u8g2\csrc/u8x8_d_st7565.c **** 	break;
 923:..\..\..\u8g2\u8g2\csrc/u8x8_d_st7565.c ****       default:
 924:..\..\..\u8g2\u8g2\csrc/u8x8_d_st7565.c **** 	return 0;		/* msg unknown */
 925:..\..\..\u8g2\u8g2\csrc/u8x8_d_st7565.c ****     }
 926:..\..\..\u8g2\u8g2\csrc/u8x8_d_st7565.c ****   }
 927:..\..\..\u8g2\u8g2\csrc/u8x8_d_st7565.c ****   return 1;
 1015              		.loc 1 927 0
 1016 0054 0120     		movs	r0, #1
 1017              	.L101:
 928:..\..\..\u8g2\u8g2\csrc/u8x8_d_st7565.c **** }
 1018              		.loc 1 928 0
 1019 0056 70BD     		pop	{r4, r5, r6, pc}
 1020              	.LVL107:
 1021              	.L109:
 1022              		.align	2
 1023              	.L108:
 1024 0058 A8010000 		.word	.LANCHOR0+424
 1025 005c C0010000 		.word	.LANCHOR0+448
 1026 0060 50000000 		.word	.LANCHOR0+80
 1027 0064 49000000 		.word	.LANCHOR0+73
 1028              		.cfi_endproc
 1029              	.LFE10:
 1030              		.size	u8x8_d_st7565_lx12864, .-u8x8_d_st7565_lx12864
 1031              		.section	.text.u8x8_d_st7565_erc12864,"ax",%progbits
 1032              		.align	1
 1033              		.global	u8x8_d_st7565_erc12864
 1034              		.thumb
 1035              		.thumb_func
 1036              		.type	u8x8_d_st7565_erc12864, %function
 1037              	u8x8_d_st7565_erc12864:
 1038              	.LFB11:
 929:..\..\..\u8g2\u8g2\csrc/u8x8_d_st7565.c **** 
 930:..\..\..\u8g2\u8g2\csrc/u8x8_d_st7565.c **** 
 931:..\..\..\u8g2\u8g2\csrc/u8x8_d_st7565.c **** /*================================================*/
 932:..\..\..\u8g2\u8g2\csrc/u8x8_d_st7565.c **** /* ERC12864-1 (buydisplay.com) */
 933:..\..\..\u8g2\u8g2\csrc/u8x8_d_st7565.c **** 
 934:..\..\..\u8g2\u8g2\csrc/u8x8_d_st7565.c **** static const uint8_t u8x8_d_st7565_erc12864_init_seq[] = {
 935:..\..\..\u8g2\u8g2\csrc/u8x8_d_st7565.c ****     
 936:..\..\..\u8g2\u8g2\csrc/u8x8_d_st7565.c ****   U8X8_START_TRANSFER(),             	/* enable chip, delay is part of the transfer start */
 937:..\..\..\u8g2\u8g2\csrc/u8x8_d_st7565.c ****   
 938:..\..\..\u8g2\u8g2\csrc/u8x8_d_st7565.c ****   U8X8_C(0x0e2),            			/* soft reset */
 939:..\..\..\u8g2\u8g2\csrc/u8x8_d_st7565.c ****   U8X8_C(0x0ae),		                /* display off */
 940:..\..\..\u8g2\u8g2\csrc/u8x8_d_st7565.c ****   U8X8_C(0x040),		                /* set display start line to ... */
 941:..\..\..\u8g2\u8g2\csrc/u8x8_d_st7565.c ****   
 942:..\..\..\u8g2\u8g2\csrc/u8x8_d_st7565.c ****   U8X8_C(0x0a0),		                /* ADC set to reverse */
 943:..\..\..\u8g2\u8g2\csrc/u8x8_d_st7565.c ****   U8X8_C(0x0c8),		                /* common output mode */
 944:..\..\..\u8g2\u8g2\csrc/u8x8_d_st7565.c ****   //U8X8_C(0x0a1),		                /* ADC set to reverse */
 945:..\..\..\u8g2\u8g2\csrc/u8x8_d_st7565.c ****   //U8X8_C(0x0c0),		                /* common output mode */
 946:..\..\..\u8g2\u8g2\csrc/u8x8_d_st7565.c ****   // Flipmode
ARM GAS  C:\Users\jesse\AppData\Local\Temp\cc9dv931.s 			page 36


 947:..\..\..\u8g2\u8g2\csrc/u8x8_d_st7565.c ****   // U8X8_C(0x0a0),		                /* ADC set to reverse */
 948:..\..\..\u8g2\u8g2\csrc/u8x8_d_st7565.c ****   // U8X8_C(0x0c8),		                /* common output mode */
 949:..\..\..\u8g2\u8g2\csrc/u8x8_d_st7565.c ****   
 950:..\..\..\u8g2\u8g2\csrc/u8x8_d_st7565.c ****   U8X8_C(0x0a6),		                /* display normal, bit val 0: LCD pixel off. */
 951:..\..\..\u8g2\u8g2\csrc/u8x8_d_st7565.c ****   U8X8_C(0x0a3),		                /* LCD bias 1/9 */
 952:..\..\..\u8g2\u8g2\csrc/u8x8_d_st7565.c ****   U8X8_C(0x02f),		                /* all power  control circuits on (regulator, booster and followe
 953:..\..\..\u8g2\u8g2\csrc/u8x8_d_st7565.c ****   U8X8_CA(0x0f8, 0x000),		/* set booster ratio to 4x (ST7567 feature)*/
 954:..\..\..\u8g2\u8g2\csrc/u8x8_d_st7565.c ****   U8X8_C(0x027),		                /* set V0 voltage resistor ratio to max  */
 955:..\..\..\u8g2\u8g2\csrc/u8x8_d_st7565.c ****   U8X8_CA(0x081, 0x018),		/* set contrast, contrast value, EA default: 0x016 */
 956:..\..\..\u8g2\u8g2\csrc/u8x8_d_st7565.c ****   
 957:..\..\..\u8g2\u8g2\csrc/u8x8_d_st7565.c ****   U8X8_C(0x0ae),		                /* display off */
 958:..\..\..\u8g2\u8g2\csrc/u8x8_d_st7565.c ****   U8X8_C(0x0a5),		                /* enter powersafe: all pixel on, issue 142 */
 959:..\..\..\u8g2\u8g2\csrc/u8x8_d_st7565.c ****   
 960:..\..\..\u8g2\u8g2\csrc/u8x8_d_st7565.c ****   U8X8_END_TRANSFER(),             	/* disable chip */
 961:..\..\..\u8g2\u8g2\csrc/u8x8_d_st7565.c ****   U8X8_END()             			/* end of sequence */
 962:..\..\..\u8g2\u8g2\csrc/u8x8_d_st7565.c **** };
 963:..\..\..\u8g2\u8g2\csrc/u8x8_d_st7565.c **** 
 964:..\..\..\u8g2\u8g2\csrc/u8x8_d_st7565.c **** static const u8x8_display_info_t u8x8_st7565_erc12864_display_info =
 965:..\..\..\u8g2\u8g2\csrc/u8x8_d_st7565.c **** {
 966:..\..\..\u8g2\u8g2\csrc/u8x8_d_st7565.c ****   /* chip_enable_level = */ 0,
 967:..\..\..\u8g2\u8g2\csrc/u8x8_d_st7565.c ****   /* chip_disable_level = */ 1,
 968:..\..\..\u8g2\u8g2\csrc/u8x8_d_st7565.c ****   
 969:..\..\..\u8g2\u8g2\csrc/u8x8_d_st7565.c ****   /* post_chip_enable_wait_ns = */ 150,	/* st7565 datasheet, table 26, tcsh */
 970:..\..\..\u8g2\u8g2\csrc/u8x8_d_st7565.c ****   /* pre_chip_disable_wait_ns = */ 50,	/* st7565 datasheet, table 26, tcss */
 971:..\..\..\u8g2\u8g2\csrc/u8x8_d_st7565.c ****   /* reset_pulse_width_ms = */ 1, 
 972:..\..\..\u8g2\u8g2\csrc/u8x8_d_st7565.c ****   /* post_reset_wait_ms = */ 1, 
 973:..\..\..\u8g2\u8g2\csrc/u8x8_d_st7565.c ****   /* sda_setup_time_ns = */ 50,		/* st7565 datasheet, table 26, tsds */
 974:..\..\..\u8g2\u8g2\csrc/u8x8_d_st7565.c ****   /* sck_pulse_width_ns = */ 120,	/* half of cycle time (100ns according to datasheet), AVR: below 
 975:..\..\..\u8g2\u8g2\csrc/u8x8_d_st7565.c ****   /* sck_clock_hz = */ 4000000UL,	/* since Arduino 1.6.0, the SPI bus speed in Hz. Should be  10000
 976:..\..\..\u8g2\u8g2\csrc/u8x8_d_st7565.c ****   /* spi_mode = */ 0,		/* active high, rising edge */
 977:..\..\..\u8g2\u8g2\csrc/u8x8_d_st7565.c ****   /* i2c_bus_clock_100kHz = */ 4,
 978:..\..\..\u8g2\u8g2\csrc/u8x8_d_st7565.c ****   /* data_setup_time_ns = */ 40,	/* st7565 datasheet, table 24, tds8 */
 979:..\..\..\u8g2\u8g2\csrc/u8x8_d_st7565.c ****   /* write_pulse_width_ns = */ 80,	/* st7565 datasheet, table 24, tcclw */
 980:..\..\..\u8g2\u8g2\csrc/u8x8_d_st7565.c ****   /* tile_width = */ 16,		/* width of 16*8=128 pixel */
 981:..\..\..\u8g2\u8g2\csrc/u8x8_d_st7565.c ****   /* tile_hight = */ 8,
 982:..\..\..\u8g2\u8g2\csrc/u8x8_d_st7565.c ****   /* default_x_offset = */ 0,
 983:..\..\..\u8g2\u8g2\csrc/u8x8_d_st7565.c ****   /* flipmode_x_offset = */ 4,
 984:..\..\..\u8g2\u8g2\csrc/u8x8_d_st7565.c ****   /* pixel_width = */ 128,
 985:..\..\..\u8g2\u8g2\csrc/u8x8_d_st7565.c ****   /* pixel_height = */ 64
 986:..\..\..\u8g2\u8g2\csrc/u8x8_d_st7565.c **** };
 987:..\..\..\u8g2\u8g2\csrc/u8x8_d_st7565.c **** 
 988:..\..\..\u8g2\u8g2\csrc/u8x8_d_st7565.c **** uint8_t u8x8_d_st7565_erc12864(u8x8_t *u8x8, uint8_t msg, uint8_t arg_int, void *arg_ptr)
 989:..\..\..\u8g2\u8g2\csrc/u8x8_d_st7565.c **** {
 1039              		.loc 1 989 0
 1040              		.cfi_startproc
 1041              		@ args = 0, pretend = 0, frame = 0
 1042              		@ frame_needed = 0, uses_anonymous_args = 0
 1043              	.LVL108:
 1044 0000 70B5     		push	{r4, r5, r6, lr}
 1045              		.cfi_def_cfa_offset 16
 1046              		.cfi_offset 4, -16
 1047              		.cfi_offset 5, -12
 1048              		.cfi_offset 6, -8
 1049              		.cfi_offset 14, -4
 1050              		.loc 1 989 0
 1051 0002 0446     		mov	r4, r0
 1052 0004 0D46     		mov	r5, r1
ARM GAS  C:\Users\jesse\AppData\Local\Temp\cc9dv931.s 			page 37


 1053 0006 1646     		mov	r6, r2
 990:..\..\..\u8g2\u8g2\csrc/u8x8_d_st7565.c ****   /* call common procedure first and handle messages there */
 991:..\..\..\u8g2\u8g2\csrc/u8x8_d_st7565.c ****   if ( u8x8_d_st7565_common(u8x8, msg, arg_int, arg_ptr) == 0 )
 1054              		.loc 1 991 0
 1055 0008 FFF7FEFF 		bl	u8x8_d_st7565_common
 1056              	.LVL109:
 1057 000c 10BB     		cbnz	r0, .L116
 992:..\..\..\u8g2\u8g2\csrc/u8x8_d_st7565.c ****   {
 993:..\..\..\u8g2\u8g2\csrc/u8x8_d_st7565.c ****     /* msg not handled, then try here */
 994:..\..\..\u8g2\u8g2\csrc/u8x8_d_st7565.c ****     switch(msg)
 1058              		.loc 1 994 0
 1059 000e 0A2D     		cmp	r5, #10
 1060 0010 08D0     		beq	.L112
 1061 0012 0D2D     		cmp	r5, #13
 1062 0014 0ED0     		beq	.L113
 1063 0016 092D     		cmp	r5, #9
 1064 0018 1DD1     		bne	.L111
 995:..\..\..\u8g2\u8g2\csrc/u8x8_d_st7565.c ****     {
 996:..\..\..\u8g2\u8g2\csrc/u8x8_d_st7565.c ****       case U8X8_MSG_DISPLAY_SETUP_MEMORY:
 997:..\..\..\u8g2\u8g2\csrc/u8x8_d_st7565.c **** 	u8x8_d_helper_display_setup_memory(u8x8, &u8x8_st7565_erc12864_display_info);
 1065              		.loc 1 997 0
 1066 001a 0F49     		ldr	r1, .L118
 1067 001c 2046     		mov	r0, r4
 1068 001e FFF7FEFF 		bl	u8x8_d_helper_display_setup_memory
 1069              	.LVL110:
 1070 0022 17E0     		b	.L116
 1071              	.L112:
 998:..\..\..\u8g2\u8g2\csrc/u8x8_d_st7565.c **** 	break;
 999:..\..\..\u8g2\u8g2\csrc/u8x8_d_st7565.c ****       case U8X8_MSG_DISPLAY_INIT:
1000:..\..\..\u8g2\u8g2\csrc/u8x8_d_st7565.c **** 	u8x8_d_helper_display_init(u8x8);
 1072              		.loc 1 1000 0
 1073 0024 2046     		mov	r0, r4
 1074 0026 FFF7FEFF 		bl	u8x8_d_helper_display_init
 1075              	.LVL111:
1001:..\..\..\u8g2\u8g2\csrc/u8x8_d_st7565.c **** 	u8x8_cad_SendSequence(u8x8, u8x8_d_st7565_erc12864_init_seq);
 1076              		.loc 1 1001 0
 1077 002a 0C49     		ldr	r1, .L118+4
 1078 002c 2046     		mov	r0, r4
 1079 002e FFF7FEFF 		bl	u8x8_cad_SendSequence
 1080              	.LVL112:
 1081 0032 0FE0     		b	.L116
 1082              	.L113:
1002:..\..\..\u8g2\u8g2\csrc/u8x8_d_st7565.c **** 	break;
1003:..\..\..\u8g2\u8g2\csrc/u8x8_d_st7565.c ****       case U8X8_MSG_DISPLAY_SET_FLIP_MODE:
1004:..\..\..\u8g2\u8g2\csrc/u8x8_d_st7565.c **** 	if ( arg_int == 0 )
 1083              		.loc 1 1004 0
 1084 0034 36B9     		cbnz	r6, .L115
1005:..\..\..\u8g2\u8g2\csrc/u8x8_d_st7565.c **** 	{
1006:..\..\..\u8g2\u8g2\csrc/u8x8_d_st7565.c **** 	  u8x8_cad_SendSequence(u8x8, u8x8_d_st7565_flip1_seq);
 1085              		.loc 1 1006 0
 1086 0036 0A49     		ldr	r1, .L118+8
 1087 0038 2046     		mov	r0, r4
 1088 003a FFF7FEFF 		bl	u8x8_cad_SendSequence
 1089              	.LVL113:
1007:..\..\..\u8g2\u8g2\csrc/u8x8_d_st7565.c **** 	  u8x8->x_offset = u8x8->display_info->default_x_offset;
 1090              		.loc 1 1007 0
 1091 003e 2368     		ldr	r3, [r4]
ARM GAS  C:\Users\jesse\AppData\Local\Temp\cc9dv931.s 			page 38


 1092 0040 9B7C     		ldrb	r3, [r3, #18]	@ zero_extendqisi2
 1093 0042 05E0     		b	.L117
 1094              	.L115:
1008:..\..\..\u8g2\u8g2\csrc/u8x8_d_st7565.c **** 	}
1009:..\..\..\u8g2\u8g2\csrc/u8x8_d_st7565.c **** 	else
1010:..\..\..\u8g2\u8g2\csrc/u8x8_d_st7565.c **** 	{
1011:..\..\..\u8g2\u8g2\csrc/u8x8_d_st7565.c **** 	  u8x8_cad_SendSequence(u8x8, u8x8_d_st7565_flip0_seq);
 1095              		.loc 1 1011 0
 1096 0044 0749     		ldr	r1, .L118+12
 1097 0046 2046     		mov	r0, r4
 1098 0048 FFF7FEFF 		bl	u8x8_cad_SendSequence
 1099              	.LVL114:
1012:..\..\..\u8g2\u8g2\csrc/u8x8_d_st7565.c **** 	  u8x8->x_offset = u8x8->display_info->flipmode_x_offset;
 1100              		.loc 1 1012 0
 1101 004c 2368     		ldr	r3, [r4]
 1102 004e DB7C     		ldrb	r3, [r3, #19]	@ zero_extendqisi2
 1103              	.L117:
 1104 0050 84F82230 		strb	r3, [r4, #34]
 1105              	.L116:
1013:..\..\..\u8g2\u8g2\csrc/u8x8_d_st7565.c **** 	}	
1014:..\..\..\u8g2\u8g2\csrc/u8x8_d_st7565.c **** 	break;
1015:..\..\..\u8g2\u8g2\csrc/u8x8_d_st7565.c ****       default:
1016:..\..\..\u8g2\u8g2\csrc/u8x8_d_st7565.c **** 	return 0;		/* msg unknown */
1017:..\..\..\u8g2\u8g2\csrc/u8x8_d_st7565.c ****     }
1018:..\..\..\u8g2\u8g2\csrc/u8x8_d_st7565.c ****   }
1019:..\..\..\u8g2\u8g2\csrc/u8x8_d_st7565.c ****   return 1;
 1106              		.loc 1 1019 0
 1107 0054 0120     		movs	r0, #1
 1108              	.L111:
1020:..\..\..\u8g2\u8g2\csrc/u8x8_d_st7565.c **** }
 1109              		.loc 1 1020 0
 1110 0056 70BD     		pop	{r4, r5, r6, pc}
 1111              	.LVL115:
 1112              	.L119:
 1113              		.align	2
 1114              	.L118:
 1115 0058 E4010000 		.word	.LANCHOR0+484
 1116 005c FC010000 		.word	.LANCHOR0+508
 1117 0060 50000000 		.word	.LANCHOR0+80
 1118 0064 49000000 		.word	.LANCHOR0+73
 1119              		.cfi_endproc
 1120              	.LFE11:
 1121              		.size	u8x8_d_st7565_erc12864, .-u8x8_d_st7565_erc12864
 1122              		.section	.text.u8x8_d_st7565_erc12864_alt,"ax",%progbits
 1123              		.align	1
 1124              		.global	u8x8_d_st7565_erc12864_alt
 1125              		.thumb
 1126              		.thumb_func
 1127              		.type	u8x8_d_st7565_erc12864_alt, %function
 1128              	u8x8_d_st7565_erc12864_alt:
 1129              	.LFB12:
1021:..\..\..\u8g2\u8g2\csrc/u8x8_d_st7565.c **** 
1022:..\..\..\u8g2\u8g2\csrc/u8x8_d_st7565.c **** 
1023:..\..\..\u8g2\u8g2\csrc/u8x8_d_st7565.c **** 
1024:..\..\..\u8g2\u8g2\csrc/u8x8_d_st7565.c **** 
1025:..\..\..\u8g2\u8g2\csrc/u8x8_d_st7565.c **** /*================================================*/
1026:..\..\..\u8g2\u8g2\csrc/u8x8_d_st7565.c **** /* ERC12864-1 alternative version, suggested in issue 790 */
ARM GAS  C:\Users\jesse\AppData\Local\Temp\cc9dv931.s 			page 39


1027:..\..\..\u8g2\u8g2\csrc/u8x8_d_st7565.c **** 
1028:..\..\..\u8g2\u8g2\csrc/u8x8_d_st7565.c **** static const uint8_t u8x8_d_st7565_erc12864_alt_init_seq[] = {
1029:..\..\..\u8g2\u8g2\csrc/u8x8_d_st7565.c **** 
1030:..\..\..\u8g2\u8g2\csrc/u8x8_d_st7565.c **** 
1031:..\..\..\u8g2\u8g2\csrc/u8x8_d_st7565.c ****   // original sequence 
1032:..\..\..\u8g2\u8g2\csrc/u8x8_d_st7565.c ****   
1033:..\..\..\u8g2\u8g2\csrc/u8x8_d_st7565.c ****   // U8X8_START_TRANSFER(),             	/* enable chip, delay is part of the transfer start */
1034:..\..\..\u8g2\u8g2\csrc/u8x8_d_st7565.c ****   
1035:..\..\..\u8g2\u8g2\csrc/u8x8_d_st7565.c ****   // U8X8_C(0x0e2),            			/* soft reset */
1036:..\..\..\u8g2\u8g2\csrc/u8x8_d_st7565.c ****   // U8X8_C(0x0ae),		                /* display off */
1037:..\..\..\u8g2\u8g2\csrc/u8x8_d_st7565.c ****   // U8X8_C(0x040),		                /* set display start line to ... */
1038:..\..\..\u8g2\u8g2\csrc/u8x8_d_st7565.c ****   
1039:..\..\..\u8g2\u8g2\csrc/u8x8_d_st7565.c ****   // U8X8_C(0x0a0),		                /* ADC set to reverse */
1040:..\..\..\u8g2\u8g2\csrc/u8x8_d_st7565.c ****   // U8X8_C(0x0c8),		                /* common output mode */
1041:..\..\..\u8g2\u8g2\csrc/u8x8_d_st7565.c ****   
1042:..\..\..\u8g2\u8g2\csrc/u8x8_d_st7565.c ****   // U8X8_C(0x0a6),		                /* display normal, bit val 0: LCD pixel off. */
1043:..\..\..\u8g2\u8g2\csrc/u8x8_d_st7565.c ****   // U8X8_C(0x0a3),		                /* LCD bias 1/9 */
1044:..\..\..\u8g2\u8g2\csrc/u8x8_d_st7565.c ****   // U8X8_C(0x02f),		                /* all power  control circuits on (regulator, booster and foll
1045:..\..\..\u8g2\u8g2\csrc/u8x8_d_st7565.c ****   // U8X8_CA(0x0f8, 0x000),		/* set booster ratio to 4x (ST7567 feature)*/
1046:..\..\..\u8g2\u8g2\csrc/u8x8_d_st7565.c ****   // U8X8_C(0x027),		                /* set V0 voltage resistor ratio to max  */
1047:..\..\..\u8g2\u8g2\csrc/u8x8_d_st7565.c ****   // U8X8_CA(0x081, 0x018),		/* set contrast, contrast value, EA default: 0x016 */
1048:..\..\..\u8g2\u8g2\csrc/u8x8_d_st7565.c ****   
1049:..\..\..\u8g2\u8g2\csrc/u8x8_d_st7565.c ****   // U8X8_C(0x0ae),		                /* display off */
1050:..\..\..\u8g2\u8g2\csrc/u8x8_d_st7565.c ****   // U8X8_C(0x0a5),		                /* enter powersafe: all pixel on, issue 142 */
1051:..\..\..\u8g2\u8g2\csrc/u8x8_d_st7565.c ****   
1052:..\..\..\u8g2\u8g2\csrc/u8x8_d_st7565.c ****   // U8X8_END_TRANSFER(),             	/* disable chip */
1053:..\..\..\u8g2\u8g2\csrc/u8x8_d_st7565.c ****   // U8X8_END()             			/* end of sequence */
1054:..\..\..\u8g2\u8g2\csrc/u8x8_d_st7565.c ****   
1055:..\..\..\u8g2\u8g2\csrc/u8x8_d_st7565.c **** 
1056:..\..\..\u8g2\u8g2\csrc/u8x8_d_st7565.c **** 
1057:..\..\..\u8g2\u8g2\csrc/u8x8_d_st7565.c ****   // suggested in https://github.com/olikraus/u8g2/issues/790
1058:..\..\..\u8g2\u8g2\csrc/u8x8_d_st7565.c ****   
1059:..\..\..\u8g2\u8g2\csrc/u8x8_d_st7565.c ****   U8X8_START_TRANSFER(),             	/* enable chip, delay is part of the transfer start */
1060:..\..\..\u8g2\u8g2\csrc/u8x8_d_st7565.c ****   
1061:..\..\..\u8g2\u8g2\csrc/u8x8_d_st7565.c ****   U8X8_C(0x0e2),            			/* soft reset */
1062:..\..\..\u8g2\u8g2\csrc/u8x8_d_st7565.c ****   U8X8_C(0x0ae),		                /* display off */
1063:..\..\..\u8g2\u8g2\csrc/u8x8_d_st7565.c ****   U8X8_C(0x040),		                /* set display start line to ... */
1064:..\..\..\u8g2\u8g2\csrc/u8x8_d_st7565.c ****   
1065:..\..\..\u8g2\u8g2\csrc/u8x8_d_st7565.c ****   U8X8_C(0x0a0),		                /* ADC set to reverse */
1066:..\..\..\u8g2\u8g2\csrc/u8x8_d_st7565.c ****   U8X8_C(0x0c8),		                /* common output mode */
1067:..\..\..\u8g2\u8g2\csrc/u8x8_d_st7565.c ****   
1068:..\..\..\u8g2\u8g2\csrc/u8x8_d_st7565.c ****   U8X8_C(0x0a6),		                /* display normal, bit val 0: LCD pixel off. */
1069:..\..\..\u8g2\u8g2\csrc/u8x8_d_st7565.c ****   U8X8_C(0x0a2),		                /* LCD bias 1/9 - *** Changed by Ismail - was 0xa3 - 1/7 bias we 
1070:..\..\..\u8g2\u8g2\csrc/u8x8_d_st7565.c ****   U8X8_C(0x02f),		                /* all power  control circuits on (regulator, booster and followe
1071:..\..\..\u8g2\u8g2\csrc/u8x8_d_st7565.c ****   U8X8_CA(0x0f8, 0x000),		/* set booster ratio to 4x (ST7567 feature)*/
1072:..\..\..\u8g2\u8g2\csrc/u8x8_d_st7565.c ****   U8X8_C(0x027),		                /* set V0 voltage resistor ratio to max  */
1073:..\..\..\u8g2\u8g2\csrc/u8x8_d_st7565.c ****   U8X8_CA(0x081, 0x05),		       /* set contrast, contrast value, EA default: 0x016 - *** Changed by
1074:..\..\..\u8g2\u8g2\csrc/u8x8_d_st7565.c ****   
1075:..\..\..\u8g2\u8g2\csrc/u8x8_d_st7565.c ****   U8X8_C(0x0ae),		                /* display off */
1076:..\..\..\u8g2\u8g2\csrc/u8x8_d_st7565.c ****   U8X8_C(0x0a5),		                /* enter powersafe: all pixel on, issue 142 */
1077:..\..\..\u8g2\u8g2\csrc/u8x8_d_st7565.c ****   
1078:..\..\..\u8g2\u8g2\csrc/u8x8_d_st7565.c ****   U8X8_END_TRANSFER(),             	/* disable chip */
1079:..\..\..\u8g2\u8g2\csrc/u8x8_d_st7565.c ****   U8X8_END()             			/* end of sequence */
1080:..\..\..\u8g2\u8g2\csrc/u8x8_d_st7565.c ****   
1081:..\..\..\u8g2\u8g2\csrc/u8x8_d_st7565.c **** };
1082:..\..\..\u8g2\u8g2\csrc/u8x8_d_st7565.c **** 
1083:..\..\..\u8g2\u8g2\csrc/u8x8_d_st7565.c **** 
ARM GAS  C:\Users\jesse\AppData\Local\Temp\cc9dv931.s 			page 40


1084:..\..\..\u8g2\u8g2\csrc/u8x8_d_st7565.c **** uint8_t u8x8_d_st7565_erc12864_alt(u8x8_t *u8x8, uint8_t msg, uint8_t arg_int, void *arg_ptr)
1085:..\..\..\u8g2\u8g2\csrc/u8x8_d_st7565.c **** {
 1130              		.loc 1 1085 0
 1131              		.cfi_startproc
 1132              		@ args = 0, pretend = 0, frame = 0
 1133              		@ frame_needed = 0, uses_anonymous_args = 0
 1134              	.LVL116:
 1135 0000 70B5     		push	{r4, r5, r6, lr}
 1136              		.cfi_def_cfa_offset 16
 1137              		.cfi_offset 4, -16
 1138              		.cfi_offset 5, -12
 1139              		.cfi_offset 6, -8
 1140              		.cfi_offset 14, -4
 1141              		.loc 1 1085 0
 1142 0002 0446     		mov	r4, r0
 1143 0004 0D46     		mov	r5, r1
 1144 0006 1646     		mov	r6, r2
1086:..\..\..\u8g2\u8g2\csrc/u8x8_d_st7565.c ****   /* call common procedure first and handle messages there */
1087:..\..\..\u8g2\u8g2\csrc/u8x8_d_st7565.c ****   if ( u8x8_d_st7565_common(u8x8, msg, arg_int, arg_ptr) == 0 )
 1145              		.loc 1 1087 0
 1146 0008 FFF7FEFF 		bl	u8x8_d_st7565_common
 1147              	.LVL117:
 1148 000c 10BB     		cbnz	r0, .L126
1088:..\..\..\u8g2\u8g2\csrc/u8x8_d_st7565.c ****   {
1089:..\..\..\u8g2\u8g2\csrc/u8x8_d_st7565.c ****     /* msg not handled, then try here */
1090:..\..\..\u8g2\u8g2\csrc/u8x8_d_st7565.c ****     switch(msg)
 1149              		.loc 1 1090 0
 1150 000e 0A2D     		cmp	r5, #10
 1151 0010 08D0     		beq	.L122
 1152 0012 0D2D     		cmp	r5, #13
 1153 0014 0ED0     		beq	.L123
 1154 0016 092D     		cmp	r5, #9
 1155 0018 1DD1     		bne	.L121
1091:..\..\..\u8g2\u8g2\csrc/u8x8_d_st7565.c ****     {
1092:..\..\..\u8g2\u8g2\csrc/u8x8_d_st7565.c ****       case U8X8_MSG_DISPLAY_SETUP_MEMORY:
1093:..\..\..\u8g2\u8g2\csrc/u8x8_d_st7565.c **** 	u8x8_d_helper_display_setup_memory(u8x8, &u8x8_st7565_erc12864_display_info);
 1156              		.loc 1 1093 0
 1157 001a 0F49     		ldr	r1, .L128
 1158 001c 2046     		mov	r0, r4
 1159 001e FFF7FEFF 		bl	u8x8_d_helper_display_setup_memory
 1160              	.LVL118:
 1161 0022 17E0     		b	.L126
 1162              	.L122:
1094:..\..\..\u8g2\u8g2\csrc/u8x8_d_st7565.c **** 	break;
1095:..\..\..\u8g2\u8g2\csrc/u8x8_d_st7565.c ****       case U8X8_MSG_DISPLAY_INIT:
1096:..\..\..\u8g2\u8g2\csrc/u8x8_d_st7565.c **** 	u8x8_d_helper_display_init(u8x8);
 1163              		.loc 1 1096 0
 1164 0024 2046     		mov	r0, r4
 1165 0026 FFF7FEFF 		bl	u8x8_d_helper_display_init
 1166              	.LVL119:
1097:..\..\..\u8g2\u8g2\csrc/u8x8_d_st7565.c **** 	u8x8_cad_SendSequence(u8x8, u8x8_d_st7565_erc12864_alt_init_seq);
 1167              		.loc 1 1097 0
 1168 002a 0C49     		ldr	r1, .L128+4
 1169 002c 2046     		mov	r0, r4
 1170 002e FFF7FEFF 		bl	u8x8_cad_SendSequence
 1171              	.LVL120:
 1172 0032 0FE0     		b	.L126
ARM GAS  C:\Users\jesse\AppData\Local\Temp\cc9dv931.s 			page 41


 1173              	.L123:
1098:..\..\..\u8g2\u8g2\csrc/u8x8_d_st7565.c **** 	break;
1099:..\..\..\u8g2\u8g2\csrc/u8x8_d_st7565.c ****       case U8X8_MSG_DISPLAY_SET_FLIP_MODE:
1100:..\..\..\u8g2\u8g2\csrc/u8x8_d_st7565.c **** 	if ( arg_int == 0 )
 1174              		.loc 1 1100 0
 1175 0034 36B9     		cbnz	r6, .L125
1101:..\..\..\u8g2\u8g2\csrc/u8x8_d_st7565.c **** 	{
1102:..\..\..\u8g2\u8g2\csrc/u8x8_d_st7565.c **** 	  u8x8_cad_SendSequence(u8x8, u8x8_d_st7565_flip1_seq);
 1176              		.loc 1 1102 0
 1177 0036 0A49     		ldr	r1, .L128+8
 1178 0038 2046     		mov	r0, r4
 1179 003a FFF7FEFF 		bl	u8x8_cad_SendSequence
 1180              	.LVL121:
1103:..\..\..\u8g2\u8g2\csrc/u8x8_d_st7565.c **** 	  u8x8->x_offset = u8x8->display_info->default_x_offset;
 1181              		.loc 1 1103 0
 1182 003e 2368     		ldr	r3, [r4]
 1183 0040 9B7C     		ldrb	r3, [r3, #18]	@ zero_extendqisi2
 1184 0042 05E0     		b	.L127
 1185              	.L125:
1104:..\..\..\u8g2\u8g2\csrc/u8x8_d_st7565.c **** 	}
1105:..\..\..\u8g2\u8g2\csrc/u8x8_d_st7565.c **** 	else
1106:..\..\..\u8g2\u8g2\csrc/u8x8_d_st7565.c **** 	{
1107:..\..\..\u8g2\u8g2\csrc/u8x8_d_st7565.c **** 	  u8x8_cad_SendSequence(u8x8, u8x8_d_st7565_flip0_seq);
 1186              		.loc 1 1107 0
 1187 0044 0749     		ldr	r1, .L128+12
 1188 0046 2046     		mov	r0, r4
 1189 0048 FFF7FEFF 		bl	u8x8_cad_SendSequence
 1190              	.LVL122:
1108:..\..\..\u8g2\u8g2\csrc/u8x8_d_st7565.c **** 	  u8x8->x_offset = u8x8->display_info->flipmode_x_offset;
 1191              		.loc 1 1108 0
 1192 004c 2368     		ldr	r3, [r4]
 1193 004e DB7C     		ldrb	r3, [r3, #19]	@ zero_extendqisi2
 1194              	.L127:
 1195 0050 84F82230 		strb	r3, [r4, #34]
 1196              	.L126:
1109:..\..\..\u8g2\u8g2\csrc/u8x8_d_st7565.c **** 	}	
1110:..\..\..\u8g2\u8g2\csrc/u8x8_d_st7565.c **** 	break;
1111:..\..\..\u8g2\u8g2\csrc/u8x8_d_st7565.c ****       default:
1112:..\..\..\u8g2\u8g2\csrc/u8x8_d_st7565.c **** 	return 0;		/* msg unknown */
1113:..\..\..\u8g2\u8g2\csrc/u8x8_d_st7565.c ****     }
1114:..\..\..\u8g2\u8g2\csrc/u8x8_d_st7565.c ****   }
1115:..\..\..\u8g2\u8g2\csrc/u8x8_d_st7565.c ****   return 1;
 1197              		.loc 1 1115 0
 1198 0054 0120     		movs	r0, #1
 1199              	.L121:
1116:..\..\..\u8g2\u8g2\csrc/u8x8_d_st7565.c **** }
 1200              		.loc 1 1116 0
 1201 0056 70BD     		pop	{r4, r5, r6, pc}
 1202              	.LVL123:
 1203              	.L129:
 1204              		.align	2
 1205              	.L128:
 1206 0058 E4010000 		.word	.LANCHOR0+484
 1207 005c 1D020000 		.word	.LANCHOR0+541
 1208 0060 50000000 		.word	.LANCHOR0+80
 1209 0064 49000000 		.word	.LANCHOR0+73
 1210              		.cfi_endproc
ARM GAS  C:\Users\jesse\AppData\Local\Temp\cc9dv931.s 			page 42


 1211              	.LFE12:
 1212              		.size	u8x8_d_st7565_erc12864_alt, .-u8x8_d_st7565_erc12864_alt
 1213              		.section	.text.u8x8_d_nt7534_tg12864r,"ax",%progbits
 1214              		.align	1
 1215              		.global	u8x8_d_nt7534_tg12864r
 1216              		.thumb
 1217              		.thumb_func
 1218              		.type	u8x8_d_nt7534_tg12864r, %function
 1219              	u8x8_d_nt7534_tg12864r:
 1220              	.LFB13:
1117:..\..\..\u8g2\u8g2\csrc/u8x8_d_st7565.c **** 
1118:..\..\..\u8g2\u8g2\csrc/u8x8_d_st7565.c **** 
1119:..\..\..\u8g2\u8g2\csrc/u8x8_d_st7565.c **** 
1120:..\..\..\u8g2\u8g2\csrc/u8x8_d_st7565.c **** 
1121:..\..\..\u8g2\u8g2\csrc/u8x8_d_st7565.c **** /*================================================*/
1122:..\..\..\u8g2\u8g2\csrc/u8x8_d_st7565.c **** /* NT7534, TG12864R */
1123:..\..\..\u8g2\u8g2\csrc/u8x8_d_st7565.c **** /* The NT7534 has an extended command set for the ST7565, however this is not used. */
1124:..\..\..\u8g2\u8g2\csrc/u8x8_d_st7565.c **** /* The TG12864R display is also shifted in lines, like the LM6059/Adafruit display */
1125:..\..\..\u8g2\u8g2\csrc/u8x8_d_st7565.c **** /* However contrast seems to be different */
1126:..\..\..\u8g2\u8g2\csrc/u8x8_d_st7565.c **** 
1127:..\..\..\u8g2\u8g2\csrc/u8x8_d_st7565.c **** static const uint8_t u8x8_d_nt7534_tg12864r_init_seq[] = {
1128:..\..\..\u8g2\u8g2\csrc/u8x8_d_st7565.c ****     
1129:..\..\..\u8g2\u8g2\csrc/u8x8_d_st7565.c ****   U8X8_START_TRANSFER(),             	/* enable chip, delay is part of the transfer start */
1130:..\..\..\u8g2\u8g2\csrc/u8x8_d_st7565.c ****   
1131:..\..\..\u8g2\u8g2\csrc/u8x8_d_st7565.c ****   U8X8_C(0x0e2),            			/* soft reset */
1132:..\..\..\u8g2\u8g2\csrc/u8x8_d_st7565.c ****   U8X8_C(0x0ae),		                /* display off */
1133:..\..\..\u8g2\u8g2\csrc/u8x8_d_st7565.c ****   U8X8_C(0x060),		                /* set display start line to ... */
1134:..\..\..\u8g2\u8g2\csrc/u8x8_d_st7565.c ****   
1135:..\..\..\u8g2\u8g2\csrc/u8x8_d_st7565.c ****   U8X8_C(0x0a0),		                /* ADC set to reverse */
1136:..\..\..\u8g2\u8g2\csrc/u8x8_d_st7565.c ****   U8X8_C(0x0c8),		                /* common output mode */
1137:..\..\..\u8g2\u8g2\csrc/u8x8_d_st7565.c ****   // Flipmode
1138:..\..\..\u8g2\u8g2\csrc/u8x8_d_st7565.c ****   //U8X8_C(0x0a1),		                /* ADC set to reverse */
1139:..\..\..\u8g2\u8g2\csrc/u8x8_d_st7565.c ****   //U8X8_C(0x0c0),		                /* common output mode */
1140:..\..\..\u8g2\u8g2\csrc/u8x8_d_st7565.c ****   
1141:..\..\..\u8g2\u8g2\csrc/u8x8_d_st7565.c ****   U8X8_C(0x0a6),		                /* display normal, bit val 0: LCD pixel off. */
1142:..\..\..\u8g2\u8g2\csrc/u8x8_d_st7565.c ****   U8X8_C(0x0a3),		                /* LCD bias 1/9 */
1143:..\..\..\u8g2\u8g2\csrc/u8x8_d_st7565.c ****   U8X8_C(0x02f),		                /* all power  control circuits on (regulator, booster and followe
1144:..\..\..\u8g2\u8g2\csrc/u8x8_d_st7565.c ****   //U8X8_CA(0x0f8, 0x000),		/* set booster ratio to 4x (ST7567 feature)*/
1145:..\..\..\u8g2\u8g2\csrc/u8x8_d_st7565.c ****   U8X8_C(0x027),		                /* set V0 voltage resistor ratio to max  */
1146:..\..\..\u8g2\u8g2\csrc/u8x8_d_st7565.c ****   U8X8_CA(0x081, 0x009),		/* set contrast, contrast value, EA default: 0x016 */
1147:..\..\..\u8g2\u8g2\csrc/u8x8_d_st7565.c ****   
1148:..\..\..\u8g2\u8g2\csrc/u8x8_d_st7565.c ****   U8X8_C(0x0ae),		                /* display off */
1149:..\..\..\u8g2\u8g2\csrc/u8x8_d_st7565.c ****   U8X8_C(0x0a5),		                /* enter powersafe: all pixel on, issue 142 */
1150:..\..\..\u8g2\u8g2\csrc/u8x8_d_st7565.c ****   
1151:..\..\..\u8g2\u8g2\csrc/u8x8_d_st7565.c ****   U8X8_END_TRANSFER(),             	/* disable chip */
1152:..\..\..\u8g2\u8g2\csrc/u8x8_d_st7565.c ****   U8X8_END()             			/* end of sequence */
1153:..\..\..\u8g2\u8g2\csrc/u8x8_d_st7565.c **** };
1154:..\..\..\u8g2\u8g2\csrc/u8x8_d_st7565.c **** 
1155:..\..\..\u8g2\u8g2\csrc/u8x8_d_st7565.c **** uint8_t u8x8_d_nt7534_tg12864r(u8x8_t *u8x8, uint8_t msg, uint8_t arg_int, void *arg_ptr)
1156:..\..\..\u8g2\u8g2\csrc/u8x8_d_st7565.c **** {
 1221              		.loc 1 1156 0
 1222              		.cfi_startproc
 1223              		@ args = 0, pretend = 0, frame = 0
 1224              		@ frame_needed = 0, uses_anonymous_args = 0
 1225              	.LVL124:
 1226 0000 70B5     		push	{r4, r5, r6, lr}
 1227              		.cfi_def_cfa_offset 16
ARM GAS  C:\Users\jesse\AppData\Local\Temp\cc9dv931.s 			page 43


 1228              		.cfi_offset 4, -16
 1229              		.cfi_offset 5, -12
 1230              		.cfi_offset 6, -8
 1231              		.cfi_offset 14, -4
 1232              		.loc 1 1156 0
 1233 0002 0446     		mov	r4, r0
 1234 0004 0D46     		mov	r5, r1
 1235 0006 1646     		mov	r6, r2
1157:..\..\..\u8g2\u8g2\csrc/u8x8_d_st7565.c ****   /* call common procedure first and handle messages there */
1158:..\..\..\u8g2\u8g2\csrc/u8x8_d_st7565.c ****   if ( u8x8_d_st7565_common(u8x8, msg, arg_int, arg_ptr) == 0 )
 1236              		.loc 1 1158 0
 1237 0008 FFF7FEFF 		bl	u8x8_d_st7565_common
 1238              	.LVL125:
 1239 000c 10BB     		cbnz	r0, .L136
1159:..\..\..\u8g2\u8g2\csrc/u8x8_d_st7565.c ****   {
1160:..\..\..\u8g2\u8g2\csrc/u8x8_d_st7565.c ****     /* msg not handled, then try here */
1161:..\..\..\u8g2\u8g2\csrc/u8x8_d_st7565.c ****     switch(msg)
 1240              		.loc 1 1161 0
 1241 000e 0A2D     		cmp	r5, #10
 1242 0010 08D0     		beq	.L132
 1243 0012 0D2D     		cmp	r5, #13
 1244 0014 0ED0     		beq	.L133
 1245 0016 092D     		cmp	r5, #9
 1246 0018 1DD1     		bne	.L131
1162:..\..\..\u8g2\u8g2\csrc/u8x8_d_st7565.c ****     {
1163:..\..\..\u8g2\u8g2\csrc/u8x8_d_st7565.c ****       case U8X8_MSG_DISPLAY_SETUP_MEMORY:
1164:..\..\..\u8g2\u8g2\csrc/u8x8_d_st7565.c **** 	/* reuse the LM6059 data structure... this display seems to have similar shifts and offsets */
1165:..\..\..\u8g2\u8g2\csrc/u8x8_d_st7565.c **** 	u8x8_d_helper_display_setup_memory(u8x8, &u8x8_st7565_lm6059_display_info);
 1247              		.loc 1 1165 0
 1248 001a 0F49     		ldr	r1, .L138
 1249 001c 2046     		mov	r0, r4
 1250 001e FFF7FEFF 		bl	u8x8_d_helper_display_setup_memory
 1251              	.LVL126:
 1252 0022 17E0     		b	.L136
 1253              	.L132:
1166:..\..\..\u8g2\u8g2\csrc/u8x8_d_st7565.c **** 	break;
1167:..\..\..\u8g2\u8g2\csrc/u8x8_d_st7565.c ****       case U8X8_MSG_DISPLAY_INIT:
1168:..\..\..\u8g2\u8g2\csrc/u8x8_d_st7565.c **** 	u8x8_d_helper_display_init(u8x8);
 1254              		.loc 1 1168 0
 1255 0024 2046     		mov	r0, r4
 1256 0026 FFF7FEFF 		bl	u8x8_d_helper_display_init
 1257              	.LVL127:
1169:..\..\..\u8g2\u8g2\csrc/u8x8_d_st7565.c ****       
1170:..\..\..\u8g2\u8g2\csrc/u8x8_d_st7565.c **** 	//u8x8_cad_SendSequence(u8x8, u8x8_d_st7565_lm6059_init_seq);
1171:..\..\..\u8g2\u8g2\csrc/u8x8_d_st7565.c **** 	u8x8_cad_SendSequence(u8x8, u8x8_d_nt7534_tg12864r_init_seq);
 1258              		.loc 1 1171 0
 1259 002a 0C49     		ldr	r1, .L138+4
 1260 002c 2046     		mov	r0, r4
 1261 002e FFF7FEFF 		bl	u8x8_cad_SendSequence
 1262              	.LVL128:
 1263 0032 0FE0     		b	.L136
 1264              	.L133:
1172:..\..\..\u8g2\u8g2\csrc/u8x8_d_st7565.c **** 	break;
1173:..\..\..\u8g2\u8g2\csrc/u8x8_d_st7565.c ****       case U8X8_MSG_DISPLAY_SET_FLIP_MODE:
1174:..\..\..\u8g2\u8g2\csrc/u8x8_d_st7565.c **** 	if ( arg_int == 0 )
 1265              		.loc 1 1174 0
 1266 0034 36B9     		cbnz	r6, .L135
ARM GAS  C:\Users\jesse\AppData\Local\Temp\cc9dv931.s 			page 44


1175:..\..\..\u8g2\u8g2\csrc/u8x8_d_st7565.c **** 	{
1176:..\..\..\u8g2\u8g2\csrc/u8x8_d_st7565.c **** 	  u8x8_cad_SendSequence(u8x8, u8x8_d_st7565_flip1_seq);
 1267              		.loc 1 1176 0
 1268 0036 0A49     		ldr	r1, .L138+8
 1269 0038 2046     		mov	r0, r4
 1270 003a FFF7FEFF 		bl	u8x8_cad_SendSequence
 1271              	.LVL129:
1177:..\..\..\u8g2\u8g2\csrc/u8x8_d_st7565.c **** 	  u8x8->x_offset = u8x8->display_info->default_x_offset;
 1272              		.loc 1 1177 0
 1273 003e 2368     		ldr	r3, [r4]
 1274 0040 9B7C     		ldrb	r3, [r3, #18]	@ zero_extendqisi2
 1275 0042 05E0     		b	.L137
 1276              	.L135:
1178:..\..\..\u8g2\u8g2\csrc/u8x8_d_st7565.c **** 	}
1179:..\..\..\u8g2\u8g2\csrc/u8x8_d_st7565.c **** 	else
1180:..\..\..\u8g2\u8g2\csrc/u8x8_d_st7565.c **** 	{
1181:..\..\..\u8g2\u8g2\csrc/u8x8_d_st7565.c **** 	  u8x8_cad_SendSequence(u8x8, u8x8_d_st7565_flip0_seq);
 1277              		.loc 1 1181 0
 1278 0044 0749     		ldr	r1, .L138+12
 1279 0046 2046     		mov	r0, r4
 1280 0048 FFF7FEFF 		bl	u8x8_cad_SendSequence
 1281              	.LVL130:
1182:..\..\..\u8g2\u8g2\csrc/u8x8_d_st7565.c **** 	  u8x8->x_offset = u8x8->display_info->flipmode_x_offset;
 1282              		.loc 1 1182 0
 1283 004c 2368     		ldr	r3, [r4]
 1284 004e DB7C     		ldrb	r3, [r3, #19]	@ zero_extendqisi2
 1285              	.L137:
 1286 0050 84F82230 		strb	r3, [r4, #34]
 1287              	.L136:
1183:..\..\..\u8g2\u8g2\csrc/u8x8_d_st7565.c **** 	}	
1184:..\..\..\u8g2\u8g2\csrc/u8x8_d_st7565.c **** 	break;
1185:..\..\..\u8g2\u8g2\csrc/u8x8_d_st7565.c ****       default:
1186:..\..\..\u8g2\u8g2\csrc/u8x8_d_st7565.c **** 	return 0;		/* msg unknown */
1187:..\..\..\u8g2\u8g2\csrc/u8x8_d_st7565.c ****     }
1188:..\..\..\u8g2\u8g2\csrc/u8x8_d_st7565.c ****   }
1189:..\..\..\u8g2\u8g2\csrc/u8x8_d_st7565.c ****   return 1;
 1288              		.loc 1 1189 0
 1289 0054 0120     		movs	r0, #1
 1290              	.L131:
1190:..\..\..\u8g2\u8g2\csrc/u8x8_d_st7565.c **** }
 1291              		.loc 1 1190 0
 1292 0056 70BD     		pop	{r4, r5, r6, pc}
 1293              	.LVL131:
 1294              	.L139:
 1295              		.align	2
 1296              	.L138:
 1297 0058 54010000 		.word	.LANCHOR0+340
 1298 005c 3E020000 		.word	.LANCHOR0+574
 1299 0060 50000000 		.word	.LANCHOR0+80
 1300 0064 49000000 		.word	.LANCHOR0+73
 1301              		.cfi_endproc
 1302              	.LFE13:
 1303              		.size	u8x8_d_nt7534_tg12864r, .-u8x8_d_nt7534_tg12864r
 1304              		.section	.text.u8x8_d_st7565_ea_dogm132,"ax",%progbits
 1305              		.align	1
 1306              		.global	u8x8_d_st7565_ea_dogm132
 1307              		.thumb
ARM GAS  C:\Users\jesse\AppData\Local\Temp\cc9dv931.s 			page 45


 1308              		.thumb_func
 1309              		.type	u8x8_d_st7565_ea_dogm132, %function
 1310              	u8x8_d_st7565_ea_dogm132:
 1311              	.LFB14:
1191:..\..\..\u8g2\u8g2\csrc/u8x8_d_st7565.c **** 
1192:..\..\..\u8g2\u8g2\csrc/u8x8_d_st7565.c **** 
1193:..\..\..\u8g2\u8g2\csrc/u8x8_d_st7565.c **** /*================================================*/
1194:..\..\..\u8g2\u8g2\csrc/u8x8_d_st7565.c **** /* EA DOGM132 */
1195:..\..\..\u8g2\u8g2\csrc/u8x8_d_st7565.c **** 
1196:..\..\..\u8g2\u8g2\csrc/u8x8_d_st7565.c **** static const u8x8_display_info_t u8x8_st7565_dogm132_display_info =
1197:..\..\..\u8g2\u8g2\csrc/u8x8_d_st7565.c **** {
1198:..\..\..\u8g2\u8g2\csrc/u8x8_d_st7565.c ****   /* chip_enable_level = */ 0,
1199:..\..\..\u8g2\u8g2\csrc/u8x8_d_st7565.c ****   /* chip_disable_level = */ 1,
1200:..\..\..\u8g2\u8g2\csrc/u8x8_d_st7565.c ****   
1201:..\..\..\u8g2\u8g2\csrc/u8x8_d_st7565.c ****   /* post_chip_enable_wait_ns = */ 150,	/* st7565 datasheet, table 26, tcsh */
1202:..\..\..\u8g2\u8g2\csrc/u8x8_d_st7565.c ****   /* pre_chip_disable_wait_ns = */ 50,	/* st7565 datasheet, table 26, tcss */
1203:..\..\..\u8g2\u8g2\csrc/u8x8_d_st7565.c ****   /* reset_pulse_width_ms = */ 1, 
1204:..\..\..\u8g2\u8g2\csrc/u8x8_d_st7565.c ****   /* post_reset_wait_ms = */ 1, 
1205:..\..\..\u8g2\u8g2\csrc/u8x8_d_st7565.c ****   /* sda_setup_time_ns = */ 50,		/* st7565 datasheet, table 26, tsds */
1206:..\..\..\u8g2\u8g2\csrc/u8x8_d_st7565.c ****   /* sck_pulse_width_ns = */ 120,	/* half of cycle time (100ns according to datasheet), AVR: below 
1207:..\..\..\u8g2\u8g2\csrc/u8x8_d_st7565.c ****   /* sck_clock_hz = */ 4000000UL,	/* since Arduino 1.6.0, the SPI bus speed in Hz. Should be  10000
1208:..\..\..\u8g2\u8g2\csrc/u8x8_d_st7565.c ****   /* spi_mode = */ 0,		/* active high, rising edge */
1209:..\..\..\u8g2\u8g2\csrc/u8x8_d_st7565.c ****   /* i2c_bus_clock_100kHz = */ 4,
1210:..\..\..\u8g2\u8g2\csrc/u8x8_d_st7565.c ****   /* data_setup_time_ns = */ 40,	/* st7565 datasheet, table 24, tds8 */
1211:..\..\..\u8g2\u8g2\csrc/u8x8_d_st7565.c ****   /* write_pulse_width_ns = */ 80,	/* st7565 datasheet, table 24, tcclw */
1212:..\..\..\u8g2\u8g2\csrc/u8x8_d_st7565.c ****   /* tile_width = */ 17,		/* width of 16*8=136 pixel */
1213:..\..\..\u8g2\u8g2\csrc/u8x8_d_st7565.c ****   /* tile_hight = */ 4,
1214:..\..\..\u8g2\u8g2\csrc/u8x8_d_st7565.c ****   /* default_x_offset = */ 0,
1215:..\..\..\u8g2\u8g2\csrc/u8x8_d_st7565.c ****   /* flipmode_x_offset = */ 0,
1216:..\..\..\u8g2\u8g2\csrc/u8x8_d_st7565.c ****   /* pixel_width = */ 132,
1217:..\..\..\u8g2\u8g2\csrc/u8x8_d_st7565.c ****   /* pixel_height = */ 32
1218:..\..\..\u8g2\u8g2\csrc/u8x8_d_st7565.c **** };
1219:..\..\..\u8g2\u8g2\csrc/u8x8_d_st7565.c **** 
1220:..\..\..\u8g2\u8g2\csrc/u8x8_d_st7565.c **** 
1221:..\..\..\u8g2\u8g2\csrc/u8x8_d_st7565.c **** static const uint8_t u8x8_d_st7565_dogm132_init_seq[] = {
1222:..\..\..\u8g2\u8g2\csrc/u8x8_d_st7565.c ****     
1223:..\..\..\u8g2\u8g2\csrc/u8x8_d_st7565.c ****   U8X8_START_TRANSFER(),             	/* enable chip, delay is part of the transfer start */
1224:..\..\..\u8g2\u8g2\csrc/u8x8_d_st7565.c ****   
1225:..\..\..\u8g2\u8g2\csrc/u8x8_d_st7565.c ****   U8X8_C(0x0e2),            			/* soft reset */
1226:..\..\..\u8g2\u8g2\csrc/u8x8_d_st7565.c ****   U8X8_C(0x0ae),		                /* display off */
1227:..\..\..\u8g2\u8g2\csrc/u8x8_d_st7565.c ****   U8X8_C(0x040),		                /* set display start line to 0 */
1228:..\..\..\u8g2\u8g2\csrc/u8x8_d_st7565.c ****   
1229:..\..\..\u8g2\u8g2\csrc/u8x8_d_st7565.c ****   U8X8_C(0x0a1),		                /* ADC set to reverse */
1230:..\..\..\u8g2\u8g2\csrc/u8x8_d_st7565.c ****   U8X8_C(0x0c0),		                /* common output mode */
1231:..\..\..\u8g2\u8g2\csrc/u8x8_d_st7565.c ****   // Flipmode
1232:..\..\..\u8g2\u8g2\csrc/u8x8_d_st7565.c ****   //U8X8_C(0x0a0),		                /* ADC set to reverse */
1233:..\..\..\u8g2\u8g2\csrc/u8x8_d_st7565.c ****   //U8X8_C(0x0c8),		                /* common output mode */
1234:..\..\..\u8g2\u8g2\csrc/u8x8_d_st7565.c ****   
1235:..\..\..\u8g2\u8g2\csrc/u8x8_d_st7565.c ****   U8X8_C(0x0a6),		                /* display normal, bit val 0: LCD pixel off. */
1236:..\..\..\u8g2\u8g2\csrc/u8x8_d_st7565.c ****   U8X8_C(0x0a2),		                /* LCD bias 1/9 */
1237:..\..\..\u8g2\u8g2\csrc/u8x8_d_st7565.c ****   U8X8_C(0x02f),		                /* all power  control circuits on */
1238:..\..\..\u8g2\u8g2\csrc/u8x8_d_st7565.c ****   U8X8_CA(0x0f8, 0x000),		/* set booster ratio to 4x */
1239:..\..\..\u8g2\u8g2\csrc/u8x8_d_st7565.c ****   U8X8_C(0x023),		                /* set V0 voltage resistor ratio to large*/
1240:..\..\..\u8g2\u8g2\csrc/u8x8_d_st7565.c ****   U8X8_CA(0x081, 0x01f),		/* set contrast, contrast value EA DOGM132 */
1241:..\..\..\u8g2\u8g2\csrc/u8x8_d_st7565.c ****   
1242:..\..\..\u8g2\u8g2\csrc/u8x8_d_st7565.c ****   U8X8_C(0x0ae),		                /* display off */
1243:..\..\..\u8g2\u8g2\csrc/u8x8_d_st7565.c ****   U8X8_C(0x0a5),		                /* enter powersafe: all pixel on, issue 142 */
ARM GAS  C:\Users\jesse\AppData\Local\Temp\cc9dv931.s 			page 46


1244:..\..\..\u8g2\u8g2\csrc/u8x8_d_st7565.c ****   
1245:..\..\..\u8g2\u8g2\csrc/u8x8_d_st7565.c ****   U8X8_END_TRANSFER(),             	/* disable chip */
1246:..\..\..\u8g2\u8g2\csrc/u8x8_d_st7565.c ****   U8X8_END()             			/* end of sequence */
1247:..\..\..\u8g2\u8g2\csrc/u8x8_d_st7565.c **** };
1248:..\..\..\u8g2\u8g2\csrc/u8x8_d_st7565.c **** 
1249:..\..\..\u8g2\u8g2\csrc/u8x8_d_st7565.c **** uint8_t u8x8_d_st7565_ea_dogm132(u8x8_t *u8x8, uint8_t msg, uint8_t arg_int, void *arg_ptr)
1250:..\..\..\u8g2\u8g2\csrc/u8x8_d_st7565.c **** {
 1312              		.loc 1 1250 0
 1313              		.cfi_startproc
 1314              		@ args = 0, pretend = 0, frame = 0
 1315              		@ frame_needed = 0, uses_anonymous_args = 0
 1316              	.LVL132:
 1317 0000 70B5     		push	{r4, r5, r6, lr}
 1318              		.cfi_def_cfa_offset 16
 1319              		.cfi_offset 4, -16
 1320              		.cfi_offset 5, -12
 1321              		.cfi_offset 6, -8
 1322              		.cfi_offset 14, -4
 1323              		.loc 1 1250 0
 1324 0002 0446     		mov	r4, r0
 1325 0004 0D46     		mov	r5, r1
 1326 0006 1646     		mov	r6, r2
1251:..\..\..\u8g2\u8g2\csrc/u8x8_d_st7565.c ****   /* call common procedure first and handle messages there */
1252:..\..\..\u8g2\u8g2\csrc/u8x8_d_st7565.c ****   if ( u8x8_d_st7565_common(u8x8, msg, arg_int, arg_ptr) == 0 )
 1327              		.loc 1 1252 0
 1328 0008 FFF7FEFF 		bl	u8x8_d_st7565_common
 1329              	.LVL133:
 1330 000c 10BB     		cbnz	r0, .L146
1253:..\..\..\u8g2\u8g2\csrc/u8x8_d_st7565.c ****   {
1254:..\..\..\u8g2\u8g2\csrc/u8x8_d_st7565.c ****     /* msg not handled, then try here */
1255:..\..\..\u8g2\u8g2\csrc/u8x8_d_st7565.c ****     switch(msg)
 1331              		.loc 1 1255 0
 1332 000e 0A2D     		cmp	r5, #10
 1333 0010 08D0     		beq	.L142
 1334 0012 0D2D     		cmp	r5, #13
 1335 0014 0ED0     		beq	.L143
 1336 0016 092D     		cmp	r5, #9
 1337 0018 1DD1     		bne	.L141
1256:..\..\..\u8g2\u8g2\csrc/u8x8_d_st7565.c ****     {
1257:..\..\..\u8g2\u8g2\csrc/u8x8_d_st7565.c ****       case U8X8_MSG_DISPLAY_SETUP_MEMORY:
1258:..\..\..\u8g2\u8g2\csrc/u8x8_d_st7565.c **** 	u8x8_d_helper_display_setup_memory(u8x8, &u8x8_st7565_dogm132_display_info);
 1338              		.loc 1 1258 0
 1339 001a 0F49     		ldr	r1, .L148
 1340 001c 2046     		mov	r0, r4
 1341 001e FFF7FEFF 		bl	u8x8_d_helper_display_setup_memory
 1342              	.LVL134:
 1343 0022 17E0     		b	.L146
 1344              	.L142:
1259:..\..\..\u8g2\u8g2\csrc/u8x8_d_st7565.c **** 	break;
1260:..\..\..\u8g2\u8g2\csrc/u8x8_d_st7565.c ****       case U8X8_MSG_DISPLAY_INIT:
1261:..\..\..\u8g2\u8g2\csrc/u8x8_d_st7565.c **** 	u8x8_d_helper_display_init(u8x8);
 1345              		.loc 1 1261 0
 1346 0024 2046     		mov	r0, r4
 1347 0026 FFF7FEFF 		bl	u8x8_d_helper_display_init
 1348              	.LVL135:
1262:..\..\..\u8g2\u8g2\csrc/u8x8_d_st7565.c **** 	u8x8_cad_SendSequence(u8x8, u8x8_d_st7565_dogm132_init_seq);
 1349              		.loc 1 1262 0
ARM GAS  C:\Users\jesse\AppData\Local\Temp\cc9dv931.s 			page 47


 1350 002a 0C49     		ldr	r1, .L148+4
 1351 002c 2046     		mov	r0, r4
 1352 002e FFF7FEFF 		bl	u8x8_cad_SendSequence
 1353              	.LVL136:
 1354 0032 0FE0     		b	.L146
 1355              	.L143:
1263:..\..\..\u8g2\u8g2\csrc/u8x8_d_st7565.c **** 	break;
1264:..\..\..\u8g2\u8g2\csrc/u8x8_d_st7565.c ****       case U8X8_MSG_DISPLAY_SET_FLIP_MODE:
1265:..\..\..\u8g2\u8g2\csrc/u8x8_d_st7565.c **** 	if ( arg_int == 0 )
 1356              		.loc 1 1265 0
 1357 0034 36B9     		cbnz	r6, .L145
1266:..\..\..\u8g2\u8g2\csrc/u8x8_d_st7565.c **** 	{
1267:..\..\..\u8g2\u8g2\csrc/u8x8_d_st7565.c **** 	  u8x8_cad_SendSequence(u8x8, u8x8_d_st7565_flip0_seq);
 1358              		.loc 1 1267 0
 1359 0036 0A49     		ldr	r1, .L148+8
 1360 0038 2046     		mov	r0, r4
 1361 003a FFF7FEFF 		bl	u8x8_cad_SendSequence
 1362              	.LVL137:
1268:..\..\..\u8g2\u8g2\csrc/u8x8_d_st7565.c **** 	  u8x8->x_offset = u8x8->display_info->default_x_offset;
 1363              		.loc 1 1268 0
 1364 003e 2368     		ldr	r3, [r4]
 1365 0040 9B7C     		ldrb	r3, [r3, #18]	@ zero_extendqisi2
 1366 0042 05E0     		b	.L147
 1367              	.L145:
1269:..\..\..\u8g2\u8g2\csrc/u8x8_d_st7565.c **** 	}
1270:..\..\..\u8g2\u8g2\csrc/u8x8_d_st7565.c **** 	else
1271:..\..\..\u8g2\u8g2\csrc/u8x8_d_st7565.c **** 	{
1272:..\..\..\u8g2\u8g2\csrc/u8x8_d_st7565.c **** 	  u8x8_cad_SendSequence(u8x8, u8x8_d_st7565_flip1_seq);
 1368              		.loc 1 1272 0
 1369 0044 0749     		ldr	r1, .L148+12
 1370 0046 2046     		mov	r0, r4
 1371 0048 FFF7FEFF 		bl	u8x8_cad_SendSequence
 1372              	.LVL138:
1273:..\..\..\u8g2\u8g2\csrc/u8x8_d_st7565.c **** 	  u8x8->x_offset = u8x8->display_info->flipmode_x_offset;
 1373              		.loc 1 1273 0
 1374 004c 2368     		ldr	r3, [r4]
 1375 004e DB7C     		ldrb	r3, [r3, #19]	@ zero_extendqisi2
 1376              	.L147:
 1377 0050 84F82230 		strb	r3, [r4, #34]
 1378              	.L146:
1274:..\..\..\u8g2\u8g2\csrc/u8x8_d_st7565.c **** 	}	
1275:..\..\..\u8g2\u8g2\csrc/u8x8_d_st7565.c **** 	break;
1276:..\..\..\u8g2\u8g2\csrc/u8x8_d_st7565.c ****       default:
1277:..\..\..\u8g2\u8g2\csrc/u8x8_d_st7565.c **** 	return 0;		/* msg unknown */
1278:..\..\..\u8g2\u8g2\csrc/u8x8_d_st7565.c ****     }
1279:..\..\..\u8g2\u8g2\csrc/u8x8_d_st7565.c ****   }
1280:..\..\..\u8g2\u8g2\csrc/u8x8_d_st7565.c ****   return 1;
 1379              		.loc 1 1280 0
 1380 0054 0120     		movs	r0, #1
 1381              	.L141:
1281:..\..\..\u8g2\u8g2\csrc/u8x8_d_st7565.c **** }
 1382              		.loc 1 1281 0
 1383 0056 70BD     		pop	{r4, r5, r6, pc}
 1384              	.LVL139:
 1385              	.L149:
 1386              		.align	2
 1387              	.L148:
ARM GAS  C:\Users\jesse\AppData\Local\Temp\cc9dv931.s 			page 48


 1388 0058 5C020000 		.word	.LANCHOR0+604
 1389 005c 74020000 		.word	.LANCHOR0+628
 1390 0060 49000000 		.word	.LANCHOR0+73
 1391 0064 50000000 		.word	.LANCHOR0+80
 1392              		.cfi_endproc
 1393              	.LFE14:
 1394              		.size	u8x8_d_st7565_ea_dogm132, .-u8x8_d_st7565_ea_dogm132
 1395              		.section	.rodata
 1396              		.align	2
 1397              		.set	.LANCHOR0,. + 0
 1398              		.type	u8x8_d_st7565_powersave0_seq, %object
 1399              		.size	u8x8_d_st7565_powersave0_seq, 7
 1400              	u8x8_d_st7565_powersave0_seq:
 1401 0000 18       		.byte	24
 1402 0001 15       		.byte	21
 1403 0002 A4       		.byte	-92
 1404 0003 15       		.byte	21
 1405 0004 AF       		.byte	-81
 1406 0005 19       		.byte	25
 1407 0006 FF       		.byte	-1
 1408              		.type	u8x8_d_st7565_powersave1_seq, %object
 1409              		.size	u8x8_d_st7565_powersave1_seq, 7
 1410              	u8x8_d_st7565_powersave1_seq:
 1411 0007 18       		.byte	24
 1412 0008 15       		.byte	21
 1413 0009 AE       		.byte	-82
 1414 000a 15       		.byte	21
 1415 000b A5       		.byte	-91
 1416 000c 19       		.byte	25
 1417 000d FF       		.byte	-1
 1418 000e 0000     		.space	2
 1419              		.type	u8x8_st7565_128x64_display_info, %object
 1420              		.size	u8x8_st7565_128x64_display_info, 24
 1421              	u8x8_st7565_128x64_display_info:
 1422 0010 00       		.byte	0
 1423 0011 01       		.byte	1
 1424 0012 96       		.byte	-106
 1425 0013 32       		.byte	50
 1426 0014 01       		.byte	1
 1427 0015 01       		.byte	1
 1428 0016 32       		.byte	50
 1429 0017 78       		.byte	120
 1430 0018 00093D00 		.word	4000000
 1431 001c 00       		.byte	0
 1432 001d 04       		.byte	4
 1433 001e 28       		.byte	40
 1434 001f 50       		.byte	80
 1435 0020 10       		.byte	16
 1436 0021 08       		.byte	8
 1437 0022 00       		.byte	0
 1438 0023 04       		.byte	4
 1439 0024 8000     		.short	128
 1440 0026 4000     		.short	64
 1441              		.type	u8x8_d_st7565_dogm128_init_seq, %object
 1442              		.size	u8x8_d_st7565_dogm128_init_seq, 33
 1443              	u8x8_d_st7565_dogm128_init_seq:
 1444 0028 18       		.byte	24
ARM GAS  C:\Users\jesse\AppData\Local\Temp\cc9dv931.s 			page 49


 1445 0029 15       		.byte	21
 1446 002a E2       		.byte	-30
 1447 002b 15       		.byte	21
 1448 002c AE       		.byte	-82
 1449 002d 15       		.byte	21
 1450 002e 40       		.byte	64
 1451 002f 15       		.byte	21
 1452 0030 A1       		.byte	-95
 1453 0031 15       		.byte	21
 1454 0032 C0       		.byte	-64
 1455 0033 15       		.byte	21
 1456 0034 A6       		.byte	-90
 1457 0035 15       		.byte	21
 1458 0036 A2       		.byte	-94
 1459 0037 15       		.byte	21
 1460 0038 2F       		.byte	47
 1461 0039 15       		.byte	21
 1462 003a F8       		.byte	-8
 1463 003b 16       		.byte	22
 1464 003c 00       		.byte	0
 1465 003d 15       		.byte	21
 1466 003e 27       		.byte	39
 1467 003f 15       		.byte	21
 1468 0040 81       		.byte	-127
 1469 0041 16       		.byte	22
 1470 0042 18       		.byte	24
 1471 0043 15       		.byte	21
 1472 0044 AE       		.byte	-82
 1473 0045 15       		.byte	21
 1474 0046 A5       		.byte	-91
 1475 0047 19       		.byte	25
 1476 0048 FF       		.byte	-1
 1477              		.type	u8x8_d_st7565_flip0_seq, %object
 1478              		.size	u8x8_d_st7565_flip0_seq, 7
 1479              	u8x8_d_st7565_flip0_seq:
 1480 0049 18       		.byte	24
 1481 004a 15       		.byte	21
 1482 004b A1       		.byte	-95
 1483 004c 15       		.byte	21
 1484 004d C0       		.byte	-64
 1485 004e 19       		.byte	25
 1486 004f FF       		.byte	-1
 1487              		.type	u8x8_d_st7565_flip1_seq, %object
 1488              		.size	u8x8_d_st7565_flip1_seq, 7
 1489              	u8x8_d_st7565_flip1_seq:
 1490 0050 18       		.byte	24
 1491 0051 15       		.byte	21
 1492 0052 A0       		.byte	-96
 1493 0053 15       		.byte	21
 1494 0054 C8       		.byte	-56
 1495 0055 19       		.byte	25
 1496 0056 FF       		.byte	-1
 1497              		.type	u8x8_d_st7565_lm6063_init_seq, %object
 1498              		.size	u8x8_d_st7565_lm6063_init_seq, 33
 1499              	u8x8_d_st7565_lm6063_init_seq:
 1500 0057 18       		.byte	24
 1501 0058 15       		.byte	21
ARM GAS  C:\Users\jesse\AppData\Local\Temp\cc9dv931.s 			page 50


 1502 0059 E2       		.byte	-30
 1503 005a 15       		.byte	21
 1504 005b AE       		.byte	-82
 1505 005c 15       		.byte	21
 1506 005d 40       		.byte	64
 1507 005e 15       		.byte	21
 1508 005f A1       		.byte	-95
 1509 0060 15       		.byte	21
 1510 0061 C0       		.byte	-64
 1511 0062 15       		.byte	21
 1512 0063 A6       		.byte	-90
 1513 0064 15       		.byte	21
 1514 0065 A2       		.byte	-94
 1515 0066 15       		.byte	21
 1516 0067 2F       		.byte	47
 1517 0068 15       		.byte	21
 1518 0069 F8       		.byte	-8
 1519 006a 16       		.byte	22
 1520 006b 00       		.byte	0
 1521 006c 15       		.byte	21
 1522 006d 27       		.byte	39
 1523 006e 15       		.byte	21
 1524 006f 81       		.byte	-127
 1525 0070 16       		.byte	22
 1526 0071 0C       		.byte	12
 1527 0072 15       		.byte	21
 1528 0073 AE       		.byte	-82
 1529 0074 15       		.byte	21
 1530 0075 A5       		.byte	-91
 1531 0076 19       		.byte	25
 1532 0077 FF       		.byte	-1
 1533              		.type	u8x8_st7565_64128n_display_info, %object
 1534              		.size	u8x8_st7565_64128n_display_info, 24
 1535              	u8x8_st7565_64128n_display_info:
 1536 0078 00       		.byte	0
 1537 0079 01       		.byte	1
 1538 007a 96       		.byte	-106
 1539 007b 32       		.byte	50
 1540 007c 01       		.byte	1
 1541 007d 01       		.byte	1
 1542 007e 32       		.byte	50
 1543 007f 78       		.byte	120
 1544 0080 00093D00 		.word	4000000
 1545 0084 00       		.byte	0
 1546 0085 04       		.byte	4
 1547 0086 28       		.byte	40
 1548 0087 50       		.byte	80
 1549 0088 10       		.byte	16
 1550 0089 08       		.byte	8
 1551 008a 04       		.byte	4
 1552 008b 00       		.byte	0
 1553 008c 8000     		.short	128
 1554 008e 4000     		.short	64
 1555              		.type	u8x8_d_st7565_64128n_init_seq, %object
 1556              		.size	u8x8_d_st7565_64128n_init_seq, 29
 1557              	u8x8_d_st7565_64128n_init_seq:
 1558 0090 18       		.byte	24
ARM GAS  C:\Users\jesse\AppData\Local\Temp\cc9dv931.s 			page 51


 1559 0091 15       		.byte	21
 1560 0092 E2       		.byte	-30
 1561 0093 15       		.byte	21
 1562 0094 A2       		.byte	-94
 1563 0095 15       		.byte	21
 1564 0096 A1       		.byte	-95
 1565 0097 15       		.byte	21
 1566 0098 C0       		.byte	-64
 1567 0099 15       		.byte	21
 1568 009a 40       		.byte	64
 1569 009b 15       		.byte	21
 1570 009c 2C       		.byte	44
 1571 009d 15       		.byte	21
 1572 009e 2E       		.byte	46
 1573 009f 15       		.byte	21
 1574 00a0 2F       		.byte	47
 1575 00a1 15       		.byte	21
 1576 00a2 10       		.byte	16
 1577 00a3 15       		.byte	21
 1578 00a4 A6       		.byte	-90
 1579 00a5 15       		.byte	21
 1580 00a6 81       		.byte	-127
 1581 00a7 15       		.byte	21
 1582 00a8 1E       		.byte	30
 1583 00a9 15       		.byte	21
 1584 00aa AE       		.byte	-82
 1585 00ab 19       		.byte	25
 1586 00ac FF       		.byte	-1
 1587              		.type	u8x8_d_st7565_zolen_128x64_init_seq, %object
 1588              		.size	u8x8_d_st7565_zolen_128x64_init_seq, 33
 1589              	u8x8_d_st7565_zolen_128x64_init_seq:
 1590 00ad 18       		.byte	24
 1591 00ae 15       		.byte	21
 1592 00af E2       		.byte	-30
 1593 00b0 15       		.byte	21
 1594 00b1 AE       		.byte	-82
 1595 00b2 15       		.byte	21
 1596 00b3 40       		.byte	64
 1597 00b4 15       		.byte	21
 1598 00b5 A1       		.byte	-95
 1599 00b6 15       		.byte	21
 1600 00b7 C8       		.byte	-56
 1601 00b8 15       		.byte	21
 1602 00b9 A6       		.byte	-90
 1603 00ba 15       		.byte	21
 1604 00bb A2       		.byte	-94
 1605 00bc 15       		.byte	21
 1606 00bd 2F       		.byte	47
 1607 00be 15       		.byte	21
 1608 00bf F8       		.byte	-8
 1609 00c0 16       		.byte	22
 1610 00c1 00       		.byte	0
 1611 00c2 15       		.byte	21
 1612 00c3 27       		.byte	39
 1613 00c4 15       		.byte	21
 1614 00c5 81       		.byte	-127
 1615 00c6 16       		.byte	22
ARM GAS  C:\Users\jesse\AppData\Local\Temp\cc9dv931.s 			page 52


 1616 00c7 07       		.byte	7
 1617 00c8 15       		.byte	21
 1618 00c9 AE       		.byte	-82
 1619 00ca 15       		.byte	21
 1620 00cb A5       		.byte	-91
 1621 00cc 19       		.byte	25
 1622 00cd FF       		.byte	-1
 1623              		.type	u8x8_d_st7565_zflip0_seq, %object
 1624              		.size	u8x8_d_st7565_zflip0_seq, 7
 1625              	u8x8_d_st7565_zflip0_seq:
 1626 00ce 18       		.byte	24
 1627 00cf 15       		.byte	21
 1628 00d0 A1       		.byte	-95
 1629 00d1 15       		.byte	21
 1630 00d2 C8       		.byte	-56
 1631 00d3 19       		.byte	25
 1632 00d4 FF       		.byte	-1
 1633              		.type	u8x8_d_st7565_zflip1_seq, %object
 1634              		.size	u8x8_d_st7565_zflip1_seq, 7
 1635              	u8x8_d_st7565_zflip1_seq:
 1636 00d5 18       		.byte	24
 1637 00d6 15       		.byte	21
 1638 00d7 A0       		.byte	-96
 1639 00d8 15       		.byte	21
 1640 00d9 C0       		.byte	-64
 1641 00da 19       		.byte	25
 1642 00db FF       		.byte	-1
 1643              		.type	u8x8_st7565_128x32_display_info, %object
 1644              		.size	u8x8_st7565_128x32_display_info, 24
 1645              	u8x8_st7565_128x32_display_info:
 1646 00dc 00       		.byte	0
 1647 00dd 01       		.byte	1
 1648 00de 96       		.byte	-106
 1649 00df 32       		.byte	50
 1650 00e0 01       		.byte	1
 1651 00e1 01       		.byte	1
 1652 00e2 32       		.byte	50
 1653 00e3 78       		.byte	120
 1654 00e4 00093D00 		.word	4000000
 1655 00e8 00       		.byte	0
 1656 00e9 04       		.byte	4
 1657 00ea 28       		.byte	40
 1658 00eb 50       		.byte	80
 1659 00ec 10       		.byte	16
 1660 00ed 04       		.byte	4
 1661 00ee 04       		.byte	4
 1662 00ef 00       		.byte	0
 1663 00f0 8000     		.short	128
 1664 00f2 2000     		.short	32
 1665              		.type	u8x8_d_st7565_nhd_c12832_init_seq, %object
 1666              		.size	u8x8_d_st7565_nhd_c12832_init_seq, 33
 1667              	u8x8_d_st7565_nhd_c12832_init_seq:
 1668 00f4 18       		.byte	24
 1669 00f5 15       		.byte	21
 1670 00f6 E2       		.byte	-30
 1671 00f7 15       		.byte	21
 1672 00f8 AE       		.byte	-82
ARM GAS  C:\Users\jesse\AppData\Local\Temp\cc9dv931.s 			page 53


 1673 00f9 15       		.byte	21
 1674 00fa 40       		.byte	64
 1675 00fb 15       		.byte	21
 1676 00fc A1       		.byte	-95
 1677 00fd 15       		.byte	21
 1678 00fe C0       		.byte	-64
 1679 00ff 15       		.byte	21
 1680 0100 A6       		.byte	-90
 1681 0101 15       		.byte	21
 1682 0102 A2       		.byte	-94
 1683 0103 15       		.byte	21
 1684 0104 2F       		.byte	47
 1685 0105 15       		.byte	21
 1686 0106 F8       		.byte	-8
 1687 0107 16       		.byte	22
 1688 0108 00       		.byte	0
 1689 0109 15       		.byte	21
 1690 010a 23       		.byte	35
 1691 010b 15       		.byte	21
 1692 010c 81       		.byte	-127
 1693 010d 16       		.byte	22
 1694 010e 0A       		.byte	10
 1695 010f 15       		.byte	21
 1696 0110 AE       		.byte	-82
 1697 0111 15       		.byte	21
 1698 0112 A5       		.byte	-91
 1699 0113 19       		.byte	25
 1700 0114 FF       		.byte	-1
 1701 0115 000000   		.space	3
 1702              		.type	u8x8_st7565_nhd_c12864_display_info, %object
 1703              		.size	u8x8_st7565_nhd_c12864_display_info, 24
 1704              	u8x8_st7565_nhd_c12864_display_info:
 1705 0118 00       		.byte	0
 1706 0119 01       		.byte	1
 1707 011a 96       		.byte	-106
 1708 011b 32       		.byte	50
 1709 011c 01       		.byte	1
 1710 011d 01       		.byte	1
 1711 011e 32       		.byte	50
 1712 011f 78       		.byte	120
 1713 0120 00093D00 		.word	4000000
 1714 0124 00       		.byte	0
 1715 0125 04       		.byte	4
 1716 0126 28       		.byte	40
 1717 0127 50       		.byte	80
 1718 0128 10       		.byte	16
 1719 0129 08       		.byte	8
 1720 012a 04       		.byte	4
 1721 012b 00       		.byte	0
 1722 012c 8000     		.short	128
 1723 012e 4000     		.short	64
 1724              		.type	u8x8_d_st7565_nhd_c12864_init_seq, %object
 1725              		.size	u8x8_d_st7565_nhd_c12864_init_seq, 33
 1726              	u8x8_d_st7565_nhd_c12864_init_seq:
 1727 0130 18       		.byte	24
 1728 0131 15       		.byte	21
 1729 0132 E2       		.byte	-30
ARM GAS  C:\Users\jesse\AppData\Local\Temp\cc9dv931.s 			page 54


 1730 0133 15       		.byte	21
 1731 0134 AE       		.byte	-82
 1732 0135 15       		.byte	21
 1733 0136 40       		.byte	64
 1734 0137 15       		.byte	21
 1735 0138 A1       		.byte	-95
 1736 0139 15       		.byte	21
 1737 013a C0       		.byte	-64
 1738 013b 15       		.byte	21
 1739 013c A6       		.byte	-90
 1740 013d 15       		.byte	21
 1741 013e A2       		.byte	-94
 1742 013f 15       		.byte	21
 1743 0140 2F       		.byte	47
 1744 0141 15       		.byte	21
 1745 0142 F8       		.byte	-8
 1746 0143 16       		.byte	22
 1747 0144 00       		.byte	0
 1748 0145 15       		.byte	21
 1749 0146 25       		.byte	37
 1750 0147 15       		.byte	21
 1751 0148 81       		.byte	-127
 1752 0149 16       		.byte	22
 1753 014a AA       		.byte	-86
 1754 014b 15       		.byte	21
 1755 014c AE       		.byte	-82
 1756 014d 15       		.byte	21
 1757 014e A5       		.byte	-91
 1758 014f 19       		.byte	25
 1759 0150 FF       		.byte	-1
 1760 0151 000000   		.space	3
 1761              		.type	u8x8_st7565_lm6059_display_info, %object
 1762              		.size	u8x8_st7565_lm6059_display_info, 24
 1763              	u8x8_st7565_lm6059_display_info:
 1764 0154 00       		.byte	0
 1765 0155 01       		.byte	1
 1766 0156 96       		.byte	-106
 1767 0157 32       		.byte	50
 1768 0158 01       		.byte	1
 1769 0159 01       		.byte	1
 1770 015a 32       		.byte	50
 1771 015b 78       		.byte	120
 1772 015c 00093D00 		.word	4000000
 1773 0160 00       		.byte	0
 1774 0161 04       		.byte	4
 1775 0162 28       		.byte	40
 1776 0163 50       		.byte	80
 1777 0164 10       		.byte	16
 1778 0165 08       		.byte	8
 1779 0166 01       		.byte	1
 1780 0167 03       		.byte	3
 1781 0168 8000     		.short	128
 1782 016a 4000     		.short	64
 1783              		.type	u8x8_d_st7565_lm6059_init_seq, %object
 1784              		.size	u8x8_d_st7565_lm6059_init_seq, 33
 1785              	u8x8_d_st7565_lm6059_init_seq:
 1786 016c 18       		.byte	24
ARM GAS  C:\Users\jesse\AppData\Local\Temp\cc9dv931.s 			page 55


 1787 016d 15       		.byte	21
 1788 016e E2       		.byte	-30
 1789 016f 15       		.byte	21
 1790 0170 AE       		.byte	-82
 1791 0171 15       		.byte	21
 1792 0172 60       		.byte	96
 1793 0173 15       		.byte	21
 1794 0174 A0       		.byte	-96
 1795 0175 15       		.byte	21
 1796 0176 C8       		.byte	-56
 1797 0177 15       		.byte	21
 1798 0178 A6       		.byte	-90
 1799 0179 15       		.byte	21
 1800 017a A3       		.byte	-93
 1801 017b 15       		.byte	21
 1802 017c 2F       		.byte	47
 1803 017d 15       		.byte	21
 1804 017e F8       		.byte	-8
 1805 017f 16       		.byte	22
 1806 0180 00       		.byte	0
 1807 0181 15       		.byte	21
 1808 0182 27       		.byte	39
 1809 0183 15       		.byte	21
 1810 0184 81       		.byte	-127
 1811 0185 16       		.byte	22
 1812 0186 18       		.byte	24
 1813 0187 15       		.byte	21
 1814 0188 AE       		.byte	-82
 1815 0189 15       		.byte	21
 1816 018a A5       		.byte	-91
 1817 018b 19       		.byte	25
 1818 018c FF       		.byte	-1
 1819              		.type	u8x8_d_st7565_ks0713_init_seq, %object
 1820              		.size	u8x8_d_st7565_ks0713_init_seq, 25
 1821              	u8x8_d_st7565_ks0713_init_seq:
 1822 018d 18       		.byte	24
 1823 018e 15       		.byte	21
 1824 018f AE       		.byte	-82
 1825 0190 15       		.byte	21
 1826 0191 E2       		.byte	-30
 1827 0192 15       		.byte	21
 1828 0193 A3       		.byte	-93
 1829 0194 15       		.byte	21
 1830 0195 A0       		.byte	-96
 1831 0196 15       		.byte	21
 1832 0197 C0       		.byte	-64
 1833 0198 15       		.byte	21
 1834 0199 2F       		.byte	47
 1835 019a 15       		.byte	21
 1836 019b 26       		.byte	38
 1837 019c 15       		.byte	21
 1838 019d A6       		.byte	-90
 1839 019e 15       		.byte	21
 1840 019f 81       		.byte	-127
 1841 01a0 16       		.byte	22
 1842 01a1 10       		.byte	16
 1843 01a2 15       		.byte	21
ARM GAS  C:\Users\jesse\AppData\Local\Temp\cc9dv931.s 			page 56


 1844 01a3 AF       		.byte	-81
 1845 01a4 19       		.byte	25
 1846 01a5 FF       		.byte	-1
 1847 01a6 0000     		.space	2
 1848              		.type	u8x8_st7565_lx12864_display_info, %object
 1849              		.size	u8x8_st7565_lx12864_display_info, 24
 1850              	u8x8_st7565_lx12864_display_info:
 1851 01a8 00       		.byte	0
 1852 01a9 01       		.byte	1
 1853 01aa 96       		.byte	-106
 1854 01ab 32       		.byte	50
 1855 01ac 01       		.byte	1
 1856 01ad 01       		.byte	1
 1857 01ae 32       		.byte	50
 1858 01af 78       		.byte	120
 1859 01b0 00093D00 		.word	4000000
 1860 01b4 00       		.byte	0
 1861 01b5 04       		.byte	4
 1862 01b6 28       		.byte	40
 1863 01b7 50       		.byte	80
 1864 01b8 10       		.byte	16
 1865 01b9 08       		.byte	8
 1866 01ba 01       		.byte	1
 1867 01bb 03       		.byte	3
 1868 01bc 8000     		.short	128
 1869 01be 4000     		.short	64
 1870              		.type	u8x8_d_st7565_lx12864_init_seq, %object
 1871              		.size	u8x8_d_st7565_lx12864_init_seq, 33
 1872              	u8x8_d_st7565_lx12864_init_seq:
 1873 01c0 18       		.byte	24
 1874 01c1 15       		.byte	21
 1875 01c2 E2       		.byte	-30
 1876 01c3 15       		.byte	21
 1877 01c4 AE       		.byte	-82
 1878 01c5 15       		.byte	21
 1879 01c6 60       		.byte	96
 1880 01c7 15       		.byte	21
 1881 01c8 A0       		.byte	-96
 1882 01c9 15       		.byte	21
 1883 01ca C8       		.byte	-56
 1884 01cb 15       		.byte	21
 1885 01cc A6       		.byte	-90
 1886 01cd 15       		.byte	21
 1887 01ce A2       		.byte	-94
 1888 01cf 15       		.byte	21
 1889 01d0 2F       		.byte	47
 1890 01d1 15       		.byte	21
 1891 01d2 F8       		.byte	-8
 1892 01d3 16       		.byte	22
 1893 01d4 00       		.byte	0
 1894 01d5 15       		.byte	21
 1895 01d6 27       		.byte	39
 1896 01d7 15       		.byte	21
 1897 01d8 81       		.byte	-127
 1898 01d9 16       		.byte	22
 1899 01da 08       		.byte	8
 1900 01db 15       		.byte	21
ARM GAS  C:\Users\jesse\AppData\Local\Temp\cc9dv931.s 			page 57


 1901 01dc AE       		.byte	-82
 1902 01dd 15       		.byte	21
 1903 01de A5       		.byte	-91
 1904 01df 19       		.byte	25
 1905 01e0 FF       		.byte	-1
 1906 01e1 000000   		.space	3
 1907              		.type	u8x8_st7565_erc12864_display_info, %object
 1908              		.size	u8x8_st7565_erc12864_display_info, 24
 1909              	u8x8_st7565_erc12864_display_info:
 1910 01e4 00       		.byte	0
 1911 01e5 01       		.byte	1
 1912 01e6 96       		.byte	-106
 1913 01e7 32       		.byte	50
 1914 01e8 01       		.byte	1
 1915 01e9 01       		.byte	1
 1916 01ea 32       		.byte	50
 1917 01eb 78       		.byte	120
 1918 01ec 00093D00 		.word	4000000
 1919 01f0 00       		.byte	0
 1920 01f1 04       		.byte	4
 1921 01f2 28       		.byte	40
 1922 01f3 50       		.byte	80
 1923 01f4 10       		.byte	16
 1924 01f5 08       		.byte	8
 1925 01f6 00       		.byte	0
 1926 01f7 04       		.byte	4
 1927 01f8 8000     		.short	128
 1928 01fa 4000     		.short	64
 1929              		.type	u8x8_d_st7565_erc12864_init_seq, %object
 1930              		.size	u8x8_d_st7565_erc12864_init_seq, 33
 1931              	u8x8_d_st7565_erc12864_init_seq:
 1932 01fc 18       		.byte	24
 1933 01fd 15       		.byte	21
 1934 01fe E2       		.byte	-30
 1935 01ff 15       		.byte	21
 1936 0200 AE       		.byte	-82
 1937 0201 15       		.byte	21
 1938 0202 40       		.byte	64
 1939 0203 15       		.byte	21
 1940 0204 A0       		.byte	-96
 1941 0205 15       		.byte	21
 1942 0206 C8       		.byte	-56
 1943 0207 15       		.byte	21
 1944 0208 A6       		.byte	-90
 1945 0209 15       		.byte	21
 1946 020a A3       		.byte	-93
 1947 020b 15       		.byte	21
 1948 020c 2F       		.byte	47
 1949 020d 15       		.byte	21
 1950 020e F8       		.byte	-8
 1951 020f 16       		.byte	22
 1952 0210 00       		.byte	0
 1953 0211 15       		.byte	21
 1954 0212 27       		.byte	39
 1955 0213 15       		.byte	21
 1956 0214 81       		.byte	-127
 1957 0215 16       		.byte	22
ARM GAS  C:\Users\jesse\AppData\Local\Temp\cc9dv931.s 			page 58


 1958 0216 18       		.byte	24
 1959 0217 15       		.byte	21
 1960 0218 AE       		.byte	-82
 1961 0219 15       		.byte	21
 1962 021a A5       		.byte	-91
 1963 021b 19       		.byte	25
 1964 021c FF       		.byte	-1
 1965              		.type	u8x8_d_st7565_erc12864_alt_init_seq, %object
 1966              		.size	u8x8_d_st7565_erc12864_alt_init_seq, 33
 1967              	u8x8_d_st7565_erc12864_alt_init_seq:
 1968 021d 18       		.byte	24
 1969 021e 15       		.byte	21
 1970 021f E2       		.byte	-30
 1971 0220 15       		.byte	21
 1972 0221 AE       		.byte	-82
 1973 0222 15       		.byte	21
 1974 0223 40       		.byte	64
 1975 0224 15       		.byte	21
 1976 0225 A0       		.byte	-96
 1977 0226 15       		.byte	21
 1978 0227 C8       		.byte	-56
 1979 0228 15       		.byte	21
 1980 0229 A6       		.byte	-90
 1981 022a 15       		.byte	21
 1982 022b A2       		.byte	-94
 1983 022c 15       		.byte	21
 1984 022d 2F       		.byte	47
 1985 022e 15       		.byte	21
 1986 022f F8       		.byte	-8
 1987 0230 16       		.byte	22
 1988 0231 00       		.byte	0
 1989 0232 15       		.byte	21
 1990 0233 27       		.byte	39
 1991 0234 15       		.byte	21
 1992 0235 81       		.byte	-127
 1993 0236 16       		.byte	22
 1994 0237 05       		.byte	5
 1995 0238 15       		.byte	21
 1996 0239 AE       		.byte	-82
 1997 023a 15       		.byte	21
 1998 023b A5       		.byte	-91
 1999 023c 19       		.byte	25
 2000 023d FF       		.byte	-1
 2001              		.type	u8x8_d_nt7534_tg12864r_init_seq, %object
 2002              		.size	u8x8_d_nt7534_tg12864r_init_seq, 29
 2003              	u8x8_d_nt7534_tg12864r_init_seq:
 2004 023e 18       		.byte	24
 2005 023f 15       		.byte	21
 2006 0240 E2       		.byte	-30
 2007 0241 15       		.byte	21
 2008 0242 AE       		.byte	-82
 2009 0243 15       		.byte	21
 2010 0244 60       		.byte	96
 2011 0245 15       		.byte	21
 2012 0246 A0       		.byte	-96
 2013 0247 15       		.byte	21
 2014 0248 C8       		.byte	-56
ARM GAS  C:\Users\jesse\AppData\Local\Temp\cc9dv931.s 			page 59


 2015 0249 15       		.byte	21
 2016 024a A6       		.byte	-90
 2017 024b 15       		.byte	21
 2018 024c A3       		.byte	-93
 2019 024d 15       		.byte	21
 2020 024e 2F       		.byte	47
 2021 024f 15       		.byte	21
 2022 0250 27       		.byte	39
 2023 0251 15       		.byte	21
 2024 0252 81       		.byte	-127
 2025 0253 16       		.byte	22
 2026 0254 09       		.byte	9
 2027 0255 15       		.byte	21
 2028 0256 AE       		.byte	-82
 2029 0257 15       		.byte	21
 2030 0258 A5       		.byte	-91
 2031 0259 19       		.byte	25
 2032 025a FF       		.byte	-1
 2033 025b 00       		.space	1
 2034              		.type	u8x8_st7565_dogm132_display_info, %object
 2035              		.size	u8x8_st7565_dogm132_display_info, 24
 2036              	u8x8_st7565_dogm132_display_info:
 2037 025c 00       		.byte	0
 2038 025d 01       		.byte	1
 2039 025e 96       		.byte	-106
 2040 025f 32       		.byte	50
 2041 0260 01       		.byte	1
 2042 0261 01       		.byte	1
 2043 0262 32       		.byte	50
 2044 0263 78       		.byte	120
 2045 0264 00093D00 		.word	4000000
 2046 0268 00       		.byte	0
 2047 0269 04       		.byte	4
 2048 026a 28       		.byte	40
 2049 026b 50       		.byte	80
 2050 026c 11       		.byte	17
 2051 026d 04       		.byte	4
 2052 026e 00       		.byte	0
 2053 026f 00       		.byte	0
 2054 0270 8400     		.short	132
 2055 0272 2000     		.short	32
 2056              		.type	u8x8_d_st7565_dogm132_init_seq, %object
 2057              		.size	u8x8_d_st7565_dogm132_init_seq, 33
 2058              	u8x8_d_st7565_dogm132_init_seq:
 2059 0274 18       		.byte	24
 2060 0275 15       		.byte	21
 2061 0276 E2       		.byte	-30
 2062 0277 15       		.byte	21
 2063 0278 AE       		.byte	-82
 2064 0279 15       		.byte	21
 2065 027a 40       		.byte	64
 2066 027b 15       		.byte	21
 2067 027c A1       		.byte	-95
 2068 027d 15       		.byte	21
 2069 027e C0       		.byte	-64
 2070 027f 15       		.byte	21
 2071 0280 A6       		.byte	-90
ARM GAS  C:\Users\jesse\AppData\Local\Temp\cc9dv931.s 			page 60


 2072 0281 15       		.byte	21
 2073 0282 A2       		.byte	-94
 2074 0283 15       		.byte	21
 2075 0284 2F       		.byte	47
 2076 0285 15       		.byte	21
 2077 0286 F8       		.byte	-8
 2078 0287 16       		.byte	22
 2079 0288 00       		.byte	0
 2080 0289 15       		.byte	21
 2081 028a 23       		.byte	35
 2082 028b 15       		.byte	21
 2083 028c 81       		.byte	-127
 2084 028d 16       		.byte	22
 2085 028e 1F       		.byte	31
 2086 028f 15       		.byte	21
 2087 0290 AE       		.byte	-82
 2088 0291 15       		.byte	21
 2089 0292 A5       		.byte	-91
 2090 0293 19       		.byte	25
 2091 0294 FF       		.byte	-1
 2092              		.text
 2093              	.Letext0:
 2094              		.file 2 "c:\\program files (x86)\\cypress\\psoc creator\\4.4\\psoc creator\\import\\gnu\\arm\\5.4.
 2095              		.file 3 "c:\\program files (x86)\\cypress\\psoc creator\\4.4\\psoc creator\\import\\gnu\\arm\\5.4.
 2096              		.file 4 "..\\..\\..\\u8g2\\u8g2\\csrc\\u8x8.h"
 2097              		.section	.debug_info,"",%progbits
 2098              	.Ldebug_info0:
 2099 0000 38160000 		.4byte	0x1638
 2100 0004 0400     		.2byte	0x4
 2101 0006 00000000 		.4byte	.Ldebug_abbrev0
 2102 000a 04       		.byte	0x4
 2103 000b 01       		.uleb128 0x1
 2104 000c 23010000 		.4byte	.LASF119
 2105 0010 0C       		.byte	0xc
 2106 0011 40000000 		.4byte	.LASF120
 2107 0015 D8020000 		.4byte	.LASF121
 2108 0019 00000000 		.4byte	.Ldebug_ranges0+0
 2109 001d 00000000 		.4byte	0
 2110 0021 00000000 		.4byte	.Ldebug_line0
 2111 0025 02       		.uleb128 0x2
 2112 0026 01       		.byte	0x1
 2113 0027 06       		.byte	0x6
 2114 0028 17010000 		.4byte	.LASF0
 2115 002c 03       		.uleb128 0x3
 2116 002d 2E000000 		.4byte	.LASF3
 2117 0031 02       		.byte	0x2
 2118 0032 1D       		.byte	0x1d
 2119 0033 37000000 		.4byte	0x37
 2120 0037 02       		.uleb128 0x2
 2121 0038 01       		.byte	0x1
 2122 0039 08       		.byte	0x8
 2123 003a B6060000 		.4byte	.LASF1
 2124 003e 02       		.uleb128 0x2
 2125 003f 02       		.byte	0x2
 2126 0040 05       		.byte	0x5
 2127 0041 E6060000 		.4byte	.LASF2
 2128 0045 03       		.uleb128 0x3
ARM GAS  C:\Users\jesse\AppData\Local\Temp\cc9dv931.s 			page 61


 2129 0046 B3070000 		.4byte	.LASF4
 2130 004a 02       		.byte	0x2
 2131 004b 2B       		.byte	0x2b
 2132 004c 50000000 		.4byte	0x50
 2133 0050 02       		.uleb128 0x2
 2134 0051 02       		.byte	0x2
 2135 0052 07       		.byte	0x7
 2136 0053 B1040000 		.4byte	.LASF5
 2137 0057 02       		.uleb128 0x2
 2138 0058 04       		.byte	0x4
 2139 0059 05       		.byte	0x5
 2140 005a 3C020000 		.4byte	.LASF6
 2141 005e 03       		.uleb128 0x3
 2142 005f 3E030000 		.4byte	.LASF7
 2143 0063 02       		.byte	0x2
 2144 0064 41       		.byte	0x41
 2145 0065 69000000 		.4byte	0x69
 2146 0069 02       		.uleb128 0x2
 2147 006a 04       		.byte	0x4
 2148 006b 07       		.byte	0x7
 2149 006c DE030000 		.4byte	.LASF8
 2150 0070 02       		.uleb128 0x2
 2151 0071 08       		.byte	0x8
 2152 0072 05       		.byte	0x5
 2153 0073 09010000 		.4byte	.LASF9
 2154 0077 02       		.uleb128 0x2
 2155 0078 08       		.byte	0x8
 2156 0079 07       		.byte	0x7
 2157 007a 79000000 		.4byte	.LASF10
 2158 007e 04       		.uleb128 0x4
 2159 007f 04       		.byte	0x4
 2160 0080 05       		.byte	0x5
 2161 0081 696E7400 		.ascii	"int\000"
 2162 0085 02       		.uleb128 0x2
 2163 0086 04       		.byte	0x4
 2164 0087 07       		.byte	0x7
 2165 0088 BD030000 		.4byte	.LASF11
 2166 008c 03       		.uleb128 0x3
 2167 008d 7F080000 		.4byte	.LASF12
 2168 0091 03       		.byte	0x3
 2169 0092 18       		.byte	0x18
 2170 0093 2C000000 		.4byte	0x2c
 2171 0097 03       		.uleb128 0x3
 2172 0098 5B020000 		.4byte	.LASF13
 2173 009c 03       		.byte	0x3
 2174 009d 24       		.byte	0x24
 2175 009e 45000000 		.4byte	0x45
 2176 00a2 03       		.uleb128 0x3
 2177 00a3 54070000 		.4byte	.LASF14
 2178 00a7 03       		.byte	0x3
 2179 00a8 30       		.byte	0x30
 2180 00a9 5E000000 		.4byte	0x5e
 2181 00ad 05       		.uleb128 0x5
 2182 00ae 04       		.byte	0x4
 2183 00af 02       		.uleb128 0x2
 2184 00b0 08       		.byte	0x8
 2185 00b1 04       		.byte	0x4
ARM GAS  C:\Users\jesse\AppData\Local\Temp\cc9dv931.s 			page 62


 2186 00b2 DD050000 		.4byte	.LASF15
 2187 00b6 03       		.uleb128 0x3
 2188 00b7 03080000 		.4byte	.LASF16
 2189 00bb 04       		.byte	0x4
 2190 00bc D3       		.byte	0xd3
 2191 00bd C1000000 		.4byte	0xc1
 2192 00c1 06       		.uleb128 0x6
 2193 00c2 52050000 		.4byte	.LASF37
 2194 00c6 2C       		.byte	0x2c
 2195 00c7 04       		.byte	0x4
 2196 00c8 5601     		.2byte	0x156
 2197 00ca C6010000 		.4byte	0x1c6
 2198 00ce 07       		.uleb128 0x7
 2199 00cf 32050000 		.4byte	.LASF17
 2200 00d3 04       		.byte	0x4
 2201 00d4 5801     		.2byte	0x158
 2202 00d6 76030000 		.4byte	0x376
 2203 00da 00       		.byte	0
 2204 00db 07       		.uleb128 0x7
 2205 00dc 64020000 		.4byte	.LASF18
 2206 00e0 04       		.byte	0x4
 2207 00e1 5901     		.2byte	0x159
 2208 00e3 4B030000 		.4byte	0x34b
 2209 00e7 04       		.byte	0x4
 2210 00e8 07       		.uleb128 0x7
 2211 00e9 C6010000 		.4byte	.LASF19
 2212 00ed 04       		.byte	0x4
 2213 00ee 5A01     		.2byte	0x15a
 2214 00f0 16030000 		.4byte	0x316
 2215 00f4 08       		.byte	0x8
 2216 00f5 07       		.uleb128 0x7
 2217 00f6 E9050000 		.4byte	.LASF20
 2218 00fa 04       		.byte	0x4
 2219 00fb 5B01     		.2byte	0x15b
 2220 00fd 16030000 		.4byte	0x316
 2221 0101 0C       		.byte	0xc
 2222 0102 07       		.uleb128 0x7
 2223 0103 38000000 		.4byte	.LASF21
 2224 0107 04       		.byte	0x4
 2225 0108 5C01     		.2byte	0x15c
 2226 010a 16030000 		.4byte	0x316
 2227 010e 10       		.byte	0x10
 2228 010f 07       		.uleb128 0x7
 2229 0110 79020000 		.4byte	.LASF22
 2230 0114 04       		.byte	0x4
 2231 0115 5D01     		.2byte	0x15d
 2232 0117 16030000 		.4byte	0x316
 2233 011b 14       		.byte	0x14
 2234 011c 07       		.uleb128 0x7
 2235 011d 0A080000 		.4byte	.LASF23
 2236 0121 04       		.byte	0x4
 2237 0122 5E01     		.2byte	0x15e
 2238 0124 A2000000 		.4byte	0xa2
 2239 0128 18       		.byte	0x18
 2240 0129 07       		.uleb128 0x7
 2241 012a 3E080000 		.4byte	.LASF24
 2242 012e 04       		.byte	0x4
ARM GAS  C:\Users\jesse\AppData\Local\Temp\cc9dv931.s 			page 63


 2243 012f 5F01     		.2byte	0x15f
 2244 0131 81030000 		.4byte	0x381
 2245 0135 1C       		.byte	0x1c
 2246 0136 07       		.uleb128 0x7
 2247 0137 8C050000 		.4byte	.LASF25
 2248 013b 04       		.byte	0x4
 2249 013c 6001     		.2byte	0x160
 2250 013e 97000000 		.4byte	0x97
 2251 0142 20       		.byte	0x20
 2252 0143 07       		.uleb128 0x7
 2253 0144 23060000 		.4byte	.LASF26
 2254 0148 04       		.byte	0x4
 2255 0149 6101     		.2byte	0x161
 2256 014b 8C000000 		.4byte	0x8c
 2257 014f 22       		.byte	0x22
 2258 0150 07       		.uleb128 0x7
 2259 0151 B1010000 		.4byte	.LASF27
 2260 0155 04       		.byte	0x4
 2261 0156 6201     		.2byte	0x162
 2262 0158 8C000000 		.4byte	0x8c
 2263 015c 23       		.byte	0x23
 2264 015d 07       		.uleb128 0x7
 2265 015e D2030000 		.4byte	.LASF28
 2266 0162 04       		.byte	0x4
 2267 0163 6301     		.2byte	0x163
 2268 0165 8C000000 		.4byte	0x8c
 2269 0169 24       		.byte	0x24
 2270 016a 07       		.uleb128 0x7
 2271 016b 87080000 		.4byte	.LASF29
 2272 016f 04       		.byte	0x4
 2273 0170 6601     		.2byte	0x166
 2274 0172 8C000000 		.4byte	0x8c
 2275 0176 25       		.byte	0x25
 2276 0177 07       		.uleb128 0x7
 2277 0178 DA000000 		.4byte	.LASF30
 2278 017c 04       		.byte	0x4
 2279 017d 6801     		.2byte	0x168
 2280 017f 8C000000 		.4byte	0x8c
 2281 0183 26       		.byte	0x26
 2282 0184 07       		.uleb128 0x7
 2283 0185 FD000000 		.4byte	.LASF31
 2284 0189 04       		.byte	0x4
 2285 018a 6901     		.2byte	0x169
 2286 018c 8C000000 		.4byte	0x8c
 2287 0190 27       		.byte	0x27
 2288 0191 07       		.uleb128 0x7
 2289 0192 04090000 		.4byte	.LASF32
 2290 0196 04       		.byte	0x4
 2291 0197 6A01     		.2byte	0x16a
 2292 0199 8C000000 		.4byte	0x8c
 2293 019d 28       		.byte	0x28
 2294 019e 07       		.uleb128 0x7
 2295 019f 1A050000 		.4byte	.LASF33
 2296 01a3 04       		.byte	0x4
 2297 01a4 6B01     		.2byte	0x16b
 2298 01a6 8C000000 		.4byte	0x8c
 2299 01aa 29       		.byte	0x29
ARM GAS  C:\Users\jesse\AppData\Local\Temp\cc9dv931.s 			page 64


 2300 01ab 07       		.uleb128 0x7
 2301 01ac 14080000 		.4byte	.LASF34
 2302 01b0 04       		.byte	0x4
 2303 01b1 6C01     		.2byte	0x16c
 2304 01b3 8C000000 		.4byte	0x8c
 2305 01b7 2A       		.byte	0x2a
 2306 01b8 07       		.uleb128 0x7
 2307 01b9 A9030000 		.4byte	.LASF35
 2308 01bd 04       		.byte	0x4
 2309 01be 6D01     		.2byte	0x16d
 2310 01c0 8C000000 		.4byte	0x8c
 2311 01c4 2B       		.byte	0x2b
 2312 01c5 00       		.byte	0
 2313 01c6 03       		.uleb128 0x3
 2314 01c7 C4020000 		.4byte	.LASF36
 2315 01cb 04       		.byte	0x4
 2316 01cc D4       		.byte	0xd4
 2317 01cd D1010000 		.4byte	0x1d1
 2318 01d1 08       		.uleb128 0x8
 2319 01d2 55090000 		.4byte	.LASF38
 2320 01d6 18       		.byte	0x18
 2321 01d7 04       		.byte	0x4
 2322 01d8 ED       		.byte	0xed
 2323 01d9 CE020000 		.4byte	0x2ce
 2324 01dd 09       		.uleb128 0x9
 2325 01de 98070000 		.4byte	.LASF39
 2326 01e2 04       		.byte	0x4
 2327 01e3 F1       		.byte	0xf1
 2328 01e4 8C000000 		.4byte	0x8c
 2329 01e8 00       		.byte	0
 2330 01e9 09       		.uleb128 0x9
 2331 01ea 2B080000 		.4byte	.LASF40
 2332 01ee 04       		.byte	0x4
 2333 01ef F2       		.byte	0xf2
 2334 01f0 8C000000 		.4byte	0x8c
 2335 01f4 01       		.byte	0x1
 2336 01f5 09       		.uleb128 0x9
 2337 01f6 D3070000 		.4byte	.LASF41
 2338 01fa 04       		.byte	0x4
 2339 01fb F4       		.byte	0xf4
 2340 01fc 8C000000 		.4byte	0x8c
 2341 0200 02       		.byte	0x2
 2342 0201 09       		.uleb128 0x9
 2343 0202 F1010000 		.4byte	.LASF42
 2344 0206 04       		.byte	0x4
 2345 0207 F5       		.byte	0xf5
 2346 0208 8C000000 		.4byte	0x8c
 2347 020c 03       		.byte	0x3
 2348 020d 09       		.uleb128 0x9
 2349 020e 19000000 		.4byte	.LASF43
 2350 0212 04       		.byte	0x4
 2351 0213 F6       		.byte	0xf6
 2352 0214 8C000000 		.4byte	0x8c
 2353 0218 04       		.byte	0x4
 2354 0219 09       		.uleb128 0x9
 2355 021a C7000000 		.4byte	.LASF44
 2356 021e 04       		.byte	0x4
ARM GAS  C:\Users\jesse\AppData\Local\Temp\cc9dv931.s 			page 65


 2357 021f F7       		.byte	0xf7
 2358 0220 8C000000 		.4byte	0x8c
 2359 0224 05       		.byte	0x5
 2360 0225 09       		.uleb128 0x9
 2361 0226 62030000 		.4byte	.LASF45
 2362 022a 04       		.byte	0x4
 2363 022b FE       		.byte	0xfe
 2364 022c 8C000000 		.4byte	0x8c
 2365 0230 06       		.byte	0x6
 2366 0231 07       		.uleb128 0x7
 2367 0232 3F050000 		.4byte	.LASF46
 2368 0236 04       		.byte	0x4
 2369 0237 0201     		.2byte	0x102
 2370 0239 8C000000 		.4byte	0x8c
 2371 023d 07       		.byte	0x7
 2372 023e 07       		.uleb128 0x7
 2373 023f 010A0000 		.4byte	.LASF47
 2374 0243 04       		.byte	0x4
 2375 0244 0501     		.2byte	0x105
 2376 0246 A2000000 		.4byte	0xa2
 2377 024a 08       		.byte	0x8
 2378 024b 07       		.uleb128 0x7
 2379 024c 8F070000 		.4byte	.LASF48
 2380 0250 04       		.byte	0x4
 2381 0251 0F01     		.2byte	0x10f
 2382 0253 8C000000 		.4byte	0x8c
 2383 0257 0C       		.byte	0xc
 2384 0258 07       		.uleb128 0x7
 2385 0259 3F070000 		.4byte	.LASF49
 2386 025d 04       		.byte	0x4
 2387 025e 1201     		.2byte	0x112
 2388 0260 8C000000 		.4byte	0x8c
 2389 0264 0D       		.byte	0xd
 2390 0265 07       		.uleb128 0x7
 2391 0266 2C070000 		.4byte	.LASF50
 2392 026a 04       		.byte	0x4
 2393 026b 1801     		.2byte	0x118
 2394 026d 8C000000 		.4byte	0x8c
 2395 0271 0E       		.byte	0xe
 2396 0272 07       		.uleb128 0x7
 2397 0273 F0050000 		.4byte	.LASF51
 2398 0277 04       		.byte	0x4
 2399 0278 1A01     		.2byte	0x11a
 2400 027a 8C000000 		.4byte	0x8c
 2401 027e 0F       		.byte	0xf
 2402 027f 07       		.uleb128 0x7
 2403 0280 F9080000 		.4byte	.LASF52
 2404 0284 04       		.byte	0x4
 2405 0285 1D01     		.2byte	0x11d
 2406 0287 8C000000 		.4byte	0x8c
 2407 028b 10       		.byte	0x10
 2408 028c 07       		.uleb128 0x7
 2409 028d 69060000 		.4byte	.LASF53
 2410 0291 04       		.byte	0x4
 2411 0292 1E01     		.2byte	0x11e
 2412 0294 8C000000 		.4byte	0x8c
 2413 0298 11       		.byte	0x11
ARM GAS  C:\Users\jesse\AppData\Local\Temp\cc9dv931.s 			page 66


 2414 0299 07       		.uleb128 0x7
 2415 029a 7B050000 		.4byte	.LASF54
 2416 029e 04       		.byte	0x4
 2417 029f 2001     		.2byte	0x120
 2418 02a1 8C000000 		.4byte	0x8c
 2419 02a5 12       		.byte	0x12
 2420 02a6 07       		.uleb128 0x7
 2421 02a7 AA050000 		.4byte	.LASF55
 2422 02ab 04       		.byte	0x4
 2423 02ac 2101     		.2byte	0x121
 2424 02ae 8C000000 		.4byte	0x8c
 2425 02b2 13       		.byte	0x13
 2426 02b3 07       		.uleb128 0x7
 2427 02b4 AC080000 		.4byte	.LASF56
 2428 02b8 04       		.byte	0x4
 2429 02b9 2901     		.2byte	0x129
 2430 02bb 97000000 		.4byte	0x97
 2431 02bf 14       		.byte	0x14
 2432 02c0 07       		.uleb128 0x7
 2433 02c1 F4090000 		.4byte	.LASF57
 2434 02c5 04       		.byte	0x4
 2435 02c6 2A01     		.2byte	0x12a
 2436 02c8 97000000 		.4byte	0x97
 2437 02cc 16       		.byte	0x16
 2438 02cd 00       		.byte	0
 2439 02ce 03       		.uleb128 0x3
 2440 02cf 9D030000 		.4byte	.LASF58
 2441 02d3 04       		.byte	0x4
 2442 02d4 D5       		.byte	0xd5
 2443 02d5 D9020000 		.4byte	0x2d9
 2444 02d9 08       		.uleb128 0x8
 2445 02da 68000000 		.4byte	.LASF59
 2446 02de 08       		.byte	0x8
 2447 02df 04       		.byte	0x4
 2448 02e0 E4       		.byte	0xe4
 2449 02e1 16030000 		.4byte	0x316
 2450 02e5 09       		.uleb128 0x9
 2451 02e6 AA070000 		.4byte	.LASF60
 2452 02ea 04       		.byte	0x4
 2453 02eb E6       		.byte	0xe6
 2454 02ec 70030000 		.4byte	0x370
 2455 02f0 00       		.byte	0
 2456 02f1 0A       		.uleb128 0xa
 2457 02f2 636E7400 		.ascii	"cnt\000"
 2458 02f6 04       		.byte	0x4
 2459 02f7 E7       		.byte	0xe7
 2460 02f8 8C000000 		.4byte	0x8c
 2461 02fc 04       		.byte	0x4
 2462 02fd 09       		.uleb128 0x9
 2463 02fe 97030000 		.4byte	.LASF61
 2464 0302 04       		.byte	0x4
 2465 0303 E8       		.byte	0xe8
 2466 0304 8C000000 		.4byte	0x8c
 2467 0308 05       		.byte	0x5
 2468 0309 09       		.uleb128 0x9
 2469 030a 1F090000 		.4byte	.LASF62
 2470 030e 04       		.byte	0x4
ARM GAS  C:\Users\jesse\AppData\Local\Temp\cc9dv931.s 			page 67


 2471 030f E9       		.byte	0xe9
 2472 0310 8C000000 		.4byte	0x8c
 2473 0314 06       		.byte	0x6
 2474 0315 00       		.byte	0
 2475 0316 03       		.uleb128 0x3
 2476 0317 93060000 		.4byte	.LASF63
 2477 031b 04       		.byte	0x4
 2478 031c D7       		.byte	0xd7
 2479 031d 21030000 		.4byte	0x321
 2480 0321 0B       		.uleb128 0xb
 2481 0322 04       		.byte	0x4
 2482 0323 27030000 		.4byte	0x327
 2483 0327 0C       		.uleb128 0xc
 2484 0328 8C000000 		.4byte	0x8c
 2485 032c 45030000 		.4byte	0x345
 2486 0330 0D       		.uleb128 0xd
 2487 0331 45030000 		.4byte	0x345
 2488 0335 0D       		.uleb128 0xd
 2489 0336 8C000000 		.4byte	0x8c
 2490 033a 0D       		.uleb128 0xd
 2491 033b 8C000000 		.4byte	0x8c
 2492 033f 0D       		.uleb128 0xd
 2493 0340 AD000000 		.4byte	0xad
 2494 0344 00       		.byte	0
 2495 0345 0B       		.uleb128 0xb
 2496 0346 04       		.byte	0x4
 2497 0347 B6000000 		.4byte	0xb6
 2498 034b 03       		.uleb128 0x3
 2499 034c 6C020000 		.4byte	.LASF64
 2500 0350 04       		.byte	0x4
 2501 0351 D8       		.byte	0xd8
 2502 0352 56030000 		.4byte	0x356
 2503 0356 0B       		.uleb128 0xb
 2504 0357 04       		.byte	0x4
 2505 0358 5C030000 		.4byte	0x35c
 2506 035c 0C       		.uleb128 0xc
 2507 035d 97000000 		.4byte	0x97
 2508 0361 70030000 		.4byte	0x370
 2509 0365 0D       		.uleb128 0xd
 2510 0366 45030000 		.4byte	0x345
 2511 036a 0D       		.uleb128 0xd
 2512 036b 8C000000 		.4byte	0x8c
 2513 036f 00       		.byte	0
 2514 0370 0B       		.uleb128 0xb
 2515 0371 04       		.byte	0x4
 2516 0372 8C000000 		.4byte	0x8c
 2517 0376 0B       		.uleb128 0xb
 2518 0377 04       		.byte	0x4
 2519 0378 7C030000 		.4byte	0x37c
 2520 037c 0E       		.uleb128 0xe
 2521 037d C6010000 		.4byte	0x1c6
 2522 0381 0B       		.uleb128 0xb
 2523 0382 04       		.byte	0x4
 2524 0383 87030000 		.4byte	0x387
 2525 0387 0E       		.uleb128 0xe
 2526 0388 8C000000 		.4byte	0x8c
 2527 038c 0F       		.uleb128 0xf
ARM GAS  C:\Users\jesse\AppData\Local\Temp\cc9dv931.s 			page 68


 2528 038d 0A020000 		.4byte	.LASF68
 2529 0391 01       		.byte	0x1
 2530 0392 73       		.byte	0x73
 2531 0393 8C000000 		.4byte	0x8c
 2532 0397 01       		.byte	0x1
 2533 0398 E6030000 		.4byte	0x3e6
 2534 039c 10       		.uleb128 0x10
 2535 039d F0060000 		.4byte	.LASF65
 2536 03a1 01       		.byte	0x1
 2537 03a2 73       		.byte	0x73
 2538 03a3 45030000 		.4byte	0x345
 2539 03a7 11       		.uleb128 0x11
 2540 03a8 6D736700 		.ascii	"msg\000"
 2541 03ac 01       		.byte	0x1
 2542 03ad 73       		.byte	0x73
 2543 03ae 8C000000 		.4byte	0x8c
 2544 03b2 10       		.uleb128 0x10
 2545 03b3 CA030000 		.4byte	.LASF66
 2546 03b7 01       		.byte	0x1
 2547 03b8 73       		.byte	0x73
 2548 03b9 8C000000 		.4byte	0x8c
 2549 03bd 10       		.uleb128 0x10
 2550 03be 23080000 		.4byte	.LASF67
 2551 03c2 01       		.byte	0x1
 2552 03c3 73       		.byte	0x73
 2553 03c4 AD000000 		.4byte	0xad
 2554 03c8 12       		.uleb128 0x12
 2555 03c9 7800     		.ascii	"x\000"
 2556 03cb 01       		.byte	0x1
 2557 03cc 75       		.byte	0x75
 2558 03cd 8C000000 		.4byte	0x8c
 2559 03d1 12       		.uleb128 0x12
 2560 03d2 6300     		.ascii	"c\000"
 2561 03d4 01       		.byte	0x1
 2562 03d5 75       		.byte	0x75
 2563 03d6 8C000000 		.4byte	0x8c
 2564 03da 12       		.uleb128 0x12
 2565 03db 70747200 		.ascii	"ptr\000"
 2566 03df 01       		.byte	0x1
 2567 03e0 76       		.byte	0x76
 2568 03e1 70030000 		.4byte	0x370
 2569 03e5 00       		.byte	0
 2570 03e6 13       		.uleb128 0x13
 2571 03e7 C4040000 		.4byte	.LASF69
 2572 03eb 01       		.byte	0x1
 2573 03ec 8A02     		.2byte	0x28a
 2574 03ee 8C000000 		.4byte	0x8c
 2575 03f2 01       		.byte	0x1
 2576 03f3 28040000 		.4byte	0x428
 2577 03f7 14       		.uleb128 0x14
 2578 03f8 F0060000 		.4byte	.LASF65
 2579 03fc 01       		.byte	0x1
 2580 03fd 8A02     		.2byte	0x28a
 2581 03ff 45030000 		.4byte	0x345
 2582 0403 15       		.uleb128 0x15
 2583 0404 6D736700 		.ascii	"msg\000"
 2584 0408 01       		.byte	0x1
ARM GAS  C:\Users\jesse\AppData\Local\Temp\cc9dv931.s 			page 69


 2585 0409 8A02     		.2byte	0x28a
 2586 040b 8C000000 		.4byte	0x8c
 2587 040f 14       		.uleb128 0x14
 2588 0410 CA030000 		.4byte	.LASF66
 2589 0414 01       		.byte	0x1
 2590 0415 8A02     		.2byte	0x28a
 2591 0417 8C000000 		.4byte	0x8c
 2592 041b 14       		.uleb128 0x14
 2593 041c 23080000 		.4byte	.LASF67
 2594 0420 01       		.byte	0x1
 2595 0421 8A02     		.2byte	0x28a
 2596 0423 AD000000 		.4byte	0xad
 2597 0427 00       		.byte	0
 2598 0428 16       		.uleb128 0x16
 2599 0429 8C030000 		.4byte	0x38c
 2600 042d 00000000 		.4byte	.LFB0
 2601 0431 B8000000 		.4byte	.LFE0-.LFB0
 2602 0435 01       		.uleb128 0x1
 2603 0436 9C       		.byte	0x9c
 2604 0437 91050000 		.4byte	0x591
 2605 043b 17       		.uleb128 0x17
 2606 043c 9C030000 		.4byte	0x39c
 2607 0440 00000000 		.4byte	.LLST0
 2608 0444 17       		.uleb128 0x17
 2609 0445 A7030000 		.4byte	0x3a7
 2610 0449 6E000000 		.4byte	.LLST1
 2611 044d 17       		.uleb128 0x17
 2612 044e B2030000 		.4byte	0x3b2
 2613 0452 E5000000 		.4byte	.LLST2
 2614 0456 17       		.uleb128 0x17
 2615 0457 BD030000 		.4byte	0x3bd
 2616 045b 43010000 		.4byte	.LLST3
 2617 045f 18       		.uleb128 0x18
 2618 0460 C8030000 		.4byte	0x3c8
 2619 0464 18       		.uleb128 0x18
 2620 0465 D1030000 		.4byte	0x3d1
 2621 0469 18       		.uleb128 0x18
 2622 046a DA030000 		.4byte	0x3da
 2623 046e 19       		.uleb128 0x19
 2624 046f 18000000 		.4byte	.LBB4
 2625 0473 64000000 		.4byte	.LBE4-.LBB4
 2626 0477 38050000 		.4byte	0x538
 2627 047b 17       		.uleb128 0x17
 2628 047c A7030000 		.4byte	0x3a7
 2629 0480 C2010000 		.4byte	.LLST4
 2630 0484 17       		.uleb128 0x17
 2631 0485 BD030000 		.4byte	0x3bd
 2632 0489 D6010000 		.4byte	.LLST5
 2633 048d 17       		.uleb128 0x17
 2634 048e B2030000 		.4byte	0x3b2
 2635 0492 02020000 		.4byte	.LLST6
 2636 0496 17       		.uleb128 0x17
 2637 0497 9C030000 		.4byte	0x39c
 2638 049b 20020000 		.4byte	.LLST7
 2639 049f 1A       		.uleb128 0x1a
 2640 04a0 18000000 		.4byte	.LBB5
 2641 04a4 64000000 		.4byte	.LBE5-.LBB5
ARM GAS  C:\Users\jesse\AppData\Local\Temp\cc9dv931.s 			page 70


 2642 04a8 1B       		.uleb128 0x1b
 2643 04a9 C8030000 		.4byte	0x3c8
 2644 04ad 3E020000 		.4byte	.LLST8
 2645 04b1 1B       		.uleb128 0x1b
 2646 04b2 D1030000 		.4byte	0x3d1
 2647 04b6 7A020000 		.4byte	.LLST9
 2648 04ba 1B       		.uleb128 0x1b
 2649 04bb DA030000 		.4byte	0x3da
 2650 04bf BF020000 		.4byte	.LLST10
 2651 04c3 1C       		.uleb128 0x1c
 2652 04c4 1C000000 		.4byte	.LVL2
 2653 04c8 DB150000 		.4byte	0x15db
 2654 04cc 1D       		.uleb128 0x1d
 2655 04cd 38000000 		.4byte	.LVL6
 2656 04d1 E7150000 		.4byte	0x15e7
 2657 04d5 EA040000 		.4byte	0x4ea
 2658 04d9 1E       		.uleb128 0x1e
 2659 04da 01       		.uleb128 0x1
 2660 04db 50       		.byte	0x50
 2661 04dc 02       		.uleb128 0x2
 2662 04dd 76       		.byte	0x76
 2663 04de 00       		.sleb128 0
 2664 04df 1E       		.uleb128 0x1e
 2665 04e0 01       		.uleb128 0x1
 2666 04e1 51       		.byte	0x51
 2667 04e2 06       		.uleb128 0x6
 2668 04e3 74       		.byte	0x74
 2669 04e4 00       		.sleb128 0
 2670 04e5 34       		.byte	0x34
 2671 04e6 25       		.byte	0x25
 2672 04e7 40       		.byte	0x40
 2673 04e8 21       		.byte	0x21
 2674 04e9 00       		.byte	0
 2675 04ea 1D       		.uleb128 0x1d
 2676 04eb 42000000 		.4byte	.LVL7
 2677 04ef E7150000 		.4byte	0x15e7
 2678 04f3 06050000 		.4byte	0x506
 2679 04f7 1E       		.uleb128 0x1e
 2680 04f8 01       		.uleb128 0x1
 2681 04f9 50       		.byte	0x50
 2682 04fa 02       		.uleb128 0x2
 2683 04fb 76       		.byte	0x76
 2684 04fc 00       		.sleb128 0
 2685 04fd 1E       		.uleb128 0x1e
 2686 04fe 01       		.uleb128 0x1
 2687 04ff 51       		.byte	0x51
 2688 0500 04       		.uleb128 0x4
 2689 0501 74       		.byte	0x74
 2690 0502 00       		.sleb128 0
 2691 0503 3F       		.byte	0x3f
 2692 0504 1A       		.byte	0x1a
 2693 0505 00       		.byte	0
 2694 0506 1D       		.uleb128 0x1d
 2695 0507 50000000 		.4byte	.LVL8
 2696 050b E7150000 		.4byte	0x15e7
 2697 050f 1A050000 		.4byte	0x51a
 2698 0513 1E       		.uleb128 0x1e
ARM GAS  C:\Users\jesse\AppData\Local\Temp\cc9dv931.s 			page 71


 2699 0514 01       		.uleb128 0x1
 2700 0515 50       		.byte	0x50
 2701 0516 02       		.uleb128 0x2
 2702 0517 76       		.byte	0x76
 2703 0518 00       		.sleb128 0
 2704 0519 00       		.byte	0
 2705 051a 1F       		.uleb128 0x1f
 2706 051b 74000000 		.4byte	.LVL17
 2707 051f F3150000 		.4byte	0x15f3
 2708 0523 1E       		.uleb128 0x1e
 2709 0524 01       		.uleb128 0x1
 2710 0525 50       		.byte	0x50
 2711 0526 02       		.uleb128 0x2
 2712 0527 76       		.byte	0x76
 2713 0528 00       		.sleb128 0
 2714 0529 1E       		.uleb128 0x1e
 2715 052a 01       		.uleb128 0x1
 2716 052b 51       		.byte	0x51
 2717 052c 02       		.uleb128 0x2
 2718 052d 75       		.byte	0x75
 2719 052e 00       		.sleb128 0
 2720 052f 1E       		.uleb128 0x1e
 2721 0530 01       		.uleb128 0x1
 2722 0531 52       		.byte	0x52
 2723 0532 02       		.uleb128 0x2
 2724 0533 78       		.byte	0x78
 2725 0534 00       		.sleb128 0
 2726 0535 00       		.byte	0
 2727 0536 00       		.byte	0
 2728 0537 00       		.byte	0
 2729 0538 1C       		.uleb128 0x1c
 2730 0539 88000000 		.4byte	.LVL23
 2731 053d FF150000 		.4byte	0x15ff
 2732 0541 1C       		.uleb128 0x1c
 2733 0542 92000000 		.4byte	.LVL25
 2734 0546 DB150000 		.4byte	0x15db
 2735 054a 1D       		.uleb128 0x1d
 2736 054b 9A000000 		.4byte	.LVL26
 2737 054f E7150000 		.4byte	0x15e7
 2738 0553 64050000 		.4byte	0x564
 2739 0557 1E       		.uleb128 0x1e
 2740 0558 01       		.uleb128 0x1
 2741 0559 50       		.byte	0x50
 2742 055a 02       		.uleb128 0x2
 2743 055b 76       		.byte	0x76
 2744 055c 00       		.sleb128 0
 2745 055d 1E       		.uleb128 0x1e
 2746 055e 01       		.uleb128 0x1
 2747 055f 51       		.byte	0x51
 2748 0560 02       		.uleb128 0x2
 2749 0561 09       		.byte	0x9
 2750 0562 81       		.byte	0x81
 2751 0563 00       		.byte	0
 2752 0564 1D       		.uleb128 0x1d
 2753 0565 A2000000 		.4byte	.LVL27
 2754 0569 0B160000 		.4byte	0x160b
 2755 056d 80050000 		.4byte	0x580
ARM GAS  C:\Users\jesse\AppData\Local\Temp\cc9dv931.s 			page 72


 2756 0571 1E       		.uleb128 0x1e
 2757 0572 01       		.uleb128 0x1
 2758 0573 50       		.byte	0x50
 2759 0574 02       		.uleb128 0x2
 2760 0575 76       		.byte	0x76
 2761 0576 00       		.sleb128 0
 2762 0577 1E       		.uleb128 0x1e
 2763 0578 01       		.uleb128 0x1
 2764 0579 51       		.byte	0x51
 2765 057a 04       		.uleb128 0x4
 2766 057b 77       		.byte	0x77
 2767 057c 00       		.sleb128 0
 2768 057d 32       		.byte	0x32
 2769 057e 25       		.byte	0x25
 2770 057f 00       		.byte	0
 2771 0580 1F       		.uleb128 0x1f
 2772 0581 A8000000 		.4byte	.LVL28
 2773 0585 17160000 		.4byte	0x1617
 2774 0589 1E       		.uleb128 0x1e
 2775 058a 01       		.uleb128 0x1
 2776 058b 50       		.byte	0x50
 2777 058c 02       		.uleb128 0x2
 2778 058d 76       		.byte	0x76
 2779 058e 00       		.sleb128 0
 2780 058f 00       		.byte	0
 2781 0590 00       		.byte	0
 2782 0591 20       		.uleb128 0x20
 2783 0592 49030000 		.4byte	.LASF70
 2784 0596 01       		.byte	0x1
 2785 0597 D4       		.byte	0xd4
 2786 0598 8C000000 		.4byte	0x8c
 2787 059c 00000000 		.4byte	.LFB1
 2788 05a0 68000000 		.4byte	.LFE1-.LFB1
 2789 05a4 01       		.uleb128 0x1
 2790 05a5 9C       		.byte	0x9c
 2791 05a6 92060000 		.4byte	0x692
 2792 05aa 21       		.uleb128 0x21
 2793 05ab F0060000 		.4byte	.LASF65
 2794 05af 01       		.byte	0x1
 2795 05b0 D4       		.byte	0xd4
 2796 05b1 45030000 		.4byte	0x345
 2797 05b5 D2020000 		.4byte	.LLST11
 2798 05b9 22       		.uleb128 0x22
 2799 05ba 6D736700 		.ascii	"msg\000"
 2800 05be 01       		.byte	0x1
 2801 05bf D4       		.byte	0xd4
 2802 05c0 8C000000 		.4byte	0x8c
 2803 05c4 FE020000 		.4byte	.LLST12
 2804 05c8 21       		.uleb128 0x21
 2805 05c9 CA030000 		.4byte	.LASF66
 2806 05cd 01       		.byte	0x1
 2807 05ce D4       		.byte	0xd4
 2808 05cf 8C000000 		.4byte	0x8c
 2809 05d3 1F030000 		.4byte	.LLST13
 2810 05d7 21       		.uleb128 0x21
 2811 05d8 23080000 		.4byte	.LASF67
 2812 05dc 01       		.byte	0x1
ARM GAS  C:\Users\jesse\AppData\Local\Temp\cc9dv931.s 			page 73


 2813 05dd D4       		.byte	0xd4
 2814 05de AD000000 		.4byte	0xad
 2815 05e2 40030000 		.4byte	.LLST14
 2816 05e6 1D       		.uleb128 0x1d
 2817 05e7 0C000000 		.4byte	.LVL33
 2818 05eb 8C030000 		.4byte	0x38c
 2819 05ef 0D060000 		.4byte	0x60d
 2820 05f3 1E       		.uleb128 0x1e
 2821 05f4 01       		.uleb128 0x1
 2822 05f5 50       		.byte	0x50
 2823 05f6 02       		.uleb128 0x2
 2824 05f7 74       		.byte	0x74
 2825 05f8 00       		.sleb128 0
 2826 05f9 1E       		.uleb128 0x1e
 2827 05fa 01       		.uleb128 0x1
 2828 05fb 51       		.byte	0x51
 2829 05fc 02       		.uleb128 0x2
 2830 05fd 75       		.byte	0x75
 2831 05fe 00       		.sleb128 0
 2832 05ff 1E       		.uleb128 0x1e
 2833 0600 01       		.uleb128 0x1
 2834 0601 52       		.byte	0x52
 2835 0602 02       		.uleb128 0x2
 2836 0603 76       		.byte	0x76
 2837 0604 00       		.sleb128 0
 2838 0605 1E       		.uleb128 0x1e
 2839 0606 01       		.uleb128 0x1
 2840 0607 53       		.byte	0x53
 2841 0608 03       		.uleb128 0x3
 2842 0609 F3       		.byte	0xf3
 2843 060a 01       		.uleb128 0x1
 2844 060b 53       		.byte	0x53
 2845 060c 00       		.byte	0
 2846 060d 1D       		.uleb128 0x1d
 2847 060e 22000000 		.4byte	.LVL34
 2848 0612 23160000 		.4byte	0x1623
 2849 0616 2A060000 		.4byte	0x62a
 2850 061a 1E       		.uleb128 0x1e
 2851 061b 01       		.uleb128 0x1
 2852 061c 50       		.byte	0x50
 2853 061d 02       		.uleb128 0x2
 2854 061e 74       		.byte	0x74
 2855 061f 00       		.sleb128 0
 2856 0620 1E       		.uleb128 0x1e
 2857 0621 01       		.uleb128 0x1
 2858 0622 51       		.byte	0x51
 2859 0623 05       		.uleb128 0x5
 2860 0624 03       		.byte	0x3
 2861 0625 10000000 		.4byte	.LANCHOR0+16
 2862 0629 00       		.byte	0
 2863 062a 1D       		.uleb128 0x1d
 2864 062b 2A000000 		.4byte	.LVL35
 2865 062f 2F160000 		.4byte	0x162f
 2866 0633 3E060000 		.4byte	0x63e
 2867 0637 1E       		.uleb128 0x1e
 2868 0638 01       		.uleb128 0x1
 2869 0639 50       		.byte	0x50
ARM GAS  C:\Users\jesse\AppData\Local\Temp\cc9dv931.s 			page 74


 2870 063a 02       		.uleb128 0x2
 2871 063b 74       		.byte	0x74
 2872 063c 00       		.sleb128 0
 2873 063d 00       		.byte	0
 2874 063e 1D       		.uleb128 0x1d
 2875 063f 32000000 		.4byte	.LVL36
 2876 0643 FF150000 		.4byte	0x15ff
 2877 0647 5B060000 		.4byte	0x65b
 2878 064b 1E       		.uleb128 0x1e
 2879 064c 01       		.uleb128 0x1
 2880 064d 50       		.byte	0x50
 2881 064e 02       		.uleb128 0x2
 2882 064f 74       		.byte	0x74
 2883 0650 00       		.sleb128 0
 2884 0651 1E       		.uleb128 0x1e
 2885 0652 01       		.uleb128 0x1
 2886 0653 51       		.byte	0x51
 2887 0654 05       		.uleb128 0x5
 2888 0655 03       		.byte	0x3
 2889 0656 28000000 		.4byte	.LANCHOR0+40
 2890 065a 00       		.byte	0
 2891 065b 1D       		.uleb128 0x1d
 2892 065c 3E000000 		.4byte	.LVL37
 2893 0660 FF150000 		.4byte	0x15ff
 2894 0664 78060000 		.4byte	0x678
 2895 0668 1E       		.uleb128 0x1e
 2896 0669 01       		.uleb128 0x1
 2897 066a 50       		.byte	0x50
 2898 066b 02       		.uleb128 0x2
 2899 066c 74       		.byte	0x74
 2900 066d 00       		.sleb128 0
 2901 066e 1E       		.uleb128 0x1e
 2902 066f 01       		.uleb128 0x1
 2903 0670 51       		.byte	0x51
 2904 0671 05       		.uleb128 0x5
 2905 0672 03       		.byte	0x3
 2906 0673 49000000 		.4byte	.LANCHOR0+73
 2907 0677 00       		.byte	0
 2908 0678 1F       		.uleb128 0x1f
 2909 0679 4C000000 		.4byte	.LVL38
 2910 067d FF150000 		.4byte	0x15ff
 2911 0681 1E       		.uleb128 0x1e
 2912 0682 01       		.uleb128 0x1
 2913 0683 50       		.byte	0x50
 2914 0684 02       		.uleb128 0x2
 2915 0685 74       		.byte	0x74
 2916 0686 00       		.sleb128 0
 2917 0687 1E       		.uleb128 0x1e
 2918 0688 01       		.uleb128 0x1
 2919 0689 51       		.byte	0x51
 2920 068a 05       		.uleb128 0x5
 2921 068b 03       		.byte	0x3
 2922 068c 50000000 		.4byte	.LANCHOR0+80
 2923 0690 00       		.byte	0
 2924 0691 00       		.byte	0
 2925 0692 23       		.uleb128 0x23
 2926 0693 9C040000 		.4byte	.LASF71
ARM GAS  C:\Users\jesse\AppData\Local\Temp\cc9dv931.s 			page 75


 2927 0697 01       		.byte	0x1
 2928 0698 1701     		.2byte	0x117
 2929 069a 8C000000 		.4byte	0x8c
 2930 069e 00000000 		.4byte	.LFB2
 2931 06a2 68000000 		.4byte	.LFE2-.LFB2
 2932 06a6 01       		.uleb128 0x1
 2933 06a7 9C       		.byte	0x9c
 2934 06a8 98070000 		.4byte	0x798
 2935 06ac 24       		.uleb128 0x24
 2936 06ad F0060000 		.4byte	.LASF65
 2937 06b1 01       		.byte	0x1
 2938 06b2 1701     		.2byte	0x117
 2939 06b4 45030000 		.4byte	0x345
 2940 06b8 61030000 		.4byte	.LLST15
 2941 06bc 25       		.uleb128 0x25
 2942 06bd 6D736700 		.ascii	"msg\000"
 2943 06c1 01       		.byte	0x1
 2944 06c2 1701     		.2byte	0x117
 2945 06c4 8C000000 		.4byte	0x8c
 2946 06c8 8D030000 		.4byte	.LLST16
 2947 06cc 24       		.uleb128 0x24
 2948 06cd CA030000 		.4byte	.LASF66
 2949 06d1 01       		.byte	0x1
 2950 06d2 1701     		.2byte	0x117
 2951 06d4 8C000000 		.4byte	0x8c
 2952 06d8 AE030000 		.4byte	.LLST17
 2953 06dc 24       		.uleb128 0x24
 2954 06dd 23080000 		.4byte	.LASF67
 2955 06e1 01       		.byte	0x1
 2956 06e2 1701     		.2byte	0x117
 2957 06e4 AD000000 		.4byte	0xad
 2958 06e8 CF030000 		.4byte	.LLST18
 2959 06ec 1D       		.uleb128 0x1d
 2960 06ed 0C000000 		.4byte	.LVL41
 2961 06f1 8C030000 		.4byte	0x38c
 2962 06f5 13070000 		.4byte	0x713
 2963 06f9 1E       		.uleb128 0x1e
 2964 06fa 01       		.uleb128 0x1
 2965 06fb 50       		.byte	0x50
 2966 06fc 02       		.uleb128 0x2
 2967 06fd 74       		.byte	0x74
 2968 06fe 00       		.sleb128 0
 2969 06ff 1E       		.uleb128 0x1e
 2970 0700 01       		.uleb128 0x1
 2971 0701 51       		.byte	0x51
 2972 0702 02       		.uleb128 0x2
 2973 0703 75       		.byte	0x75
 2974 0704 00       		.sleb128 0
 2975 0705 1E       		.uleb128 0x1e
 2976 0706 01       		.uleb128 0x1
 2977 0707 52       		.byte	0x52
 2978 0708 02       		.uleb128 0x2
 2979 0709 76       		.byte	0x76
 2980 070a 00       		.sleb128 0
 2981 070b 1E       		.uleb128 0x1e
 2982 070c 01       		.uleb128 0x1
 2983 070d 53       		.byte	0x53
ARM GAS  C:\Users\jesse\AppData\Local\Temp\cc9dv931.s 			page 76


 2984 070e 03       		.uleb128 0x3
 2985 070f F3       		.byte	0xf3
 2986 0710 01       		.uleb128 0x1
 2987 0711 53       		.byte	0x53
 2988 0712 00       		.byte	0
 2989 0713 1D       		.uleb128 0x1d
 2990 0714 22000000 		.4byte	.LVL42
 2991 0718 23160000 		.4byte	0x1623
 2992 071c 30070000 		.4byte	0x730
 2993 0720 1E       		.uleb128 0x1e
 2994 0721 01       		.uleb128 0x1
 2995 0722 50       		.byte	0x50
 2996 0723 02       		.uleb128 0x2
 2997 0724 74       		.byte	0x74
 2998 0725 00       		.sleb128 0
 2999 0726 1E       		.uleb128 0x1e
 3000 0727 01       		.uleb128 0x1
 3001 0728 51       		.byte	0x51
 3002 0729 05       		.uleb128 0x5
 3003 072a 03       		.byte	0x3
 3004 072b 10000000 		.4byte	.LANCHOR0+16
 3005 072f 00       		.byte	0
 3006 0730 1D       		.uleb128 0x1d
 3007 0731 2A000000 		.4byte	.LVL43
 3008 0735 2F160000 		.4byte	0x162f
 3009 0739 44070000 		.4byte	0x744
 3010 073d 1E       		.uleb128 0x1e
 3011 073e 01       		.uleb128 0x1
 3012 073f 50       		.byte	0x50
 3013 0740 02       		.uleb128 0x2
 3014 0741 74       		.byte	0x74
 3015 0742 00       		.sleb128 0
 3016 0743 00       		.byte	0
 3017 0744 1D       		.uleb128 0x1d
 3018 0745 32000000 		.4byte	.LVL44
 3019 0749 FF150000 		.4byte	0x15ff
 3020 074d 61070000 		.4byte	0x761
 3021 0751 1E       		.uleb128 0x1e
 3022 0752 01       		.uleb128 0x1
 3023 0753 50       		.byte	0x50
 3024 0754 02       		.uleb128 0x2
 3025 0755 74       		.byte	0x74
 3026 0756 00       		.sleb128 0
 3027 0757 1E       		.uleb128 0x1e
 3028 0758 01       		.uleb128 0x1
 3029 0759 51       		.byte	0x51
 3030 075a 05       		.uleb128 0x5
 3031 075b 03       		.byte	0x3
 3032 075c 57000000 		.4byte	.LANCHOR0+87
 3033 0760 00       		.byte	0
 3034 0761 1D       		.uleb128 0x1d
 3035 0762 3E000000 		.4byte	.LVL45
 3036 0766 FF150000 		.4byte	0x15ff
 3037 076a 7E070000 		.4byte	0x77e
 3038 076e 1E       		.uleb128 0x1e
 3039 076f 01       		.uleb128 0x1
 3040 0770 50       		.byte	0x50
ARM GAS  C:\Users\jesse\AppData\Local\Temp\cc9dv931.s 			page 77


 3041 0771 02       		.uleb128 0x2
 3042 0772 74       		.byte	0x74
 3043 0773 00       		.sleb128 0
 3044 0774 1E       		.uleb128 0x1e
 3045 0775 01       		.uleb128 0x1
 3046 0776 51       		.byte	0x51
 3047 0777 05       		.uleb128 0x5
 3048 0778 03       		.byte	0x3
 3049 0779 49000000 		.4byte	.LANCHOR0+73
 3050 077d 00       		.byte	0
 3051 077e 1F       		.uleb128 0x1f
 3052 077f 4C000000 		.4byte	.LVL46
 3053 0783 FF150000 		.4byte	0x15ff
 3054 0787 1E       		.uleb128 0x1e
 3055 0788 01       		.uleb128 0x1
 3056 0789 50       		.byte	0x50
 3057 078a 02       		.uleb128 0x2
 3058 078b 74       		.byte	0x74
 3059 078c 00       		.sleb128 0
 3060 078d 1E       		.uleb128 0x1e
 3061 078e 01       		.uleb128 0x1
 3062 078f 51       		.byte	0x51
 3063 0790 05       		.uleb128 0x5
 3064 0791 03       		.byte	0x3
 3065 0792 50000000 		.4byte	.LANCHOR0+80
 3066 0796 00       		.byte	0
 3067 0797 00       		.byte	0
 3068 0798 23       		.uleb128 0x23
 3069 0799 90000000 		.4byte	.LASF72
 3070 079d 01       		.byte	0x1
 3071 079e 9301     		.2byte	0x193
 3072 07a0 8C000000 		.4byte	0x8c
 3073 07a4 00000000 		.4byte	.LFB3
 3074 07a8 68000000 		.4byte	.LFE3-.LFB3
 3075 07ac 01       		.uleb128 0x1
 3076 07ad 9C       		.byte	0x9c
 3077 07ae 9E080000 		.4byte	0x89e
 3078 07b2 24       		.uleb128 0x24
 3079 07b3 F0060000 		.4byte	.LASF65
 3080 07b7 01       		.byte	0x1
 3081 07b8 9301     		.2byte	0x193
 3082 07ba 45030000 		.4byte	0x345
 3083 07be F0030000 		.4byte	.LLST19
 3084 07c2 25       		.uleb128 0x25
 3085 07c3 6D736700 		.ascii	"msg\000"
 3086 07c7 01       		.byte	0x1
 3087 07c8 9301     		.2byte	0x193
 3088 07ca 8C000000 		.4byte	0x8c
 3089 07ce 1C040000 		.4byte	.LLST20
 3090 07d2 24       		.uleb128 0x24
 3091 07d3 CA030000 		.4byte	.LASF66
 3092 07d7 01       		.byte	0x1
 3093 07d8 9301     		.2byte	0x193
 3094 07da 8C000000 		.4byte	0x8c
 3095 07de 3D040000 		.4byte	.LLST21
 3096 07e2 24       		.uleb128 0x24
 3097 07e3 23080000 		.4byte	.LASF67
ARM GAS  C:\Users\jesse\AppData\Local\Temp\cc9dv931.s 			page 78


 3098 07e7 01       		.byte	0x1
 3099 07e8 9301     		.2byte	0x193
 3100 07ea AD000000 		.4byte	0xad
 3101 07ee 5E040000 		.4byte	.LLST22
 3102 07f2 1D       		.uleb128 0x1d
 3103 07f3 0C000000 		.4byte	.LVL49
 3104 07f7 8C030000 		.4byte	0x38c
 3105 07fb 19080000 		.4byte	0x819
 3106 07ff 1E       		.uleb128 0x1e
 3107 0800 01       		.uleb128 0x1
 3108 0801 50       		.byte	0x50
 3109 0802 02       		.uleb128 0x2
 3110 0803 74       		.byte	0x74
 3111 0804 00       		.sleb128 0
 3112 0805 1E       		.uleb128 0x1e
 3113 0806 01       		.uleb128 0x1
 3114 0807 51       		.byte	0x51
 3115 0808 02       		.uleb128 0x2
 3116 0809 75       		.byte	0x75
 3117 080a 00       		.sleb128 0
 3118 080b 1E       		.uleb128 0x1e
 3119 080c 01       		.uleb128 0x1
 3120 080d 52       		.byte	0x52
 3121 080e 02       		.uleb128 0x2
 3122 080f 76       		.byte	0x76
 3123 0810 00       		.sleb128 0
 3124 0811 1E       		.uleb128 0x1e
 3125 0812 01       		.uleb128 0x1
 3126 0813 53       		.byte	0x53
 3127 0814 03       		.uleb128 0x3
 3128 0815 F3       		.byte	0xf3
 3129 0816 01       		.uleb128 0x1
 3130 0817 53       		.byte	0x53
 3131 0818 00       		.byte	0
 3132 0819 1D       		.uleb128 0x1d
 3133 081a 22000000 		.4byte	.LVL50
 3134 081e 23160000 		.4byte	0x1623
 3135 0822 36080000 		.4byte	0x836
 3136 0826 1E       		.uleb128 0x1e
 3137 0827 01       		.uleb128 0x1
 3138 0828 50       		.byte	0x50
 3139 0829 02       		.uleb128 0x2
 3140 082a 74       		.byte	0x74
 3141 082b 00       		.sleb128 0
 3142 082c 1E       		.uleb128 0x1e
 3143 082d 01       		.uleb128 0x1
 3144 082e 51       		.byte	0x51
 3145 082f 05       		.uleb128 0x5
 3146 0830 03       		.byte	0x3
 3147 0831 78000000 		.4byte	.LANCHOR0+120
 3148 0835 00       		.byte	0
 3149 0836 1D       		.uleb128 0x1d
 3150 0837 2A000000 		.4byte	.LVL51
 3151 083b 2F160000 		.4byte	0x162f
 3152 083f 4A080000 		.4byte	0x84a
 3153 0843 1E       		.uleb128 0x1e
 3154 0844 01       		.uleb128 0x1
ARM GAS  C:\Users\jesse\AppData\Local\Temp\cc9dv931.s 			page 79


 3155 0845 50       		.byte	0x50
 3156 0846 02       		.uleb128 0x2
 3157 0847 74       		.byte	0x74
 3158 0848 00       		.sleb128 0
 3159 0849 00       		.byte	0
 3160 084a 1D       		.uleb128 0x1d
 3161 084b 32000000 		.4byte	.LVL52
 3162 084f FF150000 		.4byte	0x15ff
 3163 0853 67080000 		.4byte	0x867
 3164 0857 1E       		.uleb128 0x1e
 3165 0858 01       		.uleb128 0x1
 3166 0859 50       		.byte	0x50
 3167 085a 02       		.uleb128 0x2
 3168 085b 74       		.byte	0x74
 3169 085c 00       		.sleb128 0
 3170 085d 1E       		.uleb128 0x1e
 3171 085e 01       		.uleb128 0x1
 3172 085f 51       		.byte	0x51
 3173 0860 05       		.uleb128 0x5
 3174 0861 03       		.byte	0x3
 3175 0862 90000000 		.4byte	.LANCHOR0+144
 3176 0866 00       		.byte	0
 3177 0867 1D       		.uleb128 0x1d
 3178 0868 3E000000 		.4byte	.LVL53
 3179 086c FF150000 		.4byte	0x15ff
 3180 0870 84080000 		.4byte	0x884
 3181 0874 1E       		.uleb128 0x1e
 3182 0875 01       		.uleb128 0x1
 3183 0876 50       		.byte	0x50
 3184 0877 02       		.uleb128 0x2
 3185 0878 74       		.byte	0x74
 3186 0879 00       		.sleb128 0
 3187 087a 1E       		.uleb128 0x1e
 3188 087b 01       		.uleb128 0x1
 3189 087c 51       		.byte	0x51
 3190 087d 05       		.uleb128 0x5
 3191 087e 03       		.byte	0x3
 3192 087f 49000000 		.4byte	.LANCHOR0+73
 3193 0883 00       		.byte	0
 3194 0884 1F       		.uleb128 0x1f
 3195 0885 4C000000 		.4byte	.LVL54
 3196 0889 FF150000 		.4byte	0x15ff
 3197 088d 1E       		.uleb128 0x1e
 3198 088e 01       		.uleb128 0x1
 3199 088f 50       		.byte	0x50
 3200 0890 02       		.uleb128 0x2
 3201 0891 74       		.byte	0x74
 3202 0892 00       		.sleb128 0
 3203 0893 1E       		.uleb128 0x1e
 3204 0894 01       		.uleb128 0x1
 3205 0895 51       		.byte	0x51
 3206 0896 05       		.uleb128 0x5
 3207 0897 03       		.byte	0x3
 3208 0898 50000000 		.4byte	.LANCHOR0+80
 3209 089c 00       		.byte	0
 3210 089d 00       		.byte	0
 3211 089e 23       		.uleb128 0x23
ARM GAS  C:\Users\jesse\AppData\Local\Temp\cc9dv931.s 			page 80


 3212 089f 43080000 		.4byte	.LASF73
 3213 08a3 01       		.byte	0x1
 3214 08a4 D401     		.2byte	0x1d4
 3215 08a6 8C000000 		.4byte	0x8c
 3216 08aa 00000000 		.4byte	.LFB4
 3217 08ae 68000000 		.4byte	.LFE4-.LFB4
 3218 08b2 01       		.uleb128 0x1
 3219 08b3 9C       		.byte	0x9c
 3220 08b4 A4090000 		.4byte	0x9a4
 3221 08b8 24       		.uleb128 0x24
 3222 08b9 F0060000 		.4byte	.LASF65
 3223 08bd 01       		.byte	0x1
 3224 08be D401     		.2byte	0x1d4
 3225 08c0 45030000 		.4byte	0x345
 3226 08c4 7F040000 		.4byte	.LLST23
 3227 08c8 25       		.uleb128 0x25
 3228 08c9 6D736700 		.ascii	"msg\000"
 3229 08cd 01       		.byte	0x1
 3230 08ce D401     		.2byte	0x1d4
 3231 08d0 8C000000 		.4byte	0x8c
 3232 08d4 AB040000 		.4byte	.LLST24
 3233 08d8 24       		.uleb128 0x24
 3234 08d9 CA030000 		.4byte	.LASF66
 3235 08dd 01       		.byte	0x1
 3236 08de D401     		.2byte	0x1d4
 3237 08e0 8C000000 		.4byte	0x8c
 3238 08e4 CC040000 		.4byte	.LLST25
 3239 08e8 24       		.uleb128 0x24
 3240 08e9 23080000 		.4byte	.LASF67
 3241 08ed 01       		.byte	0x1
 3242 08ee D401     		.2byte	0x1d4
 3243 08f0 AD000000 		.4byte	0xad
 3244 08f4 ED040000 		.4byte	.LLST26
 3245 08f8 1D       		.uleb128 0x1d
 3246 08f9 0C000000 		.4byte	.LVL57
 3247 08fd 8C030000 		.4byte	0x38c
 3248 0901 1F090000 		.4byte	0x91f
 3249 0905 1E       		.uleb128 0x1e
 3250 0906 01       		.uleb128 0x1
 3251 0907 50       		.byte	0x50
 3252 0908 02       		.uleb128 0x2
 3253 0909 74       		.byte	0x74
 3254 090a 00       		.sleb128 0
 3255 090b 1E       		.uleb128 0x1e
 3256 090c 01       		.uleb128 0x1
 3257 090d 51       		.byte	0x51
 3258 090e 02       		.uleb128 0x2
 3259 090f 75       		.byte	0x75
 3260 0910 00       		.sleb128 0
 3261 0911 1E       		.uleb128 0x1e
 3262 0912 01       		.uleb128 0x1
 3263 0913 52       		.byte	0x52
 3264 0914 02       		.uleb128 0x2
 3265 0915 76       		.byte	0x76
 3266 0916 00       		.sleb128 0
 3267 0917 1E       		.uleb128 0x1e
 3268 0918 01       		.uleb128 0x1
ARM GAS  C:\Users\jesse\AppData\Local\Temp\cc9dv931.s 			page 81


 3269 0919 53       		.byte	0x53
 3270 091a 03       		.uleb128 0x3
 3271 091b F3       		.byte	0xf3
 3272 091c 01       		.uleb128 0x1
 3273 091d 53       		.byte	0x53
 3274 091e 00       		.byte	0
 3275 091f 1D       		.uleb128 0x1d
 3276 0920 22000000 		.4byte	.LVL58
 3277 0924 23160000 		.4byte	0x1623
 3278 0928 3C090000 		.4byte	0x93c
 3279 092c 1E       		.uleb128 0x1e
 3280 092d 01       		.uleb128 0x1
 3281 092e 50       		.byte	0x50
 3282 092f 02       		.uleb128 0x2
 3283 0930 74       		.byte	0x74
 3284 0931 00       		.sleb128 0
 3285 0932 1E       		.uleb128 0x1e
 3286 0933 01       		.uleb128 0x1
 3287 0934 51       		.byte	0x51
 3288 0935 05       		.uleb128 0x5
 3289 0936 03       		.byte	0x3
 3290 0937 10000000 		.4byte	.LANCHOR0+16
 3291 093b 00       		.byte	0
 3292 093c 1D       		.uleb128 0x1d
 3293 093d 2A000000 		.4byte	.LVL59
 3294 0941 2F160000 		.4byte	0x162f
 3295 0945 50090000 		.4byte	0x950
 3296 0949 1E       		.uleb128 0x1e
 3297 094a 01       		.uleb128 0x1
 3298 094b 50       		.byte	0x50
 3299 094c 02       		.uleb128 0x2
 3300 094d 74       		.byte	0x74
 3301 094e 00       		.sleb128 0
 3302 094f 00       		.byte	0
 3303 0950 1D       		.uleb128 0x1d
 3304 0951 32000000 		.4byte	.LVL60
 3305 0955 FF150000 		.4byte	0x15ff
 3306 0959 6D090000 		.4byte	0x96d
 3307 095d 1E       		.uleb128 0x1e
 3308 095e 01       		.uleb128 0x1
 3309 095f 50       		.byte	0x50
 3310 0960 02       		.uleb128 0x2
 3311 0961 74       		.byte	0x74
 3312 0962 00       		.sleb128 0
 3313 0963 1E       		.uleb128 0x1e
 3314 0964 01       		.uleb128 0x1
 3315 0965 51       		.byte	0x51
 3316 0966 05       		.uleb128 0x5
 3317 0967 03       		.byte	0x3
 3318 0968 AD000000 		.4byte	.LANCHOR0+173
 3319 096c 00       		.byte	0
 3320 096d 1D       		.uleb128 0x1d
 3321 096e 3E000000 		.4byte	.LVL61
 3322 0972 FF150000 		.4byte	0x15ff
 3323 0976 8A090000 		.4byte	0x98a
 3324 097a 1E       		.uleb128 0x1e
 3325 097b 01       		.uleb128 0x1
ARM GAS  C:\Users\jesse\AppData\Local\Temp\cc9dv931.s 			page 82


 3326 097c 50       		.byte	0x50
 3327 097d 02       		.uleb128 0x2
 3328 097e 74       		.byte	0x74
 3329 097f 00       		.sleb128 0
 3330 0980 1E       		.uleb128 0x1e
 3331 0981 01       		.uleb128 0x1
 3332 0982 51       		.byte	0x51
 3333 0983 05       		.uleb128 0x5
 3334 0984 03       		.byte	0x3
 3335 0985 CE000000 		.4byte	.LANCHOR0+206
 3336 0989 00       		.byte	0
 3337 098a 1F       		.uleb128 0x1f
 3338 098b 4C000000 		.4byte	.LVL62
 3339 098f FF150000 		.4byte	0x15ff
 3340 0993 1E       		.uleb128 0x1e
 3341 0994 01       		.uleb128 0x1
 3342 0995 50       		.byte	0x50
 3343 0996 02       		.uleb128 0x2
 3344 0997 74       		.byte	0x74
 3345 0998 00       		.sleb128 0
 3346 0999 1E       		.uleb128 0x1e
 3347 099a 01       		.uleb128 0x1
 3348 099b 51       		.byte	0x51
 3349 099c 05       		.uleb128 0x5
 3350 099d 03       		.byte	0x3
 3351 099e D5000000 		.4byte	.LANCHOR0+213
 3352 09a2 00       		.byte	0
 3353 09a3 00       		.byte	0
 3354 09a4 23       		.uleb128 0x23
 3355 09a5 00000000 		.4byte	.LASF74
 3356 09a9 01       		.byte	0x1
 3357 09aa 3002     		.2byte	0x230
 3358 09ac 8C000000 		.4byte	0x8c
 3359 09b0 00000000 		.4byte	.LFB5
 3360 09b4 68000000 		.4byte	.LFE5-.LFB5
 3361 09b8 01       		.uleb128 0x1
 3362 09b9 9C       		.byte	0x9c
 3363 09ba AA0A0000 		.4byte	0xaaa
 3364 09be 24       		.uleb128 0x24
 3365 09bf F0060000 		.4byte	.LASF65
 3366 09c3 01       		.byte	0x1
 3367 09c4 3002     		.2byte	0x230
 3368 09c6 45030000 		.4byte	0x345
 3369 09ca 0E050000 		.4byte	.LLST27
 3370 09ce 25       		.uleb128 0x25
 3371 09cf 6D736700 		.ascii	"msg\000"
 3372 09d3 01       		.byte	0x1
 3373 09d4 3002     		.2byte	0x230
 3374 09d6 8C000000 		.4byte	0x8c
 3375 09da 3A050000 		.4byte	.LLST28
 3376 09de 24       		.uleb128 0x24
 3377 09df CA030000 		.4byte	.LASF66
 3378 09e3 01       		.byte	0x1
 3379 09e4 3002     		.2byte	0x230
 3380 09e6 8C000000 		.4byte	0x8c
 3381 09ea 5B050000 		.4byte	.LLST29
 3382 09ee 24       		.uleb128 0x24
ARM GAS  C:\Users\jesse\AppData\Local\Temp\cc9dv931.s 			page 83


 3383 09ef 23080000 		.4byte	.LASF67
 3384 09f3 01       		.byte	0x1
 3385 09f4 3002     		.2byte	0x230
 3386 09f6 AD000000 		.4byte	0xad
 3387 09fa 7C050000 		.4byte	.LLST30
 3388 09fe 1D       		.uleb128 0x1d
 3389 09ff 0C000000 		.4byte	.LVL65
 3390 0a03 8C030000 		.4byte	0x38c
 3391 0a07 250A0000 		.4byte	0xa25
 3392 0a0b 1E       		.uleb128 0x1e
 3393 0a0c 01       		.uleb128 0x1
 3394 0a0d 50       		.byte	0x50
 3395 0a0e 02       		.uleb128 0x2
 3396 0a0f 74       		.byte	0x74
 3397 0a10 00       		.sleb128 0
 3398 0a11 1E       		.uleb128 0x1e
 3399 0a12 01       		.uleb128 0x1
 3400 0a13 51       		.byte	0x51
 3401 0a14 02       		.uleb128 0x2
 3402 0a15 75       		.byte	0x75
 3403 0a16 00       		.sleb128 0
 3404 0a17 1E       		.uleb128 0x1e
 3405 0a18 01       		.uleb128 0x1
 3406 0a19 52       		.byte	0x52
 3407 0a1a 02       		.uleb128 0x2
 3408 0a1b 76       		.byte	0x76
 3409 0a1c 00       		.sleb128 0
 3410 0a1d 1E       		.uleb128 0x1e
 3411 0a1e 01       		.uleb128 0x1
 3412 0a1f 53       		.byte	0x53
 3413 0a20 03       		.uleb128 0x3
 3414 0a21 F3       		.byte	0xf3
 3415 0a22 01       		.uleb128 0x1
 3416 0a23 53       		.byte	0x53
 3417 0a24 00       		.byte	0
 3418 0a25 1D       		.uleb128 0x1d
 3419 0a26 22000000 		.4byte	.LVL66
 3420 0a2a 23160000 		.4byte	0x1623
 3421 0a2e 420A0000 		.4byte	0xa42
 3422 0a32 1E       		.uleb128 0x1e
 3423 0a33 01       		.uleb128 0x1
 3424 0a34 50       		.byte	0x50
 3425 0a35 02       		.uleb128 0x2
 3426 0a36 74       		.byte	0x74
 3427 0a37 00       		.sleb128 0
 3428 0a38 1E       		.uleb128 0x1e
 3429 0a39 01       		.uleb128 0x1
 3430 0a3a 51       		.byte	0x51
 3431 0a3b 05       		.uleb128 0x5
 3432 0a3c 03       		.byte	0x3
 3433 0a3d DC000000 		.4byte	.LANCHOR0+220
 3434 0a41 00       		.byte	0
 3435 0a42 1D       		.uleb128 0x1d
 3436 0a43 2A000000 		.4byte	.LVL67
 3437 0a47 2F160000 		.4byte	0x162f
 3438 0a4b 560A0000 		.4byte	0xa56
 3439 0a4f 1E       		.uleb128 0x1e
ARM GAS  C:\Users\jesse\AppData\Local\Temp\cc9dv931.s 			page 84


 3440 0a50 01       		.uleb128 0x1
 3441 0a51 50       		.byte	0x50
 3442 0a52 02       		.uleb128 0x2
 3443 0a53 74       		.byte	0x74
 3444 0a54 00       		.sleb128 0
 3445 0a55 00       		.byte	0
 3446 0a56 1D       		.uleb128 0x1d
 3447 0a57 32000000 		.4byte	.LVL68
 3448 0a5b FF150000 		.4byte	0x15ff
 3449 0a5f 730A0000 		.4byte	0xa73
 3450 0a63 1E       		.uleb128 0x1e
 3451 0a64 01       		.uleb128 0x1
 3452 0a65 50       		.byte	0x50
 3453 0a66 02       		.uleb128 0x2
 3454 0a67 74       		.byte	0x74
 3455 0a68 00       		.sleb128 0
 3456 0a69 1E       		.uleb128 0x1e
 3457 0a6a 01       		.uleb128 0x1
 3458 0a6b 51       		.byte	0x51
 3459 0a6c 05       		.uleb128 0x5
 3460 0a6d 03       		.byte	0x3
 3461 0a6e F4000000 		.4byte	.LANCHOR0+244
 3462 0a72 00       		.byte	0
 3463 0a73 1D       		.uleb128 0x1d
 3464 0a74 3E000000 		.4byte	.LVL69
 3465 0a78 FF150000 		.4byte	0x15ff
 3466 0a7c 900A0000 		.4byte	0xa90
 3467 0a80 1E       		.uleb128 0x1e
 3468 0a81 01       		.uleb128 0x1
 3469 0a82 50       		.byte	0x50
 3470 0a83 02       		.uleb128 0x2
 3471 0a84 74       		.byte	0x74
 3472 0a85 00       		.sleb128 0
 3473 0a86 1E       		.uleb128 0x1e
 3474 0a87 01       		.uleb128 0x1
 3475 0a88 51       		.byte	0x51
 3476 0a89 05       		.uleb128 0x5
 3477 0a8a 03       		.byte	0x3
 3478 0a8b 49000000 		.4byte	.LANCHOR0+73
 3479 0a8f 00       		.byte	0
 3480 0a90 1F       		.uleb128 0x1f
 3481 0a91 4C000000 		.4byte	.LVL70
 3482 0a95 FF150000 		.4byte	0x15ff
 3483 0a99 1E       		.uleb128 0x1e
 3484 0a9a 01       		.uleb128 0x1
 3485 0a9b 50       		.byte	0x50
 3486 0a9c 02       		.uleb128 0x2
 3487 0a9d 74       		.byte	0x74
 3488 0a9e 00       		.sleb128 0
 3489 0a9f 1E       		.uleb128 0x1e
 3490 0aa0 01       		.uleb128 0x1
 3491 0aa1 51       		.byte	0x51
 3492 0aa2 05       		.uleb128 0x5
 3493 0aa3 03       		.byte	0x3
 3494 0aa4 50000000 		.4byte	.LANCHOR0+80
 3495 0aa8 00       		.byte	0
 3496 0aa9 00       		.byte	0
ARM GAS  C:\Users\jesse\AppData\Local\Temp\cc9dv931.s 			page 85


 3497 0aaa 16       		.uleb128 0x16
 3498 0aab E6030000 		.4byte	0x3e6
 3499 0aaf 00000000 		.4byte	.LFB6
 3500 0ab3 68000000 		.4byte	.LFE6-.LFB6
 3501 0ab7 01       		.uleb128 0x1
 3502 0ab8 9C       		.byte	0x9c
 3503 0ab9 BB0B0000 		.4byte	0xbbb
 3504 0abd 17       		.uleb128 0x17
 3505 0abe F7030000 		.4byte	0x3f7
 3506 0ac2 9D050000 		.4byte	.LLST31
 3507 0ac6 17       		.uleb128 0x17
 3508 0ac7 03040000 		.4byte	0x403
 3509 0acb C9050000 		.4byte	.LLST32
 3510 0acf 17       		.uleb128 0x17
 3511 0ad0 0F040000 		.4byte	0x40f
 3512 0ad4 EA050000 		.4byte	.LLST33
 3513 0ad8 17       		.uleb128 0x17
 3514 0ad9 1B040000 		.4byte	0x41b
 3515 0add 0B060000 		.4byte	.LLST34
 3516 0ae1 19       		.uleb128 0x19
 3517 0ae2 36000000 		.4byte	.LBB8
 3518 0ae6 0E000000 		.4byte	.LBE8-.LBB8
 3519 0aea 2C0B0000 		.4byte	0xb2c
 3520 0aee 17       		.uleb128 0x17
 3521 0aef 03040000 		.4byte	0x403
 3522 0af3 2C060000 		.4byte	.LLST35
 3523 0af7 17       		.uleb128 0x17
 3524 0af8 0F040000 		.4byte	0x40f
 3525 0afc 40060000 		.4byte	.LLST36
 3526 0b00 17       		.uleb128 0x17
 3527 0b01 1B040000 		.4byte	0x41b
 3528 0b05 54060000 		.4byte	.LLST37
 3529 0b09 17       		.uleb128 0x17
 3530 0b0a F7030000 		.4byte	0x3f7
 3531 0b0e 6A060000 		.4byte	.LLST38
 3532 0b12 1F       		.uleb128 0x1f
 3533 0b13 3E000000 		.4byte	.LVL78
 3534 0b17 FF150000 		.4byte	0x15ff
 3535 0b1b 1E       		.uleb128 0x1e
 3536 0b1c 01       		.uleb128 0x1
 3537 0b1d 50       		.byte	0x50
 3538 0b1e 02       		.uleb128 0x2
 3539 0b1f 74       		.byte	0x74
 3540 0b20 00       		.sleb128 0
 3541 0b21 1E       		.uleb128 0x1e
 3542 0b22 01       		.uleb128 0x1
 3543 0b23 51       		.byte	0x51
 3544 0b24 05       		.uleb128 0x5
 3545 0b25 03       		.byte	0x3
 3546 0b26 49000000 		.4byte	.LANCHOR0+73
 3547 0b2a 00       		.byte	0
 3548 0b2b 00       		.byte	0
 3549 0b2c 1D       		.uleb128 0x1d
 3550 0b2d 0C000000 		.4byte	.LVL73
 3551 0b31 8C030000 		.4byte	0x38c
 3552 0b35 530B0000 		.4byte	0xb53
 3553 0b39 1E       		.uleb128 0x1e
ARM GAS  C:\Users\jesse\AppData\Local\Temp\cc9dv931.s 			page 86


 3554 0b3a 01       		.uleb128 0x1
 3555 0b3b 50       		.byte	0x50
 3556 0b3c 02       		.uleb128 0x2
 3557 0b3d 74       		.byte	0x74
 3558 0b3e 00       		.sleb128 0
 3559 0b3f 1E       		.uleb128 0x1e
 3560 0b40 01       		.uleb128 0x1
 3561 0b41 51       		.byte	0x51
 3562 0b42 02       		.uleb128 0x2
 3563 0b43 75       		.byte	0x75
 3564 0b44 00       		.sleb128 0
 3565 0b45 1E       		.uleb128 0x1e
 3566 0b46 01       		.uleb128 0x1
 3567 0b47 52       		.byte	0x52
 3568 0b48 02       		.uleb128 0x2
 3569 0b49 76       		.byte	0x76
 3570 0b4a 00       		.sleb128 0
 3571 0b4b 1E       		.uleb128 0x1e
 3572 0b4c 01       		.uleb128 0x1
 3573 0b4d 53       		.byte	0x53
 3574 0b4e 03       		.uleb128 0x3
 3575 0b4f F3       		.byte	0xf3
 3576 0b50 01       		.uleb128 0x1
 3577 0b51 53       		.byte	0x53
 3578 0b52 00       		.byte	0
 3579 0b53 1D       		.uleb128 0x1d
 3580 0b54 22000000 		.4byte	.LVL74
 3581 0b58 23160000 		.4byte	0x1623
 3582 0b5c 700B0000 		.4byte	0xb70
 3583 0b60 1E       		.uleb128 0x1e
 3584 0b61 01       		.uleb128 0x1
 3585 0b62 50       		.byte	0x50
 3586 0b63 02       		.uleb128 0x2
 3587 0b64 74       		.byte	0x74
 3588 0b65 00       		.sleb128 0
 3589 0b66 1E       		.uleb128 0x1e
 3590 0b67 01       		.uleb128 0x1
 3591 0b68 51       		.byte	0x51
 3592 0b69 05       		.uleb128 0x5
 3593 0b6a 03       		.byte	0x3
 3594 0b6b 18010000 		.4byte	.LANCHOR0+280
 3595 0b6f 00       		.byte	0
 3596 0b70 1D       		.uleb128 0x1d
 3597 0b71 2A000000 		.4byte	.LVL75
 3598 0b75 2F160000 		.4byte	0x162f
 3599 0b79 840B0000 		.4byte	0xb84
 3600 0b7d 1E       		.uleb128 0x1e
 3601 0b7e 01       		.uleb128 0x1
 3602 0b7f 50       		.byte	0x50
 3603 0b80 02       		.uleb128 0x2
 3604 0b81 74       		.byte	0x74
 3605 0b82 00       		.sleb128 0
 3606 0b83 00       		.byte	0
 3607 0b84 1D       		.uleb128 0x1d
 3608 0b85 32000000 		.4byte	.LVL76
 3609 0b89 FF150000 		.4byte	0x15ff
 3610 0b8d A10B0000 		.4byte	0xba1
ARM GAS  C:\Users\jesse\AppData\Local\Temp\cc9dv931.s 			page 87


 3611 0b91 1E       		.uleb128 0x1e
 3612 0b92 01       		.uleb128 0x1
 3613 0b93 50       		.byte	0x50
 3614 0b94 02       		.uleb128 0x2
 3615 0b95 74       		.byte	0x74
 3616 0b96 00       		.sleb128 0
 3617 0b97 1E       		.uleb128 0x1e
 3618 0b98 01       		.uleb128 0x1
 3619 0b99 51       		.byte	0x51
 3620 0b9a 05       		.uleb128 0x5
 3621 0b9b 03       		.byte	0x3
 3622 0b9c 30010000 		.4byte	.LANCHOR0+304
 3623 0ba0 00       		.byte	0
 3624 0ba1 1F       		.uleb128 0x1f
 3625 0ba2 4C000000 		.4byte	.LVL80
 3626 0ba6 FF150000 		.4byte	0x15ff
 3627 0baa 1E       		.uleb128 0x1e
 3628 0bab 01       		.uleb128 0x1
 3629 0bac 50       		.byte	0x50
 3630 0bad 02       		.uleb128 0x2
 3631 0bae 74       		.byte	0x74
 3632 0baf 00       		.sleb128 0
 3633 0bb0 1E       		.uleb128 0x1e
 3634 0bb1 01       		.uleb128 0x1
 3635 0bb2 51       		.byte	0x51
 3636 0bb3 05       		.uleb128 0x5
 3637 0bb4 03       		.byte	0x3
 3638 0bb5 50000000 		.4byte	.LANCHOR0+80
 3639 0bb9 00       		.byte	0
 3640 0bba 00       		.byte	0
 3641 0bbb 23       		.uleb128 0x23
 3642 0bbc EC070000 		.4byte	.LASF75
 3643 0bc0 01       		.byte	0x1
 3644 0bc1 AE02     		.2byte	0x2ae
 3645 0bc3 8C000000 		.4byte	0x8c
 3646 0bc7 00000000 		.4byte	.LFB7
 3647 0bcb 04000000 		.4byte	.LFE7-.LFB7
 3648 0bcf 01       		.uleb128 0x1
 3649 0bd0 9C       		.byte	0x9c
 3650 0bd1 2E0C0000 		.4byte	0xc2e
 3651 0bd5 24       		.uleb128 0x24
 3652 0bd6 F0060000 		.4byte	.LASF65
 3653 0bda 01       		.byte	0x1
 3654 0bdb AE02     		.2byte	0x2ae
 3655 0bdd 45030000 		.4byte	0x345
 3656 0be1 7D060000 		.4byte	.LLST39
 3657 0be5 25       		.uleb128 0x25
 3658 0be6 6D736700 		.ascii	"msg\000"
 3659 0bea 01       		.byte	0x1
 3660 0beb AE02     		.2byte	0x2ae
 3661 0bed 8C000000 		.4byte	0x8c
 3662 0bf1 9E060000 		.4byte	.LLST40
 3663 0bf5 24       		.uleb128 0x24
 3664 0bf6 CA030000 		.4byte	.LASF66
 3665 0bfa 01       		.byte	0x1
 3666 0bfb AE02     		.2byte	0x2ae
 3667 0bfd 8C000000 		.4byte	0x8c
ARM GAS  C:\Users\jesse\AppData\Local\Temp\cc9dv931.s 			page 88


 3668 0c01 BF060000 		.4byte	.LLST41
 3669 0c05 24       		.uleb128 0x24
 3670 0c06 23080000 		.4byte	.LASF67
 3671 0c0a 01       		.byte	0x1
 3672 0c0b AE02     		.2byte	0x2ae
 3673 0c0d AD000000 		.4byte	0xad
 3674 0c11 E0060000 		.4byte	.LLST42
 3675 0c15 26       		.uleb128 0x26
 3676 0c16 04000000 		.4byte	.LVL83
 3677 0c1a E6030000 		.4byte	0x3e6
 3678 0c1e 1E       		.uleb128 0x1e
 3679 0c1f 01       		.uleb128 0x1
 3680 0c20 50       		.byte	0x50
 3681 0c21 03       		.uleb128 0x3
 3682 0c22 F3       		.byte	0xf3
 3683 0c23 01       		.uleb128 0x1
 3684 0c24 50       		.byte	0x50
 3685 0c25 1E       		.uleb128 0x1e
 3686 0c26 01       		.uleb128 0x1
 3687 0c27 53       		.byte	0x53
 3688 0c28 03       		.uleb128 0x3
 3689 0c29 F3       		.byte	0xf3
 3690 0c2a 01       		.uleb128 0x1
 3691 0c2b 53       		.byte	0x53
 3692 0c2c 00       		.byte	0
 3693 0c2d 00       		.byte	0
 3694 0c2e 23       		.uleb128 0x23
 3695 0c2f AF020000 		.4byte	.LASF76
 3696 0c33 01       		.byte	0x1
 3697 0c34 ED02     		.2byte	0x2ed
 3698 0c36 8C000000 		.4byte	0x8c
 3699 0c3a 00000000 		.4byte	.LFB8
 3700 0c3e 68000000 		.4byte	.LFE8-.LFB8
 3701 0c42 01       		.uleb128 0x1
 3702 0c43 9C       		.byte	0x9c
 3703 0c44 340D0000 		.4byte	0xd34
 3704 0c48 24       		.uleb128 0x24
 3705 0c49 F0060000 		.4byte	.LASF65
 3706 0c4d 01       		.byte	0x1
 3707 0c4e ED02     		.2byte	0x2ed
 3708 0c50 45030000 		.4byte	0x345
 3709 0c54 01070000 		.4byte	.LLST43
 3710 0c58 25       		.uleb128 0x25
 3711 0c59 6D736700 		.ascii	"msg\000"
 3712 0c5d 01       		.byte	0x1
 3713 0c5e ED02     		.2byte	0x2ed
 3714 0c60 8C000000 		.4byte	0x8c
 3715 0c64 2D070000 		.4byte	.LLST44
 3716 0c68 24       		.uleb128 0x24
 3717 0c69 CA030000 		.4byte	.LASF66
 3718 0c6d 01       		.byte	0x1
 3719 0c6e ED02     		.2byte	0x2ed
 3720 0c70 8C000000 		.4byte	0x8c
 3721 0c74 4E070000 		.4byte	.LLST45
 3722 0c78 24       		.uleb128 0x24
 3723 0c79 23080000 		.4byte	.LASF67
 3724 0c7d 01       		.byte	0x1
ARM GAS  C:\Users\jesse\AppData\Local\Temp\cc9dv931.s 			page 89


 3725 0c7e ED02     		.2byte	0x2ed
 3726 0c80 AD000000 		.4byte	0xad
 3727 0c84 6F070000 		.4byte	.LLST46
 3728 0c88 1D       		.uleb128 0x1d
 3729 0c89 0C000000 		.4byte	.LVL85
 3730 0c8d 8C030000 		.4byte	0x38c
 3731 0c91 AF0C0000 		.4byte	0xcaf
 3732 0c95 1E       		.uleb128 0x1e
 3733 0c96 01       		.uleb128 0x1
 3734 0c97 50       		.byte	0x50
 3735 0c98 02       		.uleb128 0x2
 3736 0c99 74       		.byte	0x74
 3737 0c9a 00       		.sleb128 0
 3738 0c9b 1E       		.uleb128 0x1e
 3739 0c9c 01       		.uleb128 0x1
 3740 0c9d 51       		.byte	0x51
 3741 0c9e 02       		.uleb128 0x2
 3742 0c9f 75       		.byte	0x75
 3743 0ca0 00       		.sleb128 0
 3744 0ca1 1E       		.uleb128 0x1e
 3745 0ca2 01       		.uleb128 0x1
 3746 0ca3 52       		.byte	0x52
 3747 0ca4 02       		.uleb128 0x2
 3748 0ca5 76       		.byte	0x76
 3749 0ca6 00       		.sleb128 0
 3750 0ca7 1E       		.uleb128 0x1e
 3751 0ca8 01       		.uleb128 0x1
 3752 0ca9 53       		.byte	0x53
 3753 0caa 03       		.uleb128 0x3
 3754 0cab F3       		.byte	0xf3
 3755 0cac 01       		.uleb128 0x1
 3756 0cad 53       		.byte	0x53
 3757 0cae 00       		.byte	0
 3758 0caf 1D       		.uleb128 0x1d
 3759 0cb0 22000000 		.4byte	.LVL86
 3760 0cb4 23160000 		.4byte	0x1623
 3761 0cb8 CC0C0000 		.4byte	0xccc
 3762 0cbc 1E       		.uleb128 0x1e
 3763 0cbd 01       		.uleb128 0x1
 3764 0cbe 50       		.byte	0x50
 3765 0cbf 02       		.uleb128 0x2
 3766 0cc0 74       		.byte	0x74
 3767 0cc1 00       		.sleb128 0
 3768 0cc2 1E       		.uleb128 0x1e
 3769 0cc3 01       		.uleb128 0x1
 3770 0cc4 51       		.byte	0x51
 3771 0cc5 05       		.uleb128 0x5
 3772 0cc6 03       		.byte	0x3
 3773 0cc7 54010000 		.4byte	.LANCHOR0+340
 3774 0ccb 00       		.byte	0
 3775 0ccc 1D       		.uleb128 0x1d
 3776 0ccd 2A000000 		.4byte	.LVL87
 3777 0cd1 2F160000 		.4byte	0x162f
 3778 0cd5 E00C0000 		.4byte	0xce0
 3779 0cd9 1E       		.uleb128 0x1e
 3780 0cda 01       		.uleb128 0x1
 3781 0cdb 50       		.byte	0x50
ARM GAS  C:\Users\jesse\AppData\Local\Temp\cc9dv931.s 			page 90


 3782 0cdc 02       		.uleb128 0x2
 3783 0cdd 74       		.byte	0x74
 3784 0cde 00       		.sleb128 0
 3785 0cdf 00       		.byte	0
 3786 0ce0 1D       		.uleb128 0x1d
 3787 0ce1 32000000 		.4byte	.LVL88
 3788 0ce5 FF150000 		.4byte	0x15ff
 3789 0ce9 FD0C0000 		.4byte	0xcfd
 3790 0ced 1E       		.uleb128 0x1e
 3791 0cee 01       		.uleb128 0x1
 3792 0cef 50       		.byte	0x50
 3793 0cf0 02       		.uleb128 0x2
 3794 0cf1 74       		.byte	0x74
 3795 0cf2 00       		.sleb128 0
 3796 0cf3 1E       		.uleb128 0x1e
 3797 0cf4 01       		.uleb128 0x1
 3798 0cf5 51       		.byte	0x51
 3799 0cf6 05       		.uleb128 0x5
 3800 0cf7 03       		.byte	0x3
 3801 0cf8 6C010000 		.4byte	.LANCHOR0+364
 3802 0cfc 00       		.byte	0
 3803 0cfd 1D       		.uleb128 0x1d
 3804 0cfe 3E000000 		.4byte	.LVL89
 3805 0d02 FF150000 		.4byte	0x15ff
 3806 0d06 1A0D0000 		.4byte	0xd1a
 3807 0d0a 1E       		.uleb128 0x1e
 3808 0d0b 01       		.uleb128 0x1
 3809 0d0c 50       		.byte	0x50
 3810 0d0d 02       		.uleb128 0x2
 3811 0d0e 74       		.byte	0x74
 3812 0d0f 00       		.sleb128 0
 3813 0d10 1E       		.uleb128 0x1e
 3814 0d11 01       		.uleb128 0x1
 3815 0d12 51       		.byte	0x51
 3816 0d13 05       		.uleb128 0x5
 3817 0d14 03       		.byte	0x3
 3818 0d15 50000000 		.4byte	.LANCHOR0+80
 3819 0d19 00       		.byte	0
 3820 0d1a 1F       		.uleb128 0x1f
 3821 0d1b 4C000000 		.4byte	.LVL90
 3822 0d1f FF150000 		.4byte	0x15ff
 3823 0d23 1E       		.uleb128 0x1e
 3824 0d24 01       		.uleb128 0x1
 3825 0d25 50       		.byte	0x50
 3826 0d26 02       		.uleb128 0x2
 3827 0d27 74       		.byte	0x74
 3828 0d28 00       		.sleb128 0
 3829 0d29 1E       		.uleb128 0x1e
 3830 0d2a 01       		.uleb128 0x1
 3831 0d2b 51       		.byte	0x51
 3832 0d2c 05       		.uleb128 0x5
 3833 0d2d 03       		.byte	0x3
 3834 0d2e 49000000 		.4byte	.LANCHOR0+73
 3835 0d32 00       		.byte	0
 3836 0d33 00       		.byte	0
 3837 0d34 23       		.uleb128 0x23
 3838 0d35 95050000 		.4byte	.LASF77
ARM GAS  C:\Users\jesse\AppData\Local\Temp\cc9dv931.s 			page 91


 3839 0d39 01       		.byte	0x1
 3840 0d3a 2403     		.2byte	0x324
 3841 0d3c 8C000000 		.4byte	0x8c
 3842 0d40 00000000 		.4byte	.LFB9
 3843 0d44 68000000 		.4byte	.LFE9-.LFB9
 3844 0d48 01       		.uleb128 0x1
 3845 0d49 9C       		.byte	0x9c
 3846 0d4a 3A0E0000 		.4byte	0xe3a
 3847 0d4e 24       		.uleb128 0x24
 3848 0d4f F0060000 		.4byte	.LASF65
 3849 0d53 01       		.byte	0x1
 3850 0d54 2403     		.2byte	0x324
 3851 0d56 45030000 		.4byte	0x345
 3852 0d5a 90070000 		.4byte	.LLST47
 3853 0d5e 25       		.uleb128 0x25
 3854 0d5f 6D736700 		.ascii	"msg\000"
 3855 0d63 01       		.byte	0x1
 3856 0d64 2403     		.2byte	0x324
 3857 0d66 8C000000 		.4byte	0x8c
 3858 0d6a BC070000 		.4byte	.LLST48
 3859 0d6e 24       		.uleb128 0x24
 3860 0d6f CA030000 		.4byte	.LASF66
 3861 0d73 01       		.byte	0x1
 3862 0d74 2403     		.2byte	0x324
 3863 0d76 8C000000 		.4byte	0x8c
 3864 0d7a DD070000 		.4byte	.LLST49
 3865 0d7e 24       		.uleb128 0x24
 3866 0d7f 23080000 		.4byte	.LASF67
 3867 0d83 01       		.byte	0x1
 3868 0d84 2403     		.2byte	0x324
 3869 0d86 AD000000 		.4byte	0xad
 3870 0d8a FE070000 		.4byte	.LLST50
 3871 0d8e 1D       		.uleb128 0x1d
 3872 0d8f 0C000000 		.4byte	.LVL93
 3873 0d93 8C030000 		.4byte	0x38c
 3874 0d97 B50D0000 		.4byte	0xdb5
 3875 0d9b 1E       		.uleb128 0x1e
 3876 0d9c 01       		.uleb128 0x1
 3877 0d9d 50       		.byte	0x50
 3878 0d9e 02       		.uleb128 0x2
 3879 0d9f 74       		.byte	0x74
 3880 0da0 00       		.sleb128 0
 3881 0da1 1E       		.uleb128 0x1e
 3882 0da2 01       		.uleb128 0x1
 3883 0da3 51       		.byte	0x51
 3884 0da4 02       		.uleb128 0x2
 3885 0da5 75       		.byte	0x75
 3886 0da6 00       		.sleb128 0
 3887 0da7 1E       		.uleb128 0x1e
 3888 0da8 01       		.uleb128 0x1
 3889 0da9 52       		.byte	0x52
 3890 0daa 02       		.uleb128 0x2
 3891 0dab 76       		.byte	0x76
 3892 0dac 00       		.sleb128 0
 3893 0dad 1E       		.uleb128 0x1e
 3894 0dae 01       		.uleb128 0x1
 3895 0daf 53       		.byte	0x53
ARM GAS  C:\Users\jesse\AppData\Local\Temp\cc9dv931.s 			page 92


 3896 0db0 03       		.uleb128 0x3
 3897 0db1 F3       		.byte	0xf3
 3898 0db2 01       		.uleb128 0x1
 3899 0db3 53       		.byte	0x53
 3900 0db4 00       		.byte	0
 3901 0db5 1D       		.uleb128 0x1d
 3902 0db6 22000000 		.4byte	.LVL94
 3903 0dba 23160000 		.4byte	0x1623
 3904 0dbe D20D0000 		.4byte	0xdd2
 3905 0dc2 1E       		.uleb128 0x1e
 3906 0dc3 01       		.uleb128 0x1
 3907 0dc4 50       		.byte	0x50
 3908 0dc5 02       		.uleb128 0x2
 3909 0dc6 74       		.byte	0x74
 3910 0dc7 00       		.sleb128 0
 3911 0dc8 1E       		.uleb128 0x1e
 3912 0dc9 01       		.uleb128 0x1
 3913 0dca 51       		.byte	0x51
 3914 0dcb 05       		.uleb128 0x5
 3915 0dcc 03       		.byte	0x3
 3916 0dcd 54010000 		.4byte	.LANCHOR0+340
 3917 0dd1 00       		.byte	0
 3918 0dd2 1D       		.uleb128 0x1d
 3919 0dd3 2A000000 		.4byte	.LVL95
 3920 0dd7 2F160000 		.4byte	0x162f
 3921 0ddb E60D0000 		.4byte	0xde6
 3922 0ddf 1E       		.uleb128 0x1e
 3923 0de0 01       		.uleb128 0x1
 3924 0de1 50       		.byte	0x50
 3925 0de2 02       		.uleb128 0x2
 3926 0de3 74       		.byte	0x74
 3927 0de4 00       		.sleb128 0
 3928 0de5 00       		.byte	0
 3929 0de6 1D       		.uleb128 0x1d
 3930 0de7 32000000 		.4byte	.LVL96
 3931 0deb FF150000 		.4byte	0x15ff
 3932 0def 030E0000 		.4byte	0xe03
 3933 0df3 1E       		.uleb128 0x1e
 3934 0df4 01       		.uleb128 0x1
 3935 0df5 50       		.byte	0x50
 3936 0df6 02       		.uleb128 0x2
 3937 0df7 74       		.byte	0x74
 3938 0df8 00       		.sleb128 0
 3939 0df9 1E       		.uleb128 0x1e
 3940 0dfa 01       		.uleb128 0x1
 3941 0dfb 51       		.byte	0x51
 3942 0dfc 05       		.uleb128 0x5
 3943 0dfd 03       		.byte	0x3
 3944 0dfe 8D010000 		.4byte	.LANCHOR0+397
 3945 0e02 00       		.byte	0
 3946 0e03 1D       		.uleb128 0x1d
 3947 0e04 3E000000 		.4byte	.LVL97
 3948 0e08 FF150000 		.4byte	0x15ff
 3949 0e0c 200E0000 		.4byte	0xe20
 3950 0e10 1E       		.uleb128 0x1e
 3951 0e11 01       		.uleb128 0x1
 3952 0e12 50       		.byte	0x50
ARM GAS  C:\Users\jesse\AppData\Local\Temp\cc9dv931.s 			page 93


 3953 0e13 02       		.uleb128 0x2
 3954 0e14 74       		.byte	0x74
 3955 0e15 00       		.sleb128 0
 3956 0e16 1E       		.uleb128 0x1e
 3957 0e17 01       		.uleb128 0x1
 3958 0e18 51       		.byte	0x51
 3959 0e19 05       		.uleb128 0x5
 3960 0e1a 03       		.byte	0x3
 3961 0e1b D5000000 		.4byte	.LANCHOR0+213
 3962 0e1f 00       		.byte	0
 3963 0e20 1F       		.uleb128 0x1f
 3964 0e21 4C000000 		.4byte	.LVL98
 3965 0e25 FF150000 		.4byte	0x15ff
 3966 0e29 1E       		.uleb128 0x1e
 3967 0e2a 01       		.uleb128 0x1
 3968 0e2b 50       		.byte	0x50
 3969 0e2c 02       		.uleb128 0x2
 3970 0e2d 74       		.byte	0x74
 3971 0e2e 00       		.sleb128 0
 3972 0e2f 1E       		.uleb128 0x1e
 3973 0e30 01       		.uleb128 0x1
 3974 0e31 51       		.byte	0x51
 3975 0e32 05       		.uleb128 0x5
 3976 0e33 03       		.byte	0x3
 3977 0e34 CE000000 		.4byte	.LANCHOR0+206
 3978 0e38 00       		.byte	0
 3979 0e39 00       		.byte	0
 3980 0e3a 23       		.uleb128 0x23
 3981 0e3b 9F090000 		.4byte	.LASF78
 3982 0e3f 01       		.byte	0x1
 3983 0e40 8003     		.2byte	0x380
 3984 0e42 8C000000 		.4byte	0x8c
 3985 0e46 00000000 		.4byte	.LFB10
 3986 0e4a 68000000 		.4byte	.LFE10-.LFB10
 3987 0e4e 01       		.uleb128 0x1
 3988 0e4f 9C       		.byte	0x9c
 3989 0e50 400F0000 		.4byte	0xf40
 3990 0e54 24       		.uleb128 0x24
 3991 0e55 F0060000 		.4byte	.LASF65
 3992 0e59 01       		.byte	0x1
 3993 0e5a 8003     		.2byte	0x380
 3994 0e5c 45030000 		.4byte	0x345
 3995 0e60 1F080000 		.4byte	.LLST51
 3996 0e64 25       		.uleb128 0x25
 3997 0e65 6D736700 		.ascii	"msg\000"
 3998 0e69 01       		.byte	0x1
 3999 0e6a 8003     		.2byte	0x380
 4000 0e6c 8C000000 		.4byte	0x8c
 4001 0e70 4B080000 		.4byte	.LLST52
 4002 0e74 24       		.uleb128 0x24
 4003 0e75 CA030000 		.4byte	.LASF66
 4004 0e79 01       		.byte	0x1
 4005 0e7a 8003     		.2byte	0x380
 4006 0e7c 8C000000 		.4byte	0x8c
 4007 0e80 6C080000 		.4byte	.LLST53
 4008 0e84 24       		.uleb128 0x24
 4009 0e85 23080000 		.4byte	.LASF67
ARM GAS  C:\Users\jesse\AppData\Local\Temp\cc9dv931.s 			page 94


 4010 0e89 01       		.byte	0x1
 4011 0e8a 8003     		.2byte	0x380
 4012 0e8c AD000000 		.4byte	0xad
 4013 0e90 8D080000 		.4byte	.LLST54
 4014 0e94 1D       		.uleb128 0x1d
 4015 0e95 0C000000 		.4byte	.LVL101
 4016 0e99 8C030000 		.4byte	0x38c
 4017 0e9d BB0E0000 		.4byte	0xebb
 4018 0ea1 1E       		.uleb128 0x1e
 4019 0ea2 01       		.uleb128 0x1
 4020 0ea3 50       		.byte	0x50
 4021 0ea4 02       		.uleb128 0x2
 4022 0ea5 74       		.byte	0x74
 4023 0ea6 00       		.sleb128 0
 4024 0ea7 1E       		.uleb128 0x1e
 4025 0ea8 01       		.uleb128 0x1
 4026 0ea9 51       		.byte	0x51
 4027 0eaa 02       		.uleb128 0x2
 4028 0eab 75       		.byte	0x75
 4029 0eac 00       		.sleb128 0
 4030 0ead 1E       		.uleb128 0x1e
 4031 0eae 01       		.uleb128 0x1
 4032 0eaf 52       		.byte	0x52
 4033 0eb0 02       		.uleb128 0x2
 4034 0eb1 76       		.byte	0x76
 4035 0eb2 00       		.sleb128 0
 4036 0eb3 1E       		.uleb128 0x1e
 4037 0eb4 01       		.uleb128 0x1
 4038 0eb5 53       		.byte	0x53
 4039 0eb6 03       		.uleb128 0x3
 4040 0eb7 F3       		.byte	0xf3
 4041 0eb8 01       		.uleb128 0x1
 4042 0eb9 53       		.byte	0x53
 4043 0eba 00       		.byte	0
 4044 0ebb 1D       		.uleb128 0x1d
 4045 0ebc 22000000 		.4byte	.LVL102
 4046 0ec0 23160000 		.4byte	0x1623
 4047 0ec4 D80E0000 		.4byte	0xed8
 4048 0ec8 1E       		.uleb128 0x1e
 4049 0ec9 01       		.uleb128 0x1
 4050 0eca 50       		.byte	0x50
 4051 0ecb 02       		.uleb128 0x2
 4052 0ecc 74       		.byte	0x74
 4053 0ecd 00       		.sleb128 0
 4054 0ece 1E       		.uleb128 0x1e
 4055 0ecf 01       		.uleb128 0x1
 4056 0ed0 51       		.byte	0x51
 4057 0ed1 05       		.uleb128 0x5
 4058 0ed2 03       		.byte	0x3
 4059 0ed3 A8010000 		.4byte	.LANCHOR0+424
 4060 0ed7 00       		.byte	0
 4061 0ed8 1D       		.uleb128 0x1d
 4062 0ed9 2A000000 		.4byte	.LVL103
 4063 0edd 2F160000 		.4byte	0x162f
 4064 0ee1 EC0E0000 		.4byte	0xeec
 4065 0ee5 1E       		.uleb128 0x1e
 4066 0ee6 01       		.uleb128 0x1
ARM GAS  C:\Users\jesse\AppData\Local\Temp\cc9dv931.s 			page 95


 4067 0ee7 50       		.byte	0x50
 4068 0ee8 02       		.uleb128 0x2
 4069 0ee9 74       		.byte	0x74
 4070 0eea 00       		.sleb128 0
 4071 0eeb 00       		.byte	0
 4072 0eec 1D       		.uleb128 0x1d
 4073 0eed 32000000 		.4byte	.LVL104
 4074 0ef1 FF150000 		.4byte	0x15ff
 4075 0ef5 090F0000 		.4byte	0xf09
 4076 0ef9 1E       		.uleb128 0x1e
 4077 0efa 01       		.uleb128 0x1
 4078 0efb 50       		.byte	0x50
 4079 0efc 02       		.uleb128 0x2
 4080 0efd 74       		.byte	0x74
 4081 0efe 00       		.sleb128 0
 4082 0eff 1E       		.uleb128 0x1e
 4083 0f00 01       		.uleb128 0x1
 4084 0f01 51       		.byte	0x51
 4085 0f02 05       		.uleb128 0x5
 4086 0f03 03       		.byte	0x3
 4087 0f04 C0010000 		.4byte	.LANCHOR0+448
 4088 0f08 00       		.byte	0
 4089 0f09 1D       		.uleb128 0x1d
 4090 0f0a 3E000000 		.4byte	.LVL105
 4091 0f0e FF150000 		.4byte	0x15ff
 4092 0f12 260F0000 		.4byte	0xf26
 4093 0f16 1E       		.uleb128 0x1e
 4094 0f17 01       		.uleb128 0x1
 4095 0f18 50       		.byte	0x50
 4096 0f19 02       		.uleb128 0x2
 4097 0f1a 74       		.byte	0x74
 4098 0f1b 00       		.sleb128 0
 4099 0f1c 1E       		.uleb128 0x1e
 4100 0f1d 01       		.uleb128 0x1
 4101 0f1e 51       		.byte	0x51
 4102 0f1f 05       		.uleb128 0x5
 4103 0f20 03       		.byte	0x3
 4104 0f21 50000000 		.4byte	.LANCHOR0+80
 4105 0f25 00       		.byte	0
 4106 0f26 1F       		.uleb128 0x1f
 4107 0f27 4C000000 		.4byte	.LVL106
 4108 0f2b FF150000 		.4byte	0x15ff
 4109 0f2f 1E       		.uleb128 0x1e
 4110 0f30 01       		.uleb128 0x1
 4111 0f31 50       		.byte	0x50
 4112 0f32 02       		.uleb128 0x2
 4113 0f33 74       		.byte	0x74
 4114 0f34 00       		.sleb128 0
 4115 0f35 1E       		.uleb128 0x1e
 4116 0f36 01       		.uleb128 0x1
 4117 0f37 51       		.byte	0x51
 4118 0f38 05       		.uleb128 0x5
 4119 0f39 03       		.byte	0x3
 4120 0f3a 49000000 		.4byte	.LANCHOR0+73
 4121 0f3e 00       		.byte	0
 4122 0f3f 00       		.byte	0
 4123 0f40 23       		.uleb128 0x23
ARM GAS  C:\Users\jesse\AppData\Local\Temp\cc9dv931.s 			page 96


 4124 0f41 15070000 		.4byte	.LASF79
 4125 0f45 01       		.byte	0x1
 4126 0f46 DC03     		.2byte	0x3dc
 4127 0f48 8C000000 		.4byte	0x8c
 4128 0f4c 00000000 		.4byte	.LFB11
 4129 0f50 68000000 		.4byte	.LFE11-.LFB11
 4130 0f54 01       		.uleb128 0x1
 4131 0f55 9C       		.byte	0x9c
 4132 0f56 46100000 		.4byte	0x1046
 4133 0f5a 24       		.uleb128 0x24
 4134 0f5b F0060000 		.4byte	.LASF65
 4135 0f5f 01       		.byte	0x1
 4136 0f60 DC03     		.2byte	0x3dc
 4137 0f62 45030000 		.4byte	0x345
 4138 0f66 AE080000 		.4byte	.LLST55
 4139 0f6a 25       		.uleb128 0x25
 4140 0f6b 6D736700 		.ascii	"msg\000"
 4141 0f6f 01       		.byte	0x1
 4142 0f70 DC03     		.2byte	0x3dc
 4143 0f72 8C000000 		.4byte	0x8c
 4144 0f76 DA080000 		.4byte	.LLST56
 4145 0f7a 24       		.uleb128 0x24
 4146 0f7b CA030000 		.4byte	.LASF66
 4147 0f7f 01       		.byte	0x1
 4148 0f80 DC03     		.2byte	0x3dc
 4149 0f82 8C000000 		.4byte	0x8c
 4150 0f86 FB080000 		.4byte	.LLST57
 4151 0f8a 24       		.uleb128 0x24
 4152 0f8b 23080000 		.4byte	.LASF67
 4153 0f8f 01       		.byte	0x1
 4154 0f90 DC03     		.2byte	0x3dc
 4155 0f92 AD000000 		.4byte	0xad
 4156 0f96 1C090000 		.4byte	.LLST58
 4157 0f9a 1D       		.uleb128 0x1d
 4158 0f9b 0C000000 		.4byte	.LVL109
 4159 0f9f 8C030000 		.4byte	0x38c
 4160 0fa3 C10F0000 		.4byte	0xfc1
 4161 0fa7 1E       		.uleb128 0x1e
 4162 0fa8 01       		.uleb128 0x1
 4163 0fa9 50       		.byte	0x50
 4164 0faa 02       		.uleb128 0x2
 4165 0fab 74       		.byte	0x74
 4166 0fac 00       		.sleb128 0
 4167 0fad 1E       		.uleb128 0x1e
 4168 0fae 01       		.uleb128 0x1
 4169 0faf 51       		.byte	0x51
 4170 0fb0 02       		.uleb128 0x2
 4171 0fb1 75       		.byte	0x75
 4172 0fb2 00       		.sleb128 0
 4173 0fb3 1E       		.uleb128 0x1e
 4174 0fb4 01       		.uleb128 0x1
 4175 0fb5 52       		.byte	0x52
 4176 0fb6 02       		.uleb128 0x2
 4177 0fb7 76       		.byte	0x76
 4178 0fb8 00       		.sleb128 0
 4179 0fb9 1E       		.uleb128 0x1e
 4180 0fba 01       		.uleb128 0x1
ARM GAS  C:\Users\jesse\AppData\Local\Temp\cc9dv931.s 			page 97


 4181 0fbb 53       		.byte	0x53
 4182 0fbc 03       		.uleb128 0x3
 4183 0fbd F3       		.byte	0xf3
 4184 0fbe 01       		.uleb128 0x1
 4185 0fbf 53       		.byte	0x53
 4186 0fc0 00       		.byte	0
 4187 0fc1 1D       		.uleb128 0x1d
 4188 0fc2 22000000 		.4byte	.LVL110
 4189 0fc6 23160000 		.4byte	0x1623
 4190 0fca DE0F0000 		.4byte	0xfde
 4191 0fce 1E       		.uleb128 0x1e
 4192 0fcf 01       		.uleb128 0x1
 4193 0fd0 50       		.byte	0x50
 4194 0fd1 02       		.uleb128 0x2
 4195 0fd2 74       		.byte	0x74
 4196 0fd3 00       		.sleb128 0
 4197 0fd4 1E       		.uleb128 0x1e
 4198 0fd5 01       		.uleb128 0x1
 4199 0fd6 51       		.byte	0x51
 4200 0fd7 05       		.uleb128 0x5
 4201 0fd8 03       		.byte	0x3
 4202 0fd9 E4010000 		.4byte	.LANCHOR0+484
 4203 0fdd 00       		.byte	0
 4204 0fde 1D       		.uleb128 0x1d
 4205 0fdf 2A000000 		.4byte	.LVL111
 4206 0fe3 2F160000 		.4byte	0x162f
 4207 0fe7 F20F0000 		.4byte	0xff2
 4208 0feb 1E       		.uleb128 0x1e
 4209 0fec 01       		.uleb128 0x1
 4210 0fed 50       		.byte	0x50
 4211 0fee 02       		.uleb128 0x2
 4212 0fef 74       		.byte	0x74
 4213 0ff0 00       		.sleb128 0
 4214 0ff1 00       		.byte	0
 4215 0ff2 1D       		.uleb128 0x1d
 4216 0ff3 32000000 		.4byte	.LVL112
 4217 0ff7 FF150000 		.4byte	0x15ff
 4218 0ffb 0F100000 		.4byte	0x100f
 4219 0fff 1E       		.uleb128 0x1e
 4220 1000 01       		.uleb128 0x1
 4221 1001 50       		.byte	0x50
 4222 1002 02       		.uleb128 0x2
 4223 1003 74       		.byte	0x74
 4224 1004 00       		.sleb128 0
 4225 1005 1E       		.uleb128 0x1e
 4226 1006 01       		.uleb128 0x1
 4227 1007 51       		.byte	0x51
 4228 1008 05       		.uleb128 0x5
 4229 1009 03       		.byte	0x3
 4230 100a FC010000 		.4byte	.LANCHOR0+508
 4231 100e 00       		.byte	0
 4232 100f 1D       		.uleb128 0x1d
 4233 1010 3E000000 		.4byte	.LVL113
 4234 1014 FF150000 		.4byte	0x15ff
 4235 1018 2C100000 		.4byte	0x102c
 4236 101c 1E       		.uleb128 0x1e
 4237 101d 01       		.uleb128 0x1
ARM GAS  C:\Users\jesse\AppData\Local\Temp\cc9dv931.s 			page 98


 4238 101e 50       		.byte	0x50
 4239 101f 02       		.uleb128 0x2
 4240 1020 74       		.byte	0x74
 4241 1021 00       		.sleb128 0
 4242 1022 1E       		.uleb128 0x1e
 4243 1023 01       		.uleb128 0x1
 4244 1024 51       		.byte	0x51
 4245 1025 05       		.uleb128 0x5
 4246 1026 03       		.byte	0x3
 4247 1027 50000000 		.4byte	.LANCHOR0+80
 4248 102b 00       		.byte	0
 4249 102c 1F       		.uleb128 0x1f
 4250 102d 4C000000 		.4byte	.LVL114
 4251 1031 FF150000 		.4byte	0x15ff
 4252 1035 1E       		.uleb128 0x1e
 4253 1036 01       		.uleb128 0x1
 4254 1037 50       		.byte	0x50
 4255 1038 02       		.uleb128 0x2
 4256 1039 74       		.byte	0x74
 4257 103a 00       		.sleb128 0
 4258 103b 1E       		.uleb128 0x1e
 4259 103c 01       		.uleb128 0x1
 4260 103d 51       		.byte	0x51
 4261 103e 05       		.uleb128 0x5
 4262 103f 03       		.byte	0x3
 4263 1040 49000000 		.4byte	.LANCHOR0+73
 4264 1044 00       		.byte	0
 4265 1045 00       		.byte	0
 4266 1046 23       		.uleb128 0x23
 4267 1047 74070000 		.4byte	.LASF80
 4268 104b 01       		.byte	0x1
 4269 104c 3C04     		.2byte	0x43c
 4270 104e 8C000000 		.4byte	0x8c
 4271 1052 00000000 		.4byte	.LFB12
 4272 1056 68000000 		.4byte	.LFE12-.LFB12
 4273 105a 01       		.uleb128 0x1
 4274 105b 9C       		.byte	0x9c
 4275 105c 4C110000 		.4byte	0x114c
 4276 1060 24       		.uleb128 0x24
 4277 1061 F0060000 		.4byte	.LASF65
 4278 1065 01       		.byte	0x1
 4279 1066 3C04     		.2byte	0x43c
 4280 1068 45030000 		.4byte	0x345
 4281 106c 3D090000 		.4byte	.LLST59
 4282 1070 25       		.uleb128 0x25
 4283 1071 6D736700 		.ascii	"msg\000"
 4284 1075 01       		.byte	0x1
 4285 1076 3C04     		.2byte	0x43c
 4286 1078 8C000000 		.4byte	0x8c
 4287 107c 69090000 		.4byte	.LLST60
 4288 1080 24       		.uleb128 0x24
 4289 1081 CA030000 		.4byte	.LASF66
 4290 1085 01       		.byte	0x1
 4291 1086 3C04     		.2byte	0x43c
 4292 1088 8C000000 		.4byte	0x8c
 4293 108c 8A090000 		.4byte	.LLST61
 4294 1090 24       		.uleb128 0x24
ARM GAS  C:\Users\jesse\AppData\Local\Temp\cc9dv931.s 			page 99


 4295 1091 23080000 		.4byte	.LASF67
 4296 1095 01       		.byte	0x1
 4297 1096 3C04     		.2byte	0x43c
 4298 1098 AD000000 		.4byte	0xad
 4299 109c AB090000 		.4byte	.LLST62
 4300 10a0 1D       		.uleb128 0x1d
 4301 10a1 0C000000 		.4byte	.LVL117
 4302 10a5 8C030000 		.4byte	0x38c
 4303 10a9 C7100000 		.4byte	0x10c7
 4304 10ad 1E       		.uleb128 0x1e
 4305 10ae 01       		.uleb128 0x1
 4306 10af 50       		.byte	0x50
 4307 10b0 02       		.uleb128 0x2
 4308 10b1 74       		.byte	0x74
 4309 10b2 00       		.sleb128 0
 4310 10b3 1E       		.uleb128 0x1e
 4311 10b4 01       		.uleb128 0x1
 4312 10b5 51       		.byte	0x51
 4313 10b6 02       		.uleb128 0x2
 4314 10b7 75       		.byte	0x75
 4315 10b8 00       		.sleb128 0
 4316 10b9 1E       		.uleb128 0x1e
 4317 10ba 01       		.uleb128 0x1
 4318 10bb 52       		.byte	0x52
 4319 10bc 02       		.uleb128 0x2
 4320 10bd 76       		.byte	0x76
 4321 10be 00       		.sleb128 0
 4322 10bf 1E       		.uleb128 0x1e
 4323 10c0 01       		.uleb128 0x1
 4324 10c1 53       		.byte	0x53
 4325 10c2 03       		.uleb128 0x3
 4326 10c3 F3       		.byte	0xf3
 4327 10c4 01       		.uleb128 0x1
 4328 10c5 53       		.byte	0x53
 4329 10c6 00       		.byte	0
 4330 10c7 1D       		.uleb128 0x1d
 4331 10c8 22000000 		.4byte	.LVL118
 4332 10cc 23160000 		.4byte	0x1623
 4333 10d0 E4100000 		.4byte	0x10e4
 4334 10d4 1E       		.uleb128 0x1e
 4335 10d5 01       		.uleb128 0x1
 4336 10d6 50       		.byte	0x50
 4337 10d7 02       		.uleb128 0x2
 4338 10d8 74       		.byte	0x74
 4339 10d9 00       		.sleb128 0
 4340 10da 1E       		.uleb128 0x1e
 4341 10db 01       		.uleb128 0x1
 4342 10dc 51       		.byte	0x51
 4343 10dd 05       		.uleb128 0x5
 4344 10de 03       		.byte	0x3
 4345 10df E4010000 		.4byte	.LANCHOR0+484
 4346 10e3 00       		.byte	0
 4347 10e4 1D       		.uleb128 0x1d
 4348 10e5 2A000000 		.4byte	.LVL119
 4349 10e9 2F160000 		.4byte	0x162f
 4350 10ed F8100000 		.4byte	0x10f8
 4351 10f1 1E       		.uleb128 0x1e
ARM GAS  C:\Users\jesse\AppData\Local\Temp\cc9dv931.s 			page 100


 4352 10f2 01       		.uleb128 0x1
 4353 10f3 50       		.byte	0x50
 4354 10f4 02       		.uleb128 0x2
 4355 10f5 74       		.byte	0x74
 4356 10f6 00       		.sleb128 0
 4357 10f7 00       		.byte	0
 4358 10f8 1D       		.uleb128 0x1d
 4359 10f9 32000000 		.4byte	.LVL120
 4360 10fd FF150000 		.4byte	0x15ff
 4361 1101 15110000 		.4byte	0x1115
 4362 1105 1E       		.uleb128 0x1e
 4363 1106 01       		.uleb128 0x1
 4364 1107 50       		.byte	0x50
 4365 1108 02       		.uleb128 0x2
 4366 1109 74       		.byte	0x74
 4367 110a 00       		.sleb128 0
 4368 110b 1E       		.uleb128 0x1e
 4369 110c 01       		.uleb128 0x1
 4370 110d 51       		.byte	0x51
 4371 110e 05       		.uleb128 0x5
 4372 110f 03       		.byte	0x3
 4373 1110 1D020000 		.4byte	.LANCHOR0+541
 4374 1114 00       		.byte	0
 4375 1115 1D       		.uleb128 0x1d
 4376 1116 3E000000 		.4byte	.LVL121
 4377 111a FF150000 		.4byte	0x15ff
 4378 111e 32110000 		.4byte	0x1132
 4379 1122 1E       		.uleb128 0x1e
 4380 1123 01       		.uleb128 0x1
 4381 1124 50       		.byte	0x50
 4382 1125 02       		.uleb128 0x2
 4383 1126 74       		.byte	0x74
 4384 1127 00       		.sleb128 0
 4385 1128 1E       		.uleb128 0x1e
 4386 1129 01       		.uleb128 0x1
 4387 112a 51       		.byte	0x51
 4388 112b 05       		.uleb128 0x5
 4389 112c 03       		.byte	0x3
 4390 112d 50000000 		.4byte	.LANCHOR0+80
 4391 1131 00       		.byte	0
 4392 1132 1F       		.uleb128 0x1f
 4393 1133 4C000000 		.4byte	.LVL122
 4394 1137 FF150000 		.4byte	0x15ff
 4395 113b 1E       		.uleb128 0x1e
 4396 113c 01       		.uleb128 0x1
 4397 113d 50       		.byte	0x50
 4398 113e 02       		.uleb128 0x2
 4399 113f 74       		.byte	0x74
 4400 1140 00       		.sleb128 0
 4401 1141 1E       		.uleb128 0x1e
 4402 1142 01       		.uleb128 0x1
 4403 1143 51       		.byte	0x51
 4404 1144 05       		.uleb128 0x5
 4405 1145 03       		.byte	0x3
 4406 1146 49000000 		.4byte	.LANCHOR0+73
 4407 114a 00       		.byte	0
 4408 114b 00       		.byte	0
ARM GAS  C:\Users\jesse\AppData\Local\Temp\cc9dv931.s 			page 101


 4409 114c 23       		.uleb128 0x23
 4410 114d 9F060000 		.4byte	.LASF81
 4411 1151 01       		.byte	0x1
 4412 1152 8304     		.2byte	0x483
 4413 1154 8C000000 		.4byte	0x8c
 4414 1158 00000000 		.4byte	.LFB13
 4415 115c 68000000 		.4byte	.LFE13-.LFB13
 4416 1160 01       		.uleb128 0x1
 4417 1161 9C       		.byte	0x9c
 4418 1162 52120000 		.4byte	0x1252
 4419 1166 24       		.uleb128 0x24
 4420 1167 F0060000 		.4byte	.LASF65
 4421 116b 01       		.byte	0x1
 4422 116c 8304     		.2byte	0x483
 4423 116e 45030000 		.4byte	0x345
 4424 1172 CC090000 		.4byte	.LLST63
 4425 1176 25       		.uleb128 0x25
 4426 1177 6D736700 		.ascii	"msg\000"
 4427 117b 01       		.byte	0x1
 4428 117c 8304     		.2byte	0x483
 4429 117e 8C000000 		.4byte	0x8c
 4430 1182 F8090000 		.4byte	.LLST64
 4431 1186 24       		.uleb128 0x24
 4432 1187 CA030000 		.4byte	.LASF66
 4433 118b 01       		.byte	0x1
 4434 118c 8304     		.2byte	0x483
 4435 118e 8C000000 		.4byte	0x8c
 4436 1192 190A0000 		.4byte	.LLST65
 4437 1196 24       		.uleb128 0x24
 4438 1197 23080000 		.4byte	.LASF67
 4439 119b 01       		.byte	0x1
 4440 119c 8304     		.2byte	0x483
 4441 119e AD000000 		.4byte	0xad
 4442 11a2 3A0A0000 		.4byte	.LLST66
 4443 11a6 1D       		.uleb128 0x1d
 4444 11a7 0C000000 		.4byte	.LVL125
 4445 11ab 8C030000 		.4byte	0x38c
 4446 11af CD110000 		.4byte	0x11cd
 4447 11b3 1E       		.uleb128 0x1e
 4448 11b4 01       		.uleb128 0x1
 4449 11b5 50       		.byte	0x50
 4450 11b6 02       		.uleb128 0x2
 4451 11b7 74       		.byte	0x74
 4452 11b8 00       		.sleb128 0
 4453 11b9 1E       		.uleb128 0x1e
 4454 11ba 01       		.uleb128 0x1
 4455 11bb 51       		.byte	0x51
 4456 11bc 02       		.uleb128 0x2
 4457 11bd 75       		.byte	0x75
 4458 11be 00       		.sleb128 0
 4459 11bf 1E       		.uleb128 0x1e
 4460 11c0 01       		.uleb128 0x1
 4461 11c1 52       		.byte	0x52
 4462 11c2 02       		.uleb128 0x2
 4463 11c3 76       		.byte	0x76
 4464 11c4 00       		.sleb128 0
 4465 11c5 1E       		.uleb128 0x1e
ARM GAS  C:\Users\jesse\AppData\Local\Temp\cc9dv931.s 			page 102


 4466 11c6 01       		.uleb128 0x1
 4467 11c7 53       		.byte	0x53
 4468 11c8 03       		.uleb128 0x3
 4469 11c9 F3       		.byte	0xf3
 4470 11ca 01       		.uleb128 0x1
 4471 11cb 53       		.byte	0x53
 4472 11cc 00       		.byte	0
 4473 11cd 1D       		.uleb128 0x1d
 4474 11ce 22000000 		.4byte	.LVL126
 4475 11d2 23160000 		.4byte	0x1623
 4476 11d6 EA110000 		.4byte	0x11ea
 4477 11da 1E       		.uleb128 0x1e
 4478 11db 01       		.uleb128 0x1
 4479 11dc 50       		.byte	0x50
 4480 11dd 02       		.uleb128 0x2
 4481 11de 74       		.byte	0x74
 4482 11df 00       		.sleb128 0
 4483 11e0 1E       		.uleb128 0x1e
 4484 11e1 01       		.uleb128 0x1
 4485 11e2 51       		.byte	0x51
 4486 11e3 05       		.uleb128 0x5
 4487 11e4 03       		.byte	0x3
 4488 11e5 54010000 		.4byte	.LANCHOR0+340
 4489 11e9 00       		.byte	0
 4490 11ea 1D       		.uleb128 0x1d
 4491 11eb 2A000000 		.4byte	.LVL127
 4492 11ef 2F160000 		.4byte	0x162f
 4493 11f3 FE110000 		.4byte	0x11fe
 4494 11f7 1E       		.uleb128 0x1e
 4495 11f8 01       		.uleb128 0x1
 4496 11f9 50       		.byte	0x50
 4497 11fa 02       		.uleb128 0x2
 4498 11fb 74       		.byte	0x74
 4499 11fc 00       		.sleb128 0
 4500 11fd 00       		.byte	0
 4501 11fe 1D       		.uleb128 0x1d
 4502 11ff 32000000 		.4byte	.LVL128
 4503 1203 FF150000 		.4byte	0x15ff
 4504 1207 1B120000 		.4byte	0x121b
 4505 120b 1E       		.uleb128 0x1e
 4506 120c 01       		.uleb128 0x1
 4507 120d 50       		.byte	0x50
 4508 120e 02       		.uleb128 0x2
 4509 120f 74       		.byte	0x74
 4510 1210 00       		.sleb128 0
 4511 1211 1E       		.uleb128 0x1e
 4512 1212 01       		.uleb128 0x1
 4513 1213 51       		.byte	0x51
 4514 1214 05       		.uleb128 0x5
 4515 1215 03       		.byte	0x3
 4516 1216 3E020000 		.4byte	.LANCHOR0+574
 4517 121a 00       		.byte	0
 4518 121b 1D       		.uleb128 0x1d
 4519 121c 3E000000 		.4byte	.LVL129
 4520 1220 FF150000 		.4byte	0x15ff
 4521 1224 38120000 		.4byte	0x1238
 4522 1228 1E       		.uleb128 0x1e
ARM GAS  C:\Users\jesse\AppData\Local\Temp\cc9dv931.s 			page 103


 4523 1229 01       		.uleb128 0x1
 4524 122a 50       		.byte	0x50
 4525 122b 02       		.uleb128 0x2
 4526 122c 74       		.byte	0x74
 4527 122d 00       		.sleb128 0
 4528 122e 1E       		.uleb128 0x1e
 4529 122f 01       		.uleb128 0x1
 4530 1230 51       		.byte	0x51
 4531 1231 05       		.uleb128 0x5
 4532 1232 03       		.byte	0x3
 4533 1233 50000000 		.4byte	.LANCHOR0+80
 4534 1237 00       		.byte	0
 4535 1238 1F       		.uleb128 0x1f
 4536 1239 4C000000 		.4byte	.LVL130
 4537 123d FF150000 		.4byte	0x15ff
 4538 1241 1E       		.uleb128 0x1e
 4539 1242 01       		.uleb128 0x1
 4540 1243 50       		.byte	0x50
 4541 1244 02       		.uleb128 0x2
 4542 1245 74       		.byte	0x74
 4543 1246 00       		.sleb128 0
 4544 1247 1E       		.uleb128 0x1e
 4545 1248 01       		.uleb128 0x1
 4546 1249 51       		.byte	0x51
 4547 124a 05       		.uleb128 0x5
 4548 124b 03       		.byte	0x3
 4549 124c 49000000 		.4byte	.LANCHOR0+73
 4550 1250 00       		.byte	0
 4551 1251 00       		.byte	0
 4552 1252 23       		.uleb128 0x23
 4553 1253 DD040000 		.4byte	.LASF82
 4554 1257 01       		.byte	0x1
 4555 1258 E104     		.2byte	0x4e1
 4556 125a 8C000000 		.4byte	0x8c
 4557 125e 00000000 		.4byte	.LFB14
 4558 1262 68000000 		.4byte	.LFE14-.LFB14
 4559 1266 01       		.uleb128 0x1
 4560 1267 9C       		.byte	0x9c
 4561 1268 58130000 		.4byte	0x1358
 4562 126c 24       		.uleb128 0x24
 4563 126d F0060000 		.4byte	.LASF65
 4564 1271 01       		.byte	0x1
 4565 1272 E104     		.2byte	0x4e1
 4566 1274 45030000 		.4byte	0x345
 4567 1278 5B0A0000 		.4byte	.LLST67
 4568 127c 25       		.uleb128 0x25
 4569 127d 6D736700 		.ascii	"msg\000"
 4570 1281 01       		.byte	0x1
 4571 1282 E104     		.2byte	0x4e1
 4572 1284 8C000000 		.4byte	0x8c
 4573 1288 870A0000 		.4byte	.LLST68
 4574 128c 24       		.uleb128 0x24
 4575 128d CA030000 		.4byte	.LASF66
 4576 1291 01       		.byte	0x1
 4577 1292 E104     		.2byte	0x4e1
 4578 1294 8C000000 		.4byte	0x8c
 4579 1298 A80A0000 		.4byte	.LLST69
ARM GAS  C:\Users\jesse\AppData\Local\Temp\cc9dv931.s 			page 104


 4580 129c 24       		.uleb128 0x24
 4581 129d 23080000 		.4byte	.LASF67
 4582 12a1 01       		.byte	0x1
 4583 12a2 E104     		.2byte	0x4e1
 4584 12a4 AD000000 		.4byte	0xad
 4585 12a8 C90A0000 		.4byte	.LLST70
 4586 12ac 1D       		.uleb128 0x1d
 4587 12ad 0C000000 		.4byte	.LVL133
 4588 12b1 8C030000 		.4byte	0x38c
 4589 12b5 D3120000 		.4byte	0x12d3
 4590 12b9 1E       		.uleb128 0x1e
 4591 12ba 01       		.uleb128 0x1
 4592 12bb 50       		.byte	0x50
 4593 12bc 02       		.uleb128 0x2
 4594 12bd 74       		.byte	0x74
 4595 12be 00       		.sleb128 0
 4596 12bf 1E       		.uleb128 0x1e
 4597 12c0 01       		.uleb128 0x1
 4598 12c1 51       		.byte	0x51
 4599 12c2 02       		.uleb128 0x2
 4600 12c3 75       		.byte	0x75
 4601 12c4 00       		.sleb128 0
 4602 12c5 1E       		.uleb128 0x1e
 4603 12c6 01       		.uleb128 0x1
 4604 12c7 52       		.byte	0x52
 4605 12c8 02       		.uleb128 0x2
 4606 12c9 76       		.byte	0x76
 4607 12ca 00       		.sleb128 0
 4608 12cb 1E       		.uleb128 0x1e
 4609 12cc 01       		.uleb128 0x1
 4610 12cd 53       		.byte	0x53
 4611 12ce 03       		.uleb128 0x3
 4612 12cf F3       		.byte	0xf3
 4613 12d0 01       		.uleb128 0x1
 4614 12d1 53       		.byte	0x53
 4615 12d2 00       		.byte	0
 4616 12d3 1D       		.uleb128 0x1d
 4617 12d4 22000000 		.4byte	.LVL134
 4618 12d8 23160000 		.4byte	0x1623
 4619 12dc F0120000 		.4byte	0x12f0
 4620 12e0 1E       		.uleb128 0x1e
 4621 12e1 01       		.uleb128 0x1
 4622 12e2 50       		.byte	0x50
 4623 12e3 02       		.uleb128 0x2
 4624 12e4 74       		.byte	0x74
 4625 12e5 00       		.sleb128 0
 4626 12e6 1E       		.uleb128 0x1e
 4627 12e7 01       		.uleb128 0x1
 4628 12e8 51       		.byte	0x51
 4629 12e9 05       		.uleb128 0x5
 4630 12ea 03       		.byte	0x3
 4631 12eb 5C020000 		.4byte	.LANCHOR0+604
 4632 12ef 00       		.byte	0
 4633 12f0 1D       		.uleb128 0x1d
 4634 12f1 2A000000 		.4byte	.LVL135
 4635 12f5 2F160000 		.4byte	0x162f
 4636 12f9 04130000 		.4byte	0x1304
ARM GAS  C:\Users\jesse\AppData\Local\Temp\cc9dv931.s 			page 105


 4637 12fd 1E       		.uleb128 0x1e
 4638 12fe 01       		.uleb128 0x1
 4639 12ff 50       		.byte	0x50
 4640 1300 02       		.uleb128 0x2
 4641 1301 74       		.byte	0x74
 4642 1302 00       		.sleb128 0
 4643 1303 00       		.byte	0
 4644 1304 1D       		.uleb128 0x1d
 4645 1305 32000000 		.4byte	.LVL136
 4646 1309 FF150000 		.4byte	0x15ff
 4647 130d 21130000 		.4byte	0x1321
 4648 1311 1E       		.uleb128 0x1e
 4649 1312 01       		.uleb128 0x1
 4650 1313 50       		.byte	0x50
 4651 1314 02       		.uleb128 0x2
 4652 1315 74       		.byte	0x74
 4653 1316 00       		.sleb128 0
 4654 1317 1E       		.uleb128 0x1e
 4655 1318 01       		.uleb128 0x1
 4656 1319 51       		.byte	0x51
 4657 131a 05       		.uleb128 0x5
 4658 131b 03       		.byte	0x3
 4659 131c 74020000 		.4byte	.LANCHOR0+628
 4660 1320 00       		.byte	0
 4661 1321 1D       		.uleb128 0x1d
 4662 1322 3E000000 		.4byte	.LVL137
 4663 1326 FF150000 		.4byte	0x15ff
 4664 132a 3E130000 		.4byte	0x133e
 4665 132e 1E       		.uleb128 0x1e
 4666 132f 01       		.uleb128 0x1
 4667 1330 50       		.byte	0x50
 4668 1331 02       		.uleb128 0x2
 4669 1332 74       		.byte	0x74
 4670 1333 00       		.sleb128 0
 4671 1334 1E       		.uleb128 0x1e
 4672 1335 01       		.uleb128 0x1
 4673 1336 51       		.byte	0x51
 4674 1337 05       		.uleb128 0x5
 4675 1338 03       		.byte	0x3
 4676 1339 49000000 		.4byte	.LANCHOR0+73
 4677 133d 00       		.byte	0
 4678 133e 1F       		.uleb128 0x1f
 4679 133f 4C000000 		.4byte	.LVL138
 4680 1343 FF150000 		.4byte	0x15ff
 4681 1347 1E       		.uleb128 0x1e
 4682 1348 01       		.uleb128 0x1
 4683 1349 50       		.byte	0x50
 4684 134a 02       		.uleb128 0x2
 4685 134b 74       		.byte	0x74
 4686 134c 00       		.sleb128 0
 4687 134d 1E       		.uleb128 0x1e
 4688 134e 01       		.uleb128 0x1
 4689 134f 51       		.byte	0x51
 4690 1350 05       		.uleb128 0x5
 4691 1351 03       		.byte	0x3
 4692 1352 50000000 		.4byte	.LANCHOR0+80
 4693 1356 00       		.byte	0
ARM GAS  C:\Users\jesse\AppData\Local\Temp\cc9dv931.s 			page 106


 4694 1357 00       		.byte	0
 4695 1358 27       		.uleb128 0x27
 4696 1359 87030000 		.4byte	0x387
 4697 135d 68130000 		.4byte	0x1368
 4698 1361 28       		.uleb128 0x28
 4699 1362 68130000 		.4byte	0x1368
 4700 1366 06       		.byte	0x6
 4701 1367 00       		.byte	0
 4702 1368 02       		.uleb128 0x2
 4703 1369 04       		.byte	0x4
 4704 136a 07       		.byte	0x7
 4705 136b D4050000 		.4byte	.LASF83
 4706 136f 29       		.uleb128 0x29
 4707 1370 5E050000 		.4byte	.LASF84
 4708 1374 01       		.byte	0x1
 4709 1375 2B       		.byte	0x2b
 4710 1376 80130000 		.4byte	0x1380
 4711 137a 05       		.uleb128 0x5
 4712 137b 03       		.byte	0x3
 4713 137c 00000000 		.4byte	u8x8_d_st7565_powersave0_seq
 4714 1380 0E       		.uleb128 0xe
 4715 1381 58130000 		.4byte	0x1358
 4716 1385 29       		.uleb128 0x29
 4717 1386 1F020000 		.4byte	.LASF85
 4718 138a 01       		.byte	0x1
 4719 138b 33       		.byte	0x33
 4720 138c 96130000 		.4byte	0x1396
 4721 1390 05       		.uleb128 0x5
 4722 1391 03       		.byte	0x3
 4723 1392 07000000 		.4byte	u8x8_d_st7565_powersave1_seq
 4724 1396 0E       		.uleb128 0xe
 4725 1397 58130000 		.4byte	0x1358
 4726 139b 29       		.uleb128 0x29
 4727 139c BC050000 		.4byte	.LASF86
 4728 13a0 01       		.byte	0x1
 4729 13a1 3B       		.byte	0x3b
 4730 13a2 AC130000 		.4byte	0x13ac
 4731 13a6 05       		.uleb128 0x5
 4732 13a7 03       		.byte	0x3
 4733 13a8 49000000 		.4byte	u8x8_d_st7565_flip0_seq
 4734 13ac 0E       		.uleb128 0xe
 4735 13ad 58130000 		.4byte	0x1358
 4736 13b1 29       		.uleb128 0x29
 4737 13b2 E5000000 		.4byte	.LASF87
 4738 13b6 01       		.byte	0x1
 4739 13b7 43       		.byte	0x43
 4740 13b8 C2130000 		.4byte	0x13c2
 4741 13bc 05       		.uleb128 0x5
 4742 13bd 03       		.byte	0x3
 4743 13be 50000000 		.4byte	u8x8_d_st7565_flip1_seq
 4744 13c2 0E       		.uleb128 0xe
 4745 13c3 58130000 		.4byte	0x1358
 4746 13c7 29       		.uleb128 0x29
 4747 13c8 93080000 		.4byte	.LASF88
 4748 13cc 01       		.byte	0x1
 4749 13cd 4B       		.byte	0x4b
 4750 13ce D8130000 		.4byte	0x13d8
ARM GAS  C:\Users\jesse\AppData\Local\Temp\cc9dv931.s 			page 107


 4751 13d2 05       		.uleb128 0x5
 4752 13d3 03       		.byte	0x3
 4753 13d4 CE000000 		.4byte	u8x8_d_st7565_zflip0_seq
 4754 13d8 0E       		.uleb128 0xe
 4755 13d9 58130000 		.4byte	0x1358
 4756 13dd 29       		.uleb128 0x29
 4757 13de 14040000 		.4byte	.LASF89
 4758 13e2 01       		.byte	0x1
 4759 13e3 53       		.byte	0x53
 4760 13e4 EE130000 		.4byte	0x13ee
 4761 13e8 05       		.uleb128 0x5
 4762 13e9 03       		.byte	0x3
 4763 13ea D5000000 		.4byte	u8x8_d_st7565_zflip1_seq
 4764 13ee 0E       		.uleb128 0xe
 4765 13ef 58130000 		.4byte	0x1358
 4766 13f3 29       		.uleb128 0x29
 4767 13f4 4C040000 		.4byte	.LASF90
 4768 13f8 01       		.byte	0x1
 4769 13f9 5B       		.byte	0x5b
 4770 13fa 7C030000 		.4byte	0x37c
 4771 13fe 05       		.uleb128 0x5
 4772 13ff 03       		.byte	0x3
 4773 1400 10000000 		.4byte	u8x8_st7565_128x64_display_info
 4774 1404 27       		.uleb128 0x27
 4775 1405 87030000 		.4byte	0x387
 4776 1409 14140000 		.4byte	0x1414
 4777 140d 28       		.uleb128 0x28
 4778 140e 68130000 		.4byte	0x1368
 4779 1412 20       		.byte	0x20
 4780 1413 00       		.byte	0
 4781 1414 29       		.uleb128 0x29
 4782 1415 36090000 		.4byte	.LASF91
 4783 1419 01       		.byte	0x1
 4784 141a B8       		.byte	0xb8
 4785 141b 25140000 		.4byte	0x1425
 4786 141f 05       		.uleb128 0x5
 4787 1420 03       		.byte	0x3
 4788 1421 28000000 		.4byte	u8x8_d_st7565_dogm128_init_seq
 4789 1425 0E       		.uleb128 0xe
 4790 1426 04140000 		.4byte	0x1404
 4791 142a 29       		.uleb128 0x29
 4792 142b 0E0A0000 		.4byte	.LASF92
 4793 142f 01       		.byte	0x1
 4794 1430 FB       		.byte	0xfb
 4795 1431 3B140000 		.4byte	0x143b
 4796 1435 05       		.uleb128 0x5
 4797 1436 03       		.byte	0x3
 4798 1437 57000000 		.4byte	u8x8_d_st7565_lm6063_init_seq
 4799 143b 0E       		.uleb128 0xe
 4800 143c 04140000 		.4byte	0x1404
 4801 1440 27       		.uleb128 0x27
 4802 1441 87030000 		.4byte	0x387
 4803 1445 50140000 		.4byte	0x1450
 4804 1449 28       		.uleb128 0x28
 4805 144a 68130000 		.4byte	0x1368
 4806 144e 1C       		.byte	0x1c
 4807 144f 00       		.byte	0
ARM GAS  C:\Users\jesse\AppData\Local\Temp\cc9dv931.s 			page 108


 4808 1450 2A       		.uleb128 0x2a
 4809 1451 6C040000 		.4byte	.LASF93
 4810 1455 01       		.byte	0x1
 4811 1456 3D01     		.2byte	0x13d
 4812 1458 62140000 		.4byte	0x1462
 4813 145c 05       		.uleb128 0x5
 4814 145d 03       		.byte	0x3
 4815 145e 90000000 		.4byte	u8x8_d_st7565_64128n_init_seq
 4816 1462 0E       		.uleb128 0xe
 4817 1463 40140000 		.4byte	0x1440
 4818 1467 2A       		.uleb128 0x2a
 4819 1468 6E090000 		.4byte	.LASF94
 4820 146c 01       		.byte	0x1
 4821 146d 7B01     		.2byte	0x17b
 4822 146f 7C030000 		.4byte	0x37c
 4823 1473 05       		.uleb128 0x5
 4824 1474 03       		.byte	0x3
 4825 1475 78000000 		.4byte	u8x8_st7565_64128n_display_info
 4826 1479 2A       		.uleb128 0x2a
 4827 147a F0030000 		.4byte	.LASF95
 4828 147e 01       		.byte	0x1
 4829 147f B801     		.2byte	0x1b8
 4830 1481 8B140000 		.4byte	0x148b
 4831 1485 05       		.uleb128 0x5
 4832 1486 03       		.byte	0x3
 4833 1487 AD000000 		.4byte	u8x8_d_st7565_zolen_128x64_init_seq
 4834 148b 0E       		.uleb128 0xe
 4835 148c 04140000 		.4byte	0x1404
 4836 1490 2A       		.uleb128 0x2a
 4837 1491 F5060000 		.4byte	.LASF96
 4838 1495 01       		.byte	0x1
 4839 1496 FB01     		.2byte	0x1fb
 4840 1498 7C030000 		.4byte	0x37c
 4841 149c 05       		.uleb128 0x5
 4842 149d 03       		.byte	0x3
 4843 149e DC000000 		.4byte	u8x8_st7565_128x32_display_info
 4844 14a2 2A       		.uleb128 0x2a
 4845 14a3 C4060000 		.4byte	.LASF97
 4846 14a7 01       		.byte	0x1
 4847 14a8 1402     		.2byte	0x214
 4848 14aa B4140000 		.4byte	0x14b4
 4849 14ae 05       		.uleb128 0x5
 4850 14af 03       		.byte	0x3
 4851 14b0 F4000000 		.4byte	u8x8_d_st7565_nhd_c12832_init_seq
 4852 14b4 0E       		.uleb128 0xe
 4853 14b5 04140000 		.4byte	0x1404
 4854 14b9 2A       		.uleb128 0x2a
 4855 14ba F6040000 		.4byte	.LASF98
 4856 14be 01       		.byte	0x1
 4857 14bf 5502     		.2byte	0x255
 4858 14c1 7C030000 		.4byte	0x37c
 4859 14c5 05       		.uleb128 0x5
 4860 14c6 03       		.byte	0x3
 4861 14c7 18010000 		.4byte	u8x8_st7565_nhd_c12864_display_info
 4862 14cb 2A       		.uleb128 0x2a
 4863 14cc 47060000 		.4byte	.LASF99
 4864 14d0 01       		.byte	0x1
ARM GAS  C:\Users\jesse\AppData\Local\Temp\cc9dv931.s 			page 109


 4865 14d1 6E02     		.2byte	0x26e
 4866 14d3 DD140000 		.4byte	0x14dd
 4867 14d7 05       		.uleb128 0x5
 4868 14d8 03       		.byte	0x3
 4869 14d9 30010000 		.4byte	u8x8_d_st7565_nhd_c12864_init_seq
 4870 14dd 0E       		.uleb128 0xe
 4871 14de 04140000 		.4byte	0x1404
 4872 14e2 2A       		.uleb128 0x2a
 4873 14e3 05060000 		.4byte	.LASF100
 4874 14e7 01       		.byte	0x1
 4875 14e8 B702     		.2byte	0x2b7
 4876 14ea F4140000 		.4byte	0x14f4
 4877 14ee 05       		.uleb128 0x5
 4878 14ef 03       		.byte	0x3
 4879 14f0 6C010000 		.4byte	u8x8_d_st7565_lm6059_init_seq
 4880 14f4 0E       		.uleb128 0xe
 4881 14f5 04140000 		.4byte	0x1404
 4882 14f9 2A       		.uleb128 0x2a
 4883 14fa D1010000 		.4byte	.LASF101
 4884 14fe 01       		.byte	0x1
 4885 14ff D502     		.2byte	0x2d5
 4886 1501 7C030000 		.4byte	0x37c
 4887 1505 05       		.uleb128 0x5
 4888 1506 03       		.byte	0x3
 4889 1507 54010000 		.4byte	u8x8_st7565_lm6059_display_info
 4890 150b 27       		.uleb128 0x27
 4891 150c 87030000 		.4byte	0x387
 4892 1510 1B150000 		.4byte	0x151b
 4893 1514 28       		.uleb128 0x28
 4894 1515 68130000 		.4byte	0x1368
 4895 1519 18       		.byte	0x18
 4896 151a 00       		.byte	0
 4897 151b 2A       		.uleb128 0x2a
 4898 151c 75060000 		.4byte	.LASF102
 4899 1520 01       		.byte	0x1
 4900 1521 1303     		.2byte	0x313
 4901 1523 2D150000 		.4byte	0x152d
 4902 1527 05       		.uleb128 0x5
 4903 1528 03       		.byte	0x3
 4904 1529 8D010000 		.4byte	u8x8_d_st7565_ks0713_init_seq
 4905 152d 0E       		.uleb128 0xe
 4906 152e 0B150000 		.4byte	0x150b
 4907 1532 2A       		.uleb128 0x2a
 4908 1533 D5090000 		.4byte	.LASF103
 4909 1537 01       		.byte	0x1
 4910 1538 4A03     		.2byte	0x34a
 4911 153a 44150000 		.4byte	0x1544
 4912 153e 05       		.uleb128 0x5
 4913 153f 03       		.byte	0x3
 4914 1540 C0010000 		.4byte	u8x8_d_st7565_lx12864_init_seq
 4915 1544 0E       		.uleb128 0xe
 4916 1545 04140000 		.4byte	0x1404
 4917 1549 2A       		.uleb128 0x2a
 4918 154a 5E080000 		.4byte	.LASF104
 4919 154e 01       		.byte	0x1
 4920 154f 6803     		.2byte	0x368
 4921 1551 7C030000 		.4byte	0x37c
ARM GAS  C:\Users\jesse\AppData\Local\Temp\cc9dv931.s 			page 110


 4922 1555 05       		.uleb128 0x5
 4923 1556 03       		.byte	0x3
 4924 1557 A8010000 		.4byte	u8x8_st7565_lx12864_display_info
 4925 155b 2A       		.uleb128 0x2a
 4926 155c B5090000 		.4byte	.LASF105
 4927 1560 01       		.byte	0x1
 4928 1561 A603     		.2byte	0x3a6
 4929 1563 6D150000 		.4byte	0x156d
 4930 1567 05       		.uleb128 0x5
 4931 1568 03       		.byte	0x3
 4932 1569 FC010000 		.4byte	u8x8_d_st7565_erc12864_init_seq
 4933 156d 0E       		.uleb128 0xe
 4934 156e 04140000 		.4byte	0x1404
 4935 1572 2A       		.uleb128 0x2a
 4936 1573 A5000000 		.4byte	.LASF106
 4937 1577 01       		.byte	0x1
 4938 1578 C403     		.2byte	0x3c4
 4939 157a 7C030000 		.4byte	0x37c
 4940 157e 05       		.uleb128 0x5
 4941 157f 03       		.byte	0x3
 4942 1580 E4010000 		.4byte	u8x8_st7565_erc12864_display_info
 4943 1584 2A       		.uleb128 0x2a
 4944 1585 8B020000 		.4byte	.LASF107
 4945 1589 01       		.byte	0x1
 4946 158a 0404     		.2byte	0x404
 4947 158c 96150000 		.4byte	0x1596
 4948 1590 05       		.uleb128 0x5
 4949 1591 03       		.byte	0x3
 4950 1592 1D020000 		.4byte	u8x8_d_st7565_erc12864_alt_init_seq
 4951 1596 0E       		.uleb128 0xe
 4952 1597 04140000 		.4byte	0x1404
 4953 159b 2A       		.uleb128 0x2a
 4954 159c B8080000 		.4byte	.LASF108
 4955 15a0 01       		.byte	0x1
 4956 15a1 6704     		.2byte	0x467
 4957 15a3 AD150000 		.4byte	0x15ad
 4958 15a7 05       		.uleb128 0x5
 4959 15a8 03       		.byte	0x3
 4960 15a9 3E020000 		.4byte	u8x8_d_nt7534_tg12864r_init_seq
 4961 15ad 0E       		.uleb128 0xe
 4962 15ae 40140000 		.4byte	0x1440
 4963 15b2 2A       		.uleb128 0x2a
 4964 15b3 D8080000 		.4byte	.LASF109
 4965 15b7 01       		.byte	0x1
 4966 15b8 AC04     		.2byte	0x4ac
 4967 15ba 7C030000 		.4byte	0x37c
 4968 15be 05       		.uleb128 0x5
 4969 15bf 03       		.byte	0x3
 4970 15c0 5C020000 		.4byte	u8x8_st7565_dogm132_display_info
 4971 15c4 2A       		.uleb128 0x2a
 4972 15c5 2D040000 		.4byte	.LASF110
 4973 15c9 01       		.byte	0x1
 4974 15ca C504     		.2byte	0x4c5
 4975 15cc D6150000 		.4byte	0x15d6
 4976 15d0 05       		.uleb128 0x5
 4977 15d1 03       		.byte	0x3
 4978 15d2 74020000 		.4byte	u8x8_d_st7565_dogm132_init_seq
ARM GAS  C:\Users\jesse\AppData\Local\Temp\cc9dv931.s 			page 111


 4979 15d6 0E       		.uleb128 0xe
 4980 15d7 04140000 		.4byte	0x1404
 4981 15db 2B       		.uleb128 0x2b
 4982 15dc 5D070000 		.4byte	.LASF111
 4983 15e0 5D070000 		.4byte	.LASF111
 4984 15e4 04       		.byte	0x4
 4985 15e5 7102     		.2byte	0x271
 4986 15e7 2B       		.uleb128 0x2b
 4987 15e8 25090000 		.4byte	.LASF112
 4988 15ec 25090000 		.4byte	.LASF112
 4989 15f0 04       		.byte	0x4
 4990 15f1 6D02     		.2byte	0x26d
 4991 15f3 2B       		.uleb128 0x2b
 4992 15f4 8A040000 		.4byte	.LASF113
 4993 15f8 8A040000 		.4byte	.LASF113
 4994 15fc 04       		.byte	0x4
 4995 15fd 7002     		.2byte	0x270
 4996 15ff 2B       		.uleb128 0x2b
 4997 1600 45020000 		.4byte	.LASF114
 4998 1604 45020000 		.4byte	.LASF114
 4999 1608 04       		.byte	0x4
 5000 1609 9102     		.2byte	0x291
 5001 160b 2B       		.uleb128 0x2b
 5002 160c 8E090000 		.4byte	.LASF115
 5003 1610 8E090000 		.4byte	.LASF115
 5004 1614 04       		.byte	0x4
 5005 1615 6E02     		.2byte	0x26e
 5006 1617 2B       		.uleb128 0x2b
 5007 1618 BE070000 		.4byte	.LASF116
 5008 161c BE070000 		.4byte	.LASF116
 5009 1620 04       		.byte	0x4
 5010 1621 7202     		.2byte	0x272
 5011 1623 2B       		.uleb128 0x2b
 5012 1624 74030000 		.4byte	.LASF117
 5013 1628 74030000 		.4byte	.LASF117
 5014 162c 04       		.byte	0x4
 5015 162d B401     		.2byte	0x1b4
 5016 162f 2B       		.uleb128 0x2b
 5017 1630 2C060000 		.4byte	.LASF118
 5018 1634 2C060000 		.4byte	.LASF118
 5019 1638 04       		.byte	0x4
 5020 1639 B501     		.2byte	0x1b5
 5021 163b 00       		.byte	0
 5022              		.section	.debug_abbrev,"",%progbits
 5023              	.Ldebug_abbrev0:
 5024 0000 01       		.uleb128 0x1
 5025 0001 11       		.uleb128 0x11
 5026 0002 01       		.byte	0x1
 5027 0003 25       		.uleb128 0x25
 5028 0004 0E       		.uleb128 0xe
 5029 0005 13       		.uleb128 0x13
 5030 0006 0B       		.uleb128 0xb
 5031 0007 03       		.uleb128 0x3
 5032 0008 0E       		.uleb128 0xe
 5033 0009 1B       		.uleb128 0x1b
 5034 000a 0E       		.uleb128 0xe
 5035 000b 55       		.uleb128 0x55
ARM GAS  C:\Users\jesse\AppData\Local\Temp\cc9dv931.s 			page 112


 5036 000c 17       		.uleb128 0x17
 5037 000d 11       		.uleb128 0x11
 5038 000e 01       		.uleb128 0x1
 5039 000f 10       		.uleb128 0x10
 5040 0010 17       		.uleb128 0x17
 5041 0011 00       		.byte	0
 5042 0012 00       		.byte	0
 5043 0013 02       		.uleb128 0x2
 5044 0014 24       		.uleb128 0x24
 5045 0015 00       		.byte	0
 5046 0016 0B       		.uleb128 0xb
 5047 0017 0B       		.uleb128 0xb
 5048 0018 3E       		.uleb128 0x3e
 5049 0019 0B       		.uleb128 0xb
 5050 001a 03       		.uleb128 0x3
 5051 001b 0E       		.uleb128 0xe
 5052 001c 00       		.byte	0
 5053 001d 00       		.byte	0
 5054 001e 03       		.uleb128 0x3
 5055 001f 16       		.uleb128 0x16
 5056 0020 00       		.byte	0
 5057 0021 03       		.uleb128 0x3
 5058 0022 0E       		.uleb128 0xe
 5059 0023 3A       		.uleb128 0x3a
 5060 0024 0B       		.uleb128 0xb
 5061 0025 3B       		.uleb128 0x3b
 5062 0026 0B       		.uleb128 0xb
 5063 0027 49       		.uleb128 0x49
 5064 0028 13       		.uleb128 0x13
 5065 0029 00       		.byte	0
 5066 002a 00       		.byte	0
 5067 002b 04       		.uleb128 0x4
 5068 002c 24       		.uleb128 0x24
 5069 002d 00       		.byte	0
 5070 002e 0B       		.uleb128 0xb
 5071 002f 0B       		.uleb128 0xb
 5072 0030 3E       		.uleb128 0x3e
 5073 0031 0B       		.uleb128 0xb
 5074 0032 03       		.uleb128 0x3
 5075 0033 08       		.uleb128 0x8
 5076 0034 00       		.byte	0
 5077 0035 00       		.byte	0
 5078 0036 05       		.uleb128 0x5
 5079 0037 0F       		.uleb128 0xf
 5080 0038 00       		.byte	0
 5081 0039 0B       		.uleb128 0xb
 5082 003a 0B       		.uleb128 0xb
 5083 003b 00       		.byte	0
 5084 003c 00       		.byte	0
 5085 003d 06       		.uleb128 0x6
 5086 003e 13       		.uleb128 0x13
 5087 003f 01       		.byte	0x1
 5088 0040 03       		.uleb128 0x3
 5089 0041 0E       		.uleb128 0xe
 5090 0042 0B       		.uleb128 0xb
 5091 0043 0B       		.uleb128 0xb
 5092 0044 3A       		.uleb128 0x3a
ARM GAS  C:\Users\jesse\AppData\Local\Temp\cc9dv931.s 			page 113


 5093 0045 0B       		.uleb128 0xb
 5094 0046 3B       		.uleb128 0x3b
 5095 0047 05       		.uleb128 0x5
 5096 0048 01       		.uleb128 0x1
 5097 0049 13       		.uleb128 0x13
 5098 004a 00       		.byte	0
 5099 004b 00       		.byte	0
 5100 004c 07       		.uleb128 0x7
 5101 004d 0D       		.uleb128 0xd
 5102 004e 00       		.byte	0
 5103 004f 03       		.uleb128 0x3
 5104 0050 0E       		.uleb128 0xe
 5105 0051 3A       		.uleb128 0x3a
 5106 0052 0B       		.uleb128 0xb
 5107 0053 3B       		.uleb128 0x3b
 5108 0054 05       		.uleb128 0x5
 5109 0055 49       		.uleb128 0x49
 5110 0056 13       		.uleb128 0x13
 5111 0057 38       		.uleb128 0x38
 5112 0058 0B       		.uleb128 0xb
 5113 0059 00       		.byte	0
 5114 005a 00       		.byte	0
 5115 005b 08       		.uleb128 0x8
 5116 005c 13       		.uleb128 0x13
 5117 005d 01       		.byte	0x1
 5118 005e 03       		.uleb128 0x3
 5119 005f 0E       		.uleb128 0xe
 5120 0060 0B       		.uleb128 0xb
 5121 0061 0B       		.uleb128 0xb
 5122 0062 3A       		.uleb128 0x3a
 5123 0063 0B       		.uleb128 0xb
 5124 0064 3B       		.uleb128 0x3b
 5125 0065 0B       		.uleb128 0xb
 5126 0066 01       		.uleb128 0x1
 5127 0067 13       		.uleb128 0x13
 5128 0068 00       		.byte	0
 5129 0069 00       		.byte	0
 5130 006a 09       		.uleb128 0x9
 5131 006b 0D       		.uleb128 0xd
 5132 006c 00       		.byte	0
 5133 006d 03       		.uleb128 0x3
 5134 006e 0E       		.uleb128 0xe
 5135 006f 3A       		.uleb128 0x3a
 5136 0070 0B       		.uleb128 0xb
 5137 0071 3B       		.uleb128 0x3b
 5138 0072 0B       		.uleb128 0xb
 5139 0073 49       		.uleb128 0x49
 5140 0074 13       		.uleb128 0x13
 5141 0075 38       		.uleb128 0x38
 5142 0076 0B       		.uleb128 0xb
 5143 0077 00       		.byte	0
 5144 0078 00       		.byte	0
 5145 0079 0A       		.uleb128 0xa
 5146 007a 0D       		.uleb128 0xd
 5147 007b 00       		.byte	0
 5148 007c 03       		.uleb128 0x3
 5149 007d 08       		.uleb128 0x8
ARM GAS  C:\Users\jesse\AppData\Local\Temp\cc9dv931.s 			page 114


 5150 007e 3A       		.uleb128 0x3a
 5151 007f 0B       		.uleb128 0xb
 5152 0080 3B       		.uleb128 0x3b
 5153 0081 0B       		.uleb128 0xb
 5154 0082 49       		.uleb128 0x49
 5155 0083 13       		.uleb128 0x13
 5156 0084 38       		.uleb128 0x38
 5157 0085 0B       		.uleb128 0xb
 5158 0086 00       		.byte	0
 5159 0087 00       		.byte	0
 5160 0088 0B       		.uleb128 0xb
 5161 0089 0F       		.uleb128 0xf
 5162 008a 00       		.byte	0
 5163 008b 0B       		.uleb128 0xb
 5164 008c 0B       		.uleb128 0xb
 5165 008d 49       		.uleb128 0x49
 5166 008e 13       		.uleb128 0x13
 5167 008f 00       		.byte	0
 5168 0090 00       		.byte	0
 5169 0091 0C       		.uleb128 0xc
 5170 0092 15       		.uleb128 0x15
 5171 0093 01       		.byte	0x1
 5172 0094 27       		.uleb128 0x27
 5173 0095 19       		.uleb128 0x19
 5174 0096 49       		.uleb128 0x49
 5175 0097 13       		.uleb128 0x13
 5176 0098 01       		.uleb128 0x1
 5177 0099 13       		.uleb128 0x13
 5178 009a 00       		.byte	0
 5179 009b 00       		.byte	0
 5180 009c 0D       		.uleb128 0xd
 5181 009d 05       		.uleb128 0x5
 5182 009e 00       		.byte	0
 5183 009f 49       		.uleb128 0x49
 5184 00a0 13       		.uleb128 0x13
 5185 00a1 00       		.byte	0
 5186 00a2 00       		.byte	0
 5187 00a3 0E       		.uleb128 0xe
 5188 00a4 26       		.uleb128 0x26
 5189 00a5 00       		.byte	0
 5190 00a6 49       		.uleb128 0x49
 5191 00a7 13       		.uleb128 0x13
 5192 00a8 00       		.byte	0
 5193 00a9 00       		.byte	0
 5194 00aa 0F       		.uleb128 0xf
 5195 00ab 2E       		.uleb128 0x2e
 5196 00ac 01       		.byte	0x1
 5197 00ad 3F       		.uleb128 0x3f
 5198 00ae 19       		.uleb128 0x19
 5199 00af 03       		.uleb128 0x3
 5200 00b0 0E       		.uleb128 0xe
 5201 00b1 3A       		.uleb128 0x3a
 5202 00b2 0B       		.uleb128 0xb
 5203 00b3 3B       		.uleb128 0x3b
 5204 00b4 0B       		.uleb128 0xb
 5205 00b5 27       		.uleb128 0x27
 5206 00b6 19       		.uleb128 0x19
ARM GAS  C:\Users\jesse\AppData\Local\Temp\cc9dv931.s 			page 115


 5207 00b7 49       		.uleb128 0x49
 5208 00b8 13       		.uleb128 0x13
 5209 00b9 20       		.uleb128 0x20
 5210 00ba 0B       		.uleb128 0xb
 5211 00bb 01       		.uleb128 0x1
 5212 00bc 13       		.uleb128 0x13
 5213 00bd 00       		.byte	0
 5214 00be 00       		.byte	0
 5215 00bf 10       		.uleb128 0x10
 5216 00c0 05       		.uleb128 0x5
 5217 00c1 00       		.byte	0
 5218 00c2 03       		.uleb128 0x3
 5219 00c3 0E       		.uleb128 0xe
 5220 00c4 3A       		.uleb128 0x3a
 5221 00c5 0B       		.uleb128 0xb
 5222 00c6 3B       		.uleb128 0x3b
 5223 00c7 0B       		.uleb128 0xb
 5224 00c8 49       		.uleb128 0x49
 5225 00c9 13       		.uleb128 0x13
 5226 00ca 00       		.byte	0
 5227 00cb 00       		.byte	0
 5228 00cc 11       		.uleb128 0x11
 5229 00cd 05       		.uleb128 0x5
 5230 00ce 00       		.byte	0
 5231 00cf 03       		.uleb128 0x3
 5232 00d0 08       		.uleb128 0x8
 5233 00d1 3A       		.uleb128 0x3a
 5234 00d2 0B       		.uleb128 0xb
 5235 00d3 3B       		.uleb128 0x3b
 5236 00d4 0B       		.uleb128 0xb
 5237 00d5 49       		.uleb128 0x49
 5238 00d6 13       		.uleb128 0x13
 5239 00d7 00       		.byte	0
 5240 00d8 00       		.byte	0
 5241 00d9 12       		.uleb128 0x12
 5242 00da 34       		.uleb128 0x34
 5243 00db 00       		.byte	0
 5244 00dc 03       		.uleb128 0x3
 5245 00dd 08       		.uleb128 0x8
 5246 00de 3A       		.uleb128 0x3a
 5247 00df 0B       		.uleb128 0xb
 5248 00e0 3B       		.uleb128 0x3b
 5249 00e1 0B       		.uleb128 0xb
 5250 00e2 49       		.uleb128 0x49
 5251 00e3 13       		.uleb128 0x13
 5252 00e4 00       		.byte	0
 5253 00e5 00       		.byte	0
 5254 00e6 13       		.uleb128 0x13
 5255 00e7 2E       		.uleb128 0x2e
 5256 00e8 01       		.byte	0x1
 5257 00e9 3F       		.uleb128 0x3f
 5258 00ea 19       		.uleb128 0x19
 5259 00eb 03       		.uleb128 0x3
 5260 00ec 0E       		.uleb128 0xe
 5261 00ed 3A       		.uleb128 0x3a
 5262 00ee 0B       		.uleb128 0xb
 5263 00ef 3B       		.uleb128 0x3b
ARM GAS  C:\Users\jesse\AppData\Local\Temp\cc9dv931.s 			page 116


 5264 00f0 05       		.uleb128 0x5
 5265 00f1 27       		.uleb128 0x27
 5266 00f2 19       		.uleb128 0x19
 5267 00f3 49       		.uleb128 0x49
 5268 00f4 13       		.uleb128 0x13
 5269 00f5 20       		.uleb128 0x20
 5270 00f6 0B       		.uleb128 0xb
 5271 00f7 01       		.uleb128 0x1
 5272 00f8 13       		.uleb128 0x13
 5273 00f9 00       		.byte	0
 5274 00fa 00       		.byte	0
 5275 00fb 14       		.uleb128 0x14
 5276 00fc 05       		.uleb128 0x5
 5277 00fd 00       		.byte	0
 5278 00fe 03       		.uleb128 0x3
 5279 00ff 0E       		.uleb128 0xe
 5280 0100 3A       		.uleb128 0x3a
 5281 0101 0B       		.uleb128 0xb
 5282 0102 3B       		.uleb128 0x3b
 5283 0103 05       		.uleb128 0x5
 5284 0104 49       		.uleb128 0x49
 5285 0105 13       		.uleb128 0x13
 5286 0106 00       		.byte	0
 5287 0107 00       		.byte	0
 5288 0108 15       		.uleb128 0x15
 5289 0109 05       		.uleb128 0x5
 5290 010a 00       		.byte	0
 5291 010b 03       		.uleb128 0x3
 5292 010c 08       		.uleb128 0x8
 5293 010d 3A       		.uleb128 0x3a
 5294 010e 0B       		.uleb128 0xb
 5295 010f 3B       		.uleb128 0x3b
 5296 0110 05       		.uleb128 0x5
 5297 0111 49       		.uleb128 0x49
 5298 0112 13       		.uleb128 0x13
 5299 0113 00       		.byte	0
 5300 0114 00       		.byte	0
 5301 0115 16       		.uleb128 0x16
 5302 0116 2E       		.uleb128 0x2e
 5303 0117 01       		.byte	0x1
 5304 0118 31       		.uleb128 0x31
 5305 0119 13       		.uleb128 0x13
 5306 011a 11       		.uleb128 0x11
 5307 011b 01       		.uleb128 0x1
 5308 011c 12       		.uleb128 0x12
 5309 011d 06       		.uleb128 0x6
 5310 011e 40       		.uleb128 0x40
 5311 011f 18       		.uleb128 0x18
 5312 0120 9742     		.uleb128 0x2117
 5313 0122 19       		.uleb128 0x19
 5314 0123 01       		.uleb128 0x1
 5315 0124 13       		.uleb128 0x13
 5316 0125 00       		.byte	0
 5317 0126 00       		.byte	0
 5318 0127 17       		.uleb128 0x17
 5319 0128 05       		.uleb128 0x5
 5320 0129 00       		.byte	0
ARM GAS  C:\Users\jesse\AppData\Local\Temp\cc9dv931.s 			page 117


 5321 012a 31       		.uleb128 0x31
 5322 012b 13       		.uleb128 0x13
 5323 012c 02       		.uleb128 0x2
 5324 012d 17       		.uleb128 0x17
 5325 012e 00       		.byte	0
 5326 012f 00       		.byte	0
 5327 0130 18       		.uleb128 0x18
 5328 0131 34       		.uleb128 0x34
 5329 0132 00       		.byte	0
 5330 0133 31       		.uleb128 0x31
 5331 0134 13       		.uleb128 0x13
 5332 0135 00       		.byte	0
 5333 0136 00       		.byte	0
 5334 0137 19       		.uleb128 0x19
 5335 0138 0B       		.uleb128 0xb
 5336 0139 01       		.byte	0x1
 5337 013a 11       		.uleb128 0x11
 5338 013b 01       		.uleb128 0x1
 5339 013c 12       		.uleb128 0x12
 5340 013d 06       		.uleb128 0x6
 5341 013e 01       		.uleb128 0x1
 5342 013f 13       		.uleb128 0x13
 5343 0140 00       		.byte	0
 5344 0141 00       		.byte	0
 5345 0142 1A       		.uleb128 0x1a
 5346 0143 0B       		.uleb128 0xb
 5347 0144 01       		.byte	0x1
 5348 0145 11       		.uleb128 0x11
 5349 0146 01       		.uleb128 0x1
 5350 0147 12       		.uleb128 0x12
 5351 0148 06       		.uleb128 0x6
 5352 0149 00       		.byte	0
 5353 014a 00       		.byte	0
 5354 014b 1B       		.uleb128 0x1b
 5355 014c 34       		.uleb128 0x34
 5356 014d 00       		.byte	0
 5357 014e 31       		.uleb128 0x31
 5358 014f 13       		.uleb128 0x13
 5359 0150 02       		.uleb128 0x2
 5360 0151 17       		.uleb128 0x17
 5361 0152 00       		.byte	0
 5362 0153 00       		.byte	0
 5363 0154 1C       		.uleb128 0x1c
 5364 0155 898201   		.uleb128 0x4109
 5365 0158 00       		.byte	0
 5366 0159 11       		.uleb128 0x11
 5367 015a 01       		.uleb128 0x1
 5368 015b 31       		.uleb128 0x31
 5369 015c 13       		.uleb128 0x13
 5370 015d 00       		.byte	0
 5371 015e 00       		.byte	0
 5372 015f 1D       		.uleb128 0x1d
 5373 0160 898201   		.uleb128 0x4109
 5374 0163 01       		.byte	0x1
 5375 0164 11       		.uleb128 0x11
 5376 0165 01       		.uleb128 0x1
 5377 0166 31       		.uleb128 0x31
ARM GAS  C:\Users\jesse\AppData\Local\Temp\cc9dv931.s 			page 118


 5378 0167 13       		.uleb128 0x13
 5379 0168 01       		.uleb128 0x1
 5380 0169 13       		.uleb128 0x13
 5381 016a 00       		.byte	0
 5382 016b 00       		.byte	0
 5383 016c 1E       		.uleb128 0x1e
 5384 016d 8A8201   		.uleb128 0x410a
 5385 0170 00       		.byte	0
 5386 0171 02       		.uleb128 0x2
 5387 0172 18       		.uleb128 0x18
 5388 0173 9142     		.uleb128 0x2111
 5389 0175 18       		.uleb128 0x18
 5390 0176 00       		.byte	0
 5391 0177 00       		.byte	0
 5392 0178 1F       		.uleb128 0x1f
 5393 0179 898201   		.uleb128 0x4109
 5394 017c 01       		.byte	0x1
 5395 017d 11       		.uleb128 0x11
 5396 017e 01       		.uleb128 0x1
 5397 017f 31       		.uleb128 0x31
 5398 0180 13       		.uleb128 0x13
 5399 0181 00       		.byte	0
 5400 0182 00       		.byte	0
 5401 0183 20       		.uleb128 0x20
 5402 0184 2E       		.uleb128 0x2e
 5403 0185 01       		.byte	0x1
 5404 0186 3F       		.uleb128 0x3f
 5405 0187 19       		.uleb128 0x19
 5406 0188 03       		.uleb128 0x3
 5407 0189 0E       		.uleb128 0xe
 5408 018a 3A       		.uleb128 0x3a
 5409 018b 0B       		.uleb128 0xb
 5410 018c 3B       		.uleb128 0x3b
 5411 018d 0B       		.uleb128 0xb
 5412 018e 27       		.uleb128 0x27
 5413 018f 19       		.uleb128 0x19
 5414 0190 49       		.uleb128 0x49
 5415 0191 13       		.uleb128 0x13
 5416 0192 11       		.uleb128 0x11
 5417 0193 01       		.uleb128 0x1
 5418 0194 12       		.uleb128 0x12
 5419 0195 06       		.uleb128 0x6
 5420 0196 40       		.uleb128 0x40
 5421 0197 18       		.uleb128 0x18
 5422 0198 9742     		.uleb128 0x2117
 5423 019a 19       		.uleb128 0x19
 5424 019b 01       		.uleb128 0x1
 5425 019c 13       		.uleb128 0x13
 5426 019d 00       		.byte	0
 5427 019e 00       		.byte	0
 5428 019f 21       		.uleb128 0x21
 5429 01a0 05       		.uleb128 0x5
 5430 01a1 00       		.byte	0
 5431 01a2 03       		.uleb128 0x3
 5432 01a3 0E       		.uleb128 0xe
 5433 01a4 3A       		.uleb128 0x3a
 5434 01a5 0B       		.uleb128 0xb
ARM GAS  C:\Users\jesse\AppData\Local\Temp\cc9dv931.s 			page 119


 5435 01a6 3B       		.uleb128 0x3b
 5436 01a7 0B       		.uleb128 0xb
 5437 01a8 49       		.uleb128 0x49
 5438 01a9 13       		.uleb128 0x13
 5439 01aa 02       		.uleb128 0x2
 5440 01ab 17       		.uleb128 0x17
 5441 01ac 00       		.byte	0
 5442 01ad 00       		.byte	0
 5443 01ae 22       		.uleb128 0x22
 5444 01af 05       		.uleb128 0x5
 5445 01b0 00       		.byte	0
 5446 01b1 03       		.uleb128 0x3
 5447 01b2 08       		.uleb128 0x8
 5448 01b3 3A       		.uleb128 0x3a
 5449 01b4 0B       		.uleb128 0xb
 5450 01b5 3B       		.uleb128 0x3b
 5451 01b6 0B       		.uleb128 0xb
 5452 01b7 49       		.uleb128 0x49
 5453 01b8 13       		.uleb128 0x13
 5454 01b9 02       		.uleb128 0x2
 5455 01ba 17       		.uleb128 0x17
 5456 01bb 00       		.byte	0
 5457 01bc 00       		.byte	0
 5458 01bd 23       		.uleb128 0x23
 5459 01be 2E       		.uleb128 0x2e
 5460 01bf 01       		.byte	0x1
 5461 01c0 3F       		.uleb128 0x3f
 5462 01c1 19       		.uleb128 0x19
 5463 01c2 03       		.uleb128 0x3
 5464 01c3 0E       		.uleb128 0xe
 5465 01c4 3A       		.uleb128 0x3a
 5466 01c5 0B       		.uleb128 0xb
 5467 01c6 3B       		.uleb128 0x3b
 5468 01c7 05       		.uleb128 0x5
 5469 01c8 27       		.uleb128 0x27
 5470 01c9 19       		.uleb128 0x19
 5471 01ca 49       		.uleb128 0x49
 5472 01cb 13       		.uleb128 0x13
 5473 01cc 11       		.uleb128 0x11
 5474 01cd 01       		.uleb128 0x1
 5475 01ce 12       		.uleb128 0x12
 5476 01cf 06       		.uleb128 0x6
 5477 01d0 40       		.uleb128 0x40
 5478 01d1 18       		.uleb128 0x18
 5479 01d2 9742     		.uleb128 0x2117
 5480 01d4 19       		.uleb128 0x19
 5481 01d5 01       		.uleb128 0x1
 5482 01d6 13       		.uleb128 0x13
 5483 01d7 00       		.byte	0
 5484 01d8 00       		.byte	0
 5485 01d9 24       		.uleb128 0x24
 5486 01da 05       		.uleb128 0x5
 5487 01db 00       		.byte	0
 5488 01dc 03       		.uleb128 0x3
 5489 01dd 0E       		.uleb128 0xe
 5490 01de 3A       		.uleb128 0x3a
 5491 01df 0B       		.uleb128 0xb
ARM GAS  C:\Users\jesse\AppData\Local\Temp\cc9dv931.s 			page 120


 5492 01e0 3B       		.uleb128 0x3b
 5493 01e1 05       		.uleb128 0x5
 5494 01e2 49       		.uleb128 0x49
 5495 01e3 13       		.uleb128 0x13
 5496 01e4 02       		.uleb128 0x2
 5497 01e5 17       		.uleb128 0x17
 5498 01e6 00       		.byte	0
 5499 01e7 00       		.byte	0
 5500 01e8 25       		.uleb128 0x25
 5501 01e9 05       		.uleb128 0x5
 5502 01ea 00       		.byte	0
 5503 01eb 03       		.uleb128 0x3
 5504 01ec 08       		.uleb128 0x8
 5505 01ed 3A       		.uleb128 0x3a
 5506 01ee 0B       		.uleb128 0xb
 5507 01ef 3B       		.uleb128 0x3b
 5508 01f0 05       		.uleb128 0x5
 5509 01f1 49       		.uleb128 0x49
 5510 01f2 13       		.uleb128 0x13
 5511 01f3 02       		.uleb128 0x2
 5512 01f4 17       		.uleb128 0x17
 5513 01f5 00       		.byte	0
 5514 01f6 00       		.byte	0
 5515 01f7 26       		.uleb128 0x26
 5516 01f8 898201   		.uleb128 0x4109
 5517 01fb 01       		.byte	0x1
 5518 01fc 11       		.uleb128 0x11
 5519 01fd 01       		.uleb128 0x1
 5520 01fe 9542     		.uleb128 0x2115
 5521 0200 19       		.uleb128 0x19
 5522 0201 31       		.uleb128 0x31
 5523 0202 13       		.uleb128 0x13
 5524 0203 00       		.byte	0
 5525 0204 00       		.byte	0
 5526 0205 27       		.uleb128 0x27
 5527 0206 01       		.uleb128 0x1
 5528 0207 01       		.byte	0x1
 5529 0208 49       		.uleb128 0x49
 5530 0209 13       		.uleb128 0x13
 5531 020a 01       		.uleb128 0x1
 5532 020b 13       		.uleb128 0x13
 5533 020c 00       		.byte	0
 5534 020d 00       		.byte	0
 5535 020e 28       		.uleb128 0x28
 5536 020f 21       		.uleb128 0x21
 5537 0210 00       		.byte	0
 5538 0211 49       		.uleb128 0x49
 5539 0212 13       		.uleb128 0x13
 5540 0213 2F       		.uleb128 0x2f
 5541 0214 0B       		.uleb128 0xb
 5542 0215 00       		.byte	0
 5543 0216 00       		.byte	0
 5544 0217 29       		.uleb128 0x29
 5545 0218 34       		.uleb128 0x34
 5546 0219 00       		.byte	0
 5547 021a 03       		.uleb128 0x3
 5548 021b 0E       		.uleb128 0xe
ARM GAS  C:\Users\jesse\AppData\Local\Temp\cc9dv931.s 			page 121


 5549 021c 3A       		.uleb128 0x3a
 5550 021d 0B       		.uleb128 0xb
 5551 021e 3B       		.uleb128 0x3b
 5552 021f 0B       		.uleb128 0xb
 5553 0220 49       		.uleb128 0x49
 5554 0221 13       		.uleb128 0x13
 5555 0222 02       		.uleb128 0x2
 5556 0223 18       		.uleb128 0x18
 5557 0224 00       		.byte	0
 5558 0225 00       		.byte	0
 5559 0226 2A       		.uleb128 0x2a
 5560 0227 34       		.uleb128 0x34
 5561 0228 00       		.byte	0
 5562 0229 03       		.uleb128 0x3
 5563 022a 0E       		.uleb128 0xe
 5564 022b 3A       		.uleb128 0x3a
 5565 022c 0B       		.uleb128 0xb
 5566 022d 3B       		.uleb128 0x3b
 5567 022e 05       		.uleb128 0x5
 5568 022f 49       		.uleb128 0x49
 5569 0230 13       		.uleb128 0x13
 5570 0231 02       		.uleb128 0x2
 5571 0232 18       		.uleb128 0x18
 5572 0233 00       		.byte	0
 5573 0234 00       		.byte	0
 5574 0235 2B       		.uleb128 0x2b
 5575 0236 2E       		.uleb128 0x2e
 5576 0237 00       		.byte	0
 5577 0238 3F       		.uleb128 0x3f
 5578 0239 19       		.uleb128 0x19
 5579 023a 3C       		.uleb128 0x3c
 5580 023b 19       		.uleb128 0x19
 5581 023c 6E       		.uleb128 0x6e
 5582 023d 0E       		.uleb128 0xe
 5583 023e 03       		.uleb128 0x3
 5584 023f 0E       		.uleb128 0xe
 5585 0240 3A       		.uleb128 0x3a
 5586 0241 0B       		.uleb128 0xb
 5587 0242 3B       		.uleb128 0x3b
 5588 0243 05       		.uleb128 0x5
 5589 0244 00       		.byte	0
 5590 0245 00       		.byte	0
 5591 0246 00       		.byte	0
 5592              		.section	.debug_loc,"",%progbits
 5593              	.Ldebug_loc0:
 5594              	.LLST0:
 5595 0000 00000000 		.4byte	.LVL0
 5596 0004 1B000000 		.4byte	.LVL2-1
 5597 0008 0100     		.2byte	0x1
 5598 000a 50       		.byte	0x50
 5599 000b 1B000000 		.4byte	.LVL2-1
 5600 000f 7C000000 		.4byte	.LVL19
 5601 0013 0100     		.2byte	0x1
 5602 0015 56       		.byte	0x56
 5603 0016 7C000000 		.4byte	.LVL19
 5604 001a 87000000 		.4byte	.LVL23-1
 5605 001e 0100     		.2byte	0x1
ARM GAS  C:\Users\jesse\AppData\Local\Temp\cc9dv931.s 			page 122


 5606 0020 50       		.byte	0x50
 5607 0021 87000000 		.4byte	.LVL23-1
 5608 0025 8E000000 		.4byte	.LVL24
 5609 0029 0100     		.2byte	0x1
 5610 002b 56       		.byte	0x56
 5611 002c 8E000000 		.4byte	.LVL24
 5612 0030 91000000 		.4byte	.LVL25-1
 5613 0034 0100     		.2byte	0x1
 5614 0036 50       		.byte	0x50
 5615 0037 91000000 		.4byte	.LVL25-1
 5616 003b AA000000 		.4byte	.LVL29
 5617 003f 0100     		.2byte	0x1
 5618 0041 56       		.byte	0x56
 5619 0042 AA000000 		.4byte	.LVL29
 5620 0046 AC000000 		.4byte	.LVL30
 5621 004a 0100     		.2byte	0x1
 5622 004c 50       		.byte	0x50
 5623 004d AC000000 		.4byte	.LVL30
 5624 0051 B0000000 		.4byte	.LVL31
 5625 0055 0100     		.2byte	0x1
 5626 0057 56       		.byte	0x56
 5627 0058 B0000000 		.4byte	.LVL31
 5628 005c B8000000 		.4byte	.LFE0
 5629 0060 0400     		.2byte	0x4
 5630 0062 F3       		.byte	0xf3
 5631 0063 01       		.uleb128 0x1
 5632 0064 50       		.byte	0x50
 5633 0065 9F       		.byte	0x9f
 5634 0066 00000000 		.4byte	0
 5635 006a 00000000 		.4byte	0
 5636              	.LLST1:
 5637 006e 00000000 		.4byte	.LVL0
 5638 0072 1B000000 		.4byte	.LVL2-1
 5639 0076 0100     		.2byte	0x1
 5640 0078 51       		.byte	0x51
 5641 0079 1B000000 		.4byte	.LVL2-1
 5642 007d 7C000000 		.4byte	.LVL19
 5643 0081 0400     		.2byte	0x4
 5644 0083 F3       		.byte	0xf3
 5645 0084 01       		.uleb128 0x1
 5646 0085 51       		.byte	0x51
 5647 0086 9F       		.byte	0x9f
 5648 0087 7C000000 		.4byte	.LVL19
 5649 008b 80000000 		.4byte	.LVL20
 5650 008f 0100     		.2byte	0x1
 5651 0091 51       		.byte	0x51
 5652 0092 80000000 		.4byte	.LVL20
 5653 0096 82000000 		.4byte	.LVL21
 5654 009a 0400     		.2byte	0x4
 5655 009c F3       		.byte	0xf3
 5656 009d 01       		.uleb128 0x1
 5657 009e 51       		.byte	0x51
 5658 009f 9F       		.byte	0x9f
 5659 00a0 82000000 		.4byte	.LVL21
 5660 00a4 84000000 		.4byte	.LVL22
 5661 00a8 0100     		.2byte	0x1
 5662 00aa 51       		.byte	0x51
ARM GAS  C:\Users\jesse\AppData\Local\Temp\cc9dv931.s 			page 123


 5663 00ab 84000000 		.4byte	.LVL22
 5664 00af 8E000000 		.4byte	.LVL24
 5665 00b3 0400     		.2byte	0x4
 5666 00b5 F3       		.byte	0xf3
 5667 00b6 01       		.uleb128 0x1
 5668 00b7 51       		.byte	0x51
 5669 00b8 9F       		.byte	0x9f
 5670 00b9 8E000000 		.4byte	.LVL24
 5671 00bd 91000000 		.4byte	.LVL25-1
 5672 00c1 0100     		.2byte	0x1
 5673 00c3 51       		.byte	0x51
 5674 00c4 91000000 		.4byte	.LVL25-1
 5675 00c8 AA000000 		.4byte	.LVL29
 5676 00cc 0400     		.2byte	0x4
 5677 00ce F3       		.byte	0xf3
 5678 00cf 01       		.uleb128 0x1
 5679 00d0 51       		.byte	0x51
 5680 00d1 9F       		.byte	0x9f
 5681 00d2 AA000000 		.4byte	.LVL29
 5682 00d6 B8000000 		.4byte	.LFE0
 5683 00da 0100     		.2byte	0x1
 5684 00dc 51       		.byte	0x51
 5685 00dd 00000000 		.4byte	0
 5686 00e1 00000000 		.4byte	0
 5687              	.LLST2:
 5688 00e5 00000000 		.4byte	.LVL0
 5689 00e9 1B000000 		.4byte	.LVL2-1
 5690 00ed 0100     		.2byte	0x1
 5691 00ef 52       		.byte	0x52
 5692 00f0 1B000000 		.4byte	.LVL2-1
 5693 00f4 7C000000 		.4byte	.LVL19
 5694 00f8 0400     		.2byte	0x4
 5695 00fa F3       		.byte	0xf3
 5696 00fb 01       		.uleb128 0x1
 5697 00fc 52       		.byte	0x52
 5698 00fd 9F       		.byte	0x9f
 5699 00fe 7C000000 		.4byte	.LVL19
 5700 0102 87000000 		.4byte	.LVL23-1
 5701 0106 0100     		.2byte	0x1
 5702 0108 52       		.byte	0x52
 5703 0109 87000000 		.4byte	.LVL23-1
 5704 010d 8E000000 		.4byte	.LVL24
 5705 0111 0400     		.2byte	0x4
 5706 0113 F3       		.byte	0xf3
 5707 0114 01       		.uleb128 0x1
 5708 0115 52       		.byte	0x52
 5709 0116 9F       		.byte	0x9f
 5710 0117 8E000000 		.4byte	.LVL24
 5711 011b 91000000 		.4byte	.LVL25-1
 5712 011f 0100     		.2byte	0x1
 5713 0121 52       		.byte	0x52
 5714 0122 91000000 		.4byte	.LVL25-1
 5715 0126 AA000000 		.4byte	.LVL29
 5716 012a 0400     		.2byte	0x4
 5717 012c F3       		.byte	0xf3
 5718 012d 01       		.uleb128 0x1
 5719 012e 52       		.byte	0x52
ARM GAS  C:\Users\jesse\AppData\Local\Temp\cc9dv931.s 			page 124


 5720 012f 9F       		.byte	0x9f
 5721 0130 AA000000 		.4byte	.LVL29
 5722 0134 B8000000 		.4byte	.LFE0
 5723 0138 0100     		.2byte	0x1
 5724 013a 52       		.byte	0x52
 5725 013b 00000000 		.4byte	0
 5726 013f 00000000 		.4byte	0
 5727              	.LLST3:
 5728 0143 00000000 		.4byte	.LVL0
 5729 0147 1B000000 		.4byte	.LVL2-1
 5730 014b 0100     		.2byte	0x1
 5731 014d 53       		.byte	0x53
 5732 014e 1B000000 		.4byte	.LVL2-1
 5733 0152 58000000 		.4byte	.LVL10
 5734 0156 0100     		.2byte	0x1
 5735 0158 58       		.byte	0x58
 5736 0159 58000000 		.4byte	.LVL10
 5737 015d 7C000000 		.4byte	.LVL19
 5738 0161 0400     		.2byte	0x4
 5739 0163 F3       		.byte	0xf3
 5740 0164 01       		.uleb128 0x1
 5741 0165 53       		.byte	0x53
 5742 0166 9F       		.byte	0x9f
 5743 0167 7C000000 		.4byte	.LVL19
 5744 016b 87000000 		.4byte	.LVL23-1
 5745 016f 0100     		.2byte	0x1
 5746 0171 53       		.byte	0x53
 5747 0172 87000000 		.4byte	.LVL23-1
 5748 0176 88000000 		.4byte	.LVL23
 5749 017a 0100     		.2byte	0x1
 5750 017c 58       		.byte	0x58
 5751 017d 88000000 		.4byte	.LVL23
 5752 0181 8E000000 		.4byte	.LVL24
 5753 0185 0400     		.2byte	0x4
 5754 0187 F3       		.byte	0xf3
 5755 0188 01       		.uleb128 0x1
 5756 0189 53       		.byte	0x53
 5757 018a 9F       		.byte	0x9f
 5758 018b 8E000000 		.4byte	.LVL24
 5759 018f 91000000 		.4byte	.LVL25-1
 5760 0193 0100     		.2byte	0x1
 5761 0195 53       		.byte	0x53
 5762 0196 91000000 		.4byte	.LVL25-1
 5763 019a A2000000 		.4byte	.LVL27
 5764 019e 0100     		.2byte	0x1
 5765 01a0 58       		.byte	0x58
 5766 01a1 A2000000 		.4byte	.LVL27
 5767 01a5 AA000000 		.4byte	.LVL29
 5768 01a9 0400     		.2byte	0x4
 5769 01ab F3       		.byte	0xf3
 5770 01ac 01       		.uleb128 0x1
 5771 01ad 53       		.byte	0x53
 5772 01ae 9F       		.byte	0x9f
 5773 01af AA000000 		.4byte	.LVL29
 5774 01b3 B8000000 		.4byte	.LFE0
 5775 01b7 0100     		.2byte	0x1
 5776 01b9 53       		.byte	0x53
ARM GAS  C:\Users\jesse\AppData\Local\Temp\cc9dv931.s 			page 125


 5777 01ba 00000000 		.4byte	0
 5778 01be 00000000 		.4byte	0
 5779              	.LLST4:
 5780 01c2 18000000 		.4byte	.LVL1
 5781 01c6 7C000000 		.4byte	.LVL19
 5782 01ca 0200     		.2byte	0x2
 5783 01cc 3F       		.byte	0x3f
 5784 01cd 9F       		.byte	0x9f
 5785 01ce 00000000 		.4byte	0
 5786 01d2 00000000 		.4byte	0
 5787              	.LLST5:
 5788 01d6 18000000 		.4byte	.LVL1
 5789 01da 1B000000 		.4byte	.LVL2-1
 5790 01de 0100     		.2byte	0x1
 5791 01e0 53       		.byte	0x53
 5792 01e1 1B000000 		.4byte	.LVL2-1
 5793 01e5 58000000 		.4byte	.LVL10
 5794 01e9 0100     		.2byte	0x1
 5795 01eb 58       		.byte	0x58
 5796 01ec 58000000 		.4byte	.LVL10
 5797 01f0 7C000000 		.4byte	.LVL19
 5798 01f4 0400     		.2byte	0x4
 5799 01f6 F3       		.byte	0xf3
 5800 01f7 01       		.uleb128 0x1
 5801 01f8 53       		.byte	0x53
 5802 01f9 9F       		.byte	0x9f
 5803 01fa 00000000 		.4byte	0
 5804 01fe 00000000 		.4byte	0
 5805              	.LLST6:
 5806 0202 18000000 		.4byte	.LVL1
 5807 0206 70000000 		.4byte	.LVL16
 5808 020a 0100     		.2byte	0x1
 5809 020c 57       		.byte	0x57
 5810 020d 74000000 		.4byte	.LVL17
 5811 0211 78000000 		.4byte	.LVL18
 5812 0215 0100     		.2byte	0x1
 5813 0217 57       		.byte	0x57
 5814 0218 00000000 		.4byte	0
 5815 021c 00000000 		.4byte	0
 5816              	.LLST7:
 5817 0220 18000000 		.4byte	.LVL1
 5818 0224 1B000000 		.4byte	.LVL2-1
 5819 0228 0100     		.2byte	0x1
 5820 022a 50       		.byte	0x50
 5821 022b 1B000000 		.4byte	.LVL2-1
 5822 022f 7C000000 		.4byte	.LVL19
 5823 0233 0100     		.2byte	0x1
 5824 0235 56       		.byte	0x56
 5825 0236 00000000 		.4byte	0
 5826 023a 00000000 		.4byte	0
 5827              	.LLST8:
 5828 023e 24000000 		.4byte	.LVL3
 5829 0242 2A000000 		.4byte	.LVL4
 5830 0246 0800     		.2byte	0x8
 5831 0248 74       		.byte	0x74
 5832 0249 00       		.sleb128 0
 5833 024a 33       		.byte	0x33
ARM GAS  C:\Users\jesse\AppData\Local\Temp\cc9dv931.s 			page 126


 5834 024b 24       		.byte	0x24
 5835 024c 08       		.byte	0x8
 5836 024d F8       		.byte	0xf8
 5837 024e 1A       		.byte	0x1a
 5838 024f 9F       		.byte	0x9f
 5839 0250 2A000000 		.4byte	.LVL4
 5840 0254 2E000000 		.4byte	.LVL5
 5841 0258 0D00     		.2byte	0xd
 5842 025a 78       		.byte	0x78
 5843 025b 05       		.sleb128 5
 5844 025c 94       		.byte	0x94
 5845 025d 01       		.byte	0x1
 5846 025e 08       		.byte	0x8
 5847 025f FF       		.byte	0xff
 5848 0260 1A       		.byte	0x1a
 5849 0261 33       		.byte	0x33
 5850 0262 24       		.byte	0x24
 5851 0263 08       		.byte	0x8
 5852 0264 F8       		.byte	0xf8
 5853 0265 1A       		.byte	0x1a
 5854 0266 9F       		.byte	0x9f
 5855 0267 2E000000 		.4byte	.LVL5
 5856 026b 66000000 		.4byte	.LVL14
 5857 026f 0100     		.2byte	0x1
 5858 0271 54       		.byte	0x54
 5859 0272 00000000 		.4byte	0
 5860 0276 00000000 		.4byte	0
 5861              	.LLST9:
 5862 027a 54000000 		.4byte	.LVL9
 5863 027e 5A000000 		.4byte	.LVL11
 5864 0282 0100     		.2byte	0x1
 5865 0284 55       		.byte	0x55
 5866 0285 5A000000 		.4byte	.LVL11
 5867 0289 5C000000 		.4byte	.LVL12
 5868 028d 0500     		.2byte	0x5
 5869 028f F3       		.byte	0xf3
 5870 0290 01       		.uleb128 0x1
 5871 0291 53       		.byte	0x53
 5872 0292 23       		.byte	0x23
 5873 0293 04       		.uleb128 0x4
 5874 0294 5C000000 		.4byte	.LVL12
 5875 0298 60000000 		.4byte	.LVL13
 5876 029c 0100     		.2byte	0x1
 5877 029e 55       		.byte	0x55
 5878 029f 60000000 		.4byte	.LVL13
 5879 02a3 68000000 		.4byte	.LVL15
 5880 02a7 0300     		.2byte	0x3
 5881 02a9 09       		.byte	0x9
 5882 02aa 84       		.byte	0x84
 5883 02ab 9F       		.byte	0x9f
 5884 02ac 68000000 		.4byte	.LVL15
 5885 02b0 7C000000 		.4byte	.LVL19
 5886 02b4 0100     		.2byte	0x1
 5887 02b6 55       		.byte	0x55
 5888 02b7 00000000 		.4byte	0
 5889 02bb 00000000 		.4byte	0
 5890              	.LLST10:
ARM GAS  C:\Users\jesse\AppData\Local\Temp\cc9dv931.s 			page 127


 5891 02bf 5C000000 		.4byte	.LVL12
 5892 02c3 7C000000 		.4byte	.LVL19
 5893 02c7 0100     		.2byte	0x1
 5894 02c9 58       		.byte	0x58
 5895 02ca 00000000 		.4byte	0
 5896 02ce 00000000 		.4byte	0
 5897              	.LLST11:
 5898 02d2 00000000 		.4byte	.LVL32
 5899 02d6 0B000000 		.4byte	.LVL33-1
 5900 02da 0100     		.2byte	0x1
 5901 02dc 50       		.byte	0x50
 5902 02dd 0B000000 		.4byte	.LVL33-1
 5903 02e1 58000000 		.4byte	.LVL39
 5904 02e5 0100     		.2byte	0x1
 5905 02e7 54       		.byte	0x54
 5906 02e8 58000000 		.4byte	.LVL39
 5907 02ec 68000000 		.4byte	.LFE1
 5908 02f0 0400     		.2byte	0x4
 5909 02f2 F3       		.byte	0xf3
 5910 02f3 01       		.uleb128 0x1
 5911 02f4 50       		.byte	0x50
 5912 02f5 9F       		.byte	0x9f
 5913 02f6 00000000 		.4byte	0
 5914 02fa 00000000 		.4byte	0
 5915              	.LLST12:
 5916 02fe 00000000 		.4byte	.LVL32
 5917 0302 0B000000 		.4byte	.LVL33-1
 5918 0306 0100     		.2byte	0x1
 5919 0308 51       		.byte	0x51
 5920 0309 0B000000 		.4byte	.LVL33-1
 5921 030d 68000000 		.4byte	.LFE1
 5922 0311 0400     		.2byte	0x4
 5923 0313 F3       		.byte	0xf3
 5924 0314 01       		.uleb128 0x1
 5925 0315 51       		.byte	0x51
 5926 0316 9F       		.byte	0x9f
 5927 0317 00000000 		.4byte	0
 5928 031b 00000000 		.4byte	0
 5929              	.LLST13:
 5930 031f 00000000 		.4byte	.LVL32
 5931 0323 0B000000 		.4byte	.LVL33-1
 5932 0327 0100     		.2byte	0x1
 5933 0329 52       		.byte	0x52
 5934 032a 0B000000 		.4byte	.LVL33-1
 5935 032e 68000000 		.4byte	.LFE1
 5936 0332 0400     		.2byte	0x4
 5937 0334 F3       		.byte	0xf3
 5938 0335 01       		.uleb128 0x1
 5939 0336 52       		.byte	0x52
 5940 0337 9F       		.byte	0x9f
 5941 0338 00000000 		.4byte	0
 5942 033c 00000000 		.4byte	0
 5943              	.LLST14:
 5944 0340 00000000 		.4byte	.LVL32
 5945 0344 0B000000 		.4byte	.LVL33-1
 5946 0348 0100     		.2byte	0x1
 5947 034a 53       		.byte	0x53
ARM GAS  C:\Users\jesse\AppData\Local\Temp\cc9dv931.s 			page 128


 5948 034b 0B000000 		.4byte	.LVL33-1
 5949 034f 68000000 		.4byte	.LFE1
 5950 0353 0400     		.2byte	0x4
 5951 0355 F3       		.byte	0xf3
 5952 0356 01       		.uleb128 0x1
 5953 0357 53       		.byte	0x53
 5954 0358 9F       		.byte	0x9f
 5955 0359 00000000 		.4byte	0
 5956 035d 00000000 		.4byte	0
 5957              	.LLST15:
 5958 0361 00000000 		.4byte	.LVL40
 5959 0365 0B000000 		.4byte	.LVL41-1
 5960 0369 0100     		.2byte	0x1
 5961 036b 50       		.byte	0x50
 5962 036c 0B000000 		.4byte	.LVL41-1
 5963 0370 58000000 		.4byte	.LVL47
 5964 0374 0100     		.2byte	0x1
 5965 0376 54       		.byte	0x54
 5966 0377 58000000 		.4byte	.LVL47
 5967 037b 68000000 		.4byte	.LFE2
 5968 037f 0400     		.2byte	0x4
 5969 0381 F3       		.byte	0xf3
 5970 0382 01       		.uleb128 0x1
 5971 0383 50       		.byte	0x50
 5972 0384 9F       		.byte	0x9f
 5973 0385 00000000 		.4byte	0
 5974 0389 00000000 		.4byte	0
 5975              	.LLST16:
 5976 038d 00000000 		.4byte	.LVL40
 5977 0391 0B000000 		.4byte	.LVL41-1
 5978 0395 0100     		.2byte	0x1
 5979 0397 51       		.byte	0x51
 5980 0398 0B000000 		.4byte	.LVL41-1
 5981 039c 68000000 		.4byte	.LFE2
 5982 03a0 0400     		.2byte	0x4
 5983 03a2 F3       		.byte	0xf3
 5984 03a3 01       		.uleb128 0x1
 5985 03a4 51       		.byte	0x51
 5986 03a5 9F       		.byte	0x9f
 5987 03a6 00000000 		.4byte	0
 5988 03aa 00000000 		.4byte	0
 5989              	.LLST17:
 5990 03ae 00000000 		.4byte	.LVL40
 5991 03b2 0B000000 		.4byte	.LVL41-1
 5992 03b6 0100     		.2byte	0x1
 5993 03b8 52       		.byte	0x52
 5994 03b9 0B000000 		.4byte	.LVL41-1
 5995 03bd 68000000 		.4byte	.LFE2
 5996 03c1 0400     		.2byte	0x4
 5997 03c3 F3       		.byte	0xf3
 5998 03c4 01       		.uleb128 0x1
 5999 03c5 52       		.byte	0x52
 6000 03c6 9F       		.byte	0x9f
 6001 03c7 00000000 		.4byte	0
 6002 03cb 00000000 		.4byte	0
 6003              	.LLST18:
 6004 03cf 00000000 		.4byte	.LVL40
ARM GAS  C:\Users\jesse\AppData\Local\Temp\cc9dv931.s 			page 129


 6005 03d3 0B000000 		.4byte	.LVL41-1
 6006 03d7 0100     		.2byte	0x1
 6007 03d9 53       		.byte	0x53
 6008 03da 0B000000 		.4byte	.LVL41-1
 6009 03de 68000000 		.4byte	.LFE2
 6010 03e2 0400     		.2byte	0x4
 6011 03e4 F3       		.byte	0xf3
 6012 03e5 01       		.uleb128 0x1
 6013 03e6 53       		.byte	0x53
 6014 03e7 9F       		.byte	0x9f
 6015 03e8 00000000 		.4byte	0
 6016 03ec 00000000 		.4byte	0
 6017              	.LLST19:
 6018 03f0 00000000 		.4byte	.LVL48
 6019 03f4 0B000000 		.4byte	.LVL49-1
 6020 03f8 0100     		.2byte	0x1
 6021 03fa 50       		.byte	0x50
 6022 03fb 0B000000 		.4byte	.LVL49-1
 6023 03ff 58000000 		.4byte	.LVL55
 6024 0403 0100     		.2byte	0x1
 6025 0405 54       		.byte	0x54
 6026 0406 58000000 		.4byte	.LVL55
 6027 040a 68000000 		.4byte	.LFE3
 6028 040e 0400     		.2byte	0x4
 6029 0410 F3       		.byte	0xf3
 6030 0411 01       		.uleb128 0x1
 6031 0412 50       		.byte	0x50
 6032 0413 9F       		.byte	0x9f
 6033 0414 00000000 		.4byte	0
 6034 0418 00000000 		.4byte	0
 6035              	.LLST20:
 6036 041c 00000000 		.4byte	.LVL48
 6037 0420 0B000000 		.4byte	.LVL49-1
 6038 0424 0100     		.2byte	0x1
 6039 0426 51       		.byte	0x51
 6040 0427 0B000000 		.4byte	.LVL49-1
 6041 042b 68000000 		.4byte	.LFE3
 6042 042f 0400     		.2byte	0x4
 6043 0431 F3       		.byte	0xf3
 6044 0432 01       		.uleb128 0x1
 6045 0433 51       		.byte	0x51
 6046 0434 9F       		.byte	0x9f
 6047 0435 00000000 		.4byte	0
 6048 0439 00000000 		.4byte	0
 6049              	.LLST21:
 6050 043d 00000000 		.4byte	.LVL48
 6051 0441 0B000000 		.4byte	.LVL49-1
 6052 0445 0100     		.2byte	0x1
 6053 0447 52       		.byte	0x52
 6054 0448 0B000000 		.4byte	.LVL49-1
 6055 044c 68000000 		.4byte	.LFE3
 6056 0450 0400     		.2byte	0x4
 6057 0452 F3       		.byte	0xf3
 6058 0453 01       		.uleb128 0x1
 6059 0454 52       		.byte	0x52
 6060 0455 9F       		.byte	0x9f
 6061 0456 00000000 		.4byte	0
ARM GAS  C:\Users\jesse\AppData\Local\Temp\cc9dv931.s 			page 130


 6062 045a 00000000 		.4byte	0
 6063              	.LLST22:
 6064 045e 00000000 		.4byte	.LVL48
 6065 0462 0B000000 		.4byte	.LVL49-1
 6066 0466 0100     		.2byte	0x1
 6067 0468 53       		.byte	0x53
 6068 0469 0B000000 		.4byte	.LVL49-1
 6069 046d 68000000 		.4byte	.LFE3
 6070 0471 0400     		.2byte	0x4
 6071 0473 F3       		.byte	0xf3
 6072 0474 01       		.uleb128 0x1
 6073 0475 53       		.byte	0x53
 6074 0476 9F       		.byte	0x9f
 6075 0477 00000000 		.4byte	0
 6076 047b 00000000 		.4byte	0
 6077              	.LLST23:
 6078 047f 00000000 		.4byte	.LVL56
 6079 0483 0B000000 		.4byte	.LVL57-1
 6080 0487 0100     		.2byte	0x1
 6081 0489 50       		.byte	0x50
 6082 048a 0B000000 		.4byte	.LVL57-1
 6083 048e 58000000 		.4byte	.LVL63
 6084 0492 0100     		.2byte	0x1
 6085 0494 54       		.byte	0x54
 6086 0495 58000000 		.4byte	.LVL63
 6087 0499 68000000 		.4byte	.LFE4
 6088 049d 0400     		.2byte	0x4
 6089 049f F3       		.byte	0xf3
 6090 04a0 01       		.uleb128 0x1
 6091 04a1 50       		.byte	0x50
 6092 04a2 9F       		.byte	0x9f
 6093 04a3 00000000 		.4byte	0
 6094 04a7 00000000 		.4byte	0
 6095              	.LLST24:
 6096 04ab 00000000 		.4byte	.LVL56
 6097 04af 0B000000 		.4byte	.LVL57-1
 6098 04b3 0100     		.2byte	0x1
 6099 04b5 51       		.byte	0x51
 6100 04b6 0B000000 		.4byte	.LVL57-1
 6101 04ba 68000000 		.4byte	.LFE4
 6102 04be 0400     		.2byte	0x4
 6103 04c0 F3       		.byte	0xf3
 6104 04c1 01       		.uleb128 0x1
 6105 04c2 51       		.byte	0x51
 6106 04c3 9F       		.byte	0x9f
 6107 04c4 00000000 		.4byte	0
 6108 04c8 00000000 		.4byte	0
 6109              	.LLST25:
 6110 04cc 00000000 		.4byte	.LVL56
 6111 04d0 0B000000 		.4byte	.LVL57-1
 6112 04d4 0100     		.2byte	0x1
 6113 04d6 52       		.byte	0x52
 6114 04d7 0B000000 		.4byte	.LVL57-1
 6115 04db 68000000 		.4byte	.LFE4
 6116 04df 0400     		.2byte	0x4
 6117 04e1 F3       		.byte	0xf3
 6118 04e2 01       		.uleb128 0x1
ARM GAS  C:\Users\jesse\AppData\Local\Temp\cc9dv931.s 			page 131


 6119 04e3 52       		.byte	0x52
 6120 04e4 9F       		.byte	0x9f
 6121 04e5 00000000 		.4byte	0
 6122 04e9 00000000 		.4byte	0
 6123              	.LLST26:
 6124 04ed 00000000 		.4byte	.LVL56
 6125 04f1 0B000000 		.4byte	.LVL57-1
 6126 04f5 0100     		.2byte	0x1
 6127 04f7 53       		.byte	0x53
 6128 04f8 0B000000 		.4byte	.LVL57-1
 6129 04fc 68000000 		.4byte	.LFE4
 6130 0500 0400     		.2byte	0x4
 6131 0502 F3       		.byte	0xf3
 6132 0503 01       		.uleb128 0x1
 6133 0504 53       		.byte	0x53
 6134 0505 9F       		.byte	0x9f
 6135 0506 00000000 		.4byte	0
 6136 050a 00000000 		.4byte	0
 6137              	.LLST27:
 6138 050e 00000000 		.4byte	.LVL64
 6139 0512 0B000000 		.4byte	.LVL65-1
 6140 0516 0100     		.2byte	0x1
 6141 0518 50       		.byte	0x50
 6142 0519 0B000000 		.4byte	.LVL65-1
 6143 051d 58000000 		.4byte	.LVL71
 6144 0521 0100     		.2byte	0x1
 6145 0523 54       		.byte	0x54
 6146 0524 58000000 		.4byte	.LVL71
 6147 0528 68000000 		.4byte	.LFE5
 6148 052c 0400     		.2byte	0x4
 6149 052e F3       		.byte	0xf3
 6150 052f 01       		.uleb128 0x1
 6151 0530 50       		.byte	0x50
 6152 0531 9F       		.byte	0x9f
 6153 0532 00000000 		.4byte	0
 6154 0536 00000000 		.4byte	0
 6155              	.LLST28:
 6156 053a 00000000 		.4byte	.LVL64
 6157 053e 0B000000 		.4byte	.LVL65-1
 6158 0542 0100     		.2byte	0x1
 6159 0544 51       		.byte	0x51
 6160 0545 0B000000 		.4byte	.LVL65-1
 6161 0549 68000000 		.4byte	.LFE5
 6162 054d 0400     		.2byte	0x4
 6163 054f F3       		.byte	0xf3
 6164 0550 01       		.uleb128 0x1
 6165 0551 51       		.byte	0x51
 6166 0552 9F       		.byte	0x9f
 6167 0553 00000000 		.4byte	0
 6168 0557 00000000 		.4byte	0
 6169              	.LLST29:
 6170 055b 00000000 		.4byte	.LVL64
 6171 055f 0B000000 		.4byte	.LVL65-1
 6172 0563 0100     		.2byte	0x1
 6173 0565 52       		.byte	0x52
 6174 0566 0B000000 		.4byte	.LVL65-1
 6175 056a 68000000 		.4byte	.LFE5
ARM GAS  C:\Users\jesse\AppData\Local\Temp\cc9dv931.s 			page 132


 6176 056e 0400     		.2byte	0x4
 6177 0570 F3       		.byte	0xf3
 6178 0571 01       		.uleb128 0x1
 6179 0572 52       		.byte	0x52
 6180 0573 9F       		.byte	0x9f
 6181 0574 00000000 		.4byte	0
 6182 0578 00000000 		.4byte	0
 6183              	.LLST30:
 6184 057c 00000000 		.4byte	.LVL64
 6185 0580 0B000000 		.4byte	.LVL65-1
 6186 0584 0100     		.2byte	0x1
 6187 0586 53       		.byte	0x53
 6188 0587 0B000000 		.4byte	.LVL65-1
 6189 058b 68000000 		.4byte	.LFE5
 6190 058f 0400     		.2byte	0x4
 6191 0591 F3       		.byte	0xf3
 6192 0592 01       		.uleb128 0x1
 6193 0593 53       		.byte	0x53
 6194 0594 9F       		.byte	0x9f
 6195 0595 00000000 		.4byte	0
 6196 0599 00000000 		.4byte	0
 6197              	.LLST31:
 6198 059d 00000000 		.4byte	.LVL72
 6199 05a1 0B000000 		.4byte	.LVL73-1
 6200 05a5 0100     		.2byte	0x1
 6201 05a7 50       		.byte	0x50
 6202 05a8 0B000000 		.4byte	.LVL73-1
 6203 05ac 58000000 		.4byte	.LVL81
 6204 05b0 0100     		.2byte	0x1
 6205 05b2 54       		.byte	0x54
 6206 05b3 58000000 		.4byte	.LVL81
 6207 05b7 68000000 		.4byte	.LFE6
 6208 05bb 0400     		.2byte	0x4
 6209 05bd F3       		.byte	0xf3
 6210 05be 01       		.uleb128 0x1
 6211 05bf 50       		.byte	0x50
 6212 05c0 9F       		.byte	0x9f
 6213 05c1 00000000 		.4byte	0
 6214 05c5 00000000 		.4byte	0
 6215              	.LLST32:
 6216 05c9 00000000 		.4byte	.LVL72
 6217 05cd 0B000000 		.4byte	.LVL73-1
 6218 05d1 0100     		.2byte	0x1
 6219 05d3 51       		.byte	0x51
 6220 05d4 0B000000 		.4byte	.LVL73-1
 6221 05d8 68000000 		.4byte	.LFE6
 6222 05dc 0400     		.2byte	0x4
 6223 05de F3       		.byte	0xf3
 6224 05df 01       		.uleb128 0x1
 6225 05e0 51       		.byte	0x51
 6226 05e1 9F       		.byte	0x9f
 6227 05e2 00000000 		.4byte	0
 6228 05e6 00000000 		.4byte	0
 6229              	.LLST33:
 6230 05ea 00000000 		.4byte	.LVL72
 6231 05ee 0B000000 		.4byte	.LVL73-1
 6232 05f2 0100     		.2byte	0x1
ARM GAS  C:\Users\jesse\AppData\Local\Temp\cc9dv931.s 			page 133


 6233 05f4 52       		.byte	0x52
 6234 05f5 0B000000 		.4byte	.LVL73-1
 6235 05f9 68000000 		.4byte	.LFE6
 6236 05fd 0400     		.2byte	0x4
 6237 05ff F3       		.byte	0xf3
 6238 0600 01       		.uleb128 0x1
 6239 0601 52       		.byte	0x52
 6240 0602 9F       		.byte	0x9f
 6241 0603 00000000 		.4byte	0
 6242 0607 00000000 		.4byte	0
 6243              	.LLST34:
 6244 060b 00000000 		.4byte	.LVL72
 6245 060f 0B000000 		.4byte	.LVL73-1
 6246 0613 0100     		.2byte	0x1
 6247 0615 53       		.byte	0x53
 6248 0616 0B000000 		.4byte	.LVL73-1
 6249 061a 68000000 		.4byte	.LFE6
 6250 061e 0400     		.2byte	0x4
 6251 0620 F3       		.byte	0xf3
 6252 0621 01       		.uleb128 0x1
 6253 0622 53       		.byte	0x53
 6254 0623 9F       		.byte	0x9f
 6255 0624 00000000 		.4byte	0
 6256 0628 00000000 		.4byte	0
 6257              	.LLST35:
 6258 062c 36000000 		.4byte	.LVL77
 6259 0630 44000000 		.4byte	.LVL79
 6260 0634 0200     		.2byte	0x2
 6261 0636 3D       		.byte	0x3d
 6262 0637 9F       		.byte	0x9f
 6263 0638 00000000 		.4byte	0
 6264 063c 00000000 		.4byte	0
 6265              	.LLST36:
 6266 0640 36000000 		.4byte	.LVL77
 6267 0644 44000000 		.4byte	.LVL79
 6268 0648 0200     		.2byte	0x2
 6269 064a 30       		.byte	0x30
 6270 064b 9F       		.byte	0x9f
 6271 064c 00000000 		.4byte	0
 6272 0650 00000000 		.4byte	0
 6273              	.LLST37:
 6274 0654 36000000 		.4byte	.LVL77
 6275 0658 44000000 		.4byte	.LVL79
 6276 065c 0400     		.2byte	0x4
 6277 065e F3       		.byte	0xf3
 6278 065f 01       		.uleb128 0x1
 6279 0660 53       		.byte	0x53
 6280 0661 9F       		.byte	0x9f
 6281 0662 00000000 		.4byte	0
 6282 0666 00000000 		.4byte	0
 6283              	.LLST38:
 6284 066a 36000000 		.4byte	.LVL77
 6285 066e 44000000 		.4byte	.LVL79
 6286 0672 0100     		.2byte	0x1
 6287 0674 54       		.byte	0x54
 6288 0675 00000000 		.4byte	0
 6289 0679 00000000 		.4byte	0
ARM GAS  C:\Users\jesse\AppData\Local\Temp\cc9dv931.s 			page 134


 6290              	.LLST39:
 6291 067d 00000000 		.4byte	.LVL82
 6292 0681 03000000 		.4byte	.LVL83-1
 6293 0685 0100     		.2byte	0x1
 6294 0687 50       		.byte	0x50
 6295 0688 03000000 		.4byte	.LVL83-1
 6296 068c 04000000 		.4byte	.LFE7
 6297 0690 0400     		.2byte	0x4
 6298 0692 F3       		.byte	0xf3
 6299 0693 01       		.uleb128 0x1
 6300 0694 50       		.byte	0x50
 6301 0695 9F       		.byte	0x9f
 6302 0696 00000000 		.4byte	0
 6303 069a 00000000 		.4byte	0
 6304              	.LLST40:
 6305 069e 00000000 		.4byte	.LVL82
 6306 06a2 03000000 		.4byte	.LVL83-1
 6307 06a6 0100     		.2byte	0x1
 6308 06a8 51       		.byte	0x51
 6309 06a9 03000000 		.4byte	.LVL83-1
 6310 06ad 04000000 		.4byte	.LFE7
 6311 06b1 0400     		.2byte	0x4
 6312 06b3 F3       		.byte	0xf3
 6313 06b4 01       		.uleb128 0x1
 6314 06b5 51       		.byte	0x51
 6315 06b6 9F       		.byte	0x9f
 6316 06b7 00000000 		.4byte	0
 6317 06bb 00000000 		.4byte	0
 6318              	.LLST41:
 6319 06bf 00000000 		.4byte	.LVL82
 6320 06c3 03000000 		.4byte	.LVL83-1
 6321 06c7 0100     		.2byte	0x1
 6322 06c9 52       		.byte	0x52
 6323 06ca 03000000 		.4byte	.LVL83-1
 6324 06ce 04000000 		.4byte	.LFE7
 6325 06d2 0400     		.2byte	0x4
 6326 06d4 F3       		.byte	0xf3
 6327 06d5 01       		.uleb128 0x1
 6328 06d6 52       		.byte	0x52
 6329 06d7 9F       		.byte	0x9f
 6330 06d8 00000000 		.4byte	0
 6331 06dc 00000000 		.4byte	0
 6332              	.LLST42:
 6333 06e0 00000000 		.4byte	.LVL82
 6334 06e4 03000000 		.4byte	.LVL83-1
 6335 06e8 0100     		.2byte	0x1
 6336 06ea 53       		.byte	0x53
 6337 06eb 03000000 		.4byte	.LVL83-1
 6338 06ef 04000000 		.4byte	.LFE7
 6339 06f3 0400     		.2byte	0x4
 6340 06f5 F3       		.byte	0xf3
 6341 06f6 01       		.uleb128 0x1
 6342 06f7 53       		.byte	0x53
 6343 06f8 9F       		.byte	0x9f
 6344 06f9 00000000 		.4byte	0
 6345 06fd 00000000 		.4byte	0
 6346              	.LLST43:
ARM GAS  C:\Users\jesse\AppData\Local\Temp\cc9dv931.s 			page 135


 6347 0701 00000000 		.4byte	.LVL84
 6348 0705 0B000000 		.4byte	.LVL85-1
 6349 0709 0100     		.2byte	0x1
 6350 070b 50       		.byte	0x50
 6351 070c 0B000000 		.4byte	.LVL85-1
 6352 0710 58000000 		.4byte	.LVL91
 6353 0714 0100     		.2byte	0x1
 6354 0716 54       		.byte	0x54
 6355 0717 58000000 		.4byte	.LVL91
 6356 071b 68000000 		.4byte	.LFE8
 6357 071f 0400     		.2byte	0x4
 6358 0721 F3       		.byte	0xf3
 6359 0722 01       		.uleb128 0x1
 6360 0723 50       		.byte	0x50
 6361 0724 9F       		.byte	0x9f
 6362 0725 00000000 		.4byte	0
 6363 0729 00000000 		.4byte	0
 6364              	.LLST44:
 6365 072d 00000000 		.4byte	.LVL84
 6366 0731 0B000000 		.4byte	.LVL85-1
 6367 0735 0100     		.2byte	0x1
 6368 0737 51       		.byte	0x51
 6369 0738 0B000000 		.4byte	.LVL85-1
 6370 073c 68000000 		.4byte	.LFE8
 6371 0740 0400     		.2byte	0x4
 6372 0742 F3       		.byte	0xf3
 6373 0743 01       		.uleb128 0x1
 6374 0744 51       		.byte	0x51
 6375 0745 9F       		.byte	0x9f
 6376 0746 00000000 		.4byte	0
 6377 074a 00000000 		.4byte	0
 6378              	.LLST45:
 6379 074e 00000000 		.4byte	.LVL84
 6380 0752 0B000000 		.4byte	.LVL85-1
 6381 0756 0100     		.2byte	0x1
 6382 0758 52       		.byte	0x52
 6383 0759 0B000000 		.4byte	.LVL85-1
 6384 075d 68000000 		.4byte	.LFE8
 6385 0761 0400     		.2byte	0x4
 6386 0763 F3       		.byte	0xf3
 6387 0764 01       		.uleb128 0x1
 6388 0765 52       		.byte	0x52
 6389 0766 9F       		.byte	0x9f
 6390 0767 00000000 		.4byte	0
 6391 076b 00000000 		.4byte	0
 6392              	.LLST46:
 6393 076f 00000000 		.4byte	.LVL84
 6394 0773 0B000000 		.4byte	.LVL85-1
 6395 0777 0100     		.2byte	0x1
 6396 0779 53       		.byte	0x53
 6397 077a 0B000000 		.4byte	.LVL85-1
 6398 077e 68000000 		.4byte	.LFE8
 6399 0782 0400     		.2byte	0x4
 6400 0784 F3       		.byte	0xf3
 6401 0785 01       		.uleb128 0x1
 6402 0786 53       		.byte	0x53
 6403 0787 9F       		.byte	0x9f
ARM GAS  C:\Users\jesse\AppData\Local\Temp\cc9dv931.s 			page 136


 6404 0788 00000000 		.4byte	0
 6405 078c 00000000 		.4byte	0
 6406              	.LLST47:
 6407 0790 00000000 		.4byte	.LVL92
 6408 0794 0B000000 		.4byte	.LVL93-1
 6409 0798 0100     		.2byte	0x1
 6410 079a 50       		.byte	0x50
 6411 079b 0B000000 		.4byte	.LVL93-1
 6412 079f 58000000 		.4byte	.LVL99
 6413 07a3 0100     		.2byte	0x1
 6414 07a5 54       		.byte	0x54
 6415 07a6 58000000 		.4byte	.LVL99
 6416 07aa 68000000 		.4byte	.LFE9
 6417 07ae 0400     		.2byte	0x4
 6418 07b0 F3       		.byte	0xf3
 6419 07b1 01       		.uleb128 0x1
 6420 07b2 50       		.byte	0x50
 6421 07b3 9F       		.byte	0x9f
 6422 07b4 00000000 		.4byte	0
 6423 07b8 00000000 		.4byte	0
 6424              	.LLST48:
 6425 07bc 00000000 		.4byte	.LVL92
 6426 07c0 0B000000 		.4byte	.LVL93-1
 6427 07c4 0100     		.2byte	0x1
 6428 07c6 51       		.byte	0x51
 6429 07c7 0B000000 		.4byte	.LVL93-1
 6430 07cb 68000000 		.4byte	.LFE9
 6431 07cf 0400     		.2byte	0x4
 6432 07d1 F3       		.byte	0xf3
 6433 07d2 01       		.uleb128 0x1
 6434 07d3 51       		.byte	0x51
 6435 07d4 9F       		.byte	0x9f
 6436 07d5 00000000 		.4byte	0
 6437 07d9 00000000 		.4byte	0
 6438              	.LLST49:
 6439 07dd 00000000 		.4byte	.LVL92
 6440 07e1 0B000000 		.4byte	.LVL93-1
 6441 07e5 0100     		.2byte	0x1
 6442 07e7 52       		.byte	0x52
 6443 07e8 0B000000 		.4byte	.LVL93-1
 6444 07ec 68000000 		.4byte	.LFE9
 6445 07f0 0400     		.2byte	0x4
 6446 07f2 F3       		.byte	0xf3
 6447 07f3 01       		.uleb128 0x1
 6448 07f4 52       		.byte	0x52
 6449 07f5 9F       		.byte	0x9f
 6450 07f6 00000000 		.4byte	0
 6451 07fa 00000000 		.4byte	0
 6452              	.LLST50:
 6453 07fe 00000000 		.4byte	.LVL92
 6454 0802 0B000000 		.4byte	.LVL93-1
 6455 0806 0100     		.2byte	0x1
 6456 0808 53       		.byte	0x53
 6457 0809 0B000000 		.4byte	.LVL93-1
 6458 080d 68000000 		.4byte	.LFE9
 6459 0811 0400     		.2byte	0x4
 6460 0813 F3       		.byte	0xf3
ARM GAS  C:\Users\jesse\AppData\Local\Temp\cc9dv931.s 			page 137


 6461 0814 01       		.uleb128 0x1
 6462 0815 53       		.byte	0x53
 6463 0816 9F       		.byte	0x9f
 6464 0817 00000000 		.4byte	0
 6465 081b 00000000 		.4byte	0
 6466              	.LLST51:
 6467 081f 00000000 		.4byte	.LVL100
 6468 0823 0B000000 		.4byte	.LVL101-1
 6469 0827 0100     		.2byte	0x1
 6470 0829 50       		.byte	0x50
 6471 082a 0B000000 		.4byte	.LVL101-1
 6472 082e 58000000 		.4byte	.LVL107
 6473 0832 0100     		.2byte	0x1
 6474 0834 54       		.byte	0x54
 6475 0835 58000000 		.4byte	.LVL107
 6476 0839 68000000 		.4byte	.LFE10
 6477 083d 0400     		.2byte	0x4
 6478 083f F3       		.byte	0xf3
 6479 0840 01       		.uleb128 0x1
 6480 0841 50       		.byte	0x50
 6481 0842 9F       		.byte	0x9f
 6482 0843 00000000 		.4byte	0
 6483 0847 00000000 		.4byte	0
 6484              	.LLST52:
 6485 084b 00000000 		.4byte	.LVL100
 6486 084f 0B000000 		.4byte	.LVL101-1
 6487 0853 0100     		.2byte	0x1
 6488 0855 51       		.byte	0x51
 6489 0856 0B000000 		.4byte	.LVL101-1
 6490 085a 68000000 		.4byte	.LFE10
 6491 085e 0400     		.2byte	0x4
 6492 0860 F3       		.byte	0xf3
 6493 0861 01       		.uleb128 0x1
 6494 0862 51       		.byte	0x51
 6495 0863 9F       		.byte	0x9f
 6496 0864 00000000 		.4byte	0
 6497 0868 00000000 		.4byte	0
 6498              	.LLST53:
 6499 086c 00000000 		.4byte	.LVL100
 6500 0870 0B000000 		.4byte	.LVL101-1
 6501 0874 0100     		.2byte	0x1
 6502 0876 52       		.byte	0x52
 6503 0877 0B000000 		.4byte	.LVL101-1
 6504 087b 68000000 		.4byte	.LFE10
 6505 087f 0400     		.2byte	0x4
 6506 0881 F3       		.byte	0xf3
 6507 0882 01       		.uleb128 0x1
 6508 0883 52       		.byte	0x52
 6509 0884 9F       		.byte	0x9f
 6510 0885 00000000 		.4byte	0
 6511 0889 00000000 		.4byte	0
 6512              	.LLST54:
 6513 088d 00000000 		.4byte	.LVL100
 6514 0891 0B000000 		.4byte	.LVL101-1
 6515 0895 0100     		.2byte	0x1
 6516 0897 53       		.byte	0x53
 6517 0898 0B000000 		.4byte	.LVL101-1
ARM GAS  C:\Users\jesse\AppData\Local\Temp\cc9dv931.s 			page 138


 6518 089c 68000000 		.4byte	.LFE10
 6519 08a0 0400     		.2byte	0x4
 6520 08a2 F3       		.byte	0xf3
 6521 08a3 01       		.uleb128 0x1
 6522 08a4 53       		.byte	0x53
 6523 08a5 9F       		.byte	0x9f
 6524 08a6 00000000 		.4byte	0
 6525 08aa 00000000 		.4byte	0
 6526              	.LLST55:
 6527 08ae 00000000 		.4byte	.LVL108
 6528 08b2 0B000000 		.4byte	.LVL109-1
 6529 08b6 0100     		.2byte	0x1
 6530 08b8 50       		.byte	0x50
 6531 08b9 0B000000 		.4byte	.LVL109-1
 6532 08bd 58000000 		.4byte	.LVL115
 6533 08c1 0100     		.2byte	0x1
 6534 08c3 54       		.byte	0x54
 6535 08c4 58000000 		.4byte	.LVL115
 6536 08c8 68000000 		.4byte	.LFE11
 6537 08cc 0400     		.2byte	0x4
 6538 08ce F3       		.byte	0xf3
 6539 08cf 01       		.uleb128 0x1
 6540 08d0 50       		.byte	0x50
 6541 08d1 9F       		.byte	0x9f
 6542 08d2 00000000 		.4byte	0
 6543 08d6 00000000 		.4byte	0
 6544              	.LLST56:
 6545 08da 00000000 		.4byte	.LVL108
 6546 08de 0B000000 		.4byte	.LVL109-1
 6547 08e2 0100     		.2byte	0x1
 6548 08e4 51       		.byte	0x51
 6549 08e5 0B000000 		.4byte	.LVL109-1
 6550 08e9 68000000 		.4byte	.LFE11
 6551 08ed 0400     		.2byte	0x4
 6552 08ef F3       		.byte	0xf3
 6553 08f0 01       		.uleb128 0x1
 6554 08f1 51       		.byte	0x51
 6555 08f2 9F       		.byte	0x9f
 6556 08f3 00000000 		.4byte	0
 6557 08f7 00000000 		.4byte	0
 6558              	.LLST57:
 6559 08fb 00000000 		.4byte	.LVL108
 6560 08ff 0B000000 		.4byte	.LVL109-1
 6561 0903 0100     		.2byte	0x1
 6562 0905 52       		.byte	0x52
 6563 0906 0B000000 		.4byte	.LVL109-1
 6564 090a 68000000 		.4byte	.LFE11
 6565 090e 0400     		.2byte	0x4
 6566 0910 F3       		.byte	0xf3
 6567 0911 01       		.uleb128 0x1
 6568 0912 52       		.byte	0x52
 6569 0913 9F       		.byte	0x9f
 6570 0914 00000000 		.4byte	0
 6571 0918 00000000 		.4byte	0
 6572              	.LLST58:
 6573 091c 00000000 		.4byte	.LVL108
 6574 0920 0B000000 		.4byte	.LVL109-1
ARM GAS  C:\Users\jesse\AppData\Local\Temp\cc9dv931.s 			page 139


 6575 0924 0100     		.2byte	0x1
 6576 0926 53       		.byte	0x53
 6577 0927 0B000000 		.4byte	.LVL109-1
 6578 092b 68000000 		.4byte	.LFE11
 6579 092f 0400     		.2byte	0x4
 6580 0931 F3       		.byte	0xf3
 6581 0932 01       		.uleb128 0x1
 6582 0933 53       		.byte	0x53
 6583 0934 9F       		.byte	0x9f
 6584 0935 00000000 		.4byte	0
 6585 0939 00000000 		.4byte	0
 6586              	.LLST59:
 6587 093d 00000000 		.4byte	.LVL116
 6588 0941 0B000000 		.4byte	.LVL117-1
 6589 0945 0100     		.2byte	0x1
 6590 0947 50       		.byte	0x50
 6591 0948 0B000000 		.4byte	.LVL117-1
 6592 094c 58000000 		.4byte	.LVL123
 6593 0950 0100     		.2byte	0x1
 6594 0952 54       		.byte	0x54
 6595 0953 58000000 		.4byte	.LVL123
 6596 0957 68000000 		.4byte	.LFE12
 6597 095b 0400     		.2byte	0x4
 6598 095d F3       		.byte	0xf3
 6599 095e 01       		.uleb128 0x1
 6600 095f 50       		.byte	0x50
 6601 0960 9F       		.byte	0x9f
 6602 0961 00000000 		.4byte	0
 6603 0965 00000000 		.4byte	0
 6604              	.LLST60:
 6605 0969 00000000 		.4byte	.LVL116
 6606 096d 0B000000 		.4byte	.LVL117-1
 6607 0971 0100     		.2byte	0x1
 6608 0973 51       		.byte	0x51
 6609 0974 0B000000 		.4byte	.LVL117-1
 6610 0978 68000000 		.4byte	.LFE12
 6611 097c 0400     		.2byte	0x4
 6612 097e F3       		.byte	0xf3
 6613 097f 01       		.uleb128 0x1
 6614 0980 51       		.byte	0x51
 6615 0981 9F       		.byte	0x9f
 6616 0982 00000000 		.4byte	0
 6617 0986 00000000 		.4byte	0
 6618              	.LLST61:
 6619 098a 00000000 		.4byte	.LVL116
 6620 098e 0B000000 		.4byte	.LVL117-1
 6621 0992 0100     		.2byte	0x1
 6622 0994 52       		.byte	0x52
 6623 0995 0B000000 		.4byte	.LVL117-1
 6624 0999 68000000 		.4byte	.LFE12
 6625 099d 0400     		.2byte	0x4
 6626 099f F3       		.byte	0xf3
 6627 09a0 01       		.uleb128 0x1
 6628 09a1 52       		.byte	0x52
 6629 09a2 9F       		.byte	0x9f
 6630 09a3 00000000 		.4byte	0
 6631 09a7 00000000 		.4byte	0
ARM GAS  C:\Users\jesse\AppData\Local\Temp\cc9dv931.s 			page 140


 6632              	.LLST62:
 6633 09ab 00000000 		.4byte	.LVL116
 6634 09af 0B000000 		.4byte	.LVL117-1
 6635 09b3 0100     		.2byte	0x1
 6636 09b5 53       		.byte	0x53
 6637 09b6 0B000000 		.4byte	.LVL117-1
 6638 09ba 68000000 		.4byte	.LFE12
 6639 09be 0400     		.2byte	0x4
 6640 09c0 F3       		.byte	0xf3
 6641 09c1 01       		.uleb128 0x1
 6642 09c2 53       		.byte	0x53
 6643 09c3 9F       		.byte	0x9f
 6644 09c4 00000000 		.4byte	0
 6645 09c8 00000000 		.4byte	0
 6646              	.LLST63:
 6647 09cc 00000000 		.4byte	.LVL124
 6648 09d0 0B000000 		.4byte	.LVL125-1
 6649 09d4 0100     		.2byte	0x1
 6650 09d6 50       		.byte	0x50
 6651 09d7 0B000000 		.4byte	.LVL125-1
 6652 09db 58000000 		.4byte	.LVL131
 6653 09df 0100     		.2byte	0x1
 6654 09e1 54       		.byte	0x54
 6655 09e2 58000000 		.4byte	.LVL131
 6656 09e6 68000000 		.4byte	.LFE13
 6657 09ea 0400     		.2byte	0x4
 6658 09ec F3       		.byte	0xf3
 6659 09ed 01       		.uleb128 0x1
 6660 09ee 50       		.byte	0x50
 6661 09ef 9F       		.byte	0x9f
 6662 09f0 00000000 		.4byte	0
 6663 09f4 00000000 		.4byte	0
 6664              	.LLST64:
 6665 09f8 00000000 		.4byte	.LVL124
 6666 09fc 0B000000 		.4byte	.LVL125-1
 6667 0a00 0100     		.2byte	0x1
 6668 0a02 51       		.byte	0x51
 6669 0a03 0B000000 		.4byte	.LVL125-1
 6670 0a07 68000000 		.4byte	.LFE13
 6671 0a0b 0400     		.2byte	0x4
 6672 0a0d F3       		.byte	0xf3
 6673 0a0e 01       		.uleb128 0x1
 6674 0a0f 51       		.byte	0x51
 6675 0a10 9F       		.byte	0x9f
 6676 0a11 00000000 		.4byte	0
 6677 0a15 00000000 		.4byte	0
 6678              	.LLST65:
 6679 0a19 00000000 		.4byte	.LVL124
 6680 0a1d 0B000000 		.4byte	.LVL125-1
 6681 0a21 0100     		.2byte	0x1
 6682 0a23 52       		.byte	0x52
 6683 0a24 0B000000 		.4byte	.LVL125-1
 6684 0a28 68000000 		.4byte	.LFE13
 6685 0a2c 0400     		.2byte	0x4
 6686 0a2e F3       		.byte	0xf3
 6687 0a2f 01       		.uleb128 0x1
 6688 0a30 52       		.byte	0x52
ARM GAS  C:\Users\jesse\AppData\Local\Temp\cc9dv931.s 			page 141


 6689 0a31 9F       		.byte	0x9f
 6690 0a32 00000000 		.4byte	0
 6691 0a36 00000000 		.4byte	0
 6692              	.LLST66:
 6693 0a3a 00000000 		.4byte	.LVL124
 6694 0a3e 0B000000 		.4byte	.LVL125-1
 6695 0a42 0100     		.2byte	0x1
 6696 0a44 53       		.byte	0x53
 6697 0a45 0B000000 		.4byte	.LVL125-1
 6698 0a49 68000000 		.4byte	.LFE13
 6699 0a4d 0400     		.2byte	0x4
 6700 0a4f F3       		.byte	0xf3
 6701 0a50 01       		.uleb128 0x1
 6702 0a51 53       		.byte	0x53
 6703 0a52 9F       		.byte	0x9f
 6704 0a53 00000000 		.4byte	0
 6705 0a57 00000000 		.4byte	0
 6706              	.LLST67:
 6707 0a5b 00000000 		.4byte	.LVL132
 6708 0a5f 0B000000 		.4byte	.LVL133-1
 6709 0a63 0100     		.2byte	0x1
 6710 0a65 50       		.byte	0x50
 6711 0a66 0B000000 		.4byte	.LVL133-1
 6712 0a6a 58000000 		.4byte	.LVL139
 6713 0a6e 0100     		.2byte	0x1
 6714 0a70 54       		.byte	0x54
 6715 0a71 58000000 		.4byte	.LVL139
 6716 0a75 68000000 		.4byte	.LFE14
 6717 0a79 0400     		.2byte	0x4
 6718 0a7b F3       		.byte	0xf3
 6719 0a7c 01       		.uleb128 0x1
 6720 0a7d 50       		.byte	0x50
 6721 0a7e 9F       		.byte	0x9f
 6722 0a7f 00000000 		.4byte	0
 6723 0a83 00000000 		.4byte	0
 6724              	.LLST68:
 6725 0a87 00000000 		.4byte	.LVL132
 6726 0a8b 0B000000 		.4byte	.LVL133-1
 6727 0a8f 0100     		.2byte	0x1
 6728 0a91 51       		.byte	0x51
 6729 0a92 0B000000 		.4byte	.LVL133-1
 6730 0a96 68000000 		.4byte	.LFE14
 6731 0a9a 0400     		.2byte	0x4
 6732 0a9c F3       		.byte	0xf3
 6733 0a9d 01       		.uleb128 0x1
 6734 0a9e 51       		.byte	0x51
 6735 0a9f 9F       		.byte	0x9f
 6736 0aa0 00000000 		.4byte	0
 6737 0aa4 00000000 		.4byte	0
 6738              	.LLST69:
 6739 0aa8 00000000 		.4byte	.LVL132
 6740 0aac 0B000000 		.4byte	.LVL133-1
 6741 0ab0 0100     		.2byte	0x1
 6742 0ab2 52       		.byte	0x52
 6743 0ab3 0B000000 		.4byte	.LVL133-1
 6744 0ab7 68000000 		.4byte	.LFE14
 6745 0abb 0400     		.2byte	0x4
ARM GAS  C:\Users\jesse\AppData\Local\Temp\cc9dv931.s 			page 142


 6746 0abd F3       		.byte	0xf3
 6747 0abe 01       		.uleb128 0x1
 6748 0abf 52       		.byte	0x52
 6749 0ac0 9F       		.byte	0x9f
 6750 0ac1 00000000 		.4byte	0
 6751 0ac5 00000000 		.4byte	0
 6752              	.LLST70:
 6753 0ac9 00000000 		.4byte	.LVL132
 6754 0acd 0B000000 		.4byte	.LVL133-1
 6755 0ad1 0100     		.2byte	0x1
 6756 0ad3 53       		.byte	0x53
 6757 0ad4 0B000000 		.4byte	.LVL133-1
 6758 0ad8 68000000 		.4byte	.LFE14
 6759 0adc 0400     		.2byte	0x4
 6760 0ade F3       		.byte	0xf3
 6761 0adf 01       		.uleb128 0x1
 6762 0ae0 53       		.byte	0x53
 6763 0ae1 9F       		.byte	0x9f
 6764 0ae2 00000000 		.4byte	0
 6765 0ae6 00000000 		.4byte	0
 6766              		.section	.debug_aranges,"",%progbits
 6767 0000 8C000000 		.4byte	0x8c
 6768 0004 0200     		.2byte	0x2
 6769 0006 00000000 		.4byte	.Ldebug_info0
 6770 000a 04       		.byte	0x4
 6771 000b 00       		.byte	0
 6772 000c 0000     		.2byte	0
 6773 000e 0000     		.2byte	0
 6774 0010 00000000 		.4byte	.LFB0
 6775 0014 B8000000 		.4byte	.LFE0-.LFB0
 6776 0018 00000000 		.4byte	.LFB1
 6777 001c 68000000 		.4byte	.LFE1-.LFB1
 6778 0020 00000000 		.4byte	.LFB2
 6779 0024 68000000 		.4byte	.LFE2-.LFB2
 6780 0028 00000000 		.4byte	.LFB3
 6781 002c 68000000 		.4byte	.LFE3-.LFB3
 6782 0030 00000000 		.4byte	.LFB4
 6783 0034 68000000 		.4byte	.LFE4-.LFB4
 6784 0038 00000000 		.4byte	.LFB5
 6785 003c 68000000 		.4byte	.LFE5-.LFB5
 6786 0040 00000000 		.4byte	.LFB6
 6787 0044 68000000 		.4byte	.LFE6-.LFB6
 6788 0048 00000000 		.4byte	.LFB7
 6789 004c 04000000 		.4byte	.LFE7-.LFB7
 6790 0050 00000000 		.4byte	.LFB8
 6791 0054 68000000 		.4byte	.LFE8-.LFB8
 6792 0058 00000000 		.4byte	.LFB9
 6793 005c 68000000 		.4byte	.LFE9-.LFB9
 6794 0060 00000000 		.4byte	.LFB10
 6795 0064 68000000 		.4byte	.LFE10-.LFB10
 6796 0068 00000000 		.4byte	.LFB11
 6797 006c 68000000 		.4byte	.LFE11-.LFB11
 6798 0070 00000000 		.4byte	.LFB12
 6799 0074 68000000 		.4byte	.LFE12-.LFB12
 6800 0078 00000000 		.4byte	.LFB13
 6801 007c 68000000 		.4byte	.LFE13-.LFB13
 6802 0080 00000000 		.4byte	.LFB14
ARM GAS  C:\Users\jesse\AppData\Local\Temp\cc9dv931.s 			page 143


 6803 0084 68000000 		.4byte	.LFE14-.LFB14
 6804 0088 00000000 		.4byte	0
 6805 008c 00000000 		.4byte	0
 6806              		.section	.debug_ranges,"",%progbits
 6807              	.Ldebug_ranges0:
 6808 0000 00000000 		.4byte	.LFB0
 6809 0004 B8000000 		.4byte	.LFE0
 6810 0008 00000000 		.4byte	.LFB1
 6811 000c 68000000 		.4byte	.LFE1
 6812 0010 00000000 		.4byte	.LFB2
 6813 0014 68000000 		.4byte	.LFE2
 6814 0018 00000000 		.4byte	.LFB3
 6815 001c 68000000 		.4byte	.LFE3
 6816 0020 00000000 		.4byte	.LFB4
 6817 0024 68000000 		.4byte	.LFE4
 6818 0028 00000000 		.4byte	.LFB5
 6819 002c 68000000 		.4byte	.LFE5
 6820 0030 00000000 		.4byte	.LFB6
 6821 0034 68000000 		.4byte	.LFE6
 6822 0038 00000000 		.4byte	.LFB7
 6823 003c 04000000 		.4byte	.LFE7
 6824 0040 00000000 		.4byte	.LFB8
 6825 0044 68000000 		.4byte	.LFE8
 6826 0048 00000000 		.4byte	.LFB9
 6827 004c 68000000 		.4byte	.LFE9
 6828 0050 00000000 		.4byte	.LFB10
 6829 0054 68000000 		.4byte	.LFE10
 6830 0058 00000000 		.4byte	.LFB11
 6831 005c 68000000 		.4byte	.LFE11
 6832 0060 00000000 		.4byte	.LFB12
 6833 0064 68000000 		.4byte	.LFE12
 6834 0068 00000000 		.4byte	.LFB13
 6835 006c 68000000 		.4byte	.LFE13
 6836 0070 00000000 		.4byte	.LFB14
 6837 0074 68000000 		.4byte	.LFE14
 6838 0078 00000000 		.4byte	0
 6839 007c 00000000 		.4byte	0
 6840              		.section	.debug_line,"",%progbits
 6841              	.Ldebug_line0:
 6842 0000 0A030000 		.section	.debug_str,"MS",%progbits,1
 6842      02004501 
 6842      00000201 
 6842      FB0E0D00 
 6842      01010101 
 6843              	.LASF74:
 6844 0000 75387838 		.ascii	"u8x8_d_st7565_nhd_c12832\000"
 6844      5F645F73 
 6844      74373536 
 6844      355F6E68 
 6844      645F6331 
 6845              	.LASF43:
 6846 0019 72657365 		.ascii	"reset_pulse_width_ms\000"
 6846      745F7075 
 6846      6C73655F 
 6846      77696474 
 6846      685F6D73 
 6847              	.LASF3:
ARM GAS  C:\Users\jesse\AppData\Local\Temp\cc9dv931.s 			page 144


 6848 002e 5F5F7569 		.ascii	"__uint8_t\000"
 6848      6E74385F 
 6848      7400
 6849              	.LASF21:
 6850 0038 62797465 		.ascii	"byte_cb\000"
 6850      5F636200 
 6851              	.LASF120:
 6852 0040 2E2E5C2E 		.ascii	"..\\..\\..\\u8g2\\u8g2\\csrc\\u8x8_d_st7565.c\000"
 6852      2E5C2E2E 
 6852      5C753867 
 6852      325C7538 
 6852      67325C63 
 6853              	.LASF59:
 6854 0068 75387838 		.ascii	"u8x8_tile_struct\000"
 6854      5F74696C 
 6854      655F7374 
 6854      72756374 
 6854      00
 6855              	.LASF10:
 6856 0079 6C6F6E67 		.ascii	"long long unsigned int\000"
 6856      206C6F6E 
 6856      6720756E 
 6856      7369676E 
 6856      65642069 
 6857              	.LASF72:
 6858 0090 75387838 		.ascii	"u8x8_d_st7565_64128n\000"
 6858      5F645F73 
 6858      74373536 
 6858      355F3634 
 6858      3132386E 
 6859              	.LASF106:
 6860 00a5 75387838 		.ascii	"u8x8_st7565_erc12864_display_info\000"
 6860      5F737437 
 6860      3536355F 
 6860      65726331 
 6860      32383634 
 6861              	.LASF44:
 6862 00c7 706F7374 		.ascii	"post_reset_wait_ms\000"
 6862      5F726573 
 6862      65745F77 
 6862      6169745F 
 6862      6D7300
 6863              	.LASF30:
 6864 00da 75746638 		.ascii	"utf8_state\000"
 6864      5F737461 
 6864      746500
 6865              	.LASF87:
 6866 00e5 75387838 		.ascii	"u8x8_d_st7565_flip1_seq\000"
 6866      5F645F73 
 6866      74373536 
 6866      355F666C 
 6866      6970315F 
 6867              	.LASF31:
 6868 00fd 6770696F 		.ascii	"gpio_result\000"
 6868      5F726573 
 6868      756C7400 
 6869              	.LASF9:
ARM GAS  C:\Users\jesse\AppData\Local\Temp\cc9dv931.s 			page 145


 6870 0109 6C6F6E67 		.ascii	"long long int\000"
 6870      206C6F6E 
 6870      6720696E 
 6870      7400
 6871              	.LASF0:
 6872 0117 7369676E 		.ascii	"signed char\000"
 6872      65642063 
 6872      68617200 
 6873              	.LASF119:
 6874 0123 474E5520 		.ascii	"GNU C11 5.4.1 20160609 (release) [ARM/embedded-5-br"
 6874      43313120 
 6874      352E342E 
 6874      31203230 
 6874      31363036 
 6875 0156 616E6368 		.ascii	"anch revision 237715] -mcpu=cortex-m3 -mthumb -g -O"
 6875      20726576 
 6875      6973696F 
 6875      6E203233 
 6875      37373135 
 6876 0189 73202D66 		.ascii	"s -ffunction-sections -ffat-lto-objects\000"
 6876      66756E63 
 6876      74696F6E 
 6876      2D736563 
 6876      74696F6E 
 6877              	.LASF27:
 6878 01b1 69735F66 		.ascii	"is_font_inverse_mode\000"
 6878      6F6E745F 
 6878      696E7665 
 6878      7273655F 
 6878      6D6F6465 
 6879              	.LASF19:
 6880 01c6 64697370 		.ascii	"display_cb\000"
 6880      6C61795F 
 6880      636200
 6881              	.LASF101:
 6882 01d1 75387838 		.ascii	"u8x8_st7565_lm6059_display_info\000"
 6882      5F737437 
 6882      3536355F 
 6882      6C6D3630 
 6882      35395F64 
 6883              	.LASF42:
 6884 01f1 7072655F 		.ascii	"pre_chip_disable_wait_ns\000"
 6884      63686970 
 6884      5F646973 
 6884      61626C65 
 6884      5F776169 
 6885              	.LASF68:
 6886 020a 75387838 		.ascii	"u8x8_d_st7565_common\000"
 6886      5F645F73 
 6886      74373536 
 6886      355F636F 
 6886      6D6D6F6E 
 6887              	.LASF85:
 6888 021f 75387838 		.ascii	"u8x8_d_st7565_powersave1_seq\000"
 6888      5F645F73 
 6888      74373536 
 6888      355F706F 
ARM GAS  C:\Users\jesse\AppData\Local\Temp\cc9dv931.s 			page 146


 6888      77657273 
 6889              	.LASF6:
 6890 023c 6C6F6E67 		.ascii	"long int\000"
 6890      20696E74 
 6890      00
 6891              	.LASF114:
 6892 0245 75387838 		.ascii	"u8x8_cad_SendSequence\000"
 6892      5F636164 
 6892      5F53656E 
 6892      64536571 
 6892      75656E63 
 6893              	.LASF13:
 6894 025b 75696E74 		.ascii	"uint16_t\000"
 6894      31365F74 
 6894      00
 6895              	.LASF18:
 6896 0264 6E657874 		.ascii	"next_cb\000"
 6896      5F636200 
 6897              	.LASF64:
 6898 026c 75387838 		.ascii	"u8x8_char_cb\000"
 6898      5F636861 
 6898      725F6362 
 6898      00
 6899              	.LASF22:
 6900 0279 6770696F 		.ascii	"gpio_and_delay_cb\000"
 6900      5F616E64 
 6900      5F64656C 
 6900      61795F63 
 6900      6200
 6901              	.LASF107:
 6902 028b 75387838 		.ascii	"u8x8_d_st7565_erc12864_alt_init_seq\000"
 6902      5F645F73 
 6902      74373536 
 6902      355F6572 
 6902      63313238 
 6903              	.LASF76:
 6904 02af 75387838 		.ascii	"u8x8_d_st7565_lm6059\000"
 6904      5F645F73 
 6904      74373536 
 6904      355F6C6D 
 6904      36303539 
 6905              	.LASF36:
 6906 02c4 75387838 		.ascii	"u8x8_display_info_t\000"
 6906      5F646973 
 6906      706C6179 
 6906      5F696E66 
 6906      6F5F7400 
 6907              	.LASF121:
 6908 02d8 433A5C55 		.ascii	"C:\\Users\\jesse\\OneDrive\\Bureaublad\\practice_em"
 6908      73657273 
 6908      5C6A6573 
 6908      73655C4F 
 6908      6E654472 
 6909 0306 62656464 		.ascii	"bedded\\Practice_EmbeddedProgramming\\Display_count"
 6909      65645C50 
 6909      72616374 
 6909      6963655F 
ARM GAS  C:\Users\jesse\AppData\Local\Temp\cc9dv931.s 			page 147


 6909      456D6265 
 6910 0337 2E637964 		.ascii	".cydsn\000"
 6910      736E00
 6911              	.LASF7:
 6912 033e 5F5F7569 		.ascii	"__uint32_t\000"
 6912      6E743332 
 6912      5F7400
 6913              	.LASF70:
 6914 0349 75387838 		.ascii	"u8x8_d_st7565_ea_dogm128\000"
 6914      5F645F73 
 6914      74373536 
 6914      355F6561 
 6914      5F646F67 
 6915              	.LASF45:
 6916 0362 7364615F 		.ascii	"sda_setup_time_ns\000"
 6916      73657475 
 6916      705F7469 
 6916      6D655F6E 
 6916      7300
 6917              	.LASF117:
 6918 0374 75387838 		.ascii	"u8x8_d_helper_display_setup_memory\000"
 6918      5F645F68 
 6918      656C7065 
 6918      725F6469 
 6918      73706C61 
 6919              	.LASF61:
 6920 0397 785F706F 		.ascii	"x_pos\000"
 6920      7300
 6921              	.LASF58:
 6922 039d 75387838 		.ascii	"u8x8_tile_t\000"
 6922      5F74696C 
 6922      655F7400 
 6923              	.LASF35:
 6924 03a9 6465626F 		.ascii	"debounce_result_msg\000"
 6924      756E6365 
 6924      5F726573 
 6924      756C745F 
 6924      6D736700 
 6925              	.LASF11:
 6926 03bd 756E7369 		.ascii	"unsigned int\000"
 6926      676E6564 
 6926      20696E74 
 6926      00
 6927              	.LASF66:
 6928 03ca 6172675F 		.ascii	"arg_int\000"
 6928      696E7400 
 6929              	.LASF28:
 6930 03d2 6932635F 		.ascii	"i2c_address\000"
 6930      61646472 
 6930      65737300 
 6931              	.LASF8:
 6932 03de 6C6F6E67 		.ascii	"long unsigned int\000"
 6932      20756E73 
 6932      69676E65 
 6932      6420696E 
 6932      7400
 6933              	.LASF95:
ARM GAS  C:\Users\jesse\AppData\Local\Temp\cc9dv931.s 			page 148


 6934 03f0 75387838 		.ascii	"u8x8_d_st7565_zolen_128x64_init_seq\000"
 6934      5F645F73 
 6934      74373536 
 6934      355F7A6F 
 6934      6C656E5F 
 6935              	.LASF89:
 6936 0414 75387838 		.ascii	"u8x8_d_st7565_zflip1_seq\000"
 6936      5F645F73 
 6936      74373536 
 6936      355F7A66 
 6936      6C697031 
 6937              	.LASF110:
 6938 042d 75387838 		.ascii	"u8x8_d_st7565_dogm132_init_seq\000"
 6938      5F645F73 
 6938      74373536 
 6938      355F646F 
 6938      676D3133 
 6939              	.LASF90:
 6940 044c 75387838 		.ascii	"u8x8_st7565_128x64_display_info\000"
 6940      5F737437 
 6940      3536355F 
 6940      31323878 
 6940      36345F64 
 6941              	.LASF93:
 6942 046c 75387838 		.ascii	"u8x8_d_st7565_64128n_init_seq\000"
 6942      5F645F73 
 6942      74373536 
 6942      355F3634 
 6942      3132386E 
 6943              	.LASF113:
 6944 048a 75387838 		.ascii	"u8x8_cad_SendData\000"
 6944      5F636164 
 6944      5F53656E 
 6944      64446174 
 6944      6100
 6945              	.LASF71:
 6946 049c 75387838 		.ascii	"u8x8_d_st7565_lm6063\000"
 6946      5F645F73 
 6946      74373536 
 6946      355F6C6D 
 6946      36303633 
 6947              	.LASF5:
 6948 04b1 73686F72 		.ascii	"short unsigned int\000"
 6948      7420756E 
 6948      7369676E 
 6948      65642069 
 6948      6E7400
 6949              	.LASF69:
 6950 04c4 75387838 		.ascii	"u8x8_d_st7565_nhd_c12864\000"
 6950      5F645F73 
 6950      74373536 
 6950      355F6E68 
 6950      645F6331 
 6951              	.LASF82:
 6952 04dd 75387838 		.ascii	"u8x8_d_st7565_ea_dogm132\000"
 6952      5F645F73 
 6952      74373536 
ARM GAS  C:\Users\jesse\AppData\Local\Temp\cc9dv931.s 			page 149


 6952      355F6561 
 6952      5F646F67 
 6953              	.LASF98:
 6954 04f6 75387838 		.ascii	"u8x8_st7565_nhd_c12864_display_info\000"
 6954      5F737437 
 6954      3536355F 
 6954      6E68645F 
 6954      63313238 
 6955              	.LASF33:
 6956 051a 6465626F 		.ascii	"debounce_last_pin_state\000"
 6956      756E6365 
 6956      5F6C6173 
 6956      745F7069 
 6956      6E5F7374 
 6957              	.LASF17:
 6958 0532 64697370 		.ascii	"display_info\000"
 6958      6C61795F 
 6958      696E666F 
 6958      00
 6959              	.LASF46:
 6960 053f 73636B5F 		.ascii	"sck_pulse_width_ns\000"
 6960      70756C73 
 6960      655F7769 
 6960      6474685F 
 6960      6E7300
 6961              	.LASF37:
 6962 0552 75387838 		.ascii	"u8x8_struct\000"
 6962      5F737472 
 6962      75637400 
 6963              	.LASF84:
 6964 055e 75387838 		.ascii	"u8x8_d_st7565_powersave0_seq\000"
 6964      5F645F73 
 6964      74373536 
 6964      355F706F 
 6964      77657273 
 6965              	.LASF54:
 6966 057b 64656661 		.ascii	"default_x_offset\000"
 6966      756C745F 
 6966      785F6F66 
 6966      66736574 
 6966      00
 6967              	.LASF25:
 6968 058c 656E636F 		.ascii	"encoding\000"
 6968      64696E67 
 6968      00
 6969              	.LASF77:
 6970 0595 75387838 		.ascii	"u8x8_d_st7565_ks0713\000"
 6970      5F645F73 
 6970      74373536 
 6970      355F6B73 
 6970      30373133 
 6971              	.LASF55:
 6972 05aa 666C6970 		.ascii	"flipmode_x_offset\000"
 6972      6D6F6465 
 6972      5F785F6F 
 6972      66667365 
 6972      7400
ARM GAS  C:\Users\jesse\AppData\Local\Temp\cc9dv931.s 			page 150


 6973              	.LASF86:
 6974 05bc 75387838 		.ascii	"u8x8_d_st7565_flip0_seq\000"
 6974      5F645F73 
 6974      74373536 
 6974      355F666C 
 6974      6970305F 
 6975              	.LASF83:
 6976 05d4 73697A65 		.ascii	"sizetype\000"
 6976      74797065 
 6976      00
 6977              	.LASF15:
 6978 05dd 6C6F6E67 		.ascii	"long double\000"
 6978      20646F75 
 6978      626C6500 
 6979              	.LASF20:
 6980 05e9 6361645F 		.ascii	"cad_cb\000"
 6980      636200
 6981              	.LASF51:
 6982 05f0 77726974 		.ascii	"write_pulse_width_ns\000"
 6982      655F7075 
 6982      6C73655F 
 6982      77696474 
 6982      685F6E73 
 6983              	.LASF100:
 6984 0605 75387838 		.ascii	"u8x8_d_st7565_lm6059_init_seq\000"
 6984      5F645F73 
 6984      74373536 
 6984      355F6C6D 
 6984      36303539 
 6985              	.LASF26:
 6986 0623 785F6F66 		.ascii	"x_offset\000"
 6986      66736574 
 6986      00
 6987              	.LASF118:
 6988 062c 75387838 		.ascii	"u8x8_d_helper_display_init\000"
 6988      5F645F68 
 6988      656C7065 
 6988      725F6469 
 6988      73706C61 
 6989              	.LASF99:
 6990 0647 75387838 		.ascii	"u8x8_d_st7565_nhd_c12864_init_seq\000"
 6990      5F645F73 
 6990      74373536 
 6990      355F6E68 
 6990      645F6331 
 6991              	.LASF53:
 6992 0669 74696C65 		.ascii	"tile_height\000"
 6992      5F686569 
 6992      67687400 
 6993              	.LASF102:
 6994 0675 75387838 		.ascii	"u8x8_d_st7565_ks0713_init_seq\000"
 6994      5F645F73 
 6994      74373536 
 6994      355F6B73 
 6994      30373133 
 6995              	.LASF63:
 6996 0693 75387838 		.ascii	"u8x8_msg_cb\000"
ARM GAS  C:\Users\jesse\AppData\Local\Temp\cc9dv931.s 			page 151


 6996      5F6D7367 
 6996      5F636200 
 6997              	.LASF81:
 6998 069f 75387838 		.ascii	"u8x8_d_nt7534_tg12864r\000"
 6998      5F645F6E 
 6998      74373533 
 6998      345F7467 
 6998      31323836 
 6999              	.LASF1:
 7000 06b6 756E7369 		.ascii	"unsigned char\000"
 7000      676E6564 
 7000      20636861 
 7000      7200
 7001              	.LASF97:
 7002 06c4 75387838 		.ascii	"u8x8_d_st7565_nhd_c12832_init_seq\000"
 7002      5F645F73 
 7002      74373536 
 7002      355F6E68 
 7002      645F6331 
 7003              	.LASF2:
 7004 06e6 73686F72 		.ascii	"short int\000"
 7004      7420696E 
 7004      7400
 7005              	.LASF65:
 7006 06f0 75387838 		.ascii	"u8x8\000"
 7006      00
 7007              	.LASF96:
 7008 06f5 75387838 		.ascii	"u8x8_st7565_128x32_display_info\000"
 7008      5F737437 
 7008      3536355F 
 7008      31323878 
 7008      33325F64 
 7009              	.LASF79:
 7010 0715 75387838 		.ascii	"u8x8_d_st7565_erc12864\000"
 7010      5F645F73 
 7010      74373536 
 7010      355F6572 
 7010      63313238 
 7011              	.LASF50:
 7012 072c 64617461 		.ascii	"data_setup_time_ns\000"
 7012      5F736574 
 7012      75705F74 
 7012      696D655F 
 7012      6E7300
 7013              	.LASF49:
 7014 073f 6932635F 		.ascii	"i2c_bus_clock_100kHz\000"
 7014      6275735F 
 7014      636C6F63 
 7014      6B5F3130 
 7014      306B487A 
 7015              	.LASF14:
 7016 0754 75696E74 		.ascii	"uint32_t\000"
 7016      33325F74 
 7016      00
 7017              	.LASF111:
 7018 075d 75387838 		.ascii	"u8x8_cad_StartTransfer\000"
 7018      5F636164 
ARM GAS  C:\Users\jesse\AppData\Local\Temp\cc9dv931.s 			page 152


 7018      5F537461 
 7018      72745472 
 7018      616E7366 
 7019              	.LASF80:
 7020 0774 75387838 		.ascii	"u8x8_d_st7565_erc12864_alt\000"
 7020      5F645F73 
 7020      74373536 
 7020      355F6572 
 7020      63313238 
 7021              	.LASF48:
 7022 078f 7370695F 		.ascii	"spi_mode\000"
 7022      6D6F6465 
 7022      00
 7023              	.LASF39:
 7024 0798 63686970 		.ascii	"chip_enable_level\000"
 7024      5F656E61 
 7024      626C655F 
 7024      6C657665 
 7024      6C00
 7025              	.LASF60:
 7026 07aa 74696C65 		.ascii	"tile_ptr\000"
 7026      5F707472 
 7026      00
 7027              	.LASF4:
 7028 07b3 5F5F7569 		.ascii	"__uint16_t\000"
 7028      6E743136 
 7028      5F7400
 7029              	.LASF116:
 7030 07be 75387838 		.ascii	"u8x8_cad_EndTransfer\000"
 7030      5F636164 
 7030      5F456E64 
 7030      5472616E 
 7030      73666572 
 7031              	.LASF41:
 7032 07d3 706F7374 		.ascii	"post_chip_enable_wait_ns\000"
 7032      5F636869 
 7032      705F656E 
 7032      61626C65 
 7032      5F776169 
 7033              	.LASF75:
 7034 07ec 75387838 		.ascii	"u8x8_d_st7565_jlx12864\000"
 7034      5F645F73 
 7034      74373536 
 7034      355F6A6C 
 7034      78313238 
 7035              	.LASF16:
 7036 0803 75387838 		.ascii	"u8x8_t\000"
 7036      5F7400
 7037              	.LASF23:
 7038 080a 6275735F 		.ascii	"bus_clock\000"
 7038      636C6F63 
 7038      6B00
 7039              	.LASF34:
 7040 0814 6465626F 		.ascii	"debounce_state\000"
 7040      756E6365 
 7040      5F737461 
 7040      746500
ARM GAS  C:\Users\jesse\AppData\Local\Temp\cc9dv931.s 			page 153


 7041              	.LASF67:
 7042 0823 6172675F 		.ascii	"arg_ptr\000"
 7042      70747200 
 7043              	.LASF40:
 7044 082b 63686970 		.ascii	"chip_disable_level\000"
 7044      5F646973 
 7044      61626C65 
 7044      5F6C6576 
 7044      656C00
 7045              	.LASF24:
 7046 083e 666F6E74 		.ascii	"font\000"
 7046      00
 7047              	.LASF73:
 7048 0843 75387838 		.ascii	"u8x8_d_st7565_zolen_128x64\000"
 7048      5F645F73 
 7048      74373536 
 7048      355F7A6F 
 7048      6C656E5F 
 7049              	.LASF104:
 7050 085e 75387838 		.ascii	"u8x8_st7565_lx12864_display_info\000"
 7050      5F737437 
 7050      3536355F 
 7050      6C783132 
 7050      3836345F 
 7051              	.LASF12:
 7052 087f 75696E74 		.ascii	"uint8_t\000"
 7052      385F7400 
 7053              	.LASF29:
 7054 0887 6932635F 		.ascii	"i2c_started\000"
 7054      73746172 
 7054      74656400 
 7055              	.LASF88:
 7056 0893 75387838 		.ascii	"u8x8_d_st7565_zflip0_seq\000"
 7056      5F645F73 
 7056      74373536 
 7056      355F7A66 
 7056      6C697030 
 7057              	.LASF56:
 7058 08ac 70697865 		.ascii	"pixel_width\000"
 7058      6C5F7769 
 7058      64746800 
 7059              	.LASF108:
 7060 08b8 75387838 		.ascii	"u8x8_d_nt7534_tg12864r_init_seq\000"
 7060      5F645F6E 
 7060      74373533 
 7060      345F7467 
 7060      31323836 
 7061              	.LASF109:
 7062 08d8 75387838 		.ascii	"u8x8_st7565_dogm132_display_info\000"
 7062      5F737437 
 7062      3536355F 
 7062      646F676D 
 7062      3133325F 
 7063              	.LASF52:
 7064 08f9 74696C65 		.ascii	"tile_width\000"
 7064      5F776964 
 7064      746800
ARM GAS  C:\Users\jesse\AppData\Local\Temp\cc9dv931.s 			page 154


 7065              	.LASF32:
 7066 0904 6465626F 		.ascii	"debounce_default_pin_state\000"
 7066      756E6365 
 7066      5F646566 
 7066      61756C74 
 7066      5F70696E 
 7067              	.LASF62:
 7068 091f 795F706F 		.ascii	"y_pos\000"
 7068      7300
 7069              	.LASF112:
 7070 0925 75387838 		.ascii	"u8x8_cad_SendCmd\000"
 7070      5F636164 
 7070      5F53656E 
 7070      64436D64 
 7070      00
 7071              	.LASF91:
 7072 0936 75387838 		.ascii	"u8x8_d_st7565_dogm128_init_seq\000"
 7072      5F645F73 
 7072      74373536 
 7072      355F646F 
 7072      676D3132 
 7073              	.LASF38:
 7074 0955 75387838 		.ascii	"u8x8_display_info_struct\000"
 7074      5F646973 
 7074      706C6179 
 7074      5F696E66 
 7074      6F5F7374 
 7075              	.LASF94:
 7076 096e 75387838 		.ascii	"u8x8_st7565_64128n_display_info\000"
 7076      5F737437 
 7076      3536355F 
 7076      36343132 
 7076      386E5F64 
 7077              	.LASF115:
 7078 098e 75387838 		.ascii	"u8x8_cad_SendArg\000"
 7078      5F636164 
 7078      5F53656E 
 7078      64417267 
 7078      00
 7079              	.LASF78:
 7080 099f 75387838 		.ascii	"u8x8_d_st7565_lx12864\000"
 7080      5F645F73 
 7080      74373536 
 7080      355F6C78 
 7080      31323836 
 7081              	.LASF105:
 7082 09b5 75387838 		.ascii	"u8x8_d_st7565_erc12864_init_seq\000"
 7082      5F645F73 
 7082      74373536 
 7082      355F6572 
 7082      63313238 
 7083              	.LASF103:
 7084 09d5 75387838 		.ascii	"u8x8_d_st7565_lx12864_init_seq\000"
 7084      5F645F73 
 7084      74373536 
 7084      355F6C78 
 7084      31323836 
ARM GAS  C:\Users\jesse\AppData\Local\Temp\cc9dv931.s 			page 155


 7085              	.LASF57:
 7086 09f4 70697865 		.ascii	"pixel_height\000"
 7086      6C5F6865 
 7086      69676874 
 7086      00
 7087              	.LASF47:
 7088 0a01 73636B5F 		.ascii	"sck_clock_hz\000"
 7088      636C6F63 
 7088      6B5F687A 
 7088      00
 7089              	.LASF92:
 7090 0a0e 75387838 		.ascii	"u8x8_d_st7565_lm6063_init_seq\000"
 7090      5F645F73 
 7090      74373536 
 7090      355F6C6D 
 7090      36303633 
 7091              		.ident	"GCC: (GNU Tools for ARM Embedded Processors) 5.4.1 20160609 (release) [ARM/embedded-5-bran
