ARM GAS  C:\Users\jesse\AppData\Local\Temp\ccqYAkvC.s 			page 1


   1              		.syntax unified
   2              		.cpu cortex-m3
   3              		.fpu softvfp
   4              		.eabi_attribute 20, 1
   5              		.eabi_attribute 21, 1
   6              		.eabi_attribute 23, 3
   7              		.eabi_attribute 24, 1
   8              		.eabi_attribute 25, 1
   9              		.eabi_attribute 26, 1
  10              		.eabi_attribute 30, 4
  11              		.eabi_attribute 34, 1
  12              		.eabi_attribute 18, 4
  13              		.thumb
  14              		.syntax unified
  15              		.file	"u8x8_d_st7588.c"
  16              		.text
  17              	.Ltext0:
  18              		.cfi_sections	.debug_frame
  19              		.section	.text.u8x8_d_st7588_jlx12864,"ax",%progbits
  20              		.align	1
  21              		.global	u8x8_d_st7588_jlx12864
  22              		.thumb
  23              		.thumb_func
  24              		.type	u8x8_d_st7588_jlx12864, %function
  25              	u8x8_d_st7588_jlx12864:
  26              	.LFB1:
  27              		.file 1 "..\\..\\..\\u8g2\\u8g2\\csrc\\u8x8_d_st7588.c"
   1:..\..\..\u8g2\u8g2\csrc/u8x8_d_st7588.c **** /*
   2:..\..\..\u8g2\u8g2\csrc/u8x8_d_st7588.c **** 
   3:..\..\..\u8g2\u8g2\csrc/u8x8_d_st7588.c ****   u8x8_d_st7588.c
   4:..\..\..\u8g2\u8g2\csrc/u8x8_d_st7588.c **** 
   5:..\..\..\u8g2\u8g2\csrc/u8x8_d_st7588.c ****   Universal 8bit Graphics Library (https://github.com/olikraus/u8g2/)
   6:..\..\..\u8g2\u8g2\csrc/u8x8_d_st7588.c **** 
   7:..\..\..\u8g2\u8g2\csrc/u8x8_d_st7588.c ****   Copyright (c) 2017, olikraus@gmail.com
   8:..\..\..\u8g2\u8g2\csrc/u8x8_d_st7588.c ****   All rights reserved.
   9:..\..\..\u8g2\u8g2\csrc/u8x8_d_st7588.c **** 
  10:..\..\..\u8g2\u8g2\csrc/u8x8_d_st7588.c ****   Redistribution and use in source and binary forms, with or without modification, 
  11:..\..\..\u8g2\u8g2\csrc/u8x8_d_st7588.c ****   are permitted provided that the following conditions are met:
  12:..\..\..\u8g2\u8g2\csrc/u8x8_d_st7588.c **** 
  13:..\..\..\u8g2\u8g2\csrc/u8x8_d_st7588.c ****   * Redistributions of source code must retain the above copyright notice, this list 
  14:..\..\..\u8g2\u8g2\csrc/u8x8_d_st7588.c ****     of conditions and the following disclaimer.
  15:..\..\..\u8g2\u8g2\csrc/u8x8_d_st7588.c ****     
  16:..\..\..\u8g2\u8g2\csrc/u8x8_d_st7588.c ****   * Redistributions in binary form must reproduce the above copyright notice, this 
  17:..\..\..\u8g2\u8g2\csrc/u8x8_d_st7588.c ****     list of conditions and the following disclaimer in the documentation and/or other 
  18:..\..\..\u8g2\u8g2\csrc/u8x8_d_st7588.c ****     materials provided with the distribution.
  19:..\..\..\u8g2\u8g2\csrc/u8x8_d_st7588.c **** 
  20:..\..\..\u8g2\u8g2\csrc/u8x8_d_st7588.c ****   THIS SOFTWARE IS PROVIDED BY THE COPYRIGHT HOLDERS AND 
  21:..\..\..\u8g2\u8g2\csrc/u8x8_d_st7588.c ****   CONTRIBUTORS "AS IS" AND ANY EXPRESS OR IMPLIED WARRANTIES, 
  22:..\..\..\u8g2\u8g2\csrc/u8x8_d_st7588.c ****   INCLUDING, BUT NOT LIMITED TO, THE IMPLIED WARRANTIES OF 
  23:..\..\..\u8g2\u8g2\csrc/u8x8_d_st7588.c ****   MERCHANTABILITY AND FITNESS FOR A PARTICULAR PURPOSE ARE 
  24:..\..\..\u8g2\u8g2\csrc/u8x8_d_st7588.c ****   DISCLAIMED. IN NO EVENT SHALL THE COPYRIGHT HOLDER OR 
  25:..\..\..\u8g2\u8g2\csrc/u8x8_d_st7588.c ****   CONTRIBUTORS BE LIABLE FOR ANY DIRECT, INDIRECT, INCIDENTAL, 
  26:..\..\..\u8g2\u8g2\csrc/u8x8_d_st7588.c ****   SPECIAL, EXEMPLARY, OR CONSEQUENTIAL DAMAGES (INCLUDING, BUT 
  27:..\..\..\u8g2\u8g2\csrc/u8x8_d_st7588.c ****   NOT LIMITED TO, PROCUREMENT OF SUBSTITUTE GOODS OR SERVICES; 
  28:..\..\..\u8g2\u8g2\csrc/u8x8_d_st7588.c ****   LOSS OF USE, DATA, OR PROFITS; OR BUSINESS INTERRUPTION) HOWEVER 
  29:..\..\..\u8g2\u8g2\csrc/u8x8_d_st7588.c ****   CAUSED AND ON ANY THEORY OF LIABILITY, WHETHER IN CONTRACT, 
  30:..\..\..\u8g2\u8g2\csrc/u8x8_d_st7588.c ****   STRICT LIABILITY, OR TORT (INCLUDING NEGLIGENCE OR OTHERWISE) 
ARM GAS  C:\Users\jesse\AppData\Local\Temp\ccqYAkvC.s 			page 2


  31:..\..\..\u8g2\u8g2\csrc/u8x8_d_st7588.c ****   ARISING IN ANY WAY OUT OF THE USE OF THIS SOFTWARE, EVEN IF 
  32:..\..\..\u8g2\u8g2\csrc/u8x8_d_st7588.c ****   ADVISED OF THE POSSIBILITY OF SUCH DAMAGE.  
  33:..\..\..\u8g2\u8g2\csrc/u8x8_d_st7588.c ****   
  34:..\..\..\u8g2\u8g2\csrc/u8x8_d_st7588.c ****   ST7588
  35:..\..\..\u8g2\u8g2\csrc/u8x8_d_st7588.c ****     - has 4 different I2C addresses 
  36:..\..\..\u8g2\u8g2\csrc/u8x8_d_st7588.c ****     - I2C protocol is identical to SSD13xx
  37:..\..\..\u8g2\u8g2\csrc/u8x8_d_st7588.c ****   
  38:..\..\..\u8g2\u8g2\csrc/u8x8_d_st7588.c **** */
  39:..\..\..\u8g2\u8g2\csrc/u8x8_d_st7588.c **** 
  40:..\..\..\u8g2\u8g2\csrc/u8x8_d_st7588.c **** 
  41:..\..\..\u8g2\u8g2\csrc/u8x8_d_st7588.c **** #include "u8x8.h"
  42:..\..\..\u8g2\u8g2\csrc/u8x8_d_st7588.c **** 
  43:..\..\..\u8g2\u8g2\csrc/u8x8_d_st7588.c **** /* function set, bit 2: power down, bit 3: MY, bit 4: MX, bit 5: must be 1 */
  44:..\..\..\u8g2\u8g2\csrc/u8x8_d_st7588.c **** #define FS (0x020)
  45:..\..\..\u8g2\u8g2\csrc/u8x8_d_st7588.c **** 
  46:..\..\..\u8g2\u8g2\csrc/u8x8_d_st7588.c **** /* not a real power down for the ST7588... just a display off */
  47:..\..\..\u8g2\u8g2\csrc/u8x8_d_st7588.c **** static const uint8_t u8x8_d_st7588_128x64_powersave0_seq[] = {
  48:..\..\..\u8g2\u8g2\csrc/u8x8_d_st7588.c ****   U8X8_START_TRANSFER(),             	/* enable chip, delay is part of the transfer start */
  49:..\..\..\u8g2\u8g2\csrc/u8x8_d_st7588.c ****   U8X8_C( FS | 0x00 ),			/* select 00 commands */
  50:..\..\..\u8g2\u8g2\csrc/u8x8_d_st7588.c ****   //U8X8_C( 0x08 ),				/* display off */
  51:..\..\..\u8g2\u8g2\csrc/u8x8_d_st7588.c ****   U8X8_C( 0x0c ),				/* display on */
  52:..\..\..\u8g2\u8g2\csrc/u8x8_d_st7588.c ****   U8X8_END_TRANSFER(),             	/* disable chip */
  53:..\..\..\u8g2\u8g2\csrc/u8x8_d_st7588.c ****   U8X8_END()             			/* end of sequence */
  54:..\..\..\u8g2\u8g2\csrc/u8x8_d_st7588.c **** };
  55:..\..\..\u8g2\u8g2\csrc/u8x8_d_st7588.c **** 
  56:..\..\..\u8g2\u8g2\csrc/u8x8_d_st7588.c **** static const uint8_t u8x8_d_st7588_128x64_powersave1_seq[] = {
  57:..\..\..\u8g2\u8g2\csrc/u8x8_d_st7588.c ****   U8X8_START_TRANSFER(),             	/* enable chip, delay is part of the transfer start */
  58:..\..\..\u8g2\u8g2\csrc/u8x8_d_st7588.c ****   U8X8_C( FS | 0x00 ),			/* select 00 commands */
  59:..\..\..\u8g2\u8g2\csrc/u8x8_d_st7588.c ****   U8X8_C( 0x08 ),				/* display off */
  60:..\..\..\u8g2\u8g2\csrc/u8x8_d_st7588.c ****   //U8X8_C( 0x0c ),				/* display on */
  61:..\..\..\u8g2\u8g2\csrc/u8x8_d_st7588.c ****   U8X8_END_TRANSFER(),             	/* disable chip */
  62:..\..\..\u8g2\u8g2\csrc/u8x8_d_st7588.c ****   U8X8_END()             			/* end of sequence */
  63:..\..\..\u8g2\u8g2\csrc/u8x8_d_st7588.c **** };
  64:..\..\..\u8g2\u8g2\csrc/u8x8_d_st7588.c **** 
  65:..\..\..\u8g2\u8g2\csrc/u8x8_d_st7588.c **** 
  66:..\..\..\u8g2\u8g2\csrc/u8x8_d_st7588.c **** 
  67:..\..\..\u8g2\u8g2\csrc/u8x8_d_st7588.c **** 
  68:..\..\..\u8g2\u8g2\csrc/u8x8_d_st7588.c **** static uint8_t u8x8_d_st7588_128x64_generic(u8x8_t *u8x8, uint8_t msg, uint8_t arg_int, void *arg_p
  69:..\..\..\u8g2\u8g2\csrc/u8x8_d_st7588.c **** {
  70:..\..\..\u8g2\u8g2\csrc/u8x8_d_st7588.c ****   uint8_t x, c;
  71:..\..\..\u8g2\u8g2\csrc/u8x8_d_st7588.c ****   uint8_t *ptr;
  72:..\..\..\u8g2\u8g2\csrc/u8x8_d_st7588.c ****   switch(msg)
  73:..\..\..\u8g2\u8g2\csrc/u8x8_d_st7588.c ****   {
  74:..\..\..\u8g2\u8g2\csrc/u8x8_d_st7588.c ****     /* handled by the calling function
  75:..\..\..\u8g2\u8g2\csrc/u8x8_d_st7588.c ****     case U8X8_MSG_DISPLAY_SETUP_MEMORY:
  76:..\..\..\u8g2\u8g2\csrc/u8x8_d_st7588.c ****       u8x8_d_helper_display_setup_memory(u8x8, &u8x8_st7588_128x64_display_info);
  77:..\..\..\u8g2\u8g2\csrc/u8x8_d_st7588.c ****       break;
  78:..\..\..\u8g2\u8g2\csrc/u8x8_d_st7588.c ****     */
  79:..\..\..\u8g2\u8g2\csrc/u8x8_d_st7588.c ****     /* handled by the calling function
  80:..\..\..\u8g2\u8g2\csrc/u8x8_d_st7588.c ****     case U8X8_MSG_DISPLAY_INIT:
  81:..\..\..\u8g2\u8g2\csrc/u8x8_d_st7588.c ****       u8x8_d_helper_display_init(u8x8);
  82:..\..\..\u8g2\u8g2\csrc/u8x8_d_st7588.c ****       u8x8_cad_SendSequence(u8x8, u8x8_d_st7588_128x64_init_seq);    
  83:..\..\..\u8g2\u8g2\csrc/u8x8_d_st7588.c ****       break;
  84:..\..\..\u8g2\u8g2\csrc/u8x8_d_st7588.c ****     */
  85:..\..\..\u8g2\u8g2\csrc/u8x8_d_st7588.c ****     case U8X8_MSG_DISPLAY_SET_POWER_SAVE:
  86:..\..\..\u8g2\u8g2\csrc/u8x8_d_st7588.c ****       if ( arg_int == 0 )
  87:..\..\..\u8g2\u8g2\csrc/u8x8_d_st7588.c **** 	u8x8_cad_SendSequence(u8x8, u8x8_d_st7588_128x64_powersave0_seq);
ARM GAS  C:\Users\jesse\AppData\Local\Temp\ccqYAkvC.s 			page 3


  88:..\..\..\u8g2\u8g2\csrc/u8x8_d_st7588.c ****       else
  89:..\..\..\u8g2\u8g2\csrc/u8x8_d_st7588.c **** 	u8x8_cad_SendSequence(u8x8, u8x8_d_st7588_128x64_powersave1_seq);
  90:..\..\..\u8g2\u8g2\csrc/u8x8_d_st7588.c **** 
  91:..\..\..\u8g2\u8g2\csrc/u8x8_d_st7588.c ****       /* restore orientation */
  92:..\..\..\u8g2\u8g2\csrc/u8x8_d_st7588.c ****       if ( u8x8->x_offset == 0 )
  93:..\..\..\u8g2\u8g2\csrc/u8x8_d_st7588.c **** 	u8x8_cad_SendCmd(u8x8, FS );	/* select 00 commands */
  94:..\..\..\u8g2\u8g2\csrc/u8x8_d_st7588.c ****       else
  95:..\..\..\u8g2\u8g2\csrc/u8x8_d_st7588.c **** 	u8x8_cad_SendCmd(u8x8, FS ^ 0x018 );	/* select 00 commands */
  96:..\..\..\u8g2\u8g2\csrc/u8x8_d_st7588.c ****       
  97:..\..\..\u8g2\u8g2\csrc/u8x8_d_st7588.c ****       break;
  98:..\..\..\u8g2\u8g2\csrc/u8x8_d_st7588.c **** #ifdef U8X8_WITH_SET_CONTRAST
  99:..\..\..\u8g2\u8g2\csrc/u8x8_d_st7588.c ****     case U8X8_MSG_DISPLAY_SET_CONTRAST:
 100:..\..\..\u8g2\u8g2\csrc/u8x8_d_st7588.c **** 
 101:..\..\..\u8g2\u8g2\csrc/u8x8_d_st7588.c ****       u8x8_cad_StartTransfer(u8x8);
 102:..\..\..\u8g2\u8g2\csrc/u8x8_d_st7588.c ****       
 103:..\..\..\u8g2\u8g2\csrc/u8x8_d_st7588.c ****       u8x8_cad_SendCmd(u8x8, FS );
 104:..\..\..\u8g2\u8g2\csrc/u8x8_d_st7588.c ****       u8x8_cad_SendArg(u8x8, 4 | (arg_int>>7) );
 105:..\..\..\u8g2\u8g2\csrc/u8x8_d_st7588.c ****       u8x8_cad_SendCmd(u8x8, FS | 1);
 106:..\..\..\u8g2\u8g2\csrc/u8x8_d_st7588.c ****       u8x8_cad_SendArg(u8x8, 0x080 | arg_int );
 107:..\..\..\u8g2\u8g2\csrc/u8x8_d_st7588.c ****       
 108:..\..\..\u8g2\u8g2\csrc/u8x8_d_st7588.c ****       /* restore orientation */
 109:..\..\..\u8g2\u8g2\csrc/u8x8_d_st7588.c ****       if ( u8x8->x_offset == 0 )
 110:..\..\..\u8g2\u8g2\csrc/u8x8_d_st7588.c **** 	u8x8_cad_SendCmd(u8x8, FS );	/* select 00 commands */
 111:..\..\..\u8g2\u8g2\csrc/u8x8_d_st7588.c ****       else
 112:..\..\..\u8g2\u8g2\csrc/u8x8_d_st7588.c **** 	u8x8_cad_SendCmd(u8x8, FS ^ 0x018 );	/* select 00 commands */
 113:..\..\..\u8g2\u8g2\csrc/u8x8_d_st7588.c ****       u8x8_cad_EndTransfer(u8x8);
 114:..\..\..\u8g2\u8g2\csrc/u8x8_d_st7588.c ****       break;
 115:..\..\..\u8g2\u8g2\csrc/u8x8_d_st7588.c **** #endif
 116:..\..\..\u8g2\u8g2\csrc/u8x8_d_st7588.c ****     case U8X8_MSG_DISPLAY_DRAW_TILE:
 117:..\..\..\u8g2\u8g2\csrc/u8x8_d_st7588.c ****       
 118:..\..\..\u8g2\u8g2\csrc/u8x8_d_st7588.c ****       u8x8_cad_StartTransfer(u8x8);
 119:..\..\..\u8g2\u8g2\csrc/u8x8_d_st7588.c ****       x = ((u8x8_tile_t *)arg_ptr)->x_pos;    
 120:..\..\..\u8g2\u8g2\csrc/u8x8_d_st7588.c ****       x *= 8;
 121:..\..\..\u8g2\u8g2\csrc/u8x8_d_st7588.c ****       
 122:..\..\..\u8g2\u8g2\csrc/u8x8_d_st7588.c ****       x += u8x8->x_offset;
 123:..\..\..\u8g2\u8g2\csrc/u8x8_d_st7588.c ****     
 124:..\..\..\u8g2\u8g2\csrc/u8x8_d_st7588.c ****       if ( u8x8->x_offset == 0 )
 125:..\..\..\u8g2\u8g2\csrc/u8x8_d_st7588.c **** 	u8x8_cad_SendCmd(u8x8, FS );	/* select 00 commands */
 126:..\..\..\u8g2\u8g2\csrc/u8x8_d_st7588.c ****       else
 127:..\..\..\u8g2\u8g2\csrc/u8x8_d_st7588.c **** 	u8x8_cad_SendCmd(u8x8, FS ^ 0x018 );	/* select 00 commands */
 128:..\..\..\u8g2\u8g2\csrc/u8x8_d_st7588.c **** 	
 129:..\..\..\u8g2\u8g2\csrc/u8x8_d_st7588.c ****       u8x8_cad_SendCmd(u8x8, 0x040 | (((u8x8_tile_t *)arg_ptr)->y_pos));
 130:..\..\..\u8g2\u8g2\csrc/u8x8_d_st7588.c ****       u8x8_cad_SendCmd(u8x8, 0x0e0 | ((x&15)));
 131:..\..\..\u8g2\u8g2\csrc/u8x8_d_st7588.c ****       u8x8_cad_SendCmd(u8x8, 0x0f0 | (x>>4) );
 132:..\..\..\u8g2\u8g2\csrc/u8x8_d_st7588.c ****     
 133:..\..\..\u8g2\u8g2\csrc/u8x8_d_st7588.c ****       
 134:..\..\..\u8g2\u8g2\csrc/u8x8_d_st7588.c ****       do
 135:..\..\..\u8g2\u8g2\csrc/u8x8_d_st7588.c ****       {
 136:..\..\..\u8g2\u8g2\csrc/u8x8_d_st7588.c **** 	c = ((u8x8_tile_t *)arg_ptr)->cnt;
 137:..\..\..\u8g2\u8g2\csrc/u8x8_d_st7588.c **** 	ptr = ((u8x8_tile_t *)arg_ptr)->tile_ptr;
 138:..\..\..\u8g2\u8g2\csrc/u8x8_d_st7588.c **** 	u8x8_cad_SendData(u8x8, c*8, ptr); 	/* note: SendData can not handle more than 255 bytes */
 139:..\..\..\u8g2\u8g2\csrc/u8x8_d_st7588.c **** 	arg_int--;
 140:..\..\..\u8g2\u8g2\csrc/u8x8_d_st7588.c ****       } while( arg_int > 0 );
 141:..\..\..\u8g2\u8g2\csrc/u8x8_d_st7588.c ****       
 142:..\..\..\u8g2\u8g2\csrc/u8x8_d_st7588.c ****       u8x8_cad_EndTransfer(u8x8);
 143:..\..\..\u8g2\u8g2\csrc/u8x8_d_st7588.c ****       break;
 144:..\..\..\u8g2\u8g2\csrc/u8x8_d_st7588.c ****     default:
ARM GAS  C:\Users\jesse\AppData\Local\Temp\ccqYAkvC.s 			page 4


 145:..\..\..\u8g2\u8g2\csrc/u8x8_d_st7588.c ****       return 0;
 146:..\..\..\u8g2\u8g2\csrc/u8x8_d_st7588.c ****   }
 147:..\..\..\u8g2\u8g2\csrc/u8x8_d_st7588.c ****   return 1;
 148:..\..\..\u8g2\u8g2\csrc/u8x8_d_st7588.c **** }
 149:..\..\..\u8g2\u8g2\csrc/u8x8_d_st7588.c **** 
 150:..\..\..\u8g2\u8g2\csrc/u8x8_d_st7588.c **** /*=============================================*/
 151:..\..\..\u8g2\u8g2\csrc/u8x8_d_st7588.c **** 
 152:..\..\..\u8g2\u8g2\csrc/u8x8_d_st7588.c **** static const u8x8_display_info_t u8x8_st7588_128x64_display_info =
 153:..\..\..\u8g2\u8g2\csrc/u8x8_d_st7588.c **** {
 154:..\..\..\u8g2\u8g2\csrc/u8x8_d_st7588.c ****   /* chip_enable_level = */ 0,
 155:..\..\..\u8g2\u8g2\csrc/u8x8_d_st7588.c ****   /* chip_disable_level = */ 1,
 156:..\..\..\u8g2\u8g2\csrc/u8x8_d_st7588.c ****   
 157:..\..\..\u8g2\u8g2\csrc/u8x8_d_st7588.c ****   /* post_chip_enable_wait_ns = */ 150,
 158:..\..\..\u8g2\u8g2\csrc/u8x8_d_st7588.c ****   /* pre_chip_disable_wait_ns = */ 30,
 159:..\..\..\u8g2\u8g2\csrc/u8x8_d_st7588.c ****   /* reset_pulse_width_ms = */ 5, 	
 160:..\..\..\u8g2\u8g2\csrc/u8x8_d_st7588.c ****   /* post_reset_wait_ms = */ 5, 		/**/
 161:..\..\..\u8g2\u8g2\csrc/u8x8_d_st7588.c ****   /* sda_setup_time_ns = */ 60,		/* */
 162:..\..\..\u8g2\u8g2\csrc/u8x8_d_st7588.c ****   /* sck_pulse_width_ns = */ 60,	/*  */
 163:..\..\..\u8g2\u8g2\csrc/u8x8_d_st7588.c ****   /* sck_clock_hz = */ 4000000UL,	/* since Arduino 1.6.0, the SPI bus speed in Hz. Should be  10000
 164:..\..\..\u8g2\u8g2\csrc/u8x8_d_st7588.c ****   /* spi_mode = */ 0,		/* active high, rising edge */
 165:..\..\..\u8g2\u8g2\csrc/u8x8_d_st7588.c ****   /* i2c_bus_clock_100kHz = */ 4,	/* 400KHz */
 166:..\..\..\u8g2\u8g2\csrc/u8x8_d_st7588.c ****   /* data_setup_time_ns = */ 80,
 167:..\..\..\u8g2\u8g2\csrc/u8x8_d_st7588.c ****   /* write_pulse_width_ns = */ 50,	
 168:..\..\..\u8g2\u8g2\csrc/u8x8_d_st7588.c ****   /* tile_width = */ 16,
 169:..\..\..\u8g2\u8g2\csrc/u8x8_d_st7588.c ****   /* tile_hight = */ 8,
 170:..\..\..\u8g2\u8g2\csrc/u8x8_d_st7588.c ****   /* default_x_offset = */ 0,	/* must be 0, because this is checked also for normal mode */
 171:..\..\..\u8g2\u8g2\csrc/u8x8_d_st7588.c ****   /* flipmode_x_offset = */ 4,		
 172:..\..\..\u8g2\u8g2\csrc/u8x8_d_st7588.c ****   /* pixel_width = */ 128,
 173:..\..\..\u8g2\u8g2\csrc/u8x8_d_st7588.c ****   /* pixel_height = */ 64
 174:..\..\..\u8g2\u8g2\csrc/u8x8_d_st7588.c **** };
 175:..\..\..\u8g2\u8g2\csrc/u8x8_d_st7588.c **** 
 176:..\..\..\u8g2\u8g2\csrc/u8x8_d_st7588.c **** 
 177:..\..\..\u8g2\u8g2\csrc/u8x8_d_st7588.c **** 
 178:..\..\..\u8g2\u8g2\csrc/u8x8_d_st7588.c **** static const uint8_t u8x8_d_st7588_128x64_init_seq[] = {
 179:..\..\..\u8g2\u8g2\csrc/u8x8_d_st7588.c ****     
 180:..\..\..\u8g2\u8g2\csrc/u8x8_d_st7588.c ****   U8X8_START_TRANSFER(),             	/* enable chip, delay is part of the transfer start */
 181:..\..\..\u8g2\u8g2\csrc/u8x8_d_st7588.c **** 
 182:..\..\..\u8g2\u8g2\csrc/u8x8_d_st7588.c ****   U8X8_C( FS | 0x03 ),			/* select 11 commands */
 183:..\..\..\u8g2\u8g2\csrc/u8x8_d_st7588.c ****   U8X8_C( 0x03 ),				/* software reset */
 184:..\..\..\u8g2\u8g2\csrc/u8x8_d_st7588.c **** 
 185:..\..\..\u8g2\u8g2\csrc/u8x8_d_st7588.c ****   U8X8_C( FS | 0x00 ),			/* select 00 commands */
 186:..\..\..\u8g2\u8g2\csrc/u8x8_d_st7588.c ****   U8X8_C( 0x08 ),				/* display off */
 187:..\..\..\u8g2\u8g2\csrc/u8x8_d_st7588.c ****   //U8X8_C( 0x0c ),				/* display on */
 188:..\..\..\u8g2\u8g2\csrc/u8x8_d_st7588.c ****   
 189:..\..\..\u8g2\u8g2\csrc/u8x8_d_st7588.c ****   U8X8_C( FS | 0x01 ),			/* select 01 commands */
 190:..\..\..\u8g2\u8g2\csrc/u8x8_d_st7588.c ****   U8X8_C( 0x08 ),				/* display confguration */
 191:..\..\..\u8g2\u8g2\csrc/u8x8_d_st7588.c ****   U8X8_C( 0x12 ),				/* bias 1/9 */
 192:..\..\..\u8g2\u8g2\csrc/u8x8_d_st7588.c ****   U8X8_C( 0x8f ),				/* Vop, lower 7 bits */
 193:..\..\..\u8g2\u8g2\csrc/u8x8_d_st7588.c ****   
 194:..\..\..\u8g2\u8g2\csrc/u8x8_d_st7588.c ****   U8X8_C( FS | 0x00 ),			/* select 00 commands */
 195:..\..\..\u8g2\u8g2\csrc/u8x8_d_st7588.c ****   U8X8_C( 0x05),				/* Bit 0 contains high/low range for Vop */
 196:..\..\..\u8g2\u8g2\csrc/u8x8_d_st7588.c ****   
 197:..\..\..\u8g2\u8g2\csrc/u8x8_d_st7588.c ****   
 198:..\..\..\u8g2\u8g2\csrc/u8x8_d_st7588.c ****   U8X8_C( FS | 0x03 ),			/* select 11 commands */
 199:..\..\..\u8g2\u8g2\csrc/u8x8_d_st7588.c ****   U8X8_C( 0x0b),				/* Frame Rate: 73 Hz */
 200:..\..\..\u8g2\u8g2\csrc/u8x8_d_st7588.c ****   
 201:..\..\..\u8g2\u8g2\csrc/u8x8_d_st7588.c ****   
ARM GAS  C:\Users\jesse\AppData\Local\Temp\ccqYAkvC.s 			page 5


 202:..\..\..\u8g2\u8g2\csrc/u8x8_d_st7588.c ****     
 203:..\..\..\u8g2\u8g2\csrc/u8x8_d_st7588.c ****   U8X8_END_TRANSFER(),             	/* disable chip */
 204:..\..\..\u8g2\u8g2\csrc/u8x8_d_st7588.c ****   U8X8_END()             			/* end of sequence */
 205:..\..\..\u8g2\u8g2\csrc/u8x8_d_st7588.c **** };
 206:..\..\..\u8g2\u8g2\csrc/u8x8_d_st7588.c **** 
 207:..\..\..\u8g2\u8g2\csrc/u8x8_d_st7588.c **** 
 208:..\..\..\u8g2\u8g2\csrc/u8x8_d_st7588.c **** static const uint8_t u8x8_d_st7588_jlx12864_flip0_seq[] = {
 209:..\..\..\u8g2\u8g2\csrc/u8x8_d_st7588.c ****   U8X8_START_TRANSFER(),             	/* enable chip, delay is part of the transfer start */
 210:..\..\..\u8g2\u8g2\csrc/u8x8_d_st7588.c ****   U8X8_C( FS ),					/* normal mode */
 211:..\..\..\u8g2\u8g2\csrc/u8x8_d_st7588.c ****   U8X8_END_TRANSFER(),             	/* disable chip */
 212:..\..\..\u8g2\u8g2\csrc/u8x8_d_st7588.c ****   U8X8_END()             			/* end of sequence */
 213:..\..\..\u8g2\u8g2\csrc/u8x8_d_st7588.c **** };
 214:..\..\..\u8g2\u8g2\csrc/u8x8_d_st7588.c **** 
 215:..\..\..\u8g2\u8g2\csrc/u8x8_d_st7588.c **** static const uint8_t u8x8_d_st7588_jlx12864_flip1_seq[] = {
 216:..\..\..\u8g2\u8g2\csrc/u8x8_d_st7588.c ****   U8X8_START_TRANSFER(),             	/* enable chip, delay is part of the transfer start */
 217:..\..\..\u8g2\u8g2\csrc/u8x8_d_st7588.c ****   U8X8_C( FS ^ 0x018 ),					/* normal mode */
 218:..\..\..\u8g2\u8g2\csrc/u8x8_d_st7588.c ****   U8X8_END_TRANSFER(),             	/* disable chip */
 219:..\..\..\u8g2\u8g2\csrc/u8x8_d_st7588.c ****   U8X8_END()             			/* end of sequence */
 220:..\..\..\u8g2\u8g2\csrc/u8x8_d_st7588.c **** };
 221:..\..\..\u8g2\u8g2\csrc/u8x8_d_st7588.c **** 
 222:..\..\..\u8g2\u8g2\csrc/u8x8_d_st7588.c **** 
 223:..\..\..\u8g2\u8g2\csrc/u8x8_d_st7588.c **** uint8_t u8x8_d_st7588_jlx12864(u8x8_t *u8x8, uint8_t msg, uint8_t arg_int, void *arg_ptr)
 224:..\..\..\u8g2\u8g2\csrc/u8x8_d_st7588.c **** {
  28              		.loc 1 224 0
  29              		.cfi_startproc
  30              		@ args = 0, pretend = 0, frame = 0
  31              		@ frame_needed = 0, uses_anonymous_args = 0
  32              	.LVL0:
  33              	.LBB4:
  34              	.LBB5:
  72:..\..\..\u8g2\u8g2\csrc/u8x8_d_st7588.c ****   {
  35              		.loc 1 72 0
  36 0000 0E29     		cmp	r1, #14
  37              	.LBE5:
  38              	.LBE4:
  39              		.loc 1 224 0
  40 0002 F8B5     		push	{r3, r4, r5, r6, r7, lr}
  41              		.cfi_def_cfa_offset 24
  42              		.cfi_offset 3, -24
  43              		.cfi_offset 4, -20
  44              		.cfi_offset 5, -16
  45              		.cfi_offset 6, -12
  46              		.cfi_offset 7, -8
  47              		.cfi_offset 14, -4
  48              		.loc 1 224 0
  49 0004 0446     		mov	r4, r0
  50 0006 1546     		mov	r5, r2
  51 0008 1F46     		mov	r7, r3
  52              	.LVL1:
  53              	.LBB7:
  54              	.LBB6:
  72:..\..\..\u8g2\u8g2\csrc/u8x8_d_st7588.c ****   {
  55              		.loc 1 72 0
  56 000a 13D0     		beq	.L3
  57 000c 0F29     		cmp	r1, #15
  58 000e 33D0     		beq	.L4
  59 0010 0B29     		cmp	r1, #11
ARM GAS  C:\Users\jesse\AppData\Local\Temp\ccqYAkvC.s 			page 6


  60 0012 61D1     		bne	.L22
  86:..\..\..\u8g2\u8g2\csrc/u8x8_d_st7588.c **** 	u8x8_cad_SendSequence(u8x8, u8x8_d_st7588_128x64_powersave0_seq);
  61              		.loc 1 86 0
  62 0014 0AB9     		cbnz	r2, .L6
  87:..\..\..\u8g2\u8g2\csrc/u8x8_d_st7588.c ****       else
  63              		.loc 1 87 0
  64 0016 4349     		ldr	r1, .L31
  65              	.LVL2:
  66 0018 00E0     		b	.L25
  67              	.LVL3:
  68              	.L6:
  89:..\..\..\u8g2\u8g2\csrc/u8x8_d_st7588.c **** 
  69              		.loc 1 89 0
  70 001a 4349     		ldr	r1, .L31+4
  71              	.LVL4:
  72              	.L25:
  73 001c FFF7FEFF 		bl	u8x8_cad_SendSequence
  74              	.LVL5:
  92:..\..\..\u8g2\u8g2\csrc/u8x8_d_st7588.c **** 	u8x8_cad_SendCmd(u8x8, FS );	/* select 00 commands */
  75              		.loc 1 92 0
  76 0020 94F82230 		ldrb	r3, [r4, #34]	@ zero_extendqisi2
  77 0024 0BB9     		cbnz	r3, .L8
  93:..\..\..\u8g2\u8g2\csrc/u8x8_d_st7588.c ****       else
  78              		.loc 1 93 0
  79 0026 2021     		movs	r1, #32
  80 0028 00E0     		b	.L28
  81              	.L8:
  95:..\..\..\u8g2\u8g2\csrc/u8x8_d_st7588.c ****       
  82              		.loc 1 95 0
  83 002a 3821     		movs	r1, #56
  84              	.L28:
  85 002c 2046     		mov	r0, r4
  86 002e FFF7FEFF 		bl	u8x8_cad_SendCmd
  87              	.LVL6:
  88 0032 59E0     		b	.L9
  89              	.LVL7:
  90              	.L3:
 101:..\..\..\u8g2\u8g2\csrc/u8x8_d_st7588.c ****       
  91              		.loc 1 101 0
  92 0034 FFF7FEFF 		bl	u8x8_cad_StartTransfer
  93              	.LVL8:
 103:..\..\..\u8g2\u8g2\csrc/u8x8_d_st7588.c ****       u8x8_cad_SendArg(u8x8, 4 | (arg_int>>7) );
  94              		.loc 1 103 0
  95 0038 2021     		movs	r1, #32
  96 003a 2046     		mov	r0, r4
  97 003c FFF7FEFF 		bl	u8x8_cad_SendCmd
  98              	.LVL9:
 104:..\..\..\u8g2\u8g2\csrc/u8x8_d_st7588.c ****       u8x8_cad_SendCmd(u8x8, FS | 1);
  99              		.loc 1 104 0
 100 0040 E909     		lsrs	r1, r5, #7
 101 0042 41F00401 		orr	r1, r1, #4
 102 0046 2046     		mov	r0, r4
 103 0048 FFF7FEFF 		bl	u8x8_cad_SendArg
 104              	.LVL10:
 105:..\..\..\u8g2\u8g2\csrc/u8x8_d_st7588.c ****       u8x8_cad_SendArg(u8x8, 0x080 | arg_int );
 105              		.loc 1 105 0
 106 004c 2121     		movs	r1, #33
ARM GAS  C:\Users\jesse\AppData\Local\Temp\ccqYAkvC.s 			page 7


 107 004e 2046     		mov	r0, r4
 108 0050 FFF7FEFF 		bl	u8x8_cad_SendCmd
 109              	.LVL11:
 106:..\..\..\u8g2\u8g2\csrc/u8x8_d_st7588.c ****       
 110              		.loc 1 106 0
 111 0054 45F08001 		orr	r1, r5, #128
 112 0058 2046     		mov	r0, r4
 113 005a FFF7FEFF 		bl	u8x8_cad_SendArg
 114              	.LVL12:
 109:..\..\..\u8g2\u8g2\csrc/u8x8_d_st7588.c **** 	u8x8_cad_SendCmd(u8x8, FS );	/* select 00 commands */
 115              		.loc 1 109 0
 116 005e 94F82230 		ldrb	r3, [r4, #34]	@ zero_extendqisi2
 117 0062 0BB9     		cbnz	r3, .L10
 110:..\..\..\u8g2\u8g2\csrc/u8x8_d_st7588.c ****       else
 118              		.loc 1 110 0
 119 0064 2021     		movs	r1, #32
 120 0066 00E0     		b	.L26
 121              	.L10:
 112:..\..\..\u8g2\u8g2\csrc/u8x8_d_st7588.c ****       u8x8_cad_EndTransfer(u8x8);
 122              		.loc 1 112 0
 123 0068 3821     		movs	r1, #56
 124              	.L26:
 125 006a 2046     		mov	r0, r4
 126 006c FFF7FEFF 		bl	u8x8_cad_SendCmd
 127              	.LVL13:
 128              	.L11:
 113:..\..\..\u8g2\u8g2\csrc/u8x8_d_st7588.c ****       break;
 129              		.loc 1 113 0
 130 0070 2046     		mov	r0, r4
 131 0072 FFF7FEFF 		bl	u8x8_cad_EndTransfer
 132              	.LVL14:
 133 0076 37E0     		b	.L9
 134              	.LVL15:
 135              	.L4:
 118:..\..\..\u8g2\u8g2\csrc/u8x8_d_st7588.c ****       x = ((u8x8_tile_t *)arg_ptr)->x_pos;    
 136              		.loc 1 118 0
 137 0078 FFF7FEFF 		bl	u8x8_cad_StartTransfer
 138              	.LVL16:
 119:..\..\..\u8g2\u8g2\csrc/u8x8_d_st7588.c ****       x *= 8;
 139              		.loc 1 119 0
 140 007c 7E79     		ldrb	r6, [r7, #5]	@ zero_extendqisi2
 141              	.LVL17:
 122:..\..\..\u8g2\u8g2\csrc/u8x8_d_st7588.c ****     
 142              		.loc 1 122 0
 143 007e 94F82230 		ldrb	r3, [r4, #34]	@ zero_extendqisi2
 144 0082 03EBC606 		add	r6, r3, r6, lsl #3
 145              	.LVL18:
 146 0086 06F0FF06 		and	r6, r6, #255
 147              	.LVL19:
 124:..\..\..\u8g2\u8g2\csrc/u8x8_d_st7588.c **** 	u8x8_cad_SendCmd(u8x8, FS );	/* select 00 commands */
 148              		.loc 1 124 0
 149 008a 0BB9     		cbnz	r3, .L12
 125:..\..\..\u8g2\u8g2\csrc/u8x8_d_st7588.c ****       else
 150              		.loc 1 125 0
 151 008c 2021     		movs	r1, #32
 152 008e 00E0     		b	.L27
 153              	.L12:
ARM GAS  C:\Users\jesse\AppData\Local\Temp\ccqYAkvC.s 			page 8


 127:..\..\..\u8g2\u8g2\csrc/u8x8_d_st7588.c **** 	
 154              		.loc 1 127 0
 155 0090 3821     		movs	r1, #56
 156              	.L27:
 157 0092 2046     		mov	r0, r4
 158 0094 FFF7FEFF 		bl	u8x8_cad_SendCmd
 159              	.LVL20:
 129:..\..\..\u8g2\u8g2\csrc/u8x8_d_st7588.c ****       u8x8_cad_SendCmd(u8x8, 0x0e0 | ((x&15)));
 160              		.loc 1 129 0
 161 0098 B979     		ldrb	r1, [r7, #6]	@ zero_extendqisi2
 162 009a 2046     		mov	r0, r4
 163 009c 41F04001 		orr	r1, r1, #64
 164 00a0 FFF7FEFF 		bl	u8x8_cad_SendCmd
 165              	.LVL21:
 130:..\..\..\u8g2\u8g2\csrc/u8x8_d_st7588.c ****       u8x8_cad_SendCmd(u8x8, 0x0f0 | (x>>4) );
 166              		.loc 1 130 0
 167 00a4 06F00F01 		and	r1, r6, #15
 168 00a8 41F0E001 		orr	r1, r1, #224
 169 00ac 2046     		mov	r0, r4
 170 00ae FFF7FEFF 		bl	u8x8_cad_SendCmd
 171              	.LVL22:
 131:..\..\..\u8g2\u8g2\csrc/u8x8_d_st7588.c ****     
 172              		.loc 1 131 0
 173 00b2 3109     		lsrs	r1, r6, #4
 174 00b4 41F0F001 		orr	r1, r1, #240
 175 00b8 2046     		mov	r0, r4
 176 00ba FFF7FEFF 		bl	u8x8_cad_SendCmd
 177              	.LVL23:
 178              	.L14:
 138:..\..\..\u8g2\u8g2\csrc/u8x8_d_st7588.c **** 	arg_int--;
 179              		.loc 1 138 0
 180 00be 3979     		ldrb	r1, [r7, #4]	@ zero_extendqisi2
 181 00c0 3A68     		ldr	r2, [r7]
 182 00c2 C900     		lsls	r1, r1, #3
 183 00c4 01F0F801 		and	r1, r1, #248
 184 00c8 2046     		mov	r0, r4
 139:..\..\..\u8g2\u8g2\csrc/u8x8_d_st7588.c ****       } while( arg_int > 0 );
 185              		.loc 1 139 0
 186 00ca 013D     		subs	r5, r5, #1
 187              	.LVL24:
 138:..\..\..\u8g2\u8g2\csrc/u8x8_d_st7588.c **** 	arg_int--;
 188              		.loc 1 138 0
 189 00cc FFF7FEFF 		bl	u8x8_cad_SendData
 190              	.LVL25:
 140:..\..\..\u8g2\u8g2\csrc/u8x8_d_st7588.c ****       
 191              		.loc 1 140 0
 192 00d0 15F0FF05 		ands	r5, r5, #255
 193              	.LVL26:
 194 00d4 F3D1     		bne	.L14
 195 00d6 CBE7     		b	.L11
 196              	.LVL27:
 197              	.L22:
 198              	.LBE6:
 199              	.LBE7:
 225:..\..\..\u8g2\u8g2\csrc/u8x8_d_st7588.c ****   if ( u8x8_d_st7588_128x64_generic(u8x8, msg, arg_int, arg_ptr) != 0 )
 226:..\..\..\u8g2\u8g2\csrc/u8x8_d_st7588.c ****     return 1;
 227:..\..\..\u8g2\u8g2\csrc/u8x8_d_st7588.c ****   if ( msg == U8X8_MSG_DISPLAY_SETUP_MEMORY )
ARM GAS  C:\Users\jesse\AppData\Local\Temp\ccqYAkvC.s 			page 9


 200              		.loc 1 227 0
 201 00d8 0929     		cmp	r1, #9
 202 00da 07D1     		bne	.L24
 228:..\..\..\u8g2\u8g2\csrc/u8x8_d_st7588.c ****   {
 229:..\..\..\u8g2\u8g2\csrc/u8x8_d_st7588.c ****     u8x8_SetI2CAddress(u8x8, 0x07e);		/* the JLX12864 has 0x07e as a default address for I2C */
 203              		.loc 1 229 0
 204 00dc 7E23     		movs	r3, #126
 205              	.LVL28:
 206 00de 84F82430 		strb	r3, [r4, #36]
 230:..\..\..\u8g2\u8g2\csrc/u8x8_d_st7588.c ****     u8x8_d_helper_display_setup_memory(u8x8, &u8x8_st7588_128x64_display_info);
 207              		.loc 1 230 0
 208 00e2 1249     		ldr	r1, .L31+8
 209              	.LVL29:
 210 00e4 FFF7FEFF 		bl	u8x8_d_helper_display_setup_memory
 211              	.LVL30:
 212              	.L9:
 226:..\..\..\u8g2\u8g2\csrc/u8x8_d_st7588.c ****   if ( msg == U8X8_MSG_DISPLAY_SETUP_MEMORY )
 213              		.loc 1 226 0
 214 00e8 0120     		movs	r0, #1
 215 00ea F8BD     		pop	{r3, r4, r5, r6, r7, pc}
 216              	.LVL31:
 217              	.L24:
 231:..\..\..\u8g2\u8g2\csrc/u8x8_d_st7588.c ****     return 1;
 232:..\..\..\u8g2\u8g2\csrc/u8x8_d_st7588.c ****   }
 233:..\..\..\u8g2\u8g2\csrc/u8x8_d_st7588.c ****   else if ( msg == U8X8_MSG_DISPLAY_INIT )
 218              		.loc 1 233 0
 219 00ec 0A29     		cmp	r1, #10
 220 00ee 06D1     		bne	.L16
 234:..\..\..\u8g2\u8g2\csrc/u8x8_d_st7588.c ****   {
 235:..\..\..\u8g2\u8g2\csrc/u8x8_d_st7588.c ****     u8x8_d_helper_display_init(u8x8);
 221              		.loc 1 235 0
 222 00f0 FFF7FEFF 		bl	u8x8_d_helper_display_init
 223              	.LVL32:
 236:..\..\..\u8g2\u8g2\csrc/u8x8_d_st7588.c ****     u8x8_cad_SendSequence(u8x8, u8x8_d_st7588_128x64_init_seq);    
 224              		.loc 1 236 0
 225 00f4 0E49     		ldr	r1, .L31+12
 226 00f6 2046     		mov	r0, r4
 227 00f8 FFF7FEFF 		bl	u8x8_cad_SendSequence
 228              	.LVL33:
 229 00fc F4E7     		b	.L9
 230              	.LVL34:
 231              	.L16:
 237:..\..\..\u8g2\u8g2\csrc/u8x8_d_st7588.c ****     return 1;
 238:..\..\..\u8g2\u8g2\csrc/u8x8_d_st7588.c ****   }
 239:..\..\..\u8g2\u8g2\csrc/u8x8_d_st7588.c ****   else if  ( msg == U8X8_MSG_DISPLAY_SET_FLIP_MODE )
 232              		.loc 1 239 0
 233 00fe 0D29     		cmp	r1, #13
 234 0100 0ED1     		bne	.L20
 240:..\..\..\u8g2\u8g2\csrc/u8x8_d_st7588.c ****   {
 241:..\..\..\u8g2\u8g2\csrc/u8x8_d_st7588.c ****     if ( arg_int == 0 )
 235              		.loc 1 241 0
 236 0102 2DB9     		cbnz	r5, .L17
 242:..\..\..\u8g2\u8g2\csrc/u8x8_d_st7588.c ****     {
 243:..\..\..\u8g2\u8g2\csrc/u8x8_d_st7588.c ****       u8x8_cad_SendSequence(u8x8, u8x8_d_st7588_jlx12864_flip0_seq);
 237              		.loc 1 243 0
 238 0104 0B49     		ldr	r1, .L31+16
 239              	.LVL35:
ARM GAS  C:\Users\jesse\AppData\Local\Temp\ccqYAkvC.s 			page 10


 240 0106 FFF7FEFF 		bl	u8x8_cad_SendSequence
 241              	.LVL36:
 244:..\..\..\u8g2\u8g2\csrc/u8x8_d_st7588.c ****       u8x8->x_offset = u8x8->display_info->default_x_offset;
 242              		.loc 1 244 0
 243 010a 2368     		ldr	r3, [r4]
 244 010c 9B7C     		ldrb	r3, [r3, #18]	@ zero_extendqisi2
 245 010e 04E0     		b	.L29
 246              	.LVL37:
 247              	.L17:
 245:..\..\..\u8g2\u8g2\csrc/u8x8_d_st7588.c ****     }
 246:..\..\..\u8g2\u8g2\csrc/u8x8_d_st7588.c ****     else
 247:..\..\..\u8g2\u8g2\csrc/u8x8_d_st7588.c ****     {
 248:..\..\..\u8g2\u8g2\csrc/u8x8_d_st7588.c ****       u8x8_cad_SendSequence(u8x8, u8x8_d_st7588_jlx12864_flip1_seq);
 248              		.loc 1 248 0
 249 0110 0949     		ldr	r1, .L31+20
 250              	.LVL38:
 251 0112 FFF7FEFF 		bl	u8x8_cad_SendSequence
 252              	.LVL39:
 249:..\..\..\u8g2\u8g2\csrc/u8x8_d_st7588.c ****       u8x8->x_offset = u8x8->display_info->flipmode_x_offset;
 253              		.loc 1 249 0
 254 0116 2368     		ldr	r3, [r4]
 255 0118 DB7C     		ldrb	r3, [r3, #19]	@ zero_extendqisi2
 256              	.L29:
 257 011a 84F82230 		strb	r3, [r4, #34]
 258 011e E3E7     		b	.L9
 259              	.LVL40:
 260              	.L20:
 250:..\..\..\u8g2\u8g2\csrc/u8x8_d_st7588.c ****     }
 251:..\..\..\u8g2\u8g2\csrc/u8x8_d_st7588.c ****     return 1;
 252:..\..\..\u8g2\u8g2\csrc/u8x8_d_st7588.c ****   }
 253:..\..\..\u8g2\u8g2\csrc/u8x8_d_st7588.c ****   return 0;
 261              		.loc 1 253 0
 262 0120 0020     		movs	r0, #0
 263              	.LVL41:
 264 0122 F8BD     		pop	{r3, r4, r5, r6, r7, pc}
 265              	.LVL42:
 266              	.L32:
 267              		.align	2
 268              	.L31:
 269 0124 00000000 		.word	.LANCHOR0
 270 0128 07000000 		.word	.LANCHOR0+7
 271 012c 10000000 		.word	.LANCHOR0+16
 272 0130 28000000 		.word	.LANCHOR0+40
 273 0134 43000000 		.word	.LANCHOR0+67
 274 0138 48000000 		.word	.LANCHOR0+72
 275              		.cfi_endproc
 276              	.LFE1:
 277              		.size	u8x8_d_st7588_jlx12864, .-u8x8_d_st7588_jlx12864
 278              		.section	.rodata
 279              		.align	2
 280              		.set	.LANCHOR0,. + 0
 281              		.type	u8x8_d_st7588_128x64_powersave0_seq, %object
 282              		.size	u8x8_d_st7588_128x64_powersave0_seq, 7
 283              	u8x8_d_st7588_128x64_powersave0_seq:
 284 0000 18       		.byte	24
 285 0001 15       		.byte	21
 286 0002 20       		.byte	32
ARM GAS  C:\Users\jesse\AppData\Local\Temp\ccqYAkvC.s 			page 11


 287 0003 15       		.byte	21
 288 0004 0C       		.byte	12
 289 0005 19       		.byte	25
 290 0006 FF       		.byte	-1
 291              		.type	u8x8_d_st7588_128x64_powersave1_seq, %object
 292              		.size	u8x8_d_st7588_128x64_powersave1_seq, 7
 293              	u8x8_d_st7588_128x64_powersave1_seq:
 294 0007 18       		.byte	24
 295 0008 15       		.byte	21
 296 0009 20       		.byte	32
 297 000a 15       		.byte	21
 298 000b 08       		.byte	8
 299 000c 19       		.byte	25
 300 000d FF       		.byte	-1
 301 000e 0000     		.space	2
 302              		.type	u8x8_st7588_128x64_display_info, %object
 303              		.size	u8x8_st7588_128x64_display_info, 24
 304              	u8x8_st7588_128x64_display_info:
 305 0010 00       		.byte	0
 306 0011 01       		.byte	1
 307 0012 96       		.byte	-106
 308 0013 1E       		.byte	30
 309 0014 05       		.byte	5
 310 0015 05       		.byte	5
 311 0016 3C       		.byte	60
 312 0017 3C       		.byte	60
 313 0018 00093D00 		.word	4000000
 314 001c 00       		.byte	0
 315 001d 04       		.byte	4
 316 001e 50       		.byte	80
 317 001f 32       		.byte	50
 318 0020 10       		.byte	16
 319 0021 08       		.byte	8
 320 0022 00       		.byte	0
 321 0023 04       		.byte	4
 322 0024 8000     		.short	128
 323 0026 4000     		.short	64
 324              		.type	u8x8_d_st7588_128x64_init_seq, %object
 325              		.size	u8x8_d_st7588_128x64_init_seq, 27
 326              	u8x8_d_st7588_128x64_init_seq:
 327 0028 18       		.byte	24
 328 0029 15       		.byte	21
 329 002a 23       		.byte	35
 330 002b 15       		.byte	21
 331 002c 03       		.byte	3
 332 002d 15       		.byte	21
 333 002e 20       		.byte	32
 334 002f 15       		.byte	21
 335 0030 08       		.byte	8
 336 0031 15       		.byte	21
 337 0032 21       		.byte	33
 338 0033 15       		.byte	21
 339 0034 08       		.byte	8
 340 0035 15       		.byte	21
 341 0036 12       		.byte	18
 342 0037 15       		.byte	21
 343 0038 8F       		.byte	-113
ARM GAS  C:\Users\jesse\AppData\Local\Temp\ccqYAkvC.s 			page 12


 344 0039 15       		.byte	21
 345 003a 20       		.byte	32
 346 003b 15       		.byte	21
 347 003c 05       		.byte	5
 348 003d 15       		.byte	21
 349 003e 23       		.byte	35
 350 003f 15       		.byte	21
 351 0040 0B       		.byte	11
 352 0041 19       		.byte	25
 353 0042 FF       		.byte	-1
 354              		.type	u8x8_d_st7588_jlx12864_flip0_seq, %object
 355              		.size	u8x8_d_st7588_jlx12864_flip0_seq, 5
 356              	u8x8_d_st7588_jlx12864_flip0_seq:
 357 0043 18       		.byte	24
 358 0044 15       		.byte	21
 359 0045 20       		.byte	32
 360 0046 19       		.byte	25
 361 0047 FF       		.byte	-1
 362              		.type	u8x8_d_st7588_jlx12864_flip1_seq, %object
 363              		.size	u8x8_d_st7588_jlx12864_flip1_seq, 5
 364              	u8x8_d_st7588_jlx12864_flip1_seq:
 365 0048 18       		.byte	24
 366 0049 15       		.byte	21
 367 004a 38       		.byte	56
 368 004b 19       		.byte	25
 369 004c FF       		.byte	-1
 370              		.text
 371              	.Letext0:
 372              		.file 2 "c:\\program files (x86)\\cypress\\psoc creator\\4.4\\psoc creator\\import\\gnu\\arm\\5.4.
 373              		.file 3 "c:\\program files (x86)\\cypress\\psoc creator\\4.4\\psoc creator\\import\\gnu\\arm\\5.4.
 374              		.file 4 "..\\..\\..\\u8g2\\u8g2\\csrc\\u8x8.h"