ARM GAS  C:\Users\jesse\AppData\Local\Temp\cc0mbira.s 			page 1


   1              		.syntax unified
   2              		.cpu cortex-m3
   3              		.fpu softvfp
   4              		.eabi_attribute 20, 1
   5              		.eabi_attribute 21, 1
   6              		.eabi_attribute 23, 3
   7              		.eabi_attribute 24, 1
   8              		.eabi_attribute 25, 1
   9              		.eabi_attribute 26, 1
  10              		.eabi_attribute 30, 4
  11              		.eabi_attribute 34, 1
  12              		.eabi_attribute 18, 4
  13              		.thumb
  14              		.syntax unified
  15              		.file	"u8x8_d_ld7032_60x32.c"
  16              		.text
  17              	.Ltext0:
  18              		.cfi_sections	.debug_frame
  19              		.section	.text.u8x8_d_ld7032_generic,"ax",%progbits
  20              		.align	1
  21              		.thumb
  22              		.thumb_func
  23              		.type	u8x8_d_ld7032_generic, %function
  24              	u8x8_d_ld7032_generic:
  25              	.LFB0:
  26              		.file 1 "..\\..\\..\\u8g2\\u8g2\\csrc\\u8x8_d_ld7032_60x32.c"
   1:..\..\..\u8g2\u8g2\csrc/u8x8_d_ld7032_60x32.c **** /*
   2:..\..\..\u8g2\u8g2\csrc/u8x8_d_ld7032_60x32.c **** 
   3:..\..\..\u8g2\u8g2\csrc/u8x8_d_ld7032_60x32.c ****   u8x8_d_ld7032_60x32.c
   4:..\..\..\u8g2\u8g2\csrc/u8x8_d_ld7032_60x32.c ****   Note: Flip Mode is NOT supported
   5:..\..\..\u8g2\u8g2\csrc/u8x8_d_ld7032_60x32.c **** 
   6:..\..\..\u8g2\u8g2\csrc/u8x8_d_ld7032_60x32.c ****   Universal 8bit Graphics Library (https://github.com/olikraus/u8g2/)
   7:..\..\..\u8g2\u8g2\csrc/u8x8_d_ld7032_60x32.c **** 
   8:..\..\..\u8g2\u8g2\csrc/u8x8_d_ld7032_60x32.c ****   Copyright (c) 2016, olikraus@gmail.com
   9:..\..\..\u8g2\u8g2\csrc/u8x8_d_ld7032_60x32.c ****   All rights reserved.
  10:..\..\..\u8g2\u8g2\csrc/u8x8_d_ld7032_60x32.c **** 
  11:..\..\..\u8g2\u8g2\csrc/u8x8_d_ld7032_60x32.c ****   Redistribution and use in source and binary forms, with or without modification, 
  12:..\..\..\u8g2\u8g2\csrc/u8x8_d_ld7032_60x32.c ****   are permitted provided that the following conditions are met:
  13:..\..\..\u8g2\u8g2\csrc/u8x8_d_ld7032_60x32.c **** 
  14:..\..\..\u8g2\u8g2\csrc/u8x8_d_ld7032_60x32.c ****   * Redistributions of source code must retain the above copyright notice, this list 
  15:..\..\..\u8g2\u8g2\csrc/u8x8_d_ld7032_60x32.c ****     of conditions and the following disclaimer.
  16:..\..\..\u8g2\u8g2\csrc/u8x8_d_ld7032_60x32.c ****     
  17:..\..\..\u8g2\u8g2\csrc/u8x8_d_ld7032_60x32.c ****   * Redistributions in binary form must reproduce the above copyright notice, this 
  18:..\..\..\u8g2\u8g2\csrc/u8x8_d_ld7032_60x32.c ****     list of conditions and the following disclaimer in the documentation and/or other 
  19:..\..\..\u8g2\u8g2\csrc/u8x8_d_ld7032_60x32.c ****     materials provided with the distribution.
  20:..\..\..\u8g2\u8g2\csrc/u8x8_d_ld7032_60x32.c **** 
  21:..\..\..\u8g2\u8g2\csrc/u8x8_d_ld7032_60x32.c ****   THIS SOFTWARE IS PROVIDED BY THE COPYRIGHT HOLDERS AND 
  22:..\..\..\u8g2\u8g2\csrc/u8x8_d_ld7032_60x32.c ****   CONTRIBUTORS "AS IS" AND ANY EXPRESS OR IMPLIED WARRANTIES, 
  23:..\..\..\u8g2\u8g2\csrc/u8x8_d_ld7032_60x32.c ****   INCLUDING, BUT NOT LIMITED TO, THE IMPLIED WARRANTIES OF 
  24:..\..\..\u8g2\u8g2\csrc/u8x8_d_ld7032_60x32.c ****   MERCHANTABILITY AND FITNESS FOR A PARTICULAR PURPOSE ARE 
  25:..\..\..\u8g2\u8g2\csrc/u8x8_d_ld7032_60x32.c ****   DISCLAIMED. IN NO EVENT SHALL THE COPYRIGHT HOLDER OR 
  26:..\..\..\u8g2\u8g2\csrc/u8x8_d_ld7032_60x32.c ****   CONTRIBUTORS BE LIABLE FOR ANY DIRECT, INDIRECT, INCIDENTAL, 
  27:..\..\..\u8g2\u8g2\csrc/u8x8_d_ld7032_60x32.c ****   SPECIAL, EXEMPLARY, OR CONSEQUENTIAL DAMAGES (INCLUDING, BUT 
  28:..\..\..\u8g2\u8g2\csrc/u8x8_d_ld7032_60x32.c ****   NOT LIMITED TO, PROCUREMENT OF SUBSTITUTE GOODS OR SERVICES; 
  29:..\..\..\u8g2\u8g2\csrc/u8x8_d_ld7032_60x32.c ****   LOSS OF USE, DATA, OR PROFITS; OR BUSINESS INTERRUPTION) HOWEVER 
  30:..\..\..\u8g2\u8g2\csrc/u8x8_d_ld7032_60x32.c ****   CAUSED AND ON ANY THEORY OF LIABILITY, WHETHER IN CONTRACT, 
  31:..\..\..\u8g2\u8g2\csrc/u8x8_d_ld7032_60x32.c ****   STRICT LIABILITY, OR TORT (INCLUDING NEGLIGENCE OR OTHERWISE) 
ARM GAS  C:\Users\jesse\AppData\Local\Temp\cc0mbira.s 			page 2


  32:..\..\..\u8g2\u8g2\csrc/u8x8_d_ld7032_60x32.c ****   ARISING IN ANY WAY OUT OF THE USE OF THIS SOFTWARE, EVEN IF 
  33:..\..\..\u8g2\u8g2\csrc/u8x8_d_ld7032_60x32.c ****   ADVISED OF THE POSSIBILITY OF SUCH DAMAGE.  
  34:..\..\..\u8g2\u8g2\csrc/u8x8_d_ld7032_60x32.c ****   
  35:..\..\..\u8g2\u8g2\csrc/u8x8_d_ld7032_60x32.c **** */
  36:..\..\..\u8g2\u8g2\csrc/u8x8_d_ld7032_60x32.c **** 
  37:..\..\..\u8g2\u8g2\csrc/u8x8_d_ld7032_60x32.c **** 
  38:..\..\..\u8g2\u8g2\csrc/u8x8_d_ld7032_60x32.c **** #include "u8x8.h"
  39:..\..\..\u8g2\u8g2\csrc/u8x8_d_ld7032_60x32.c **** 
  40:..\..\..\u8g2\u8g2\csrc/u8x8_d_ld7032_60x32.c **** 
  41:..\..\..\u8g2\u8g2\csrc/u8x8_d_ld7032_60x32.c **** /* testboard U8GLIB_LD7032_60x32 u8g(11, 12, 9, 10, 8);	// SPI Com: SCK = 11, MOSI = 12, CS = 9, A0
  42:..\..\..\u8g2\u8g2\csrc/u8x8_d_ld7032_60x32.c **** /* http://www.seeedstudio.com/document/pdf/0.5OLED%20SPEC.pdf */
  43:..\..\..\u8g2\u8g2\csrc/u8x8_d_ld7032_60x32.c **** #ifdef OBSOLETE
  44:..\..\..\u8g2\u8g2\csrc/u8x8_d_ld7032_60x32.c **** static const uint8_t u8x8_d_ld7032_60x32_init_seq_old[] = {
  45:..\..\..\u8g2\u8g2\csrc/u8x8_d_ld7032_60x32.c ****     
  46:..\..\..\u8g2\u8g2\csrc/u8x8_d_ld7032_60x32.c ****   U8X8_START_TRANSFER(),             	/* enable chip, delay is part of the transfer start */
  47:..\..\..\u8g2\u8g2\csrc/u8x8_d_ld7032_60x32.c **** 
  48:..\..\..\u8g2\u8g2\csrc/u8x8_d_ld7032_60x32.c ****   //U8X8_CA(0x002, 0x001),		/* Dot Matrix Display ON */
  49:..\..\..\u8g2\u8g2\csrc/u8x8_d_ld7032_60x32.c ****   U8X8_CA(0x014, 0x000),		/* Stand-by OFF */
  50:..\..\..\u8g2\u8g2\csrc/u8x8_d_ld7032_60x32.c ****   U8X8_CA(0x01a, 0x004),		/* Dot Matrix Frame Rate,  special value for this OLED from manual*/
  51:..\..\..\u8g2\u8g2\csrc/u8x8_d_ld7032_60x32.c ****   U8X8_CA(0x01d, 0x000),		/* Graphics Memory Writing Direction: reset default (right down, horizont
  52:..\..\..\u8g2\u8g2\csrc/u8x8_d_ld7032_60x32.c ****   U8X8_CA(0x009, 0x000),		/* Display Direction:  reset default (x,y: min --> max) */
  53:..\..\..\u8g2\u8g2\csrc/u8x8_d_ld7032_60x32.c ****   U8X8_CAA(0x030, 0x000, 0x03b),	/* Display Size X, Column Start - End*/
  54:..\..\..\u8g2\u8g2\csrc/u8x8_d_ld7032_60x32.c ****   U8X8_CAA(0x032, 0x000, 0x01f),	/* Display Size Y, Row Start - End*/
  55:..\..\..\u8g2\u8g2\csrc/u8x8_d_ld7032_60x32.c ****   U8X8_CA(0x010, 0x000),		/* Peak Pulse Width Set: 0 SCLK */
  56:..\..\..\u8g2\u8g2\csrc/u8x8_d_ld7032_60x32.c ****   U8X8_CA(0x016, 0x000),		/* Peak Pulse Delay Set: 0 SCLK */
  57:..\..\..\u8g2\u8g2\csrc/u8x8_d_ld7032_60x32.c ****   U8X8_CA(0x012, 0x040),		/* Dot Matrix Current Level Set: 0x050 * 1 uA = 80 uA */
  58:..\..\..\u8g2\u8g2\csrc/u8x8_d_ld7032_60x32.c ****   U8X8_CA(0x018, 0x003),		/* Pre-Charge Pulse Width: 3 SCLK */
  59:..\..\..\u8g2\u8g2\csrc/u8x8_d_ld7032_60x32.c ****   U8X8_CA(0x044, 0x002),		/* Pre-Charge Mode: Every Time */
  60:..\..\..\u8g2\u8g2\csrc/u8x8_d_ld7032_60x32.c ****   U8X8_CA(0x048, 0x003),		/* Row overlap timing: Pre-Charge + Peak Delay + Peak boot Timing */
  61:..\..\..\u8g2\u8g2\csrc/u8x8_d_ld7032_60x32.c ****   U8X8_CA(0x03f, 0x011),		/* VCC_R_SEL: ??? */
  62:..\..\..\u8g2\u8g2\csrc/u8x8_d_ld7032_60x32.c ****   U8X8_CA(0x03d, 0x000),		/* VSS selection: 2.8V */
  63:..\..\..\u8g2\u8g2\csrc/u8x8_d_ld7032_60x32.c ****   //U8X8_CA(0x002, 0x001),		/* Dot Matrix Display ON */
  64:..\..\..\u8g2\u8g2\csrc/u8x8_d_ld7032_60x32.c ****   
  65:..\..\..\u8g2\u8g2\csrc/u8x8_d_ld7032_60x32.c ****     
  66:..\..\..\u8g2\u8g2\csrc/u8x8_d_ld7032_60x32.c ****   U8X8_END_TRANSFER(),             	/* disable chip */
  67:..\..\..\u8g2\u8g2\csrc/u8x8_d_ld7032_60x32.c ****   U8X8_END()             			/* end of sequence */
  68:..\..\..\u8g2\u8g2\csrc/u8x8_d_ld7032_60x32.c **** };
  69:..\..\..\u8g2\u8g2\csrc/u8x8_d_ld7032_60x32.c **** #endif
  70:..\..\..\u8g2\u8g2\csrc/u8x8_d_ld7032_60x32.c **** 
  71:..\..\..\u8g2\u8g2\csrc/u8x8_d_ld7032_60x32.c **** /* new sequence https://github.com/olikraus/u8g2/issues/865 */
  72:..\..\..\u8g2\u8g2\csrc/u8x8_d_ld7032_60x32.c **** static const uint8_t u8x8_d_ld7032_60x32_init_seq[] = {
  73:..\..\..\u8g2\u8g2\csrc/u8x8_d_ld7032_60x32.c ****     
  74:..\..\..\u8g2\u8g2\csrc/u8x8_d_ld7032_60x32.c ****   U8X8_START_TRANSFER(),             	/* enable chip, delay is part of the transfer start */
  75:..\..\..\u8g2\u8g2\csrc/u8x8_d_ld7032_60x32.c **** 
  76:..\..\..\u8g2\u8g2\csrc/u8x8_d_ld7032_60x32.c ****   U8X8_CA(0x02, 0x00),		  		/* Dot Matrix Display OFF */
  77:..\..\..\u8g2\u8g2\csrc/u8x8_d_ld7032_60x32.c ****   U8X8_CA(0x14, 0x00),		  		/* Stand-by OFF, OSCA Start */
  78:..\..\..\u8g2\u8g2\csrc/u8x8_d_ld7032_60x32.c ****   U8X8_CA(0x1a, 0x04),		  		/* Dot Matrix Frame Rate,  special value for this OLED from manual 4 =>
  79:..\..\..\u8g2\u8g2\csrc/u8x8_d_ld7032_60x32.c ****   U8X8_CA(0x1d, 0x00),		  		/* Graphics Memory Writing Direction: reset default (right down, horizo
  80:..\..\..\u8g2\u8g2\csrc/u8x8_d_ld7032_60x32.c ****   U8X8_CA(0x09, 0x00),	      		/* Display Direction:  reset default (x,y: min --> max) */
  81:..\..\..\u8g2\u8g2\csrc/u8x8_d_ld7032_60x32.c ****   U8X8_CAA(0x30, 0x00, 0x3B),  		/* Display Size X, Column Start - End 0-0x3b(59)*/
  82:..\..\..\u8g2\u8g2\csrc/u8x8_d_ld7032_60x32.c ****   U8X8_CAA(0x32, 0x00, 0x1F),  		/* Display Size Y, Row Start - End 0-0x1f(31)*/
  83:..\..\..\u8g2\u8g2\csrc/u8x8_d_ld7032_60x32.c ****   U8X8_CA(0x34, 0x00),				/* Data Reading/Writing Box X start */
  84:..\..\..\u8g2\u8g2\csrc/u8x8_d_ld7032_60x32.c ****   U8X8_CA(0x35, 0x07),				/* Data Reading/Writing Box X end */
  85:..\..\..\u8g2\u8g2\csrc/u8x8_d_ld7032_60x32.c ****   U8X8_CA(0x36, 0x00),				/* Data Reading/Writing Box Y start */
  86:..\..\..\u8g2\u8g2\csrc/u8x8_d_ld7032_60x32.c ****   U8X8_CA(0x37, 0x1F),				/* Data Reading/Writing Box Y end */
  87:..\..\..\u8g2\u8g2\csrc/u8x8_d_ld7032_60x32.c ****   U8X8_CA(0x38, 0x00),        		/* Display Start Address X */
  88:..\..\..\u8g2\u8g2\csrc/u8x8_d_ld7032_60x32.c ****   U8X8_CA(0x39, 0x00),        		/* Display Start Address Y */
ARM GAS  C:\Users\jesse\AppData\Local\Temp\cc0mbira.s 			page 3


  89:..\..\..\u8g2\u8g2\csrc/u8x8_d_ld7032_60x32.c ****   U8X8_CA(0x10, 0x00),		  		/* Peak Pulse Width Set: 0 SCLK */
  90:..\..\..\u8g2\u8g2\csrc/u8x8_d_ld7032_60x32.c ****   U8X8_CA(0x16, 0x00),		  		/* Peak Pulse Delay Set: 0 SCLK */
  91:..\..\..\u8g2\u8g2\csrc/u8x8_d_ld7032_60x32.c ****   U8X8_CA(0x12, 0x40),		  		/* 0x32, 0x50 or 0x40 Dot Matrix Current Level Set: 0x050 * 1 uA = 80 u
  92:..\..\..\u8g2\u8g2\csrc/u8x8_d_ld7032_60x32.c ****   U8X8_CA(0x18, 0x03),		  		/* Pre-Charge Pulse Width: 3 SCLK */
  93:..\..\..\u8g2\u8g2\csrc/u8x8_d_ld7032_60x32.c ****   U8X8_CA(0x44, 0x02),		  		/* Pre-Charge Mode: Every Time */
  94:..\..\..\u8g2\u8g2\csrc/u8x8_d_ld7032_60x32.c ****   U8X8_CA(0x48, 0x03),		  		/* Row overlap timing: Pre-Charge + Peak Delay + Peak boot Timing */
  95:..\..\..\u8g2\u8g2\csrc/u8x8_d_ld7032_60x32.c ****   U8X8_CA(0x17, 0x00),          	/* Row Scan */
  96:..\..\..\u8g2\u8g2\csrc/u8x8_d_ld7032_60x32.c ****   U8X8_CA(0x13, 0x00),          	/* Row Scan Sequence Setting */
  97:..\..\..\u8g2\u8g2\csrc/u8x8_d_ld7032_60x32.c ****   U8X8_CA(0x1C, 0x00),          	/* Data Reverse */
  98:..\..\..\u8g2\u8g2\csrc/u8x8_d_ld7032_60x32.c ****   U8X8_CA(0x3f, 0x11),		  		/* VCC_R_SEL: Internal Regulator enabled(D4=1) and VCC_R=VCC_C*0.7(D0=1
  99:..\..\..\u8g2\u8g2\csrc/u8x8_d_ld7032_60x32.c ****   U8X8_CA(0x3d, 0x00),		  		/* VSS selection: 2.8V */
 100:..\..\..\u8g2\u8g2\csrc/u8x8_d_ld7032_60x32.c **** 
 101:..\..\..\u8g2\u8g2\csrc/u8x8_d_ld7032_60x32.c ****   U8X8_END_TRANSFER(),             	/* disable chip */
 102:..\..\..\u8g2\u8g2\csrc/u8x8_d_ld7032_60x32.c ****   U8X8_END()             			/* end of sequence */
 103:..\..\..\u8g2\u8g2\csrc/u8x8_d_ld7032_60x32.c **** };
 104:..\..\..\u8g2\u8g2\csrc/u8x8_d_ld7032_60x32.c **** 
 105:..\..\..\u8g2\u8g2\csrc/u8x8_d_ld7032_60x32.c **** static const uint8_t u8x8_d_ld7032_60x32_powersave0_seq[] = {
 106:..\..\..\u8g2\u8g2\csrc/u8x8_d_ld7032_60x32.c ****   U8X8_START_TRANSFER(),             	/* enable chip, delay is part of the transfer start */
 107:..\..\..\u8g2\u8g2\csrc/u8x8_d_ld7032_60x32.c ****   U8X8_CA(0x002, 0x001),		/* Dot Matrix Display ON */
 108:..\..\..\u8g2\u8g2\csrc/u8x8_d_ld7032_60x32.c ****   U8X8_END_TRANSFER(),             	/* disable chip */
 109:..\..\..\u8g2\u8g2\csrc/u8x8_d_ld7032_60x32.c ****   U8X8_END()             			/* end of sequence */
 110:..\..\..\u8g2\u8g2\csrc/u8x8_d_ld7032_60x32.c **** };
 111:..\..\..\u8g2\u8g2\csrc/u8x8_d_ld7032_60x32.c **** 
 112:..\..\..\u8g2\u8g2\csrc/u8x8_d_ld7032_60x32.c **** static const uint8_t u8x8_d_ld7032_60x32_powersave1_seq[] = {
 113:..\..\..\u8g2\u8g2\csrc/u8x8_d_ld7032_60x32.c ****   U8X8_START_TRANSFER(),             	/* enable chip, delay is part of the transfer start */
 114:..\..\..\u8g2\u8g2\csrc/u8x8_d_ld7032_60x32.c ****   U8X8_CA(0x002, 0x000),		/* Dot Matrix Display ON */
 115:..\..\..\u8g2\u8g2\csrc/u8x8_d_ld7032_60x32.c ****   U8X8_END_TRANSFER(),             	/* disable chip */
 116:..\..\..\u8g2\u8g2\csrc/u8x8_d_ld7032_60x32.c ****   U8X8_END()             			/* end of sequence */
 117:..\..\..\u8g2\u8g2\csrc/u8x8_d_ld7032_60x32.c **** };
 118:..\..\..\u8g2\u8g2\csrc/u8x8_d_ld7032_60x32.c **** 
 119:..\..\..\u8g2\u8g2\csrc/u8x8_d_ld7032_60x32.c **** static const uint8_t u8x8_d_ld7032_60x32_flip0_seq[] = {
 120:..\..\..\u8g2\u8g2\csrc/u8x8_d_ld7032_60x32.c ****   U8X8_START_TRANSFER(),             	/* enable chip, delay is part of the transfer start */
 121:..\..\..\u8g2\u8g2\csrc/u8x8_d_ld7032_60x32.c ****   U8X8_CA(0x009, 0x000),		/* Display Direction:  reset default (x,y: min --> max) */  
 122:..\..\..\u8g2\u8g2\csrc/u8x8_d_ld7032_60x32.c ****   U8X8_END_TRANSFER(),             	/* disable chip */
 123:..\..\..\u8g2\u8g2\csrc/u8x8_d_ld7032_60x32.c ****   U8X8_END()             			/* end of sequence */
 124:..\..\..\u8g2\u8g2\csrc/u8x8_d_ld7032_60x32.c **** };
 125:..\..\..\u8g2\u8g2\csrc/u8x8_d_ld7032_60x32.c **** 
 126:..\..\..\u8g2\u8g2\csrc/u8x8_d_ld7032_60x32.c **** static const uint8_t u8x8_d_ld7032_60x32_flip1_seq[] = {
 127:..\..\..\u8g2\u8g2\csrc/u8x8_d_ld7032_60x32.c ****   U8X8_START_TRANSFER(),             	/* enable chip, delay is part of the transfer start */
 128:..\..\..\u8g2\u8g2\csrc/u8x8_d_ld7032_60x32.c ****   //U8X8_CA(0x009, 0x002),		/* Display Direction:  reset default (x,y: min --> max) */  
 129:..\..\..\u8g2\u8g2\csrc/u8x8_d_ld7032_60x32.c ****   U8X8_END_TRANSFER(),             	/* disable chip */
 130:..\..\..\u8g2\u8g2\csrc/u8x8_d_ld7032_60x32.c ****   U8X8_END()             			/* end of sequence */
 131:..\..\..\u8g2\u8g2\csrc/u8x8_d_ld7032_60x32.c **** };
 132:..\..\..\u8g2\u8g2\csrc/u8x8_d_ld7032_60x32.c **** 
 133:..\..\..\u8g2\u8g2\csrc/u8x8_d_ld7032_60x32.c **** 
 134:..\..\..\u8g2\u8g2\csrc/u8x8_d_ld7032_60x32.c **** static uint8_t u8x8_d_ld7032_generic(u8x8_t *u8x8, uint8_t msg, uint8_t arg_int, void *arg_ptr)
 135:..\..\..\u8g2\u8g2\csrc/u8x8_d_ld7032_60x32.c **** {
  27              		.loc 1 135 0
  28              		.cfi_startproc
  29              		@ args = 0, pretend = 0, frame = 0
  30              		@ frame_needed = 0, uses_anonymous_args = 0
  31              	.LVL0:
 136:..\..\..\u8g2\u8g2\csrc/u8x8_d_ld7032_60x32.c ****   uint8_t x, c;
 137:..\..\..\u8g2\u8g2\csrc/u8x8_d_ld7032_60x32.c ****   uint8_t *ptr;
 138:..\..\..\u8g2\u8g2\csrc/u8x8_d_ld7032_60x32.c ****   switch(msg)
  32              		.loc 1 138 0
  33 0000 0A39     		subs	r1, r1, #10
ARM GAS  C:\Users\jesse\AppData\Local\Temp\cc0mbira.s 			page 4


  34              	.LVL1:
 135:..\..\..\u8g2\u8g2\csrc/u8x8_d_ld7032_60x32.c ****   uint8_t x, c;
  35              		.loc 1 135 0
  36 0002 F8B5     		push	{r3, r4, r5, r6, r7, lr}
  37              		.cfi_def_cfa_offset 24
  38              		.cfi_offset 3, -24
  39              		.cfi_offset 4, -20
  40              		.cfi_offset 5, -16
  41              		.cfi_offset 6, -12
  42              		.cfi_offset 7, -8
  43              		.cfi_offset 14, -4
 135:..\..\..\u8g2\u8g2\csrc/u8x8_d_ld7032_60x32.c ****   uint8_t x, c;
  44              		.loc 1 135 0
  45 0004 0446     		mov	r4, r0
  46 0006 1546     		mov	r5, r2
  47 0008 1F46     		mov	r7, r3
  48              		.loc 1 138 0
  49 000a 0529     		cmp	r1, #5
  50 000c 6ED8     		bhi	.L13
  51 000e DFE801F0 		tbb	[pc, r1]
  52              	.LVL2:
  53              	.L4:
  54 0012 03       		.byte	(.L3-.L4)/2
  55 0013 07       		.byte	(.L5-.L4)/2
  56 0014 6D       		.byte	(.L13-.L4)/2
  57 0015 0F       		.byte	(.L6-.L4)/2
  58 0016 1E       		.byte	(.L7-.L4)/2
  59 0017 31       		.byte	(.L8-.L4)/2
  60              		.p2align 1
  61              	.L3:
 139:..\..\..\u8g2\u8g2\csrc/u8x8_d_ld7032_60x32.c ****   {
 140:..\..\..\u8g2\u8g2\csrc/u8x8_d_ld7032_60x32.c ****     /* handled by the calling function
 141:..\..\..\u8g2\u8g2\csrc/u8x8_d_ld7032_60x32.c ****     case U8X8_MSG_DISPLAY_SETUP_MEMORY:
 142:..\..\..\u8g2\u8g2\csrc/u8x8_d_ld7032_60x32.c ****       u8x8_d_helper_display_setup_memory(u8x8, &u8x8_ld7032_60x32_display_info);
 143:..\..\..\u8g2\u8g2\csrc/u8x8_d_ld7032_60x32.c ****       break;
 144:..\..\..\u8g2\u8g2\csrc/u8x8_d_ld7032_60x32.c ****     */
 145:..\..\..\u8g2\u8g2\csrc/u8x8_d_ld7032_60x32.c ****     case U8X8_MSG_DISPLAY_INIT:
 146:..\..\..\u8g2\u8g2\csrc/u8x8_d_ld7032_60x32.c ****       u8x8_d_helper_display_init(u8x8);
  62              		.loc 1 146 0
  63 0018 FFF7FEFF 		bl	u8x8_d_helper_display_init
  64              	.LVL3:
 147:..\..\..\u8g2\u8g2\csrc/u8x8_d_ld7032_60x32.c ****       u8x8_cad_SendSequence(u8x8, u8x8_d_ld7032_60x32_init_seq);    
  65              		.loc 1 147 0
  66 001c 3449     		ldr	r1, .L20
  67 001e 03E0     		b	.L17
  68              	.LVL4:
  69              	.L5:
 148:..\..\..\u8g2\u8g2\csrc/u8x8_d_ld7032_60x32.c ****       break;
 149:..\..\..\u8g2\u8g2\csrc/u8x8_d_ld7032_60x32.c ****     case U8X8_MSG_DISPLAY_SET_POWER_SAVE:
 150:..\..\..\u8g2\u8g2\csrc/u8x8_d_ld7032_60x32.c ****       if ( arg_int == 0 )
  70              		.loc 1 150 0
  71 0020 0AB9     		cbnz	r2, .L9
 151:..\..\..\u8g2\u8g2\csrc/u8x8_d_ld7032_60x32.c **** 	u8x8_cad_SendSequence(u8x8, u8x8_d_ld7032_60x32_powersave0_seq);
  72              		.loc 1 151 0
  73 0022 3449     		ldr	r1, .L20+4
  74 0024 00E0     		b	.L17
  75              	.L9:
ARM GAS  C:\Users\jesse\AppData\Local\Temp\cc0mbira.s 			page 5


 152:..\..\..\u8g2\u8g2\csrc/u8x8_d_ld7032_60x32.c ****       else
 153:..\..\..\u8g2\u8g2\csrc/u8x8_d_ld7032_60x32.c **** 	u8x8_cad_SendSequence(u8x8, u8x8_d_ld7032_60x32_powersave1_seq);
  76              		.loc 1 153 0
  77 0026 3449     		ldr	r1, .L20+8
  78              	.LVL5:
  79              	.L17:
  80 0028 2046     		mov	r0, r4
  81 002a FFF7FEFF 		bl	u8x8_cad_SendSequence
  82              	.LVL6:
  83 002e 1FE0     		b	.L15
  84              	.LVL7:
  85              	.L6:
 154:..\..\..\u8g2\u8g2\csrc/u8x8_d_ld7032_60x32.c ****       break;
 155:..\..\..\u8g2\u8g2\csrc/u8x8_d_ld7032_60x32.c ****     case U8X8_MSG_DISPLAY_SET_FLIP_MODE:
 156:..\..\..\u8g2\u8g2\csrc/u8x8_d_ld7032_60x32.c ****       if ( arg_int == 0 )
  86              		.loc 1 156 0
  87 0030 2AB9     		cbnz	r2, .L10
 157:..\..\..\u8g2\u8g2\csrc/u8x8_d_ld7032_60x32.c ****       {
 158:..\..\..\u8g2\u8g2\csrc/u8x8_d_ld7032_60x32.c **** 	u8x8_cad_SendSequence(u8x8, u8x8_d_ld7032_60x32_flip0_seq);
  88              		.loc 1 158 0
  89 0032 3249     		ldr	r1, .L20+12
  90 0034 FFF7FEFF 		bl	u8x8_cad_SendSequence
  91              	.LVL8:
 159:..\..\..\u8g2\u8g2\csrc/u8x8_d_ld7032_60x32.c **** 	u8x8->x_offset = u8x8->display_info->default_x_offset;
  92              		.loc 1 159 0
  93 0038 2368     		ldr	r3, [r4]
  94 003a 9B7C     		ldrb	r3, [r3, #18]	@ zero_extendqisi2
  95 003c 04E0     		b	.L18
  96              	.LVL9:
  97              	.L10:
 160:..\..\..\u8g2\u8g2\csrc/u8x8_d_ld7032_60x32.c ****       }
 161:..\..\..\u8g2\u8g2\csrc/u8x8_d_ld7032_60x32.c ****       else
 162:..\..\..\u8g2\u8g2\csrc/u8x8_d_ld7032_60x32.c ****       {
 163:..\..\..\u8g2\u8g2\csrc/u8x8_d_ld7032_60x32.c **** 	u8x8_cad_SendSequence(u8x8, u8x8_d_ld7032_60x32_flip1_seq);
  98              		.loc 1 163 0
  99 003e 3049     		ldr	r1, .L20+16
 100 0040 FFF7FEFF 		bl	u8x8_cad_SendSequence
 101              	.LVL10:
 164:..\..\..\u8g2\u8g2\csrc/u8x8_d_ld7032_60x32.c **** 	u8x8->x_offset = u8x8->display_info->flipmode_x_offset;
 102              		.loc 1 164 0
 103 0044 2368     		ldr	r3, [r4]
 104 0046 DB7C     		ldrb	r3, [r3, #19]	@ zero_extendqisi2
 105              	.L18:
 106 0048 84F82230 		strb	r3, [r4, #34]
 107 004c 10E0     		b	.L15
 108              	.LVL11:
 109              	.L7:
 165:..\..\..\u8g2\u8g2\csrc/u8x8_d_ld7032_60x32.c ****       }
 166:..\..\..\u8g2\u8g2\csrc/u8x8_d_ld7032_60x32.c ****       break;
 167:..\..\..\u8g2\u8g2\csrc/u8x8_d_ld7032_60x32.c **** #ifdef U8X8_WITH_SET_CONTRAST
 168:..\..\..\u8g2\u8g2\csrc/u8x8_d_ld7032_60x32.c ****     case U8X8_MSG_DISPLAY_SET_CONTRAST:
 169:..\..\..\u8g2\u8g2\csrc/u8x8_d_ld7032_60x32.c ****       u8x8_cad_StartTransfer(u8x8);
 110              		.loc 1 169 0
 111 004e FFF7FEFF 		bl	u8x8_cad_StartTransfer
 112              	.LVL12:
 170:..\..\..\u8g2\u8g2\csrc/u8x8_d_ld7032_60x32.c ****       u8x8_cad_SendCmd(u8x8, 0x012 );
 113              		.loc 1 170 0
ARM GAS  C:\Users\jesse\AppData\Local\Temp\cc0mbira.s 			page 6


 114 0052 1221     		movs	r1, #18
 115 0054 2046     		mov	r0, r4
 116 0056 FFF7FEFF 		bl	u8x8_cad_SendCmd
 117              	.LVL13:
 171:..\..\..\u8g2\u8g2\csrc/u8x8_d_ld7032_60x32.c ****       if ( arg_int > 0x07f )			/* default is 0x040, limit to 0x07f to be on the safe side (hopefull
 172:..\..\..\u8g2\u8g2\csrc/u8x8_d_ld7032_60x32.c **** 	arg_int= 0x07f;
 118              		.loc 1 172 0
 119 005a 15F0800F 		tst	r5, #128
 120              	.LVL14:
 173:..\..\..\u8g2\u8g2\csrc/u8x8_d_ld7032_60x32.c ****       u8x8_cad_SendArg(u8x8, arg_int );	/* values from 0x00 to 0x0ff are allowed, bit will all valu
 121              		.loc 1 173 0
 122 005e 0CBF     		ite	eq
 123 0060 2946     		moveq	r1, r5
 124 0062 7F21     		movne	r1, #127
 125 0064 2046     		mov	r0, r4
 126 0066 FFF7FEFF 		bl	u8x8_cad_SendArg
 127              	.LVL15:
 128              	.L16:
 174:..\..\..\u8g2\u8g2\csrc/u8x8_d_ld7032_60x32.c ****       u8x8_cad_EndTransfer(u8x8);
 129              		.loc 1 174 0
 130 006a 2046     		mov	r0, r4
 131 006c FFF7FEFF 		bl	u8x8_cad_EndTransfer
 132              	.LVL16:
 133              	.L15:
 175:..\..\..\u8g2\u8g2\csrc/u8x8_d_ld7032_60x32.c ****       break;
 176:..\..\..\u8g2\u8g2\csrc/u8x8_d_ld7032_60x32.c **** #endif
 177:..\..\..\u8g2\u8g2\csrc/u8x8_d_ld7032_60x32.c ****     case U8X8_MSG_DISPLAY_DRAW_TILE:
 178:..\..\..\u8g2\u8g2\csrc/u8x8_d_ld7032_60x32.c ****       u8x8_cad_StartTransfer(u8x8);
 179:..\..\..\u8g2\u8g2\csrc/u8x8_d_ld7032_60x32.c ****       x = ((u8x8_tile_t *)arg_ptr)->x_pos;    
 180:..\..\..\u8g2\u8g2\csrc/u8x8_d_ld7032_60x32.c ****       x += u8x8->x_offset/8;
 181:..\..\..\u8g2\u8g2\csrc/u8x8_d_ld7032_60x32.c ****       u8x8_cad_SendCmd(u8x8, 0x034 );
 182:..\..\..\u8g2\u8g2\csrc/u8x8_d_ld7032_60x32.c ****       u8x8_cad_SendArg(u8x8, x );
 183:..\..\..\u8g2\u8g2\csrc/u8x8_d_ld7032_60x32.c ****       u8x8_cad_SendCmd(u8x8, 0x035 );
 184:..\..\..\u8g2\u8g2\csrc/u8x8_d_ld7032_60x32.c ****       u8x8_cad_SendArg(u8x8, 0x007 );
 185:..\..\..\u8g2\u8g2\csrc/u8x8_d_ld7032_60x32.c ****       u8x8_cad_SendCmd(u8x8, 0x036 );
 186:..\..\..\u8g2\u8g2\csrc/u8x8_d_ld7032_60x32.c ****       u8x8_cad_SendArg(u8x8, (((u8x8_tile_t *)arg_ptr)->y_pos)*8 );
 187:..\..\..\u8g2\u8g2\csrc/u8x8_d_ld7032_60x32.c ****       u8x8_cad_SendCmd(u8x8, 0x037 );
 188:..\..\..\u8g2\u8g2\csrc/u8x8_d_ld7032_60x32.c ****       u8x8_cad_SendArg(u8x8, 0x01f );
 189:..\..\..\u8g2\u8g2\csrc/u8x8_d_ld7032_60x32.c ****       u8x8_cad_SendCmd(u8x8, 0x008 );
 190:..\..\..\u8g2\u8g2\csrc/u8x8_d_ld7032_60x32.c ****     
 191:..\..\..\u8g2\u8g2\csrc/u8x8_d_ld7032_60x32.c ****       
 192:..\..\..\u8g2\u8g2\csrc/u8x8_d_ld7032_60x32.c ****       do
 193:..\..\..\u8g2\u8g2\csrc/u8x8_d_ld7032_60x32.c ****       {
 194:..\..\..\u8g2\u8g2\csrc/u8x8_d_ld7032_60x32.c **** 	c = ((u8x8_tile_t *)arg_ptr)->cnt;
 195:..\..\..\u8g2\u8g2\csrc/u8x8_d_ld7032_60x32.c **** 	ptr = ((u8x8_tile_t *)arg_ptr)->tile_ptr;
 196:..\..\..\u8g2\u8g2\csrc/u8x8_d_ld7032_60x32.c **** 	u8x8_cad_SendData(u8x8, c*8, ptr); 	/* note: SendData can not handle more than 255 bytes */
 197:..\..\..\u8g2\u8g2\csrc/u8x8_d_ld7032_60x32.c **** 	arg_int--;
 198:..\..\..\u8g2\u8g2\csrc/u8x8_d_ld7032_60x32.c ****       } while( arg_int > 0 );
 199:..\..\..\u8g2\u8g2\csrc/u8x8_d_ld7032_60x32.c ****       
 200:..\..\..\u8g2\u8g2\csrc/u8x8_d_ld7032_60x32.c ****       u8x8_cad_EndTransfer(u8x8);
 201:..\..\..\u8g2\u8g2\csrc/u8x8_d_ld7032_60x32.c ****       break;
 202:..\..\..\u8g2\u8g2\csrc/u8x8_d_ld7032_60x32.c ****     default:
 203:..\..\..\u8g2\u8g2\csrc/u8x8_d_ld7032_60x32.c ****       return 0;
 204:..\..\..\u8g2\u8g2\csrc/u8x8_d_ld7032_60x32.c ****   }
 205:..\..\..\u8g2\u8g2\csrc/u8x8_d_ld7032_60x32.c ****   return 1;
 134              		.loc 1 205 0
 135 0070 0120     		movs	r0, #1
ARM GAS  C:\Users\jesse\AppData\Local\Temp\cc0mbira.s 			page 7


 175:..\..\..\u8g2\u8g2\csrc/u8x8_d_ld7032_60x32.c ****       break;
 136              		.loc 1 175 0
 137 0072 F8BD     		pop	{r3, r4, r5, r6, r7, pc}
 138              	.LVL17:
 139              	.L8:
 178:..\..\..\u8g2\u8g2\csrc/u8x8_d_ld7032_60x32.c ****       x = ((u8x8_tile_t *)arg_ptr)->x_pos;    
 140              		.loc 1 178 0
 141 0074 FFF7FEFF 		bl	u8x8_cad_StartTransfer
 142              	.LVL18:
 179:..\..\..\u8g2\u8g2\csrc/u8x8_d_ld7032_60x32.c ****       x += u8x8->x_offset/8;
 143              		.loc 1 179 0
 144 0078 7B79     		ldrb	r3, [r7, #5]	@ zero_extendqisi2
 145              	.LVL19:
 180:..\..\..\u8g2\u8g2\csrc/u8x8_d_ld7032_60x32.c ****       u8x8_cad_SendCmd(u8x8, 0x034 );
 146              		.loc 1 180 0
 147 007a 94F82260 		ldrb	r6, [r4, #34]	@ zero_extendqisi2
 181:..\..\..\u8g2\u8g2\csrc/u8x8_d_ld7032_60x32.c ****       u8x8_cad_SendArg(u8x8, x );
 148              		.loc 1 181 0
 149 007e 3421     		movs	r1, #52
 180:..\..\..\u8g2\u8g2\csrc/u8x8_d_ld7032_60x32.c ****       u8x8_cad_SendCmd(u8x8, 0x034 );
 150              		.loc 1 180 0
 151 0080 03EBD606 		add	r6, r3, r6, lsr #3
 152 0084 F6B2     		uxtb	r6, r6
 153              	.LVL20:
 181:..\..\..\u8g2\u8g2\csrc/u8x8_d_ld7032_60x32.c ****       u8x8_cad_SendArg(u8x8, x );
 154              		.loc 1 181 0
 155 0086 2046     		mov	r0, r4
 156 0088 FFF7FEFF 		bl	u8x8_cad_SendCmd
 157              	.LVL21:
 182:..\..\..\u8g2\u8g2\csrc/u8x8_d_ld7032_60x32.c ****       u8x8_cad_SendCmd(u8x8, 0x035 );
 158              		.loc 1 182 0
 159 008c 3146     		mov	r1, r6
 160 008e 2046     		mov	r0, r4
 161 0090 FFF7FEFF 		bl	u8x8_cad_SendArg
 162              	.LVL22:
 183:..\..\..\u8g2\u8g2\csrc/u8x8_d_ld7032_60x32.c ****       u8x8_cad_SendArg(u8x8, 0x007 );
 163              		.loc 1 183 0
 164 0094 3521     		movs	r1, #53
 165 0096 2046     		mov	r0, r4
 166 0098 FFF7FEFF 		bl	u8x8_cad_SendCmd
 167              	.LVL23:
 184:..\..\..\u8g2\u8g2\csrc/u8x8_d_ld7032_60x32.c ****       u8x8_cad_SendCmd(u8x8, 0x036 );
 168              		.loc 1 184 0
 169 009c 0721     		movs	r1, #7
 170 009e 2046     		mov	r0, r4
 171 00a0 FFF7FEFF 		bl	u8x8_cad_SendArg
 172              	.LVL24:
 185:..\..\..\u8g2\u8g2\csrc/u8x8_d_ld7032_60x32.c ****       u8x8_cad_SendArg(u8x8, (((u8x8_tile_t *)arg_ptr)->y_pos)*8 );
 173              		.loc 1 185 0
 174 00a4 3621     		movs	r1, #54
 175 00a6 2046     		mov	r0, r4
 176 00a8 FFF7FEFF 		bl	u8x8_cad_SendCmd
 177              	.LVL25:
 186:..\..\..\u8g2\u8g2\csrc/u8x8_d_ld7032_60x32.c ****       u8x8_cad_SendCmd(u8x8, 0x037 );
 178              		.loc 1 186 0
 179 00ac B979     		ldrb	r1, [r7, #6]	@ zero_extendqisi2
 180 00ae 2046     		mov	r0, r4
ARM GAS  C:\Users\jesse\AppData\Local\Temp\cc0mbira.s 			page 8


 181 00b0 C900     		lsls	r1, r1, #3
 182 00b2 01F0F801 		and	r1, r1, #248
 183 00b6 FFF7FEFF 		bl	u8x8_cad_SendArg
 184              	.LVL26:
 187:..\..\..\u8g2\u8g2\csrc/u8x8_d_ld7032_60x32.c ****       u8x8_cad_SendArg(u8x8, 0x01f );
 185              		.loc 1 187 0
 186 00ba 3721     		movs	r1, #55
 187 00bc 2046     		mov	r0, r4
 188 00be FFF7FEFF 		bl	u8x8_cad_SendCmd
 189              	.LVL27:
 188:..\..\..\u8g2\u8g2\csrc/u8x8_d_ld7032_60x32.c ****       u8x8_cad_SendCmd(u8x8, 0x008 );
 190              		.loc 1 188 0
 191 00c2 1F21     		movs	r1, #31
 192 00c4 2046     		mov	r0, r4
 193 00c6 FFF7FEFF 		bl	u8x8_cad_SendArg
 194              	.LVL28:
 189:..\..\..\u8g2\u8g2\csrc/u8x8_d_ld7032_60x32.c ****     
 195              		.loc 1 189 0
 196 00ca 0821     		movs	r1, #8
 197 00cc 2046     		mov	r0, r4
 198 00ce FFF7FEFF 		bl	u8x8_cad_SendCmd
 199              	.LVL29:
 200              	.L12:
 196:..\..\..\u8g2\u8g2\csrc/u8x8_d_ld7032_60x32.c **** 	arg_int--;
 201              		.loc 1 196 0 discriminator 1
 202 00d2 3979     		ldrb	r1, [r7, #4]	@ zero_extendqisi2
 203 00d4 3A68     		ldr	r2, [r7]
 204 00d6 C900     		lsls	r1, r1, #3
 205 00d8 01F0F801 		and	r1, r1, #248
 206 00dc 2046     		mov	r0, r4
 197:..\..\..\u8g2\u8g2\csrc/u8x8_d_ld7032_60x32.c ****       } while( arg_int > 0 );
 207              		.loc 1 197 0 discriminator 1
 208 00de 013D     		subs	r5, r5, #1
 209              	.LVL30:
 196:..\..\..\u8g2\u8g2\csrc/u8x8_d_ld7032_60x32.c **** 	arg_int--;
 210              		.loc 1 196 0 discriminator 1
 211 00e0 FFF7FEFF 		bl	u8x8_cad_SendData
 212              	.LVL31:
 198:..\..\..\u8g2\u8g2\csrc/u8x8_d_ld7032_60x32.c ****       
 213              		.loc 1 198 0 discriminator 1
 214 00e4 15F0FF05 		ands	r5, r5, #255
 215              	.LVL32:
 216 00e8 F3D1     		bne	.L12
 217 00ea BEE7     		b	.L16
 218              	.LVL33:
 219              	.L13:
 203:..\..\..\u8g2\u8g2\csrc/u8x8_d_ld7032_60x32.c ****   }
 220              		.loc 1 203 0
 221 00ec 0020     		movs	r0, #0
 222              	.LVL34:
 206:..\..\..\u8g2\u8g2\csrc/u8x8_d_ld7032_60x32.c **** }
 223              		.loc 1 206 0
 224 00ee F8BD     		pop	{r3, r4, r5, r6, r7, pc}
 225              	.LVL35:
 226              	.L21:
 227              		.align	2
 228              	.L20:
ARM GAS  C:\Users\jesse\AppData\Local\Temp\cc0mbira.s 			page 9


 229 00f0 00000000 		.word	.LANCHOR0
 230 00f4 67000000 		.word	.LANCHOR0+103
 231 00f8 6E000000 		.word	.LANCHOR0+110
 232 00fc 75000000 		.word	.LANCHOR0+117
 233 0100 7C000000 		.word	.LANCHOR0+124
 234              		.cfi_endproc
 235              	.LFE0:
 236              		.size	u8x8_d_ld7032_generic, .-u8x8_d_ld7032_generic
 237              		.section	.text.u8x8_d_ld7032_60x32,"ax",%progbits
 238              		.align	1
 239              		.global	u8x8_d_ld7032_60x32
 240              		.thumb
 241              		.thumb_func
 242              		.type	u8x8_d_ld7032_60x32, %function
 243              	u8x8_d_ld7032_60x32:
 244              	.LFB1:
 207:..\..\..\u8g2\u8g2\csrc/u8x8_d_ld7032_60x32.c **** 
 208:..\..\..\u8g2\u8g2\csrc/u8x8_d_ld7032_60x32.c **** 
 209:..\..\..\u8g2\u8g2\csrc/u8x8_d_ld7032_60x32.c **** static const u8x8_display_info_t u8x8_ld7032_60x32_display_info =
 210:..\..\..\u8g2\u8g2\csrc/u8x8_d_ld7032_60x32.c **** {
 211:..\..\..\u8g2\u8g2\csrc/u8x8_d_ld7032_60x32.c ****   /* chip_enable_level = */ 0,
 212:..\..\..\u8g2\u8g2\csrc/u8x8_d_ld7032_60x32.c ****   /* chip_disable_level = */ 1,
 213:..\..\..\u8g2\u8g2\csrc/u8x8_d_ld7032_60x32.c ****   
 214:..\..\..\u8g2\u8g2\csrc/u8x8_d_ld7032_60x32.c ****   /* post_chip_enable_wait_ns = */ 15,
 215:..\..\..\u8g2\u8g2\csrc/u8x8_d_ld7032_60x32.c ****   /* pre_chip_disable_wait_ns = */ 20,
 216:..\..\..\u8g2\u8g2\csrc/u8x8_d_ld7032_60x32.c ****   /* reset_pulse_width_ms = */ 100, 	
 217:..\..\..\u8g2\u8g2\csrc/u8x8_d_ld7032_60x32.c ****   /* post_reset_wait_ms = */ 100, 
 218:..\..\..\u8g2\u8g2\csrc/u8x8_d_ld7032_60x32.c ****   /* sda_setup_time_ns = */ 30,		/* 20ns, but cycle time is 60ns, so use 60/2 */
 219:..\..\..\u8g2\u8g2\csrc/u8x8_d_ld7032_60x32.c ****   /* sck_pulse_width_ns = */ 30,	/* 20ns, but cycle time is 60ns, so use 60/2  */
 220:..\..\..\u8g2\u8g2\csrc/u8x8_d_ld7032_60x32.c ****   /* sck_clock_hz = */ 4000000UL,	/* since Arduino 1.6.0, the SPI bus speed in Hz. Should be  10000
 221:..\..\..\u8g2\u8g2\csrc/u8x8_d_ld7032_60x32.c ****   /* spi_mode = */ 0,		/* active high, rising edge */
 222:..\..\..\u8g2\u8g2\csrc/u8x8_d_ld7032_60x32.c ****   /* i2c_bus_clock_100kHz = */ 4,
 223:..\..\..\u8g2\u8g2\csrc/u8x8_d_ld7032_60x32.c ****   /* data_setup_time_ns = */ 20,
 224:..\..\..\u8g2\u8g2\csrc/u8x8_d_ld7032_60x32.c ****   /* write_pulse_width_ns = */ 40,	
 225:..\..\..\u8g2\u8g2\csrc/u8x8_d_ld7032_60x32.c ****   /* tile_width = */ 8,
 226:..\..\..\u8g2\u8g2\csrc/u8x8_d_ld7032_60x32.c ****   /* tile_hight = */ 4,
 227:..\..\..\u8g2\u8g2\csrc/u8x8_d_ld7032_60x32.c ****   /* default_x_offset = */ 0,
 228:..\..\..\u8g2\u8g2\csrc/u8x8_d_ld7032_60x32.c ****   /* flipmode_x_offset = */ 0,
 229:..\..\..\u8g2\u8g2\csrc/u8x8_d_ld7032_60x32.c ****   /* pixel_width = */ 60,
 230:..\..\..\u8g2\u8g2\csrc/u8x8_d_ld7032_60x32.c ****   /* pixel_height = */ 32
 231:..\..\..\u8g2\u8g2\csrc/u8x8_d_ld7032_60x32.c **** };
 232:..\..\..\u8g2\u8g2\csrc/u8x8_d_ld7032_60x32.c **** 
 233:..\..\..\u8g2\u8g2\csrc/u8x8_d_ld7032_60x32.c **** uint8_t u8x8_d_ld7032_60x32(u8x8_t *u8x8, uint8_t msg, uint8_t arg_int, void *arg_ptr)
 234:..\..\..\u8g2\u8g2\csrc/u8x8_d_ld7032_60x32.c **** {
 245              		.loc 1 234 0
 246              		.cfi_startproc
 247              		@ args = 0, pretend = 0, frame = 0
 248              		@ frame_needed = 0, uses_anonymous_args = 0
 249              	.LVL36:
 235:..\..\..\u8g2\u8g2\csrc/u8x8_d_ld7032_60x32.c ****     if ( msg == U8X8_MSG_DISPLAY_SETUP_MEMORY )
 250              		.loc 1 235 0
 251 0000 0929     		cmp	r1, #9
 234:..\..\..\u8g2\u8g2\csrc/u8x8_d_ld7032_60x32.c ****     if ( msg == U8X8_MSG_DISPLAY_SETUP_MEMORY )
 252              		.loc 1 234 0
 253 0002 10B5     		push	{r4, lr}
 254              		.cfi_def_cfa_offset 8
 255              		.cfi_offset 4, -8
ARM GAS  C:\Users\jesse\AppData\Local\Temp\cc0mbira.s 			page 10


 256              		.cfi_offset 14, -4
 257              		.loc 1 235 0
 258 0004 03D0     		beq	.L26
 236:..\..\..\u8g2\u8g2\csrc/u8x8_d_ld7032_60x32.c ****     {
 237:..\..\..\u8g2\u8g2\csrc/u8x8_d_ld7032_60x32.c ****       u8x8_d_helper_display_setup_memory(u8x8, &u8x8_ld7032_60x32_display_info);
 238:..\..\..\u8g2\u8g2\csrc/u8x8_d_ld7032_60x32.c ****       return 1;
 239:..\..\..\u8g2\u8g2\csrc/u8x8_d_ld7032_60x32.c ****     }
 240:..\..\..\u8g2\u8g2\csrc/u8x8_d_ld7032_60x32.c ****     return u8x8_d_ld7032_generic(u8x8, msg, arg_int, arg_ptr);
 241:..\..\..\u8g2\u8g2\csrc/u8x8_d_ld7032_60x32.c **** }
 259              		.loc 1 241 0
 260 0006 BDE81040 		pop	{r4, lr}
 261              		.cfi_remember_state
 262              		.cfi_restore 14
 263              		.cfi_restore 4
 264              		.cfi_def_cfa_offset 0
 240:..\..\..\u8g2\u8g2\csrc/u8x8_d_ld7032_60x32.c **** }
 265              		.loc 1 240 0
 266 000a FFF7FEBF 		b	u8x8_d_ld7032_generic
 267              	.LVL37:
 268              	.L26:
 269              		.cfi_restore_state
 237:..\..\..\u8g2\u8g2\csrc/u8x8_d_ld7032_60x32.c ****       return 1;
 270              		.loc 1 237 0
 271 000e 0249     		ldr	r1, .L27
 272              	.LVL38:
 273 0010 FFF7FEFF 		bl	u8x8_d_helper_display_setup_memory
 274              	.LVL39:
 275              		.loc 1 241 0
 276 0014 0120     		movs	r0, #1
 277 0016 10BD     		pop	{r4, pc}
 278              	.L28:
 279              		.align	2
 280              	.L27:
 281 0018 80000000 		.word	.LANCHOR0+128
 282              		.cfi_endproc
 283              	.LFE1:
 284              		.size	u8x8_d_ld7032_60x32, .-u8x8_d_ld7032_60x32
 285              		.section	.text.u8x8_d_ld7032_60x32_alt,"ax",%progbits
 286              		.align	1
 287              		.global	u8x8_d_ld7032_60x32_alt
 288              		.thumb
 289              		.thumb_func
 290              		.type	u8x8_d_ld7032_60x32_alt, %function
 291              	u8x8_d_ld7032_60x32_alt:
 292              	.LFB2:
 242:..\..\..\u8g2\u8g2\csrc/u8x8_d_ld7032_60x32.c **** 
 243:..\..\..\u8g2\u8g2\csrc/u8x8_d_ld7032_60x32.c **** 
 244:..\..\..\u8g2\u8g2\csrc/u8x8_d_ld7032_60x32.c **** 
 245:..\..\..\u8g2\u8g2\csrc/u8x8_d_ld7032_60x32.c **** /* alternative version, issue #1189 */
 246:..\..\..\u8g2\u8g2\csrc/u8x8_d_ld7032_60x32.c **** 
 247:..\..\..\u8g2\u8g2\csrc/u8x8_d_ld7032_60x32.c **** /* new sequence https://github.com/olikraus/u8g2/issues/1189 */
 248:..\..\..\u8g2\u8g2\csrc/u8x8_d_ld7032_60x32.c **** static const uint8_t u8x8_d_ld7032_60x32_alt_init_seq[] = {
 249:..\..\..\u8g2\u8g2\csrc/u8x8_d_ld7032_60x32.c ****     
 250:..\..\..\u8g2\u8g2\csrc/u8x8_d_ld7032_60x32.c ****   U8X8_START_TRANSFER(),             	/* enable chip, delay is part of the transfer start */
 251:..\..\..\u8g2\u8g2\csrc/u8x8_d_ld7032_60x32.c **** 
 252:..\..\..\u8g2\u8g2\csrc/u8x8_d_ld7032_60x32.c ****   U8X8_CA(0x02, 0x00),		  		
 253:..\..\..\u8g2\u8g2\csrc/u8x8_d_ld7032_60x32.c ****   U8X8_CA(0x14, 0x00),		  		
ARM GAS  C:\Users\jesse\AppData\Local\Temp\cc0mbira.s 			page 11


 254:..\..\..\u8g2\u8g2\csrc/u8x8_d_ld7032_60x32.c ****   U8X8_CA(0x1A, 0x05),		  		
 255:..\..\..\u8g2\u8g2\csrc/u8x8_d_ld7032_60x32.c ****   U8X8_CA(0x1D, 0x00),		  	
 256:..\..\..\u8g2\u8g2\csrc/u8x8_d_ld7032_60x32.c ****   U8X8_CA(0x09, 0x00),	      		
 257:..\..\..\u8g2\u8g2\csrc/u8x8_d_ld7032_60x32.c ****   U8X8_CAA(0x30, 0x00, 0x3F),
 258:..\..\..\u8g2\u8g2\csrc/u8x8_d_ld7032_60x32.c ****   U8X8_CAA(0x32, 0x08, 0x27),
 259:..\..\..\u8g2\u8g2\csrc/u8x8_d_ld7032_60x32.c ****   U8X8_CA(0x34, 0x00),				
 260:..\..\..\u8g2\u8g2\csrc/u8x8_d_ld7032_60x32.c ****   U8X8_CA(0x35, 0x07),		
 261:..\..\..\u8g2\u8g2\csrc/u8x8_d_ld7032_60x32.c ****   U8X8_CA(0x36, 0x08),	
 262:..\..\..\u8g2\u8g2\csrc/u8x8_d_ld7032_60x32.c ****   U8X8_CA(0x37, 0x27),			
 263:..\..\..\u8g2\u8g2\csrc/u8x8_d_ld7032_60x32.c ****   U8X8_CA(0x38, 0x00),        
 264:..\..\..\u8g2\u8g2\csrc/u8x8_d_ld7032_60x32.c ****   U8X8_CA(0x39, 0x20),       
 265:..\..\..\u8g2\u8g2\csrc/u8x8_d_ld7032_60x32.c ****   U8X8_CA(0x10, 0x05),		  	
 266:..\..\..\u8g2\u8g2\csrc/u8x8_d_ld7032_60x32.c ****   U8X8_CA(0x16, 0x00),		  	
 267:..\..\..\u8g2\u8g2\csrc/u8x8_d_ld7032_60x32.c ****   U8X8_CA(0x18, 0x08),		  		
 268:..\..\..\u8g2\u8g2\csrc/u8x8_d_ld7032_60x32.c ****   U8X8_CA(0x12, 0x2F),		  	
 269:..\..\..\u8g2\u8g2\csrc/u8x8_d_ld7032_60x32.c ****   U8X8_CA(0x3D, 0x01),		  	
 270:..\..\..\u8g2\u8g2\csrc/u8x8_d_ld7032_60x32.c ****   U8X8_CA(0x3F, 0x10),		  		
 271:..\..\..\u8g2\u8g2\csrc/u8x8_d_ld7032_60x32.c ****   U8X8_CA(0x44, 0x02),		  		
 272:..\..\..\u8g2\u8g2\csrc/u8x8_d_ld7032_60x32.c ****   U8X8_CA(0x48, 0x03),		  	
 273:..\..\..\u8g2\u8g2\csrc/u8x8_d_ld7032_60x32.c ****   U8X8_CA(0x17, 0x00),         
 274:..\..\..\u8g2\u8g2\csrc/u8x8_d_ld7032_60x32.c ****   U8X8_CA(0x13, 0x01),        
 275:..\..\..\u8g2\u8g2\csrc/u8x8_d_ld7032_60x32.c ****   U8X8_CA(0x3F, 0x11),
 276:..\..\..\u8g2\u8g2\csrc/u8x8_d_ld7032_60x32.c ****   U8X8_CA(0x3D, 0x00),
 277:..\..\..\u8g2\u8g2\csrc/u8x8_d_ld7032_60x32.c **** 
 278:..\..\..\u8g2\u8g2\csrc/u8x8_d_ld7032_60x32.c ****   U8X8_END_TRANSFER(),             	/* disable chip */
 279:..\..\..\u8g2\u8g2\csrc/u8x8_d_ld7032_60x32.c ****   U8X8_END()             			/* end of sequence */};
 280:..\..\..\u8g2\u8g2\csrc/u8x8_d_ld7032_60x32.c **** 
 281:..\..\..\u8g2\u8g2\csrc/u8x8_d_ld7032_60x32.c **** uint8_t u8x8_d_ld7032_60x32_alt(u8x8_t *u8x8, uint8_t msg, uint8_t arg_int, void *arg_ptr)
 282:..\..\..\u8g2\u8g2\csrc/u8x8_d_ld7032_60x32.c **** {
 293              		.loc 1 282 0
 294              		.cfi_startproc
 295              		@ args = 0, pretend = 0, frame = 0
 296              		@ frame_needed = 0, uses_anonymous_args = 0
 297              	.LVL40:
 283:..\..\..\u8g2\u8g2\csrc/u8x8_d_ld7032_60x32.c ****     if ( msg == U8X8_MSG_DISPLAY_SETUP_MEMORY )
 298              		.loc 1 283 0
 299 0000 0929     		cmp	r1, #9
 282:..\..\..\u8g2\u8g2\csrc/u8x8_d_ld7032_60x32.c ****     if ( msg == U8X8_MSG_DISPLAY_SETUP_MEMORY )
 300              		.loc 1 282 0
 301 0002 70B5     		push	{r4, r5, r6, lr}
 302              		.cfi_def_cfa_offset 16
 303              		.cfi_offset 4, -16
 304              		.cfi_offset 5, -12
 305              		.cfi_offset 6, -8
 306              		.cfi_offset 14, -4
 282:..\..\..\u8g2\u8g2\csrc/u8x8_d_ld7032_60x32.c ****     if ( msg == U8X8_MSG_DISPLAY_SETUP_MEMORY )
 307              		.loc 1 282 0
 308 0004 0546     		mov	r5, r0
 309              		.loc 1 283 0
 310 0006 03D1     		bne	.L30
 284:..\..\..\u8g2\u8g2\csrc/u8x8_d_ld7032_60x32.c ****     {
 285:..\..\..\u8g2\u8g2\csrc/u8x8_d_ld7032_60x32.c ****       u8x8_d_helper_display_setup_memory(u8x8, &u8x8_ld7032_60x32_display_info);
 311              		.loc 1 285 0
 312 0008 0949     		ldr	r1, .L33
 313              	.LVL41:
 314 000a FFF7FEFF 		bl	u8x8_d_helper_display_setup_memory
 315              	.LVL42:
ARM GAS  C:\Users\jesse\AppData\Local\Temp\cc0mbira.s 			page 12


 286:..\..\..\u8g2\u8g2\csrc/u8x8_d_ld7032_60x32.c ****       return 1;
 316              		.loc 1 286 0
 317 000e 0CE0     		b	.L31
 318              	.LVL43:
 319              	.L30:
 287:..\..\..\u8g2\u8g2\csrc/u8x8_d_ld7032_60x32.c ****     }
 288:..\..\..\u8g2\u8g2\csrc/u8x8_d_ld7032_60x32.c **** 
 289:..\..\..\u8g2\u8g2\csrc/u8x8_d_ld7032_60x32.c ****     if ( msg ==U8X8_MSG_DISPLAY_INIT )
 320              		.loc 1 289 0
 321 0010 0A29     		cmp	r1, #10
 322 0012 06D1     		bne	.L32
 290:..\..\..\u8g2\u8g2\csrc/u8x8_d_ld7032_60x32.c ****     {
 291:..\..\..\u8g2\u8g2\csrc/u8x8_d_ld7032_60x32.c ****       u8x8_d_helper_display_init(u8x8);
 323              		.loc 1 291 0
 324 0014 FFF7FEFF 		bl	u8x8_d_helper_display_init
 325              	.LVL44:
 292:..\..\..\u8g2\u8g2\csrc/u8x8_d_ld7032_60x32.c ****       u8x8_cad_SendSequence(u8x8, u8x8_d_ld7032_60x32_alt_init_seq);    
 326              		.loc 1 292 0
 327 0018 0649     		ldr	r1, .L33+4
 328 001a 2846     		mov	r0, r5
 329 001c FFF7FEFF 		bl	u8x8_cad_SendSequence
 330              	.LVL45:
 293:..\..\..\u8g2\u8g2\csrc/u8x8_d_ld7032_60x32.c ****       return 1;
 331              		.loc 1 293 0
 332 0020 03E0     		b	.L31
 333              	.LVL46:
 334              	.L32:
 294:..\..\..\u8g2\u8g2\csrc/u8x8_d_ld7032_60x32.c ****     }
 295:..\..\..\u8g2\u8g2\csrc/u8x8_d_ld7032_60x32.c ****     
 296:..\..\..\u8g2\u8g2\csrc/u8x8_d_ld7032_60x32.c ****     return u8x8_d_ld7032_generic(u8x8, msg, arg_int, arg_ptr);
 297:..\..\..\u8g2\u8g2\csrc/u8x8_d_ld7032_60x32.c **** }
 335              		.loc 1 297 0
 336 0022 BDE87040 		pop	{r4, r5, r6, lr}
 337              		.cfi_remember_state
 338              		.cfi_restore 14
 339              		.cfi_restore 6
 340              		.cfi_restore 5
 341              		.cfi_restore 4
 342              		.cfi_def_cfa_offset 0
 296:..\..\..\u8g2\u8g2\csrc/u8x8_d_ld7032_60x32.c **** }
 343              		.loc 1 296 0
 344 0026 FFF7FEBF 		b	u8x8_d_ld7032_generic
 345              	.LVL47:
 346              	.L31:
 347              		.cfi_restore_state
 348              		.loc 1 297 0
 349 002a 0120     		movs	r0, #1
 350 002c 70BD     		pop	{r4, r5, r6, pc}
 351              	.LVL48:
 352              	.L34:
 353 002e 00BF     		.align	2
 354              	.L33:
 355 0030 80000000 		.word	.LANCHOR0+128
 356 0034 98000000 		.word	.LANCHOR0+152
 357              		.cfi_endproc
 358              	.LFE2:
 359              		.size	u8x8_d_ld7032_60x32_alt, .-u8x8_d_ld7032_60x32_alt
ARM GAS  C:\Users\jesse\AppData\Local\Temp\cc0mbira.s 			page 13


 360              		.section	.rodata
 361              		.align	2
 362              		.set	.LANCHOR0,. + 0
 363              		.type	u8x8_d_ld7032_60x32_init_seq, %object
 364              		.size	u8x8_d_ld7032_60x32_init_seq, 103
 365              	u8x8_d_ld7032_60x32_init_seq:
 366 0000 18       		.byte	24
 367 0001 15       		.byte	21
 368 0002 02       		.byte	2
 369 0003 16       		.byte	22
 370 0004 00       		.byte	0
 371 0005 15       		.byte	21
 372 0006 14       		.byte	20
 373 0007 16       		.byte	22
 374 0008 00       		.byte	0
 375 0009 15       		.byte	21
 376 000a 1A       		.byte	26
 377 000b 16       		.byte	22
 378 000c 04       		.byte	4
 379 000d 15       		.byte	21
 380 000e 1D       		.byte	29
 381 000f 16       		.byte	22
 382 0010 00       		.byte	0
 383 0011 15       		.byte	21
 384 0012 09       		.byte	9
 385 0013 16       		.byte	22
 386 0014 00       		.byte	0
 387 0015 15       		.byte	21
 388 0016 30       		.byte	48
 389 0017 16       		.byte	22
 390 0018 00       		.byte	0
 391 0019 16       		.byte	22
 392 001a 3B       		.byte	59
 393 001b 15       		.byte	21
 394 001c 32       		.byte	50
 395 001d 16       		.byte	22
 396 001e 00       		.byte	0
 397 001f 16       		.byte	22
 398 0020 1F       		.byte	31
 399 0021 15       		.byte	21
 400 0022 34       		.byte	52
 401 0023 16       		.byte	22
 402 0024 00       		.byte	0
 403 0025 15       		.byte	21
 404 0026 35       		.byte	53
 405 0027 16       		.byte	22
 406 0028 07       		.byte	7
 407 0029 15       		.byte	21
 408 002a 36       		.byte	54
 409 002b 16       		.byte	22
 410 002c 00       		.byte	0
 411 002d 15       		.byte	21
 412 002e 37       		.byte	55
 413 002f 16       		.byte	22
 414 0030 1F       		.byte	31
 415 0031 15       		.byte	21
 416 0032 38       		.byte	56
ARM GAS  C:\Users\jesse\AppData\Local\Temp\cc0mbira.s 			page 14


 417 0033 16       		.byte	22
 418 0034 00       		.byte	0
 419 0035 15       		.byte	21
 420 0036 39       		.byte	57
 421 0037 16       		.byte	22
 422 0038 00       		.byte	0
 423 0039 15       		.byte	21
 424 003a 10       		.byte	16
 425 003b 16       		.byte	22
 426 003c 00       		.byte	0
 427 003d 15       		.byte	21
 428 003e 16       		.byte	22
 429 003f 16       		.byte	22
 430 0040 00       		.byte	0
 431 0041 15       		.byte	21
 432 0042 12       		.byte	18
 433 0043 16       		.byte	22
 434 0044 40       		.byte	64
 435 0045 15       		.byte	21
 436 0046 18       		.byte	24
 437 0047 16       		.byte	22
 438 0048 03       		.byte	3
 439 0049 15       		.byte	21
 440 004a 44       		.byte	68
 441 004b 16       		.byte	22
 442 004c 02       		.byte	2
 443 004d 15       		.byte	21
 444 004e 48       		.byte	72
 445 004f 16       		.byte	22
 446 0050 03       		.byte	3
 447 0051 15       		.byte	21
 448 0052 17       		.byte	23
 449 0053 16       		.byte	22
 450 0054 00       		.byte	0
 451 0055 15       		.byte	21
 452 0056 13       		.byte	19
 453 0057 16       		.byte	22
 454 0058 00       		.byte	0
 455 0059 15       		.byte	21
 456 005a 1C       		.byte	28
 457 005b 16       		.byte	22
 458 005c 00       		.byte	0
 459 005d 15       		.byte	21
 460 005e 3F       		.byte	63
 461 005f 16       		.byte	22
 462 0060 11       		.byte	17
 463 0061 15       		.byte	21
 464 0062 3D       		.byte	61
 465 0063 16       		.byte	22
 466 0064 00       		.byte	0
 467 0065 19       		.byte	25
 468 0066 FF       		.byte	-1
 469              		.type	u8x8_d_ld7032_60x32_powersave0_seq, %object
 470              		.size	u8x8_d_ld7032_60x32_powersave0_seq, 7
 471              	u8x8_d_ld7032_60x32_powersave0_seq:
 472 0067 18       		.byte	24
 473 0068 15       		.byte	21
ARM GAS  C:\Users\jesse\AppData\Local\Temp\cc0mbira.s 			page 15


 474 0069 02       		.byte	2
 475 006a 16       		.byte	22
 476 006b 01       		.byte	1
 477 006c 19       		.byte	25
 478 006d FF       		.byte	-1
 479              		.type	u8x8_d_ld7032_60x32_powersave1_seq, %object
 480              		.size	u8x8_d_ld7032_60x32_powersave1_seq, 7
 481              	u8x8_d_ld7032_60x32_powersave1_seq:
 482 006e 18       		.byte	24
 483 006f 15       		.byte	21
 484 0070 02       		.byte	2
 485 0071 16       		.byte	22
 486 0072 00       		.byte	0
 487 0073 19       		.byte	25
 488 0074 FF       		.byte	-1
 489              		.type	u8x8_d_ld7032_60x32_flip0_seq, %object
 490              		.size	u8x8_d_ld7032_60x32_flip0_seq, 7
 491              	u8x8_d_ld7032_60x32_flip0_seq:
 492 0075 18       		.byte	24
 493 0076 15       		.byte	21
 494 0077 09       		.byte	9
 495 0078 16       		.byte	22
 496 0079 00       		.byte	0
 497 007a 19       		.byte	25
 498 007b FF       		.byte	-1
 499              		.type	u8x8_d_ld7032_60x32_flip1_seq, %object
 500              		.size	u8x8_d_ld7032_60x32_flip1_seq, 3
 501              	u8x8_d_ld7032_60x32_flip1_seq:
 502 007c 18       		.byte	24
 503 007d 19       		.byte	25
 504 007e FF       		.byte	-1
 505 007f 00       		.space	1
 506              		.type	u8x8_ld7032_60x32_display_info, %object
 507              		.size	u8x8_ld7032_60x32_display_info, 24
 508              	u8x8_ld7032_60x32_display_info:
 509 0080 00       		.byte	0
 510 0081 01       		.byte	1
 511 0082 0F       		.byte	15
 512 0083 14       		.byte	20
 513 0084 64       		.byte	100
 514 0085 64       		.byte	100
 515 0086 1E       		.byte	30
 516 0087 1E       		.byte	30
 517 0088 00093D00 		.word	4000000
 518 008c 00       		.byte	0
 519 008d 04       		.byte	4
 520 008e 14       		.byte	20
 521 008f 28       		.byte	40
 522 0090 08       		.byte	8
 523 0091 04       		.byte	4
 524 0092 00       		.byte	0
 525 0093 00       		.byte	0
 526 0094 3C00     		.short	60
 527 0096 2000     		.short	32
 528              		.type	u8x8_d_ld7032_60x32_alt_init_seq, %object
 529              		.size	u8x8_d_ld7032_60x32_alt_init_seq, 107
 530              	u8x8_d_ld7032_60x32_alt_init_seq:
ARM GAS  C:\Users\jesse\AppData\Local\Temp\cc0mbira.s 			page 16


 531 0098 18       		.byte	24
 532 0099 15       		.byte	21
 533 009a 02       		.byte	2
 534 009b 16       		.byte	22
 535 009c 00       		.byte	0
 536 009d 15       		.byte	21
 537 009e 14       		.byte	20
 538 009f 16       		.byte	22
 539 00a0 00       		.byte	0
 540 00a1 15       		.byte	21
 541 00a2 1A       		.byte	26
 542 00a3 16       		.byte	22
 543 00a4 05       		.byte	5
 544 00a5 15       		.byte	21
 545 00a6 1D       		.byte	29
 546 00a7 16       		.byte	22
 547 00a8 00       		.byte	0
 548 00a9 15       		.byte	21
 549 00aa 09       		.byte	9
 550 00ab 16       		.byte	22
 551 00ac 00       		.byte	0
 552 00ad 15       		.byte	21
 553 00ae 30       		.byte	48
 554 00af 16       		.byte	22
 555 00b0 00       		.byte	0
 556 00b1 16       		.byte	22
 557 00b2 3F       		.byte	63
 558 00b3 15       		.byte	21
 559 00b4 32       		.byte	50
 560 00b5 16       		.byte	22
 561 00b6 08       		.byte	8
 562 00b7 16       		.byte	22
 563 00b8 27       		.byte	39
 564 00b9 15       		.byte	21
 565 00ba 34       		.byte	52
 566 00bb 16       		.byte	22
 567 00bc 00       		.byte	0
 568 00bd 15       		.byte	21
 569 00be 35       		.byte	53
 570 00bf 16       		.byte	22
 571 00c0 07       		.byte	7
 572 00c1 15       		.byte	21
 573 00c2 36       		.byte	54
 574 00c3 16       		.byte	22
 575 00c4 08       		.byte	8
 576 00c5 15       		.byte	21
 577 00c6 37       		.byte	55
 578 00c7 16       		.byte	22
 579 00c8 27       		.byte	39
 580 00c9 15       		.byte	21
 581 00ca 38       		.byte	56
 582 00cb 16       		.byte	22
 583 00cc 00       		.byte	0
 584 00cd 15       		.byte	21
 585 00ce 39       		.byte	57
 586 00cf 16       		.byte	22
 587 00d0 20       		.byte	32
ARM GAS  C:\Users\jesse\AppData\Local\Temp\cc0mbira.s 			page 17


 588 00d1 15       		.byte	21
 589 00d2 10       		.byte	16
 590 00d3 16       		.byte	22
 591 00d4 05       		.byte	5
 592 00d5 15       		.byte	21
 593 00d6 16       		.byte	22
 594 00d7 16       		.byte	22
 595 00d8 00       		.byte	0
 596 00d9 15       		.byte	21
 597 00da 18       		.byte	24
 598 00db 16       		.byte	22
 599 00dc 08       		.byte	8
 600 00dd 15       		.byte	21
 601 00de 12       		.byte	18
 602 00df 16       		.byte	22
 603 00e0 2F       		.byte	47
 604 00e1 15       		.byte	21
 605 00e2 3D       		.byte	61
 606 00e3 16       		.byte	22
 607 00e4 01       		.byte	1
 608 00e5 15       		.byte	21
 609 00e6 3F       		.byte	63
 610 00e7 16       		.byte	22
 611 00e8 10       		.byte	16
 612 00e9 15       		.byte	21
 613 00ea 44       		.byte	68
 614 00eb 16       		.byte	22
 615 00ec 02       		.byte	2
 616 00ed 15       		.byte	21
 617 00ee 48       		.byte	72
 618 00ef 16       		.byte	22
 619 00f0 03       		.byte	3
 620 00f1 15       		.byte	21
 621 00f2 17       		.byte	23
 622 00f3 16       		.byte	22
 623 00f4 00       		.byte	0
 624 00f5 15       		.byte	21
 625 00f6 13       		.byte	19
 626 00f7 16       		.byte	22
 627 00f8 01       		.byte	1
 628 00f9 15       		.byte	21
 629 00fa 3F       		.byte	63
 630 00fb 16       		.byte	22
 631 00fc 11       		.byte	17
 632 00fd 15       		.byte	21
 633 00fe 3D       		.byte	61
 634 00ff 16       		.byte	22
 635 0100 00       		.byte	0
 636 0101 19       		.byte	25
 637 0102 FF       		.byte	-1
 638              		.text
 639              	.Letext0:
 640              		.file 2 "c:\\program files (x86)\\cypress\\psoc creator\\4.4\\psoc creator\\import\\gnu\\arm\\5.4.
 641              		.file 3 "c:\\program files (x86)\\cypress\\psoc creator\\4.4\\psoc creator\\import\\gnu\\arm\\5.4.
 642              		.file 4 "..\\..\\..\\u8g2\\u8g2\\csrc\\u8x8.h"