ARM GAS  C:\Users\jesse\AppData\Local\Temp\ccYaDLdO.s 			page 1


   1              		.syntax unified
   2              		.cpu cortex-m3
   3              		.fpu softvfp
   4              		.eabi_attribute 20, 1
   5              		.eabi_attribute 21, 1
   6              		.eabi_attribute 23, 3
   7              		.eabi_attribute 24, 1
   8              		.eabi_attribute 25, 1
   9              		.eabi_attribute 26, 1
  10              		.eabi_attribute 30, 4
  11              		.eabi_attribute 34, 1
  12              		.eabi_attribute 18, 4
  13              		.thumb
  14              		.syntax unified
  15              		.file	"u8x8_d_ssd1309.c"
  16              		.text
  17              	.Ltext0:
  18              		.cfi_sections	.debug_frame
  19              		.section	.text.u8x8_d_ssd1309_generic,"ax",%progbits
  20              		.align	1
  21              		.thumb
  22              		.thumb_func
  23              		.type	u8x8_d_ssd1309_generic, %function
  24              	u8x8_d_ssd1309_generic:
  25              	.LFB0:
  26              		.file 1 "..\\..\\..\\u8g2\\u8g2\\csrc\\u8x8_d_ssd1309.c"
   1:..\..\..\u8g2\u8g2\csrc/u8x8_d_ssd1309.c **** /*
   2:..\..\..\u8g2\u8g2\csrc/u8x8_d_ssd1309.c **** 
   3:..\..\..\u8g2\u8g2\csrc/u8x8_d_ssd1309.c ****   u8x8_d_ssd1309.c
   4:..\..\..\u8g2\u8g2\csrc/u8x8_d_ssd1309.c **** 
   5:..\..\..\u8g2\u8g2\csrc/u8x8_d_ssd1309.c ****   Universal 8bit Graphics Library (https://github.com/olikraus/u8g2/)
   6:..\..\..\u8g2\u8g2\csrc/u8x8_d_ssd1309.c **** 
   7:..\..\..\u8g2\u8g2\csrc/u8x8_d_ssd1309.c ****   Copyright (c) 2017, olikraus@gmail.com
   8:..\..\..\u8g2\u8g2\csrc/u8x8_d_ssd1309.c ****   All rights reserved.
   9:..\..\..\u8g2\u8g2\csrc/u8x8_d_ssd1309.c **** 
  10:..\..\..\u8g2\u8g2\csrc/u8x8_d_ssd1309.c ****   Redistribution and use in source and binary forms, with or without modification, 
  11:..\..\..\u8g2\u8g2\csrc/u8x8_d_ssd1309.c ****   are permitted provided that the following conditions are met:
  12:..\..\..\u8g2\u8g2\csrc/u8x8_d_ssd1309.c **** 
  13:..\..\..\u8g2\u8g2\csrc/u8x8_d_ssd1309.c ****   * Redistributions of source code must retain the above copyright notice, this list 
  14:..\..\..\u8g2\u8g2\csrc/u8x8_d_ssd1309.c ****     of conditions and the following disclaimer.
  15:..\..\..\u8g2\u8g2\csrc/u8x8_d_ssd1309.c ****     
  16:..\..\..\u8g2\u8g2\csrc/u8x8_d_ssd1309.c ****   * Redistributions in binary form must reproduce the above copyright notice, this 
  17:..\..\..\u8g2\u8g2\csrc/u8x8_d_ssd1309.c ****     list of conditions and the following disclaimer in the documentation and/or other 
  18:..\..\..\u8g2\u8g2\csrc/u8x8_d_ssd1309.c ****     materials provided with the distribution.
  19:..\..\..\u8g2\u8g2\csrc/u8x8_d_ssd1309.c **** 
  20:..\..\..\u8g2\u8g2\csrc/u8x8_d_ssd1309.c ****   THIS SOFTWARE IS PROVIDED BY THE COPYRIGHT HOLDERS AND 
  21:..\..\..\u8g2\u8g2\csrc/u8x8_d_ssd1309.c ****   CONTRIBUTORS "AS IS" AND ANY EXPRESS OR IMPLIED WARRANTIES, 
  22:..\..\..\u8g2\u8g2\csrc/u8x8_d_ssd1309.c ****   INCLUDING, BUT NOT LIMITED TO, THE IMPLIED WARRANTIES OF 
  23:..\..\..\u8g2\u8g2\csrc/u8x8_d_ssd1309.c ****   MERCHANTABILITY AND FITNESS FOR A PARTICULAR PURPOSE ARE 
  24:..\..\..\u8g2\u8g2\csrc/u8x8_d_ssd1309.c ****   DISCLAIMED. IN NO EVENT SHALL THE COPYRIGHT HOLDER OR 
  25:..\..\..\u8g2\u8g2\csrc/u8x8_d_ssd1309.c ****   CONTRIBUTORS BE LIABLE FOR ANY DIRECT, INDIRECT, INCIDENTAL, 
  26:..\..\..\u8g2\u8g2\csrc/u8x8_d_ssd1309.c ****   SPECIAL, EXEMPLARY, OR CONSEQUENTIAL DAMAGES (INCLUDING, BUT 
  27:..\..\..\u8g2\u8g2\csrc/u8x8_d_ssd1309.c ****   NOT LIMITED TO, PROCUREMENT OF SUBSTITUTE GOODS OR SERVICES; 
  28:..\..\..\u8g2\u8g2\csrc/u8x8_d_ssd1309.c ****   LOSS OF USE, DATA, OR PROFITS; OR BUSINESS INTERRUPTION) HOWEVER 
  29:..\..\..\u8g2\u8g2\csrc/u8x8_d_ssd1309.c ****   CAUSED AND ON ANY THEORY OF LIABILITY, WHETHER IN CONTRACT, 
  30:..\..\..\u8g2\u8g2\csrc/u8x8_d_ssd1309.c ****   STRICT LIABILITY, OR TORT (INCLUDING NEGLIGENCE OR OTHERWISE) 
  31:..\..\..\u8g2\u8g2\csrc/u8x8_d_ssd1309.c ****   ARISING IN ANY WAY OUT OF THE USE OF THIS SOFTWARE, EVEN IF 
ARM GAS  C:\Users\jesse\AppData\Local\Temp\ccYaDLdO.s 			page 2


  32:..\..\..\u8g2\u8g2\csrc/u8x8_d_ssd1309.c ****   ADVISED OF THE POSSIBILITY OF SUCH DAMAGE.  
  33:..\..\..\u8g2\u8g2\csrc/u8x8_d_ssd1309.c ****   
  34:..\..\..\u8g2\u8g2\csrc/u8x8_d_ssd1309.c **** */
  35:..\..\..\u8g2\u8g2\csrc/u8x8_d_ssd1309.c **** 
  36:..\..\..\u8g2\u8g2\csrc/u8x8_d_ssd1309.c **** 
  37:..\..\..\u8g2\u8g2\csrc/u8x8_d_ssd1309.c **** #include "u8x8.h"
  38:..\..\..\u8g2\u8g2\csrc/u8x8_d_ssd1309.c **** 
  39:..\..\..\u8g2\u8g2\csrc/u8x8_d_ssd1309.c **** 
  40:..\..\..\u8g2\u8g2\csrc/u8x8_d_ssd1309.c **** 
  41:..\..\..\u8g2\u8g2\csrc/u8x8_d_ssd1309.c **** 
  42:..\..\..\u8g2\u8g2\csrc/u8x8_d_ssd1309.c **** static const uint8_t u8x8_d_ssd1309_powersave0_seq[] = {
  43:..\..\..\u8g2\u8g2\csrc/u8x8_d_ssd1309.c ****   U8X8_START_TRANSFER(),             	/* enable chip, delay is part of the transfer start */
  44:..\..\..\u8g2\u8g2\csrc/u8x8_d_ssd1309.c ****   U8X8_C(0x0af),		                /* display on */
  45:..\..\..\u8g2\u8g2\csrc/u8x8_d_ssd1309.c ****   U8X8_END_TRANSFER(),             	/* disable chip */
  46:..\..\..\u8g2\u8g2\csrc/u8x8_d_ssd1309.c ****   U8X8_END()             			/* end of sequence */
  47:..\..\..\u8g2\u8g2\csrc/u8x8_d_ssd1309.c **** };
  48:..\..\..\u8g2\u8g2\csrc/u8x8_d_ssd1309.c **** 
  49:..\..\..\u8g2\u8g2\csrc/u8x8_d_ssd1309.c **** static const uint8_t u8x8_d_ssd1309_powersave1_seq[] = {
  50:..\..\..\u8g2\u8g2\csrc/u8x8_d_ssd1309.c ****   U8X8_START_TRANSFER(),             	/* enable chip, delay is part of the transfer start */
  51:..\..\..\u8g2\u8g2\csrc/u8x8_d_ssd1309.c ****   U8X8_C(0x0ae),		                /* display off */
  52:..\..\..\u8g2\u8g2\csrc/u8x8_d_ssd1309.c ****   U8X8_END_TRANSFER(),             	/* disable chip */
  53:..\..\..\u8g2\u8g2\csrc/u8x8_d_ssd1309.c ****   U8X8_END()             			/* end of sequence */
  54:..\..\..\u8g2\u8g2\csrc/u8x8_d_ssd1309.c **** };
  55:..\..\..\u8g2\u8g2\csrc/u8x8_d_ssd1309.c **** 
  56:..\..\..\u8g2\u8g2\csrc/u8x8_d_ssd1309.c **** static const uint8_t u8x8_d_ssd1309_128x64_flip0_seq[] = {
  57:..\..\..\u8g2\u8g2\csrc/u8x8_d_ssd1309.c ****   U8X8_START_TRANSFER(),             	/* enable chip, delay is part of the transfer start */
  58:..\..\..\u8g2\u8g2\csrc/u8x8_d_ssd1309.c ****   U8X8_C(0x0a1),				/* segment remap a0/a1*/
  59:..\..\..\u8g2\u8g2\csrc/u8x8_d_ssd1309.c ****   U8X8_C(0x0c8),				/* c0: scan dir normal, c8: reverse */
  60:..\..\..\u8g2\u8g2\csrc/u8x8_d_ssd1309.c ****   U8X8_END_TRANSFER(),             	/* disable chip */
  61:..\..\..\u8g2\u8g2\csrc/u8x8_d_ssd1309.c ****   U8X8_END()             			/* end of sequence */
  62:..\..\..\u8g2\u8g2\csrc/u8x8_d_ssd1309.c **** };
  63:..\..\..\u8g2\u8g2\csrc/u8x8_d_ssd1309.c **** 
  64:..\..\..\u8g2\u8g2\csrc/u8x8_d_ssd1309.c **** static const uint8_t u8x8_d_ssd1309_128x64_flip1_seq[] = {
  65:..\..\..\u8g2\u8g2\csrc/u8x8_d_ssd1309.c ****   U8X8_START_TRANSFER(),             	/* enable chip, delay is part of the transfer start */
  66:..\..\..\u8g2\u8g2\csrc/u8x8_d_ssd1309.c ****   U8X8_C(0x0a0),				/* segment remap a0/a1*/
  67:..\..\..\u8g2\u8g2\csrc/u8x8_d_ssd1309.c ****   U8X8_C(0x0c0),				/* c0: scan dir normal, c8: reverse */
  68:..\..\..\u8g2\u8g2\csrc/u8x8_d_ssd1309.c ****   U8X8_END_TRANSFER(),             	/* disable chip */
  69:..\..\..\u8g2\u8g2\csrc/u8x8_d_ssd1309.c ****   U8X8_END()             			/* end of sequence */
  70:..\..\..\u8g2\u8g2\csrc/u8x8_d_ssd1309.c **** };
  71:..\..\..\u8g2\u8g2\csrc/u8x8_d_ssd1309.c **** 
  72:..\..\..\u8g2\u8g2\csrc/u8x8_d_ssd1309.c **** 
  73:..\..\..\u8g2\u8g2\csrc/u8x8_d_ssd1309.c **** 
  74:..\..\..\u8g2\u8g2\csrc/u8x8_d_ssd1309.c **** static uint8_t u8x8_d_ssd1309_generic(u8x8_t *u8x8, uint8_t msg, uint8_t arg_int, void *arg_ptr)
  75:..\..\..\u8g2\u8g2\csrc/u8x8_d_ssd1309.c **** {
  27              		.loc 1 75 0
  28              		.cfi_startproc
  29              		@ args = 0, pretend = 0, frame = 0
  30              		@ frame_needed = 0, uses_anonymous_args = 0
  31              	.LVL0:
  76:..\..\..\u8g2\u8g2\csrc/u8x8_d_ssd1309.c ****   uint8_t x, c;
  77:..\..\..\u8g2\u8g2\csrc/u8x8_d_ssd1309.c ****   uint8_t *ptr;
  78:..\..\..\u8g2\u8g2\csrc/u8x8_d_ssd1309.c ****   switch(msg)
  32              		.loc 1 78 0
  33 0000 0E29     		cmp	r1, #14
  75:..\..\..\u8g2\u8g2\csrc/u8x8_d_ssd1309.c ****   uint8_t x, c;
  34              		.loc 1 75 0
  35 0002 F8B5     		push	{r3, r4, r5, r6, r7, lr}
ARM GAS  C:\Users\jesse\AppData\Local\Temp\ccYaDLdO.s 			page 3


  36              		.cfi_def_cfa_offset 24
  37              		.cfi_offset 3, -24
  38              		.cfi_offset 4, -20
  39              		.cfi_offset 5, -16
  40              		.cfi_offset 6, -12
  41              		.cfi_offset 7, -8
  42              		.cfi_offset 14, -4
  75:..\..\..\u8g2\u8g2\csrc/u8x8_d_ssd1309.c ****   uint8_t x, c;
  43              		.loc 1 75 0
  44 0004 0446     		mov	r4, r0
  45 0006 1546     		mov	r5, r2
  46 0008 1F46     		mov	r7, r3
  47              		.loc 1 78 0
  48 000a 33D0     		beq	.L3
  49 000c 0F29     		cmp	r1, #15
  50 000e 02D0     		beq	.L4
  51 0010 0B29     		cmp	r1, #11
  52 0012 3DD1     		bne	.L10
  53 0014 26E0     		b	.L15
  54              	.L4:
  55              	.LVL1:
  56              	.LBB4:
  57              	.LBB5:
  79:..\..\..\u8g2\u8g2\csrc/u8x8_d_ssd1309.c ****   {
  80:..\..\..\u8g2\u8g2\csrc/u8x8_d_ssd1309.c ****     case U8X8_MSG_DISPLAY_DRAW_TILE:
  81:..\..\..\u8g2\u8g2\csrc/u8x8_d_ssd1309.c ****       u8x8_cad_StartTransfer(u8x8);
  58              		.loc 1 81 0
  59 0016 FFF7FEFF 		bl	u8x8_cad_StartTransfer
  60              	.LVL2:
  82:..\..\..\u8g2\u8g2\csrc/u8x8_d_ssd1309.c ****       x = ((u8x8_tile_t *)arg_ptr)->x_pos;    
  83:..\..\..\u8g2\u8g2\csrc/u8x8_d_ssd1309.c ****       x *= 8;
  84:..\..\..\u8g2\u8g2\csrc/u8x8_d_ssd1309.c ****       x += u8x8->x_offset;
  61              		.loc 1 84 0
  62 001a 94F82230 		ldrb	r3, [r4, #34]	@ zero_extendqisi2
  82:..\..\..\u8g2\u8g2\csrc/u8x8_d_ssd1309.c ****       x = ((u8x8_tile_t *)arg_ptr)->x_pos;    
  63              		.loc 1 82 0
  64 001e 7E79     		ldrb	r6, [r7, #5]	@ zero_extendqisi2
  65              	.LVL3:
  85:..\..\..\u8g2\u8g2\csrc/u8x8_d_ssd1309.c ****     
  86:..\..\..\u8g2\u8g2\csrc/u8x8_d_ssd1309.c ****       u8x8_cad_SendCmd(u8x8, 0x010 | (x>>4) );
  66              		.loc 1 86 0
  67 0020 2046     		mov	r0, r4
  84:..\..\..\u8g2\u8g2\csrc/u8x8_d_ssd1309.c ****     
  68              		.loc 1 84 0
  69 0022 03EBC606 		add	r6, r3, r6, lsl #3
  70              	.LVL4:
  71 0026 06F0FF06 		and	r6, r6, #255
  72              	.LVL5:
  73              		.loc 1 86 0
  74 002a 3109     		lsrs	r1, r6, #4
  75 002c 41F01001 		orr	r1, r1, #16
  76 0030 FFF7FEFF 		bl	u8x8_cad_SendCmd
  77              	.LVL6:
  87:..\..\..\u8g2\u8g2\csrc/u8x8_d_ssd1309.c ****       u8x8_cad_SendCmd(u8x8, 0x000 | ((x&15)));
  78              		.loc 1 87 0
  79 0034 06F00F01 		and	r1, r6, #15
  80 0038 2046     		mov	r0, r4
ARM GAS  C:\Users\jesse\AppData\Local\Temp\ccYaDLdO.s 			page 4


  81 003a FFF7FEFF 		bl	u8x8_cad_SendCmd
  82              	.LVL7:
  88:..\..\..\u8g2\u8g2\csrc/u8x8_d_ssd1309.c ****       u8x8_cad_SendCmd(u8x8, 0x0b0 | (((u8x8_tile_t *)arg_ptr)->y_pos)   );
  83              		.loc 1 88 0
  84 003e B979     		ldrb	r1, [r7, #6]	@ zero_extendqisi2
  85 0040 2046     		mov	r0, r4
  86 0042 41F0B001 		orr	r1, r1, #176
  87 0046 FFF7FEFF 		bl	u8x8_cad_SendCmd
  88              	.LVL8:
  89              	.L6:
  89:..\..\..\u8g2\u8g2\csrc/u8x8_d_ssd1309.c **** 
  90:..\..\..\u8g2\u8g2\csrc/u8x8_d_ssd1309.c ****     
  91:..\..\..\u8g2\u8g2\csrc/u8x8_d_ssd1309.c ****       do
  92:..\..\..\u8g2\u8g2\csrc/u8x8_d_ssd1309.c ****       {
  93:..\..\..\u8g2\u8g2\csrc/u8x8_d_ssd1309.c **** 	c = ((u8x8_tile_t *)arg_ptr)->cnt;
  94:..\..\..\u8g2\u8g2\csrc/u8x8_d_ssd1309.c **** 	ptr = ((u8x8_tile_t *)arg_ptr)->tile_ptr;
  95:..\..\..\u8g2\u8g2\csrc/u8x8_d_ssd1309.c **** 	u8x8_cad_SendData(u8x8, c*8, ptr); 	/* note: SendData can not handle more than 255 bytes */
  90              		.loc 1 95 0
  91 004a 3979     		ldrb	r1, [r7, #4]	@ zero_extendqisi2
  92 004c 3A68     		ldr	r2, [r7]
  93 004e C900     		lsls	r1, r1, #3
  94 0050 01F0F801 		and	r1, r1, #248
  95 0054 2046     		mov	r0, r4
  96:..\..\..\u8g2\u8g2\csrc/u8x8_d_ssd1309.c **** 	/*
  97:..\..\..\u8g2\u8g2\csrc/u8x8_d_ssd1309.c **** 	do
  98:..\..\..\u8g2\u8g2\csrc/u8x8_d_ssd1309.c **** 	{
  99:..\..\..\u8g2\u8g2\csrc/u8x8_d_ssd1309.c **** 	  u8x8_cad_SendData(u8x8, 8, ptr);
 100:..\..\..\u8g2\u8g2\csrc/u8x8_d_ssd1309.c **** 	  ptr += 8;
 101:..\..\..\u8g2\u8g2\csrc/u8x8_d_ssd1309.c **** 	  c--;
 102:..\..\..\u8g2\u8g2\csrc/u8x8_d_ssd1309.c **** 	} while( c > 0 );
 103:..\..\..\u8g2\u8g2\csrc/u8x8_d_ssd1309.c **** 	*/
 104:..\..\..\u8g2\u8g2\csrc/u8x8_d_ssd1309.c **** 	arg_int--;
  96              		.loc 1 104 0
  97 0056 013D     		subs	r5, r5, #1
  98              	.LVL9:
  95:..\..\..\u8g2\u8g2\csrc/u8x8_d_ssd1309.c **** 	/*
  99              		.loc 1 95 0
 100 0058 FFF7FEFF 		bl	u8x8_cad_SendData
 101              	.LVL10:
 105:..\..\..\u8g2\u8g2\csrc/u8x8_d_ssd1309.c ****       } while( arg_int > 0 );
 102              		.loc 1 105 0
 103 005c 15F0FF05 		ands	r5, r5, #255
 104              	.LVL11:
 105 0060 F3D1     		bne	.L6
 106 0062 11E0     		b	.L13
 107              	.LVL12:
 108              	.L15:
 109              	.LBE5:
 110              	.LBE4:
 106:..\..\..\u8g2\u8g2\csrc/u8x8_d_ssd1309.c ****       
 107:..\..\..\u8g2\u8g2\csrc/u8x8_d_ssd1309.c ****       u8x8_cad_EndTransfer(u8x8);
 108:..\..\..\u8g2\u8g2\csrc/u8x8_d_ssd1309.c ****       break;
 109:..\..\..\u8g2\u8g2\csrc/u8x8_d_ssd1309.c ****     case U8X8_MSG_DISPLAY_SET_POWER_SAVE:
 110:..\..\..\u8g2\u8g2\csrc/u8x8_d_ssd1309.c ****       if ( arg_int == 0 )
 111              		.loc 1 110 0
 112 0064 0AB9     		cbnz	r2, .L7
 111:..\..\..\u8g2\u8g2\csrc/u8x8_d_ssd1309.c **** 	u8x8_cad_SendSequence(u8x8, u8x8_d_ssd1309_powersave0_seq);
ARM GAS  C:\Users\jesse\AppData\Local\Temp\ccYaDLdO.s 			page 5


 113              		.loc 1 111 0
 114 0066 0B49     		ldr	r1, .L16
 115              	.LVL13:
 116 0068 00E0     		b	.L11
 117              	.LVL14:
 118              	.L7:
 112:..\..\..\u8g2\u8g2\csrc/u8x8_d_ssd1309.c ****       else
 113:..\..\..\u8g2\u8g2\csrc/u8x8_d_ssd1309.c **** 	u8x8_cad_SendSequence(u8x8, u8x8_d_ssd1309_powersave1_seq);
 119              		.loc 1 113 0
 120 006a 0B49     		ldr	r1, .L16+4
 121              	.LVL15:
 122              	.L11:
 123 006c FFF7FEFF 		bl	u8x8_cad_SendSequence
 124              	.LVL16:
 125              	.L12:
 114:..\..\..\u8g2\u8g2\csrc/u8x8_d_ssd1309.c ****       break;
 115:..\..\..\u8g2\u8g2\csrc/u8x8_d_ssd1309.c **** #ifdef U8X8_WITH_SET_CONTRAST
 116:..\..\..\u8g2\u8g2\csrc/u8x8_d_ssd1309.c ****     case U8X8_MSG_DISPLAY_SET_CONTRAST:
 117:..\..\..\u8g2\u8g2\csrc/u8x8_d_ssd1309.c ****       u8x8_cad_StartTransfer(u8x8);
 118:..\..\..\u8g2\u8g2\csrc/u8x8_d_ssd1309.c ****       u8x8_cad_SendCmd(u8x8, 0x081 );
 119:..\..\..\u8g2\u8g2\csrc/u8x8_d_ssd1309.c ****       u8x8_cad_SendArg(u8x8, arg_int );	/* ssd1309 has range from 0 to 255 */
 120:..\..\..\u8g2\u8g2\csrc/u8x8_d_ssd1309.c ****       u8x8_cad_EndTransfer(u8x8);
 121:..\..\..\u8g2\u8g2\csrc/u8x8_d_ssd1309.c ****       break;
 122:..\..\..\u8g2\u8g2\csrc/u8x8_d_ssd1309.c **** #endif
 123:..\..\..\u8g2\u8g2\csrc/u8x8_d_ssd1309.c ****     default:
 124:..\..\..\u8g2\u8g2\csrc/u8x8_d_ssd1309.c ****       return 0;
 125:..\..\..\u8g2\u8g2\csrc/u8x8_d_ssd1309.c ****   }
 126:..\..\..\u8g2\u8g2\csrc/u8x8_d_ssd1309.c ****   return 1;
 126              		.loc 1 126 0
 127 0070 0120     		movs	r0, #1
 128 0072 F8BD     		pop	{r3, r4, r5, r6, r7, pc}
 129              	.LVL17:
 130              	.L3:
 117:..\..\..\u8g2\u8g2\csrc/u8x8_d_ssd1309.c ****       u8x8_cad_SendCmd(u8x8, 0x081 );
 131              		.loc 1 117 0
 132 0074 FFF7FEFF 		bl	u8x8_cad_StartTransfer
 133              	.LVL18:
 118:..\..\..\u8g2\u8g2\csrc/u8x8_d_ssd1309.c ****       u8x8_cad_SendArg(u8x8, arg_int );	/* ssd1309 has range from 0 to 255 */
 134              		.loc 1 118 0
 135 0078 8121     		movs	r1, #129
 136 007a 2046     		mov	r0, r4
 137 007c FFF7FEFF 		bl	u8x8_cad_SendCmd
 138              	.LVL19:
 119:..\..\..\u8g2\u8g2\csrc/u8x8_d_ssd1309.c ****       u8x8_cad_EndTransfer(u8x8);
 139              		.loc 1 119 0
 140 0080 2946     		mov	r1, r5
 141 0082 2046     		mov	r0, r4
 142 0084 FFF7FEFF 		bl	u8x8_cad_SendArg
 143              	.LVL20:
 144              	.L13:
 120:..\..\..\u8g2\u8g2\csrc/u8x8_d_ssd1309.c ****       break;
 145              		.loc 1 120 0
 146 0088 2046     		mov	r0, r4
 147 008a FFF7FEFF 		bl	u8x8_cad_EndTransfer
 148              	.LVL21:
 149 008e EFE7     		b	.L12
 150              	.LVL22:
ARM GAS  C:\Users\jesse\AppData\Local\Temp\ccYaDLdO.s 			page 6


 151              	.L10:
 124:..\..\..\u8g2\u8g2\csrc/u8x8_d_ssd1309.c ****   }
 152              		.loc 1 124 0
 153 0090 0020     		movs	r0, #0
 154              	.LVL23:
 127:..\..\..\u8g2\u8g2\csrc/u8x8_d_ssd1309.c **** }
 155              		.loc 1 127 0
 156 0092 F8BD     		pop	{r3, r4, r5, r6, r7, pc}
 157              	.LVL24:
 158              	.L17:
 159              		.align	2
 160              	.L16:
 161 0094 00000000 		.word	.LANCHOR0
 162 0098 05000000 		.word	.LANCHOR0+5
 163              		.cfi_endproc
 164              	.LFE0:
 165              		.size	u8x8_d_ssd1309_generic, .-u8x8_d_ssd1309_generic
 166              		.section	.text.u8x8_d_ssd1309_128x64_noname2,"ax",%progbits
 167              		.align	1
 168              		.global	u8x8_d_ssd1309_128x64_noname2
 169              		.thumb
 170              		.thumb_func
 171              		.type	u8x8_d_ssd1309_128x64_noname2, %function
 172              	u8x8_d_ssd1309_128x64_noname2:
 173              	.LFB1:
 128:..\..\..\u8g2\u8g2\csrc/u8x8_d_ssd1309.c **** 
 129:..\..\..\u8g2\u8g2\csrc/u8x8_d_ssd1309.c **** 
 130:..\..\..\u8g2\u8g2\csrc/u8x8_d_ssd1309.c **** /*=================================================*/
 131:..\..\..\u8g2\u8g2\csrc/u8x8_d_ssd1309.c **** /* offset 2 version */
 132:..\..\..\u8g2\u8g2\csrc/u8x8_d_ssd1309.c **** 
 133:..\..\..\u8g2\u8g2\csrc/u8x8_d_ssd1309.c **** /* timing from SSD1306 */
 134:..\..\..\u8g2\u8g2\csrc/u8x8_d_ssd1309.c **** static const u8x8_display_info_t u8x8_ssd1309_128x64_noname2_display_info =
 135:..\..\..\u8g2\u8g2\csrc/u8x8_d_ssd1309.c **** {
 136:..\..\..\u8g2\u8g2\csrc/u8x8_d_ssd1309.c ****   /* chip_enable_level = */ 0,
 137:..\..\..\u8g2\u8g2\csrc/u8x8_d_ssd1309.c ****   /* chip_disable_level = */ 1,
 138:..\..\..\u8g2\u8g2\csrc/u8x8_d_ssd1309.c ****   
 139:..\..\..\u8g2\u8g2\csrc/u8x8_d_ssd1309.c ****   /* post_chip_enable_wait_ns = */ 20,
 140:..\..\..\u8g2\u8g2\csrc/u8x8_d_ssd1309.c ****   /* pre_chip_disable_wait_ns = */ 10,
 141:..\..\..\u8g2\u8g2\csrc/u8x8_d_ssd1309.c ****   /* reset_pulse_width_ms = */ 100, 	/* SSD1306: 3 us */
 142:..\..\..\u8g2\u8g2\csrc/u8x8_d_ssd1309.c ****   /* post_reset_wait_ms = */ 100, /* far east OLEDs need much longer setup time */
 143:..\..\..\u8g2\u8g2\csrc/u8x8_d_ssd1309.c ****   /* sda_setup_time_ns = */ 50,		/* SSD1306: 15ns, but cycle time is 100ns, so use 100/2 */
 144:..\..\..\u8g2\u8g2\csrc/u8x8_d_ssd1309.c ****   /* sck_pulse_width_ns = */ 50,	/* SSD1306: 20ns, but cycle time is 100ns, so use 100/2, AVR: belo
 145:..\..\..\u8g2\u8g2\csrc/u8x8_d_ssd1309.c ****   /* sck_clock_hz = */ 4000000UL,	/* since Arduino 1.6.0, the SPI bus speed in Hz. Should be  10000
 146:..\..\..\u8g2\u8g2\csrc/u8x8_d_ssd1309.c ****   /* spi_mode = */ 0,		/* active high, rising edge */
 147:..\..\..\u8g2\u8g2\csrc/u8x8_d_ssd1309.c ****   /* i2c_bus_clock_100kHz = */ 4,
 148:..\..\..\u8g2\u8g2\csrc/u8x8_d_ssd1309.c ****   /* data_setup_time_ns = */ 40,
 149:..\..\..\u8g2\u8g2\csrc/u8x8_d_ssd1309.c ****   /* write_pulse_width_ns = */ 150,	/* SSD1306: cycle time is 300ns, so use 300/2 = 150 */
 150:..\..\..\u8g2\u8g2\csrc/u8x8_d_ssd1309.c ****   /* tile_width = */ 16,
 151:..\..\..\u8g2\u8g2\csrc/u8x8_d_ssd1309.c ****   /* tile_hight = */ 8,
 152:..\..\..\u8g2\u8g2\csrc/u8x8_d_ssd1309.c ****   /* default_x_offset = */ 2,
 153:..\..\..\u8g2\u8g2\csrc/u8x8_d_ssd1309.c ****   /* flipmode_x_offset = */ 2,
 154:..\..\..\u8g2\u8g2\csrc/u8x8_d_ssd1309.c ****   /* pixel_width = */ 128,
 155:..\..\..\u8g2\u8g2\csrc/u8x8_d_ssd1309.c ****   /* pixel_height = */ 64
 156:..\..\..\u8g2\u8g2\csrc/u8x8_d_ssd1309.c **** };
 157:..\..\..\u8g2\u8g2\csrc/u8x8_d_ssd1309.c **** 
 158:..\..\..\u8g2\u8g2\csrc/u8x8_d_ssd1309.c **** 
 159:..\..\..\u8g2\u8g2\csrc/u8x8_d_ssd1309.c **** static const uint8_t u8x8_d_ssd1309_128x64_noname_init_seq[] = {
ARM GAS  C:\Users\jesse\AppData\Local\Temp\ccYaDLdO.s 			page 7


 160:..\..\..\u8g2\u8g2\csrc/u8x8_d_ssd1309.c ****     
 161:..\..\..\u8g2\u8g2\csrc/u8x8_d_ssd1309.c ****   U8X8_START_TRANSFER(),             	/* enable chip, delay is part of the transfer start */
 162:..\..\..\u8g2\u8g2\csrc/u8x8_d_ssd1309.c ****   
 163:..\..\..\u8g2\u8g2\csrc/u8x8_d_ssd1309.c ****   
 164:..\..\..\u8g2\u8g2\csrc/u8x8_d_ssd1309.c ****   U8X8_C(0x0ae),		                /* display off */
 165:..\..\..\u8g2\u8g2\csrc/u8x8_d_ssd1309.c ****   U8X8_CA(0x0d5, 0x0a0),		/* clock divide ratio (0x00=1) and oscillator frequency (0x8) */
 166:..\..\..\u8g2\u8g2\csrc/u8x8_d_ssd1309.c ****   //U8X8_CA(0x0a8, 0x03f),		/* multiplex ratio */
 167:..\..\..\u8g2\u8g2\csrc/u8x8_d_ssd1309.c ****   U8X8_C(0x040),		        	/* set display start line to 0 */
 168:..\..\..\u8g2\u8g2\csrc/u8x8_d_ssd1309.c ****   U8X8_CA(0x020, 0x002),		/* horizontal addressing mode */
 169:..\..\..\u8g2\u8g2\csrc/u8x8_d_ssd1309.c ****   
 170:..\..\..\u8g2\u8g2\csrc/u8x8_d_ssd1309.c ****   U8X8_C(0x0a1),				/* segment remap a0/a1*/
 171:..\..\..\u8g2\u8g2\csrc/u8x8_d_ssd1309.c ****   U8X8_C(0x0c8),				/* c0: scan dir normal, c8: reverse */
 172:..\..\..\u8g2\u8g2\csrc/u8x8_d_ssd1309.c ****   // Flipmode
 173:..\..\..\u8g2\u8g2\csrc/u8x8_d_ssd1309.c ****   // U8X8_C(0x0a0),				/* segment remap a0/a1*/
 174:..\..\..\u8g2\u8g2\csrc/u8x8_d_ssd1309.c ****   // U8X8_C(0x0c0),				/* c0: scan dir normal, c8: reverse */
 175:..\..\..\u8g2\u8g2\csrc/u8x8_d_ssd1309.c ****   
 176:..\..\..\u8g2\u8g2\csrc/u8x8_d_ssd1309.c ****   U8X8_CA(0x0da, 0x012),		/* com pin HW config, sequential com pin config (bit 4), disable left/rig
 177:..\..\..\u8g2\u8g2\csrc/u8x8_d_ssd1309.c **** 
 178:..\..\..\u8g2\u8g2\csrc/u8x8_d_ssd1309.c ****   U8X8_CA(0x081, 0x06f), 		/* [2] set contrast control */
 179:..\..\..\u8g2\u8g2\csrc/u8x8_d_ssd1309.c ****   U8X8_CA(0x0d9, 0x0d3), 		/* [2] pre-charge period 0x022/f1*/
 180:..\..\..\u8g2\u8g2\csrc/u8x8_d_ssd1309.c ****   U8X8_CA(0x0db, 0x020), 		/* vcomh deselect level */  
 181:..\..\..\u8g2\u8g2\csrc/u8x8_d_ssd1309.c ****   // if vcomh is 0, then this will give the biggest range for contrast control issue #98
 182:..\..\..\u8g2\u8g2\csrc/u8x8_d_ssd1309.c ****   // restored the old values for the noname constructor, because vcomh=0 will not work for all OLED
 183:..\..\..\u8g2\u8g2\csrc/u8x8_d_ssd1309.c ****   
 184:..\..\..\u8g2\u8g2\csrc/u8x8_d_ssd1309.c ****   U8X8_C(0x02e),				/* Deactivate scroll */ 
 185:..\..\..\u8g2\u8g2\csrc/u8x8_d_ssd1309.c ****   U8X8_C(0x0a4),				/* output ram to display */
 186:..\..\..\u8g2\u8g2\csrc/u8x8_d_ssd1309.c ****   U8X8_C(0x0a6),				/* none inverted normal display mode */
 187:..\..\..\u8g2\u8g2\csrc/u8x8_d_ssd1309.c ****   
 188:..\..\..\u8g2\u8g2\csrc/u8x8_d_ssd1309.c ****   //U8X8_C(0x0af),		                /* display on */
 189:..\..\..\u8g2\u8g2\csrc/u8x8_d_ssd1309.c ****     
 190:..\..\..\u8g2\u8g2\csrc/u8x8_d_ssd1309.c ****   U8X8_END_TRANSFER(),             	/* disable chip */
 191:..\..\..\u8g2\u8g2\csrc/u8x8_d_ssd1309.c ****   U8X8_END()             			/* end of sequence */
 192:..\..\..\u8g2\u8g2\csrc/u8x8_d_ssd1309.c **** };
 193:..\..\..\u8g2\u8g2\csrc/u8x8_d_ssd1309.c **** 
 194:..\..\..\u8g2\u8g2\csrc/u8x8_d_ssd1309.c **** 
 195:..\..\..\u8g2\u8g2\csrc/u8x8_d_ssd1309.c **** uint8_t u8x8_d_ssd1309_128x64_noname2(u8x8_t *u8x8, uint8_t msg, uint8_t arg_int, void *arg_ptr)
 196:..\..\..\u8g2\u8g2\csrc/u8x8_d_ssd1309.c **** {
 174              		.loc 1 196 0
 175              		.cfi_startproc
 176              		@ args = 0, pretend = 0, frame = 0
 177              		@ frame_needed = 0, uses_anonymous_args = 0
 178              	.LVL25:
 179 0000 70B5     		push	{r4, r5, r6, lr}
 180              		.cfi_def_cfa_offset 16
 181              		.cfi_offset 4, -16
 182              		.cfi_offset 5, -12
 183              		.cfi_offset 6, -8
 184              		.cfi_offset 14, -4
 185              		.loc 1 196 0
 186 0002 0446     		mov	r4, r0
 187 0004 0D46     		mov	r5, r1
 188 0006 1646     		mov	r6, r2
 197:..\..\..\u8g2\u8g2\csrc/u8x8_d_ssd1309.c ****     
 198:..\..\..\u8g2\u8g2\csrc/u8x8_d_ssd1309.c ****   if ( u8x8_d_ssd1309_generic(u8x8, msg, arg_int, arg_ptr) != 0 )
 189              		.loc 1 198 0
 190 0008 FFF7FEFF 		bl	u8x8_d_ssd1309_generic
 191              	.LVL26:
ARM GAS  C:\Users\jesse\AppData\Local\Temp\ccYaDLdO.s 			page 8


 192 000c 10BB     		cbnz	r0, .L24
 199:..\..\..\u8g2\u8g2\csrc/u8x8_d_ssd1309.c ****     return 1;
 200:..\..\..\u8g2\u8g2\csrc/u8x8_d_ssd1309.c ****   
 201:..\..\..\u8g2\u8g2\csrc/u8x8_d_ssd1309.c ****   switch(msg)
 193              		.loc 1 201 0
 194 000e 0A2D     		cmp	r5, #10
 195 0010 19D0     		beq	.L20
 196 0012 0D2D     		cmp	r5, #13
 197 0014 06D0     		beq	.L21
 198 0016 092D     		cmp	r5, #9
 199 0018 1DD1     		bne	.L19
 202:..\..\..\u8g2\u8g2\csrc/u8x8_d_ssd1309.c ****   {
 203:..\..\..\u8g2\u8g2\csrc/u8x8_d_ssd1309.c ****     case U8X8_MSG_DISPLAY_SET_FLIP_MODE:
 204:..\..\..\u8g2\u8g2\csrc/u8x8_d_ssd1309.c ****       if ( arg_int == 0 )
 205:..\..\..\u8g2\u8g2\csrc/u8x8_d_ssd1309.c ****       {
 206:..\..\..\u8g2\u8g2\csrc/u8x8_d_ssd1309.c **** 	u8x8_cad_SendSequence(u8x8, u8x8_d_ssd1309_128x64_flip0_seq);
 207:..\..\..\u8g2\u8g2\csrc/u8x8_d_ssd1309.c **** 	u8x8->x_offset = u8x8->display_info->default_x_offset;
 208:..\..\..\u8g2\u8g2\csrc/u8x8_d_ssd1309.c ****       }
 209:..\..\..\u8g2\u8g2\csrc/u8x8_d_ssd1309.c ****       else
 210:..\..\..\u8g2\u8g2\csrc/u8x8_d_ssd1309.c ****       {
 211:..\..\..\u8g2\u8g2\csrc/u8x8_d_ssd1309.c **** 	u8x8_cad_SendSequence(u8x8, u8x8_d_ssd1309_128x64_flip1_seq);
 212:..\..\..\u8g2\u8g2\csrc/u8x8_d_ssd1309.c **** 	u8x8->x_offset = u8x8->display_info->flipmode_x_offset;
 213:..\..\..\u8g2\u8g2\csrc/u8x8_d_ssd1309.c ****       }
 214:..\..\..\u8g2\u8g2\csrc/u8x8_d_ssd1309.c ****       break;
 215:..\..\..\u8g2\u8g2\csrc/u8x8_d_ssd1309.c ****     case U8X8_MSG_DISPLAY_INIT:
 216:..\..\..\u8g2\u8g2\csrc/u8x8_d_ssd1309.c ****       u8x8_d_helper_display_init(u8x8);
 217:..\..\..\u8g2\u8g2\csrc/u8x8_d_ssd1309.c ****       u8x8_cad_SendSequence(u8x8, u8x8_d_ssd1309_128x64_noname_init_seq);    
 218:..\..\..\u8g2\u8g2\csrc/u8x8_d_ssd1309.c ****       break;
 219:..\..\..\u8g2\u8g2\csrc/u8x8_d_ssd1309.c ****     case U8X8_MSG_DISPLAY_SETUP_MEMORY:
 220:..\..\..\u8g2\u8g2\csrc/u8x8_d_ssd1309.c ****       u8x8_d_helper_display_setup_memory(u8x8, &u8x8_ssd1309_128x64_noname2_display_info);
 200              		.loc 1 220 0
 201 001a 0F49     		ldr	r1, .L26
 202 001c 2046     		mov	r0, r4
 203 001e FFF7FEFF 		bl	u8x8_d_helper_display_setup_memory
 204              	.LVL27:
 205 0022 17E0     		b	.L24
 206              	.L21:
 204:..\..\..\u8g2\u8g2\csrc/u8x8_d_ssd1309.c ****       {
 207              		.loc 1 204 0
 208 0024 36B9     		cbnz	r6, .L23
 206:..\..\..\u8g2\u8g2\csrc/u8x8_d_ssd1309.c **** 	u8x8->x_offset = u8x8->display_info->default_x_offset;
 209              		.loc 1 206 0
 210 0026 0D49     		ldr	r1, .L26+4
 211 0028 2046     		mov	r0, r4
 212 002a FFF7FEFF 		bl	u8x8_cad_SendSequence
 213              	.LVL28:
 207:..\..\..\u8g2\u8g2\csrc/u8x8_d_ssd1309.c ****       }
 214              		.loc 1 207 0
 215 002e 2368     		ldr	r3, [r4]
 216 0030 9B7C     		ldrb	r3, [r3, #18]	@ zero_extendqisi2
 217 0032 05E0     		b	.L25
 218              	.L23:
 211:..\..\..\u8g2\u8g2\csrc/u8x8_d_ssd1309.c **** 	u8x8->x_offset = u8x8->display_info->flipmode_x_offset;
 219              		.loc 1 211 0
 220 0034 0A49     		ldr	r1, .L26+8
 221 0036 2046     		mov	r0, r4
 222 0038 FFF7FEFF 		bl	u8x8_cad_SendSequence
ARM GAS  C:\Users\jesse\AppData\Local\Temp\ccYaDLdO.s 			page 9


 223              	.LVL29:
 212:..\..\..\u8g2\u8g2\csrc/u8x8_d_ssd1309.c ****       }
 224              		.loc 1 212 0
 225 003c 2368     		ldr	r3, [r4]
 226 003e DB7C     		ldrb	r3, [r3, #19]	@ zero_extendqisi2
 227              	.L25:
 228 0040 84F82230 		strb	r3, [r4, #34]
 229 0044 06E0     		b	.L24
 230              	.L20:
 216:..\..\..\u8g2\u8g2\csrc/u8x8_d_ssd1309.c ****       u8x8_cad_SendSequence(u8x8, u8x8_d_ssd1309_128x64_noname_init_seq);    
 231              		.loc 1 216 0
 232 0046 2046     		mov	r0, r4
 233 0048 FFF7FEFF 		bl	u8x8_d_helper_display_init
 234              	.LVL30:
 217:..\..\..\u8g2\u8g2\csrc/u8x8_d_ssd1309.c ****       break;
 235              		.loc 1 217 0
 236 004c 0549     		ldr	r1, .L26+12
 237 004e 2046     		mov	r0, r4
 238 0050 FFF7FEFF 		bl	u8x8_cad_SendSequence
 239              	.LVL31:
 240              	.L24:
 199:..\..\..\u8g2\u8g2\csrc/u8x8_d_ssd1309.c ****   
 241              		.loc 1 199 0
 242 0054 0120     		movs	r0, #1
 243              	.L19:
 221:..\..\..\u8g2\u8g2\csrc/u8x8_d_ssd1309.c ****       break;
 222:..\..\..\u8g2\u8g2\csrc/u8x8_d_ssd1309.c ****     default:
 223:..\..\..\u8g2\u8g2\csrc/u8x8_d_ssd1309.c ****       return 0;
 224:..\..\..\u8g2\u8g2\csrc/u8x8_d_ssd1309.c ****   }
 225:..\..\..\u8g2\u8g2\csrc/u8x8_d_ssd1309.c ****   return 1;
 226:..\..\..\u8g2\u8g2\csrc/u8x8_d_ssd1309.c **** }
 244              		.loc 1 226 0
 245 0056 70BD     		pop	{r4, r5, r6, pc}
 246              	.LVL32:
 247              	.L27:
 248              		.align	2
 249              	.L26:
 250 0058 44000000 		.word	.LANCHOR0+68
 251 005c 0A000000 		.word	.LANCHOR0+10
 252 0060 11000000 		.word	.LANCHOR0+17
 253 0064 18000000 		.word	.LANCHOR0+24
 254              		.cfi_endproc
 255              	.LFE1:
 256              		.size	u8x8_d_ssd1309_128x64_noname2, .-u8x8_d_ssd1309_128x64_noname2
 257              		.section	.text.u8x8_d_ssd1309_128x64_noname0,"ax",%progbits
 258              		.align	1
 259              		.global	u8x8_d_ssd1309_128x64_noname0
 260              		.thumb
 261              		.thumb_func
 262              		.type	u8x8_d_ssd1309_128x64_noname0, %function
 263              	u8x8_d_ssd1309_128x64_noname0:
 264              	.LFB2:
 227:..\..\..\u8g2\u8g2\csrc/u8x8_d_ssd1309.c **** 
 228:..\..\..\u8g2\u8g2\csrc/u8x8_d_ssd1309.c **** 
 229:..\..\..\u8g2\u8g2\csrc/u8x8_d_ssd1309.c **** /*=================================================*/
 230:..\..\..\u8g2\u8g2\csrc/u8x8_d_ssd1309.c **** /* offset 0 version */
 231:..\..\..\u8g2\u8g2\csrc/u8x8_d_ssd1309.c **** 
ARM GAS  C:\Users\jesse\AppData\Local\Temp\ccYaDLdO.s 			page 10


 232:..\..\..\u8g2\u8g2\csrc/u8x8_d_ssd1309.c **** /* timing from SSD1306 */
 233:..\..\..\u8g2\u8g2\csrc/u8x8_d_ssd1309.c **** static const u8x8_display_info_t u8x8_ssd1309_128x64_noname0_display_info =
 234:..\..\..\u8g2\u8g2\csrc/u8x8_d_ssd1309.c **** {
 235:..\..\..\u8g2\u8g2\csrc/u8x8_d_ssd1309.c ****   /* chip_enable_level = */ 0,
 236:..\..\..\u8g2\u8g2\csrc/u8x8_d_ssd1309.c ****   /* chip_disable_level = */ 1,
 237:..\..\..\u8g2\u8g2\csrc/u8x8_d_ssd1309.c ****   
 238:..\..\..\u8g2\u8g2\csrc/u8x8_d_ssd1309.c ****   /* post_chip_enable_wait_ns = */ 20,
 239:..\..\..\u8g2\u8g2\csrc/u8x8_d_ssd1309.c ****   /* pre_chip_disable_wait_ns = */ 10,
 240:..\..\..\u8g2\u8g2\csrc/u8x8_d_ssd1309.c ****   /* reset_pulse_width_ms = */ 100, 	/* SSD1306: 3 us */
 241:..\..\..\u8g2\u8g2\csrc/u8x8_d_ssd1309.c ****   /* post_reset_wait_ms = */ 100, /* far east OLEDs need much longer setup time */
 242:..\..\..\u8g2\u8g2\csrc/u8x8_d_ssd1309.c ****   /* sda_setup_time_ns = */ 50,		/* SSD1306: 15ns, but cycle time is 100ns, so use 100/2 */
 243:..\..\..\u8g2\u8g2\csrc/u8x8_d_ssd1309.c ****   /* sck_pulse_width_ns = */ 50,	/* SSD1306: 20ns, but cycle time is 100ns, so use 100/2, AVR: belo
 244:..\..\..\u8g2\u8g2\csrc/u8x8_d_ssd1309.c ****   /* sck_clock_hz = */ 4000000UL,	/* since Arduino 1.6.0, the SPI bus speed in Hz. Should be  10000
 245:..\..\..\u8g2\u8g2\csrc/u8x8_d_ssd1309.c ****   /* spi_mode = */ 0,		/* active high, rising edge */
 246:..\..\..\u8g2\u8g2\csrc/u8x8_d_ssd1309.c ****   /* i2c_bus_clock_100kHz = */ 4,
 247:..\..\..\u8g2\u8g2\csrc/u8x8_d_ssd1309.c ****   /* data_setup_time_ns = */ 40,
 248:..\..\..\u8g2\u8g2\csrc/u8x8_d_ssd1309.c ****   /* write_pulse_width_ns = */ 150,	/* SSD1306: cycle time is 300ns, so use 300/2 = 150 */
 249:..\..\..\u8g2\u8g2\csrc/u8x8_d_ssd1309.c ****   /* tile_width = */ 16,
 250:..\..\..\u8g2\u8g2\csrc/u8x8_d_ssd1309.c ****   /* tile_hight = */ 8,
 251:..\..\..\u8g2\u8g2\csrc/u8x8_d_ssd1309.c ****   /* default_x_offset = */ 0,
 252:..\..\..\u8g2\u8g2\csrc/u8x8_d_ssd1309.c ****   /* flipmode_x_offset = */ 0,
 253:..\..\..\u8g2\u8g2\csrc/u8x8_d_ssd1309.c ****   /* pixel_width = */ 128,
 254:..\..\..\u8g2\u8g2\csrc/u8x8_d_ssd1309.c ****   /* pixel_height = */ 64
 255:..\..\..\u8g2\u8g2\csrc/u8x8_d_ssd1309.c **** };
 256:..\..\..\u8g2\u8g2\csrc/u8x8_d_ssd1309.c **** 
 257:..\..\..\u8g2\u8g2\csrc/u8x8_d_ssd1309.c **** uint8_t u8x8_d_ssd1309_128x64_noname0(u8x8_t *u8x8, uint8_t msg, uint8_t arg_int, void *arg_ptr)
 258:..\..\..\u8g2\u8g2\csrc/u8x8_d_ssd1309.c **** {
 265              		.loc 1 258 0
 266              		.cfi_startproc
 267              		@ args = 0, pretend = 0, frame = 0
 268              		@ frame_needed = 0, uses_anonymous_args = 0
 269              	.LVL33:
 270 0000 70B5     		push	{r4, r5, r6, lr}
 271              		.cfi_def_cfa_offset 16
 272              		.cfi_offset 4, -16
 273              		.cfi_offset 5, -12
 274              		.cfi_offset 6, -8
 275              		.cfi_offset 14, -4
 276              		.loc 1 258 0
 277 0002 0446     		mov	r4, r0
 278 0004 0D46     		mov	r5, r1
 279 0006 1646     		mov	r6, r2
 259:..\..\..\u8g2\u8g2\csrc/u8x8_d_ssd1309.c ****     
 260:..\..\..\u8g2\u8g2\csrc/u8x8_d_ssd1309.c ****   if ( u8x8_d_ssd1309_generic(u8x8, msg, arg_int, arg_ptr) != 0 )
 280              		.loc 1 260 0
 281 0008 FFF7FEFF 		bl	u8x8_d_ssd1309_generic
 282              	.LVL34:
 283 000c 10BB     		cbnz	r0, .L34
 261:..\..\..\u8g2\u8g2\csrc/u8x8_d_ssd1309.c ****     return 1;
 262:..\..\..\u8g2\u8g2\csrc/u8x8_d_ssd1309.c ****   
 263:..\..\..\u8g2\u8g2\csrc/u8x8_d_ssd1309.c ****   switch(msg)
 284              		.loc 1 263 0
 285 000e 0A2D     		cmp	r5, #10
 286 0010 19D0     		beq	.L30
 287 0012 0D2D     		cmp	r5, #13
 288 0014 06D0     		beq	.L31
 289 0016 092D     		cmp	r5, #9
ARM GAS  C:\Users\jesse\AppData\Local\Temp\ccYaDLdO.s 			page 11


 290 0018 1DD1     		bne	.L29
 264:..\..\..\u8g2\u8g2\csrc/u8x8_d_ssd1309.c ****   {
 265:..\..\..\u8g2\u8g2\csrc/u8x8_d_ssd1309.c ****     case U8X8_MSG_DISPLAY_SET_FLIP_MODE:
 266:..\..\..\u8g2\u8g2\csrc/u8x8_d_ssd1309.c ****       if ( arg_int == 0 )
 267:..\..\..\u8g2\u8g2\csrc/u8x8_d_ssd1309.c ****       {
 268:..\..\..\u8g2\u8g2\csrc/u8x8_d_ssd1309.c **** 	u8x8_cad_SendSequence(u8x8, u8x8_d_ssd1309_128x64_flip0_seq);
 269:..\..\..\u8g2\u8g2\csrc/u8x8_d_ssd1309.c **** 	u8x8->x_offset = u8x8->display_info->default_x_offset;
 270:..\..\..\u8g2\u8g2\csrc/u8x8_d_ssd1309.c ****       }
 271:..\..\..\u8g2\u8g2\csrc/u8x8_d_ssd1309.c ****       else
 272:..\..\..\u8g2\u8g2\csrc/u8x8_d_ssd1309.c ****       {
 273:..\..\..\u8g2\u8g2\csrc/u8x8_d_ssd1309.c **** 	u8x8_cad_SendSequence(u8x8, u8x8_d_ssd1309_128x64_flip1_seq);
 274:..\..\..\u8g2\u8g2\csrc/u8x8_d_ssd1309.c **** 	u8x8->x_offset = u8x8->display_info->flipmode_x_offset;
 275:..\..\..\u8g2\u8g2\csrc/u8x8_d_ssd1309.c ****       }
 276:..\..\..\u8g2\u8g2\csrc/u8x8_d_ssd1309.c ****       break;
 277:..\..\..\u8g2\u8g2\csrc/u8x8_d_ssd1309.c ****     case U8X8_MSG_DISPLAY_INIT:
 278:..\..\..\u8g2\u8g2\csrc/u8x8_d_ssd1309.c ****       u8x8_d_helper_display_init(u8x8);
 279:..\..\..\u8g2\u8g2\csrc/u8x8_d_ssd1309.c ****       u8x8_cad_SendSequence(u8x8, u8x8_d_ssd1309_128x64_noname_init_seq);    
 280:..\..\..\u8g2\u8g2\csrc/u8x8_d_ssd1309.c ****       break;
 281:..\..\..\u8g2\u8g2\csrc/u8x8_d_ssd1309.c ****     case U8X8_MSG_DISPLAY_SETUP_MEMORY:
 282:..\..\..\u8g2\u8g2\csrc/u8x8_d_ssd1309.c ****       u8x8_d_helper_display_setup_memory(u8x8, &u8x8_ssd1309_128x64_noname0_display_info);
 291              		.loc 1 282 0
 292 001a 0F49     		ldr	r1, .L36
 293 001c 2046     		mov	r0, r4
 294 001e FFF7FEFF 		bl	u8x8_d_helper_display_setup_memory
 295              	.LVL35:
 296 0022 17E0     		b	.L34
 297              	.L31:
 266:..\..\..\u8g2\u8g2\csrc/u8x8_d_ssd1309.c ****       {
 298              		.loc 1 266 0
 299 0024 36B9     		cbnz	r6, .L33
 268:..\..\..\u8g2\u8g2\csrc/u8x8_d_ssd1309.c **** 	u8x8->x_offset = u8x8->display_info->default_x_offset;
 300              		.loc 1 268 0
 301 0026 0D49     		ldr	r1, .L36+4
 302 0028 2046     		mov	r0, r4
 303 002a FFF7FEFF 		bl	u8x8_cad_SendSequence
 304              	.LVL36:
 269:..\..\..\u8g2\u8g2\csrc/u8x8_d_ssd1309.c ****       }
 305              		.loc 1 269 0
 306 002e 2368     		ldr	r3, [r4]
 307 0030 9B7C     		ldrb	r3, [r3, #18]	@ zero_extendqisi2
 308 0032 05E0     		b	.L35
 309              	.L33:
 273:..\..\..\u8g2\u8g2\csrc/u8x8_d_ssd1309.c **** 	u8x8->x_offset = u8x8->display_info->flipmode_x_offset;
 310              		.loc 1 273 0
 311 0034 0A49     		ldr	r1, .L36+8
 312 0036 2046     		mov	r0, r4
 313 0038 FFF7FEFF 		bl	u8x8_cad_SendSequence
 314              	.LVL37:
 274:..\..\..\u8g2\u8g2\csrc/u8x8_d_ssd1309.c ****       }
 315              		.loc 1 274 0
 316 003c 2368     		ldr	r3, [r4]
 317 003e DB7C     		ldrb	r3, [r3, #19]	@ zero_extendqisi2
 318              	.L35:
 319 0040 84F82230 		strb	r3, [r4, #34]
 320 0044 06E0     		b	.L34
 321              	.L30:
 278:..\..\..\u8g2\u8g2\csrc/u8x8_d_ssd1309.c ****       u8x8_cad_SendSequence(u8x8, u8x8_d_ssd1309_128x64_noname_init_seq);    
ARM GAS  C:\Users\jesse\AppData\Local\Temp\ccYaDLdO.s 			page 12


 322              		.loc 1 278 0
 323 0046 2046     		mov	r0, r4
 324 0048 FFF7FEFF 		bl	u8x8_d_helper_display_init
 325              	.LVL38:
 279:..\..\..\u8g2\u8g2\csrc/u8x8_d_ssd1309.c ****       break;
 326              		.loc 1 279 0
 327 004c 0549     		ldr	r1, .L36+12
 328 004e 2046     		mov	r0, r4
 329 0050 FFF7FEFF 		bl	u8x8_cad_SendSequence
 330              	.LVL39:
 331              	.L34:
 261:..\..\..\u8g2\u8g2\csrc/u8x8_d_ssd1309.c ****   
 332              		.loc 1 261 0
 333 0054 0120     		movs	r0, #1
 334              	.L29:
 283:..\..\..\u8g2\u8g2\csrc/u8x8_d_ssd1309.c ****       break;
 284:..\..\..\u8g2\u8g2\csrc/u8x8_d_ssd1309.c ****     default:
 285:..\..\..\u8g2\u8g2\csrc/u8x8_d_ssd1309.c ****       return 0;
 286:..\..\..\u8g2\u8g2\csrc/u8x8_d_ssd1309.c ****   }
 287:..\..\..\u8g2\u8g2\csrc/u8x8_d_ssd1309.c ****   return 1;
 288:..\..\..\u8g2\u8g2\csrc/u8x8_d_ssd1309.c **** }
 335              		.loc 1 288 0
 336 0056 70BD     		pop	{r4, r5, r6, pc}
 337              	.LVL40:
 338              	.L37:
 339              		.align	2
 340              	.L36:
 341 0058 5C000000 		.word	.LANCHOR0+92
 342 005c 0A000000 		.word	.LANCHOR0+10
 343 0060 11000000 		.word	.LANCHOR0+17
 344 0064 18000000 		.word	.LANCHOR0+24
 345              		.cfi_endproc
 346              	.LFE2:
 347              		.size	u8x8_d_ssd1309_128x64_noname0, .-u8x8_d_ssd1309_128x64_noname0
 348              		.section	.text.u8x8_d_ssd1306_102x64_ea_oleds102,"ax",%progbits
 349              		.align	1
 350              		.global	u8x8_d_ssd1306_102x64_ea_oleds102
 351              		.thumb
 352              		.thumb_func
 353              		.type	u8x8_d_ssd1306_102x64_ea_oleds102, %function
 354              	u8x8_d_ssd1306_102x64_ea_oleds102:
 355              	.LFB3:
 289:..\..\..\u8g2\u8g2\csrc/u8x8_d_ssd1309.c **** 
 290:..\..\..\u8g2\u8g2\csrc/u8x8_d_ssd1309.c **** 
 291:..\..\..\u8g2\u8g2\csrc/u8x8_d_ssd1309.c **** /*=================================================*/
 292:..\..\..\u8g2\u8g2\csrc/u8x8_d_ssd1309.c **** /*
 293:..\..\..\u8g2\u8g2\csrc/u8x8_d_ssd1309.c ****   EA OLEDS102
 294:..\..\..\u8g2\u8g2\csrc/u8x8_d_ssd1309.c ****   Contributed here: https://github.com/olikraus/u8g2/pull/1497/files
 295:..\..\..\u8g2\u8g2\csrc/u8x8_d_ssd1309.c ****   Manually added here, device renamed from SSD1309 to SSD1306
 296:..\..\..\u8g2\u8g2\csrc/u8x8_d_ssd1309.c **** */
 297:..\..\..\u8g2\u8g2\csrc/u8x8_d_ssd1309.c **** 
 298:..\..\..\u8g2\u8g2\csrc/u8x8_d_ssd1309.c **** static const uint8_t u8x8_d_ssd1309_102x64_ea_oleds102_init_seq[] = {
 299:..\..\..\u8g2\u8g2\csrc/u8x8_d_ssd1309.c **** 
 300:..\..\..\u8g2\u8g2\csrc/u8x8_d_ssd1309.c ****   U8X8_START_TRANSFER(),             	/* enable chip, delay is part of the transfer start */
 301:..\..\..\u8g2\u8g2\csrc/u8x8_d_ssd1309.c **** 
 302:..\..\..\u8g2\u8g2\csrc/u8x8_d_ssd1309.c ****   U8X8_C(0x40),         //Set Display start line
 303:..\..\..\u8g2\u8g2\csrc/u8x8_d_ssd1309.c ****   U8X8_C(0xA0),         //Bottom View no Segment remap
ARM GAS  C:\Users\jesse\AppData\Local\Temp\ccYaDLdO.s 			page 13


 304:..\..\..\u8g2\u8g2\csrc/u8x8_d_ssd1309.c ****   U8X8_C(0xC0),         //Bottom View COM scan direction normal
 305:..\..\..\u8g2\u8g2\csrc/u8x8_d_ssd1309.c ****   U8X8_C(0x2E),         //StartColumnAddress
 306:..\..\..\u8g2\u8g2\csrc/u8x8_d_ssd1309.c ****   U8X8_CA(0x8D, 0x95),  //Switch Charge Pump (9V)
 307:..\..\..\u8g2\u8g2\csrc/u8x8_d_ssd1309.c ****   U8X8_CA(0x20, 0x02),  //Set Memory AddressMode
 308:..\..\..\u8g2\u8g2\csrc/u8x8_d_ssd1309.c ****   U8X8_CA(0x81, 0xFF),  //Set Brightness
 309:..\..\..\u8g2\u8g2\csrc/u8x8_d_ssd1309.c ****   U8X8_CA(0xD5, 0x40),  //Set Display Clock Divide
 310:..\..\..\u8g2\u8g2\csrc/u8x8_d_ssd1309.c ****   U8X8_CA(0xD9, 0xF1),  //Set Precharge Periode
 311:..\..\..\u8g2\u8g2\csrc/u8x8_d_ssd1309.c ****   U8X8_CA(0xAD, 0x30),  //Set Internal Ref
 312:..\..\..\u8g2\u8g2\csrc/u8x8_d_ssd1309.c ****   U8X8_CAA(0x21, 0x0D, 0x72), //Set ColumnAddress to 13x8 + 10 = 114/0x72
 313:..\..\..\u8g2\u8g2\csrc/u8x8_d_ssd1309.c ****   U8X8_CAA(0x22, 0x00, 0x3F), //Set PageAddress
 314:..\..\..\u8g2\u8g2\csrc/u8x8_d_ssd1309.c ****   U8X8_C(0xAF),         //Display on
 315:..\..\..\u8g2\u8g2\csrc/u8x8_d_ssd1309.c **** 
 316:..\..\..\u8g2\u8g2\csrc/u8x8_d_ssd1309.c ****   U8X8_END_TRANSFER(),  /* disable chip */
 317:..\..\..\u8g2\u8g2\csrc/u8x8_d_ssd1309.c ****   U8X8_END()            /* end of sequence */
 318:..\..\..\u8g2\u8g2\csrc/u8x8_d_ssd1309.c **** };
 319:..\..\..\u8g2\u8g2\csrc/u8x8_d_ssd1309.c **** 
 320:..\..\..\u8g2\u8g2\csrc/u8x8_d_ssd1309.c **** /* timing from SSD1306 */
 321:..\..\..\u8g2\u8g2\csrc/u8x8_d_ssd1309.c **** static const u8x8_display_info_t u8x8_ssd1309_102x64_ea_oleds102_display_info =
 322:..\..\..\u8g2\u8g2\csrc/u8x8_d_ssd1309.c **** {
 323:..\..\..\u8g2\u8g2\csrc/u8x8_d_ssd1309.c ****   /* chip_enable_level = */ 0,
 324:..\..\..\u8g2\u8g2\csrc/u8x8_d_ssd1309.c ****   /* chip_disable_level = */ 1,
 325:..\..\..\u8g2\u8g2\csrc/u8x8_d_ssd1309.c **** 
 326:..\..\..\u8g2\u8g2\csrc/u8x8_d_ssd1309.c ****   /* post_chip_enable_wait_ns = */ 20,
 327:..\..\..\u8g2\u8g2\csrc/u8x8_d_ssd1309.c ****   /* pre_chip_disable_wait_ns = */ 10,
 328:..\..\..\u8g2\u8g2\csrc/u8x8_d_ssd1309.c ****   /* reset_pulse_width_ms = */ 100, 	/* SSD1306: 3 us */
 329:..\..\..\u8g2\u8g2\csrc/u8x8_d_ssd1309.c ****   /* post_reset_wait_ms = */ 100, /* far east OLEDs need much longer setup time */
 330:..\..\..\u8g2\u8g2\csrc/u8x8_d_ssd1309.c ****   /* sda_setup_time_ns = */ 50,		/* SSD1306: 15ns, but cycle time is 100ns, so use 100/2 */
 331:..\..\..\u8g2\u8g2\csrc/u8x8_d_ssd1309.c ****   /* sck_pulse_width_ns = */ 50,	/* SSD1306: 20ns, but cycle time is 100ns, so use 100/2, AVR: belo
 332:..\..\..\u8g2\u8g2\csrc/u8x8_d_ssd1309.c ****   /* sck_clock_hz = */ 4000000UL,	/* since Arduino 1.6.0, the SPI bus speed in Hz. Should be  10000
 333:..\..\..\u8g2\u8g2\csrc/u8x8_d_ssd1309.c ****   /* spi_mode = */ 0,		/* active high, rising edge */
 334:..\..\..\u8g2\u8g2\csrc/u8x8_d_ssd1309.c ****   /* i2c_bus_clock_100kHz = */ 4,
 335:..\..\..\u8g2\u8g2\csrc/u8x8_d_ssd1309.c ****   /* data_setup_time_ns = */ 40,
 336:..\..\..\u8g2\u8g2\csrc/u8x8_d_ssd1309.c ****   /* write_pulse_width_ns = */ 150,	/* SSD1306: cycle time is 300ns, so use 300/2 = 150 */
 337:..\..\..\u8g2\u8g2\csrc/u8x8_d_ssd1309.c ****   /* tile_width = */ 13,  /* width of 13*8=104 pixel */
 338:..\..\..\u8g2\u8g2\csrc/u8x8_d_ssd1309.c ****   /* tile_hight = */ 8,
 339:..\..\..\u8g2\u8g2\csrc/u8x8_d_ssd1309.c ****   /* default_x_offset = */ 13, 
 340:..\..\..\u8g2\u8g2\csrc/u8x8_d_ssd1309.c ****   /* flipmode_x_offset = */ 13,
 341:..\..\..\u8g2\u8g2\csrc/u8x8_d_ssd1309.c ****   /* pixel_width = */ 102,
 342:..\..\..\u8g2\u8g2\csrc/u8x8_d_ssd1309.c ****   /* pixel_height = */ 64
 343:..\..\..\u8g2\u8g2\csrc/u8x8_d_ssd1309.c **** };
 344:..\..\..\u8g2\u8g2\csrc/u8x8_d_ssd1309.c **** 
 345:..\..\..\u8g2\u8g2\csrc/u8x8_d_ssd1309.c **** uint8_t u8x8_d_ssd1306_102x64_ea_oleds102(u8x8_t *u8x8, uint8_t msg, uint8_t arg_int, void *arg_ptr
 346:..\..\..\u8g2\u8g2\csrc/u8x8_d_ssd1309.c **** {
 356              		.loc 1 346 0
 357              		.cfi_startproc
 358              		@ args = 0, pretend = 0, frame = 0
 359              		@ frame_needed = 0, uses_anonymous_args = 0
 360              	.LVL41:
 347:..\..\..\u8g2\u8g2\csrc/u8x8_d_ssd1309.c ****   uint8_t x, c;
 348:..\..\..\u8g2\u8g2\csrc/u8x8_d_ssd1309.c ****   uint8_t *ptr;
 349:..\..\..\u8g2\u8g2\csrc/u8x8_d_ssd1309.c **** 
 350:..\..\..\u8g2\u8g2\csrc/u8x8_d_ssd1309.c ****   switch(msg)
 361              		.loc 1 350 0
 362 0000 0939     		subs	r1, r1, #9
 363              	.LVL42:
 346:..\..\..\u8g2\u8g2\csrc/u8x8_d_ssd1309.c ****   uint8_t x, c;
 364              		.loc 1 346 0
ARM GAS  C:\Users\jesse\AppData\Local\Temp\ccYaDLdO.s 			page 14


 365 0002 2DE9F041 		push	{r4, r5, r6, r7, r8, lr}
 366              		.cfi_def_cfa_offset 24
 367              		.cfi_offset 4, -24
 368              		.cfi_offset 5, -20
 369              		.cfi_offset 6, -16
 370              		.cfi_offset 7, -12
 371              		.cfi_offset 8, -8
 372              		.cfi_offset 14, -4
 346:..\..\..\u8g2\u8g2\csrc/u8x8_d_ssd1309.c ****   uint8_t x, c;
 373              		.loc 1 346 0
 374 0006 0446     		mov	r4, r0
 375 0008 1746     		mov	r7, r2
 376 000a 9846     		mov	r8, r3
 377              		.loc 1 350 0
 378 000c 0629     		cmp	r1, #6
 379 000e 61D8     		bhi	.L49
 380 0010 DFE801F0 		tbb	[pc, r1]
 381              	.LVL43:
 382              	.L41:
 383 0014 1A       		.byte	(.L40-.L41)/2
 384 0015 13       		.byte	(.L42-.L41)/2
 385 0016 60       		.byte	(.L49-.L41)/2
 386 0017 60       		.byte	(.L49-.L41)/2
 387 0018 04       		.byte	(.L43-.L41)/2
 388 0019 1E       		.byte	(.L44-.L41)/2
 389 001a 2E       		.byte	(.L45-.L41)/2
 390 001b 00       		.p2align 1
 391              	.L43:
 351:..\..\..\u8g2\u8g2\csrc/u8x8_d_ssd1309.c ****   {
 352:..\..\..\u8g2\u8g2\csrc/u8x8_d_ssd1309.c ****     case U8X8_MSG_DISPLAY_SET_FLIP_MODE:
 353:..\..\..\u8g2\u8g2\csrc/u8x8_d_ssd1309.c ****       if ( arg_int == 0 )
 392              		.loc 1 353 0
 393 001c 2AB9     		cbnz	r2, .L46
 354:..\..\..\u8g2\u8g2\csrc/u8x8_d_ssd1309.c ****       {
 355:..\..\..\u8g2\u8g2\csrc/u8x8_d_ssd1309.c **** 	u8x8_cad_SendSequence(u8x8, u8x8_d_ssd1309_128x64_flip0_seq);
 394              		.loc 1 355 0
 395 001e 2F49     		ldr	r1, .L54
 396 0020 FFF7FEFF 		bl	u8x8_cad_SendSequence
 397              	.LVL44:
 356:..\..\..\u8g2\u8g2\csrc/u8x8_d_ssd1309.c **** 	u8x8->x_offset = u8x8->display_info->default_x_offset;
 398              		.loc 1 356 0
 399 0024 2368     		ldr	r3, [r4]
 400 0026 9B7C     		ldrb	r3, [r3, #18]	@ zero_extendqisi2
 401 0028 04E0     		b	.L53
 402              	.LVL45:
 403              	.L46:
 357:..\..\..\u8g2\u8g2\csrc/u8x8_d_ssd1309.c ****       }
 358:..\..\..\u8g2\u8g2\csrc/u8x8_d_ssd1309.c ****       else
 359:..\..\..\u8g2\u8g2\csrc/u8x8_d_ssd1309.c ****       {
 360:..\..\..\u8g2\u8g2\csrc/u8x8_d_ssd1309.c **** 	u8x8_cad_SendSequence(u8x8, u8x8_d_ssd1309_128x64_flip1_seq);
 404              		.loc 1 360 0
 405 002a 2D49     		ldr	r1, .L54+4
 406 002c FFF7FEFF 		bl	u8x8_cad_SendSequence
 407              	.LVL46:
 361:..\..\..\u8g2\u8g2\csrc/u8x8_d_ssd1309.c **** 	u8x8->x_offset = u8x8->display_info->flipmode_x_offset;
 408              		.loc 1 361 0
 409 0030 2368     		ldr	r3, [r4]
ARM GAS  C:\Users\jesse\AppData\Local\Temp\ccYaDLdO.s 			page 15


 410 0032 DB7C     		ldrb	r3, [r3, #19]	@ zero_extendqisi2
 411              	.L53:
 412 0034 84F82230 		strb	r3, [r4, #34]
 413 0038 17E0     		b	.L51
 414              	.LVL47:
 415              	.L42:
 362:..\..\..\u8g2\u8g2\csrc/u8x8_d_ssd1309.c ****       }
 363:..\..\..\u8g2\u8g2\csrc/u8x8_d_ssd1309.c ****       break;
 364:..\..\..\u8g2\u8g2\csrc/u8x8_d_ssd1309.c ****     case U8X8_MSG_DISPLAY_INIT:
 365:..\..\..\u8g2\u8g2\csrc/u8x8_d_ssd1309.c ****       u8x8_d_helper_display_init(u8x8);
 416              		.loc 1 365 0
 417 003a FFF7FEFF 		bl	u8x8_d_helper_display_init
 418              	.LVL48:
 366:..\..\..\u8g2\u8g2\csrc/u8x8_d_ssd1309.c ****       u8x8_cad_SendSequence(u8x8, u8x8_d_ssd1309_102x64_ea_oleds102_init_seq);    
 419              		.loc 1 366 0
 420 003e 2949     		ldr	r1, .L54+8
 421 0040 2046     		mov	r0, r4
 422 0042 FFF7FEFF 		bl	u8x8_cad_SendSequence
 423              	.LVL49:
 424 0046 10E0     		b	.L51
 425              	.LVL50:
 426              	.L40:
 367:..\..\..\u8g2\u8g2\csrc/u8x8_d_ssd1309.c ****       break;
 368:..\..\..\u8g2\u8g2\csrc/u8x8_d_ssd1309.c ****     case U8X8_MSG_DISPLAY_SETUP_MEMORY:
 369:..\..\..\u8g2\u8g2\csrc/u8x8_d_ssd1309.c ****       u8x8_d_helper_display_setup_memory(u8x8, &u8x8_ssd1309_102x64_ea_oleds102_display_info);
 427              		.loc 1 369 0
 428 0048 2749     		ldr	r1, .L54+12
 429 004a FFF7FEFF 		bl	u8x8_d_helper_display_setup_memory
 430              	.LVL51:
 431 004e 0CE0     		b	.L51
 432              	.LVL52:
 433              	.L44:
 370:..\..\..\u8g2\u8g2\csrc/u8x8_d_ssd1309.c ****       break;
 371:..\..\..\u8g2\u8g2\csrc/u8x8_d_ssd1309.c ****     case U8X8_MSG_DISPLAY_SET_CONTRAST:
 372:..\..\..\u8g2\u8g2\csrc/u8x8_d_ssd1309.c ****       u8x8_cad_StartTransfer(u8x8);
 434              		.loc 1 372 0
 435 0050 FFF7FEFF 		bl	u8x8_cad_StartTransfer
 436              	.LVL53:
 373:..\..\..\u8g2\u8g2\csrc/u8x8_d_ssd1309.c ****       u8x8_cad_SendCmd(u8x8, 0x081 );
 437              		.loc 1 373 0
 438 0054 8121     		movs	r1, #129
 439 0056 2046     		mov	r0, r4
 440 0058 FFF7FEFF 		bl	u8x8_cad_SendCmd
 441              	.LVL54:
 374:..\..\..\u8g2\u8g2\csrc/u8x8_d_ssd1309.c ****       u8x8_cad_SendArg(u8x8, arg_int );	/* ssd1309 has range from 0 to 255 */
 442              		.loc 1 374 0
 443 005c 3946     		mov	r1, r7
 444 005e 2046     		mov	r0, r4
 445 0060 FFF7FEFF 		bl	u8x8_cad_SendArg
 446              	.LVL55:
 447              	.L52:
 375:..\..\..\u8g2\u8g2\csrc/u8x8_d_ssd1309.c ****       u8x8_cad_EndTransfer(u8x8);
 448              		.loc 1 375 0
 449 0064 2046     		mov	r0, r4
 450 0066 FFF7FEFF 		bl	u8x8_cad_EndTransfer
 451              	.LVL56:
 452              	.L51:
ARM GAS  C:\Users\jesse\AppData\Local\Temp\ccYaDLdO.s 			page 16


 376:..\..\..\u8g2\u8g2\csrc/u8x8_d_ssd1309.c ****       break;
 377:..\..\..\u8g2\u8g2\csrc/u8x8_d_ssd1309.c ****     case U8X8_MSG_DISPLAY_DRAW_TILE:
 378:..\..\..\u8g2\u8g2\csrc/u8x8_d_ssd1309.c ****       u8x8_cad_StartTransfer(u8x8);
 379:..\..\..\u8g2\u8g2\csrc/u8x8_d_ssd1309.c **** 
 380:..\..\..\u8g2\u8g2\csrc/u8x8_d_ssd1309.c ****       x = ((u8x8_tile_t *)arg_ptr)->x_pos;
 381:..\..\..\u8g2\u8g2\csrc/u8x8_d_ssd1309.c ****       x *= 8;
 382:..\..\..\u8g2\u8g2\csrc/u8x8_d_ssd1309.c ****       x += u8x8->x_offset;
 383:..\..\..\u8g2\u8g2\csrc/u8x8_d_ssd1309.c ****       u8x8_cad_SendCmd(u8x8, 0x010 | (x>>4) );
 384:..\..\..\u8g2\u8g2\csrc/u8x8_d_ssd1309.c ****       u8x8_cad_SendCmd(u8x8, 0x000 | ((x&15)));
 385:..\..\..\u8g2\u8g2\csrc/u8x8_d_ssd1309.c ****       u8x8_cad_SendCmd(u8x8, 0x0b0 | (((u8x8_tile_t *)arg_ptr)->y_pos));
 386:..\..\..\u8g2\u8g2\csrc/u8x8_d_ssd1309.c **** 
 387:..\..\..\u8g2\u8g2\csrc/u8x8_d_ssd1309.c ****       c = ((u8x8_tile_t *)arg_ptr)->cnt;
 388:..\..\..\u8g2\u8g2\csrc/u8x8_d_ssd1309.c ****       c *= 8;
 389:..\..\..\u8g2\u8g2\csrc/u8x8_d_ssd1309.c ****       ptr = ((u8x8_tile_t *)arg_ptr)->tile_ptr;
 390:..\..\..\u8g2\u8g2\csrc/u8x8_d_ssd1309.c **** 
 391:..\..\..\u8g2\u8g2\csrc/u8x8_d_ssd1309.c ****       if ( c + x > 115u )
 392:..\..\..\u8g2\u8g2\csrc/u8x8_d_ssd1309.c ****       {
 393:..\..\..\u8g2\u8g2\csrc/u8x8_d_ssd1309.c ****         c = 115u;
 394:..\..\..\u8g2\u8g2\csrc/u8x8_d_ssd1309.c ****         c -= x;
 395:..\..\..\u8g2\u8g2\csrc/u8x8_d_ssd1309.c ****       }
 396:..\..\..\u8g2\u8g2\csrc/u8x8_d_ssd1309.c ****       do
 397:..\..\..\u8g2\u8g2\csrc/u8x8_d_ssd1309.c ****       {
 398:..\..\..\u8g2\u8g2\csrc/u8x8_d_ssd1309.c ****         u8x8_cad_SendData(u8x8, c, ptr);	/* note: SendData can not handle more than 255 bytes */
 399:..\..\..\u8g2\u8g2\csrc/u8x8_d_ssd1309.c ****         arg_int--;
 400:..\..\..\u8g2\u8g2\csrc/u8x8_d_ssd1309.c ****       } while( arg_int > 0 );
 401:..\..\..\u8g2\u8g2\csrc/u8x8_d_ssd1309.c **** 
 402:..\..\..\u8g2\u8g2\csrc/u8x8_d_ssd1309.c ****       u8x8_cad_EndTransfer(u8x8);
 403:..\..\..\u8g2\u8g2\csrc/u8x8_d_ssd1309.c ****       break;
 404:..\..\..\u8g2\u8g2\csrc/u8x8_d_ssd1309.c ****     default:
 405:..\..\..\u8g2\u8g2\csrc/u8x8_d_ssd1309.c ****       return 0;
 406:..\..\..\u8g2\u8g2\csrc/u8x8_d_ssd1309.c ****   }
 407:..\..\..\u8g2\u8g2\csrc/u8x8_d_ssd1309.c ****   return 1;
 453              		.loc 1 407 0
 454 006a 0120     		movs	r0, #1
 376:..\..\..\u8g2\u8g2\csrc/u8x8_d_ssd1309.c ****       break;
 455              		.loc 1 376 0
 456 006c BDE8F081 		pop	{r4, r5, r6, r7, r8, pc}
 457              	.LVL57:
 458              	.L45:
 378:..\..\..\u8g2\u8g2\csrc/u8x8_d_ssd1309.c **** 
 459              		.loc 1 378 0
 460 0070 FFF7FEFF 		bl	u8x8_cad_StartTransfer
 461              	.LVL58:
 382:..\..\..\u8g2\u8g2\csrc/u8x8_d_ssd1309.c ****       u8x8_cad_SendCmd(u8x8, 0x010 | (x>>4) );
 462              		.loc 1 382 0
 463 0074 94F82230 		ldrb	r3, [r4, #34]	@ zero_extendqisi2
 380:..\..\..\u8g2\u8g2\csrc/u8x8_d_ssd1309.c ****       x *= 8;
 464              		.loc 1 380 0
 465 0078 98F80550 		ldrb	r5, [r8, #5]	@ zero_extendqisi2
 466              	.LVL59:
 383:..\..\..\u8g2\u8g2\csrc/u8x8_d_ssd1309.c ****       u8x8_cad_SendCmd(u8x8, 0x000 | ((x&15)));
 467              		.loc 1 383 0
 468 007c 2046     		mov	r0, r4
 382:..\..\..\u8g2\u8g2\csrc/u8x8_d_ssd1309.c ****       u8x8_cad_SendCmd(u8x8, 0x010 | (x>>4) );
 469              		.loc 1 382 0
 470 007e 03EBC505 		add	r5, r3, r5, lsl #3
 471              	.LVL60:
ARM GAS  C:\Users\jesse\AppData\Local\Temp\ccYaDLdO.s 			page 17


 472 0082 05F0FF05 		and	r5, r5, #255
 473              	.LVL61:
 383:..\..\..\u8g2\u8g2\csrc/u8x8_d_ssd1309.c ****       u8x8_cad_SendCmd(u8x8, 0x000 | ((x&15)));
 474              		.loc 1 383 0
 475 0086 2909     		lsrs	r1, r5, #4
 476 0088 41F01001 		orr	r1, r1, #16
 477 008c FFF7FEFF 		bl	u8x8_cad_SendCmd
 478              	.LVL62:
 384:..\..\..\u8g2\u8g2\csrc/u8x8_d_ssd1309.c ****       u8x8_cad_SendCmd(u8x8, 0x0b0 | (((u8x8_tile_t *)arg_ptr)->y_pos));
 479              		.loc 1 384 0
 480 0090 05F00F01 		and	r1, r5, #15
 481 0094 2046     		mov	r0, r4
 482 0096 FFF7FEFF 		bl	u8x8_cad_SendCmd
 483              	.LVL63:
 385:..\..\..\u8g2\u8g2\csrc/u8x8_d_ssd1309.c **** 
 484              		.loc 1 385 0
 485 009a 98F80610 		ldrb	r1, [r8, #6]	@ zero_extendqisi2
 486 009e 2046     		mov	r0, r4
 487 00a0 41F0B001 		orr	r1, r1, #176
 488 00a4 FFF7FEFF 		bl	u8x8_cad_SendCmd
 489              	.LVL64:
 387:..\..\..\u8g2\u8g2\csrc/u8x8_d_ssd1309.c ****       c *= 8;
 490              		.loc 1 387 0
 491 00a8 98F80460 		ldrb	r6, [r8, #4]	@ zero_extendqisi2
 492              	.LVL65:
 389:..\..\..\u8g2\u8g2\csrc/u8x8_d_ssd1309.c **** 
 493              		.loc 1 389 0
 494 00ac D8F80080 		ldr	r8, [r8]
 495              	.LVL66:
 388:..\..\..\u8g2\u8g2\csrc/u8x8_d_ssd1309.c ****       ptr = ((u8x8_tile_t *)arg_ptr)->tile_ptr;
 496              		.loc 1 388 0
 497 00b0 F600     		lsls	r6, r6, #3
 498              	.LVL67:
 499 00b2 F6B2     		uxtb	r6, r6
 500              	.LVL68:
 391:..\..\..\u8g2\u8g2\csrc/u8x8_d_ssd1309.c ****       {
 501              		.loc 1 391 0
 502 00b4 7319     		adds	r3, r6, r5
 503 00b6 732B     		cmp	r3, #115
 504              	.LVL69:
 394:..\..\..\u8g2\u8g2\csrc/u8x8_d_ssd1309.c ****       }
 505              		.loc 1 394 0
 506 00b8 C4BF     		itt	gt
 507 00ba C5F17305 		rsbgt	r5, r5, #115
 508              	.LVL70:
 509 00be EEB2     		uxtbgt	r6, r5
 510              	.LVL71:
 511              	.L48:
 398:..\..\..\u8g2\u8g2\csrc/u8x8_d_ssd1309.c ****         arg_int--;
 512              		.loc 1 398 0 discriminator 1
 513 00c0 4246     		mov	r2, r8
 514 00c2 3146     		mov	r1, r6
 515 00c4 2046     		mov	r0, r4
 516 00c6 FFF7FEFF 		bl	u8x8_cad_SendData
 517              	.LVL72:
 399:..\..\..\u8g2\u8g2\csrc/u8x8_d_ssd1309.c ****       } while( arg_int > 0 );
 518              		.loc 1 399 0 discriminator 1
ARM GAS  C:\Users\jesse\AppData\Local\Temp\ccYaDLdO.s 			page 18


 519 00ca 7A1E     		subs	r2, r7, #1
 520              	.LVL73:
 400:..\..\..\u8g2\u8g2\csrc/u8x8_d_ssd1309.c **** 
 521              		.loc 1 400 0 discriminator 1
 522 00cc 12F0FF07 		ands	r7, r2, #255
 523 00d0 F6D1     		bne	.L48
 524 00d2 C7E7     		b	.L52
 525              	.LVL74:
 526              	.L49:
 405:..\..\..\u8g2\u8g2\csrc/u8x8_d_ssd1309.c ****   }
 527              		.loc 1 405 0
 528 00d4 0020     		movs	r0, #0
 529              	.LVL75:
 408:..\..\..\u8g2\u8g2\csrc/u8x8_d_ssd1309.c **** }                                                                     
 530              		.loc 1 408 0
 531 00d6 BDE8F081 		pop	{r4, r5, r6, r7, r8, pc}
 532              	.LVL76:
 533              	.L55:
 534 00da 00BF     		.align	2
 535              	.L54:
 536 00dc 0A000000 		.word	.LANCHOR0+10
 537 00e0 11000000 		.word	.LANCHOR0+17
 538 00e4 74000000 		.word	.LANCHOR0+116
 539 00e8 A8000000 		.word	.LANCHOR0+168
 540              		.cfi_endproc
 541              	.LFE3:
 542              		.size	u8x8_d_ssd1306_102x64_ea_oleds102, .-u8x8_d_ssd1306_102x64_ea_oleds102
 543              		.section	.rodata
 544              		.align	2
 545              		.set	.LANCHOR0,. + 0
 546              		.type	u8x8_d_ssd1309_powersave0_seq, %object
 547              		.size	u8x8_d_ssd1309_powersave0_seq, 5
 548              	u8x8_d_ssd1309_powersave0_seq:
 549 0000 18       		.byte	24
 550 0001 15       		.byte	21
 551 0002 AF       		.byte	-81
 552 0003 19       		.byte	25
 553 0004 FF       		.byte	-1
 554              		.type	u8x8_d_ssd1309_powersave1_seq, %object
 555              		.size	u8x8_d_ssd1309_powersave1_seq, 5
 556              	u8x8_d_ssd1309_powersave1_seq:
 557 0005 18       		.byte	24
 558 0006 15       		.byte	21
 559 0007 AE       		.byte	-82
 560 0008 19       		.byte	25
 561 0009 FF       		.byte	-1
 562              		.type	u8x8_d_ssd1309_128x64_flip0_seq, %object
 563              		.size	u8x8_d_ssd1309_128x64_flip0_seq, 7
 564              	u8x8_d_ssd1309_128x64_flip0_seq:
 565 000a 18       		.byte	24
 566 000b 15       		.byte	21
 567 000c A1       		.byte	-95
 568 000d 15       		.byte	21
 569 000e C8       		.byte	-56
 570 000f 19       		.byte	25
 571 0010 FF       		.byte	-1
 572              		.type	u8x8_d_ssd1309_128x64_flip1_seq, %object
ARM GAS  C:\Users\jesse\AppData\Local\Temp\ccYaDLdO.s 			page 19


 573              		.size	u8x8_d_ssd1309_128x64_flip1_seq, 7
 574              	u8x8_d_ssd1309_128x64_flip1_seq:
 575 0011 18       		.byte	24
 576 0012 15       		.byte	21
 577 0013 A0       		.byte	-96
 578 0014 15       		.byte	21
 579 0015 C0       		.byte	-64
 580 0016 19       		.byte	25
 581 0017 FF       		.byte	-1
 582              		.type	u8x8_d_ssd1309_128x64_noname_init_seq, %object
 583              		.size	u8x8_d_ssd1309_128x64_noname_init_seq, 41
 584              	u8x8_d_ssd1309_128x64_noname_init_seq:
 585 0018 18       		.byte	24
 586 0019 15       		.byte	21
 587 001a AE       		.byte	-82
 588 001b 15       		.byte	21
 589 001c D5       		.byte	-43
 590 001d 16       		.byte	22
 591 001e A0       		.byte	-96
 592 001f 15       		.byte	21
 593 0020 40       		.byte	64
 594 0021 15       		.byte	21
 595 0022 20       		.byte	32
 596 0023 16       		.byte	22
 597 0024 02       		.byte	2
 598 0025 15       		.byte	21
 599 0026 A1       		.byte	-95
 600 0027 15       		.byte	21
 601 0028 C8       		.byte	-56
 602 0029 15       		.byte	21
 603 002a DA       		.byte	-38
 604 002b 16       		.byte	22
 605 002c 12       		.byte	18
 606 002d 15       		.byte	21
 607 002e 81       		.byte	-127
 608 002f 16       		.byte	22
 609 0030 6F       		.byte	111
 610 0031 15       		.byte	21
 611 0032 D9       		.byte	-39
 612 0033 16       		.byte	22
 613 0034 D3       		.byte	-45
 614 0035 15       		.byte	21
 615 0036 DB       		.byte	-37
 616 0037 16       		.byte	22
 617 0038 20       		.byte	32
 618 0039 15       		.byte	21
 619 003a 2E       		.byte	46
 620 003b 15       		.byte	21
 621 003c A4       		.byte	-92
 622 003d 15       		.byte	21
 623 003e A6       		.byte	-90
 624 003f 19       		.byte	25
 625 0040 FF       		.byte	-1
 626 0041 000000   		.space	3
 627              		.type	u8x8_ssd1309_128x64_noname2_display_info, %object
 628              		.size	u8x8_ssd1309_128x64_noname2_display_info, 24
 629              	u8x8_ssd1309_128x64_noname2_display_info:
ARM GAS  C:\Users\jesse\AppData\Local\Temp\ccYaDLdO.s 			page 20


 630 0044 00       		.byte	0
 631 0045 01       		.byte	1
 632 0046 14       		.byte	20
 633 0047 0A       		.byte	10
 634 0048 64       		.byte	100
 635 0049 64       		.byte	100
 636 004a 32       		.byte	50
 637 004b 32       		.byte	50
 638 004c 00093D00 		.word	4000000
 639 0050 00       		.byte	0
 640 0051 04       		.byte	4
 641 0052 28       		.byte	40
 642 0053 96       		.byte	-106
 643 0054 10       		.byte	16
 644 0055 08       		.byte	8
 645 0056 02       		.byte	2
 646 0057 02       		.byte	2
 647 0058 8000     		.short	128
 648 005a 4000     		.short	64
 649              		.type	u8x8_ssd1309_128x64_noname0_display_info, %object
 650              		.size	u8x8_ssd1309_128x64_noname0_display_info, 24
 651              	u8x8_ssd1309_128x64_noname0_display_info:
 652 005c 00       		.byte	0
 653 005d 01       		.byte	1
 654 005e 14       		.byte	20
 655 005f 0A       		.byte	10
 656 0060 64       		.byte	100
 657 0061 64       		.byte	100
 658 0062 32       		.byte	50
 659 0063 32       		.byte	50
 660 0064 00093D00 		.word	4000000
 661 0068 00       		.byte	0
 662 0069 04       		.byte	4
 663 006a 28       		.byte	40
 664 006b 96       		.byte	-106
 665 006c 10       		.byte	16
 666 006d 08       		.byte	8
 667 006e 00       		.byte	0
 668 006f 00       		.byte	0
 669 0070 8000     		.short	128
 670 0072 4000     		.short	64
 671              		.type	u8x8_d_ssd1309_102x64_ea_oleds102_init_seq, %object
 672              		.size	u8x8_d_ssd1309_102x64_ea_oleds102_init_seq, 49
 673              	u8x8_d_ssd1309_102x64_ea_oleds102_init_seq:
 674 0074 18       		.byte	24
 675 0075 15       		.byte	21
 676 0076 40       		.byte	64
 677 0077 15       		.byte	21
 678 0078 A0       		.byte	-96
 679 0079 15       		.byte	21
 680 007a C0       		.byte	-64
 681 007b 15       		.byte	21
 682 007c 2E       		.byte	46
 683 007d 15       		.byte	21
 684 007e 8D       		.byte	-115
 685 007f 16       		.byte	22
 686 0080 95       		.byte	-107
ARM GAS  C:\Users\jesse\AppData\Local\Temp\ccYaDLdO.s 			page 21


 687 0081 15       		.byte	21
 688 0082 20       		.byte	32
 689 0083 16       		.byte	22
 690 0084 02       		.byte	2
 691 0085 15       		.byte	21
 692 0086 81       		.byte	-127
 693 0087 16       		.byte	22
 694 0088 FF       		.byte	-1
 695 0089 15       		.byte	21
 696 008a D5       		.byte	-43
 697 008b 16       		.byte	22
 698 008c 40       		.byte	64
 699 008d 15       		.byte	21
 700 008e D9       		.byte	-39
 701 008f 16       		.byte	22
 702 0090 F1       		.byte	-15
 703 0091 15       		.byte	21
 704 0092 AD       		.byte	-83
 705 0093 16       		.byte	22
 706 0094 30       		.byte	48
 707 0095 15       		.byte	21
 708 0096 21       		.byte	33
 709 0097 16       		.byte	22
 710 0098 0D       		.byte	13
 711 0099 16       		.byte	22
 712 009a 72       		.byte	114
 713 009b 15       		.byte	21
 714 009c 22       		.byte	34
 715 009d 16       		.byte	22
 716 009e 00       		.byte	0
 717 009f 16       		.byte	22
 718 00a0 3F       		.byte	63
 719 00a1 15       		.byte	21
 720 00a2 AF       		.byte	-81
 721 00a3 19       		.byte	25
 722 00a4 FF       		.byte	-1
 723 00a5 000000   		.space	3
 724              		.type	u8x8_ssd1309_102x64_ea_oleds102_display_info, %object
 725              		.size	u8x8_ssd1309_102x64_ea_oleds102_display_info, 24
 726              	u8x8_ssd1309_102x64_ea_oleds102_display_info:
 727 00a8 00       		.byte	0
 728 00a9 01       		.byte	1
 729 00aa 14       		.byte	20
 730 00ab 0A       		.byte	10
 731 00ac 64       		.byte	100
 732 00ad 64       		.byte	100
 733 00ae 32       		.byte	50
 734 00af 32       		.byte	50
 735 00b0 00093D00 		.word	4000000
 736 00b4 00       		.byte	0
 737 00b5 04       		.byte	4
 738 00b6 28       		.byte	40
 739 00b7 96       		.byte	-106
 740 00b8 0D       		.byte	13
 741 00b9 08       		.byte	8
 742 00ba 0D       		.byte	13
 743 00bb 0D       		.byte	13
ARM GAS  C:\Users\jesse\AppData\Local\Temp\ccYaDLdO.s 			page 22


 744 00bc 6600     		.short	102
 745 00be 4000     		.short	64
 746              		.text
 747              	.Letext0:
 748              		.file 2 "c:\\program files (x86)\\cypress\\psoc creator\\4.4\\psoc creator\\import\\gnu\\arm\\5.4.
 749              		.file 3 "c:\\program files (x86)\\cypress\\psoc creator\\4.4\\psoc creator\\import\\gnu\\arm\\5.4.
 750              		.file 4 "..\\..\\..\\u8g2\\u8g2\\csrc\\u8x8.h"