ARM GAS  C:\Users\jesse\AppData\Local\Temp\ccmtUGUe.s 			page 1


   1              		.syntax unified
   2              		.cpu cortex-m3
   3              		.fpu softvfp
   4              		.eabi_attribute 20, 1
   5              		.eabi_attribute 21, 1
   6              		.eabi_attribute 23, 3
   7              		.eabi_attribute 24, 1
   8              		.eabi_attribute 25, 1
   9              		.eabi_attribute 26, 1
  10              		.eabi_attribute 30, 4
  11              		.eabi_attribute 34, 1
  12              		.eabi_attribute 18, 4
  13              		.thumb
  14              		.syntax unified
  15              		.file	"u8x8_d_ssd1322.c"
  16              		.text
  17              	.Ltext0:
  18              		.cfi_sections	.debug_frame
  19              		.section	.text.u8x8_ssd1322_4to32.isra.1,"ax",%progbits
  20              		.align	1
  21              		.thumb
  22              		.thumb_func
  23              		.type	u8x8_ssd1322_4to32.isra.1, %function
  24              	u8x8_ssd1322_4to32.isra.1:
  25              	.LFB7:
  26              		.file 1 "..\\..\\..\\u8g2\\u8g2\\csrc\\u8x8_d_ssd1322.c"
   1:..\..\..\u8g2\u8g2\csrc/u8x8_d_ssd1322.c **** /*
   2:..\..\..\u8g2\u8g2\csrc/u8x8_d_ssd1322.c **** 
   3:..\..\..\u8g2\u8g2\csrc/u8x8_d_ssd1322.c ****   u8x8_d_ssd1322.c
   4:..\..\..\u8g2\u8g2\csrc/u8x8_d_ssd1322.c ****   
   5:..\..\..\u8g2\u8g2\csrc/u8x8_d_ssd1322.c ****   Universal 8bit Graphics Library (https://github.com/olikraus/u8g2/)
   6:..\..\..\u8g2\u8g2\csrc/u8x8_d_ssd1322.c **** 
   7:..\..\..\u8g2\u8g2\csrc/u8x8_d_ssd1322.c ****   Copyright (c) 2016, olikraus@gmail.com
   8:..\..\..\u8g2\u8g2\csrc/u8x8_d_ssd1322.c ****   All rights reserved.
   9:..\..\..\u8g2\u8g2\csrc/u8x8_d_ssd1322.c **** 
  10:..\..\..\u8g2\u8g2\csrc/u8x8_d_ssd1322.c ****   Redistribution and use in source and binary forms, with or without modification, 
  11:..\..\..\u8g2\u8g2\csrc/u8x8_d_ssd1322.c ****   are permitted provided that the following conditions are met:
  12:..\..\..\u8g2\u8g2\csrc/u8x8_d_ssd1322.c **** 
  13:..\..\..\u8g2\u8g2\csrc/u8x8_d_ssd1322.c ****   * Redistributions of source code must retain the above copyright notice, this list 
  14:..\..\..\u8g2\u8g2\csrc/u8x8_d_ssd1322.c ****     of conditions and the following disclaimer.
  15:..\..\..\u8g2\u8g2\csrc/u8x8_d_ssd1322.c ****     
  16:..\..\..\u8g2\u8g2\csrc/u8x8_d_ssd1322.c ****   * Redistributions in binary form must reproduce the above copyright notice, this 
  17:..\..\..\u8g2\u8g2\csrc/u8x8_d_ssd1322.c ****     list of conditions and the following disclaimer in the documentation and/or other 
  18:..\..\..\u8g2\u8g2\csrc/u8x8_d_ssd1322.c ****     materials provided with the distribution.
  19:..\..\..\u8g2\u8g2\csrc/u8x8_d_ssd1322.c **** 
  20:..\..\..\u8g2\u8g2\csrc/u8x8_d_ssd1322.c ****   THIS SOFTWARE IS PROVIDED BY THE COPYRIGHT HOLDERS AND 
  21:..\..\..\u8g2\u8g2\csrc/u8x8_d_ssd1322.c ****   CONTRIBUTORS "AS IS" AND ANY EXPRESS OR IMPLIED WARRANTIES, 
  22:..\..\..\u8g2\u8g2\csrc/u8x8_d_ssd1322.c ****   INCLUDING, BUT NOT LIMITED TO, THE IMPLIED WARRANTIES OF 
  23:..\..\..\u8g2\u8g2\csrc/u8x8_d_ssd1322.c ****   MERCHANTABILITY AND FITNESS FOR A PARTICULAR PURPOSE ARE 
  24:..\..\..\u8g2\u8g2\csrc/u8x8_d_ssd1322.c ****   DISCLAIMED. IN NO EVENT SHALL THE COPYRIGHT HOLDER OR 
  25:..\..\..\u8g2\u8g2\csrc/u8x8_d_ssd1322.c ****   CONTRIBUTORS BE LIABLE FOR ANY DIRECT, INDIRECT, INCIDENTAL, 
  26:..\..\..\u8g2\u8g2\csrc/u8x8_d_ssd1322.c ****   SPECIAL, EXEMPLARY, OR CONSEQUENTIAL DAMAGES (INCLUDING, BUT 
  27:..\..\..\u8g2\u8g2\csrc/u8x8_d_ssd1322.c ****   NOT LIMITED TO, PROCUREMENT OF SUBSTITUTE GOODS OR SERVICES; 
  28:..\..\..\u8g2\u8g2\csrc/u8x8_d_ssd1322.c ****   LOSS OF USE, DATA, OR PROFITS; OR BUSINESS INTERRUPTION) HOWEVER 
  29:..\..\..\u8g2\u8g2\csrc/u8x8_d_ssd1322.c ****   CAUSED AND ON ANY THEORY OF LIABILITY, WHETHER IN CONTRACT, 
  30:..\..\..\u8g2\u8g2\csrc/u8x8_d_ssd1322.c ****   STRICT LIABILITY, OR TORT (INCLUDING NEGLIGENCE OR OTHERWISE) 
  31:..\..\..\u8g2\u8g2\csrc/u8x8_d_ssd1322.c ****   ARISING IN ANY WAY OUT OF THE USE OF THIS SOFTWARE, EVEN IF 
ARM GAS  C:\Users\jesse\AppData\Local\Temp\ccmtUGUe.s 			page 2


  32:..\..\..\u8g2\u8g2\csrc/u8x8_d_ssd1322.c ****   ADVISED OF THE POSSIBILITY OF SUCH DAMAGE.  
  33:..\..\..\u8g2\u8g2\csrc/u8x8_d_ssd1322.c **** 
  34:..\..\..\u8g2\u8g2\csrc/u8x8_d_ssd1322.c **** 
  35:..\..\..\u8g2\u8g2\csrc/u8x8_d_ssd1322.c ****   SSD1322: 
  36:..\..\..\u8g2\u8g2\csrc/u8x8_d_ssd1322.c ****     480 x 128 dot matrix
  37:..\..\..\u8g2\u8g2\csrc/u8x8_d_ssd1322.c ****     16 gray scale
  38:..\..\..\u8g2\u8g2\csrc/u8x8_d_ssd1322.c ****   
  39:..\..\..\u8g2\u8g2\csrc/u8x8_d_ssd1322.c ****   
  40:..\..\..\u8g2\u8g2\csrc/u8x8_d_ssd1322.c **** */
  41:..\..\..\u8g2\u8g2\csrc/u8x8_d_ssd1322.c **** #include "u8x8.h"
  42:..\..\..\u8g2\u8g2\csrc/u8x8_d_ssd1322.c **** 
  43:..\..\..\u8g2\u8g2\csrc/u8x8_d_ssd1322.c **** 
  44:..\..\..\u8g2\u8g2\csrc/u8x8_d_ssd1322.c **** 
  45:..\..\..\u8g2\u8g2\csrc/u8x8_d_ssd1322.c **** 
  46:..\..\..\u8g2\u8g2\csrc/u8x8_d_ssd1322.c **** static const uint8_t u8x8_d_ssd1322_powersave0_seq[] = {
  47:..\..\..\u8g2\u8g2\csrc/u8x8_d_ssd1322.c ****   U8X8_START_TRANSFER(),             	/* enable chip, delay is part of the transfer start */
  48:..\..\..\u8g2\u8g2\csrc/u8x8_d_ssd1322.c ****   U8X8_C(0x0af),		                /* ssd1322: display on */
  49:..\..\..\u8g2\u8g2\csrc/u8x8_d_ssd1322.c ****   U8X8_END_TRANSFER(),             	/* disable chip */
  50:..\..\..\u8g2\u8g2\csrc/u8x8_d_ssd1322.c ****   U8X8_END()             			/* end of sequence */
  51:..\..\..\u8g2\u8g2\csrc/u8x8_d_ssd1322.c **** };
  52:..\..\..\u8g2\u8g2\csrc/u8x8_d_ssd1322.c **** 
  53:..\..\..\u8g2\u8g2\csrc/u8x8_d_ssd1322.c **** static const uint8_t u8x8_d_ssd1322_powersave1_seq[] = {
  54:..\..\..\u8g2\u8g2\csrc/u8x8_d_ssd1322.c ****   U8X8_START_TRANSFER(),             	/* enable chip, delay is part of the transfer start */
  55:..\..\..\u8g2\u8g2\csrc/u8x8_d_ssd1322.c ****   U8X8_C(0x0ae),		                /* ssd1322: display off */
  56:..\..\..\u8g2\u8g2\csrc/u8x8_d_ssd1322.c ****   U8X8_END_TRANSFER(),             	/* disable chip */
  57:..\..\..\u8g2\u8g2\csrc/u8x8_d_ssd1322.c ****   U8X8_END()             			/* end of sequence */
  58:..\..\..\u8g2\u8g2\csrc/u8x8_d_ssd1322.c **** };
  59:..\..\..\u8g2\u8g2\csrc/u8x8_d_ssd1322.c **** 
  60:..\..\..\u8g2\u8g2\csrc/u8x8_d_ssd1322.c **** 
  61:..\..\..\u8g2\u8g2\csrc/u8x8_d_ssd1322.c **** 
  62:..\..\..\u8g2\u8g2\csrc/u8x8_d_ssd1322.c **** /* interpret b as a monochrome bit pattern, write value 15 for high bit and value 0 for a low bit *
  63:..\..\..\u8g2\u8g2\csrc/u8x8_d_ssd1322.c **** /* topbit (msb) is sent last */
  64:..\..\..\u8g2\u8g2\csrc/u8x8_d_ssd1322.c **** /* example: b = 0x083 will send 0xff, 0x00, 0x00, 0xf0 */
  65:..\..\..\u8g2\u8g2\csrc/u8x8_d_ssd1322.c **** 
  66:..\..\..\u8g2\u8g2\csrc/u8x8_d_ssd1322.c **** /* 4 Jan 2017: I think this procedure not required any more. Delete? */
  67:..\..\..\u8g2\u8g2\csrc/u8x8_d_ssd1322.c **** /*
  68:..\..\..\u8g2\u8g2\csrc/u8x8_d_ssd1322.c **** static uint8_t u8x8_write_byte_to_16gr_device(u8x8_t *u8x8, uint8_t b)
  69:..\..\..\u8g2\u8g2\csrc/u8x8_d_ssd1322.c **** {
  70:..\..\..\u8g2\u8g2\csrc/u8x8_d_ssd1322.c ****   static uint8_t buf[4];
  71:..\..\..\u8g2\u8g2\csrc/u8x8_d_ssd1322.c ****   static uint8_t map[4] = { 0, 0x00f, 0x0f0, 0x0ff };
  72:..\..\..\u8g2\u8g2\csrc/u8x8_d_ssd1322.c ****   buf [3] = map[b & 3];
  73:..\..\..\u8g2\u8g2\csrc/u8x8_d_ssd1322.c ****   b>>=2;
  74:..\..\..\u8g2\u8g2\csrc/u8x8_d_ssd1322.c ****   buf [2] = map[b & 3];
  75:..\..\..\u8g2\u8g2\csrc/u8x8_d_ssd1322.c ****   b>>=2;
  76:..\..\..\u8g2\u8g2\csrc/u8x8_d_ssd1322.c ****   buf [1] = map[b & 3];
  77:..\..\..\u8g2\u8g2\csrc/u8x8_d_ssd1322.c ****   b>>=2;
  78:..\..\..\u8g2\u8g2\csrc/u8x8_d_ssd1322.c ****   buf [0] = map[b & 3];
  79:..\..\..\u8g2\u8g2\csrc/u8x8_d_ssd1322.c ****   return u8x8_cad_SendData(u8x8, 4, buf);
  80:..\..\..\u8g2\u8g2\csrc/u8x8_d_ssd1322.c **** }
  81:..\..\..\u8g2\u8g2\csrc/u8x8_d_ssd1322.c **** */
  82:..\..\..\u8g2\u8g2\csrc/u8x8_d_ssd1322.c **** 
  83:..\..\..\u8g2\u8g2\csrc/u8x8_d_ssd1322.c **** 
  84:..\..\..\u8g2\u8g2\csrc/u8x8_d_ssd1322.c **** /*
  85:..\..\..\u8g2\u8g2\csrc/u8x8_d_ssd1322.c ****   input:
  86:..\..\..\u8g2\u8g2\csrc/u8x8_d_ssd1322.c ****     one tile (8 Bytes)
  87:..\..\..\u8g2\u8g2\csrc/u8x8_d_ssd1322.c ****   output:
  88:..\..\..\u8g2\u8g2\csrc/u8x8_d_ssd1322.c ****     Tile for SSD1325 (32 Bytes)
ARM GAS  C:\Users\jesse\AppData\Local\Temp\ccmtUGUe.s 			page 3


  89:..\..\..\u8g2\u8g2\csrc/u8x8_d_ssd1322.c **** */
  90:..\..\..\u8g2\u8g2\csrc/u8x8_d_ssd1322.c **** 
  91:..\..\..\u8g2\u8g2\csrc/u8x8_d_ssd1322.c **** static uint8_t u8x8_ssd1322_to32_dest_buf[32];
  92:..\..\..\u8g2\u8g2\csrc/u8x8_d_ssd1322.c **** 
  93:..\..\..\u8g2\u8g2\csrc/u8x8_d_ssd1322.c **** static uint8_t *u8x8_ssd1322_8to32(U8X8_UNUSED u8x8_t *u8x8, uint8_t *ptr)
  94:..\..\..\u8g2\u8g2\csrc/u8x8_d_ssd1322.c **** {
  95:..\..\..\u8g2\u8g2\csrc/u8x8_d_ssd1322.c ****   uint8_t v;
  96:..\..\..\u8g2\u8g2\csrc/u8x8_d_ssd1322.c ****   uint8_t a,b;
  97:..\..\..\u8g2\u8g2\csrc/u8x8_d_ssd1322.c ****   uint8_t i, j;
  98:..\..\..\u8g2\u8g2\csrc/u8x8_d_ssd1322.c ****   uint8_t *dest;
  99:..\..\..\u8g2\u8g2\csrc/u8x8_d_ssd1322.c ****   
 100:..\..\..\u8g2\u8g2\csrc/u8x8_d_ssd1322.c ****   for( j = 0; j < 4; j++ )
 101:..\..\..\u8g2\u8g2\csrc/u8x8_d_ssd1322.c ****   {
 102:..\..\..\u8g2\u8g2\csrc/u8x8_d_ssd1322.c ****     dest = u8x8_ssd1322_to32_dest_buf;
 103:..\..\..\u8g2\u8g2\csrc/u8x8_d_ssd1322.c ****     dest += j;
 104:..\..\..\u8g2\u8g2\csrc/u8x8_d_ssd1322.c ****     a =*ptr;
 105:..\..\..\u8g2\u8g2\csrc/u8x8_d_ssd1322.c ****     ptr++;
 106:..\..\..\u8g2\u8g2\csrc/u8x8_d_ssd1322.c ****     b = *ptr;
 107:..\..\..\u8g2\u8g2\csrc/u8x8_d_ssd1322.c ****     ptr++;
 108:..\..\..\u8g2\u8g2\csrc/u8x8_d_ssd1322.c ****     for( i = 0; i < 8; i++ )
 109:..\..\..\u8g2\u8g2\csrc/u8x8_d_ssd1322.c ****     {
 110:..\..\..\u8g2\u8g2\csrc/u8x8_d_ssd1322.c ****       v = 0;
 111:..\..\..\u8g2\u8g2\csrc/u8x8_d_ssd1322.c ****       if ( a&1 ) v |= 0xf0;
 112:..\..\..\u8g2\u8g2\csrc/u8x8_d_ssd1322.c ****       if ( b&1 ) v |= 0x0f;
 113:..\..\..\u8g2\u8g2\csrc/u8x8_d_ssd1322.c ****       *dest = v;
 114:..\..\..\u8g2\u8g2\csrc/u8x8_d_ssd1322.c ****       dest+=4;
 115:..\..\..\u8g2\u8g2\csrc/u8x8_d_ssd1322.c ****       a >>= 1;
 116:..\..\..\u8g2\u8g2\csrc/u8x8_d_ssd1322.c ****       b >>= 1;
 117:..\..\..\u8g2\u8g2\csrc/u8x8_d_ssd1322.c ****     }
 118:..\..\..\u8g2\u8g2\csrc/u8x8_d_ssd1322.c ****   }
 119:..\..\..\u8g2\u8g2\csrc/u8x8_d_ssd1322.c ****   
 120:..\..\..\u8g2\u8g2\csrc/u8x8_d_ssd1322.c ****   return u8x8_ssd1322_to32_dest_buf;
 121:..\..\..\u8g2\u8g2\csrc/u8x8_d_ssd1322.c **** }
 122:..\..\..\u8g2\u8g2\csrc/u8x8_d_ssd1322.c **** 
 123:..\..\..\u8g2\u8g2\csrc/u8x8_d_ssd1322.c **** static uint8_t *u8x8_ssd1322_4to32(U8X8_UNUSED u8x8_t *u8x8, uint8_t *ptr)
  27              		.loc 1 123 0
  28              		.cfi_startproc
  29              		@ args = 0, pretend = 0, frame = 0
  30              		@ frame_needed = 0, uses_anonymous_args = 0
  31              	.LVL0:
  32 0000 70B5     		push	{r4, r5, r6, lr}
  33              		.cfi_def_cfa_offset 16
  34              		.cfi_offset 4, -16
  35              		.cfi_offset 5, -12
  36              		.cfi_offset 6, -8
  37              		.cfi_offset 14, -4
 124:..\..\..\u8g2\u8g2\csrc/u8x8_d_ssd1322.c **** {
 125:..\..\..\u8g2\u8g2\csrc/u8x8_d_ssd1322.c ****   uint8_t v;
 126:..\..\..\u8g2\u8g2\csrc/u8x8_d_ssd1322.c ****   uint8_t a;
 127:..\..\..\u8g2\u8g2\csrc/u8x8_d_ssd1322.c ****   uint8_t i, j;
 128:..\..\..\u8g2\u8g2\csrc/u8x8_d_ssd1322.c ****   uint8_t *dest;
 129:..\..\..\u8g2\u8g2\csrc/u8x8_d_ssd1322.c ****   
 130:..\..\..\u8g2\u8g2\csrc/u8x8_d_ssd1322.c ****   for( j = 0; j < 4; j++ )
 131:..\..\..\u8g2\u8g2\csrc/u8x8_d_ssd1322.c ****   {
 132:..\..\..\u8g2\u8g2\csrc/u8x8_d_ssd1322.c ****     dest = u8x8_ssd1322_to32_dest_buf;
 133:..\..\..\u8g2\u8g2\csrc/u8x8_d_ssd1322.c ****     dest += j;
  38              		.loc 1 133 0
ARM GAS  C:\Users\jesse\AppData\Local\Temp\ccmtUGUe.s 			page 4


  39 0002 0A4C     		ldr	r4, .L7
 123:..\..\..\u8g2\u8g2\csrc/u8x8_d_ssd1322.c **** {
  40              		.loc 1 123 0
  41 0004 0023     		movs	r3, #0
  42              	.LVL1:
  43              	.L3:
 134:..\..\..\u8g2\u8g2\csrc/u8x8_d_ssd1322.c ****     a =*ptr;
  44              		.loc 1 134 0
  45 0006 10F8011B 		ldrb	r1, [r0], #1	@ zero_extendqisi2
  46              	.LVL2:
 133:..\..\..\u8g2\u8g2\csrc/u8x8_d_ssd1322.c ****     a =*ptr;
  47              		.loc 1 133 0
  48 000a E518     		adds	r5, r4, r3
  49              	.LVL3:
 135:..\..\..\u8g2\u8g2\csrc/u8x8_d_ssd1322.c ****     ptr++;
  50              		.loc 1 135 0
  51 000c 0022     		movs	r2, #0
  52 000e 0133     		adds	r3, r3, #1
  53              	.LVL4:
  54              	.L2:
 136:..\..\..\u8g2\u8g2\csrc/u8x8_d_ssd1322.c ****     for( i = 0; i < 8; i++ )
 137:..\..\..\u8g2\u8g2\csrc/u8x8_d_ssd1322.c ****     {
 138:..\..\..\u8g2\u8g2\csrc/u8x8_d_ssd1322.c ****       v = 0;
 139:..\..\..\u8g2\u8g2\csrc/u8x8_d_ssd1322.c ****       if ( a&1 ) v = 0xff;
 140:..\..\..\u8g2\u8g2\csrc/u8x8_d_ssd1322.c ****       *dest = v;
  55              		.loc 1 140 0
  56 0010 41F30006 		sbfx	r6, r1, #0, #1
  57 0014 05F82260 		strb	r6, [r5, r2, lsl #2]
  58              	.LVL5:
  59 0018 0132     		adds	r2, r2, #1
  60              	.LVL6:
 136:..\..\..\u8g2\u8g2\csrc/u8x8_d_ssd1322.c ****     for( i = 0; i < 8; i++ )
  61              		.loc 1 136 0
  62 001a 082A     		cmp	r2, #8
 141:..\..\..\u8g2\u8g2\csrc/u8x8_d_ssd1322.c ****       dest+=4;
 142:..\..\..\u8g2\u8g2\csrc/u8x8_d_ssd1322.c ****       a >>= 1;
  63              		.loc 1 142 0
  64 001c 4FEA5101 		lsr	r1, r1, #1
  65              	.LVL7:
 136:..\..\..\u8g2\u8g2\csrc/u8x8_d_ssd1322.c ****     for( i = 0; i < 8; i++ )
  66              		.loc 1 136 0
  67 0020 F6D1     		bne	.L2
  68              	.LVL8:
 130:..\..\..\u8g2\u8g2\csrc/u8x8_d_ssd1322.c ****   {
  69              		.loc 1 130 0
  70 0022 042B     		cmp	r3, #4
  71 0024 EFD1     		bne	.L3
 143:..\..\..\u8g2\u8g2\csrc/u8x8_d_ssd1322.c ****     }
 144:..\..\..\u8g2\u8g2\csrc/u8x8_d_ssd1322.c ****   }
 145:..\..\..\u8g2\u8g2\csrc/u8x8_d_ssd1322.c ****   
 146:..\..\..\u8g2\u8g2\csrc/u8x8_d_ssd1322.c ****   return u8x8_ssd1322_to32_dest_buf;
 147:..\..\..\u8g2\u8g2\csrc/u8x8_d_ssd1322.c **** }
  72              		.loc 1 147 0
  73 0026 0148     		ldr	r0, .L7
  74              	.LVL9:
  75 0028 70BD     		pop	{r4, r5, r6, pc}
  76              	.LVL10:
ARM GAS  C:\Users\jesse\AppData\Local\Temp\ccmtUGUe.s 			page 5


  77              	.L8:
  78 002a 00BF     		.align	2
  79              	.L7:
  80 002c 00000000 		.word	.LANCHOR0
  81              		.cfi_endproc
  82              	.LFE7:
  83              		.size	u8x8_ssd1322_4to32.isra.1, .-u8x8_ssd1322_4to32.isra.1
  84              		.section	.text.u8x8_d_ssd1322_common,"ax",%progbits
  85              		.align	1
  86              		.global	u8x8_d_ssd1322_common
  87              		.thumb
  88              		.thumb_func
  89              		.type	u8x8_d_ssd1322_common, %function
  90              	u8x8_d_ssd1322_common:
  91              	.LFB2:
 148:..\..\..\u8g2\u8g2\csrc/u8x8_d_ssd1322.c **** 
 149:..\..\..\u8g2\u8g2\csrc/u8x8_d_ssd1322.c **** 
 150:..\..\..\u8g2\u8g2\csrc/u8x8_d_ssd1322.c **** uint8_t u8x8_d_ssd1322_common(u8x8_t *u8x8, uint8_t msg, uint8_t arg_int, void *arg_ptr)
 151:..\..\..\u8g2\u8g2\csrc/u8x8_d_ssd1322.c **** {
  92              		.loc 1 151 0
  93              		.cfi_startproc
  94              		@ args = 0, pretend = 0, frame = 8
  95              		@ frame_needed = 0, uses_anonymous_args = 0
  96              	.LVL11:
 152:..\..\..\u8g2\u8g2\csrc/u8x8_d_ssd1322.c ****   uint8_t x; 
 153:..\..\..\u8g2\u8g2\csrc/u8x8_d_ssd1322.c ****   uint8_t y, c;
 154:..\..\..\u8g2\u8g2\csrc/u8x8_d_ssd1322.c ****   uint8_t *ptr;
 155:..\..\..\u8g2\u8g2\csrc/u8x8_d_ssd1322.c ****   switch(msg)
  97              		.loc 1 155 0
  98 0000 0E29     		cmp	r1, #14
 151:..\..\..\u8g2\u8g2\csrc/u8x8_d_ssd1322.c ****   uint8_t x; 
  99              		.loc 1 151 0
 100 0002 2DE9F74F 		push	{r0, r1, r2, r4, r5, r6, r7, r8, r9, r10, fp, lr}
 101              		.cfi_def_cfa_offset 48
 102              		.cfi_offset 4, -36
 103              		.cfi_offset 5, -32
 104              		.cfi_offset 6, -28
 105              		.cfi_offset 7, -24
 106              		.cfi_offset 8, -20
 107              		.cfi_offset 9, -16
 108              		.cfi_offset 10, -12
 109              		.cfi_offset 11, -8
 110              		.cfi_offset 14, -4
 151:..\..\..\u8g2\u8g2\csrc/u8x8_d_ssd1322.c ****   uint8_t x; 
 111              		.loc 1 151 0
 112 0006 0446     		mov	r4, r0
 113 0008 1546     		mov	r5, r2
 114 000a 9946     		mov	r9, r3
 115              		.loc 1 155 0
 116 000c 0BD0     		beq	.L11
 117 000e 0F29     		cmp	r1, #15
 118 0010 18D0     		beq	.L12
 119 0012 0B29     		cmp	r1, #11
 120 0014 40F08880 		bne	.L30
 156:..\..\..\u8g2\u8g2\csrc/u8x8_d_ssd1322.c ****   {
 157:..\..\..\u8g2\u8g2\csrc/u8x8_d_ssd1322.c ****     /* U8X8_MSG_DISPLAY_SETUP_MEMORY is handled by the calling function */
 158:..\..\..\u8g2\u8g2\csrc/u8x8_d_ssd1322.c ****     /*
ARM GAS  C:\Users\jesse\AppData\Local\Temp\ccmtUGUe.s 			page 6


 159:..\..\..\u8g2\u8g2\csrc/u8x8_d_ssd1322.c ****     case U8X8_MSG_DISPLAY_SETUP_MEMORY:
 160:..\..\..\u8g2\u8g2\csrc/u8x8_d_ssd1322.c ****       break;
 161:..\..\..\u8g2\u8g2\csrc/u8x8_d_ssd1322.c ****     case U8X8_MSG_DISPLAY_INIT:
 162:..\..\..\u8g2\u8g2\csrc/u8x8_d_ssd1322.c ****       u8x8_d_helper_display_init(u8x8);
 163:..\..\..\u8g2\u8g2\csrc/u8x8_d_ssd1322.c ****       u8x8_cad_SendSequence(u8x8, u8x8_d_ssd1322_256x64_init_seq);
 164:..\..\..\u8g2\u8g2\csrc/u8x8_d_ssd1322.c ****       break;
 165:..\..\..\u8g2\u8g2\csrc/u8x8_d_ssd1322.c ****     */
 166:..\..\..\u8g2\u8g2\csrc/u8x8_d_ssd1322.c ****     case U8X8_MSG_DISPLAY_SET_POWER_SAVE:
 167:..\..\..\u8g2\u8g2\csrc/u8x8_d_ssd1322.c ****       if ( arg_int == 0 )
 121              		.loc 1 167 0
 122 0018 0AB9     		cbnz	r2, .L14
 168:..\..\..\u8g2\u8g2\csrc/u8x8_d_ssd1322.c **** 	u8x8_cad_SendSequence(u8x8, u8x8_d_ssd1322_powersave0_seq);
 123              		.loc 1 168 0
 124 001a 4549     		ldr	r1, .L34
 125              	.LVL12:
 126 001c 00E0     		b	.L33
 127              	.LVL13:
 128              	.L14:
 169:..\..\..\u8g2\u8g2\csrc/u8x8_d_ssd1322.c ****       else
 170:..\..\..\u8g2\u8g2\csrc/u8x8_d_ssd1322.c **** 	u8x8_cad_SendSequence(u8x8, u8x8_d_ssd1322_powersave1_seq);
 129              		.loc 1 170 0
 130 001e 4549     		ldr	r1, .L34+4
 131              	.LVL14:
 132              	.L33:
 133 0020 FFF7FEFF 		bl	u8x8_cad_SendSequence
 134              	.LVL15:
 135 0024 0CE0     		b	.L31
 136              	.LVL16:
 137              	.L11:
 171:..\..\..\u8g2\u8g2\csrc/u8x8_d_ssd1322.c ****       break;
 172:..\..\..\u8g2\u8g2\csrc/u8x8_d_ssd1322.c **** #ifdef U8X8_WITH_SET_CONTRAST
 173:..\..\..\u8g2\u8g2\csrc/u8x8_d_ssd1322.c ****     case U8X8_MSG_DISPLAY_SET_CONTRAST:
 174:..\..\..\u8g2\u8g2\csrc/u8x8_d_ssd1322.c ****       u8x8_cad_StartTransfer(u8x8);
 138              		.loc 1 174 0
 139 0026 FFF7FEFF 		bl	u8x8_cad_StartTransfer
 140              	.LVL17:
 175:..\..\..\u8g2\u8g2\csrc/u8x8_d_ssd1322.c ****       u8x8_cad_SendCmd(u8x8, 0x0C1 );
 141              		.loc 1 175 0
 142 002a C121     		movs	r1, #193
 143 002c 2046     		mov	r0, r4
 144 002e FFF7FEFF 		bl	u8x8_cad_SendCmd
 145              	.LVL18:
 176:..\..\..\u8g2\u8g2\csrc/u8x8_d_ssd1322.c ****       u8x8_cad_SendArg(u8x8, arg_int );	/* ssd1322 has range from 0 to 255 */
 146              		.loc 1 176 0
 147 0032 2946     		mov	r1, r5
 148 0034 2046     		mov	r0, r4
 149 0036 FFF7FEFF 		bl	u8x8_cad_SendArg
 150              	.LVL19:
 151              	.L32:
 177:..\..\..\u8g2\u8g2\csrc/u8x8_d_ssd1322.c ****       u8x8_cad_EndTransfer(u8x8);
 152              		.loc 1 177 0
 153 003a 2046     		mov	r0, r4
 154 003c FFF7FEFF 		bl	u8x8_cad_EndTransfer
 155              	.LVL20:
 156              	.L31:
 178:..\..\..\u8g2\u8g2\csrc/u8x8_d_ssd1322.c ****       break;
 179:..\..\..\u8g2\u8g2\csrc/u8x8_d_ssd1322.c **** #endif
ARM GAS  C:\Users\jesse\AppData\Local\Temp\ccmtUGUe.s 			page 7


 180:..\..\..\u8g2\u8g2\csrc/u8x8_d_ssd1322.c ****     case U8X8_MSG_DISPLAY_DRAW_TILE:
 181:..\..\..\u8g2\u8g2\csrc/u8x8_d_ssd1322.c ****       u8x8_cad_StartTransfer(u8x8);
 182:..\..\..\u8g2\u8g2\csrc/u8x8_d_ssd1322.c ****       x = ((u8x8_tile_t *)arg_ptr)->x_pos;    
 183:..\..\..\u8g2\u8g2\csrc/u8x8_d_ssd1322.c ****       x *= 2;		// only every 4th col can be addressed
 184:..\..\..\u8g2\u8g2\csrc/u8x8_d_ssd1322.c ****       x += u8x8->x_offset;		
 185:..\..\..\u8g2\u8g2\csrc/u8x8_d_ssd1322.c ****     
 186:..\..\..\u8g2\u8g2\csrc/u8x8_d_ssd1322.c ****       y = (((u8x8_tile_t *)arg_ptr)->y_pos);
 187:..\..\..\u8g2\u8g2\csrc/u8x8_d_ssd1322.c ****       y *= 8;
 188:..\..\..\u8g2\u8g2\csrc/u8x8_d_ssd1322.c ****     
 189:..\..\..\u8g2\u8g2\csrc/u8x8_d_ssd1322.c ****       
 190:..\..\..\u8g2\u8g2\csrc/u8x8_d_ssd1322.c ****       u8x8_cad_SendCmd(u8x8, 0x075 );	/* set row address, moved out of the loop (issue 302) */
 191:..\..\..\u8g2\u8g2\csrc/u8x8_d_ssd1322.c ****       u8x8_cad_SendArg(u8x8, y);
 192:..\..\..\u8g2\u8g2\csrc/u8x8_d_ssd1322.c ****       u8x8_cad_SendArg(u8x8, y+7);
 193:..\..\..\u8g2\u8g2\csrc/u8x8_d_ssd1322.c ****       
 194:..\..\..\u8g2\u8g2\csrc/u8x8_d_ssd1322.c ****       do
 195:..\..\..\u8g2\u8g2\csrc/u8x8_d_ssd1322.c ****       {
 196:..\..\..\u8g2\u8g2\csrc/u8x8_d_ssd1322.c **** 	c = ((u8x8_tile_t *)arg_ptr)->cnt;
 197:..\..\..\u8g2\u8g2\csrc/u8x8_d_ssd1322.c **** 	ptr = ((u8x8_tile_t *)arg_ptr)->tile_ptr;
 198:..\..\..\u8g2\u8g2\csrc/u8x8_d_ssd1322.c **** 
 199:..\..\..\u8g2\u8g2\csrc/u8x8_d_ssd1322.c **** 	do
 200:..\..\..\u8g2\u8g2\csrc/u8x8_d_ssd1322.c **** 	{
 201:..\..\..\u8g2\u8g2\csrc/u8x8_d_ssd1322.c **** 	  u8x8_cad_SendCmd(u8x8, 0x015 );	/* set column address */
 202:..\..\..\u8g2\u8g2\csrc/u8x8_d_ssd1322.c **** 	  u8x8_cad_SendArg(u8x8, x );	/* start */
 203:..\..\..\u8g2\u8g2\csrc/u8x8_d_ssd1322.c **** 	  u8x8_cad_SendArg(u8x8, x+1 );	/* end */
 204:..\..\..\u8g2\u8g2\csrc/u8x8_d_ssd1322.c **** 
 205:..\..\..\u8g2\u8g2\csrc/u8x8_d_ssd1322.c **** 	  u8x8_cad_SendCmd(u8x8, 0x05c );	/* write to ram */
 206:..\..\..\u8g2\u8g2\csrc/u8x8_d_ssd1322.c **** 	  
 207:..\..\..\u8g2\u8g2\csrc/u8x8_d_ssd1322.c **** 	  u8x8_cad_SendData(u8x8, 32, u8x8_ssd1322_8to32(u8x8, ptr));
 208:..\..\..\u8g2\u8g2\csrc/u8x8_d_ssd1322.c **** 	  
 209:..\..\..\u8g2\u8g2\csrc/u8x8_d_ssd1322.c **** 	  ptr += 8;
 210:..\..\..\u8g2\u8g2\csrc/u8x8_d_ssd1322.c **** 	  x += 2;
 211:..\..\..\u8g2\u8g2\csrc/u8x8_d_ssd1322.c **** 	  c--;
 212:..\..\..\u8g2\u8g2\csrc/u8x8_d_ssd1322.c **** 	} while( c > 0 );
 213:..\..\..\u8g2\u8g2\csrc/u8x8_d_ssd1322.c **** 	
 214:..\..\..\u8g2\u8g2\csrc/u8x8_d_ssd1322.c **** 	//x += 2;
 215:..\..\..\u8g2\u8g2\csrc/u8x8_d_ssd1322.c **** 	arg_int--;
 216:..\..\..\u8g2\u8g2\csrc/u8x8_d_ssd1322.c ****       } while( arg_int > 0 );
 217:..\..\..\u8g2\u8g2\csrc/u8x8_d_ssd1322.c ****       
 218:..\..\..\u8g2\u8g2\csrc/u8x8_d_ssd1322.c ****       u8x8_cad_EndTransfer(u8x8);
 219:..\..\..\u8g2\u8g2\csrc/u8x8_d_ssd1322.c ****       break;
 220:..\..\..\u8g2\u8g2\csrc/u8x8_d_ssd1322.c ****     default:
 221:..\..\..\u8g2\u8g2\csrc/u8x8_d_ssd1322.c ****       return 0;
 222:..\..\..\u8g2\u8g2\csrc/u8x8_d_ssd1322.c ****   }
 223:..\..\..\u8g2\u8g2\csrc/u8x8_d_ssd1322.c ****   return 1;
 157              		.loc 1 223 0
 158 0040 0120     		movs	r0, #1
 178:..\..\..\u8g2\u8g2\csrc/u8x8_d_ssd1322.c ****       break;
 159              		.loc 1 178 0
 160 0042 72E0     		b	.L10
 161              	.LVL21:
 162              	.L12:
 163              	.LBB6:
 164              	.LBB7:
 181:..\..\..\u8g2\u8g2\csrc/u8x8_d_ssd1322.c ****       x = ((u8x8_tile_t *)arg_ptr)->x_pos;    
 165              		.loc 1 181 0
 166 0044 FFF7FEFF 		bl	u8x8_cad_StartTransfer
 167              	.LVL22:
ARM GAS  C:\Users\jesse\AppData\Local\Temp\ccmtUGUe.s 			page 8


 186:..\..\..\u8g2\u8g2\csrc/u8x8_d_ssd1322.c ****       y *= 8;
 168              		.loc 1 186 0
 169 0048 99F80670 		ldrb	r7, [r9, #6]	@ zero_extendqisi2
 184:..\..\..\u8g2\u8g2\csrc/u8x8_d_ssd1322.c ****     
 170              		.loc 1 184 0
 171 004c 94F82230 		ldrb	r3, [r4, #34]	@ zero_extendqisi2
 182:..\..\..\u8g2\u8g2\csrc/u8x8_d_ssd1322.c ****       x *= 2;		// only every 4th col can be addressed
 172              		.loc 1 182 0
 173 0050 99F80560 		ldrb	r6, [r9, #5]	@ zero_extendqisi2
 174              	.LVL23:
 187:..\..\..\u8g2\u8g2\csrc/u8x8_d_ssd1322.c ****     
 175              		.loc 1 187 0
 176 0054 FF00     		lsls	r7, r7, #3
 177 0056 FFB2     		uxtb	r7, r7
 190:..\..\..\u8g2\u8g2\csrc/u8x8_d_ssd1322.c ****       u8x8_cad_SendArg(u8x8, y);
 178              		.loc 1 190 0
 179 0058 7521     		movs	r1, #117
 180 005a 2046     		mov	r0, r4
 184:..\..\..\u8g2\u8g2\csrc/u8x8_d_ssd1322.c ****     
 181              		.loc 1 184 0
 182 005c 03EB4606 		add	r6, r3, r6, lsl #1
 183              	.LVL24:
 190:..\..\..\u8g2\u8g2\csrc/u8x8_d_ssd1322.c ****       u8x8_cad_SendArg(u8x8, y);
 184              		.loc 1 190 0
 185 0060 FFF7FEFF 		bl	u8x8_cad_SendCmd
 186              	.LVL25:
 191:..\..\..\u8g2\u8g2\csrc/u8x8_d_ssd1322.c ****       u8x8_cad_SendArg(u8x8, y+7);
 187              		.loc 1 191 0
 188 0064 3946     		mov	r1, r7
 189 0066 2046     		mov	r0, r4
 190 0068 FFF7FEFF 		bl	u8x8_cad_SendArg
 191              	.LVL26:
 192:..\..\..\u8g2\u8g2\csrc/u8x8_d_ssd1322.c ****       
 192              		.loc 1 192 0
 193 006c F91D     		adds	r1, r7, #7
 194 006e C9B2     		uxtb	r1, r1
 195 0070 2046     		mov	r0, r4
 184:..\..\..\u8g2\u8g2\csrc/u8x8_d_ssd1322.c ****     
 196              		.loc 1 184 0
 197 0072 06F0FF06 		and	r6, r6, #255
 198              	.LVL27:
 192:..\..\..\u8g2\u8g2\csrc/u8x8_d_ssd1322.c ****       
 199              		.loc 1 192 0
 200 0076 FFF7FEFF 		bl	u8x8_cad_SendArg
 201              	.LVL28:
 202              	.L20:
 197:..\..\..\u8g2\u8g2\csrc/u8x8_d_ssd1322.c **** 
 203              		.loc 1 197 0
 204 007a 3746     		mov	r7, r6
 196:..\..\..\u8g2\u8g2\csrc/u8x8_d_ssd1322.c **** 	ptr = ((u8x8_tile_t *)arg_ptr)->tile_ptr;
 205              		.loc 1 196 0
 206 007c 99F80480 		ldrb	r8, [r9, #4]	@ zero_extendqisi2
 207              	.LVL29:
 197:..\..\..\u8g2\u8g2\csrc/u8x8_d_ssd1322.c **** 
 208              		.loc 1 197 0
 209 0080 D9F80030 		ldr	r3, [r9]
 210              	.LVL30:
ARM GAS  C:\Users\jesse\AppData\Local\Temp\ccmtUGUe.s 			page 9


 211 0084 08F1FF32 		add	r2, r8, #-1
 212 0088 D2B2     		uxtb	r2, r2
 213 008a 03F1020A 		add	r10, r3, #2
 214 008e 03EBC203 		add	r3, r3, r2, lsl #3
 215              	.LVL31:
 216 0092 0A33     		adds	r3, r3, #10
 217 0094 0193     		str	r3, [sp, #4]
 218              	.LVL32:
 219              	.L19:
 201:..\..\..\u8g2\u8g2\csrc/u8x8_d_ssd1322.c **** 	  u8x8_cad_SendArg(u8x8, x );	/* start */
 220              		.loc 1 201 0
 221 0096 1521     		movs	r1, #21
 222 0098 2046     		mov	r0, r4
 223 009a FFF7FEFF 		bl	u8x8_cad_SendCmd
 224              	.LVL33:
 202:..\..\..\u8g2\u8g2\csrc/u8x8_d_ssd1322.c **** 	  u8x8_cad_SendArg(u8x8, x+1 );	/* end */
 225              		.loc 1 202 0
 226 009e 3946     		mov	r1, r7
 227 00a0 2046     		mov	r0, r4
 228 00a2 FFF7FEFF 		bl	u8x8_cad_SendArg
 229              	.LVL34:
 203:..\..\..\u8g2\u8g2\csrc/u8x8_d_ssd1322.c **** 
 230              		.loc 1 203 0
 231 00a6 791C     		adds	r1, r7, #1
 232 00a8 C9B2     		uxtb	r1, r1
 233 00aa 2046     		mov	r0, r4
 234 00ac FFF7FEFF 		bl	u8x8_cad_SendArg
 235              	.LVL35:
 205:..\..\..\u8g2\u8g2\csrc/u8x8_d_ssd1322.c **** 	  
 236              		.loc 1 205 0
 237 00b0 5C21     		movs	r1, #92
 238 00b2 2046     		mov	r0, r4
 239 00b4 FFF7FEFF 		bl	u8x8_cad_SendCmd
 240              	.LVL36:
 241 00b8 5246     		mov	r2, r10
 242 00ba 0023     		movs	r3, #0
 243              	.LVL37:
 244              	.L18:
 245 00bc 1E49     		ldr	r1, .L34+8
 246              	.LBB8:
 247              	.LBB9:
 104:..\..\..\u8g2\u8g2\csrc/u8x8_d_ssd1322.c ****     ptr++;
 248              		.loc 1 104 0
 249 00be 12F802EC 		ldrb	lr, [r2, #-2]	@ zero_extendqisi2
 106:..\..\..\u8g2\u8g2\csrc/u8x8_d_ssd1322.c ****     ptr++;
 250              		.loc 1 106 0
 251 00c2 12F8010C 		ldrb	r0, [r2, #-1]	@ zero_extendqisi2
 252 00c6 01EB030B 		add	fp, r1, r3
 253              	.LVL38:
 254 00ca 0021     		movs	r1, #0
 255              	.LVL39:
 256              	.L17:
 111:..\..\..\u8g2\u8g2\csrc/u8x8_d_ssd1322.c ****       if ( b&1 ) v |= 0x0f;
 257              		.loc 1 111 0
 258 00cc 1EF0010F 		tst	lr, #1
 259 00d0 14BF     		ite	ne
 260 00d2 4FF0F00C 		movne	ip, #240
ARM GAS  C:\Users\jesse\AppData\Local\Temp\ccmtUGUe.s 			page 10


 261 00d6 4FF0000C 		moveq	ip, #0
 262              	.LVL40:
 112:..\..\..\u8g2\u8g2\csrc/u8x8_d_ssd1322.c ****       *dest = v;
 263              		.loc 1 112 0
 264 00da 10F0010F 		tst	r0, #1
 265 00de 18BF     		it	ne
 266 00e0 4CF00F0C 		orrne	ip, ip, #15
 267              	.LVL41:
 113:..\..\..\u8g2\u8g2\csrc/u8x8_d_ssd1322.c ****       dest+=4;
 268              		.loc 1 113 0
 269 00e4 0BF821C0 		strb	ip, [fp, r1, lsl #2]
 270              	.LVL42:
 271 00e8 0131     		adds	r1, r1, #1
 272              	.LVL43:
 108:..\..\..\u8g2\u8g2\csrc/u8x8_d_ssd1322.c ****     {
 273              		.loc 1 108 0
 274 00ea 0829     		cmp	r1, #8
 115:..\..\..\u8g2\u8g2\csrc/u8x8_d_ssd1322.c ****       b >>= 1;
 275              		.loc 1 115 0
 276 00ec 4FEA5E0E 		lsr	lr, lr, #1
 277              	.LVL44:
 116:..\..\..\u8g2\u8g2\csrc/u8x8_d_ssd1322.c ****     }
 278              		.loc 1 116 0
 279 00f0 4FEA5000 		lsr	r0, r0, #1
 280              	.LVL45:
 108:..\..\..\u8g2\u8g2\csrc/u8x8_d_ssd1322.c ****     {
 281              		.loc 1 108 0
 282 00f4 EAD1     		bne	.L17
 283              	.LVL46:
 284 00f6 0133     		adds	r3, r3, #1
 285              	.LVL47:
 100:..\..\..\u8g2\u8g2\csrc/u8x8_d_ssd1322.c ****   {
 286              		.loc 1 100 0
 287 00f8 042B     		cmp	r3, #4
 288 00fa 02F10202 		add	r2, r2, #2
 289              	.LVL48:
 290 00fe DDD1     		bne	.L18
 291              	.LVL49:
 292              	.LBE9:
 293              	.LBE8:
 207:..\..\..\u8g2\u8g2\csrc/u8x8_d_ssd1322.c **** 	  
 294              		.loc 1 207 0
 295 0100 0D4A     		ldr	r2, .L34+8
 296 0102 2021     		movs	r1, #32
 297 0104 2046     		mov	r0, r4
 298 0106 FFF7FEFF 		bl	u8x8_cad_SendData
 299              	.LVL50:
 212:..\..\..\u8g2\u8g2\csrc/u8x8_d_ssd1322.c **** 	
 300              		.loc 1 212 0
 301 010a 019B     		ldr	r3, [sp, #4]
 302 010c 0AF1080A 		add	r10, r10, #8
 303              	.LVL51:
 210:..\..\..\u8g2\u8g2\csrc/u8x8_d_ssd1322.c **** 	  c--;
 304              		.loc 1 210 0
 305 0110 0237     		adds	r7, r7, #2
 306              	.LVL52:
 212:..\..\..\u8g2\u8g2\csrc/u8x8_d_ssd1322.c **** 	
ARM GAS  C:\Users\jesse\AppData\Local\Temp\ccmtUGUe.s 			page 11


 307              		.loc 1 212 0
 308 0112 5345     		cmp	r3, r10
 210:..\..\..\u8g2\u8g2\csrc/u8x8_d_ssd1322.c **** 	  c--;
 309              		.loc 1 210 0
 310 0114 FFB2     		uxtb	r7, r7
 311              	.LVL53:
 212:..\..\..\u8g2\u8g2\csrc/u8x8_d_ssd1322.c **** 	
 312              		.loc 1 212 0
 313 0116 BED1     		bne	.L19
 215:..\..\..\u8g2\u8g2\csrc/u8x8_d_ssd1322.c ****       } while( arg_int > 0 );
 314              		.loc 1 215 0
 315 0118 013D     		subs	r5, r5, #1
 316              	.LVL54:
 317 011a 06EB4806 		add	r6, r6, r8, lsl #1
 216:..\..\..\u8g2\u8g2\csrc/u8x8_d_ssd1322.c ****       
 318              		.loc 1 216 0
 319 011e 15F0FF05 		ands	r5, r5, #255
 320              	.LVL55:
 321 0122 F6B2     		uxtb	r6, r6
 322 0124 A9D1     		bne	.L20
 323 0126 88E7     		b	.L32
 324              	.LVL56:
 325              	.L30:
 326              	.LBE7:
 327              	.LBE6:
 221:..\..\..\u8g2\u8g2\csrc/u8x8_d_ssd1322.c ****   }
 328              		.loc 1 221 0
 329 0128 0020     		movs	r0, #0
 330              	.LVL57:
 331              	.L10:
 224:..\..\..\u8g2\u8g2\csrc/u8x8_d_ssd1322.c **** }
 332              		.loc 1 224 0
 333 012a 03B0     		add	sp, sp, #12
 334              		.cfi_def_cfa_offset 36
 335              		@ sp needed
 336 012c BDE8F08F 		pop	{r4, r5, r6, r7, r8, r9, r10, fp, pc}
 337              	.LVL58:
 338              	.L35:
 339              		.align	2
 340              	.L34:
 341 0130 00000000 		.word	.LANCHOR1
 342 0134 05000000 		.word	.LANCHOR1+5
 343 0138 00000000 		.word	.LANCHOR0
 344              		.cfi_endproc
 345              	.LFE2:
 346              		.size	u8x8_d_ssd1322_common, .-u8x8_d_ssd1322_common
 347              		.section	.text.u8x8_d_ssd1322_nhd_256x64,"ax",%progbits
 348              		.align	1
 349              		.global	u8x8_d_ssd1322_nhd_256x64
 350              		.thumb
 351              		.thumb_func
 352              		.type	u8x8_d_ssd1322_nhd_256x64, %function
 353              	u8x8_d_ssd1322_nhd_256x64:
 354              	.LFB3:
 225:..\..\..\u8g2\u8g2\csrc/u8x8_d_ssd1322.c **** 
 226:..\..\..\u8g2\u8g2\csrc/u8x8_d_ssd1322.c **** /*=========================================================*/
 227:..\..\..\u8g2\u8g2\csrc/u8x8_d_ssd1322.c **** 
ARM GAS  C:\Users\jesse\AppData\Local\Temp\ccmtUGUe.s 			page 12


 228:..\..\..\u8g2\u8g2\csrc/u8x8_d_ssd1322.c **** static const uint8_t u8x8_d_ssd1322_256x64_flip0_seq[] = {
 229:..\..\..\u8g2\u8g2\csrc/u8x8_d_ssd1322.c ****   U8X8_START_TRANSFER(),             	/* enable chip, delay is part of the transfer start */
 230:..\..\..\u8g2\u8g2\csrc/u8x8_d_ssd1322.c ****   U8X8_CAA(0x0a0, 0x006, 0x011),		/* remap */
 231:..\..\..\u8g2\u8g2\csrc/u8x8_d_ssd1322.c ****   U8X8_END_TRANSFER(),             	/* disable chip */
 232:..\..\..\u8g2\u8g2\csrc/u8x8_d_ssd1322.c ****   U8X8_END()             			/* end of sequence */
 233:..\..\..\u8g2\u8g2\csrc/u8x8_d_ssd1322.c **** };
 234:..\..\..\u8g2\u8g2\csrc/u8x8_d_ssd1322.c **** 
 235:..\..\..\u8g2\u8g2\csrc/u8x8_d_ssd1322.c **** static const uint8_t u8x8_d_ssd1322_256x64_flip1_seq[] = {
 236:..\..\..\u8g2\u8g2\csrc/u8x8_d_ssd1322.c ****   U8X8_START_TRANSFER(),             	/* enable chip, delay is part of the transfer start */
 237:..\..\..\u8g2\u8g2\csrc/u8x8_d_ssd1322.c ****   U8X8_CAA(0x0a0, 0x014, 0x011),		/* remap */
 238:..\..\..\u8g2\u8g2\csrc/u8x8_d_ssd1322.c ****   U8X8_END_TRANSFER(),             	/* disable chip */
 239:..\..\..\u8g2\u8g2\csrc/u8x8_d_ssd1322.c ****   U8X8_END()             			/* end of sequence */
 240:..\..\..\u8g2\u8g2\csrc/u8x8_d_ssd1322.c **** };
 241:..\..\..\u8g2\u8g2\csrc/u8x8_d_ssd1322.c **** 
 242:..\..\..\u8g2\u8g2\csrc/u8x8_d_ssd1322.c **** static const u8x8_display_info_t u8x8_ssd1322_256x64_display_info =
 243:..\..\..\u8g2\u8g2\csrc/u8x8_d_ssd1322.c **** {
 244:..\..\..\u8g2\u8g2\csrc/u8x8_d_ssd1322.c ****   /* chip_enable_level = */ 0,
 245:..\..\..\u8g2\u8g2\csrc/u8x8_d_ssd1322.c ****   /* chip_disable_level = */ 1,
 246:..\..\..\u8g2\u8g2\csrc/u8x8_d_ssd1322.c ****   
 247:..\..\..\u8g2\u8g2\csrc/u8x8_d_ssd1322.c ****   /* post_chip_enable_wait_ns = */ 20,
 248:..\..\..\u8g2\u8g2\csrc/u8x8_d_ssd1322.c ****   /* pre_chip_disable_wait_ns = */ 10,
 249:..\..\..\u8g2\u8g2\csrc/u8x8_d_ssd1322.c ****   /* reset_pulse_width_ms = */ 100, 	/* SSD1322: 2 us */
 250:..\..\..\u8g2\u8g2\csrc/u8x8_d_ssd1322.c ****   /* post_reset_wait_ms = */ 100, /* far east OLEDs need much longer setup time */
 251:..\..\..\u8g2\u8g2\csrc/u8x8_d_ssd1322.c ****   /* sda_setup_time_ns = */ 50,		/* SSD1322: 15ns, but cycle time is 100ns, so use 100/2 */
 252:..\..\..\u8g2\u8g2\csrc/u8x8_d_ssd1322.c ****   /* sck_pulse_width_ns = */ 50,	/* SSD1322: 20ns, but cycle time is 100ns, so use 100/2, AVR: belo
 253:..\..\..\u8g2\u8g2\csrc/u8x8_d_ssd1322.c ****   /* sck_clock_hz = */ 10000000UL,	/* since Arduino 1.6.0, the SPI bus speed in Hz. Should be  1000
 254:..\..\..\u8g2\u8g2\csrc/u8x8_d_ssd1322.c ****   /* spi_mode = */ 0,		/* active high, rising edge */
 255:..\..\..\u8g2\u8g2\csrc/u8x8_d_ssd1322.c ****   /* i2c_bus_clock_100kHz = */ 4,
 256:..\..\..\u8g2\u8g2\csrc/u8x8_d_ssd1322.c ****   /* data_setup_time_ns = */ 10,
 257:..\..\..\u8g2\u8g2\csrc/u8x8_d_ssd1322.c ****   /* write_pulse_width_ns = */ 150,	/* SSD1322: cycle time is 300ns, so use 300/2 = 150 */
 258:..\..\..\u8g2\u8g2\csrc/u8x8_d_ssd1322.c ****   /* tile_width = */ 32,		/* 256 pixel, so we require 32 bytes for this */
 259:..\..\..\u8g2\u8g2\csrc/u8x8_d_ssd1322.c ****   /* tile_hight = */ 8,
 260:..\..\..\u8g2\u8g2\csrc/u8x8_d_ssd1322.c ****   /* default_x_offset = */ 0x01c,	/* this is the byte offset (there are two pixel per byte with 4 b
 261:..\..\..\u8g2\u8g2\csrc/u8x8_d_ssd1322.c ****   /* flipmode_x_offset = */ 0x01c,
 262:..\..\..\u8g2\u8g2\csrc/u8x8_d_ssd1322.c ****   /* pixel_width = */ 256,
 263:..\..\..\u8g2\u8g2\csrc/u8x8_d_ssd1322.c ****   /* pixel_height = */ 64
 264:..\..\..\u8g2\u8g2\csrc/u8x8_d_ssd1322.c **** };
 265:..\..\..\u8g2\u8g2\csrc/u8x8_d_ssd1322.c **** 
 266:..\..\..\u8g2\u8g2\csrc/u8x8_d_ssd1322.c **** 
 267:..\..\..\u8g2\u8g2\csrc/u8x8_d_ssd1322.c **** static const uint8_t u8x8_d_ssd1322_256x64_init_seq[] = {
 268:..\..\..\u8g2\u8g2\csrc/u8x8_d_ssd1322.c ****     
 269:..\..\..\u8g2\u8g2\csrc/u8x8_d_ssd1322.c ****   U8X8_DLY(1),
 270:..\..\..\u8g2\u8g2\csrc/u8x8_d_ssd1322.c ****   U8X8_START_TRANSFER(),             	/* enable chip, delay is part of the transfer start */
 271:..\..\..\u8g2\u8g2\csrc/u8x8_d_ssd1322.c ****   U8X8_DLY(1),
 272:..\..\..\u8g2\u8g2\csrc/u8x8_d_ssd1322.c ****   
 273:..\..\..\u8g2\u8g2\csrc/u8x8_d_ssd1322.c ****   U8X8_CA(0xfd, 0x12),            	/* unlock */
 274:..\..\..\u8g2\u8g2\csrc/u8x8_d_ssd1322.c ****   U8X8_C(0xae),		                /* display off */
 275:..\..\..\u8g2\u8g2\csrc/u8x8_d_ssd1322.c ****   U8X8_CA(0xb3, 0x91),			/* set display clock divide ratio/oscillator frequency (set clock as 80 fr
 276:..\..\..\u8g2\u8g2\csrc/u8x8_d_ssd1322.c ****   U8X8_CA(0xca, 0x3f),			/* multiplex ratio 1/64 Duty (0x0F~0x3F) */  
 277:..\..\..\u8g2\u8g2\csrc/u8x8_d_ssd1322.c ****   U8X8_CA(0xa2, 0x00),			/* display offset, shift mapping ram counter */  
 278:..\..\..\u8g2\u8g2\csrc/u8x8_d_ssd1322.c ****   U8X8_CA(0xa1, 0x00),			/* display start line */  
 279:..\..\..\u8g2\u8g2\csrc/u8x8_d_ssd1322.c ****   //U8X8_CAA(0xa0, 0x14, 0x11),	/* Set Re-Map / Dual COM Line Mode */  
 280:..\..\..\u8g2\u8g2\csrc/u8x8_d_ssd1322.c ****   U8X8_CAA(0xa0, 0x06, 0x011),	/* Set Re-Map / Dual COM Line Mode */  
 281:..\..\..\u8g2\u8g2\csrc/u8x8_d_ssd1322.c ****   U8X8_CA(0xab, 0x01),			/* Enable Internal VDD Regulator */  
 282:..\..\..\u8g2\u8g2\csrc/u8x8_d_ssd1322.c ****   U8X8_CAA(0xb4, 0xa0, 0x005|0x0fd),	/* Display Enhancement A */  
 283:..\..\..\u8g2\u8g2\csrc/u8x8_d_ssd1322.c ****   U8X8_CA(0xc1, 0x9f),			/* contrast */  
 284:..\..\..\u8g2\u8g2\csrc/u8x8_d_ssd1322.c ****   U8X8_CA(0xc7, 0x0f),			/* Set Scale Factor of Segment Output Current Control */  
ARM GAS  C:\Users\jesse\AppData\Local\Temp\ccmtUGUe.s 			page 13


 285:..\..\..\u8g2\u8g2\csrc/u8x8_d_ssd1322.c ****   U8X8_C(0xb9),		                /* linear grayscale */
 286:..\..\..\u8g2\u8g2\csrc/u8x8_d_ssd1322.c ****   U8X8_CA(0xb1, 0xe2),			/* Phase 1 (Reset) & Phase 2 (Pre-Charge) Period Adjustment */  
 287:..\..\..\u8g2\u8g2\csrc/u8x8_d_ssd1322.c ****   U8X8_CAA(0xd1, 0x082|0x020, 0x020),	/* Display Enhancement B */  
 288:..\..\..\u8g2\u8g2\csrc/u8x8_d_ssd1322.c ****   U8X8_CA(0xbb, 0x1f),			/* precharge  voltage */  
 289:..\..\..\u8g2\u8g2\csrc/u8x8_d_ssd1322.c ****   U8X8_CA(0xb6, 0x08),			/* precharge  period */  
 290:..\..\..\u8g2\u8g2\csrc/u8x8_d_ssd1322.c ****   U8X8_CA(0xbe, 0x07),			/* vcomh */  
 291:..\..\..\u8g2\u8g2\csrc/u8x8_d_ssd1322.c ****   U8X8_C(0xa6),		                /* normal display */
 292:..\..\..\u8g2\u8g2\csrc/u8x8_d_ssd1322.c ****   U8X8_C(0xa9),		                /* exit partial display */
 293:..\..\..\u8g2\u8g2\csrc/u8x8_d_ssd1322.c **** 
 294:..\..\..\u8g2\u8g2\csrc/u8x8_d_ssd1322.c **** 
 295:..\..\..\u8g2\u8g2\csrc/u8x8_d_ssd1322.c ****   U8X8_DLY(1),					/* delay 2ms */
 296:..\..\..\u8g2\u8g2\csrc/u8x8_d_ssd1322.c **** 
 297:..\..\..\u8g2\u8g2\csrc/u8x8_d_ssd1322.c ****   
 298:..\..\..\u8g2\u8g2\csrc/u8x8_d_ssd1322.c ****   U8X8_END_TRANSFER(),             	/* disable chip */
 299:..\..\..\u8g2\u8g2\csrc/u8x8_d_ssd1322.c ****   U8X8_END()             			/* end of sequence */
 300:..\..\..\u8g2\u8g2\csrc/u8x8_d_ssd1322.c **** };
 301:..\..\..\u8g2\u8g2\csrc/u8x8_d_ssd1322.c **** 
 302:..\..\..\u8g2\u8g2\csrc/u8x8_d_ssd1322.c **** 
 303:..\..\..\u8g2\u8g2\csrc/u8x8_d_ssd1322.c **** uint8_t u8x8_d_ssd1322_nhd_256x64(u8x8_t *u8x8, uint8_t msg, uint8_t arg_int, void *arg_ptr)
 304:..\..\..\u8g2\u8g2\csrc/u8x8_d_ssd1322.c **** {
 355              		.loc 1 304 0
 356              		.cfi_startproc
 357              		@ args = 0, pretend = 0, frame = 0
 358              		@ frame_needed = 0, uses_anonymous_args = 0
 359              	.LVL59:
 305:..\..\..\u8g2\u8g2\csrc/u8x8_d_ssd1322.c ****   switch(msg)
 360              		.loc 1 305 0
 361 0000 0A29     		cmp	r1, #10
 304:..\..\..\u8g2\u8g2\csrc/u8x8_d_ssd1322.c ****   switch(msg)
 362              		.loc 1 304 0
 363 0002 70B5     		push	{r4, r5, r6, lr}
 364              		.cfi_def_cfa_offset 16
 365              		.cfi_offset 4, -16
 366              		.cfi_offset 5, -12
 367              		.cfi_offset 6, -8
 368              		.cfi_offset 14, -4
 304:..\..\..\u8g2\u8g2\csrc/u8x8_d_ssd1322.c ****   switch(msg)
 369              		.loc 1 304 0
 370 0004 0446     		mov	r4, r0
 371              		.loc 1 305 0
 372 0006 07D0     		beq	.L38
 373 0008 0D29     		cmp	r1, #13
 374 000a 0CD0     		beq	.L39
 375 000c 0929     		cmp	r1, #9
 376 000e 19D1     		bne	.L43
 306:..\..\..\u8g2\u8g2\csrc/u8x8_d_ssd1322.c ****   {
 307:..\..\..\u8g2\u8g2\csrc/u8x8_d_ssd1322.c ****     case U8X8_MSG_DISPLAY_SETUP_MEMORY:
 308:..\..\..\u8g2\u8g2\csrc/u8x8_d_ssd1322.c ****       u8x8_d_helper_display_setup_memory(u8x8, &u8x8_ssd1322_256x64_display_info);
 377              		.loc 1 308 0
 378 0010 0F49     		ldr	r1, .L45
 379              	.LVL60:
 380 0012 FFF7FEFF 		bl	u8x8_d_helper_display_setup_memory
 381              	.LVL61:
 309:..\..\..\u8g2\u8g2\csrc/u8x8_d_ssd1322.c ****       break;
 382              		.loc 1 309 0
 383 0016 19E0     		b	.L41
 384              	.LVL62:
ARM GAS  C:\Users\jesse\AppData\Local\Temp\ccmtUGUe.s 			page 14


 385              	.L38:
 310:..\..\..\u8g2\u8g2\csrc/u8x8_d_ssd1322.c ****     case U8X8_MSG_DISPLAY_INIT:
 311:..\..\..\u8g2\u8g2\csrc/u8x8_d_ssd1322.c ****       u8x8_d_helper_display_init(u8x8);
 386              		.loc 1 311 0
 387 0018 FFF7FEFF 		bl	u8x8_d_helper_display_init
 388              	.LVL63:
 312:..\..\..\u8g2\u8g2\csrc/u8x8_d_ssd1322.c ****       u8x8_cad_SendSequence(u8x8, u8x8_d_ssd1322_256x64_init_seq);
 389              		.loc 1 312 0
 390 001c 0D49     		ldr	r1, .L45+4
 391 001e 2046     		mov	r0, r4
 392 0020 FFF7FEFF 		bl	u8x8_cad_SendSequence
 393              	.LVL64:
 313:..\..\..\u8g2\u8g2\csrc/u8x8_d_ssd1322.c ****       break;
 394              		.loc 1 313 0
 395 0024 12E0     		b	.L41
 396              	.LVL65:
 397              	.L39:
 314:..\..\..\u8g2\u8g2\csrc/u8x8_d_ssd1322.c ****     case U8X8_MSG_DISPLAY_SET_FLIP_MODE:
 315:..\..\..\u8g2\u8g2\csrc/u8x8_d_ssd1322.c ****       if ( arg_int == 0 )
 398              		.loc 1 315 0
 399 0026 2AB9     		cbnz	r2, .L42
 316:..\..\..\u8g2\u8g2\csrc/u8x8_d_ssd1322.c ****       {
 317:..\..\..\u8g2\u8g2\csrc/u8x8_d_ssd1322.c **** 	u8x8_cad_SendSequence(u8x8, u8x8_d_ssd1322_256x64_flip0_seq);
 400              		.loc 1 317 0
 401 0028 0B49     		ldr	r1, .L45+8
 402              	.LVL66:
 403 002a FFF7FEFF 		bl	u8x8_cad_SendSequence
 404              	.LVL67:
 318:..\..\..\u8g2\u8g2\csrc/u8x8_d_ssd1322.c **** 	u8x8->x_offset = u8x8->display_info->default_x_offset;
 405              		.loc 1 318 0
 406 002e 2368     		ldr	r3, [r4]
 407 0030 9B7C     		ldrb	r3, [r3, #18]	@ zero_extendqisi2
 408 0032 04E0     		b	.L44
 409              	.LVL68:
 410              	.L42:
 319:..\..\..\u8g2\u8g2\csrc/u8x8_d_ssd1322.c ****       }
 320:..\..\..\u8g2\u8g2\csrc/u8x8_d_ssd1322.c ****       else
 321:..\..\..\u8g2\u8g2\csrc/u8x8_d_ssd1322.c ****       {
 322:..\..\..\u8g2\u8g2\csrc/u8x8_d_ssd1322.c **** 	u8x8_cad_SendSequence(u8x8, u8x8_d_ssd1322_256x64_flip1_seq);
 411              		.loc 1 322 0
 412 0034 0949     		ldr	r1, .L45+12
 413              	.LVL69:
 414 0036 FFF7FEFF 		bl	u8x8_cad_SendSequence
 415              	.LVL70:
 323:..\..\..\u8g2\u8g2\csrc/u8x8_d_ssd1322.c **** 	u8x8->x_offset = u8x8->display_info->flipmode_x_offset;
 416              		.loc 1 323 0
 417 003a 2368     		ldr	r3, [r4]
 418 003c DB7C     		ldrb	r3, [r3, #19]	@ zero_extendqisi2
 419              	.L44:
 420 003e 84F82230 		strb	r3, [r4, #34]
 421 0042 03E0     		b	.L41
 422              	.LVL71:
 423              	.L43:
 324:..\..\..\u8g2\u8g2\csrc/u8x8_d_ssd1322.c ****       }
 325:..\..\..\u8g2\u8g2\csrc/u8x8_d_ssd1322.c ****       break;
 326:..\..\..\u8g2\u8g2\csrc/u8x8_d_ssd1322.c ****     
 327:..\..\..\u8g2\u8g2\csrc/u8x8_d_ssd1322.c ****     default:
ARM GAS  C:\Users\jesse\AppData\Local\Temp\ccmtUGUe.s 			page 15


 328:..\..\..\u8g2\u8g2\csrc/u8x8_d_ssd1322.c ****       return u8x8_d_ssd1322_common(u8x8, msg, arg_int, arg_ptr);
 329:..\..\..\u8g2\u8g2\csrc/u8x8_d_ssd1322.c ****   }
 330:..\..\..\u8g2\u8g2\csrc/u8x8_d_ssd1322.c ****   return 1;
 331:..\..\..\u8g2\u8g2\csrc/u8x8_d_ssd1322.c **** }
 424              		.loc 1 331 0
 425 0044 BDE87040 		pop	{r4, r5, r6, lr}
 426              		.cfi_remember_state
 427              		.cfi_restore 14
 428              		.cfi_restore 6
 429              		.cfi_restore 5
 430              		.cfi_restore 4
 431              		.cfi_def_cfa_offset 0
 328:..\..\..\u8g2\u8g2\csrc/u8x8_d_ssd1322.c ****   }
 432              		.loc 1 328 0
 433 0048 FFF7FEBF 		b	u8x8_d_ssd1322_common
 434              	.LVL72:
 435              	.L41:
 436              		.cfi_restore_state
 437              		.loc 1 331 0
 438 004c 0120     		movs	r0, #1
 439 004e 70BD     		pop	{r4, r5, r6, pc}
 440              	.LVL73:
 441              	.L46:
 442              		.align	2
 443              	.L45:
 444 0050 0C000000 		.word	.LANCHOR1+12
 445 0054 24000000 		.word	.LANCHOR1+36
 446 0058 77000000 		.word	.LANCHOR1+119
 447 005c 80000000 		.word	.LANCHOR1+128
 448              		.cfi_endproc
 449              	.LFE3:
 450              		.size	u8x8_d_ssd1322_nhd_256x64, .-u8x8_d_ssd1322_nhd_256x64
 451              		.section	.text.u8x8_d_ssd1322_common2,"ax",%progbits
 452              		.align	1
 453              		.global	u8x8_d_ssd1322_common2
 454              		.thumb
 455              		.thumb_func
 456              		.type	u8x8_d_ssd1322_common2, %function
 457              	u8x8_d_ssd1322_common2:
 458              	.LFB4:
 332:..\..\..\u8g2\u8g2\csrc/u8x8_d_ssd1322.c **** 
 333:..\..\..\u8g2\u8g2\csrc/u8x8_d_ssd1322.c **** /*=========================================================*/
 334:..\..\..\u8g2\u8g2\csrc/u8x8_d_ssd1322.c **** /* 
 335:..\..\..\u8g2\u8g2\csrc/u8x8_d_ssd1322.c ****   NHD-2.7-12864WDW3-M 
 336:..\..\..\u8g2\u8g2\csrc/u8x8_d_ssd1322.c ****   http://www.newhavendisplay.com/nhd2712864wdw3m-p-9546.html
 337:..\..\..\u8g2\u8g2\csrc/u8x8_d_ssd1322.c ****   http://www.newhavendisplay.com/specs/NHD-2.7-12864WDW3-M.pdf
 338:..\..\..\u8g2\u8g2\csrc/u8x8_d_ssd1322.c **** 
 339:..\..\..\u8g2\u8g2\csrc/u8x8_d_ssd1322.c ****   It looks like that only every second pixel is connected to the OLED
 340:..\..\..\u8g2\u8g2\csrc/u8x8_d_ssd1322.c **** */
 341:..\..\..\u8g2\u8g2\csrc/u8x8_d_ssd1322.c **** 
 342:..\..\..\u8g2\u8g2\csrc/u8x8_d_ssd1322.c **** uint8_t u8x8_d_ssd1322_common2(u8x8_t *u8x8, uint8_t msg, uint8_t arg_int, void *arg_ptr)
 343:..\..\..\u8g2\u8g2\csrc/u8x8_d_ssd1322.c **** {
 459              		.loc 1 343 0
 460              		.cfi_startproc
 461              		@ args = 0, pretend = 0, frame = 0
 462              		@ frame_needed = 0, uses_anonymous_args = 0
 463              	.LVL74:
ARM GAS  C:\Users\jesse\AppData\Local\Temp\ccmtUGUe.s 			page 16


 344:..\..\..\u8g2\u8g2\csrc/u8x8_d_ssd1322.c ****   uint8_t x; 
 345:..\..\..\u8g2\u8g2\csrc/u8x8_d_ssd1322.c ****   uint8_t y, c;
 346:..\..\..\u8g2\u8g2\csrc/u8x8_d_ssd1322.c ****   uint8_t *ptr;
 347:..\..\..\u8g2\u8g2\csrc/u8x8_d_ssd1322.c ****   switch(msg)
 464              		.loc 1 347 0
 465 0000 0E29     		cmp	r1, #14
 343:..\..\..\u8g2\u8g2\csrc/u8x8_d_ssd1322.c ****   uint8_t x; 
 466              		.loc 1 343 0
 467 0002 2DE9F84F 		push	{r3, r4, r5, r6, r7, r8, r9, r10, fp, lr}
 468              		.cfi_def_cfa_offset 40
 469              		.cfi_offset 3, -40
 470              		.cfi_offset 4, -36
 471              		.cfi_offset 5, -32
 472              		.cfi_offset 6, -28
 473              		.cfi_offset 7, -24
 474              		.cfi_offset 8, -20
 475              		.cfi_offset 9, -16
 476              		.cfi_offset 10, -12
 477              		.cfi_offset 11, -8
 478              		.cfi_offset 14, -4
 343:..\..\..\u8g2\u8g2\csrc/u8x8_d_ssd1322.c ****   uint8_t x; 
 479              		.loc 1 343 0
 480 0006 0446     		mov	r4, r0
 481 0008 1646     		mov	r6, r2
 482 000a 1F46     		mov	r7, r3
 483              		.loc 1 347 0
 484 000c 0AD0     		beq	.L49
 485 000e 0F29     		cmp	r1, #15
 486 0010 18D0     		beq	.L50
 487 0012 0B29     		cmp	r1, #11
 488 0014 7CD1     		bne	.L58
 348:..\..\..\u8g2\u8g2\csrc/u8x8_d_ssd1322.c ****   {
 349:..\..\..\u8g2\u8g2\csrc/u8x8_d_ssd1322.c ****     /* U8X8_MSG_DISPLAY_SETUP_MEMORY is handled by the calling function */
 350:..\..\..\u8g2\u8g2\csrc/u8x8_d_ssd1322.c ****     /*
 351:..\..\..\u8g2\u8g2\csrc/u8x8_d_ssd1322.c ****     case U8X8_MSG_DISPLAY_SETUP_MEMORY:
 352:..\..\..\u8g2\u8g2\csrc/u8x8_d_ssd1322.c ****       break;
 353:..\..\..\u8g2\u8g2\csrc/u8x8_d_ssd1322.c ****     case U8X8_MSG_DISPLAY_INIT:
 354:..\..\..\u8g2\u8g2\csrc/u8x8_d_ssd1322.c ****       u8x8_d_helper_display_init(u8x8);
 355:..\..\..\u8g2\u8g2\csrc/u8x8_d_ssd1322.c ****       u8x8_cad_SendSequence(u8x8, u8x8_d_ssd1322_256x64_init_seq);
 356:..\..\..\u8g2\u8g2\csrc/u8x8_d_ssd1322.c ****       break;
 357:..\..\..\u8g2\u8g2\csrc/u8x8_d_ssd1322.c ****     */
 358:..\..\..\u8g2\u8g2\csrc/u8x8_d_ssd1322.c ****     case U8X8_MSG_DISPLAY_SET_POWER_SAVE:
 359:..\..\..\u8g2\u8g2\csrc/u8x8_d_ssd1322.c ****       if ( arg_int == 0 )
 489              		.loc 1 359 0
 490 0016 0AB9     		cbnz	r2, .L52
 360:..\..\..\u8g2\u8g2\csrc/u8x8_d_ssd1322.c **** 	u8x8_cad_SendSequence(u8x8, u8x8_d_ssd1322_powersave0_seq);
 491              		.loc 1 360 0
 492 0018 3F49     		ldr	r1, .L62
 493              	.LVL75:
 494 001a 00E0     		b	.L61
 495              	.LVL76:
 496              	.L52:
 361:..\..\..\u8g2\u8g2\csrc/u8x8_d_ssd1322.c ****       else
 362:..\..\..\u8g2\u8g2\csrc/u8x8_d_ssd1322.c **** 	u8x8_cad_SendSequence(u8x8, u8x8_d_ssd1322_powersave1_seq);
 497              		.loc 1 362 0
 498 001c 3F49     		ldr	r1, .L62+4
 499              	.LVL77:
ARM GAS  C:\Users\jesse\AppData\Local\Temp\ccmtUGUe.s 			page 17


 500              	.L61:
 501 001e FFF7FEFF 		bl	u8x8_cad_SendSequence
 502              	.LVL78:
 503 0022 0CE0     		b	.L59
 504              	.LVL79:
 505              	.L49:
 363:..\..\..\u8g2\u8g2\csrc/u8x8_d_ssd1322.c ****       break;
 364:..\..\..\u8g2\u8g2\csrc/u8x8_d_ssd1322.c **** #ifdef U8X8_WITH_SET_CONTRAST
 365:..\..\..\u8g2\u8g2\csrc/u8x8_d_ssd1322.c ****     case U8X8_MSG_DISPLAY_SET_CONTRAST:
 366:..\..\..\u8g2\u8g2\csrc/u8x8_d_ssd1322.c ****       u8x8_cad_StartTransfer(u8x8);
 506              		.loc 1 366 0
 507 0024 FFF7FEFF 		bl	u8x8_cad_StartTransfer
 508              	.LVL80:
 367:..\..\..\u8g2\u8g2\csrc/u8x8_d_ssd1322.c ****       u8x8_cad_SendCmd(u8x8, 0x0C1 );
 509              		.loc 1 367 0
 510 0028 C121     		movs	r1, #193
 511 002a 2046     		mov	r0, r4
 512 002c FFF7FEFF 		bl	u8x8_cad_SendCmd
 513              	.LVL81:
 368:..\..\..\u8g2\u8g2\csrc/u8x8_d_ssd1322.c ****       u8x8_cad_SendArg(u8x8, arg_int );	/* ssd1322 has range from 0 to 255 */
 514              		.loc 1 368 0
 515 0030 3146     		mov	r1, r6
 516 0032 2046     		mov	r0, r4
 517 0034 FFF7FEFF 		bl	u8x8_cad_SendArg
 518              	.LVL82:
 519              	.L60:
 369:..\..\..\u8g2\u8g2\csrc/u8x8_d_ssd1322.c ****       u8x8_cad_EndTransfer(u8x8);
 520              		.loc 1 369 0
 521 0038 2046     		mov	r0, r4
 522 003a FFF7FEFF 		bl	u8x8_cad_EndTransfer
 523              	.LVL83:
 524              	.L59:
 370:..\..\..\u8g2\u8g2\csrc/u8x8_d_ssd1322.c ****       break;
 371:..\..\..\u8g2\u8g2\csrc/u8x8_d_ssd1322.c **** #endif
 372:..\..\..\u8g2\u8g2\csrc/u8x8_d_ssd1322.c ****     case U8X8_MSG_DISPLAY_DRAW_TILE:
 373:..\..\..\u8g2\u8g2\csrc/u8x8_d_ssd1322.c ****       u8x8_cad_StartTransfer(u8x8);
 374:..\..\..\u8g2\u8g2\csrc/u8x8_d_ssd1322.c ****       x = ((u8x8_tile_t *)arg_ptr)->x_pos;    
 375:..\..\..\u8g2\u8g2\csrc/u8x8_d_ssd1322.c ****       x *= 2;		// only every 4th col can be addressed
 376:..\..\..\u8g2\u8g2\csrc/u8x8_d_ssd1322.c ****       x *= 2;		// only every second pixel is used in the 128x64 NHD OLED 
 377:..\..\..\u8g2\u8g2\csrc/u8x8_d_ssd1322.c ****     
 378:..\..\..\u8g2\u8g2\csrc/u8x8_d_ssd1322.c ****       x += u8x8->x_offset;
 379:..\..\..\u8g2\u8g2\csrc/u8x8_d_ssd1322.c ****     
 380:..\..\..\u8g2\u8g2\csrc/u8x8_d_ssd1322.c ****       y = (((u8x8_tile_t *)arg_ptr)->y_pos);
 381:..\..\..\u8g2\u8g2\csrc/u8x8_d_ssd1322.c ****       y *= 8;
 382:..\..\..\u8g2\u8g2\csrc/u8x8_d_ssd1322.c ****           
 383:..\..\..\u8g2\u8g2\csrc/u8x8_d_ssd1322.c ****       u8x8_cad_SendCmd(u8x8, 0x075 );	/* set row address, moved out of the loop (issue 302) */
 384:..\..\..\u8g2\u8g2\csrc/u8x8_d_ssd1322.c ****       u8x8_cad_SendArg(u8x8, y);
 385:..\..\..\u8g2\u8g2\csrc/u8x8_d_ssd1322.c ****       u8x8_cad_SendArg(u8x8, y+7);
 386:..\..\..\u8g2\u8g2\csrc/u8x8_d_ssd1322.c ****       
 387:..\..\..\u8g2\u8g2\csrc/u8x8_d_ssd1322.c ****       do
 388:..\..\..\u8g2\u8g2\csrc/u8x8_d_ssd1322.c ****       {
 389:..\..\..\u8g2\u8g2\csrc/u8x8_d_ssd1322.c **** 	c = ((u8x8_tile_t *)arg_ptr)->cnt;
 390:..\..\..\u8g2\u8g2\csrc/u8x8_d_ssd1322.c **** 	ptr = ((u8x8_tile_t *)arg_ptr)->tile_ptr;
 391:..\..\..\u8g2\u8g2\csrc/u8x8_d_ssd1322.c **** 
 392:..\..\..\u8g2\u8g2\csrc/u8x8_d_ssd1322.c **** 	do
 393:..\..\..\u8g2\u8g2\csrc/u8x8_d_ssd1322.c **** 	{
 394:..\..\..\u8g2\u8g2\csrc/u8x8_d_ssd1322.c **** 	  u8x8_cad_SendCmd(u8x8, 0x015 );	/* set column address */
ARM GAS  C:\Users\jesse\AppData\Local\Temp\ccmtUGUe.s 			page 18


 395:..\..\..\u8g2\u8g2\csrc/u8x8_d_ssd1322.c **** 	  u8x8_cad_SendArg(u8x8, x );	/* start */
 396:..\..\..\u8g2\u8g2\csrc/u8x8_d_ssd1322.c **** 	  u8x8_cad_SendArg(u8x8, x+1 );	/* end */
 397:..\..\..\u8g2\u8g2\csrc/u8x8_d_ssd1322.c **** 	  u8x8_cad_SendCmd(u8x8, 0x05c );	/* write to ram */	  
 398:..\..\..\u8g2\u8g2\csrc/u8x8_d_ssd1322.c **** 	  u8x8_cad_SendData(u8x8, 32, u8x8_ssd1322_4to32(u8x8, ptr));	  
 399:..\..\..\u8g2\u8g2\csrc/u8x8_d_ssd1322.c **** 	  ptr += 4;
 400:..\..\..\u8g2\u8g2\csrc/u8x8_d_ssd1322.c **** 	  x += 2;
 401:..\..\..\u8g2\u8g2\csrc/u8x8_d_ssd1322.c **** 	  
 402:..\..\..\u8g2\u8g2\csrc/u8x8_d_ssd1322.c **** 	  u8x8_cad_SendCmd(u8x8, 0x015 );	/* set column address */
 403:..\..\..\u8g2\u8g2\csrc/u8x8_d_ssd1322.c **** 	  u8x8_cad_SendArg(u8x8, x );	/* start */
 404:..\..\..\u8g2\u8g2\csrc/u8x8_d_ssd1322.c **** 	  u8x8_cad_SendArg(u8x8, x+1 );	/* end */
 405:..\..\..\u8g2\u8g2\csrc/u8x8_d_ssd1322.c **** 	  u8x8_cad_SendCmd(u8x8, 0x05c );	/* write to ram */	  
 406:..\..\..\u8g2\u8g2\csrc/u8x8_d_ssd1322.c **** 	  u8x8_cad_SendData(u8x8, 32, u8x8_ssd1322_4to32(u8x8, ptr));	  
 407:..\..\..\u8g2\u8g2\csrc/u8x8_d_ssd1322.c **** 	  ptr += 4;
 408:..\..\..\u8g2\u8g2\csrc/u8x8_d_ssd1322.c **** 	  x += 2;
 409:..\..\..\u8g2\u8g2\csrc/u8x8_d_ssd1322.c **** 	  
 410:..\..\..\u8g2\u8g2\csrc/u8x8_d_ssd1322.c **** 	  c--;
 411:..\..\..\u8g2\u8g2\csrc/u8x8_d_ssd1322.c **** 	} while( c > 0 );
 412:..\..\..\u8g2\u8g2\csrc/u8x8_d_ssd1322.c **** 	
 413:..\..\..\u8g2\u8g2\csrc/u8x8_d_ssd1322.c **** 	//x += 2;
 414:..\..\..\u8g2\u8g2\csrc/u8x8_d_ssd1322.c **** 	arg_int--;
 415:..\..\..\u8g2\u8g2\csrc/u8x8_d_ssd1322.c ****       } while( arg_int > 0 );
 416:..\..\..\u8g2\u8g2\csrc/u8x8_d_ssd1322.c ****       
 417:..\..\..\u8g2\u8g2\csrc/u8x8_d_ssd1322.c ****       u8x8_cad_EndTransfer(u8x8);
 418:..\..\..\u8g2\u8g2\csrc/u8x8_d_ssd1322.c ****       break;
 419:..\..\..\u8g2\u8g2\csrc/u8x8_d_ssd1322.c ****     default:
 420:..\..\..\u8g2\u8g2\csrc/u8x8_d_ssd1322.c ****       return 0;
 421:..\..\..\u8g2\u8g2\csrc/u8x8_d_ssd1322.c ****   }
 422:..\..\..\u8g2\u8g2\csrc/u8x8_d_ssd1322.c ****   return 1;
 525              		.loc 1 422 0
 526 003e 0120     		movs	r0, #1
 370:..\..\..\u8g2\u8g2\csrc/u8x8_d_ssd1322.c ****       break;
 527              		.loc 1 370 0
 528 0040 BDE8F88F 		pop	{r3, r4, r5, r6, r7, r8, r9, r10, fp, pc}
 529              	.LVL84:
 530              	.L50:
 531              	.LBB12:
 532              	.LBB13:
 373:..\..\..\u8g2\u8g2\csrc/u8x8_d_ssd1322.c ****       x = ((u8x8_tile_t *)arg_ptr)->x_pos;    
 533              		.loc 1 373 0
 534 0044 FFF7FEFF 		bl	u8x8_cad_StartTransfer
 535              	.LVL85:
 380:..\..\..\u8g2\u8g2\csrc/u8x8_d_ssd1322.c ****       y *= 8;
 536              		.loc 1 380 0
 537 0048 BD79     		ldrb	r5, [r7, #6]	@ zero_extendqisi2
 378:..\..\..\u8g2\u8g2\csrc/u8x8_d_ssd1322.c ****     
 538              		.loc 1 378 0
 539 004a 94F82230 		ldrb	r3, [r4, #34]	@ zero_extendqisi2
 374:..\..\..\u8g2\u8g2\csrc/u8x8_d_ssd1322.c ****       x *= 2;		// only every 4th col can be addressed
 540              		.loc 1 374 0
 541 004e 97F80580 		ldrb	r8, [r7, #5]	@ zero_extendqisi2
 542              	.LVL86:
 381:..\..\..\u8g2\u8g2\csrc/u8x8_d_ssd1322.c ****           
 543              		.loc 1 381 0
 544 0052 ED00     		lsls	r5, r5, #3
 545 0054 EDB2     		uxtb	r5, r5
 383:..\..\..\u8g2\u8g2\csrc/u8x8_d_ssd1322.c ****       u8x8_cad_SendArg(u8x8, y);
 546              		.loc 1 383 0
ARM GAS  C:\Users\jesse\AppData\Local\Temp\ccmtUGUe.s 			page 19


 547 0056 7521     		movs	r1, #117
 548 0058 2046     		mov	r0, r4
 378:..\..\..\u8g2\u8g2\csrc/u8x8_d_ssd1322.c ****     
 549              		.loc 1 378 0
 550 005a 03EB8808 		add	r8, r3, r8, lsl #2
 551              	.LVL87:
 383:..\..\..\u8g2\u8g2\csrc/u8x8_d_ssd1322.c ****       u8x8_cad_SendArg(u8x8, y);
 552              		.loc 1 383 0
 553 005e FFF7FEFF 		bl	u8x8_cad_SendCmd
 554              	.LVL88:
 384:..\..\..\u8g2\u8g2\csrc/u8x8_d_ssd1322.c ****       u8x8_cad_SendArg(u8x8, y+7);
 555              		.loc 1 384 0
 556 0062 2946     		mov	r1, r5
 557 0064 2046     		mov	r0, r4
 558 0066 FFF7FEFF 		bl	u8x8_cad_SendArg
 559              	.LVL89:
 385:..\..\..\u8g2\u8g2\csrc/u8x8_d_ssd1322.c ****       
 560              		.loc 1 385 0
 561 006a E91D     		adds	r1, r5, #7
 562 006c C9B2     		uxtb	r1, r1
 563 006e 2046     		mov	r0, r4
 378:..\..\..\u8g2\u8g2\csrc/u8x8_d_ssd1322.c ****     
 564              		.loc 1 378 0
 565 0070 08F0FF08 		and	r8, r8, #255
 566              	.LVL90:
 385:..\..\..\u8g2\u8g2\csrc/u8x8_d_ssd1322.c ****       
 567              		.loc 1 385 0
 568 0074 FFF7FEFF 		bl	u8x8_cad_SendArg
 569              	.LVL91:
 570              	.L54:
 389:..\..\..\u8g2\u8g2\csrc/u8x8_d_ssd1322.c **** 	ptr = ((u8x8_tile_t *)arg_ptr)->tile_ptr;
 571              		.loc 1 389 0
 572 0078 97F804B0 		ldrb	fp, [r7, #4]	@ zero_extendqisi2
 573              	.LVL92:
 390:..\..\..\u8g2\u8g2\csrc/u8x8_d_ssd1322.c **** 
 574              		.loc 1 390 0
 575 007c 4546     		mov	r5, r8
 389:..\..\..\u8g2\u8g2\csrc/u8x8_d_ssd1322.c **** 	ptr = ((u8x8_tile_t *)arg_ptr)->tile_ptr;
 576              		.loc 1 389 0
 577 007e D946     		mov	r9, fp
 390:..\..\..\u8g2\u8g2\csrc/u8x8_d_ssd1322.c **** 
 578              		.loc 1 390 0
 579 0080 D7F800A0 		ldr	r10, [r7]
 580              	.LVL93:
 581              	.L53:
 394:..\..\..\u8g2\u8g2\csrc/u8x8_d_ssd1322.c **** 	  u8x8_cad_SendArg(u8x8, x );	/* start */
 582              		.loc 1 394 0
 583 0084 1521     		movs	r1, #21
 584 0086 2046     		mov	r0, r4
 585 0088 FFF7FEFF 		bl	u8x8_cad_SendCmd
 586              	.LVL94:
 395:..\..\..\u8g2\u8g2\csrc/u8x8_d_ssd1322.c **** 	  u8x8_cad_SendArg(u8x8, x+1 );	/* end */
 587              		.loc 1 395 0
 588 008c 2946     		mov	r1, r5
 589 008e 2046     		mov	r0, r4
 590 0090 FFF7FEFF 		bl	u8x8_cad_SendArg
 591              	.LVL95:
ARM GAS  C:\Users\jesse\AppData\Local\Temp\ccmtUGUe.s 			page 20


 396:..\..\..\u8g2\u8g2\csrc/u8x8_d_ssd1322.c **** 	  u8x8_cad_SendCmd(u8x8, 0x05c );	/* write to ram */	  
 592              		.loc 1 396 0
 593 0094 691C     		adds	r1, r5, #1
 594 0096 C9B2     		uxtb	r1, r1
 595 0098 2046     		mov	r0, r4
 596 009a FFF7FEFF 		bl	u8x8_cad_SendArg
 597              	.LVL96:
 397:..\..\..\u8g2\u8g2\csrc/u8x8_d_ssd1322.c **** 	  u8x8_cad_SendData(u8x8, 32, u8x8_ssd1322_4to32(u8x8, ptr));	  
 598              		.loc 1 397 0
 599 009e 5C21     		movs	r1, #92
 600 00a0 2046     		mov	r0, r4
 601 00a2 FFF7FEFF 		bl	u8x8_cad_SendCmd
 602              	.LVL97:
 398:..\..\..\u8g2\u8g2\csrc/u8x8_d_ssd1322.c **** 	  ptr += 4;
 603              		.loc 1 398 0
 604 00a6 5046     		mov	r0, r10
 605 00a8 FFF7FEFF 		bl	u8x8_ssd1322_4to32.isra.1
 606              	.LVL98:
 607 00ac 2021     		movs	r1, #32
 608 00ae 0246     		mov	r2, r0
 609 00b0 2046     		mov	r0, r4
 610 00b2 FFF7FEFF 		bl	u8x8_cad_SendData
 611              	.LVL99:
 402:..\..\..\u8g2\u8g2\csrc/u8x8_d_ssd1322.c **** 	  u8x8_cad_SendArg(u8x8, x );	/* start */
 612              		.loc 1 402 0
 613 00b6 1521     		movs	r1, #21
 614 00b8 2046     		mov	r0, r4
 615 00ba FFF7FEFF 		bl	u8x8_cad_SendCmd
 616              	.LVL100:
 403:..\..\..\u8g2\u8g2\csrc/u8x8_d_ssd1322.c **** 	  u8x8_cad_SendArg(u8x8, x+1 );	/* end */
 617              		.loc 1 403 0
 618 00be A91C     		adds	r1, r5, #2
 619 00c0 C9B2     		uxtb	r1, r1
 620 00c2 2046     		mov	r0, r4
 621 00c4 FFF7FEFF 		bl	u8x8_cad_SendArg
 622              	.LVL101:
 404:..\..\..\u8g2\u8g2\csrc/u8x8_d_ssd1322.c **** 	  u8x8_cad_SendCmd(u8x8, 0x05c );	/* write to ram */	  
 623              		.loc 1 404 0
 624 00c8 E91C     		adds	r1, r5, #3
 625 00ca C9B2     		uxtb	r1, r1
 626 00cc 2046     		mov	r0, r4
 627 00ce FFF7FEFF 		bl	u8x8_cad_SendArg
 628              	.LVL102:
 405:..\..\..\u8g2\u8g2\csrc/u8x8_d_ssd1322.c **** 	  u8x8_cad_SendData(u8x8, 32, u8x8_ssd1322_4to32(u8x8, ptr));	  
 629              		.loc 1 405 0
 630 00d2 5C21     		movs	r1, #92
 631 00d4 2046     		mov	r0, r4
 632 00d6 FFF7FEFF 		bl	u8x8_cad_SendCmd
 633              	.LVL103:
 406:..\..\..\u8g2\u8g2\csrc/u8x8_d_ssd1322.c **** 	  ptr += 4;
 634              		.loc 1 406 0
 635 00da 0AF10400 		add	r0, r10, #4
 636              	.LVL104:
 637 00de FFF7FEFF 		bl	u8x8_ssd1322_4to32.isra.1
 638              	.LVL105:
 410:..\..\..\u8g2\u8g2\csrc/u8x8_d_ssd1322.c **** 	} while( c > 0 );
 639              		.loc 1 410 0
ARM GAS  C:\Users\jesse\AppData\Local\Temp\ccmtUGUe.s 			page 21


 640 00e2 09F1FF39 		add	r9, r9, #-1
 641              	.LVL106:
 406:..\..\..\u8g2\u8g2\csrc/u8x8_d_ssd1322.c **** 	  ptr += 4;
 642              		.loc 1 406 0
 643 00e6 0246     		mov	r2, r0
 644 00e8 2021     		movs	r1, #32
 645 00ea 2046     		mov	r0, r4
 646 00ec FFF7FEFF 		bl	u8x8_cad_SendData
 647              	.LVL107:
 408:..\..\..\u8g2\u8g2\csrc/u8x8_d_ssd1322.c **** 	  
 648              		.loc 1 408 0
 649 00f0 0435     		adds	r5, r5, #4
 650              	.LVL108:
 411:..\..\..\u8g2\u8g2\csrc/u8x8_d_ssd1322.c **** 	
 651              		.loc 1 411 0
 652 00f2 19F0FF09 		ands	r9, r9, #255
 653 00f6 0AF1080A 		add	r10, r10, #8
 654              	.LVL109:
 408:..\..\..\u8g2\u8g2\csrc/u8x8_d_ssd1322.c **** 	  
 655              		.loc 1 408 0
 656 00fa EDB2     		uxtb	r5, r5
 657              	.LVL110:
 411:..\..\..\u8g2\u8g2\csrc/u8x8_d_ssd1322.c **** 	
 658              		.loc 1 411 0
 659 00fc C2D1     		bne	.L53
 414:..\..\..\u8g2\u8g2\csrc/u8x8_d_ssd1322.c ****       } while( arg_int > 0 );
 660              		.loc 1 414 0
 661 00fe 013E     		subs	r6, r6, #1
 662              	.LVL111:
 663 0100 08EB8B08 		add	r8, r8, fp, lsl #2
 415:..\..\..\u8g2\u8g2\csrc/u8x8_d_ssd1322.c ****       
 664              		.loc 1 415 0
 665 0104 16F0FF06 		ands	r6, r6, #255
 666              	.LVL112:
 667 0108 5FFA88F8 		uxtb	r8, r8
 668 010c B4D1     		bne	.L54
 669 010e 93E7     		b	.L60
 670              	.LVL113:
 671              	.L58:
 672              	.LBE13:
 673              	.LBE12:
 420:..\..\..\u8g2\u8g2\csrc/u8x8_d_ssd1322.c ****   }
 674              		.loc 1 420 0
 675 0110 0020     		movs	r0, #0
 676              	.LVL114:
 423:..\..\..\u8g2\u8g2\csrc/u8x8_d_ssd1322.c **** }
 677              		.loc 1 423 0
 678 0112 BDE8F88F 		pop	{r3, r4, r5, r6, r7, r8, r9, r10, fp, pc}
 679              	.LVL115:
 680              	.L63:
 681 0116 00BF     		.align	2
 682              	.L62:
 683 0118 00000000 		.word	.LANCHOR1
 684 011c 05000000 		.word	.LANCHOR1+5
 685              		.cfi_endproc
 686              	.LFE4:
 687              		.size	u8x8_d_ssd1322_common2, .-u8x8_d_ssd1322_common2
ARM GAS  C:\Users\jesse\AppData\Local\Temp\ccmtUGUe.s 			page 22


 688              		.section	.text.u8x8_d_ssd1322_nhd_128x64,"ax",%progbits
 689              		.align	1
 690              		.global	u8x8_d_ssd1322_nhd_128x64
 691              		.thumb
 692              		.thumb_func
 693              		.type	u8x8_d_ssd1322_nhd_128x64, %function
 694              	u8x8_d_ssd1322_nhd_128x64:
 695              	.LFB5:
 424:..\..\..\u8g2\u8g2\csrc/u8x8_d_ssd1322.c **** 
 425:..\..\..\u8g2\u8g2\csrc/u8x8_d_ssd1322.c **** 
 426:..\..\..\u8g2\u8g2\csrc/u8x8_d_ssd1322.c **** static const uint8_t u8x8_d_ssd1322_128x64_flip0_seq[] = {
 427:..\..\..\u8g2\u8g2\csrc/u8x8_d_ssd1322.c ****   U8X8_START_TRANSFER(),             	/* enable chip, delay is part of the transfer start */
 428:..\..\..\u8g2\u8g2\csrc/u8x8_d_ssd1322.c ****   U8X8_CAA(0x0a0, 0x016, 0x011),		/* remap */
 429:..\..\..\u8g2\u8g2\csrc/u8x8_d_ssd1322.c ****   U8X8_END_TRANSFER(),             	/* disable chip */
 430:..\..\..\u8g2\u8g2\csrc/u8x8_d_ssd1322.c ****   U8X8_END()             			/* end of sequence */
 431:..\..\..\u8g2\u8g2\csrc/u8x8_d_ssd1322.c **** };
 432:..\..\..\u8g2\u8g2\csrc/u8x8_d_ssd1322.c **** 
 433:..\..\..\u8g2\u8g2\csrc/u8x8_d_ssd1322.c **** static const uint8_t u8x8_d_ssd1322_128x64_flip1_seq[] = {
 434:..\..\..\u8g2\u8g2\csrc/u8x8_d_ssd1322.c ****   U8X8_START_TRANSFER(),             	/* enable chip, delay is part of the transfer start */
 435:..\..\..\u8g2\u8g2\csrc/u8x8_d_ssd1322.c ****   U8X8_CAA(0x0a0, 0x004, 0x011),		/* remap */
 436:..\..\..\u8g2\u8g2\csrc/u8x8_d_ssd1322.c ****   U8X8_END_TRANSFER(),             	/* disable chip */
 437:..\..\..\u8g2\u8g2\csrc/u8x8_d_ssd1322.c ****   U8X8_END()             			/* end of sequence */
 438:..\..\..\u8g2\u8g2\csrc/u8x8_d_ssd1322.c **** };
 439:..\..\..\u8g2\u8g2\csrc/u8x8_d_ssd1322.c **** 
 440:..\..\..\u8g2\u8g2\csrc/u8x8_d_ssd1322.c **** static const u8x8_display_info_t u8x8_ssd1322_128x64_display_info =
 441:..\..\..\u8g2\u8g2\csrc/u8x8_d_ssd1322.c **** {
 442:..\..\..\u8g2\u8g2\csrc/u8x8_d_ssd1322.c ****   /* chip_enable_level = */ 0,
 443:..\..\..\u8g2\u8g2\csrc/u8x8_d_ssd1322.c ****   /* chip_disable_level = */ 1,
 444:..\..\..\u8g2\u8g2\csrc/u8x8_d_ssd1322.c ****   
 445:..\..\..\u8g2\u8g2\csrc/u8x8_d_ssd1322.c ****   /* post_chip_enable_wait_ns = */ 20,
 446:..\..\..\u8g2\u8g2\csrc/u8x8_d_ssd1322.c ****   /* pre_chip_disable_wait_ns = */ 10,
 447:..\..\..\u8g2\u8g2\csrc/u8x8_d_ssd1322.c ****   /* reset_pulse_width_ms = */ 100, 	/* SSD1322: 2 us */
 448:..\..\..\u8g2\u8g2\csrc/u8x8_d_ssd1322.c ****   /* post_reset_wait_ms = */ 100, /* far east OLEDs need much longer setup time */
 449:..\..\..\u8g2\u8g2\csrc/u8x8_d_ssd1322.c ****   /* sda_setup_time_ns = */ 50,		/* SSD1322: 15ns, but cycle time is 100ns, so use 100/2 */
 450:..\..\..\u8g2\u8g2\csrc/u8x8_d_ssd1322.c ****   /* sck_pulse_width_ns = */ 50,	/* SSD1322: 20ns, but cycle time is 100ns, so use 100/2, AVR: belo
 451:..\..\..\u8g2\u8g2\csrc/u8x8_d_ssd1322.c ****   /* sck_clock_hz = */ 10000000UL,	/* since Arduino 1.6.0, the SPI bus speed in Hz. Should be  1000
 452:..\..\..\u8g2\u8g2\csrc/u8x8_d_ssd1322.c ****   /* spi_mode = */ 0,		/* active high, rising edge */
 453:..\..\..\u8g2\u8g2\csrc/u8x8_d_ssd1322.c ****   /* i2c_bus_clock_100kHz = */ 4,
 454:..\..\..\u8g2\u8g2\csrc/u8x8_d_ssd1322.c ****   /* data_setup_time_ns = */ 10,
 455:..\..\..\u8g2\u8g2\csrc/u8x8_d_ssd1322.c ****   /* write_pulse_width_ns = */ 150,	/* SSD1322: cycle time is 300ns, so use 300/2 = 150 */
 456:..\..\..\u8g2\u8g2\csrc/u8x8_d_ssd1322.c ****   /* tile_width = */ 16,		/* 128 pixel */
 457:..\..\..\u8g2\u8g2\csrc/u8x8_d_ssd1322.c ****   /* tile_hight = */ 8,
 458:..\..\..\u8g2\u8g2\csrc/u8x8_d_ssd1322.c ****   /* default_x_offset = */ 28,	/* this is the byte offset (there are two pixel per byte with 4 bit 
 459:..\..\..\u8g2\u8g2\csrc/u8x8_d_ssd1322.c ****   /* flipmode_x_offset = */ 28,
 460:..\..\..\u8g2\u8g2\csrc/u8x8_d_ssd1322.c ****   /* pixel_width = */ 128,
 461:..\..\..\u8g2\u8g2\csrc/u8x8_d_ssd1322.c ****   /* pixel_height = */ 64
 462:..\..\..\u8g2\u8g2\csrc/u8x8_d_ssd1322.c **** };
 463:..\..\..\u8g2\u8g2\csrc/u8x8_d_ssd1322.c **** 
 464:..\..\..\u8g2\u8g2\csrc/u8x8_d_ssd1322.c **** 
 465:..\..\..\u8g2\u8g2\csrc/u8x8_d_ssd1322.c **** static const uint8_t u8x8_d_ssd1322_128x64_init_seq[] = {
 466:..\..\..\u8g2\u8g2\csrc/u8x8_d_ssd1322.c ****     
 467:..\..\..\u8g2\u8g2\csrc/u8x8_d_ssd1322.c ****   U8X8_DLY(1),
 468:..\..\..\u8g2\u8g2\csrc/u8x8_d_ssd1322.c ****   U8X8_START_TRANSFER(),             	/* enable chip, delay is part of the transfer start */
 469:..\..\..\u8g2\u8g2\csrc/u8x8_d_ssd1322.c ****   U8X8_DLY(1),
 470:..\..\..\u8g2\u8g2\csrc/u8x8_d_ssd1322.c ****   
 471:..\..\..\u8g2\u8g2\csrc/u8x8_d_ssd1322.c ****   U8X8_CA(0xfd, 0x12),            	/* unlock */
 472:..\..\..\u8g2\u8g2\csrc/u8x8_d_ssd1322.c ****   U8X8_C(0xae),		                /* display off */
ARM GAS  C:\Users\jesse\AppData\Local\Temp\ccmtUGUe.s 			page 23


 473:..\..\..\u8g2\u8g2\csrc/u8x8_d_ssd1322.c ****   U8X8_CA(0xb3, 0x91),			/* set display clock divide ratio/oscillator frequency (set clock as 80 fr
 474:..\..\..\u8g2\u8g2\csrc/u8x8_d_ssd1322.c ****   U8X8_CA(0xca, 0x3f),			/* multiplex ratio 1/64 Duty (0x0F~0x3F) */  
 475:..\..\..\u8g2\u8g2\csrc/u8x8_d_ssd1322.c ****   U8X8_CA(0xa2, 0x00),			/* display offset, shift mapping ram counter */  
 476:..\..\..\u8g2\u8g2\csrc/u8x8_d_ssd1322.c **** 
 477:..\..\..\u8g2\u8g2\csrc/u8x8_d_ssd1322.c ****   U8X8_CA(0xa1, 0x00),			/* display start line */  
 478:..\..\..\u8g2\u8g2\csrc/u8x8_d_ssd1322.c ****   U8X8_CA(0xab, 0x01),			/* Enable Internal VDD Regulator */  
 479:..\..\..\u8g2\u8g2\csrc/u8x8_d_ssd1322.c ****   //U8X8_CAA(0xa0, 0x14, 0x11),	/* Set Re-Map / Dual COM Line Mode */  
 480:..\..\..\u8g2\u8g2\csrc/u8x8_d_ssd1322.c ****   //U8X8_CAA(0xa0, 0x06, 0x011),	/* Set Re-Map / Dual COM Line Mode */  
 481:..\..\..\u8g2\u8g2\csrc/u8x8_d_ssd1322.c ****   U8X8_CAA(0xa0, 0x16, 0x011),	/* Set Re-Map / Dual COM Line Mode (NHD-2.7-12864WDW3-M datasheet) *
 482:..\..\..\u8g2\u8g2\csrc/u8x8_d_ssd1322.c ****   U8X8_CA(0xc7, 0x0f),			/* Set Scale Factor of Segment Output Current Control */  
 483:..\..\..\u8g2\u8g2\csrc/u8x8_d_ssd1322.c ****   U8X8_CA(0xc1, 0x9f),			/* contrast */  
 484:..\..\..\u8g2\u8g2\csrc/u8x8_d_ssd1322.c ****   //U8X8_CA(0xb1, 0xe2),			/* Phase 1 (Reset) & Phase 2 (Pre-Charge) Period Adjustment */  
 485:..\..\..\u8g2\u8g2\csrc/u8x8_d_ssd1322.c ****   U8X8_CA(0xb1, 0xf2),			/* Phase 1 (Reset) & Phase 2 (Pre-Charge) Period Adjustment (NHD-2.7-12864
 486:..\..\..\u8g2\u8g2\csrc/u8x8_d_ssd1322.c ****   U8X8_CA(0xbb, 0x1f),			/* precharge  voltage */    
 487:..\..\..\u8g2\u8g2\csrc/u8x8_d_ssd1322.c ****   //U8X8_CAA(0xb4, 0xa0, 0x005|0x0fd),	/* Display Enhancement A */  
 488:..\..\..\u8g2\u8g2\csrc/u8x8_d_ssd1322.c ****   U8X8_CAA(0xb4, 0xa0, 0x0fd),	/* Display Enhancement A (NHD-2.7-12864WDW3-M datasheet) */  
 489:..\..\..\u8g2\u8g2\csrc/u8x8_d_ssd1322.c ****   U8X8_CA(0xbe, 0x04),			/* vcomh (NHD-2.7-12864WDW3-M datasheet) */  
 490:..\..\..\u8g2\u8g2\csrc/u8x8_d_ssd1322.c ****   U8X8_C(0xb9),		                /* linear grayscale */
 491:..\..\..\u8g2\u8g2\csrc/u8x8_d_ssd1322.c ****   //U8X8_CAA(0xd1, 0x082|0x020, 0x020),	/* Display Enhancement B */  
 492:..\..\..\u8g2\u8g2\csrc/u8x8_d_ssd1322.c ****   //U8X8_CA(0xb6, 0x08),			/* precharge  period */  
 493:..\..\..\u8g2\u8g2\csrc/u8x8_d_ssd1322.c ****   U8X8_C(0xa6),		                /* normal display */
 494:..\..\..\u8g2\u8g2\csrc/u8x8_d_ssd1322.c ****   U8X8_C(0xa9),		                /* exit partial display */
 495:..\..\..\u8g2\u8g2\csrc/u8x8_d_ssd1322.c **** 
 496:..\..\..\u8g2\u8g2\csrc/u8x8_d_ssd1322.c **** 
 497:..\..\..\u8g2\u8g2\csrc/u8x8_d_ssd1322.c ****   U8X8_DLY(1),					/* delay 2ms */
 498:..\..\..\u8g2\u8g2\csrc/u8x8_d_ssd1322.c **** 
 499:..\..\..\u8g2\u8g2\csrc/u8x8_d_ssd1322.c ****   
 500:..\..\..\u8g2\u8g2\csrc/u8x8_d_ssd1322.c ****   U8X8_END_TRANSFER(),             	/* disable chip */
 501:..\..\..\u8g2\u8g2\csrc/u8x8_d_ssd1322.c ****   U8X8_END()             			/* end of sequence */
 502:..\..\..\u8g2\u8g2\csrc/u8x8_d_ssd1322.c **** };
 503:..\..\..\u8g2\u8g2\csrc/u8x8_d_ssd1322.c **** 
 504:..\..\..\u8g2\u8g2\csrc/u8x8_d_ssd1322.c **** uint8_t u8x8_d_ssd1322_nhd_128x64(u8x8_t *u8x8, uint8_t msg, uint8_t arg_int, void *arg_ptr)
 505:..\..\..\u8g2\u8g2\csrc/u8x8_d_ssd1322.c **** {
 696              		.loc 1 505 0
 697              		.cfi_startproc
 698              		@ args = 0, pretend = 0, frame = 0
 699              		@ frame_needed = 0, uses_anonymous_args = 0
 700              	.LVL116:
 506:..\..\..\u8g2\u8g2\csrc/u8x8_d_ssd1322.c ****   switch(msg)
 701              		.loc 1 506 0
 702 0000 0A29     		cmp	r1, #10
 505:..\..\..\u8g2\u8g2\csrc/u8x8_d_ssd1322.c ****   switch(msg)
 703              		.loc 1 505 0
 704 0002 70B5     		push	{r4, r5, r6, lr}
 705              		.cfi_def_cfa_offset 16
 706              		.cfi_offset 4, -16
 707              		.cfi_offset 5, -12
 708              		.cfi_offset 6, -8
 709              		.cfi_offset 14, -4
 505:..\..\..\u8g2\u8g2\csrc/u8x8_d_ssd1322.c ****   switch(msg)
 710              		.loc 1 505 0
 711 0004 0446     		mov	r4, r0
 712              		.loc 1 506 0
 713 0006 07D0     		beq	.L66
 714 0008 0D29     		cmp	r1, #13
 715 000a 0CD0     		beq	.L67
 716 000c 0929     		cmp	r1, #9
ARM GAS  C:\Users\jesse\AppData\Local\Temp\ccmtUGUe.s 			page 24


 717 000e 19D1     		bne	.L71
 507:..\..\..\u8g2\u8g2\csrc/u8x8_d_ssd1322.c ****   {
 508:..\..\..\u8g2\u8g2\csrc/u8x8_d_ssd1322.c ****     case U8X8_MSG_DISPLAY_SETUP_MEMORY:
 509:..\..\..\u8g2\u8g2\csrc/u8x8_d_ssd1322.c ****       u8x8_d_helper_display_setup_memory(u8x8, &u8x8_ssd1322_128x64_display_info);
 718              		.loc 1 509 0
 719 0010 0F49     		ldr	r1, .L73
 720              	.LVL117:
 721 0012 FFF7FEFF 		bl	u8x8_d_helper_display_setup_memory
 722              	.LVL118:
 510:..\..\..\u8g2\u8g2\csrc/u8x8_d_ssd1322.c ****       break;
 723              		.loc 1 510 0
 724 0016 19E0     		b	.L69
 725              	.LVL119:
 726              	.L66:
 511:..\..\..\u8g2\u8g2\csrc/u8x8_d_ssd1322.c ****     case U8X8_MSG_DISPLAY_INIT:
 512:..\..\..\u8g2\u8g2\csrc/u8x8_d_ssd1322.c ****       u8x8_d_helper_display_init(u8x8);
 727              		.loc 1 512 0
 728 0018 FFF7FEFF 		bl	u8x8_d_helper_display_init
 729              	.LVL120:
 513:..\..\..\u8g2\u8g2\csrc/u8x8_d_ssd1322.c ****       u8x8_cad_SendSequence(u8x8, u8x8_d_ssd1322_128x64_init_seq);
 730              		.loc 1 513 0
 731 001c 0D49     		ldr	r1, .L73+4
 732 001e 2046     		mov	r0, r4
 733 0020 FFF7FEFF 		bl	u8x8_cad_SendSequence
 734              	.LVL121:
 514:..\..\..\u8g2\u8g2\csrc/u8x8_d_ssd1322.c ****       break;
 735              		.loc 1 514 0
 736 0024 12E0     		b	.L69
 737              	.LVL122:
 738              	.L67:
 515:..\..\..\u8g2\u8g2\csrc/u8x8_d_ssd1322.c ****     case U8X8_MSG_DISPLAY_SET_FLIP_MODE:
 516:..\..\..\u8g2\u8g2\csrc/u8x8_d_ssd1322.c ****       if ( arg_int == 0 )
 739              		.loc 1 516 0
 740 0026 2AB9     		cbnz	r2, .L70
 517:..\..\..\u8g2\u8g2\csrc/u8x8_d_ssd1322.c ****       {
 518:..\..\..\u8g2\u8g2\csrc/u8x8_d_ssd1322.c **** 	u8x8_cad_SendSequence(u8x8, u8x8_d_ssd1322_128x64_flip0_seq);
 741              		.loc 1 518 0
 742 0028 0B49     		ldr	r1, .L73+8
 743              	.LVL123:
 744 002a FFF7FEFF 		bl	u8x8_cad_SendSequence
 745              	.LVL124:
 519:..\..\..\u8g2\u8g2\csrc/u8x8_d_ssd1322.c **** 	u8x8->x_offset = u8x8->display_info->default_x_offset;
 746              		.loc 1 519 0
 747 002e 2368     		ldr	r3, [r4]
 748 0030 9B7C     		ldrb	r3, [r3, #18]	@ zero_extendqisi2
 749 0032 04E0     		b	.L72
 750              	.LVL125:
 751              	.L70:
 520:..\..\..\u8g2\u8g2\csrc/u8x8_d_ssd1322.c ****       }
 521:..\..\..\u8g2\u8g2\csrc/u8x8_d_ssd1322.c ****       else
 522:..\..\..\u8g2\u8g2\csrc/u8x8_d_ssd1322.c ****       {
 523:..\..\..\u8g2\u8g2\csrc/u8x8_d_ssd1322.c **** 	u8x8_cad_SendSequence(u8x8, u8x8_d_ssd1322_128x64_flip1_seq);
 752              		.loc 1 523 0
 753 0034 0949     		ldr	r1, .L73+12
 754              	.LVL126:
 755 0036 FFF7FEFF 		bl	u8x8_cad_SendSequence
 756              	.LVL127:
ARM GAS  C:\Users\jesse\AppData\Local\Temp\ccmtUGUe.s 			page 25


 524:..\..\..\u8g2\u8g2\csrc/u8x8_d_ssd1322.c **** 	u8x8->x_offset = u8x8->display_info->flipmode_x_offset;
 757              		.loc 1 524 0
 758 003a 2368     		ldr	r3, [r4]
 759 003c DB7C     		ldrb	r3, [r3, #19]	@ zero_extendqisi2
 760              	.L72:
 761 003e 84F82230 		strb	r3, [r4, #34]
 762 0042 03E0     		b	.L69
 763              	.LVL128:
 764              	.L71:
 525:..\..\..\u8g2\u8g2\csrc/u8x8_d_ssd1322.c ****       }
 526:..\..\..\u8g2\u8g2\csrc/u8x8_d_ssd1322.c ****       break;
 527:..\..\..\u8g2\u8g2\csrc/u8x8_d_ssd1322.c ****     
 528:..\..\..\u8g2\u8g2\csrc/u8x8_d_ssd1322.c ****     default:
 529:..\..\..\u8g2\u8g2\csrc/u8x8_d_ssd1322.c ****       return u8x8_d_ssd1322_common2(u8x8, msg, arg_int, arg_ptr);
 530:..\..\..\u8g2\u8g2\csrc/u8x8_d_ssd1322.c ****   }
 531:..\..\..\u8g2\u8g2\csrc/u8x8_d_ssd1322.c ****   return 1;
 532:..\..\..\u8g2\u8g2\csrc/u8x8_d_ssd1322.c **** }
 765              		.loc 1 532 0
 766 0044 BDE87040 		pop	{r4, r5, r6, lr}
 767              		.cfi_remember_state
 768              		.cfi_restore 14
 769              		.cfi_restore 6
 770              		.cfi_restore 5
 771              		.cfi_restore 4
 772              		.cfi_def_cfa_offset 0
 529:..\..\..\u8g2\u8g2\csrc/u8x8_d_ssd1322.c ****   }
 773              		.loc 1 529 0
 774 0048 FFF7FEBF 		b	u8x8_d_ssd1322_common2
 775              	.LVL129:
 776              	.L69:
 777              		.cfi_restore_state
 778              		.loc 1 532 0
 779 004c 0120     		movs	r0, #1
 780 004e 70BD     		pop	{r4, r5, r6, pc}
 781              	.LVL130:
 782              	.L74:
 783              		.align	2
 784              	.L73:
 785 0050 8C000000 		.word	.LANCHOR1+140
 786 0054 A4000000 		.word	.LANCHOR1+164
 787 0058 ED000000 		.word	.LANCHOR1+237
 788 005c F6000000 		.word	.LANCHOR1+246
 789              		.cfi_endproc
 790              	.LFE5:
 791              		.size	u8x8_d_ssd1322_nhd_128x64, .-u8x8_d_ssd1322_nhd_128x64
 792              		.section	.rodata
 793              		.align	2
 794              		.set	.LANCHOR1,. + 0
 795              		.type	u8x8_d_ssd1322_powersave0_seq, %object
 796              		.size	u8x8_d_ssd1322_powersave0_seq, 5
 797              	u8x8_d_ssd1322_powersave0_seq:
 798 0000 18       		.byte	24
 799 0001 15       		.byte	21
 800 0002 AF       		.byte	-81
 801 0003 19       		.byte	25
 802 0004 FF       		.byte	-1
 803              		.type	u8x8_d_ssd1322_powersave1_seq, %object
ARM GAS  C:\Users\jesse\AppData\Local\Temp\ccmtUGUe.s 			page 26


 804              		.size	u8x8_d_ssd1322_powersave1_seq, 5
 805              	u8x8_d_ssd1322_powersave1_seq:
 806 0005 18       		.byte	24
 807 0006 15       		.byte	21
 808 0007 AE       		.byte	-82
 809 0008 19       		.byte	25
 810 0009 FF       		.byte	-1
 811 000a 0000     		.space	2
 812              		.type	u8x8_ssd1322_256x64_display_info, %object
 813              		.size	u8x8_ssd1322_256x64_display_info, 24
 814              	u8x8_ssd1322_256x64_display_info:
 815 000c 00       		.byte	0
 816 000d 01       		.byte	1
 817 000e 14       		.byte	20
 818 000f 0A       		.byte	10
 819 0010 64       		.byte	100
 820 0011 64       		.byte	100
 821 0012 32       		.byte	50
 822 0013 32       		.byte	50
 823 0014 80969800 		.word	10000000
 824 0018 00       		.byte	0
 825 0019 04       		.byte	4
 826 001a 0A       		.byte	10
 827 001b 96       		.byte	-106
 828 001c 20       		.byte	32
 829 001d 08       		.byte	8
 830 001e 1C       		.byte	28
 831 001f 1C       		.byte	28
 832 0020 0001     		.short	256
 833 0022 4000     		.short	64
 834              		.type	u8x8_d_ssd1322_256x64_init_seq, %object
 835              		.size	u8x8_d_ssd1322_256x64_init_seq, 83
 836              	u8x8_d_ssd1322_256x64_init_seq:
 837 0024 FE       		.byte	-2
 838 0025 01       		.byte	1
 839 0026 18       		.byte	24
 840 0027 FE       		.byte	-2
 841 0028 01       		.byte	1
 842 0029 15       		.byte	21
 843 002a FD       		.byte	-3
 844 002b 16       		.byte	22
 845 002c 12       		.byte	18
 846 002d 15       		.byte	21
 847 002e AE       		.byte	-82
 848 002f 15       		.byte	21
 849 0030 B3       		.byte	-77
 850 0031 16       		.byte	22
 851 0032 91       		.byte	-111
 852 0033 15       		.byte	21
 853 0034 CA       		.byte	-54
 854 0035 16       		.byte	22
 855 0036 3F       		.byte	63
 856 0037 15       		.byte	21
 857 0038 A2       		.byte	-94
 858 0039 16       		.byte	22
 859 003a 00       		.byte	0
 860 003b 15       		.byte	21
ARM GAS  C:\Users\jesse\AppData\Local\Temp\ccmtUGUe.s 			page 27


 861 003c A1       		.byte	-95
 862 003d 16       		.byte	22
 863 003e 00       		.byte	0
 864 003f 15       		.byte	21
 865 0040 A0       		.byte	-96
 866 0041 16       		.byte	22
 867 0042 06       		.byte	6
 868 0043 16       		.byte	22
 869 0044 11       		.byte	17
 870 0045 15       		.byte	21
 871 0046 AB       		.byte	-85
 872 0047 16       		.byte	22
 873 0048 01       		.byte	1
 874 0049 15       		.byte	21
 875 004a B4       		.byte	-76
 876 004b 16       		.byte	22
 877 004c A0       		.byte	-96
 878 004d 16       		.byte	22
 879 004e FD       		.byte	-3
 880 004f 15       		.byte	21
 881 0050 C1       		.byte	-63
 882 0051 16       		.byte	22
 883 0052 9F       		.byte	-97
 884 0053 15       		.byte	21
 885 0054 C7       		.byte	-57
 886 0055 16       		.byte	22
 887 0056 0F       		.byte	15
 888 0057 15       		.byte	21
 889 0058 B9       		.byte	-71
 890 0059 15       		.byte	21
 891 005a B1       		.byte	-79
 892 005b 16       		.byte	22
 893 005c E2       		.byte	-30
 894 005d 15       		.byte	21
 895 005e D1       		.byte	-47
 896 005f 16       		.byte	22
 897 0060 A2       		.byte	-94
 898 0061 16       		.byte	22
 899 0062 20       		.byte	32
 900 0063 15       		.byte	21
 901 0064 BB       		.byte	-69
 902 0065 16       		.byte	22
 903 0066 1F       		.byte	31
 904 0067 15       		.byte	21
 905 0068 B6       		.byte	-74
 906 0069 16       		.byte	22
 907 006a 08       		.byte	8
 908 006b 15       		.byte	21
 909 006c BE       		.byte	-66
 910 006d 16       		.byte	22
 911 006e 07       		.byte	7
 912 006f 15       		.byte	21
 913 0070 A6       		.byte	-90
 914 0071 15       		.byte	21
 915 0072 A9       		.byte	-87
 916 0073 FE       		.byte	-2
 917 0074 01       		.byte	1
ARM GAS  C:\Users\jesse\AppData\Local\Temp\ccmtUGUe.s 			page 28


 918 0075 19       		.byte	25
 919 0076 FF       		.byte	-1
 920              		.type	u8x8_d_ssd1322_256x64_flip0_seq, %object
 921              		.size	u8x8_d_ssd1322_256x64_flip0_seq, 9
 922              	u8x8_d_ssd1322_256x64_flip0_seq:
 923 0077 18       		.byte	24
 924 0078 15       		.byte	21
 925 0079 A0       		.byte	-96
 926 007a 16       		.byte	22
 927 007b 06       		.byte	6
 928 007c 16       		.byte	22
 929 007d 11       		.byte	17
 930 007e 19       		.byte	25
 931 007f FF       		.byte	-1
 932              		.type	u8x8_d_ssd1322_256x64_flip1_seq, %object
 933              		.size	u8x8_d_ssd1322_256x64_flip1_seq, 9
 934              	u8x8_d_ssd1322_256x64_flip1_seq:
 935 0080 18       		.byte	24
 936 0081 15       		.byte	21
 937 0082 A0       		.byte	-96
 938 0083 16       		.byte	22
 939 0084 14       		.byte	20
 940 0085 16       		.byte	22
 941 0086 11       		.byte	17
 942 0087 19       		.byte	25
 943 0088 FF       		.byte	-1
 944 0089 000000   		.space	3
 945              		.type	u8x8_ssd1322_128x64_display_info, %object
 946              		.size	u8x8_ssd1322_128x64_display_info, 24
 947              	u8x8_ssd1322_128x64_display_info:
 948 008c 00       		.byte	0
 949 008d 01       		.byte	1
 950 008e 14       		.byte	20
 951 008f 0A       		.byte	10
 952 0090 64       		.byte	100
 953 0091 64       		.byte	100
 954 0092 32       		.byte	50
 955 0093 32       		.byte	50
 956 0094 80969800 		.word	10000000
 957 0098 00       		.byte	0
 958 0099 04       		.byte	4
 959 009a 0A       		.byte	10
 960 009b 96       		.byte	-106
 961 009c 10       		.byte	16
 962 009d 08       		.byte	8
 963 009e 1C       		.byte	28
 964 009f 1C       		.byte	28
 965 00a0 8000     		.short	128
 966 00a2 4000     		.short	64
 967              		.type	u8x8_d_ssd1322_128x64_init_seq, %object
 968              		.size	u8x8_d_ssd1322_128x64_init_seq, 73
 969              	u8x8_d_ssd1322_128x64_init_seq:
 970 00a4 FE       		.byte	-2
 971 00a5 01       		.byte	1
 972 00a6 18       		.byte	24
 973 00a7 FE       		.byte	-2
 974 00a8 01       		.byte	1
ARM GAS  C:\Users\jesse\AppData\Local\Temp\ccmtUGUe.s 			page 29


 975 00a9 15       		.byte	21
 976 00aa FD       		.byte	-3
 977 00ab 16       		.byte	22
 978 00ac 12       		.byte	18
 979 00ad 15       		.byte	21
 980 00ae AE       		.byte	-82
 981 00af 15       		.byte	21
 982 00b0 B3       		.byte	-77
 983 00b1 16       		.byte	22
 984 00b2 91       		.byte	-111
 985 00b3 15       		.byte	21
 986 00b4 CA       		.byte	-54
 987 00b5 16       		.byte	22
 988 00b6 3F       		.byte	63
 989 00b7 15       		.byte	21
 990 00b8 A2       		.byte	-94
 991 00b9 16       		.byte	22
 992 00ba 00       		.byte	0
 993 00bb 15       		.byte	21
 994 00bc A1       		.byte	-95
 995 00bd 16       		.byte	22
 996 00be 00       		.byte	0
 997 00bf 15       		.byte	21
 998 00c0 AB       		.byte	-85
 999 00c1 16       		.byte	22
 1000 00c2 01       		.byte	1
 1001 00c3 15       		.byte	21
 1002 00c4 A0       		.byte	-96
 1003 00c5 16       		.byte	22
 1004 00c6 16       		.byte	22
 1005 00c7 16       		.byte	22
 1006 00c8 11       		.byte	17
 1007 00c9 15       		.byte	21
 1008 00ca C7       		.byte	-57
 1009 00cb 16       		.byte	22
 1010 00cc 0F       		.byte	15
 1011 00cd 15       		.byte	21
 1012 00ce C1       		.byte	-63
 1013 00cf 16       		.byte	22
 1014 00d0 9F       		.byte	-97
 1015 00d1 15       		.byte	21
 1016 00d2 B1       		.byte	-79
 1017 00d3 16       		.byte	22
 1018 00d4 F2       		.byte	-14
 1019 00d5 15       		.byte	21
 1020 00d6 BB       		.byte	-69
 1021 00d7 16       		.byte	22
 1022 00d8 1F       		.byte	31
 1023 00d9 15       		.byte	21
 1024 00da B4       		.byte	-76
 1025 00db 16       		.byte	22
 1026 00dc A0       		.byte	-96
 1027 00dd 16       		.byte	22
 1028 00de FD       		.byte	-3
 1029 00df 15       		.byte	21
 1030 00e0 BE       		.byte	-66
 1031 00e1 16       		.byte	22
ARM GAS  C:\Users\jesse\AppData\Local\Temp\ccmtUGUe.s 			page 30


 1032 00e2 04       		.byte	4
 1033 00e3 15       		.byte	21
 1034 00e4 B9       		.byte	-71
 1035 00e5 15       		.byte	21
 1036 00e6 A6       		.byte	-90
 1037 00e7 15       		.byte	21
 1038 00e8 A9       		.byte	-87
 1039 00e9 FE       		.byte	-2
 1040 00ea 01       		.byte	1
 1041 00eb 19       		.byte	25
 1042 00ec FF       		.byte	-1
 1043              		.type	u8x8_d_ssd1322_128x64_flip0_seq, %object
 1044              		.size	u8x8_d_ssd1322_128x64_flip0_seq, 9
 1045              	u8x8_d_ssd1322_128x64_flip0_seq:
 1046 00ed 18       		.byte	24
 1047 00ee 15       		.byte	21
 1048 00ef A0       		.byte	-96
 1049 00f0 16       		.byte	22
 1050 00f1 16       		.byte	22
 1051 00f2 16       		.byte	22
 1052 00f3 11       		.byte	17
 1053 00f4 19       		.byte	25
 1054 00f5 FF       		.byte	-1
 1055              		.type	u8x8_d_ssd1322_128x64_flip1_seq, %object
 1056              		.size	u8x8_d_ssd1322_128x64_flip1_seq, 9
 1057              	u8x8_d_ssd1322_128x64_flip1_seq:
 1058 00f6 18       		.byte	24
 1059 00f7 15       		.byte	21
 1060 00f8 A0       		.byte	-96
 1061 00f9 16       		.byte	22
 1062 00fa 04       		.byte	4
 1063 00fb 16       		.byte	22
 1064 00fc 11       		.byte	17
 1065 00fd 19       		.byte	25
 1066 00fe FF       		.byte	-1
 1067              		.bss
 1068              		.set	.LANCHOR0,. + 0
 1069              		.type	u8x8_ssd1322_to32_dest_buf, %object
 1070              		.size	u8x8_ssd1322_to32_dest_buf, 32
 1071              	u8x8_ssd1322_to32_dest_buf:
 1072 0000 00000000 		.space	32
 1072      00000000 
 1072      00000000 
 1072      00000000 
 1072      00000000 
 1073              		.text
 1074              	.Letext0:
 1075              		.file 2 "c:\\program files (x86)\\cypress\\psoc creator\\4.4\\psoc creator\\import\\gnu\\arm\\5.4.
 1076              		.file 3 "c:\\program files (x86)\\cypress\\psoc creator\\4.4\\psoc creator\\import\\gnu\\arm\\5.4.
 1077              		.file 4 "..\\..\\..\\u8g2\\u8g2\\csrc\\u8x8.h"