ARM GAS  C:\Users\jesse\AppData\Local\Temp\cc161MlE.s 			page 1


   1              		.syntax unified
   2              		.cpu cortex-m3
   3              		.fpu softvfp
   4              		.eabi_attribute 20, 1
   5              		.eabi_attribute 21, 1
   6              		.eabi_attribute 23, 3
   7              		.eabi_attribute 24, 1
   8              		.eabi_attribute 25, 1
   9              		.eabi_attribute 26, 1
  10              		.eabi_attribute 30, 4
  11              		.eabi_attribute 34, 1
  12              		.eabi_attribute 18, 4
  13              		.thumb
  14              		.syntax unified
  15              		.file	"u8x8_d_uc1617.c"
  16              		.text
  17              	.Ltext0:
  18              		.cfi_sections	.debug_frame
  19              		.section	.text.u8x8_upscale_4bit,"ax",%progbits
  20              		.align	1
  21              		.thumb
  22              		.thumb_func
  23              		.type	u8x8_upscale_4bit, %function
  24              	u8x8_upscale_4bit:
  25              	.LFB0:
  26              		.file 1 "..\\..\\..\\u8g2\\u8g2\\csrc\\u8x8_d_uc1617.c"
   1:..\..\..\u8g2\u8g2\csrc/u8x8_d_uc1617.c **** /*
   2:..\..\..\u8g2\u8g2\csrc/u8x8_d_uc1617.c **** 
   3:..\..\..\u8g2\u8g2\csrc/u8x8_d_uc1617.c ****   u8x8_d_uc1617.c
   4:..\..\..\u8g2\u8g2\csrc/u8x8_d_uc1617.c ****   
   5:..\..\..\u8g2\u8g2\csrc/u8x8_d_uc1617.c ****   Universal 8bit Graphics Library (https://github.com/olikraus/u8g2/)
   6:..\..\..\u8g2\u8g2\csrc/u8x8_d_uc1617.c **** 
   7:..\..\..\u8g2\u8g2\csrc/u8x8_d_uc1617.c ****   Copyright (c) 2017, olikraus@gmail.com
   8:..\..\..\u8g2\u8g2\csrc/u8x8_d_uc1617.c ****   All rights reserved.
   9:..\..\..\u8g2\u8g2\csrc/u8x8_d_uc1617.c **** 
  10:..\..\..\u8g2\u8g2\csrc/u8x8_d_uc1617.c ****   Redistribution and use in source and binary forms, with or without modification, 
  11:..\..\..\u8g2\u8g2\csrc/u8x8_d_uc1617.c ****   are permitted provided that the following conditions are met:
  12:..\..\..\u8g2\u8g2\csrc/u8x8_d_uc1617.c **** 
  13:..\..\..\u8g2\u8g2\csrc/u8x8_d_uc1617.c ****   * Redistributions of source code must retain the above copyright notice, this list 
  14:..\..\..\u8g2\u8g2\csrc/u8x8_d_uc1617.c ****     of conditions and the following disclaimer.
  15:..\..\..\u8g2\u8g2\csrc/u8x8_d_uc1617.c ****     
  16:..\..\..\u8g2\u8g2\csrc/u8x8_d_uc1617.c ****   * Redistributions in binary form must reproduce the above copyright notice, this 
  17:..\..\..\u8g2\u8g2\csrc/u8x8_d_uc1617.c ****     list of conditions and the following disclaimer in the documentation and/or other 
  18:..\..\..\u8g2\u8g2\csrc/u8x8_d_uc1617.c ****     materials provided with the distribution.
  19:..\..\..\u8g2\u8g2\csrc/u8x8_d_uc1617.c **** 
  20:..\..\..\u8g2\u8g2\csrc/u8x8_d_uc1617.c ****   THIS SOFTWARE IS PROVIDED BY THE COPYRIGHT HOLDERS AND 
  21:..\..\..\u8g2\u8g2\csrc/u8x8_d_uc1617.c ****   CONTRIBUTORS "AS IS" AND ANY EXPRESS OR IMPLIED WARRANTIES, 
  22:..\..\..\u8g2\u8g2\csrc/u8x8_d_uc1617.c ****   INCLUDING, BUT NOT LIMITED TO, THE IMPLIED WARRANTIES OF 
  23:..\..\..\u8g2\u8g2\csrc/u8x8_d_uc1617.c ****   MERCHANTABILITY AND FITNESS FOR A PARTICULAR PURPOSE ARE 
  24:..\..\..\u8g2\u8g2\csrc/u8x8_d_uc1617.c ****   DISCLAIMED. IN NO EVENT SHALL THE COPYRIGHT HOLDER OR 
  25:..\..\..\u8g2\u8g2\csrc/u8x8_d_uc1617.c ****   CONTRIBUTORS BE LIABLE FOR ANY DIRECT, INDIRECT, INCIDENTAL, 
  26:..\..\..\u8g2\u8g2\csrc/u8x8_d_uc1617.c ****   SPECIAL, EXEMPLARY, OR CONSEQUENTIAL DAMAGES (INCLUDING, BUT 
  27:..\..\..\u8g2\u8g2\csrc/u8x8_d_uc1617.c ****   NOT LIMITED TO, PROCUREMENT OF SUBSTITUTE GOODS OR SERVICES; 
  28:..\..\..\u8g2\u8g2\csrc/u8x8_d_uc1617.c ****   LOSS OF USE, DATA, OR PROFITS; OR BUSINESS INTERRUPTION) HOWEVER 
  29:..\..\..\u8g2\u8g2\csrc/u8x8_d_uc1617.c ****   CAUSED AND ON ANY THEORY OF LIABILITY, WHETHER IN CONTRACT, 
  30:..\..\..\u8g2\u8g2\csrc/u8x8_d_uc1617.c ****   STRICT LIABILITY, OR TORT (INCLUDING NEGLIGENCE OR OTHERWISE) 
  31:..\..\..\u8g2\u8g2\csrc/u8x8_d_uc1617.c ****   ARISING IN ANY WAY OUT OF THE USE OF THIS SOFTWARE, EVEN IF 
ARM GAS  C:\Users\jesse\AppData\Local\Temp\cc161MlE.s 			page 2


  32:..\..\..\u8g2\u8g2\csrc/u8x8_d_uc1617.c ****   ADVISED OF THE POSSIBILITY OF SUCH DAMAGE.  
  33:..\..\..\u8g2\u8g2\csrc/u8x8_d_uc1617.c **** 
  34:..\..\..\u8g2\u8g2\csrc/u8x8_d_uc1617.c **** 
  35:..\..\..\u8g2\u8g2\csrc/u8x8_d_uc1617.c **** */
  36:..\..\..\u8g2\u8g2\csrc/u8x8_d_uc1617.c **** #include "u8x8.h"
  37:..\..\..\u8g2\u8g2\csrc/u8x8_d_uc1617.c **** 
  38:..\..\..\u8g2\u8g2\csrc/u8x8_d_uc1617.c **** 
  39:..\..\..\u8g2\u8g2\csrc/u8x8_d_uc1617.c **** 
  40:..\..\..\u8g2\u8g2\csrc/u8x8_d_uc1617.c **** 
  41:..\..\..\u8g2\u8g2\csrc/u8x8_d_uc1617.c **** 
  42:..\..\..\u8g2\u8g2\csrc/u8x8_d_uc1617.c **** static const uint8_t u8x8_d_uc1617_powersave0_seq[] = {
  43:..\..\..\u8g2\u8g2\csrc/u8x8_d_uc1617.c ****   U8X8_START_TRANSFER(),             	/* enable chip, delay is part of the transfer start */
  44:..\..\..\u8g2\u8g2\csrc/u8x8_d_uc1617.c ****   //U8X8_C(0x0ad),            			/* display enable BW Mode*/
  45:..\..\..\u8g2\u8g2\csrc/u8x8_d_uc1617.c ****   U8X8_C(0x0af),            			/* display enable GS Mode*/
  46:..\..\..\u8g2\u8g2\csrc/u8x8_d_uc1617.c ****   U8X8_END_TRANSFER(),             	/* disable chip */
  47:..\..\..\u8g2\u8g2\csrc/u8x8_d_uc1617.c ****   U8X8_END()             			/* end of sequence */
  48:..\..\..\u8g2\u8g2\csrc/u8x8_d_uc1617.c **** };
  49:..\..\..\u8g2\u8g2\csrc/u8x8_d_uc1617.c **** 
  50:..\..\..\u8g2\u8g2\csrc/u8x8_d_uc1617.c **** static const uint8_t u8x8_d_uc1617_powersave1_seq[] = {
  51:..\..\..\u8g2\u8g2\csrc/u8x8_d_uc1617.c ****   U8X8_START_TRANSFER(),             	/* enable chip, delay is part of the transfer start */
  52:..\..\..\u8g2\u8g2\csrc/u8x8_d_uc1617.c ****   U8X8_C(0x0ac),		                /* display off, enter sleep mode */
  53:..\..\..\u8g2\u8g2\csrc/u8x8_d_uc1617.c ****   U8X8_END_TRANSFER(),             	/* disable chip */
  54:..\..\..\u8g2\u8g2\csrc/u8x8_d_uc1617.c ****   U8X8_END()             			/* end of sequence */
  55:..\..\..\u8g2\u8g2\csrc/u8x8_d_uc1617.c **** };
  56:..\..\..\u8g2\u8g2\csrc/u8x8_d_uc1617.c **** 
  57:..\..\..\u8g2\u8g2\csrc/u8x8_d_uc1617.c **** static const uint8_t u8x8_d_uc1617_flip0_seq[] = {
  58:..\..\..\u8g2\u8g2\csrc/u8x8_d_uc1617.c ****   U8X8_START_TRANSFER(),             	/* enable chip, delay is part of the transfer start */
  59:..\..\..\u8g2\u8g2\csrc/u8x8_d_uc1617.c ****   U8X8_C(0x0c0),            	/* LCD Mapping */
  60:..\..\..\u8g2\u8g2\csrc/u8x8_d_uc1617.c ****   U8X8_END_TRANSFER(),             	/* disable chip */
  61:..\..\..\u8g2\u8g2\csrc/u8x8_d_uc1617.c ****   U8X8_END()             			/* end of sequence */
  62:..\..\..\u8g2\u8g2\csrc/u8x8_d_uc1617.c **** };
  63:..\..\..\u8g2\u8g2\csrc/u8x8_d_uc1617.c **** 
  64:..\..\..\u8g2\u8g2\csrc/u8x8_d_uc1617.c **** static const uint8_t u8x8_d_uc1617_flip1_seq[] = {
  65:..\..\..\u8g2\u8g2\csrc/u8x8_d_uc1617.c ****   U8X8_START_TRANSFER(),             	/* enable chip, delay is part of the transfer start */
  66:..\..\..\u8g2\u8g2\csrc/u8x8_d_uc1617.c ****   U8X8_C(0x0c6),            	/* LCD Mapping */
  67:..\..\..\u8g2\u8g2\csrc/u8x8_d_uc1617.c ****   U8X8_END_TRANSFER(),             	/* disable chip */
  68:..\..\..\u8g2\u8g2\csrc/u8x8_d_uc1617.c ****   U8X8_END()             			/* end of sequence */
  69:..\..\..\u8g2\u8g2\csrc/u8x8_d_uc1617.c **** };
  70:..\..\..\u8g2\u8g2\csrc/u8x8_d_uc1617.c **** 
  71:..\..\..\u8g2\u8g2\csrc/u8x8_d_uc1617.c **** 
  72:..\..\..\u8g2\u8g2\csrc/u8x8_d_uc1617.c **** //static uint8_t u8x8_upscale_4bit(uint8_t x) U8X8_NOINLINE;
  73:..\..\..\u8g2\u8g2\csrc/u8x8_d_uc1617.c **** static uint8_t u8x8_upscale_4bit(uint8_t x) 
  74:..\..\..\u8g2\u8g2\csrc/u8x8_d_uc1617.c **** {
  27              		.loc 1 74 0
  28              		.cfi_startproc
  29              		@ args = 0, pretend = 0, frame = 0
  30              		@ frame_needed = 0, uses_anonymous_args = 0
  31              		@ link register save eliminated.
  32              	.LVL0:
  75:..\..\..\u8g2\u8g2\csrc/u8x8_d_uc1617.c **** 	uint8_t y = x;
  76:..\..\..\u8g2\u8g2\csrc/u8x8_d_uc1617.c **** 	y |= (y << 4);		// x = (x | (x << S[2])) & B[2];
  77:..\..\..\u8g2\u8g2\csrc/u8x8_d_uc1617.c **** 	y &= 0x0f;
  33              		.loc 1 77 0
  34 0000 00F00F00 		and	r0, r0, #15
  35              	.LVL1:
  78:..\..\..\u8g2\u8g2\csrc/u8x8_d_uc1617.c **** 	y |= (y << 2);		// x = (x | (x << S[1])) & B[1];
  36              		.loc 1 78 0
ARM GAS  C:\Users\jesse\AppData\Local\Temp\cc161MlE.s 			page 3


  37 0004 40EA8000 		orr	r0, r0, r0, lsl #2
  38              	.LVL2:
  79:..\..\..\u8g2\u8g2\csrc/u8x8_d_uc1617.c **** 	y &= 0x33;
  39              		.loc 1 79 0
  40 0008 00F03300 		and	r0, r0, #51
  41              	.LVL3:
  80:..\..\..\u8g2\u8g2\csrc/u8x8_d_uc1617.c **** 	y |= (y << 1);		// x = (x | (x << S[0])) & B[0];
  42              		.loc 1 80 0
  43 000c 40EA4000 		orr	r0, r0, r0, lsl #1
  44              	.LVL4:
  81:..\..\..\u8g2\u8g2\csrc/u8x8_d_uc1617.c **** 	y &= 0x55;
  45              		.loc 1 81 0
  46 0010 00F05500 		and	r0, r0, #85
  47              	.LVL5:
  82:..\..\..\u8g2\u8g2\csrc/u8x8_d_uc1617.c ****   
  83:..\..\..\u8g2\u8g2\csrc/u8x8_d_uc1617.c **** 	y |= (y << 1);		// z = x | (y << 1);
  84:..\..\..\u8g2\u8g2\csrc/u8x8_d_uc1617.c **** 	return y;
  85:..\..\..\u8g2\u8g2\csrc/u8x8_d_uc1617.c **** }
  48              		.loc 1 85 0
  49 0014 40EA4000 		orr	r0, r0, r0, lsl #1
  50              	.LVL6:
  51 0018 7047     		bx	lr
  52              		.cfi_endproc
  53              	.LFE0:
  54              		.size	u8x8_upscale_4bit, .-u8x8_upscale_4bit
  55              		.section	.text.u8x8_d_uc1617_common,"ax",%progbits
  56              		.align	1
  57              		.global	u8x8_d_uc1617_common
  58              		.thumb
  59              		.thumb_func
  60              		.type	u8x8_d_uc1617_common, %function
  61              	u8x8_d_uc1617_common:
  62              	.LFB3:
  86:..\..\..\u8g2\u8g2\csrc/u8x8_d_uc1617.c **** 
  87:..\..\..\u8g2\u8g2\csrc/u8x8_d_uc1617.c **** static uint8_t u8x8_uc1617_tile_half_buffer[8];
  88:..\..\..\u8g2\u8g2\csrc/u8x8_d_uc1617.c **** 
  89:..\..\..\u8g2\u8g2\csrc/u8x8_d_uc1617.c **** static uint8_t *u8x8_convert_tile_for_uc1617_lower4bit(uint8_t *t)
  90:..\..\..\u8g2\u8g2\csrc/u8x8_d_uc1617.c **** {
  91:..\..\..\u8g2\u8g2\csrc/u8x8_d_uc1617.c ****   uint8_t i;
  92:..\..\..\u8g2\u8g2\csrc/u8x8_d_uc1617.c ****   uint8_t *pbuf = u8x8_uc1617_tile_half_buffer;
  93:..\..\..\u8g2\u8g2\csrc/u8x8_d_uc1617.c **** 
  94:..\..\..\u8g2\u8g2\csrc/u8x8_d_uc1617.c ****   for( i = 0; i < 8; i++ )
  95:..\..\..\u8g2\u8g2\csrc/u8x8_d_uc1617.c ****   {
  96:..\..\..\u8g2\u8g2\csrc/u8x8_d_uc1617.c ****     *pbuf++ = u8x8_upscale_4bit(*t++);
  97:..\..\..\u8g2\u8g2\csrc/u8x8_d_uc1617.c ****   }
  98:..\..\..\u8g2\u8g2\csrc/u8x8_d_uc1617.c ****   return u8x8_uc1617_tile_half_buffer;
  99:..\..\..\u8g2\u8g2\csrc/u8x8_d_uc1617.c **** }
 100:..\..\..\u8g2\u8g2\csrc/u8x8_d_uc1617.c **** 
 101:..\..\..\u8g2\u8g2\csrc/u8x8_d_uc1617.c **** static uint8_t *u8x8_convert_tile_for_uc1617_upper4bit(uint8_t *t)
 102:..\..\..\u8g2\u8g2\csrc/u8x8_d_uc1617.c **** {
 103:..\..\..\u8g2\u8g2\csrc/u8x8_d_uc1617.c ****   uint8_t i;
 104:..\..\..\u8g2\u8g2\csrc/u8x8_d_uc1617.c ****   uint8_t *pbuf = u8x8_uc1617_tile_half_buffer;
 105:..\..\..\u8g2\u8g2\csrc/u8x8_d_uc1617.c **** 
 106:..\..\..\u8g2\u8g2\csrc/u8x8_d_uc1617.c ****   for( i = 0; i < 8; i++ )
 107:..\..\..\u8g2\u8g2\csrc/u8x8_d_uc1617.c ****   {
 108:..\..\..\u8g2\u8g2\csrc/u8x8_d_uc1617.c ****     *pbuf++ = u8x8_upscale_4bit((*t++)>>4);
 109:..\..\..\u8g2\u8g2\csrc/u8x8_d_uc1617.c ****   }
ARM GAS  C:\Users\jesse\AppData\Local\Temp\cc161MlE.s 			page 4


 110:..\..\..\u8g2\u8g2\csrc/u8x8_d_uc1617.c ****   return u8x8_uc1617_tile_half_buffer;
 111:..\..\..\u8g2\u8g2\csrc/u8x8_d_uc1617.c **** }
 112:..\..\..\u8g2\u8g2\csrc/u8x8_d_uc1617.c **** 
 113:..\..\..\u8g2\u8g2\csrc/u8x8_d_uc1617.c **** #ifdef NOT_USED
 114:..\..\..\u8g2\u8g2\csrc/u8x8_d_uc1617.c **** static uint8_t *u8x8_convert_tile_for_uc1617(uint8_t *t)
 115:..\..\..\u8g2\u8g2\csrc/u8x8_d_uc1617.c **** {
 116:..\..\..\u8g2\u8g2\csrc/u8x8_d_uc1617.c ****   uint8_t i;
 117:..\..\..\u8g2\u8g2\csrc/u8x8_d_uc1617.c ****   uint16_t r;
 118:..\..\..\u8g2\u8g2\csrc/u8x8_d_uc1617.c ****   static uint8_t buf[16];
 119:..\..\..\u8g2\u8g2\csrc/u8x8_d_uc1617.c ****   uint8_t *pbuf = buf;
 120:..\..\..\u8g2\u8g2\csrc/u8x8_d_uc1617.c **** 
 121:..\..\..\u8g2\u8g2\csrc/u8x8_d_uc1617.c ****   for( i = 0; i < 8; i++ )
 122:..\..\..\u8g2\u8g2\csrc/u8x8_d_uc1617.c ****   {
 123:..\..\..\u8g2\u8g2\csrc/u8x8_d_uc1617.c ****     r = u8x8_upscale_byte(*t++);
 124:..\..\..\u8g2\u8g2\csrc/u8x8_d_uc1617.c ****     *pbuf = r & 255;
 125:..\..\..\u8g2\u8g2\csrc/u8x8_d_uc1617.c ****     r >>= 8;
 126:..\..\..\u8g2\u8g2\csrc/u8x8_d_uc1617.c ****     pbuf+=8;
 127:..\..\..\u8g2\u8g2\csrc/u8x8_d_uc1617.c ****     *pbuf = r;
 128:..\..\..\u8g2\u8g2\csrc/u8x8_d_uc1617.c ****     pbuf-=7;
 129:..\..\..\u8g2\u8g2\csrc/u8x8_d_uc1617.c ****   }
 130:..\..\..\u8g2\u8g2\csrc/u8x8_d_uc1617.c ****   return buf;
 131:..\..\..\u8g2\u8g2\csrc/u8x8_d_uc1617.c **** }
 132:..\..\..\u8g2\u8g2\csrc/u8x8_d_uc1617.c **** #endif
 133:..\..\..\u8g2\u8g2\csrc/u8x8_d_uc1617.c **** 
 134:..\..\..\u8g2\u8g2\csrc/u8x8_d_uc1617.c **** 
 135:..\..\..\u8g2\u8g2\csrc/u8x8_d_uc1617.c **** uint8_t u8x8_d_uc1617_common(u8x8_t *u8x8, uint8_t msg, uint8_t arg_int, void *arg_ptr)
 136:..\..\..\u8g2\u8g2\csrc/u8x8_d_uc1617.c **** {
  63              		.loc 1 136 0
  64              		.cfi_startproc
  65              		@ args = 0, pretend = 0, frame = 0
  66              		@ frame_needed = 0, uses_anonymous_args = 0
  67              	.LVL7:
 137:..\..\..\u8g2\u8g2\csrc/u8x8_d_uc1617.c ****   uint8_t x, y, c, a;
 138:..\..\..\u8g2\u8g2\csrc/u8x8_d_uc1617.c ****   uint8_t *ptr;
 139:..\..\..\u8g2\u8g2\csrc/u8x8_d_uc1617.c ****   switch(msg)
  68              		.loc 1 139 0
  69 0000 0B39     		subs	r1, r1, #11
  70              	.LVL8:
 136:..\..\..\u8g2\u8g2\csrc/u8x8_d_uc1617.c ****   uint8_t x, y, c, a;
  71              		.loc 1 136 0
  72 0002 2DE9F047 		push	{r4, r5, r6, r7, r8, r9, r10, lr}
  73              		.cfi_def_cfa_offset 32
  74              		.cfi_offset 4, -32
  75              		.cfi_offset 5, -28
  76              		.cfi_offset 6, -24
  77              		.cfi_offset 7, -20
  78              		.cfi_offset 8, -16
  79              		.cfi_offset 9, -12
  80              		.cfi_offset 10, -8
  81              		.cfi_offset 14, -4
 136:..\..\..\u8g2\u8g2\csrc/u8x8_d_uc1617.c ****   uint8_t x, y, c, a;
  82              		.loc 1 136 0
  83 0006 0446     		mov	r4, r0
  84 0008 1546     		mov	r5, r2
  85 000a 9846     		mov	r8, r3
  86              		.loc 1 139 0
  87 000c 0429     		cmp	r1, #4
ARM GAS  C:\Users\jesse\AppData\Local\Temp\cc161MlE.s 			page 5


  88 000e 00F2A180 		bhi	.L17
  89 0012 DFE801F0 		tbb	[pc, r1]
  90              	.LVL9:
  91              	.L5:
  92 0016 78       		.byte	(.L4-.L5)/2
  93 0017 9F       		.byte	(.L17-.L5)/2
  94 0018 80       		.byte	(.L6-.L5)/2
  95 0019 91       		.byte	(.L7-.L5)/2
  96 001a 03       		.byte	(.L8-.L5)/2
  97 001b 00       		.p2align 1
  98              	.L8:
 140:..\..\..\u8g2\u8g2\csrc/u8x8_d_uc1617.c ****   {
 141:..\..\..\u8g2\u8g2\csrc/u8x8_d_uc1617.c ****     case U8X8_MSG_DISPLAY_DRAW_TILE:
 142:..\..\..\u8g2\u8g2\csrc/u8x8_d_uc1617.c ****       u8x8_cad_StartTransfer(u8x8);
  99              		.loc 1 142 0
 100 001c FFF7FEFF 		bl	u8x8_cad_StartTransfer
 101              	.LVL10:
 143:..\..\..\u8g2\u8g2\csrc/u8x8_d_uc1617.c ****     
 144:..\..\..\u8g2\u8g2\csrc/u8x8_d_uc1617.c **** 
 145:..\..\..\u8g2\u8g2\csrc/u8x8_d_uc1617.c **** 
 146:..\..\..\u8g2\u8g2\csrc/u8x8_d_uc1617.c ****       y = ((u8x8_tile_t *)arg_ptr)->y_pos;
 147:..\..\..\u8g2\u8g2\csrc/u8x8_d_uc1617.c ****       y*=2;
 148:..\..\..\u8g2\u8g2\csrc/u8x8_d_uc1617.c **** 
 149:..\..\..\u8g2\u8g2\csrc/u8x8_d_uc1617.c ****       x = ((u8x8_tile_t *)arg_ptr)->x_pos;
 150:..\..\..\u8g2\u8g2\csrc/u8x8_d_uc1617.c ****       x *= 8;
 151:..\..\..\u8g2\u8g2\csrc/u8x8_d_uc1617.c ****       x += u8x8->x_offset;
 102              		.loc 1 151 0
 103 0020 94F82230 		ldrb	r3, [r4, #34]	@ zero_extendqisi2
 149:..\..\..\u8g2\u8g2\csrc/u8x8_d_uc1617.c ****       x *= 8;
 104              		.loc 1 149 0
 105 0024 98F80570 		ldrb	r7, [r8, #5]	@ zero_extendqisi2
 146:..\..\..\u8g2\u8g2\csrc/u8x8_d_uc1617.c ****       y*=2;
 106              		.loc 1 146 0
 107 0028 98F80660 		ldrb	r6, [r8, #6]	@ zero_extendqisi2
 108              	.LVL11:
 109              		.loc 1 151 0
 110 002c 03EBC707 		add	r7, r3, r7, lsl #3
 111 0030 07F0FF07 		and	r7, r7, #255
 152:..\..\..\u8g2\u8g2\csrc/u8x8_d_uc1617.c ****       u8x8_cad_SendCmd(u8x8, 0x060 | (x&15));
 112              		.loc 1 152 0
 113 0034 07F00F01 		and	r1, r7, #15
 114 0038 41F06001 		orr	r1, r1, #96
 115 003c 2046     		mov	r0, r4
 116 003e FFF7FEFF 		bl	u8x8_cad_SendCmd
 117              	.LVL12:
 147:..\..\..\u8g2\u8g2\csrc/u8x8_d_uc1617.c **** 
 118              		.loc 1 147 0
 119 0042 7600     		lsls	r6, r6, #1
 120              	.LVL13:
 153:..\..\..\u8g2\u8g2\csrc/u8x8_d_uc1617.c ****       u8x8_cad_SendCmd(u8x8, 0x070 | (x>>4)); 
 121              		.loc 1 153 0
 122 0044 3909     		lsrs	r1, r7, #4
 123 0046 41F07001 		orr	r1, r1, #112
 147:..\..\..\u8g2\u8g2\csrc/u8x8_d_uc1617.c **** 
 124              		.loc 1 147 0
 125 004a F6B2     		uxtb	r6, r6
 126              	.LVL14:
ARM GAS  C:\Users\jesse\AppData\Local\Temp\cc161MlE.s 			page 6


 127              		.loc 1 153 0
 128 004c 2046     		mov	r0, r4
 129 004e FFF7FEFF 		bl	u8x8_cad_SendCmd
 130              	.LVL15:
 154:..\..\..\u8g2\u8g2\csrc/u8x8_d_uc1617.c ****       u8x8_cad_SendCmd(u8x8, 0x00 | (y));
 131              		.loc 1 154 0
 132 0052 3146     		mov	r1, r6
 133 0054 2046     		mov	r0, r4
 134 0056 FFF7FEFF 		bl	u8x8_cad_SendCmd
 135              	.LVL16:
 155:..\..\..\u8g2\u8g2\csrc/u8x8_d_uc1617.c **** 
 156:..\..\..\u8g2\u8g2\csrc/u8x8_d_uc1617.c **** #ifdef NOT_REQUIRED
 157:..\..\..\u8g2\u8g2\csrc/u8x8_d_uc1617.c ****       u8x8_cad_SendCmd(u8x8, 0xf8 );	/* disable window */
 158:..\..\..\u8g2\u8g2\csrc/u8x8_d_uc1617.c ****       u8x8_cad_SendCmd(u8x8, 0xf4 );	/* page start */
 159:..\..\..\u8g2\u8g2\csrc/u8x8_d_uc1617.c ****       u8x8_cad_SendCmd(u8x8, y );	
 160:..\..\..\u8g2\u8g2\csrc/u8x8_d_uc1617.c ****       u8x8_cad_SendCmd(u8x8, 0xf5 );	/* x start */
 161:..\..\..\u8g2\u8g2\csrc/u8x8_d_uc1617.c ****       u8x8_cad_SendCmd(u8x8, x );	
 162:..\..\..\u8g2\u8g2\csrc/u8x8_d_uc1617.c ****       u8x8_cad_SendCmd(u8x8, 0xf6 );	/* page end */
 163:..\..\..\u8g2\u8g2\csrc/u8x8_d_uc1617.c ****       u8x8_cad_SendCmd(u8x8, y );	
 164:..\..\..\u8g2\u8g2\csrc/u8x8_d_uc1617.c ****       u8x8_cad_SendCmd(u8x8, 0xf7 );	/* x end */
 165:..\..\..\u8g2\u8g2\csrc/u8x8_d_uc1617.c ****       u8x8_cad_SendCmd(u8x8, 127 );	
 166:..\..\..\u8g2\u8g2\csrc/u8x8_d_uc1617.c ****       u8x8_cad_SendCmd(u8x8, 0xf9 );	/* enable window  */
 167:..\..\..\u8g2\u8g2\csrc/u8x8_d_uc1617.c **** #endif
 168:..\..\..\u8g2\u8g2\csrc/u8x8_d_uc1617.c **** 
 169:..\..\..\u8g2\u8g2\csrc/u8x8_d_uc1617.c ****       a = arg_int;
 136              		.loc 1 169 0
 137 005a 2F46     		mov	r7, r5
 138              	.LVL17:
 139              	.L11:
 170:..\..\..\u8g2\u8g2\csrc/u8x8_d_uc1617.c ****       do
 171:..\..\..\u8g2\u8g2\csrc/u8x8_d_uc1617.c ****       {
 172:..\..\..\u8g2\u8g2\csrc/u8x8_d_uc1617.c **** 	c = ((u8x8_tile_t *)arg_ptr)->cnt;
 140              		.loc 1 172 0
 141 005c 98F80490 		ldrb	r9, [r8, #4]	@ zero_extendqisi2
 142              	.LVL18:
 173:..\..\..\u8g2\u8g2\csrc/u8x8_d_uc1617.c **** 	ptr = ((u8x8_tile_t *)arg_ptr)->tile_ptr;
 143              		.loc 1 173 0
 144 0060 D8F800A0 		ldr	r10, [r8]
 145              	.LVL19:
 146              	.L10:
 169:..\..\..\u8g2\u8g2\csrc/u8x8_d_uc1617.c ****       do
 147              		.loc 1 169 0 discriminator 1
 148 0064 3D4B     		ldr	r3, .L29
 149 0066 0AF10802 		add	r2, r10, #8
 150              	.LVL20:
 151              	.L9:
 152              	.LBB6:
 153              	.LBB7:
  96:..\..\..\u8g2\u8g2\csrc/u8x8_d_uc1617.c ****   }
 154              		.loc 1 96 0
 155 006a 1AF8010B 		ldrb	r0, [r10], #1	@ zero_extendqisi2
 156              	.LVL21:
 157 006e FFF7FEFF 		bl	u8x8_upscale_4bit
 158              	.LVL22:
  94:..\..\..\u8g2\u8g2\csrc/u8x8_d_uc1617.c ****   {
 159              		.loc 1 94 0
 160 0072 9245     		cmp	r10, r2
ARM GAS  C:\Users\jesse\AppData\Local\Temp\cc161MlE.s 			page 7


  96:..\..\..\u8g2\u8g2\csrc/u8x8_d_uc1617.c ****   }
 161              		.loc 1 96 0
 162 0074 03F8010F 		strb	r0, [r3, #1]!
 163              	.LVL23:
  94:..\..\..\u8g2\u8g2\csrc/u8x8_d_uc1617.c ****   {
 164              		.loc 1 94 0
 165 0078 F7D1     		bne	.L9
 166              	.LVL24:
 167              	.LBE7:
 168              	.LBE6:
 174:..\..\..\u8g2\u8g2\csrc/u8x8_d_uc1617.c **** 	do
 175:..\..\..\u8g2\u8g2\csrc/u8x8_d_uc1617.c **** 	{
 176:..\..\..\u8g2\u8g2\csrc/u8x8_d_uc1617.c **** 	  u8x8_cad_SendData(u8x8, 8, u8x8_convert_tile_for_uc1617_lower4bit(ptr));
 169              		.loc 1 176 0
 170 007a 394A     		ldr	r2, .L29+4
 171 007c 0821     		movs	r1, #8
 172 007e 2046     		mov	r0, r4
 177:..\..\..\u8g2\u8g2\csrc/u8x8_d_uc1617.c **** 	  ptr += 8;
 178:..\..\..\u8g2\u8g2\csrc/u8x8_d_uc1617.c **** 	  x += 8;
 179:..\..\..\u8g2\u8g2\csrc/u8x8_d_uc1617.c **** 	  c--;
 173              		.loc 1 179 0
 174 0080 09F1FF39 		add	r9, r9, #-1
 175              	.LVL25:
 176:..\..\..\u8g2\u8g2\csrc/u8x8_d_uc1617.c **** 	  ptr += 8;
 176              		.loc 1 176 0
 177 0084 FFF7FEFF 		bl	u8x8_cad_SendData
 178              	.LVL26:
 180:..\..\..\u8g2\u8g2\csrc/u8x8_d_uc1617.c **** 	} while( c > 0 );	
 179              		.loc 1 180 0
 180 0088 19F0FF09 		ands	r9, r9, #255
 181              	.LVL27:
 182 008c EAD1     		bne	.L10
 181:..\..\..\u8g2\u8g2\csrc/u8x8_d_uc1617.c **** 	a--;
 183              		.loc 1 181 0
 184 008e 013F     		subs	r7, r7, #1
 185              	.LVL28:
 182:..\..\..\u8g2\u8g2\csrc/u8x8_d_uc1617.c ****       } while( a > 0 );
 186              		.loc 1 182 0
 187 0090 17F0FF07 		ands	r7, r7, #255
 188              	.LVL29:
 189 0094 E2D1     		bne	.L11
 183:..\..\..\u8g2\u8g2\csrc/u8x8_d_uc1617.c **** 
 184:..\..\..\u8g2\u8g2\csrc/u8x8_d_uc1617.c ****       x = ((u8x8_tile_t *)arg_ptr)->x_pos;
 185:..\..\..\u8g2\u8g2\csrc/u8x8_d_uc1617.c ****       x *= 8;
 186:..\..\..\u8g2\u8g2\csrc/u8x8_d_uc1617.c ****       x += u8x8->x_offset;
 190              		.loc 1 186 0
 191 0096 94F82230 		ldrb	r3, [r4, #34]	@ zero_extendqisi2
 184:..\..\..\u8g2\u8g2\csrc/u8x8_d_uc1617.c ****       x *= 8;
 192              		.loc 1 184 0
 193 009a 98F80570 		ldrb	r7, [r8, #5]	@ zero_extendqisi2
 194              	.LVL30:
 187:..\..\..\u8g2\u8g2\csrc/u8x8_d_uc1617.c ****       u8x8_cad_SendCmd(u8x8, 0x060 | (x&15));
 195              		.loc 1 187 0
 196 009e 2046     		mov	r0, r4
 186:..\..\..\u8g2\u8g2\csrc/u8x8_d_uc1617.c ****       u8x8_cad_SendCmd(u8x8, 0x060 | (x&15));
 197              		.loc 1 186 0
 198 00a0 03EBC707 		add	r7, r3, r7, lsl #3
ARM GAS  C:\Users\jesse\AppData\Local\Temp\cc161MlE.s 			page 8


 199              	.LVL31:
 200 00a4 07F0FF07 		and	r7, r7, #255
 201              	.LVL32:
 202              		.loc 1 187 0
 203 00a8 07F00F01 		and	r1, r7, #15
 204 00ac 41F06001 		orr	r1, r1, #96
 205 00b0 FFF7FEFF 		bl	u8x8_cad_SendCmd
 206              	.LVL33:
 188:..\..\..\u8g2\u8g2\csrc/u8x8_d_uc1617.c ****       u8x8_cad_SendCmd(u8x8, 0x070 | (x>>4));    
 207              		.loc 1 188 0
 208 00b4 3909     		lsrs	r1, r7, #4
 209 00b6 41F07001 		orr	r1, r1, #112
 210 00ba 2046     		mov	r0, r4
 211 00bc FFF7FEFF 		bl	u8x8_cad_SendCmd
 212              	.LVL34:
 189:..\..\..\u8g2\u8g2\csrc/u8x8_d_uc1617.c ****       u8x8_cad_SendCmd(u8x8, 0x00 | (y+1));
 213              		.loc 1 189 0
 214 00c0 711C     		adds	r1, r6, #1
 215 00c2 C9B2     		uxtb	r1, r1
 216 00c4 2046     		mov	r0, r4
 217 00c6 FFF7FEFF 		bl	u8x8_cad_SendCmd
 218              	.LVL35:
 219              	.L14:
 190:..\..\..\u8g2\u8g2\csrc/u8x8_d_uc1617.c ****       a = arg_int;
 191:..\..\..\u8g2\u8g2\csrc/u8x8_d_uc1617.c ****       do
 192:..\..\..\u8g2\u8g2\csrc/u8x8_d_uc1617.c ****       {
 193:..\..\..\u8g2\u8g2\csrc/u8x8_d_uc1617.c **** 	c = ((u8x8_tile_t *)arg_ptr)->cnt;
 220              		.loc 1 193 0
 221 00ca 98F80460 		ldrb	r6, [r8, #4]	@ zero_extendqisi2
 222              	.LVL36:
 194:..\..\..\u8g2\u8g2\csrc/u8x8_d_uc1617.c **** 	ptr = ((u8x8_tile_t *)arg_ptr)->tile_ptr;
 223              		.loc 1 194 0
 224 00ce D8F80070 		ldr	r7, [r8]
 225              	.LVL37:
 226              	.L13:
 169:..\..\..\u8g2\u8g2\csrc/u8x8_d_uc1617.c ****       do
 227              		.loc 1 169 0 discriminator 1
 228 00d2 224B     		ldr	r3, .L29
 229 00d4 07F10802 		add	r2, r7, #8
 230              	.LVL38:
 231              	.L12:
 232              	.LBB8:
 233              	.LBB9:
 108:..\..\..\u8g2\u8g2\csrc/u8x8_d_uc1617.c ****   }
 234              		.loc 1 108 0
 235 00d8 17F8010B 		ldrb	r0, [r7], #1	@ zero_extendqisi2
 236              	.LVL39:
 237 00dc 0009     		lsrs	r0, r0, #4
 238 00de FFF7FEFF 		bl	u8x8_upscale_4bit
 239              	.LVL40:
 106:..\..\..\u8g2\u8g2\csrc/u8x8_d_uc1617.c ****   {
 240              		.loc 1 106 0
 241 00e2 9742     		cmp	r7, r2
 108:..\..\..\u8g2\u8g2\csrc/u8x8_d_uc1617.c ****   }
 242              		.loc 1 108 0
 243 00e4 03F8010F 		strb	r0, [r3, #1]!
 244              	.LVL41:
ARM GAS  C:\Users\jesse\AppData\Local\Temp\cc161MlE.s 			page 9


 106:..\..\..\u8g2\u8g2\csrc/u8x8_d_uc1617.c ****   {
 245              		.loc 1 106 0
 246 00e8 F6D1     		bne	.L12
 247              	.LVL42:
 248              	.LBE9:
 249              	.LBE8:
 195:..\..\..\u8g2\u8g2\csrc/u8x8_d_uc1617.c **** 	do
 196:..\..\..\u8g2\u8g2\csrc/u8x8_d_uc1617.c **** 	{
 197:..\..\..\u8g2\u8g2\csrc/u8x8_d_uc1617.c **** 	  u8x8_cad_SendData(u8x8, 8, u8x8_convert_tile_for_uc1617_upper4bit(ptr));
 250              		.loc 1 197 0
 251 00ea 1D4A     		ldr	r2, .L29+4
 252 00ec 0821     		movs	r1, #8
 253 00ee 2046     		mov	r0, r4
 198:..\..\..\u8g2\u8g2\csrc/u8x8_d_uc1617.c **** 	  ptr += 8;
 199:..\..\..\u8g2\u8g2\csrc/u8x8_d_uc1617.c **** 	  x += 8;
 200:..\..\..\u8g2\u8g2\csrc/u8x8_d_uc1617.c **** 	  c--;
 254              		.loc 1 200 0
 255 00f0 013E     		subs	r6, r6, #1
 256              	.LVL43:
 197:..\..\..\u8g2\u8g2\csrc/u8x8_d_uc1617.c **** 	  ptr += 8;
 257              		.loc 1 197 0
 258 00f2 FFF7FEFF 		bl	u8x8_cad_SendData
 259              	.LVL44:
 201:..\..\..\u8g2\u8g2\csrc/u8x8_d_uc1617.c **** 	} while( c > 0 );	
 260              		.loc 1 201 0
 261 00f6 16F0FF06 		ands	r6, r6, #255
 262              	.LVL45:
 263 00fa EAD1     		bne	.L13
 202:..\..\..\u8g2\u8g2\csrc/u8x8_d_uc1617.c **** 	a--;
 264              		.loc 1 202 0
 265 00fc 013D     		subs	r5, r5, #1
 266              	.LVL46:
 203:..\..\..\u8g2\u8g2\csrc/u8x8_d_uc1617.c ****       } while( a > 0 );
 267              		.loc 1 203 0
 268 00fe 15F0FF05 		ands	r5, r5, #255
 269              	.LVL47:
 270 0102 E2D1     		bne	.L14
 271 0104 22E0     		b	.L27
 272              	.LVL48:
 273              	.L4:
 204:..\..\..\u8g2\u8g2\csrc/u8x8_d_uc1617.c ****           
 205:..\..\..\u8g2\u8g2\csrc/u8x8_d_uc1617.c ****       u8x8_cad_EndTransfer(u8x8);
 206:..\..\..\u8g2\u8g2\csrc/u8x8_d_uc1617.c ****       break;
 207:..\..\..\u8g2\u8g2\csrc/u8x8_d_uc1617.c ****     case U8X8_MSG_DISPLAY_SET_POWER_SAVE:
 208:..\..\..\u8g2\u8g2\csrc/u8x8_d_uc1617.c ****       if ( arg_int == 0 )
 274              		.loc 1 208 0
 275 0106 0AB9     		cbnz	r2, .L15
 209:..\..\..\u8g2\u8g2\csrc/u8x8_d_uc1617.c **** 	u8x8_cad_SendSequence(u8x8, u8x8_d_uc1617_powersave0_seq);
 276              		.loc 1 209 0
 277 0108 1649     		ldr	r1, .L29+8
 278 010a 00E0     		b	.L26
 279              	.L15:
 210:..\..\..\u8g2\u8g2\csrc/u8x8_d_uc1617.c ****       else
 211:..\..\..\u8g2\u8g2\csrc/u8x8_d_uc1617.c **** 	u8x8_cad_SendSequence(u8x8, u8x8_d_uc1617_powersave1_seq);
 280              		.loc 1 211 0
 281 010c 1649     		ldr	r1, .L29+12
 282              	.L26:
ARM GAS  C:\Users\jesse\AppData\Local\Temp\cc161MlE.s 			page 10


 283 010e 2046     		mov	r0, r4
 284              	.LVL49:
 285 0110 FFF7FEFF 		bl	u8x8_cad_SendSequence
 286              	.LVL50:
 287 0114 0DE0     		b	.L24
 288              	.LVL51:
 289              	.L6:
 212:..\..\..\u8g2\u8g2\csrc/u8x8_d_uc1617.c ****       break;
 213:..\..\..\u8g2\u8g2\csrc/u8x8_d_uc1617.c ****     case U8X8_MSG_DISPLAY_SET_FLIP_MODE:
 214:..\..\..\u8g2\u8g2\csrc/u8x8_d_uc1617.c ****       if ( arg_int == 0 )
 290              		.loc 1 214 0
 291 0116 2AB9     		cbnz	r2, .L16
 215:..\..\..\u8g2\u8g2\csrc/u8x8_d_uc1617.c ****       {
 216:..\..\..\u8g2\u8g2\csrc/u8x8_d_uc1617.c **** 	u8x8_cad_SendSequence(u8x8, u8x8_d_uc1617_flip0_seq);
 292              		.loc 1 216 0
 293 0118 1449     		ldr	r1, .L29+16
 294 011a FFF7FEFF 		bl	u8x8_cad_SendSequence
 295              	.LVL52:
 217:..\..\..\u8g2\u8g2\csrc/u8x8_d_uc1617.c **** 	u8x8->x_offset = u8x8->display_info->default_x_offset;
 296              		.loc 1 217 0
 297 011e 2368     		ldr	r3, [r4]
 298 0120 9B7C     		ldrb	r3, [r3, #18]	@ zero_extendqisi2
 299 0122 04E0     		b	.L25
 300              	.LVL53:
 301              	.L16:
 218:..\..\..\u8g2\u8g2\csrc/u8x8_d_uc1617.c ****       }
 219:..\..\..\u8g2\u8g2\csrc/u8x8_d_uc1617.c ****       else
 220:..\..\..\u8g2\u8g2\csrc/u8x8_d_uc1617.c ****       {
 221:..\..\..\u8g2\u8g2\csrc/u8x8_d_uc1617.c **** 	u8x8_cad_SendSequence(u8x8, u8x8_d_uc1617_flip1_seq);
 302              		.loc 1 221 0
 303 0124 1249     		ldr	r1, .L29+20
 304 0126 FFF7FEFF 		bl	u8x8_cad_SendSequence
 305              	.LVL54:
 222:..\..\..\u8g2\u8g2\csrc/u8x8_d_uc1617.c **** 	u8x8->x_offset = u8x8->display_info->flipmode_x_offset;
 306              		.loc 1 222 0
 307 012a 2368     		ldr	r3, [r4]
 308 012c DB7C     		ldrb	r3, [r3, #19]	@ zero_extendqisi2
 309              	.L25:
 310 012e 84F82230 		strb	r3, [r4, #34]
 311              	.L24:
 223:..\..\..\u8g2\u8g2\csrc/u8x8_d_uc1617.c ****       }	
 224:..\..\..\u8g2\u8g2\csrc/u8x8_d_uc1617.c ****       break;
 225:..\..\..\u8g2\u8g2\csrc/u8x8_d_uc1617.c **** #ifdef U8X8_WITH_SET_CONTRAST
 226:..\..\..\u8g2\u8g2\csrc/u8x8_d_uc1617.c ****     case U8X8_MSG_DISPLAY_SET_CONTRAST:
 227:..\..\..\u8g2\u8g2\csrc/u8x8_d_uc1617.c ****       u8x8_cad_StartTransfer(u8x8);
 228:..\..\..\u8g2\u8g2\csrc/u8x8_d_uc1617.c ****       u8x8_cad_SendCmd(u8x8, 0x081 );
 229:..\..\..\u8g2\u8g2\csrc/u8x8_d_uc1617.c ****       u8x8_cad_SendArg(u8x8, arg_int  );	/* uc1617 has range from 0 to 255 */
 230:..\..\..\u8g2\u8g2\csrc/u8x8_d_uc1617.c ****       u8x8_cad_EndTransfer(u8x8);
 231:..\..\..\u8g2\u8g2\csrc/u8x8_d_uc1617.c ****       break;
 232:..\..\..\u8g2\u8g2\csrc/u8x8_d_uc1617.c **** #endif
 233:..\..\..\u8g2\u8g2\csrc/u8x8_d_uc1617.c ****     default:
 234:..\..\..\u8g2\u8g2\csrc/u8x8_d_uc1617.c ****       return 0;
 235:..\..\..\u8g2\u8g2\csrc/u8x8_d_uc1617.c ****   }
 236:..\..\..\u8g2\u8g2\csrc/u8x8_d_uc1617.c ****   return 1;
 312              		.loc 1 236 0
 313 0132 0120     		movs	r0, #1
 314 0134 BDE8F087 		pop	{r4, r5, r6, r7, r8, r9, r10, pc}
ARM GAS  C:\Users\jesse\AppData\Local\Temp\cc161MlE.s 			page 11


 315              	.LVL55:
 316              	.L7:
 227:..\..\..\u8g2\u8g2\csrc/u8x8_d_uc1617.c ****       u8x8_cad_SendCmd(u8x8, 0x081 );
 317              		.loc 1 227 0
 318 0138 FFF7FEFF 		bl	u8x8_cad_StartTransfer
 319              	.LVL56:
 228:..\..\..\u8g2\u8g2\csrc/u8x8_d_uc1617.c ****       u8x8_cad_SendArg(u8x8, arg_int  );	/* uc1617 has range from 0 to 255 */
 320              		.loc 1 228 0
 321 013c 8121     		movs	r1, #129
 322 013e 2046     		mov	r0, r4
 323 0140 FFF7FEFF 		bl	u8x8_cad_SendCmd
 324              	.LVL57:
 229:..\..\..\u8g2\u8g2\csrc/u8x8_d_uc1617.c ****       u8x8_cad_EndTransfer(u8x8);
 325              		.loc 1 229 0
 326 0144 2946     		mov	r1, r5
 327 0146 2046     		mov	r0, r4
 328 0148 FFF7FEFF 		bl	u8x8_cad_SendArg
 329              	.LVL58:
 330              	.L27:
 230:..\..\..\u8g2\u8g2\csrc/u8x8_d_uc1617.c ****       break;
 331              		.loc 1 230 0
 332 014c 2046     		mov	r0, r4
 333 014e FFF7FEFF 		bl	u8x8_cad_EndTransfer
 334              	.LVL59:
 335 0152 EEE7     		b	.L24
 336              	.LVL60:
 337              	.L17:
 234:..\..\..\u8g2\u8g2\csrc/u8x8_d_uc1617.c ****   }
 338              		.loc 1 234 0
 339 0154 0020     		movs	r0, #0
 340              	.LVL61:
 237:..\..\..\u8g2\u8g2\csrc/u8x8_d_uc1617.c **** }
 341              		.loc 1 237 0
 342 0156 BDE8F087 		pop	{r4, r5, r6, r7, r8, r9, r10, pc}
 343              	.LVL62:
 344              	.L30:
 345 015a 00BF     		.align	2
 346              	.L29:
 347 015c FFFFFFFF 		.word	.LANCHOR0-1
 348 0160 00000000 		.word	.LANCHOR0
 349 0164 00000000 		.word	.LANCHOR1
 350 0168 05000000 		.word	.LANCHOR1+5
 351 016c 0A000000 		.word	.LANCHOR1+10
 352 0170 0F000000 		.word	.LANCHOR1+15
 353              		.cfi_endproc
 354              	.LFE3:
 355              		.size	u8x8_d_uc1617_common, .-u8x8_d_uc1617_common
 356              		.section	.text.u8x8_d_uc1617_jlx128128,"ax",%progbits
 357              		.align	1
 358              		.global	u8x8_d_uc1617_jlx128128
 359              		.thumb
 360              		.thumb_func
 361              		.type	u8x8_d_uc1617_jlx128128, %function
 362              	u8x8_d_uc1617_jlx128128:
 363              	.LFB4:
 238:..\..\..\u8g2\u8g2\csrc/u8x8_d_uc1617.c **** 
 239:..\..\..\u8g2\u8g2\csrc/u8x8_d_uc1617.c **** /*================================================*/
ARM GAS  C:\Users\jesse\AppData\Local\Temp\cc161MlE.s 			page 12


 240:..\..\..\u8g2\u8g2\csrc/u8x8_d_uc1617.c **** /* JLX128128 */
 241:..\..\..\u8g2\u8g2\csrc/u8x8_d_uc1617.c **** 
 242:..\..\..\u8g2\u8g2\csrc/u8x8_d_uc1617.c **** static const uint8_t u8x8_d_uc1617_jlx128128_init_seq[] = {
 243:..\..\..\u8g2\u8g2\csrc/u8x8_d_uc1617.c ****     
 244:..\..\..\u8g2\u8g2\csrc/u8x8_d_uc1617.c ****   U8X8_START_TRANSFER(),             	/* enable chip, delay is part of the transfer start */
 245:..\..\..\u8g2\u8g2\csrc/u8x8_d_uc1617.c ****   
 246:..\..\..\u8g2\u8g2\csrc/u8x8_d_uc1617.c ****   U8X8_C(0x0e2),            			/* reset */
 247:..\..\..\u8g2\u8g2\csrc/u8x8_d_uc1617.c ****   U8X8_DLY(10),
 248:..\..\..\u8g2\u8g2\csrc/u8x8_d_uc1617.c ****   
 249:..\..\..\u8g2\u8g2\csrc/u8x8_d_uc1617.c ****   //U8X8_D1(0x0ff),
 250:..\..\..\u8g2\u8g2\csrc/u8x8_d_uc1617.c ****   U8X8_C(0x027),            			/* temperature compensation */
 251:..\..\..\u8g2\u8g2\csrc/u8x8_d_uc1617.c ****   U8X8_C(0x02b),            			/* panel loading: 13-18nF */
 252:..\..\..\u8g2\u8g2\csrc/u8x8_d_uc1617.c ****   
 253:..\..\..\u8g2\u8g2\csrc/u8x8_d_uc1617.c ****   U8X8_C(0x02f),            			/* internal pump control */
 254:..\..\..\u8g2\u8g2\csrc/u8x8_d_uc1617.c ****   U8X8_C(0x0eb),            			/* bias=1/11 */
 255:..\..\..\u8g2\u8g2\csrc/u8x8_d_uc1617.c ****   U8X8_CA(0x081, 0x028),		/* set contrast */
 256:..\..\..\u8g2\u8g2\csrc/u8x8_d_uc1617.c ****   //U8X8_C(0x0a9),            			/* used in display datasheet, but cmd not described in controller 
 257:..\..\..\u8g2\u8g2\csrc/u8x8_d_uc1617.c ****   
 258:..\..\..\u8g2\u8g2\csrc/u8x8_d_uc1617.c ****   U8X8_CA(0x0f1, 0x07f),			/* set COM end */
 259:..\..\..\u8g2\u8g2\csrc/u8x8_d_uc1617.c ****   U8X8_CA(0x0f2, 0x000),		/* display line start */
 260:..\..\..\u8g2\u8g2\csrc/u8x8_d_uc1617.c ****   U8X8_CA(0x0f3, 127),			/* display line end */
 261:..\..\..\u8g2\u8g2\csrc/u8x8_d_uc1617.c ****   U8X8_C(0x0a3),            			/* line rate */
 262:..\..\..\u8g2\u8g2\csrc/u8x8_d_uc1617.c ****   
 263:..\..\..\u8g2\u8g2\csrc/u8x8_d_uc1617.c ****   U8X8_C(0x0d3),            			/* */
 264:..\..\..\u8g2\u8g2\csrc/u8x8_d_uc1617.c ****   U8X8_C(0x0d7),            			/* */
 265:..\..\..\u8g2\u8g2\csrc/u8x8_d_uc1617.c ****   
 266:..\..\..\u8g2\u8g2\csrc/u8x8_d_uc1617.c **** 
 267:..\..\..\u8g2\u8g2\csrc/u8x8_d_uc1617.c ****   //U8X8_C(0x0a5),            			/* all pixel on */
 268:..\..\..\u8g2\u8g2\csrc/u8x8_d_uc1617.c **** 
 269:..\..\..\u8g2\u8g2\csrc/u8x8_d_uc1617.c ****   //U8X8_C(0x0d1),            			/* display pattern */  
 270:..\..\..\u8g2\u8g2\csrc/u8x8_d_uc1617.c ****   U8X8_C(0x08b),            			/* auto increment */
 271:..\..\..\u8g2\u8g2\csrc/u8x8_d_uc1617.c ****   U8X8_C(0x0c0),            	/* LCD Mapping */
 272:..\..\..\u8g2\u8g2\csrc/u8x8_d_uc1617.c **** 
 273:..\..\..\u8g2\u8g2\csrc/u8x8_d_uc1617.c ****   //U8X8_C(0x0ad),            			/* display enable BW Mode*/
 274:..\..\..\u8g2\u8g2\csrc/u8x8_d_uc1617.c ****   //U8X8_C(0x0af),            			/* display enable GS Mode*/
 275:..\..\..\u8g2\u8g2\csrc/u8x8_d_uc1617.c ****   
 276:..\..\..\u8g2\u8g2\csrc/u8x8_d_uc1617.c ****   U8X8_END_TRANSFER(),             	/* disable chip */
 277:..\..\..\u8g2\u8g2\csrc/u8x8_d_uc1617.c ****   U8X8_END()             			/* end of sequence */
 278:..\..\..\u8g2\u8g2\csrc/u8x8_d_uc1617.c **** };
 279:..\..\..\u8g2\u8g2\csrc/u8x8_d_uc1617.c **** 
 280:..\..\..\u8g2\u8g2\csrc/u8x8_d_uc1617.c **** static const u8x8_display_info_t u8x8_uc1617_128x128_display_info =
 281:..\..\..\u8g2\u8g2\csrc/u8x8_d_uc1617.c **** {
 282:..\..\..\u8g2\u8g2\csrc/u8x8_d_uc1617.c ****   /* chip_enable_level = */ 0,
 283:..\..\..\u8g2\u8g2\csrc/u8x8_d_uc1617.c ****   /* chip_disable_level = */ 1,
 284:..\..\..\u8g2\u8g2\csrc/u8x8_d_uc1617.c ****   
 285:..\..\..\u8g2\u8g2\csrc/u8x8_d_uc1617.c ****   /* post_chip_enable_wait_ns = */ 10,	/* uc1617 datasheet, page 54, actually 5 */
 286:..\..\..\u8g2\u8g2\csrc/u8x8_d_uc1617.c ****   /* pre_chip_disable_wait_ns = */ 10,	/* uc1617 datasheet, page 54, actually 5 */
 287:..\..\..\u8g2\u8g2\csrc/u8x8_d_uc1617.c ****   /* reset_pulse_width_ms = */ 10, 
 288:..\..\..\u8g2\u8g2\csrc/u8x8_d_uc1617.c ****   /* post_reset_wait_ms = */ 20, 	/* uc1617 datasheet, page 56 */
 289:..\..\..\u8g2\u8g2\csrc/u8x8_d_uc1617.c ****   /* sda_setup_time_ns = */ 24,		/* uc1617 datasheet, page 54 */
 290:..\..\..\u8g2\u8g2\csrc/u8x8_d_uc1617.c ****   /* sck_pulse_width_ns = */ 45,	/* half of cycle time  uc1617 datasheet, page 54*/
 291:..\..\..\u8g2\u8g2\csrc/u8x8_d_uc1617.c ****   /* sck_clock_hz = */ 8000000UL,	/* since Arduino 1.6.0, the SPI bus speed in Hz. Should be  10000
 292:..\..\..\u8g2\u8g2\csrc/u8x8_d_uc1617.c ****   /* spi_mode = */ 0,		/* active high, rising edge */
 293:..\..\..\u8g2\u8g2\csrc/u8x8_d_uc1617.c ****   /* i2c_bus_clock_100kHz = */ 4,
 294:..\..\..\u8g2\u8g2\csrc/u8x8_d_uc1617.c ****   /* data_setup_time_ns = */ 30,	/* uc1617 datasheet, page 52 */
 295:..\..\..\u8g2\u8g2\csrc/u8x8_d_uc1617.c ****   /* write_pulse_width_ns = */ 65,	/* uc1617 datasheet, page 52 */
 296:..\..\..\u8g2\u8g2\csrc/u8x8_d_uc1617.c ****   /* tile_width = */ 16,		/* width of 16*8=128 pixel */
ARM GAS  C:\Users\jesse\AppData\Local\Temp\cc161MlE.s 			page 13


 297:..\..\..\u8g2\u8g2\csrc/u8x8_d_uc1617.c ****   /* tile_hight = */ 16,
 298:..\..\..\u8g2\u8g2\csrc/u8x8_d_uc1617.c ****   /* default_x_offset = */ 0,
 299:..\..\..\u8g2\u8g2\csrc/u8x8_d_uc1617.c ****   /* flipmode_x_offset = */ 0,
 300:..\..\..\u8g2\u8g2\csrc/u8x8_d_uc1617.c ****   /* pixel_width = */ 128,
 301:..\..\..\u8g2\u8g2\csrc/u8x8_d_uc1617.c ****   /* pixel_height = */ 128
 302:..\..\..\u8g2\u8g2\csrc/u8x8_d_uc1617.c **** };
 303:..\..\..\u8g2\u8g2\csrc/u8x8_d_uc1617.c **** 
 304:..\..\..\u8g2\u8g2\csrc/u8x8_d_uc1617.c **** uint8_t u8x8_d_uc1617_jlx128128(u8x8_t *u8x8, uint8_t msg, uint8_t arg_int, void *arg_ptr)
 305:..\..\..\u8g2\u8g2\csrc/u8x8_d_uc1617.c **** {
 364              		.loc 1 305 0
 365              		.cfi_startproc
 366              		@ args = 0, pretend = 0, frame = 0
 367              		@ frame_needed = 0, uses_anonymous_args = 0
 368              	.LVL63:
 369 0000 38B5     		push	{r3, r4, r5, lr}
 370              		.cfi_def_cfa_offset 16
 371              		.cfi_offset 3, -16
 372              		.cfi_offset 4, -12
 373              		.cfi_offset 5, -8
 374              		.cfi_offset 14, -4
 375              		.loc 1 305 0
 376 0002 0446     		mov	r4, r0
 377 0004 0D46     		mov	r5, r1
 306:..\..\..\u8g2\u8g2\csrc/u8x8_d_uc1617.c ****   /* call common procedure first and handle messages there */
 307:..\..\..\u8g2\u8g2\csrc/u8x8_d_uc1617.c ****   if ( u8x8_d_uc1617_common(u8x8, msg, arg_int, arg_ptr) == 0 )
 378              		.loc 1 307 0
 379 0006 FFF7FEFF 		bl	u8x8_d_uc1617_common
 380              	.LVL64:
 381 000a 80B9     		cbnz	r0, .L35
 308:..\..\..\u8g2\u8g2\csrc/u8x8_d_uc1617.c ****   {
 309:..\..\..\u8g2\u8g2\csrc/u8x8_d_uc1617.c ****     /* msg not handled, then try here */
 310:..\..\..\u8g2\u8g2\csrc/u8x8_d_uc1617.c ****     switch(msg)
 382              		.loc 1 310 0
 383 000c 092D     		cmp	r5, #9
 384 000e 02D0     		beq	.L33
 385 0010 0A2D     		cmp	r5, #10
 386 0012 05D0     		beq	.L34
 387 0014 38BD     		pop	{r3, r4, r5, pc}
 388              	.LVL65:
 389              	.L33:
 311:..\..\..\u8g2\u8g2\csrc/u8x8_d_uc1617.c ****     {
 312:..\..\..\u8g2\u8g2\csrc/u8x8_d_uc1617.c ****       case U8X8_MSG_DISPLAY_SETUP_MEMORY:
 313:..\..\..\u8g2\u8g2\csrc/u8x8_d_uc1617.c **** 	u8x8_d_helper_display_setup_memory(u8x8, &u8x8_uc1617_128x128_display_info);
 390              		.loc 1 313 0
 391 0016 0749     		ldr	r1, .L36
 392 0018 2046     		mov	r0, r4
 393 001a FFF7FEFF 		bl	u8x8_d_helper_display_setup_memory
 394              	.LVL66:
 395 001e 06E0     		b	.L35
 396              	.L34:
 314:..\..\..\u8g2\u8g2\csrc/u8x8_d_uc1617.c **** 	break;
 315:..\..\..\u8g2\u8g2\csrc/u8x8_d_uc1617.c ****       case U8X8_MSG_DISPLAY_INIT:
 316:..\..\..\u8g2\u8g2\csrc/u8x8_d_uc1617.c **** 	u8x8_d_helper_display_init(u8x8);
 397              		.loc 1 316 0
 398 0020 2046     		mov	r0, r4
 399 0022 FFF7FEFF 		bl	u8x8_d_helper_display_init
 400              	.LVL67:
ARM GAS  C:\Users\jesse\AppData\Local\Temp\cc161MlE.s 			page 14


 317:..\..\..\u8g2\u8g2\csrc/u8x8_d_uc1617.c **** 	u8x8_cad_SendSequence(u8x8, u8x8_d_uc1617_jlx128128_init_seq);
 401              		.loc 1 317 0
 402 0026 0449     		ldr	r1, .L36+4
 403 0028 2046     		mov	r0, r4
 404 002a FFF7FEFF 		bl	u8x8_cad_SendSequence
 405              	.LVL68:
 406              	.L35:
 318:..\..\..\u8g2\u8g2\csrc/u8x8_d_uc1617.c **** 	break;
 319:..\..\..\u8g2\u8g2\csrc/u8x8_d_uc1617.c ****       default:
 320:..\..\..\u8g2\u8g2\csrc/u8x8_d_uc1617.c **** 	return 0;		/* msg unknown */
 321:..\..\..\u8g2\u8g2\csrc/u8x8_d_uc1617.c ****     }
 322:..\..\..\u8g2\u8g2\csrc/u8x8_d_uc1617.c ****   }
 323:..\..\..\u8g2\u8g2\csrc/u8x8_d_uc1617.c ****   return 1;
 407              		.loc 1 323 0
 408 002e 0120     		movs	r0, #1
 324:..\..\..\u8g2\u8g2\csrc/u8x8_d_uc1617.c **** }
 409              		.loc 1 324 0
 410 0030 38BD     		pop	{r3, r4, r5, pc}
 411              	.LVL69:
 412              	.L37:
 413 0032 00BF     		.align	2
 414              	.L36:
 415 0034 14000000 		.word	.LANCHOR1+20
 416 0038 2C000000 		.word	.LANCHOR1+44
 417              		.cfi_endproc
 418              	.LFE4:
 419              		.size	u8x8_d_uc1617_jlx128128, .-u8x8_d_uc1617_jlx128128
 420              		.section	.rodata
 421              		.align	2
 422              		.set	.LANCHOR1,. + 0
 423              		.type	u8x8_d_uc1617_powersave0_seq, %object
 424              		.size	u8x8_d_uc1617_powersave0_seq, 5
 425              	u8x8_d_uc1617_powersave0_seq:
 426 0000 18       		.byte	24
 427 0001 15       		.byte	21
 428 0002 AF       		.byte	-81
 429 0003 19       		.byte	25
 430 0004 FF       		.byte	-1
 431              		.type	u8x8_d_uc1617_powersave1_seq, %object
 432              		.size	u8x8_d_uc1617_powersave1_seq, 5
 433              	u8x8_d_uc1617_powersave1_seq:
 434 0005 18       		.byte	24
 435 0006 15       		.byte	21
 436 0007 AC       		.byte	-84
 437 0008 19       		.byte	25
 438 0009 FF       		.byte	-1
 439              		.type	u8x8_d_uc1617_flip0_seq, %object
 440              		.size	u8x8_d_uc1617_flip0_seq, 5
 441              	u8x8_d_uc1617_flip0_seq:
 442 000a 18       		.byte	24
 443 000b 15       		.byte	21
 444 000c C0       		.byte	-64
 445 000d 19       		.byte	25
 446 000e FF       		.byte	-1
 447              		.type	u8x8_d_uc1617_flip1_seq, %object
 448              		.size	u8x8_d_uc1617_flip1_seq, 5
 449              	u8x8_d_uc1617_flip1_seq:
ARM GAS  C:\Users\jesse\AppData\Local\Temp\cc161MlE.s 			page 15


 450 000f 18       		.byte	24
 451 0010 15       		.byte	21
 452 0011 C6       		.byte	-58
 453 0012 19       		.byte	25
 454 0013 FF       		.byte	-1
 455              		.type	u8x8_uc1617_128x128_display_info, %object
 456              		.size	u8x8_uc1617_128x128_display_info, 24
 457              	u8x8_uc1617_128x128_display_info:
 458 0014 00       		.byte	0
 459 0015 01       		.byte	1
 460 0016 0A       		.byte	10
 461 0017 0A       		.byte	10
 462 0018 0A       		.byte	10
 463 0019 14       		.byte	20
 464 001a 18       		.byte	24
 465 001b 2D       		.byte	45
 466 001c 00127A00 		.word	8000000
 467 0020 00       		.byte	0
 468 0021 04       		.byte	4
 469 0022 1E       		.byte	30
 470 0023 41       		.byte	65
 471 0024 10       		.byte	16
 472 0025 10       		.byte	16
 473 0026 00       		.byte	0
 474 0027 00       		.byte	0
 475 0028 8000     		.short	128
 476 002a 8000     		.short	128
 477              		.type	u8x8_d_uc1617_jlx128128_init_seq, %object
 478              		.size	u8x8_d_uc1617_jlx128128_init_seq, 41
 479              	u8x8_d_uc1617_jlx128128_init_seq:
 480 002c 18       		.byte	24
 481 002d 15       		.byte	21
 482 002e E2       		.byte	-30
 483 002f FE       		.byte	-2
 484 0030 0A       		.byte	10
 485 0031 15       		.byte	21
 486 0032 27       		.byte	39
 487 0033 15       		.byte	21
 488 0034 2B       		.byte	43
 489 0035 15       		.byte	21
 490 0036 2F       		.byte	47
 491 0037 15       		.byte	21
 492 0038 EB       		.byte	-21
 493 0039 15       		.byte	21
 494 003a 81       		.byte	-127
 495 003b 16       		.byte	22
 496 003c 28       		.byte	40
 497 003d 15       		.byte	21
 498 003e F1       		.byte	-15
 499 003f 16       		.byte	22
 500 0040 7F       		.byte	127
 501 0041 15       		.byte	21
 502 0042 F2       		.byte	-14
 503 0043 16       		.byte	22
 504 0044 00       		.byte	0
 505 0045 15       		.byte	21
 506 0046 F3       		.byte	-13
ARM GAS  C:\Users\jesse\AppData\Local\Temp\cc161MlE.s 			page 16


 507 0047 16       		.byte	22
 508 0048 7F       		.byte	127
 509 0049 15       		.byte	21
 510 004a A3       		.byte	-93
 511 004b 15       		.byte	21
 512 004c D3       		.byte	-45
 513 004d 15       		.byte	21
 514 004e D7       		.byte	-41
 515 004f 15       		.byte	21
 516 0050 8B       		.byte	-117
 517 0051 15       		.byte	21
 518 0052 C0       		.byte	-64
 519 0053 19       		.byte	25
 520 0054 FF       		.byte	-1
 521              		.bss
 522              		.set	.LANCHOR0,. + 0
 523              		.type	u8x8_uc1617_tile_half_buffer, %object
 524              		.size	u8x8_uc1617_tile_half_buffer, 8
 525              	u8x8_uc1617_tile_half_buffer:
 526 0000 00000000 		.space	8
 526      00000000 
 527              		.text
 528              	.Letext0:
 529              		.file 2 "c:\\program files (x86)\\cypress\\psoc creator\\4.4\\psoc creator\\import\\gnu\\arm\\5.4.
 530              		.file 3 "c:\\program files (x86)\\cypress\\psoc creator\\4.4\\psoc creator\\import\\gnu\\arm\\5.4.
 531              		.file 4 "..\\..\\..\\u8g2\\u8g2\\csrc\\u8x8.h"