ARM GAS  C:\Users\jesse\AppData\Local\Temp\cccVt78O.s 			page 1


   1              		.syntax unified
   2              		.cpu cortex-m3
   3              		.fpu softvfp
   4              		.eabi_attribute 20, 1
   5              		.eabi_attribute 21, 1
   6              		.eabi_attribute 23, 3
   7              		.eabi_attribute 24, 1
   8              		.eabi_attribute 25, 1
   9              		.eabi_attribute 26, 1
  10              		.eabi_attribute 30, 4
  11              		.eabi_attribute 34, 1
  12              		.eabi_attribute 18, 4
  13              		.thumb
  14              		.syntax unified
  15              		.file	"u8x8_d_ist3088.c"
  16              		.text
  17              	.Ltext0:
  18              		.cfi_sections	.debug_frame
  19              		.section	.text.u8x8_d_ist3088_320x240,"ax",%progbits
  20              		.align	1
  21              		.global	u8x8_d_ist3088_320x240
  22              		.thumb
  23              		.thumb_func
  24              		.type	u8x8_d_ist3088_320x240, %function
  25              	u8x8_d_ist3088_320x240:
  26              	.LFB1:
  27              		.file 1 "..\\..\\..\\u8g2\\u8g2\\csrc\\u8x8_d_ist3088.c"
   1:..\..\..\u8g2\u8g2\csrc/u8x8_d_ist3088.c **** /*
   2:..\..\..\u8g2\u8g2\csrc/u8x8_d_ist3088.c **** 
   3:..\..\..\u8g2\u8g2\csrc/u8x8_d_ist3088.c ****   u8x8_d_ist3088.c
   4:..\..\..\u8g2\u8g2\csrc/u8x8_d_ist3088.c **** 
   5:..\..\..\u8g2\u8g2\csrc/u8x8_d_ist3088.c ****   Universal 8bit Graphics Library (https://github.com/olikraus/u8g2/)
   6:..\..\..\u8g2\u8g2\csrc/u8x8_d_ist3088.c **** 
   7:..\..\..\u8g2\u8g2\csrc/u8x8_d_ist3088.c ****   Copyright (c) 2019, olikraus@gmail.com
   8:..\..\..\u8g2\u8g2\csrc/u8x8_d_ist3088.c ****   All rights reserved.
   9:..\..\..\u8g2\u8g2\csrc/u8x8_d_ist3088.c **** 
  10:..\..\..\u8g2\u8g2\csrc/u8x8_d_ist3088.c ****   Redistribution and use in source and binary forms, with or without modification, 
  11:..\..\..\u8g2\u8g2\csrc/u8x8_d_ist3088.c ****   are permitted provided that the following conditions are met:
  12:..\..\..\u8g2\u8g2\csrc/u8x8_d_ist3088.c **** 
  13:..\..\..\u8g2\u8g2\csrc/u8x8_d_ist3088.c ****   * Redistributions of source code must retain the above copyright notice, this list 
  14:..\..\..\u8g2\u8g2\csrc/u8x8_d_ist3088.c ****     of conditions and the following disclaimer.
  15:..\..\..\u8g2\u8g2\csrc/u8x8_d_ist3088.c ****     
  16:..\..\..\u8g2\u8g2\csrc/u8x8_d_ist3088.c ****   * Redistributions in binary form must reproduce the above copyright notice, this 
  17:..\..\..\u8g2\u8g2\csrc/u8x8_d_ist3088.c ****     list of conditions and the following disclaimer in the documentation and/or other 
  18:..\..\..\u8g2\u8g2\csrc/u8x8_d_ist3088.c ****     materials provided with the distribution.
  19:..\..\..\u8g2\u8g2\csrc/u8x8_d_ist3088.c **** 
  20:..\..\..\u8g2\u8g2\csrc/u8x8_d_ist3088.c ****   THIS SOFTWARE IS PROVIDED BY THE COPYRIGHT HOLDERS AND 
  21:..\..\..\u8g2\u8g2\csrc/u8x8_d_ist3088.c ****   CONTRIBUTORS "AS IS" AND ANY EXPRESS OR IMPLIED WARRANTIES, 
  22:..\..\..\u8g2\u8g2\csrc/u8x8_d_ist3088.c ****   INCLUDING, BUT NOT LIMITED TO, THE IMPLIED WARRANTIES OF 
  23:..\..\..\u8g2\u8g2\csrc/u8x8_d_ist3088.c ****   MERCHANTABILITY AND FITNESS FOR A PARTICULAR PURPOSE ARE 
  24:..\..\..\u8g2\u8g2\csrc/u8x8_d_ist3088.c ****   DISCLAIMED. IN NO EVENT SHALL THE COPYRIGHT HOLDER OR 
  25:..\..\..\u8g2\u8g2\csrc/u8x8_d_ist3088.c ****   CONTRIBUTORS BE LIABLE FOR ANY DIRECT, INDIRECT, INCIDENTAL, 
  26:..\..\..\u8g2\u8g2\csrc/u8x8_d_ist3088.c ****   SPECIAL, EXEMPLARY, OR CONSEQUENTIAL DAMAGES (INCLUDING, BUT 
  27:..\..\..\u8g2\u8g2\csrc/u8x8_d_ist3088.c ****   NOT LIMITED TO, PROCUREMENT OF SUBSTITUTE GOODS OR SERVICES; 
  28:..\..\..\u8g2\u8g2\csrc/u8x8_d_ist3088.c ****   LOSS OF USE, DATA, OR PROFITS; OR BUSINESS INTERRUPTION) HOWEVER 
  29:..\..\..\u8g2\u8g2\csrc/u8x8_d_ist3088.c ****   CAUSED AND ON ANY THEORY OF LIABILITY, WHETHER IN CONTRACT, 
  30:..\..\..\u8g2\u8g2\csrc/u8x8_d_ist3088.c ****   STRICT LIABILITY, OR TORT (INCLUDING NEGLIGENCE OR OTHERWISE) 
ARM GAS  C:\Users\jesse\AppData\Local\Temp\cccVt78O.s 			page 2


  31:..\..\..\u8g2\u8g2\csrc/u8x8_d_ist3088.c ****   ARISING IN ANY WAY OUT OF THE USE OF THIS SOFTWARE, EVEN IF 
  32:..\..\..\u8g2\u8g2\csrc/u8x8_d_ist3088.c ****   ADVISED OF THE POSSIBILITY OF SUCH DAMAGE.  
  33:..\..\..\u8g2\u8g2\csrc/u8x8_d_ist3088.c **** 
  34:..\..\..\u8g2\u8g2\csrc/u8x8_d_ist3088.c **** 
  35:..\..\..\u8g2\u8g2\csrc/u8x8_d_ist3088.c ****   IST3088: 320x240 monochrome LCD, 16 gray levels with B/W mode
  36:..\..\..\u8g2\u8g2\csrc/u8x8_d_ist3088.c ****   
  37:..\..\..\u8g2\u8g2\csrc/u8x8_d_ist3088.c ****   https://github.com/olikraus/u8g2/issues/1887
  38:..\..\..\u8g2\u8g2\csrc/u8x8_d_ist3088.c ****   
  39:..\..\..\u8g2\u8g2\csrc/u8x8_d_ist3088.c ****   CAD: 011
  40:..\..\..\u8g2\u8g2\csrc/u8x8_d_ist3088.c ****   commands and arg/data are always 16 bit, MSB first
  41:..\..\..\u8g2\u8g2\csrc/u8x8_d_ist3088.c ****   
  42:..\..\..\u8g2\u8g2\csrc/u8x8_d_ist3088.c **** */
  43:..\..\..\u8g2\u8g2\csrc/u8x8_d_ist3088.c **** 
  44:..\..\..\u8g2\u8g2\csrc/u8x8_d_ist3088.c **** 
  45:..\..\..\u8g2\u8g2\csrc/u8x8_d_ist3088.c **** #include "u8x8.h"
  46:..\..\..\u8g2\u8g2\csrc/u8x8_d_ist3088.c **** 
  47:..\..\..\u8g2\u8g2\csrc/u8x8_d_ist3088.c **** /* powersave: maybe we could go to sleep mode, see register 3 */
  48:..\..\..\u8g2\u8g2\csrc/u8x8_d_ist3088.c **** static const uint8_t u8x8_d_ist3088_320x240_powersave0_seq[] = {
  49:..\..\..\u8g2\u8g2\csrc/u8x8_d_ist3088.c ****   U8X8_START_TRANSFER(),             	/* enable chip, delay is part of the transfer start */
  50:..\..\..\u8g2\u8g2\csrc/u8x8_d_ist3088.c ****   U8X8_CCAA(0x0, 0x07, 0x00, 0x01), 			// Display Control Bit 2: BW, 1: Invert, 0: Display enable
  51:..\..\..\u8g2\u8g2\csrc/u8x8_d_ist3088.c ****   U8X8_END_TRANSFER(),             	/* disable chip */
  52:..\..\..\u8g2\u8g2\csrc/u8x8_d_ist3088.c ****   U8X8_END()             			/* end of sequence */
  53:..\..\..\u8g2\u8g2\csrc/u8x8_d_ist3088.c **** };
  54:..\..\..\u8g2\u8g2\csrc/u8x8_d_ist3088.c **** 
  55:..\..\..\u8g2\u8g2\csrc/u8x8_d_ist3088.c **** static const uint8_t u8x8_d_ist3088_320x240_powersave1_seq[] = {
  56:..\..\..\u8g2\u8g2\csrc/u8x8_d_ist3088.c ****   U8X8_START_TRANSFER(),             	/* enable chip, delay is part of the transfer start */
  57:..\..\..\u8g2\u8g2\csrc/u8x8_d_ist3088.c ****   U8X8_CCAA(0x0, 0x07, 0x00, 0x00), 			// Display Control Bit 2: BW, 1: Invert, 0: Display enable
  58:..\..\..\u8g2\u8g2\csrc/u8x8_d_ist3088.c ****   U8X8_END_TRANSFER(),             	/* disable chip */
  59:..\..\..\u8g2\u8g2\csrc/u8x8_d_ist3088.c ****   U8X8_END()             			/* end of sequence */
  60:..\..\..\u8g2\u8g2\csrc/u8x8_d_ist3088.c **** };
  61:..\..\..\u8g2\u8g2\csrc/u8x8_d_ist3088.c **** 
  62:..\..\..\u8g2\u8g2\csrc/u8x8_d_ist3088.c **** static const uint8_t u8x8_d_ist3088_320x240_flip0_seq[] = {
  63:..\..\..\u8g2\u8g2\csrc/u8x8_d_ist3088.c ****   U8X8_START_TRANSFER(),             	/* enable chip, delay is part of the transfer start */
  64:..\..\..\u8g2\u8g2\csrc/u8x8_d_ist3088.c ****   U8X8_CCAA(0x0, 0x01, 0x00, 0x00), 			// Driver Control, 1/240 Duty
  65:..\..\..\u8g2\u8g2\csrc/u8x8_d_ist3088.c ****   U8X8_END_TRANSFER(),             	/* disable chip */
  66:..\..\..\u8g2\u8g2\csrc/u8x8_d_ist3088.c ****   U8X8_END()             			/* end of sequence */
  67:..\..\..\u8g2\u8g2\csrc/u8x8_d_ist3088.c **** };
  68:..\..\..\u8g2\u8g2\csrc/u8x8_d_ist3088.c **** 
  69:..\..\..\u8g2\u8g2\csrc/u8x8_d_ist3088.c **** static const uint8_t u8x8_d_ist3088_320x240_flip1_seq[] = {
  70:..\..\..\u8g2\u8g2\csrc/u8x8_d_ist3088.c ****   U8X8_START_TRANSFER(),             	/* enable chip, delay is part of the transfer start */
  71:..\..\..\u8g2\u8g2\csrc/u8x8_d_ist3088.c ****   U8X8_CCAA(0x0, 0x01, 0x00, 0x00), 			// Driver Control, 1/240 Duty
  72:..\..\..\u8g2\u8g2\csrc/u8x8_d_ist3088.c ****   U8X8_END_TRANSFER(),             	/* disable chip */
  73:..\..\..\u8g2\u8g2\csrc/u8x8_d_ist3088.c ****   U8X8_END()             			/* end of sequence */
  74:..\..\..\u8g2\u8g2\csrc/u8x8_d_ist3088.c **** };
  75:..\..\..\u8g2\u8g2\csrc/u8x8_d_ist3088.c **** 
  76:..\..\..\u8g2\u8g2\csrc/u8x8_d_ist3088.c **** 
  77:..\..\..\u8g2\u8g2\csrc/u8x8_d_ist3088.c **** 
  78:..\..\..\u8g2\u8g2\csrc/u8x8_d_ist3088.c **** 
  79:..\..\..\u8g2\u8g2\csrc/u8x8_d_ist3088.c **** /*===================================================*/
  80:..\..\..\u8g2\u8g2\csrc/u8x8_d_ist3088.c **** 
  81:..\..\..\u8g2\u8g2\csrc/u8x8_d_ist3088.c **** static uint8_t u8x8_d_ist3088_generic(u8x8_t *u8x8, uint8_t msg, uint8_t arg_int, void *arg_ptr)
  82:..\..\..\u8g2\u8g2\csrc/u8x8_d_ist3088.c **** {
  83:..\..\..\u8g2\u8g2\csrc/u8x8_d_ist3088.c ****   //uint16_t x;
  84:..\..\..\u8g2\u8g2\csrc/u8x8_d_ist3088.c ****   int i;
  85:..\..\..\u8g2\u8g2\csrc/u8x8_d_ist3088.c ****   uint8_t y;
  86:..\..\..\u8g2\u8g2\csrc/u8x8_d_ist3088.c ****   uint8_t c;
  87:..\..\..\u8g2\u8g2\csrc/u8x8_d_ist3088.c ****   uint8_t *ptr;
ARM GAS  C:\Users\jesse\AppData\Local\Temp\cccVt78O.s 			page 3


  88:..\..\..\u8g2\u8g2\csrc/u8x8_d_ist3088.c ****   switch(msg)
  89:..\..\..\u8g2\u8g2\csrc/u8x8_d_ist3088.c ****   {
  90:..\..\..\u8g2\u8g2\csrc/u8x8_d_ist3088.c ****     /* handled by the calling function
  91:..\..\..\u8g2\u8g2\csrc/u8x8_d_ist3088.c ****     case U8X8_MSG_DISPLAY_SETUP_MEMORY:
  92:..\..\..\u8g2\u8g2\csrc/u8x8_d_ist3088.c ****       u8x8_d_helper_display_setup_memory(u8x8, &u8x8_ist3088_320x240_display_info);
  93:..\..\..\u8g2\u8g2\csrc/u8x8_d_ist3088.c ****       break;
  94:..\..\..\u8g2\u8g2\csrc/u8x8_d_ist3088.c ****     */
  95:..\..\..\u8g2\u8g2\csrc/u8x8_d_ist3088.c ****     /* handled by the calling function
  96:..\..\..\u8g2\u8g2\csrc/u8x8_d_ist3088.c ****     case U8X8_MSG_DISPLAY_INIT:
  97:..\..\..\u8g2\u8g2\csrc/u8x8_d_ist3088.c ****       u8x8_d_helper_display_init(u8x8);
  98:..\..\..\u8g2\u8g2\csrc/u8x8_d_ist3088.c ****       u8x8_cad_SendSequence(u8x8, u8x8_d_ist3088_320x240_init_seq);    
  99:..\..\..\u8g2\u8g2\csrc/u8x8_d_ist3088.c ****       break;
 100:..\..\..\u8g2\u8g2\csrc/u8x8_d_ist3088.c ****     */
 101:..\..\..\u8g2\u8g2\csrc/u8x8_d_ist3088.c ****     case U8X8_MSG_DISPLAY_SET_POWER_SAVE:
 102:..\..\..\u8g2\u8g2\csrc/u8x8_d_ist3088.c ****       if ( arg_int == 0 )
 103:..\..\..\u8g2\u8g2\csrc/u8x8_d_ist3088.c **** 	u8x8_cad_SendSequence(u8x8, u8x8_d_ist3088_320x240_powersave0_seq);
 104:..\..\..\u8g2\u8g2\csrc/u8x8_d_ist3088.c ****       else
 105:..\..\..\u8g2\u8g2\csrc/u8x8_d_ist3088.c **** 	u8x8_cad_SendSequence(u8x8, u8x8_d_ist3088_320x240_powersave1_seq);
 106:..\..\..\u8g2\u8g2\csrc/u8x8_d_ist3088.c ****       break;
 107:..\..\..\u8g2\u8g2\csrc/u8x8_d_ist3088.c ****     case U8X8_MSG_DISPLAY_SET_FLIP_MODE:
 108:..\..\..\u8g2\u8g2\csrc/u8x8_d_ist3088.c ****       if ( arg_int == 0 )
 109:..\..\..\u8g2\u8g2\csrc/u8x8_d_ist3088.c ****       {
 110:..\..\..\u8g2\u8g2\csrc/u8x8_d_ist3088.c **** 	u8x8_cad_SendSequence(u8x8, u8x8_d_ist3088_320x240_flip0_seq);
 111:..\..\..\u8g2\u8g2\csrc/u8x8_d_ist3088.c **** 	u8x8->x_offset = u8x8->display_info->default_x_offset;
 112:..\..\..\u8g2\u8g2\csrc/u8x8_d_ist3088.c ****       }
 113:..\..\..\u8g2\u8g2\csrc/u8x8_d_ist3088.c ****       else
 114:..\..\..\u8g2\u8g2\csrc/u8x8_d_ist3088.c ****       {
 115:..\..\..\u8g2\u8g2\csrc/u8x8_d_ist3088.c **** 	u8x8_cad_SendSequence(u8x8, u8x8_d_ist3088_320x240_flip1_seq);
 116:..\..\..\u8g2\u8g2\csrc/u8x8_d_ist3088.c **** 	u8x8->x_offset = u8x8->display_info->flipmode_x_offset;
 117:..\..\..\u8g2\u8g2\csrc/u8x8_d_ist3088.c ****       }
 118:..\..\..\u8g2\u8g2\csrc/u8x8_d_ist3088.c ****       break;
 119:..\..\..\u8g2\u8g2\csrc/u8x8_d_ist3088.c **** #ifdef U8X8_WITH_SET_CONTRAST
 120:..\..\..\u8g2\u8g2\csrc/u8x8_d_ist3088.c ****     case U8X8_MSG_DISPLAY_SET_CONTRAST:
 121:..\..\..\u8g2\u8g2\csrc/u8x8_d_ist3088.c ****       u8x8_cad_StartTransfer(u8x8);
 122:..\..\..\u8g2\u8g2\csrc/u8x8_d_ist3088.c ****       u8x8_cad_SendCmd(u8x8, 0x00 );
 123:..\..\..\u8g2\u8g2\csrc/u8x8_d_ist3088.c ****       u8x8_cad_SendCmd(u8x8, 0x05 );
 124:..\..\..\u8g2\u8g2\csrc/u8x8_d_ist3088.c ****       u8x8_cad_SendArg(u8x8, 0 );	
 125:..\..\..\u8g2\u8g2\csrc/u8x8_d_ist3088.c ****       u8x8_cad_SendArg(u8x8, arg_int );	
 126:..\..\..\u8g2\u8g2\csrc/u8x8_d_ist3088.c ****       u8x8_cad_EndTransfer(u8x8);
 127:..\..\..\u8g2\u8g2\csrc/u8x8_d_ist3088.c ****       break;
 128:..\..\..\u8g2\u8g2\csrc/u8x8_d_ist3088.c **** #endif
 129:..\..\..\u8g2\u8g2\csrc/u8x8_d_ist3088.c ****     case U8X8_MSG_DISPLAY_DRAW_TILE:
 130:..\..\..\u8g2\u8g2\csrc/u8x8_d_ist3088.c ****       /*
 131:..\..\..\u8g2\u8g2\csrc/u8x8_d_ist3088.c ****       x = ((u8x8_tile_t *)arg_ptr)->x_pos;    
 132:..\..\..\u8g2\u8g2\csrc/u8x8_d_ist3088.c ****       x *= 8;
 133:..\..\..\u8g2\u8g2\csrc/u8x8_d_ist3088.c ****       x += u8x8->x_offset;
 134:..\..\..\u8g2\u8g2\csrc/u8x8_d_ist3088.c ****     */
 135:..\..\..\u8g2\u8g2\csrc/u8x8_d_ist3088.c **** 
 136:..\..\..\u8g2\u8g2\csrc/u8x8_d_ist3088.c ****       y = (((u8x8_tile_t *)arg_ptr)->y_pos);
 137:..\..\..\u8g2\u8g2\csrc/u8x8_d_ist3088.c ****       y*=8;
 138:..\..\..\u8g2\u8g2\csrc/u8x8_d_ist3088.c **** 
 139:..\..\..\u8g2\u8g2\csrc/u8x8_d_ist3088.c ****       u8x8_cad_StartTransfer(u8x8);
 140:..\..\..\u8g2\u8g2\csrc/u8x8_d_ist3088.c ****     
 141:..\..\..\u8g2\u8g2\csrc/u8x8_d_ist3088.c ****     
 142:..\..\..\u8g2\u8g2\csrc/u8x8_d_ist3088.c ****         c = ((u8x8_tile_t *)arg_ptr)->cnt;	/* number of tiles */
 143:..\..\..\u8g2\u8g2\csrc/u8x8_d_ist3088.c ****         ptr = ((u8x8_tile_t *)arg_ptr)->tile_ptr;	/* data ptr to the tiles */
 144:..\..\..\u8g2\u8g2\csrc/u8x8_d_ist3088.c ****         for( i = 0; i < 8; i++ )
ARM GAS  C:\Users\jesse\AppData\Local\Temp\cccVt78O.s 			page 4


 145:..\..\..\u8g2\u8g2\csrc/u8x8_d_ist3088.c ****         {
 146:..\..\..\u8g2\u8g2\csrc/u8x8_d_ist3088.c ****           u8x8_cad_SendCmd(u8x8, 0x0);
 147:..\..\..\u8g2\u8g2\csrc/u8x8_d_ist3088.c ****           u8x8_cad_SendCmd(u8x8, 0x8);
 148:..\..\..\u8g2\u8g2\csrc/u8x8_d_ist3088.c ****           u8x8_cad_SendArg(u8x8, y); 
 149:..\..\..\u8g2\u8g2\csrc/u8x8_d_ist3088.c ****           u8x8_cad_SendArg(u8x8, 0 );
 150:..\..\..\u8g2\u8g2\csrc/u8x8_d_ist3088.c **** 
 151:..\..\..\u8g2\u8g2\csrc/u8x8_d_ist3088.c **** 
 152:..\..\..\u8g2\u8g2\csrc/u8x8_d_ist3088.c ****           u8x8_cad_SendCmd(u8x8, 0x0);		// write data 
 153:..\..\..\u8g2\u8g2\csrc/u8x8_d_ist3088.c ****           u8x8_cad_SendCmd(u8x8, 0x9);		// write data 
 154:..\..\..\u8g2\u8g2\csrc/u8x8_d_ist3088.c ****           
 155:..\..\..\u8g2\u8g2\csrc/u8x8_d_ist3088.c ****           
 156:..\..\..\u8g2\u8g2\csrc/u8x8_d_ist3088.c ****           //c = ((u8x8_tile_t *)arg_ptr)->cnt;	/* number of tiles */
 157:..\..\..\u8g2\u8g2\csrc/u8x8_d_ist3088.c ****           u8x8_cad_SendData(u8x8, c, ptr);	/* note: SendData can not handle more than 255 bytes, se
 158:..\..\..\u8g2\u8g2\csrc/u8x8_d_ist3088.c ****           
 159:..\..\..\u8g2\u8g2\csrc/u8x8_d_ist3088.c ****           ptr += u8x8->display_info->tile_width;
 160:..\..\..\u8g2\u8g2\csrc/u8x8_d_ist3088.c ****           y ++;
 161:..\..\..\u8g2\u8g2\csrc/u8x8_d_ist3088.c ****         }
 162:..\..\..\u8g2\u8g2\csrc/u8x8_d_ist3088.c **** 
 163:..\..\..\u8g2\u8g2\csrc/u8x8_d_ist3088.c ****       
 164:..\..\..\u8g2\u8g2\csrc/u8x8_d_ist3088.c ****       u8x8_cad_EndTransfer(u8x8);
 165:..\..\..\u8g2\u8g2\csrc/u8x8_d_ist3088.c ****       break;
 166:..\..\..\u8g2\u8g2\csrc/u8x8_d_ist3088.c ****     default:
 167:..\..\..\u8g2\u8g2\csrc/u8x8_d_ist3088.c ****       return 0;
 168:..\..\..\u8g2\u8g2\csrc/u8x8_d_ist3088.c ****   }
 169:..\..\..\u8g2\u8g2\csrc/u8x8_d_ist3088.c ****   return 1;
 170:..\..\..\u8g2\u8g2\csrc/u8x8_d_ist3088.c **** }
 171:..\..\..\u8g2\u8g2\csrc/u8x8_d_ist3088.c **** 
 172:..\..\..\u8g2\u8g2\csrc/u8x8_d_ist3088.c **** /*===================================================*/
 173:..\..\..\u8g2\u8g2\csrc/u8x8_d_ist3088.c **** 
 174:..\..\..\u8g2\u8g2\csrc/u8x8_d_ist3088.c **** /*
 175:..\..\..\u8g2\u8g2\csrc/u8x8_d_ist3088.c ****     SdCmd(0x01);                // driver control
 176:..\..\..\u8g2\u8g2\csrc/u8x8_d_ist3088.c **** 	SdData(0x00); SdData(0x00); // c1-->c240 s1-->s240 duty=1/240
 177:..\..\..\u8g2\u8g2\csrc/u8x8_d_ist3088.c ****     SdCmd(0x02);                // driver control
 178:..\..\..\u8g2\u8g2\csrc/u8x8_d_ist3088.c **** 	SdData(0x01); SdData(0x4c);	//0x15
 179:..\..\..\u8g2\u8g2\csrc/u8x8_d_ist3088.c ****     SdCmd(0x03);                // power control
 180:..\..\..\u8g2\u8g2\csrc/u8x8_d_ist3088.c **** 	SdData(0x00); SdData(0x70); // VC VR Vf=1
 181:..\..\..\u8g2\u8g2\csrc/u8x8_d_ist3088.c ****     SdCmd(0x04);                // power control
 182:..\..\..\u8g2\u8g2\csrc/u8x8_d_ist3088.c **** 	SdData(0x04); SdData(0x61); //0x61  //1/14b
 183:..\..\..\u8g2\u8g2\csrc/u8x8_d_ist3088.c ****     SdCmd(0x05);                // CT control
 184:..\..\..\u8g2\u8g2\csrc/u8x8_d_ist3088.c **** 	SdData(0x00); SdData(0x6a); // 0X76 
 185:..\..\..\u8g2\u8g2\csrc/u8x8_d_ist3088.c ****     SdCmd(0x06);                // CT control
 186:..\..\..\u8g2\u8g2\csrc/u8x8_d_ist3088.c **** 	SdData(0x00); SdData(0x03); 
 187:..\..\..\u8g2\u8g2\csrc/u8x8_d_ist3088.c ****     SdCmd(0x23);                // B/W MODE,16G NEED REMOVE
 188:..\..\..\u8g2\u8g2\csrc/u8x8_d_ist3088.c **** 	SdData(0x00); SdData(0x04); //04:mono
 189:..\..\..\u8g2\u8g2\csrc/u8x8_d_ist3088.c ****     SdCmd(0x28);                // OSC
 190:..\..\..\u8g2\u8g2\csrc/u8x8_d_ist3088.c **** 	SdData(0x00); SdData(0x0c);
 191:..\..\..\u8g2\u8g2\csrc/u8x8_d_ist3088.c ****     SdCmd(0x37);                
 192:..\..\..\u8g2\u8g2\csrc/u8x8_d_ist3088.c ****         SdData(0x00); SdData(0x12);
 193:..\..\..\u8g2\u8g2\csrc/u8x8_d_ist3088.c ****     SdCmd(0x07);                
 194:..\..\..\u8g2\u8g2\csrc/u8x8_d_ist3088.c ****         SdData(0x00); SdData(0x01);
 195:..\..\..\u8g2\u8g2\csrc/u8x8_d_ist3088.c **** */
 196:..\..\..\u8g2\u8g2\csrc/u8x8_d_ist3088.c **** 
 197:..\..\..\u8g2\u8g2\csrc/u8x8_d_ist3088.c **** /* https://github.com/olikraus/u8g2/issues/1887 */
 198:..\..\..\u8g2\u8g2\csrc/u8x8_d_ist3088.c **** static const uint8_t u8x8_d_ist3088_320x240_init_seq[] = {
 199:..\..\..\u8g2\u8g2\csrc/u8x8_d_ist3088.c ****     
 200:..\..\..\u8g2\u8g2\csrc/u8x8_d_ist3088.c ****   U8X8_START_TRANSFER(),             	/* enable chip, delay is part of the transfer start */
 201:..\..\..\u8g2\u8g2\csrc/u8x8_d_ist3088.c **** 
ARM GAS  C:\Users\jesse\AppData\Local\Temp\cccVt78O.s 			page 5


 202:..\..\..\u8g2\u8g2\csrc/u8x8_d_ist3088.c ****   /* disableLCD */
 203:..\..\..\u8g2\u8g2\csrc/u8x8_d_ist3088.c ****   U8X8_CCAA(0x0, 0x07, 0x00, 0x00), 			// Display Control Bit 2: BW, 1: Invert, 0: Display enable
 204:..\..\..\u8g2\u8g2\csrc/u8x8_d_ist3088.c **** 
 205:..\..\..\u8g2\u8g2\csrc/u8x8_d_ist3088.c ****   U8X8_CCAA(0x0, 0x01, 0x00, 0x00), 			// Driver Control, 1/240 Duty
 206:..\..\..\u8g2\u8g2\csrc/u8x8_d_ist3088.c ****   U8X8_CCAA(0x0, 0x02, 0x01, 0x4c), 			// Polarity Control
 207:..\..\..\u8g2\u8g2\csrc/u8x8_d_ist3088.c **** 
 208:..\..\..\u8g2\u8g2\csrc/u8x8_d_ist3088.c ****   U8X8_CCAA(0x0, 0x06, 0x00, 0x03), 			// Entry mode: h/v increment  
 209:..\..\..\u8g2\u8g2\csrc/u8x8_d_ist3088.c ****   //U8X8_CCAA(0x0, 0x04, 0x07, 0x61), 			// Power Control 2: 0x07: 1/16 Bias, Vout1 x 4
 210:..\..\..\u8g2\u8g2\csrc/u8x8_d_ist3088.c ****   U8X8_CCAA(0x0, 0x04, 0x04, 0x61), 			// Power Control 2: 0x07: 1/16 Bias, Vout1 x 4
 211:..\..\..\u8g2\u8g2\csrc/u8x8_d_ist3088.c ****   U8X8_CCAA(0x0, 0x05, 0x00, 0x6a), 			// Contrast, 0..255, 
 212:..\..\..\u8g2\u8g2\csrc/u8x8_d_ist3088.c **** 
 213:..\..\..\u8g2\u8g2\csrc/u8x8_d_ist3088.c ****   U8X8_CCAA(0x0, 0x03, 0x00, 0x40), 			// Enable voltage converter 
 214:..\..\..\u8g2\u8g2\csrc/u8x8_d_ist3088.c ****   U8X8_DLY(10),
 215:..\..\..\u8g2\u8g2\csrc/u8x8_d_ist3088.c ****   U8X8_CCAA(0x0, 0x03, 0x00, 0x60), 			// Enable voltage regulator 
 216:..\..\..\u8g2\u8g2\csrc/u8x8_d_ist3088.c ****   U8X8_DLY(10),
 217:..\..\..\u8g2\u8g2\csrc/u8x8_d_ist3088.c ****   U8X8_CCAA(0x0, 0x03, 0x00, 0x70), 			// Enable voltage follower 
 218:..\..\..\u8g2\u8g2\csrc/u8x8_d_ist3088.c ****   U8X8_DLY(10),
 219:..\..\..\u8g2\u8g2\csrc/u8x8_d_ist3088.c **** 
 220:..\..\..\u8g2\u8g2\csrc/u8x8_d_ist3088.c ****   U8X8_CCAA(0x0, 0x23, 0x00, 0x04), 			// Monochrome mode
 221:..\..\..\u8g2\u8g2\csrc/u8x8_d_ist3088.c ****   U8X8_CCAA(0x0, 0x28, 0x00, 0x0c), 			// Frame Rate Control
 222:..\..\..\u8g2\u8g2\csrc/u8x8_d_ist3088.c ****   U8X8_CCAA(0x0, 0x37, 0x00, 0x01), 			// Frame Rate Control
 223:..\..\..\u8g2\u8g2\csrc/u8x8_d_ist3088.c ****   U8X8_CCAA(0x0, 0x0d, 39, 0x00), 			// X End and X Start
 224:..\..\..\u8g2\u8g2\csrc/u8x8_d_ist3088.c ****   
 225:..\..\..\u8g2\u8g2\csrc/u8x8_d_ist3088.c ****   U8X8_CCAA(0x0, 0x0e, 239, 0x00), 			// Y End and Y Start
 226:..\..\..\u8g2\u8g2\csrc/u8x8_d_ist3088.c **** 
 227:..\..\..\u8g2\u8g2\csrc/u8x8_d_ist3088.c ****   /* enable LCD (will be done by powersave0) */
 228:..\..\..\u8g2\u8g2\csrc/u8x8_d_ist3088.c ****   //U8X8_CCAA(0x0, 0x07, 0x00, 0x01), 			// Display Control Bit 2: BW, 1: Invert, 0: Display enable
 229:..\..\..\u8g2\u8g2\csrc/u8x8_d_ist3088.c ****     
 230:..\..\..\u8g2\u8g2\csrc/u8x8_d_ist3088.c ****   U8X8_END_TRANSFER(),             	/* disable chip */
 231:..\..\..\u8g2\u8g2\csrc/u8x8_d_ist3088.c ****   U8X8_END()           			/* end of sequence */
 232:..\..\..\u8g2\u8g2\csrc/u8x8_d_ist3088.c **** };
 233:..\..\..\u8g2\u8g2\csrc/u8x8_d_ist3088.c **** 
 234:..\..\..\u8g2\u8g2\csrc/u8x8_d_ist3088.c **** 
 235:..\..\..\u8g2\u8g2\csrc/u8x8_d_ist3088.c **** 
 236:..\..\..\u8g2\u8g2\csrc/u8x8_d_ist3088.c **** 
 237:..\..\..\u8g2\u8g2\csrc/u8x8_d_ist3088.c **** static const u8x8_display_info_t u8x8_ist3088_320x240_display_info =
 238:..\..\..\u8g2\u8g2\csrc/u8x8_d_ist3088.c **** {
 239:..\..\..\u8g2\u8g2\csrc/u8x8_d_ist3088.c ****   /* chip_enable_level = */ 0,
 240:..\..\..\u8g2\u8g2\csrc/u8x8_d_ist3088.c ****   /* chip_disable_level = */ 1,
 241:..\..\..\u8g2\u8g2\csrc/u8x8_d_ist3088.c ****   
 242:..\..\..\u8g2\u8g2\csrc/u8x8_d_ist3088.c ****   /* post_chip_enable_wait_ns = */ 110,
 243:..\..\..\u8g2\u8g2\csrc/u8x8_d_ist3088.c ****   /* pre_chip_disable_wait_ns = */ 110,
 244:..\..\..\u8g2\u8g2\csrc/u8x8_d_ist3088.c ****   /* reset_pulse_width_ms = */ 10, 	
 245:..\..\..\u8g2\u8g2\csrc/u8x8_d_ist3088.c ****   /* post_reset_wait_ms = */ 10, 		/**/
 246:..\..\..\u8g2\u8g2\csrc/u8x8_d_ist3088.c ****   /* sda_setup_time_ns = */ 110,		/* */
 247:..\..\..\u8g2\u8g2\csrc/u8x8_d_ist3088.c ****   /* sck_pulse_width_ns = */ 125,	/*  */
 248:..\..\..\u8g2\u8g2\csrc/u8x8_d_ist3088.c ****   /* sck_clock_hz = */ 4000000UL,	/* 250ns cycle, see page 49 of the IST3088 datasheet*/
 249:..\..\..\u8g2\u8g2\csrc/u8x8_d_ist3088.c ****   /* spi_mode = */ 0,		/* active high, rising edge */
 250:..\..\..\u8g2\u8g2\csrc/u8x8_d_ist3088.c ****   /* i2c_bus_clock_100kHz = */ 4,	/* 400KHz, IST8033 das not include a I2C interface */
 251:..\..\..\u8g2\u8g2\csrc/u8x8_d_ist3088.c ****   /* data_setup_time_ns = */ 70,
 252:..\..\..\u8g2\u8g2\csrc/u8x8_d_ist3088.c ****   /* write_pulse_width_ns = */ 60,	
 253:..\..\..\u8g2\u8g2\csrc/u8x8_d_ist3088.c ****   /* tile_width = */ 40,
 254:..\..\..\u8g2\u8g2\csrc/u8x8_d_ist3088.c ****   /* tile_hight = */ 30,
 255:..\..\..\u8g2\u8g2\csrc/u8x8_d_ist3088.c ****   /* default_x_offset = */ 0,
 256:..\..\..\u8g2\u8g2\csrc/u8x8_d_ist3088.c ****   /* flipmode_x_offset = */ 0,
 257:..\..\..\u8g2\u8g2\csrc/u8x8_d_ist3088.c ****   /* pixel_width = */ 320,
 258:..\..\..\u8g2\u8g2\csrc/u8x8_d_ist3088.c ****   /* pixel_height = */ 240
ARM GAS  C:\Users\jesse\AppData\Local\Temp\cccVt78O.s 			page 6


 259:..\..\..\u8g2\u8g2\csrc/u8x8_d_ist3088.c **** };
 260:..\..\..\u8g2\u8g2\csrc/u8x8_d_ist3088.c **** 
 261:..\..\..\u8g2\u8g2\csrc/u8x8_d_ist3088.c **** uint8_t u8x8_d_ist3088_320x240(u8x8_t *u8x8, uint8_t msg, uint8_t arg_int, void *arg_ptr)
 262:..\..\..\u8g2\u8g2\csrc/u8x8_d_ist3088.c **** {
  28              		.loc 1 262 0
  29              		.cfi_startproc
  30              		@ args = 0, pretend = 0, frame = 0
  31              		@ frame_needed = 0, uses_anonymous_args = 0
  32              	.LVL0:
  33 0000 2DE9F843 		push	{r3, r4, r5, r6, r7, r8, r9, lr}
  34              		.cfi_def_cfa_offset 32
  35              		.cfi_offset 3, -32
  36              		.cfi_offset 4, -28
  37              		.cfi_offset 5, -24
  38              		.cfi_offset 6, -20
  39              		.cfi_offset 7, -16
  40              		.cfi_offset 8, -12
  41              		.cfi_offset 9, -8
  42              		.cfi_offset 14, -4
  43              		.loc 1 262 0
  44 0004 1E46     		mov	r6, r3
  45              	.LBB4:
  46              	.LBB5:
  88:..\..\..\u8g2\u8g2\csrc/u8x8_d_ist3088.c ****   {
  47              		.loc 1 88 0
  48 0006 A1F10B03 		sub	r3, r1, #11
  49              	.LVL1:
  50              	.LBE5:
  51              	.LBE4:
  52              		.loc 1 262 0
  53 000a 0446     		mov	r4, r0
  54 000c 1546     		mov	r5, r2
  55              	.LVL2:
  56              	.LBB7:
  57              	.LBB6:
  88:..\..\..\u8g2\u8g2\csrc/u8x8_d_ist3088.c ****   {
  58              		.loc 1 88 0
  59 000e 042B     		cmp	r3, #4
  60 0010 62D8     		bhi	.L2
  61 0012 DFE803F0 		tbb	[pc, r3]
  62              	.LVL3:
  63              	.L4:
  64 0016 03       		.byte	(.L3-.L4)/2
  65 0017 61       		.byte	(.L2-.L4)/2
  66 0018 0B       		.byte	(.L5-.L4)/2
  67 0019 1A       		.byte	(.L6-.L4)/2
  68 001a 2D       		.byte	(.L7-.L4)/2
  69 001b 00       		.p2align 1
  70              	.L3:
 102:..\..\..\u8g2\u8g2\csrc/u8x8_d_ist3088.c **** 	u8x8_cad_SendSequence(u8x8, u8x8_d_ist3088_320x240_powersave0_seq);
  71              		.loc 1 102 0
  72 001c 0DB9     		cbnz	r5, .L8
 103:..\..\..\u8g2\u8g2\csrc/u8x8_d_ist3088.c ****       else
  73              		.loc 1 103 0
  74 001e 3849     		ldr	r1, .L25
  75              	.LVL4:
  76 0020 00E0     		b	.L21
ARM GAS  C:\Users\jesse\AppData\Local\Temp\cccVt78O.s 			page 7


  77              	.LVL5:
  78              	.L8:
 105:..\..\..\u8g2\u8g2\csrc/u8x8_d_ist3088.c ****       break;
  79              		.loc 1 105 0
  80 0022 3849     		ldr	r1, .L25+4
  81              	.LVL6:
  82              	.L21:
  83 0024 2046     		mov	r0, r4
  84 0026 FFF7FEFF 		bl	u8x8_cad_SendSequence
  85              	.LVL7:
  86 002a 66E0     		b	.L9
  87              	.LVL8:
  88              	.L5:
 108:..\..\..\u8g2\u8g2\csrc/u8x8_d_ist3088.c ****       {
  89              		.loc 1 108 0
  90 002c 2DB9     		cbnz	r5, .L10
 110:..\..\..\u8g2\u8g2\csrc/u8x8_d_ist3088.c **** 	u8x8->x_offset = u8x8->display_info->default_x_offset;
  91              		.loc 1 110 0
  92 002e 3649     		ldr	r1, .L25+8
  93              	.LVL9:
  94 0030 FFF7FEFF 		bl	u8x8_cad_SendSequence
  95              	.LVL10:
 111:..\..\..\u8g2\u8g2\csrc/u8x8_d_ist3088.c ****       }
  96              		.loc 1 111 0
  97 0034 2368     		ldr	r3, [r4]
  98 0036 9B7C     		ldrb	r3, [r3, #18]	@ zero_extendqisi2
  99 0038 04E0     		b	.L20
 100              	.LVL11:
 101              	.L10:
 115:..\..\..\u8g2\u8g2\csrc/u8x8_d_ist3088.c **** 	u8x8->x_offset = u8x8->display_info->flipmode_x_offset;
 102              		.loc 1 115 0
 103 003a 3449     		ldr	r1, .L25+12
 104              	.LVL12:
 105 003c FFF7FEFF 		bl	u8x8_cad_SendSequence
 106              	.LVL13:
 116:..\..\..\u8g2\u8g2\csrc/u8x8_d_ist3088.c ****       }
 107              		.loc 1 116 0
 108 0040 2368     		ldr	r3, [r4]
 109 0042 DB7C     		ldrb	r3, [r3, #19]	@ zero_extendqisi2
 110              	.L20:
 111 0044 84F82230 		strb	r3, [r4, #34]
 112 0048 57E0     		b	.L9
 113              	.LVL14:
 114              	.L6:
 121:..\..\..\u8g2\u8g2\csrc/u8x8_d_ist3088.c ****       u8x8_cad_SendCmd(u8x8, 0x00 );
 115              		.loc 1 121 0
 116 004a FFF7FEFF 		bl	u8x8_cad_StartTransfer
 117              	.LVL15:
 122:..\..\..\u8g2\u8g2\csrc/u8x8_d_ist3088.c ****       u8x8_cad_SendCmd(u8x8, 0x05 );
 118              		.loc 1 122 0
 119 004e 0021     		movs	r1, #0
 120 0050 2046     		mov	r0, r4
 121 0052 FFF7FEFF 		bl	u8x8_cad_SendCmd
 122              	.LVL16:
 123:..\..\..\u8g2\u8g2\csrc/u8x8_d_ist3088.c ****       u8x8_cad_SendArg(u8x8, 0 );	
 123              		.loc 1 123 0
 124 0056 0521     		movs	r1, #5
ARM GAS  C:\Users\jesse\AppData\Local\Temp\cccVt78O.s 			page 8


 125 0058 2046     		mov	r0, r4
 126 005a FFF7FEFF 		bl	u8x8_cad_SendCmd
 127              	.LVL17:
 124:..\..\..\u8g2\u8g2\csrc/u8x8_d_ist3088.c ****       u8x8_cad_SendArg(u8x8, arg_int );	
 128              		.loc 1 124 0
 129 005e 0021     		movs	r1, #0
 130 0060 2046     		mov	r0, r4
 131 0062 FFF7FEFF 		bl	u8x8_cad_SendArg
 132              	.LVL18:
 125:..\..\..\u8g2\u8g2\csrc/u8x8_d_ist3088.c ****       u8x8_cad_EndTransfer(u8x8);
 133              		.loc 1 125 0
 134 0066 2946     		mov	r1, r5
 135 0068 2046     		mov	r0, r4
 136 006a FFF7FEFF 		bl	u8x8_cad_SendArg
 137              	.LVL19:
 138 006e 2FE0     		b	.L19
 139              	.LVL20:
 140              	.L7:
 136:..\..\..\u8g2\u8g2\csrc/u8x8_d_ist3088.c ****       y*=8;
 141              		.loc 1 136 0
 142 0070 B579     		ldrb	r5, [r6, #6]	@ zero_extendqisi2
 143              	.LVL21:
 139:..\..\..\u8g2\u8g2\csrc/u8x8_d_ist3088.c ****     
 144              		.loc 1 139 0
 145 0072 FFF7FEFF 		bl	u8x8_cad_StartTransfer
 146              	.LVL22:
 137:..\..\..\u8g2\u8g2\csrc/u8x8_d_ist3088.c **** 
 147              		.loc 1 137 0
 148 0076 ED00     		lsls	r5, r5, #3
 149              	.LVL23:
 142:..\..\..\u8g2\u8g2\csrc/u8x8_d_ist3088.c ****         ptr = ((u8x8_tile_t *)arg_ptr)->tile_ptr;	/* data ptr to the tiles */
 150              		.loc 1 142 0
 151 0078 96F80490 		ldrb	r9, [r6, #4]	@ zero_extendqisi2
 143:..\..\..\u8g2\u8g2\csrc/u8x8_d_ist3088.c ****         for( i = 0; i < 8; i++ )
 152              		.loc 1 143 0
 153 007c 3768     		ldr	r7, [r6]
 137:..\..\..\u8g2\u8g2\csrc/u8x8_d_ist3088.c **** 
 154              		.loc 1 137 0
 155 007e EDB2     		uxtb	r5, r5
 156              	.LVL24:
 144:..\..\..\u8g2\u8g2\csrc/u8x8_d_ist3088.c ****         {
 157              		.loc 1 144 0
 158 0080 0026     		movs	r6, #0
 159              	.LVL25:
 160              	.L11:
 161 0082 05EB0608 		add	r8, r5, r6
 146:..\..\..\u8g2\u8g2\csrc/u8x8_d_ist3088.c ****           u8x8_cad_SendCmd(u8x8, 0x8);
 162              		.loc 1 146 0
 163 0086 0021     		movs	r1, #0
 164 0088 2046     		mov	r0, r4
 165 008a FFF7FEFF 		bl	u8x8_cad_SendCmd
 166              	.LVL26:
 167 008e 5FFA88F8 		uxtb	r8, r8
 168              	.LVL27:
 147:..\..\..\u8g2\u8g2\csrc/u8x8_d_ist3088.c ****           u8x8_cad_SendArg(u8x8, y); 
 169              		.loc 1 147 0
 170 0092 0821     		movs	r1, #8
ARM GAS  C:\Users\jesse\AppData\Local\Temp\cccVt78O.s 			page 9


 171 0094 2046     		mov	r0, r4
 172 0096 FFF7FEFF 		bl	u8x8_cad_SendCmd
 173              	.LVL28:
 148:..\..\..\u8g2\u8g2\csrc/u8x8_d_ist3088.c ****           u8x8_cad_SendArg(u8x8, 0 );
 174              		.loc 1 148 0
 175 009a 4146     		mov	r1, r8
 176 009c 2046     		mov	r0, r4
 177 009e FFF7FEFF 		bl	u8x8_cad_SendArg
 178              	.LVL29:
 149:..\..\..\u8g2\u8g2\csrc/u8x8_d_ist3088.c **** 
 179              		.loc 1 149 0
 180 00a2 0021     		movs	r1, #0
 181 00a4 2046     		mov	r0, r4
 182 00a6 FFF7FEFF 		bl	u8x8_cad_SendArg
 183              	.LVL30:
 152:..\..\..\u8g2\u8g2\csrc/u8x8_d_ist3088.c ****           u8x8_cad_SendCmd(u8x8, 0x9);		// write data 
 184              		.loc 1 152 0
 185 00aa 0021     		movs	r1, #0
 186 00ac 2046     		mov	r0, r4
 187 00ae FFF7FEFF 		bl	u8x8_cad_SendCmd
 188              	.LVL31:
 153:..\..\..\u8g2\u8g2\csrc/u8x8_d_ist3088.c ****           
 189              		.loc 1 153 0
 190 00b2 0921     		movs	r1, #9
 191 00b4 2046     		mov	r0, r4
 192 00b6 FFF7FEFF 		bl	u8x8_cad_SendCmd
 193              	.LVL32:
 157:..\..\..\u8g2\u8g2\csrc/u8x8_d_ist3088.c ****           
 194              		.loc 1 157 0
 195 00ba 3A46     		mov	r2, r7
 196 00bc 4946     		mov	r1, r9
 197 00be 2046     		mov	r0, r4
 198 00c0 FFF7FEFF 		bl	u8x8_cad_SendData
 199              	.LVL33:
 159:..\..\..\u8g2\u8g2\csrc/u8x8_d_ist3088.c ****           y ++;
 200              		.loc 1 159 0
 201 00c4 2368     		ldr	r3, [r4]
 144:..\..\..\u8g2\u8g2\csrc/u8x8_d_ist3088.c ****         {
 202              		.loc 1 144 0
 203 00c6 0136     		adds	r6, r6, #1
 204              	.LVL34:
 159:..\..\..\u8g2\u8g2\csrc/u8x8_d_ist3088.c ****           y ++;
 205              		.loc 1 159 0
 206 00c8 1B7C     		ldrb	r3, [r3, #16]	@ zero_extendqisi2
 144:..\..\..\u8g2\u8g2\csrc/u8x8_d_ist3088.c ****         {
 207              		.loc 1 144 0
 208 00ca 082E     		cmp	r6, #8
 159:..\..\..\u8g2\u8g2\csrc/u8x8_d_ist3088.c ****           y ++;
 209              		.loc 1 159 0
 210 00cc 1F44     		add	r7, r7, r3
 211              	.LVL35:
 144:..\..\..\u8g2\u8g2\csrc/u8x8_d_ist3088.c ****         {
 212              		.loc 1 144 0
 213 00ce D8D1     		bne	.L11
 214              	.LVL36:
 215              	.L19:
 164:..\..\..\u8g2\u8g2\csrc/u8x8_d_ist3088.c ****       break;
ARM GAS  C:\Users\jesse\AppData\Local\Temp\cccVt78O.s 			page 10


 216              		.loc 1 164 0
 217 00d0 2046     		mov	r0, r4
 218 00d2 FFF7FEFF 		bl	u8x8_cad_EndTransfer
 219              	.LVL37:
 220 00d6 10E0     		b	.L9
 221              	.LVL38:
 222              	.L2:
 223              	.LBE6:
 224              	.LBE7:
 263:..\..\..\u8g2\u8g2\csrc/u8x8_d_ist3088.c ****     
 264:..\..\..\u8g2\u8g2\csrc/u8x8_d_ist3088.c ****   if ( u8x8_d_ist3088_generic(u8x8, msg, arg_int, arg_ptr) != 0 )
 265:..\..\..\u8g2\u8g2\csrc/u8x8_d_ist3088.c ****     return 1;
 266:..\..\..\u8g2\u8g2\csrc/u8x8_d_ist3088.c ****   
 267:..\..\..\u8g2\u8g2\csrc/u8x8_d_ist3088.c ****   switch(msg)
 225              		.loc 1 267 0
 226 00d8 0929     		cmp	r1, #9
 227 00da 04D1     		bne	.L23
 268:..\..\..\u8g2\u8g2\csrc/u8x8_d_ist3088.c ****   {
 269:..\..\..\u8g2\u8g2\csrc/u8x8_d_ist3088.c ****     case U8X8_MSG_DISPLAY_INIT:
 270:..\..\..\u8g2\u8g2\csrc/u8x8_d_ist3088.c ****       u8x8_d_helper_display_init(u8x8);
 271:..\..\..\u8g2\u8g2\csrc/u8x8_d_ist3088.c ****       u8x8_cad_SendSequence(u8x8, u8x8_d_ist3088_320x240_init_seq);    
 272:..\..\..\u8g2\u8g2\csrc/u8x8_d_ist3088.c ****       break;
 273:..\..\..\u8g2\u8g2\csrc/u8x8_d_ist3088.c ****     case U8X8_MSG_DISPLAY_SETUP_MEMORY:
 274:..\..\..\u8g2\u8g2\csrc/u8x8_d_ist3088.c ****       u8x8_d_helper_display_setup_memory(u8x8, &u8x8_ist3088_320x240_display_info);
 228              		.loc 1 274 0
 229 00dc 0C49     		ldr	r1, .L25+16
 230              	.LVL39:
 231 00de 2046     		mov	r0, r4
 232              	.LVL40:
 233 00e0 FFF7FEFF 		bl	u8x8_d_helper_display_setup_memory
 234              	.LVL41:
 235 00e4 09E0     		b	.L9
 236              	.LVL42:
 237              	.L23:
 267:..\..\..\u8g2\u8g2\csrc/u8x8_d_ist3088.c ****   {
 238              		.loc 1 267 0
 239 00e6 0A29     		cmp	r1, #10
 240 00e8 04D1     		bne	.L24
 270:..\..\..\u8g2\u8g2\csrc/u8x8_d_ist3088.c ****       u8x8_cad_SendSequence(u8x8, u8x8_d_ist3088_320x240_init_seq);    
 241              		.loc 1 270 0
 242 00ea 2046     		mov	r0, r4
 243              	.LVL43:
 244 00ec FFF7FEFF 		bl	u8x8_d_helper_display_init
 245              	.LVL44:
 271:..\..\..\u8g2\u8g2\csrc/u8x8_d_ist3088.c ****       break;
 246              		.loc 1 271 0
 247 00f0 0849     		ldr	r1, .L25+20
 248 00f2 97E7     		b	.L21
 249              	.LVL45:
 250              	.L24:
 275:..\..\..\u8g2\u8g2\csrc/u8x8_d_ist3088.c ****       break;
 276:..\..\..\u8g2\u8g2\csrc/u8x8_d_ist3088.c ****     default:
 277:..\..\..\u8g2\u8g2\csrc/u8x8_d_ist3088.c ****       return 0;
 251              		.loc 1 277 0
 252 00f4 0020     		movs	r0, #0
 253              	.LVL46:
 254 00f6 BDE8F883 		pop	{r3, r4, r5, r6, r7, r8, r9, pc}
ARM GAS  C:\Users\jesse\AppData\Local\Temp\cccVt78O.s 			page 11


 255              	.LVL47:
 256              	.L9:
 265:..\..\..\u8g2\u8g2\csrc/u8x8_d_ist3088.c ****   
 257              		.loc 1 265 0
 258 00fa 0120     		movs	r0, #1
 278:..\..\..\u8g2\u8g2\csrc/u8x8_d_ist3088.c ****   }
 279:..\..\..\u8g2\u8g2\csrc/u8x8_d_ist3088.c ****   return 1;
 280:..\..\..\u8g2\u8g2\csrc/u8x8_d_ist3088.c **** }
 259              		.loc 1 280 0
 260 00fc BDE8F883 		pop	{r3, r4, r5, r6, r7, r8, r9, pc}
 261              	.LVL48:
 262              	.L26:
 263              		.align	2
 264              	.L25:
 265 0100 00000000 		.word	.LANCHOR0
 266 0104 0B000000 		.word	.LANCHOR0+11
 267 0108 16000000 		.word	.LANCHOR0+22
 268 010c 21000000 		.word	.LANCHOR0+33
 269 0110 A8000000 		.word	.LANCHOR0+168
 270 0114 2C000000 		.word	.LANCHOR0+44
 271              		.cfi_endproc
 272              	.LFE1:
 273              		.size	u8x8_d_ist3088_320x240, .-u8x8_d_ist3088_320x240
 274              		.section	.rodata
 275              		.align	2
 276              		.set	.LANCHOR0,. + 0
 277              		.type	u8x8_d_ist3088_320x240_powersave0_seq, %object
 278              		.size	u8x8_d_ist3088_320x240_powersave0_seq, 11
 279              	u8x8_d_ist3088_320x240_powersave0_seq:
 280 0000 18       		.byte	24
 281 0001 15       		.byte	21
 282 0002 00       		.byte	0
 283 0003 15       		.byte	21
 284 0004 07       		.byte	7
 285 0005 16       		.byte	22
 286 0006 00       		.byte	0
 287 0007 16       		.byte	22
 288 0008 01       		.byte	1
 289 0009 19       		.byte	25
 290 000a FF       		.byte	-1
 291              		.type	u8x8_d_ist3088_320x240_powersave1_seq, %object
 292              		.size	u8x8_d_ist3088_320x240_powersave1_seq, 11
 293              	u8x8_d_ist3088_320x240_powersave1_seq:
 294 000b 18       		.byte	24
 295 000c 15       		.byte	21
 296 000d 00       		.byte	0
 297 000e 15       		.byte	21
 298 000f 07       		.byte	7
 299 0010 16       		.byte	22
 300 0011 00       		.byte	0
 301 0012 16       		.byte	22
 302 0013 00       		.byte	0
 303 0014 19       		.byte	25
 304 0015 FF       		.byte	-1
 305              		.type	u8x8_d_ist3088_320x240_flip0_seq, %object
 306              		.size	u8x8_d_ist3088_320x240_flip0_seq, 11
 307              	u8x8_d_ist3088_320x240_flip0_seq:
ARM GAS  C:\Users\jesse\AppData\Local\Temp\cccVt78O.s 			page 12


 308 0016 18       		.byte	24
 309 0017 15       		.byte	21
 310 0018 00       		.byte	0
 311 0019 15       		.byte	21
 312 001a 01       		.byte	1
 313 001b 16       		.byte	22
 314 001c 00       		.byte	0
 315 001d 16       		.byte	22
 316 001e 00       		.byte	0
 317 001f 19       		.byte	25
 318 0020 FF       		.byte	-1
 319              		.type	u8x8_d_ist3088_320x240_flip1_seq, %object
 320              		.size	u8x8_d_ist3088_320x240_flip1_seq, 11
 321              	u8x8_d_ist3088_320x240_flip1_seq:
 322 0021 18       		.byte	24
 323 0022 15       		.byte	21
 324 0023 00       		.byte	0
 325 0024 15       		.byte	21
 326 0025 01       		.byte	1
 327 0026 16       		.byte	22
 328 0027 00       		.byte	0
 329 0028 16       		.byte	22
 330 0029 00       		.byte	0
 331 002a 19       		.byte	25
 332 002b FF       		.byte	-1
 333              		.type	u8x8_d_ist3088_320x240_init_seq, %object
 334              		.size	u8x8_d_ist3088_320x240_init_seq, 121
 335              	u8x8_d_ist3088_320x240_init_seq:
 336 002c 18       		.byte	24
 337 002d 15       		.byte	21
 338 002e 00       		.byte	0
 339 002f 15       		.byte	21
 340 0030 07       		.byte	7
 341 0031 16       		.byte	22
 342 0032 00       		.byte	0
 343 0033 16       		.byte	22
 344 0034 00       		.byte	0
 345 0035 15       		.byte	21
 346 0036 00       		.byte	0
 347 0037 15       		.byte	21
 348 0038 01       		.byte	1
 349 0039 16       		.byte	22
 350 003a 00       		.byte	0
 351 003b 16       		.byte	22
 352 003c 00       		.byte	0
 353 003d 15       		.byte	21
 354 003e 00       		.byte	0
 355 003f 15       		.byte	21
 356 0040 02       		.byte	2
 357 0041 16       		.byte	22
 358 0042 01       		.byte	1
 359 0043 16       		.byte	22
 360 0044 4C       		.byte	76
 361 0045 15       		.byte	21
 362 0046 00       		.byte	0
 363 0047 15       		.byte	21
 364 0048 06       		.byte	6
ARM GAS  C:\Users\jesse\AppData\Local\Temp\cccVt78O.s 			page 13


 365 0049 16       		.byte	22
 366 004a 00       		.byte	0
 367 004b 16       		.byte	22
 368 004c 03       		.byte	3
 369 004d 15       		.byte	21
 370 004e 00       		.byte	0
 371 004f 15       		.byte	21
 372 0050 04       		.byte	4
 373 0051 16       		.byte	22
 374 0052 04       		.byte	4
 375 0053 16       		.byte	22
 376 0054 61       		.byte	97
 377 0055 15       		.byte	21
 378 0056 00       		.byte	0
 379 0057 15       		.byte	21
 380 0058 05       		.byte	5
 381 0059 16       		.byte	22
 382 005a 00       		.byte	0
 383 005b 16       		.byte	22
 384 005c 6A       		.byte	106
 385 005d 15       		.byte	21
 386 005e 00       		.byte	0
 387 005f 15       		.byte	21
 388 0060 03       		.byte	3
 389 0061 16       		.byte	22
 390 0062 00       		.byte	0
 391 0063 16       		.byte	22
 392 0064 40       		.byte	64
 393 0065 FE       		.byte	-2
 394 0066 0A       		.byte	10
 395 0067 15       		.byte	21
 396 0068 00       		.byte	0
 397 0069 15       		.byte	21
 398 006a 03       		.byte	3
 399 006b 16       		.byte	22
 400 006c 00       		.byte	0
 401 006d 16       		.byte	22
 402 006e 60       		.byte	96
 403 006f FE       		.byte	-2
 404 0070 0A       		.byte	10
 405 0071 15       		.byte	21
 406 0072 00       		.byte	0
 407 0073 15       		.byte	21
 408 0074 03       		.byte	3
 409 0075 16       		.byte	22
 410 0076 00       		.byte	0
 411 0077 16       		.byte	22
 412 0078 70       		.byte	112
 413 0079 FE       		.byte	-2
 414 007a 0A       		.byte	10
 415 007b 15       		.byte	21
 416 007c 00       		.byte	0
 417 007d 15       		.byte	21
 418 007e 23       		.byte	35
 419 007f 16       		.byte	22
 420 0080 00       		.byte	0
 421 0081 16       		.byte	22
ARM GAS  C:\Users\jesse\AppData\Local\Temp\cccVt78O.s 			page 14


 422 0082 04       		.byte	4
 423 0083 15       		.byte	21
 424 0084 00       		.byte	0
 425 0085 15       		.byte	21
 426 0086 28       		.byte	40
 427 0087 16       		.byte	22
 428 0088 00       		.byte	0
 429 0089 16       		.byte	22
 430 008a 0C       		.byte	12
 431 008b 15       		.byte	21
 432 008c 00       		.byte	0
 433 008d 15       		.byte	21
 434 008e 37       		.byte	55
 435 008f 16       		.byte	22
 436 0090 00       		.byte	0
 437 0091 16       		.byte	22
 438 0092 01       		.byte	1
 439 0093 15       		.byte	21
 440 0094 00       		.byte	0
 441 0095 15       		.byte	21
 442 0096 0D       		.byte	13
 443 0097 16       		.byte	22
 444 0098 27       		.byte	39
 445 0099 16       		.byte	22
 446 009a 00       		.byte	0
 447 009b 15       		.byte	21
 448 009c 00       		.byte	0
 449 009d 15       		.byte	21
 450 009e 0E       		.byte	14
 451 009f 16       		.byte	22
 452 00a0 EF       		.byte	-17
 453 00a1 16       		.byte	22
 454 00a2 00       		.byte	0
 455 00a3 19       		.byte	25
 456 00a4 FF       		.byte	-1
 457 00a5 000000   		.space	3
 458              		.type	u8x8_ist3088_320x240_display_info, %object
 459              		.size	u8x8_ist3088_320x240_display_info, 24
 460              	u8x8_ist3088_320x240_display_info:
 461 00a8 00       		.byte	0
 462 00a9 01       		.byte	1
 463 00aa 6E       		.byte	110
 464 00ab 6E       		.byte	110
 465 00ac 0A       		.byte	10
 466 00ad 0A       		.byte	10
 467 00ae 6E       		.byte	110
 468 00af 7D       		.byte	125
 469 00b0 00093D00 		.word	4000000
 470 00b4 00       		.byte	0
 471 00b5 04       		.byte	4
 472 00b6 46       		.byte	70
 473 00b7 3C       		.byte	60
 474 00b8 28       		.byte	40
 475 00b9 1E       		.byte	30
 476 00ba 00       		.byte	0
 477 00bb 00       		.byte	0
 478 00bc 4001     		.short	320
ARM GAS  C:\Users\jesse\AppData\Local\Temp\cccVt78O.s 			page 15


 479 00be F000     		.short	240
 480              		.text
 481              	.Letext0:
 482              		.file 2 "c:\\program files (x86)\\cypress\\psoc creator\\4.4\\psoc creator\\import\\gnu\\arm\\5.4.
 483              		.file 3 "c:\\program files (x86)\\cypress\\psoc creator\\4.4\\psoc creator\\import\\gnu\\arm\\5.4.
 484              		.file 4 "..\\..\\..\\u8g2\\u8g2\\csrc\\u8x8.h"