ARM GAS  C:\Users\jesse\AppData\Local\Temp\ccdqInxW.s 			page 1


   1              		.syntax unified
   2              		.cpu cortex-m3
   3              		.fpu softvfp
   4              		.eabi_attribute 20, 1
   5              		.eabi_attribute 21, 1
   6              		.eabi_attribute 23, 3
   7              		.eabi_attribute 24, 1
   8              		.eabi_attribute 25, 1
   9              		.eabi_attribute 26, 1
  10              		.eabi_attribute 30, 4
  11              		.eabi_attribute 34, 1
  12              		.eabi_attribute 18, 4
  13              		.thumb
  14              		.syntax unified
  15              		.file	"u8x8_byte.c"
  16              		.text
  17              	.Ltext0:
  18              		.cfi_sections	.debug_frame
  19              		.section	.text.i2c_delay,"ax",%progbits
  20              		.align	1
  21              		.thumb
  22              		.thumb_func
  23              		.type	i2c_delay, %function
  24              	i2c_delay:
  25              	.LFB13:
  26              		.file 1 "..\\..\\..\\u8g2\\u8g2\\csrc\\u8x8_byte.c"
   1:..\..\..\u8g2\u8g2\csrc/u8x8_byte.c **** /*
   2:..\..\..\u8g2\u8g2\csrc/u8x8_byte.c **** 
   3:..\..\..\u8g2\u8g2\csrc/u8x8_byte.c ****   u8x8_byte.c 
   4:..\..\..\u8g2\u8g2\csrc/u8x8_byte.c ****   
   5:..\..\..\u8g2\u8g2\csrc/u8x8_byte.c ****   Universal 8bit Graphics Library (https://github.com/olikraus/u8g2/)
   6:..\..\..\u8g2\u8g2\csrc/u8x8_byte.c **** 
   7:..\..\..\u8g2\u8g2\csrc/u8x8_byte.c ****   Copyright (c) 2016, olikraus@gmail.com
   8:..\..\..\u8g2\u8g2\csrc/u8x8_byte.c ****   All rights reserved.
   9:..\..\..\u8g2\u8g2\csrc/u8x8_byte.c **** 
  10:..\..\..\u8g2\u8g2\csrc/u8x8_byte.c ****   Redistribution and use in source and binary forms, with or without modification, 
  11:..\..\..\u8g2\u8g2\csrc/u8x8_byte.c ****   are permitted provided that the following conditions are met:
  12:..\..\..\u8g2\u8g2\csrc/u8x8_byte.c **** 
  13:..\..\..\u8g2\u8g2\csrc/u8x8_byte.c ****   * Redistributions of source code must retain the above copyright notice, this list 
  14:..\..\..\u8g2\u8g2\csrc/u8x8_byte.c ****     of conditions and the following disclaimer.
  15:..\..\..\u8g2\u8g2\csrc/u8x8_byte.c ****     
  16:..\..\..\u8g2\u8g2\csrc/u8x8_byte.c ****   * Redistributions in binary form must reproduce the above copyright notice, this 
  17:..\..\..\u8g2\u8g2\csrc/u8x8_byte.c ****     list of conditions and the following disclaimer in the documentation and/or other 
  18:..\..\..\u8g2\u8g2\csrc/u8x8_byte.c ****     materials provided with the distribution.
  19:..\..\..\u8g2\u8g2\csrc/u8x8_byte.c **** 
  20:..\..\..\u8g2\u8g2\csrc/u8x8_byte.c ****   THIS SOFTWARE IS PROVIDED BY THE COPYRIGHT HOLDERS AND 
  21:..\..\..\u8g2\u8g2\csrc/u8x8_byte.c ****   CONTRIBUTORS "AS IS" AND ANY EXPRESS OR IMPLIED WARRANTIES, 
  22:..\..\..\u8g2\u8g2\csrc/u8x8_byte.c ****   INCLUDING, BUT NOT LIMITED TO, THE IMPLIED WARRANTIES OF 
  23:..\..\..\u8g2\u8g2\csrc/u8x8_byte.c ****   MERCHANTABILITY AND FITNESS FOR A PARTICULAR PURPOSE ARE 
  24:..\..\..\u8g2\u8g2\csrc/u8x8_byte.c ****   DISCLAIMED. IN NO EVENT SHALL THE COPYRIGHT HOLDER OR 
  25:..\..\..\u8g2\u8g2\csrc/u8x8_byte.c ****   CONTRIBUTORS BE LIABLE FOR ANY DIRECT, INDIRECT, INCIDENTAL, 
  26:..\..\..\u8g2\u8g2\csrc/u8x8_byte.c ****   SPECIAL, EXEMPLARY, OR CONSEQUENTIAL DAMAGES (INCLUDING, BUT 
  27:..\..\..\u8g2\u8g2\csrc/u8x8_byte.c ****   NOT LIMITED TO, PROCUREMENT OF SUBSTITUTE GOODS OR SERVICES; 
  28:..\..\..\u8g2\u8g2\csrc/u8x8_byte.c ****   LOSS OF USE, DATA, OR PROFITS; OR BUSINESS INTERRUPTION) HOWEVER 
  29:..\..\..\u8g2\u8g2\csrc/u8x8_byte.c ****   CAUSED AND ON ANY THEORY OF LIABILITY, WHETHER IN CONTRACT, 
  30:..\..\..\u8g2\u8g2\csrc/u8x8_byte.c ****   STRICT LIABILITY, OR TORT (INCLUDING NEGLIGENCE OR OTHERWISE) 
  31:..\..\..\u8g2\u8g2\csrc/u8x8_byte.c ****   ARISING IN ANY WAY OUT OF THE USE OF THIS SOFTWARE, EVEN IF 
ARM GAS  C:\Users\jesse\AppData\Local\Temp\ccdqInxW.s 			page 2


  32:..\..\..\u8g2\u8g2\csrc/u8x8_byte.c ****   ADVISED OF THE POSSIBILITY OF SUCH DAMAGE.  
  33:..\..\..\u8g2\u8g2\csrc/u8x8_byte.c ****   
  34:..\..\..\u8g2\u8g2\csrc/u8x8_byte.c ****   
  35:..\..\..\u8g2\u8g2\csrc/u8x8_byte.c **** */
  36:..\..\..\u8g2\u8g2\csrc/u8x8_byte.c **** 
  37:..\..\..\u8g2\u8g2\csrc/u8x8_byte.c **** #include "u8x8.h"
  38:..\..\..\u8g2\u8g2\csrc/u8x8_byte.c **** 
  39:..\..\..\u8g2\u8g2\csrc/u8x8_byte.c **** uint8_t u8x8_byte_SetDC(u8x8_t *u8x8, uint8_t dc)
  40:..\..\..\u8g2\u8g2\csrc/u8x8_byte.c **** {
  41:..\..\..\u8g2\u8g2\csrc/u8x8_byte.c ****   return u8x8->byte_cb(u8x8, U8X8_MSG_BYTE_SET_DC, dc, NULL);
  42:..\..\..\u8g2\u8g2\csrc/u8x8_byte.c **** }
  43:..\..\..\u8g2\u8g2\csrc/u8x8_byte.c **** 
  44:..\..\..\u8g2\u8g2\csrc/u8x8_byte.c **** uint8_t u8x8_byte_SendBytes(u8x8_t *u8x8, uint8_t cnt, uint8_t *data)
  45:..\..\..\u8g2\u8g2\csrc/u8x8_byte.c **** {
  46:..\..\..\u8g2\u8g2\csrc/u8x8_byte.c ****   return u8x8->byte_cb(u8x8, U8X8_MSG_BYTE_SEND, cnt, (void *)data);
  47:..\..\..\u8g2\u8g2\csrc/u8x8_byte.c **** }
  48:..\..\..\u8g2\u8g2\csrc/u8x8_byte.c **** 
  49:..\..\..\u8g2\u8g2\csrc/u8x8_byte.c **** uint8_t u8x8_byte_SendByte(u8x8_t *u8x8, uint8_t byte)
  50:..\..\..\u8g2\u8g2\csrc/u8x8_byte.c **** {
  51:..\..\..\u8g2\u8g2\csrc/u8x8_byte.c ****   return u8x8_byte_SendBytes(u8x8, 1, &byte);
  52:..\..\..\u8g2\u8g2\csrc/u8x8_byte.c **** }
  53:..\..\..\u8g2\u8g2\csrc/u8x8_byte.c **** 
  54:..\..\..\u8g2\u8g2\csrc/u8x8_byte.c **** uint8_t u8x8_byte_StartTransfer(u8x8_t *u8x8)
  55:..\..\..\u8g2\u8g2\csrc/u8x8_byte.c **** {
  56:..\..\..\u8g2\u8g2\csrc/u8x8_byte.c ****   return u8x8->byte_cb(u8x8, U8X8_MSG_BYTE_START_TRANSFER, 0, NULL);
  57:..\..\..\u8g2\u8g2\csrc/u8x8_byte.c **** }
  58:..\..\..\u8g2\u8g2\csrc/u8x8_byte.c **** 
  59:..\..\..\u8g2\u8g2\csrc/u8x8_byte.c **** uint8_t u8x8_byte_EndTransfer(u8x8_t *u8x8)
  60:..\..\..\u8g2\u8g2\csrc/u8x8_byte.c **** {
  61:..\..\..\u8g2\u8g2\csrc/u8x8_byte.c ****   return u8x8->byte_cb(u8x8, U8X8_MSG_BYTE_END_TRANSFER, 0, NULL);
  62:..\..\..\u8g2\u8g2\csrc/u8x8_byte.c **** }
  63:..\..\..\u8g2\u8g2\csrc/u8x8_byte.c **** 
  64:..\..\..\u8g2\u8g2\csrc/u8x8_byte.c **** /*=========================================*/
  65:..\..\..\u8g2\u8g2\csrc/u8x8_byte.c **** 
  66:..\..\..\u8g2\u8g2\csrc/u8x8_byte.c **** uint8_t u8x8_byte_empty(U8X8_UNUSED u8x8_t *u8x8, uint8_t msg, U8X8_UNUSED uint8_t arg_int, U8X8_UN
  67:..\..\..\u8g2\u8g2\csrc/u8x8_byte.c **** {
  68:..\..\..\u8g2\u8g2\csrc/u8x8_byte.c ****   switch(msg)
  69:..\..\..\u8g2\u8g2\csrc/u8x8_byte.c ****   {
  70:..\..\..\u8g2\u8g2\csrc/u8x8_byte.c ****     case U8X8_MSG_BYTE_SEND:
  71:..\..\..\u8g2\u8g2\csrc/u8x8_byte.c ****     case U8X8_MSG_BYTE_INIT:
  72:..\..\..\u8g2\u8g2\csrc/u8x8_byte.c ****     case U8X8_MSG_BYTE_SET_DC:
  73:..\..\..\u8g2\u8g2\csrc/u8x8_byte.c ****     case U8X8_MSG_BYTE_START_TRANSFER:
  74:..\..\..\u8g2\u8g2\csrc/u8x8_byte.c ****     case U8X8_MSG_BYTE_END_TRANSFER:
  75:..\..\..\u8g2\u8g2\csrc/u8x8_byte.c ****       break;	/* do nothing */
  76:..\..\..\u8g2\u8g2\csrc/u8x8_byte.c ****   }
  77:..\..\..\u8g2\u8g2\csrc/u8x8_byte.c ****   return 1;	/* always succeed */
  78:..\..\..\u8g2\u8g2\csrc/u8x8_byte.c **** }
  79:..\..\..\u8g2\u8g2\csrc/u8x8_byte.c **** 
  80:..\..\..\u8g2\u8g2\csrc/u8x8_byte.c **** 
  81:..\..\..\u8g2\u8g2\csrc/u8x8_byte.c **** /*=========================================*/
  82:..\..\..\u8g2\u8g2\csrc/u8x8_byte.c **** 
  83:..\..\..\u8g2\u8g2\csrc/u8x8_byte.c **** 
  84:..\..\..\u8g2\u8g2\csrc/u8x8_byte.c **** /*
  85:..\..\..\u8g2\u8g2\csrc/u8x8_byte.c ****   Uses:
  86:..\..\..\u8g2\u8g2\csrc/u8x8_byte.c ****     u8x8->display_info->sda_setup_time_ns
  87:..\..\..\u8g2\u8g2\csrc/u8x8_byte.c ****     u8x8->display_info->sck_pulse_width_ns
  88:..\..\..\u8g2\u8g2\csrc/u8x8_byte.c ****     u8x8->display_info->spi_mode
ARM GAS  C:\Users\jesse\AppData\Local\Temp\ccdqInxW.s 			page 3


  89:..\..\..\u8g2\u8g2\csrc/u8x8_byte.c ****     u8x8->display_info->chip_disable_level
  90:..\..\..\u8g2\u8g2\csrc/u8x8_byte.c ****     u8x8->display_info->chip_enable_level
  91:..\..\..\u8g2\u8g2\csrc/u8x8_byte.c ****     u8x8->display_info->post_chip_enable_wait_ns
  92:..\..\..\u8g2\u8g2\csrc/u8x8_byte.c ****     u8x8->display_info->pre_chip_disable_wait_ns
  93:..\..\..\u8g2\u8g2\csrc/u8x8_byte.c ****   Calls to GPIO and DELAY:
  94:..\..\..\u8g2\u8g2\csrc/u8x8_byte.c ****     U8X8_MSG_DELAY_NANO
  95:..\..\..\u8g2\u8g2\csrc/u8x8_byte.c ****     U8X8_MSG_GPIO_DC
  96:..\..\..\u8g2\u8g2\csrc/u8x8_byte.c ****     U8X8_MSG_GPIO_CS
  97:..\..\..\u8g2\u8g2\csrc/u8x8_byte.c ****     U8X8_MSG_GPIO_CLOCK
  98:..\..\..\u8g2\u8g2\csrc/u8x8_byte.c ****     U8X8_MSG_GPIO_DATA
  99:..\..\..\u8g2\u8g2\csrc/u8x8_byte.c ****   Handles:
 100:..\..\..\u8g2\u8g2\csrc/u8x8_byte.c ****     U8X8_MSG_BYTE_INIT
 101:..\..\..\u8g2\u8g2\csrc/u8x8_byte.c ****     U8X8_MSG_BYTE_SEND
 102:..\..\..\u8g2\u8g2\csrc/u8x8_byte.c ****     U8X8_MSG_BYTE_SET_DC
 103:..\..\..\u8g2\u8g2\csrc/u8x8_byte.c ****     U8X8_MSG_BYTE_START_TRANSFER
 104:..\..\..\u8g2\u8g2\csrc/u8x8_byte.c ****     U8X8_MSG_BYTE_END_TRANSFER
 105:..\..\..\u8g2\u8g2\csrc/u8x8_byte.c **** */
 106:..\..\..\u8g2\u8g2\csrc/u8x8_byte.c **** 
 107:..\..\..\u8g2\u8g2\csrc/u8x8_byte.c **** uint8_t u8x8_byte_4wire_sw_spi(u8x8_t *u8x8, uint8_t msg, uint8_t arg_int, void *arg_ptr)
 108:..\..\..\u8g2\u8g2\csrc/u8x8_byte.c **** {
 109:..\..\..\u8g2\u8g2\csrc/u8x8_byte.c ****   uint8_t i, b;
 110:..\..\..\u8g2\u8g2\csrc/u8x8_byte.c ****   uint8_t *data;
 111:..\..\..\u8g2\u8g2\csrc/u8x8_byte.c ****   uint8_t takeover_edge = u8x8_GetSPIClockPhase(u8x8);
 112:..\..\..\u8g2\u8g2\csrc/u8x8_byte.c ****   uint8_t not_takeover_edge = 1 - takeover_edge;
 113:..\..\..\u8g2\u8g2\csrc/u8x8_byte.c ****  
 114:..\..\..\u8g2\u8g2\csrc/u8x8_byte.c ****   switch(msg)
 115:..\..\..\u8g2\u8g2\csrc/u8x8_byte.c ****   {
 116:..\..\..\u8g2\u8g2\csrc/u8x8_byte.c ****     case U8X8_MSG_BYTE_SEND:
 117:..\..\..\u8g2\u8g2\csrc/u8x8_byte.c ****       data = (uint8_t *)arg_ptr;
 118:..\..\..\u8g2\u8g2\csrc/u8x8_byte.c ****       while( arg_int > 0 )
 119:..\..\..\u8g2\u8g2\csrc/u8x8_byte.c ****       {
 120:..\..\..\u8g2\u8g2\csrc/u8x8_byte.c **** 	b = *data;
 121:..\..\..\u8g2\u8g2\csrc/u8x8_byte.c **** 	data++;
 122:..\..\..\u8g2\u8g2\csrc/u8x8_byte.c **** 	arg_int--;
 123:..\..\..\u8g2\u8g2\csrc/u8x8_byte.c **** 	for( i = 0; i < 8; i++ )
 124:..\..\..\u8g2\u8g2\csrc/u8x8_byte.c **** 	{
 125:..\..\..\u8g2\u8g2\csrc/u8x8_byte.c **** 	  if ( b & 128 )
 126:..\..\..\u8g2\u8g2\csrc/u8x8_byte.c **** 	    u8x8_gpio_SetSPIData(u8x8, 1);
 127:..\..\..\u8g2\u8g2\csrc/u8x8_byte.c **** 	  else
 128:..\..\..\u8g2\u8g2\csrc/u8x8_byte.c **** 	    u8x8_gpio_SetSPIData(u8x8, 0);
 129:..\..\..\u8g2\u8g2\csrc/u8x8_byte.c **** 	  b <<= 1;
 130:..\..\..\u8g2\u8g2\csrc/u8x8_byte.c **** 	  
 131:..\..\..\u8g2\u8g2\csrc/u8x8_byte.c **** 	  u8x8_gpio_SetSPIClock(u8x8, not_takeover_edge);
 132:..\..\..\u8g2\u8g2\csrc/u8x8_byte.c **** 	  u8x8_gpio_Delay(u8x8, U8X8_MSG_DELAY_NANO, u8x8->display_info->sda_setup_time_ns);
 133:..\..\..\u8g2\u8g2\csrc/u8x8_byte.c **** 	  u8x8_gpio_SetSPIClock(u8x8, takeover_edge);
 134:..\..\..\u8g2\u8g2\csrc/u8x8_byte.c **** 	  u8x8_gpio_Delay(u8x8, U8X8_MSG_DELAY_NANO, u8x8->display_info->sck_pulse_width_ns);
 135:..\..\..\u8g2\u8g2\csrc/u8x8_byte.c **** 	}    
 136:..\..\..\u8g2\u8g2\csrc/u8x8_byte.c ****       }
 137:..\..\..\u8g2\u8g2\csrc/u8x8_byte.c ****       break;
 138:..\..\..\u8g2\u8g2\csrc/u8x8_byte.c ****       
 139:..\..\..\u8g2\u8g2\csrc/u8x8_byte.c ****     case U8X8_MSG_BYTE_INIT:
 140:..\..\..\u8g2\u8g2\csrc/u8x8_byte.c ****       /* disable chipselect */
 141:..\..\..\u8g2\u8g2\csrc/u8x8_byte.c ****       u8x8_gpio_SetCS(u8x8, u8x8->display_info->chip_disable_level);
 142:..\..\..\u8g2\u8g2\csrc/u8x8_byte.c ****       /* no wait required here */
 143:..\..\..\u8g2\u8g2\csrc/u8x8_byte.c ****       
 144:..\..\..\u8g2\u8g2\csrc/u8x8_byte.c ****       /* for SPI: setup correct level of the clock signal */
 145:..\..\..\u8g2\u8g2\csrc/u8x8_byte.c ****       u8x8_gpio_SetSPIClock(u8x8, u8x8_GetSPIClockPhase(u8x8));
ARM GAS  C:\Users\jesse\AppData\Local\Temp\ccdqInxW.s 			page 4


 146:..\..\..\u8g2\u8g2\csrc/u8x8_byte.c ****       break;
 147:..\..\..\u8g2\u8g2\csrc/u8x8_byte.c ****     case U8X8_MSG_BYTE_SET_DC:
 148:..\..\..\u8g2\u8g2\csrc/u8x8_byte.c ****       u8x8_gpio_SetDC(u8x8, arg_int);
 149:..\..\..\u8g2\u8g2\csrc/u8x8_byte.c ****       break;
 150:..\..\..\u8g2\u8g2\csrc/u8x8_byte.c ****     case U8X8_MSG_BYTE_START_TRANSFER:
 151:..\..\..\u8g2\u8g2\csrc/u8x8_byte.c ****       u8x8_gpio_SetCS(u8x8, u8x8->display_info->chip_enable_level);  
 152:..\..\..\u8g2\u8g2\csrc/u8x8_byte.c ****       u8x8->gpio_and_delay_cb(u8x8, U8X8_MSG_DELAY_NANO, u8x8->display_info->post_chip_enable_wait_
 153:..\..\..\u8g2\u8g2\csrc/u8x8_byte.c ****       break;
 154:..\..\..\u8g2\u8g2\csrc/u8x8_byte.c ****     case U8X8_MSG_BYTE_END_TRANSFER:
 155:..\..\..\u8g2\u8g2\csrc/u8x8_byte.c ****       u8x8->gpio_and_delay_cb(u8x8, U8X8_MSG_DELAY_NANO, u8x8->display_info->pre_chip_disable_wait_
 156:..\..\..\u8g2\u8g2\csrc/u8x8_byte.c ****       u8x8_gpio_SetCS(u8x8, u8x8->display_info->chip_disable_level);
 157:..\..\..\u8g2\u8g2\csrc/u8x8_byte.c ****       break;
 158:..\..\..\u8g2\u8g2\csrc/u8x8_byte.c ****     default:
 159:..\..\..\u8g2\u8g2\csrc/u8x8_byte.c ****       return 0;
 160:..\..\..\u8g2\u8g2\csrc/u8x8_byte.c ****   }
 161:..\..\..\u8g2\u8g2\csrc/u8x8_byte.c ****   return 1;
 162:..\..\..\u8g2\u8g2\csrc/u8x8_byte.c **** }
 163:..\..\..\u8g2\u8g2\csrc/u8x8_byte.c **** 
 164:..\..\..\u8g2\u8g2\csrc/u8x8_byte.c **** /*=========================================*/
 165:..\..\..\u8g2\u8g2\csrc/u8x8_byte.c **** 
 166:..\..\..\u8g2\u8g2\csrc/u8x8_byte.c **** uint8_t u8x8_byte_8bit_6800mode(u8x8_t *u8x8, uint8_t msg, uint8_t arg_int, void *arg_ptr)
 167:..\..\..\u8g2\u8g2\csrc/u8x8_byte.c **** {
 168:..\..\..\u8g2\u8g2\csrc/u8x8_byte.c ****   uint8_t i, b;
 169:..\..\..\u8g2\u8g2\csrc/u8x8_byte.c ****   uint8_t *data;
 170:..\..\..\u8g2\u8g2\csrc/u8x8_byte.c ****  
 171:..\..\..\u8g2\u8g2\csrc/u8x8_byte.c ****   switch(msg)
 172:..\..\..\u8g2\u8g2\csrc/u8x8_byte.c ****   {
 173:..\..\..\u8g2\u8g2\csrc/u8x8_byte.c ****     case U8X8_MSG_BYTE_SEND:
 174:..\..\..\u8g2\u8g2\csrc/u8x8_byte.c ****       data = (uint8_t *)arg_ptr;
 175:..\..\..\u8g2\u8g2\csrc/u8x8_byte.c ****       while( arg_int > 0 )
 176:..\..\..\u8g2\u8g2\csrc/u8x8_byte.c ****       {
 177:..\..\..\u8g2\u8g2\csrc/u8x8_byte.c **** 	b = *data;
 178:..\..\..\u8g2\u8g2\csrc/u8x8_byte.c **** 	data++;
 179:..\..\..\u8g2\u8g2\csrc/u8x8_byte.c **** 	arg_int--;
 180:..\..\..\u8g2\u8g2\csrc/u8x8_byte.c **** 	for( i = U8X8_MSG_GPIO_D0; i <= U8X8_MSG_GPIO_D7; i++ )
 181:..\..\..\u8g2\u8g2\csrc/u8x8_byte.c **** 	{
 182:..\..\..\u8g2\u8g2\csrc/u8x8_byte.c **** 	  u8x8_gpio_call(u8x8, i, b&1);
 183:..\..\..\u8g2\u8g2\csrc/u8x8_byte.c **** 	  b >>= 1;
 184:..\..\..\u8g2\u8g2\csrc/u8x8_byte.c **** 	}    
 185:..\..\..\u8g2\u8g2\csrc/u8x8_byte.c **** 	
 186:..\..\..\u8g2\u8g2\csrc/u8x8_byte.c **** 	u8x8_gpio_Delay(u8x8, U8X8_MSG_DELAY_NANO, u8x8->display_info->data_setup_time_ns);
 187:..\..\..\u8g2\u8g2\csrc/u8x8_byte.c **** 	u8x8_gpio_call(u8x8, U8X8_MSG_GPIO_E, 1);
 188:..\..\..\u8g2\u8g2\csrc/u8x8_byte.c **** 	u8x8_gpio_Delay(u8x8, U8X8_MSG_DELAY_NANO, u8x8->display_info->write_pulse_width_ns);
 189:..\..\..\u8g2\u8g2\csrc/u8x8_byte.c **** 	u8x8_gpio_call(u8x8, U8X8_MSG_GPIO_E, 0);
 190:..\..\..\u8g2\u8g2\csrc/u8x8_byte.c ****       }
 191:..\..\..\u8g2\u8g2\csrc/u8x8_byte.c ****       break;
 192:..\..\..\u8g2\u8g2\csrc/u8x8_byte.c ****       
 193:..\..\..\u8g2\u8g2\csrc/u8x8_byte.c ****     case U8X8_MSG_BYTE_INIT:
 194:..\..\..\u8g2\u8g2\csrc/u8x8_byte.c ****       /* disable chipselect */
 195:..\..\..\u8g2\u8g2\csrc/u8x8_byte.c ****       u8x8_gpio_SetCS(u8x8, u8x8->display_info->chip_disable_level);    
 196:..\..\..\u8g2\u8g2\csrc/u8x8_byte.c ****       /* ensure that the enable signal is high */
 197:..\..\..\u8g2\u8g2\csrc/u8x8_byte.c ****       u8x8_gpio_call(u8x8, U8X8_MSG_GPIO_E, 0);
 198:..\..\..\u8g2\u8g2\csrc/u8x8_byte.c ****       break;
 199:..\..\..\u8g2\u8g2\csrc/u8x8_byte.c ****     case U8X8_MSG_BYTE_SET_DC:
 200:..\..\..\u8g2\u8g2\csrc/u8x8_byte.c ****       u8x8_gpio_SetDC(u8x8, arg_int);
 201:..\..\..\u8g2\u8g2\csrc/u8x8_byte.c ****       break;
 202:..\..\..\u8g2\u8g2\csrc/u8x8_byte.c ****     case U8X8_MSG_BYTE_START_TRANSFER:
ARM GAS  C:\Users\jesse\AppData\Local\Temp\ccdqInxW.s 			page 5


 203:..\..\..\u8g2\u8g2\csrc/u8x8_byte.c ****       u8x8_gpio_SetCS(u8x8, u8x8->display_info->chip_enable_level);  
 204:..\..\..\u8g2\u8g2\csrc/u8x8_byte.c ****       u8x8->gpio_and_delay_cb(u8x8, U8X8_MSG_DELAY_NANO, u8x8->display_info->post_chip_enable_wait_
 205:..\..\..\u8g2\u8g2\csrc/u8x8_byte.c ****       break;
 206:..\..\..\u8g2\u8g2\csrc/u8x8_byte.c ****     case U8X8_MSG_BYTE_END_TRANSFER:
 207:..\..\..\u8g2\u8g2\csrc/u8x8_byte.c ****       u8x8->gpio_and_delay_cb(u8x8, U8X8_MSG_DELAY_NANO, u8x8->display_info->pre_chip_disable_wait_
 208:..\..\..\u8g2\u8g2\csrc/u8x8_byte.c ****       u8x8_gpio_SetCS(u8x8, u8x8->display_info->chip_disable_level);
 209:..\..\..\u8g2\u8g2\csrc/u8x8_byte.c ****       break;
 210:..\..\..\u8g2\u8g2\csrc/u8x8_byte.c ****     default:
 211:..\..\..\u8g2\u8g2\csrc/u8x8_byte.c ****       return 0;
 212:..\..\..\u8g2\u8g2\csrc/u8x8_byte.c ****   }
 213:..\..\..\u8g2\u8g2\csrc/u8x8_byte.c ****   return 1;
 214:..\..\..\u8g2\u8g2\csrc/u8x8_byte.c **** }
 215:..\..\..\u8g2\u8g2\csrc/u8x8_byte.c **** 
 216:..\..\..\u8g2\u8g2\csrc/u8x8_byte.c **** uint8_t u8x8_byte_8bit_8080mode(u8x8_t *u8x8, uint8_t msg, uint8_t arg_int, void *arg_ptr)
 217:..\..\..\u8g2\u8g2\csrc/u8x8_byte.c **** {
 218:..\..\..\u8g2\u8g2\csrc/u8x8_byte.c ****   uint8_t i, b;
 219:..\..\..\u8g2\u8g2\csrc/u8x8_byte.c ****   uint8_t *data;
 220:..\..\..\u8g2\u8g2\csrc/u8x8_byte.c ****  
 221:..\..\..\u8g2\u8g2\csrc/u8x8_byte.c ****   switch(msg)
 222:..\..\..\u8g2\u8g2\csrc/u8x8_byte.c ****   {
 223:..\..\..\u8g2\u8g2\csrc/u8x8_byte.c ****     case U8X8_MSG_BYTE_SEND:
 224:..\..\..\u8g2\u8g2\csrc/u8x8_byte.c ****       data = (uint8_t *)arg_ptr;
 225:..\..\..\u8g2\u8g2\csrc/u8x8_byte.c ****       while( arg_int > 0 )
 226:..\..\..\u8g2\u8g2\csrc/u8x8_byte.c ****       {
 227:..\..\..\u8g2\u8g2\csrc/u8x8_byte.c **** 	b = *data;
 228:..\..\..\u8g2\u8g2\csrc/u8x8_byte.c **** 	data++;
 229:..\..\..\u8g2\u8g2\csrc/u8x8_byte.c **** 	arg_int--;
 230:..\..\..\u8g2\u8g2\csrc/u8x8_byte.c **** 	for( i = U8X8_MSG_GPIO_D0; i <= U8X8_MSG_GPIO_D7; i++ )
 231:..\..\..\u8g2\u8g2\csrc/u8x8_byte.c **** 	{
 232:..\..\..\u8g2\u8g2\csrc/u8x8_byte.c **** 	  u8x8_gpio_call(u8x8, i, b&1);
 233:..\..\..\u8g2\u8g2\csrc/u8x8_byte.c **** 	  b >>= 1;
 234:..\..\..\u8g2\u8g2\csrc/u8x8_byte.c **** 	}    
 235:..\..\..\u8g2\u8g2\csrc/u8x8_byte.c **** 	
 236:..\..\..\u8g2\u8g2\csrc/u8x8_byte.c **** 	u8x8_gpio_Delay(u8x8, U8X8_MSG_DELAY_NANO, u8x8->display_info->data_setup_time_ns);
 237:..\..\..\u8g2\u8g2\csrc/u8x8_byte.c **** 	u8x8_gpio_call(u8x8, U8X8_MSG_GPIO_E, 0);
 238:..\..\..\u8g2\u8g2\csrc/u8x8_byte.c **** 	u8x8_gpio_Delay(u8x8, U8X8_MSG_DELAY_NANO, u8x8->display_info->write_pulse_width_ns);
 239:..\..\..\u8g2\u8g2\csrc/u8x8_byte.c **** 	u8x8_gpio_call(u8x8, U8X8_MSG_GPIO_E, 1);
 240:..\..\..\u8g2\u8g2\csrc/u8x8_byte.c ****       }
 241:..\..\..\u8g2\u8g2\csrc/u8x8_byte.c ****       break;
 242:..\..\..\u8g2\u8g2\csrc/u8x8_byte.c ****       
 243:..\..\..\u8g2\u8g2\csrc/u8x8_byte.c ****     case U8X8_MSG_BYTE_INIT:
 244:..\..\..\u8g2\u8g2\csrc/u8x8_byte.c ****       /* disable chipselect */
 245:..\..\..\u8g2\u8g2\csrc/u8x8_byte.c ****       u8x8_gpio_SetCS(u8x8, u8x8->display_info->chip_disable_level);    
 246:..\..\..\u8g2\u8g2\csrc/u8x8_byte.c ****       /* ensure that the enable signal is high */
 247:..\..\..\u8g2\u8g2\csrc/u8x8_byte.c ****       u8x8_gpio_call(u8x8, U8X8_MSG_GPIO_E, 1);
 248:..\..\..\u8g2\u8g2\csrc/u8x8_byte.c ****       break;
 249:..\..\..\u8g2\u8g2\csrc/u8x8_byte.c ****     case U8X8_MSG_BYTE_SET_DC:
 250:..\..\..\u8g2\u8g2\csrc/u8x8_byte.c ****       u8x8_gpio_SetDC(u8x8, arg_int);
 251:..\..\..\u8g2\u8g2\csrc/u8x8_byte.c ****       break;
 252:..\..\..\u8g2\u8g2\csrc/u8x8_byte.c ****     case U8X8_MSG_BYTE_START_TRANSFER:
 253:..\..\..\u8g2\u8g2\csrc/u8x8_byte.c ****       u8x8_gpio_SetCS(u8x8, u8x8->display_info->chip_enable_level);  
 254:..\..\..\u8g2\u8g2\csrc/u8x8_byte.c ****       u8x8->gpio_and_delay_cb(u8x8, U8X8_MSG_DELAY_NANO, u8x8->display_info->post_chip_enable_wait_
 255:..\..\..\u8g2\u8g2\csrc/u8x8_byte.c ****       break;
 256:..\..\..\u8g2\u8g2\csrc/u8x8_byte.c ****     case U8X8_MSG_BYTE_END_TRANSFER:
 257:..\..\..\u8g2\u8g2\csrc/u8x8_byte.c ****       u8x8->gpio_and_delay_cb(u8x8, U8X8_MSG_DELAY_NANO, u8x8->display_info->pre_chip_disable_wait_
 258:..\..\..\u8g2\u8g2\csrc/u8x8_byte.c ****       u8x8_gpio_SetCS(u8x8, u8x8->display_info->chip_disable_level);
 259:..\..\..\u8g2\u8g2\csrc/u8x8_byte.c ****       break;
ARM GAS  C:\Users\jesse\AppData\Local\Temp\ccdqInxW.s 			page 6


 260:..\..\..\u8g2\u8g2\csrc/u8x8_byte.c ****     default:
 261:..\..\..\u8g2\u8g2\csrc/u8x8_byte.c ****       return 0;
 262:..\..\..\u8g2\u8g2\csrc/u8x8_byte.c ****   }
 263:..\..\..\u8g2\u8g2\csrc/u8x8_byte.c ****   return 1;
 264:..\..\..\u8g2\u8g2\csrc/u8x8_byte.c **** }
 265:..\..\..\u8g2\u8g2\csrc/u8x8_byte.c **** 
 266:..\..\..\u8g2\u8g2\csrc/u8x8_byte.c **** /*=========================================*/
 267:..\..\..\u8g2\u8g2\csrc/u8x8_byte.c **** 
 268:..\..\..\u8g2\u8g2\csrc/u8x8_byte.c **** uint8_t u8x8_byte_3wire_sw_spi(u8x8_t *u8x8, uint8_t msg, uint8_t arg_int, void *arg_ptr)
 269:..\..\..\u8g2\u8g2\csrc/u8x8_byte.c **** {
 270:..\..\..\u8g2\u8g2\csrc/u8x8_byte.c ****   uint8_t i;
 271:..\..\..\u8g2\u8g2\csrc/u8x8_byte.c ****   uint8_t *data;
 272:..\..\..\u8g2\u8g2\csrc/u8x8_byte.c ****   uint8_t takeover_edge = u8x8_GetSPIClockPhase(u8x8);
 273:..\..\..\u8g2\u8g2\csrc/u8x8_byte.c ****   uint8_t not_takeover_edge = 1 - takeover_edge;
 274:..\..\..\u8g2\u8g2\csrc/u8x8_byte.c ****   uint16_t b;
 275:..\..\..\u8g2\u8g2\csrc/u8x8_byte.c ****   static uint8_t last_dc;
 276:..\..\..\u8g2\u8g2\csrc/u8x8_byte.c ****  
 277:..\..\..\u8g2\u8g2\csrc/u8x8_byte.c ****   switch(msg)
 278:..\..\..\u8g2\u8g2\csrc/u8x8_byte.c ****   {
 279:..\..\..\u8g2\u8g2\csrc/u8x8_byte.c ****     case U8X8_MSG_BYTE_SEND:
 280:..\..\..\u8g2\u8g2\csrc/u8x8_byte.c ****       data = (uint8_t *)arg_ptr;
 281:..\..\..\u8g2\u8g2\csrc/u8x8_byte.c ****       while( arg_int > 0 )
 282:..\..\..\u8g2\u8g2\csrc/u8x8_byte.c ****       {
 283:..\..\..\u8g2\u8g2\csrc/u8x8_byte.c **** 	b = *data;
 284:..\..\..\u8g2\u8g2\csrc/u8x8_byte.c **** 	if ( last_dc != 0 )
 285:..\..\..\u8g2\u8g2\csrc/u8x8_byte.c **** 	  b |= 256;
 286:..\..\..\u8g2\u8g2\csrc/u8x8_byte.c **** 	data++;
 287:..\..\..\u8g2\u8g2\csrc/u8x8_byte.c **** 	arg_int--;
 288:..\..\..\u8g2\u8g2\csrc/u8x8_byte.c **** 	for( i = 0; i < 9; i++ )
 289:..\..\..\u8g2\u8g2\csrc/u8x8_byte.c **** 	{
 290:..\..\..\u8g2\u8g2\csrc/u8x8_byte.c **** 	  if ( b & 256 )
 291:..\..\..\u8g2\u8g2\csrc/u8x8_byte.c **** 	    u8x8_gpio_SetSPIData(u8x8, 1);
 292:..\..\..\u8g2\u8g2\csrc/u8x8_byte.c **** 	  else
 293:..\..\..\u8g2\u8g2\csrc/u8x8_byte.c **** 	    u8x8_gpio_SetSPIData(u8x8, 0);
 294:..\..\..\u8g2\u8g2\csrc/u8x8_byte.c **** 	  b <<= 1;
 295:..\..\..\u8g2\u8g2\csrc/u8x8_byte.c **** 	  
 296:..\..\..\u8g2\u8g2\csrc/u8x8_byte.c **** 	  u8x8_gpio_SetSPIClock(u8x8, not_takeover_edge);
 297:..\..\..\u8g2\u8g2\csrc/u8x8_byte.c **** 	  u8x8_gpio_Delay(u8x8, U8X8_MSG_DELAY_NANO, u8x8->display_info->sda_setup_time_ns);
 298:..\..\..\u8g2\u8g2\csrc/u8x8_byte.c **** 	  u8x8_gpio_SetSPIClock(u8x8, takeover_edge);
 299:..\..\..\u8g2\u8g2\csrc/u8x8_byte.c **** 	  u8x8_gpio_Delay(u8x8, U8X8_MSG_DELAY_NANO, u8x8->display_info->sck_pulse_width_ns);
 300:..\..\..\u8g2\u8g2\csrc/u8x8_byte.c **** 	}    
 301:..\..\..\u8g2\u8g2\csrc/u8x8_byte.c ****       }
 302:..\..\..\u8g2\u8g2\csrc/u8x8_byte.c ****       break;
 303:..\..\..\u8g2\u8g2\csrc/u8x8_byte.c ****       
 304:..\..\..\u8g2\u8g2\csrc/u8x8_byte.c ****     case U8X8_MSG_BYTE_INIT:
 305:..\..\..\u8g2\u8g2\csrc/u8x8_byte.c ****       /* disable chipselect */
 306:..\..\..\u8g2\u8g2\csrc/u8x8_byte.c ****       u8x8_gpio_SetCS(u8x8, u8x8->display_info->chip_disable_level);
 307:..\..\..\u8g2\u8g2\csrc/u8x8_byte.c ****       /* no wait required here */
 308:..\..\..\u8g2\u8g2\csrc/u8x8_byte.c ****       
 309:..\..\..\u8g2\u8g2\csrc/u8x8_byte.c ****       /* for SPI: setup correct level of the clock signal */
 310:..\..\..\u8g2\u8g2\csrc/u8x8_byte.c ****       u8x8_gpio_SetSPIClock(u8x8, u8x8_GetSPIClockPhase(u8x8));
 311:..\..\..\u8g2\u8g2\csrc/u8x8_byte.c ****       break;
 312:..\..\..\u8g2\u8g2\csrc/u8x8_byte.c ****     case U8X8_MSG_BYTE_SET_DC:
 313:..\..\..\u8g2\u8g2\csrc/u8x8_byte.c ****       last_dc = arg_int;
 314:..\..\..\u8g2\u8g2\csrc/u8x8_byte.c ****       break;
 315:..\..\..\u8g2\u8g2\csrc/u8x8_byte.c ****     case U8X8_MSG_BYTE_START_TRANSFER:
 316:..\..\..\u8g2\u8g2\csrc/u8x8_byte.c ****       u8x8_gpio_SetCS(u8x8, u8x8->display_info->chip_enable_level);  
ARM GAS  C:\Users\jesse\AppData\Local\Temp\ccdqInxW.s 			page 7


 317:..\..\..\u8g2\u8g2\csrc/u8x8_byte.c ****       u8x8->gpio_and_delay_cb(u8x8, U8X8_MSG_DELAY_NANO, u8x8->display_info->post_chip_enable_wait_
 318:..\..\..\u8g2\u8g2\csrc/u8x8_byte.c ****       break;
 319:..\..\..\u8g2\u8g2\csrc/u8x8_byte.c ****     case U8X8_MSG_BYTE_END_TRANSFER:
 320:..\..\..\u8g2\u8g2\csrc/u8x8_byte.c ****       u8x8->gpio_and_delay_cb(u8x8, U8X8_MSG_DELAY_NANO, u8x8->display_info->pre_chip_disable_wait_
 321:..\..\..\u8g2\u8g2\csrc/u8x8_byte.c ****       u8x8_gpio_SetCS(u8x8, u8x8->display_info->chip_disable_level);
 322:..\..\..\u8g2\u8g2\csrc/u8x8_byte.c ****       break;
 323:..\..\..\u8g2\u8g2\csrc/u8x8_byte.c ****     default:
 324:..\..\..\u8g2\u8g2\csrc/u8x8_byte.c ****       return 0;
 325:..\..\..\u8g2\u8g2\csrc/u8x8_byte.c ****   }
 326:..\..\..\u8g2\u8g2\csrc/u8x8_byte.c ****   return 1;
 327:..\..\..\u8g2\u8g2\csrc/u8x8_byte.c **** }
 328:..\..\..\u8g2\u8g2\csrc/u8x8_byte.c **** 
 329:..\..\..\u8g2\u8g2\csrc/u8x8_byte.c **** /*=========================================*/
 330:..\..\..\u8g2\u8g2\csrc/u8x8_byte.c **** 
 331:..\..\..\u8g2\u8g2\csrc/u8x8_byte.c **** void u8x8_byte_set_ks0108_cs(u8x8_t *u8x8, uint8_t arg)
 332:..\..\..\u8g2\u8g2\csrc/u8x8_byte.c **** {
 333:..\..\..\u8g2\u8g2\csrc/u8x8_byte.c ****   u8x8_gpio_SetCS(u8x8, arg&1);
 334:..\..\..\u8g2\u8g2\csrc/u8x8_byte.c ****   arg = arg >> 1;
 335:..\..\..\u8g2\u8g2\csrc/u8x8_byte.c ****   u8x8_gpio_call(u8x8, U8X8_MSG_GPIO_CS1, arg&1);
 336:..\..\..\u8g2\u8g2\csrc/u8x8_byte.c ****   arg = arg >> 1;
 337:..\..\..\u8g2\u8g2\csrc/u8x8_byte.c ****   u8x8_gpio_call(u8x8, U8X8_MSG_GPIO_CS2, arg&1);
 338:..\..\..\u8g2\u8g2\csrc/u8x8_byte.c **** }
 339:..\..\..\u8g2\u8g2\csrc/u8x8_byte.c **** 
 340:..\..\..\u8g2\u8g2\csrc/u8x8_byte.c **** /* 6800 mode */
 341:..\..\..\u8g2\u8g2\csrc/u8x8_byte.c **** uint8_t u8x8_byte_ks0108(u8x8_t *u8x8, uint8_t msg, uint8_t arg_int, void *arg_ptr)
 342:..\..\..\u8g2\u8g2\csrc/u8x8_byte.c **** {
 343:..\..\..\u8g2\u8g2\csrc/u8x8_byte.c ****   uint8_t i, b;
 344:..\..\..\u8g2\u8g2\csrc/u8x8_byte.c ****   uint8_t *data;
 345:..\..\..\u8g2\u8g2\csrc/u8x8_byte.c ****  
 346:..\..\..\u8g2\u8g2\csrc/u8x8_byte.c ****   switch(msg)
 347:..\..\..\u8g2\u8g2\csrc/u8x8_byte.c ****   {
 348:..\..\..\u8g2\u8g2\csrc/u8x8_byte.c ****     case U8X8_MSG_BYTE_SEND:
 349:..\..\..\u8g2\u8g2\csrc/u8x8_byte.c ****       data = (uint8_t *)arg_ptr;
 350:..\..\..\u8g2\u8g2\csrc/u8x8_byte.c ****       while( arg_int > 0 )
 351:..\..\..\u8g2\u8g2\csrc/u8x8_byte.c ****       {
 352:..\..\..\u8g2\u8g2\csrc/u8x8_byte.c **** 	b = *data;
 353:..\..\..\u8g2\u8g2\csrc/u8x8_byte.c **** 	data++;
 354:..\..\..\u8g2\u8g2\csrc/u8x8_byte.c **** 	arg_int--;
 355:..\..\..\u8g2\u8g2\csrc/u8x8_byte.c **** 	for( i = U8X8_MSG_GPIO_D0; i <= U8X8_MSG_GPIO_D7; i++ )
 356:..\..\..\u8g2\u8g2\csrc/u8x8_byte.c **** 	{
 357:..\..\..\u8g2\u8g2\csrc/u8x8_byte.c **** 	  u8x8_gpio_call(u8x8, i, b&1);
 358:..\..\..\u8g2\u8g2\csrc/u8x8_byte.c **** 	  b >>= 1;
 359:..\..\..\u8g2\u8g2\csrc/u8x8_byte.c **** 	}    
 360:..\..\..\u8g2\u8g2\csrc/u8x8_byte.c **** 	
 361:..\..\..\u8g2\u8g2\csrc/u8x8_byte.c **** 	u8x8_gpio_Delay(u8x8, U8X8_MSG_DELAY_NANO, u8x8->display_info->data_setup_time_ns);
 362:..\..\..\u8g2\u8g2\csrc/u8x8_byte.c **** 	u8x8_gpio_call(u8x8, U8X8_MSG_GPIO_E, 1);
 363:..\..\..\u8g2\u8g2\csrc/u8x8_byte.c **** 	u8x8_gpio_Delay(u8x8, U8X8_MSG_DELAY_NANO, u8x8->display_info->write_pulse_width_ns);
 364:..\..\..\u8g2\u8g2\csrc/u8x8_byte.c **** 	u8x8_gpio_call(u8x8, U8X8_MSG_GPIO_E, 0);
 365:..\..\..\u8g2\u8g2\csrc/u8x8_byte.c ****       }
 366:..\..\..\u8g2\u8g2\csrc/u8x8_byte.c ****       break;
 367:..\..\..\u8g2\u8g2\csrc/u8x8_byte.c ****       
 368:..\..\..\u8g2\u8g2\csrc/u8x8_byte.c ****     case U8X8_MSG_BYTE_INIT:
 369:..\..\..\u8g2\u8g2\csrc/u8x8_byte.c ****       /* disable chipselect */
 370:..\..\..\u8g2\u8g2\csrc/u8x8_byte.c ****       u8x8_gpio_SetCS(u8x8, u8x8->display_info->chip_disable_level);    
 371:..\..\..\u8g2\u8g2\csrc/u8x8_byte.c ****       /* ensure that the enable signal is low */
 372:..\..\..\u8g2\u8g2\csrc/u8x8_byte.c ****       u8x8_gpio_call(u8x8, U8X8_MSG_GPIO_E, 0);
 373:..\..\..\u8g2\u8g2\csrc/u8x8_byte.c ****       break;
ARM GAS  C:\Users\jesse\AppData\Local\Temp\ccdqInxW.s 			page 8


 374:..\..\..\u8g2\u8g2\csrc/u8x8_byte.c ****     case U8X8_MSG_BYTE_SET_DC:
 375:..\..\..\u8g2\u8g2\csrc/u8x8_byte.c ****       u8x8_gpio_SetDC(u8x8, arg_int);
 376:..\..\..\u8g2\u8g2\csrc/u8x8_byte.c ****       break;
 377:..\..\..\u8g2\u8g2\csrc/u8x8_byte.c ****     case U8X8_MSG_BYTE_START_TRANSFER:
 378:..\..\..\u8g2\u8g2\csrc/u8x8_byte.c ****       /* expects 3 bits in arg_int for the chip select lines */ 
 379:..\..\..\u8g2\u8g2\csrc/u8x8_byte.c ****       u8x8_byte_set_ks0108_cs(u8x8, arg_int);
 380:..\..\..\u8g2\u8g2\csrc/u8x8_byte.c ****       u8x8->gpio_and_delay_cb(u8x8, U8X8_MSG_DELAY_NANO, u8x8->display_info->post_chip_enable_wait_
 381:..\..\..\u8g2\u8g2\csrc/u8x8_byte.c ****       break;
 382:..\..\..\u8g2\u8g2\csrc/u8x8_byte.c ****     case U8X8_MSG_BYTE_END_TRANSFER:
 383:..\..\..\u8g2\u8g2\csrc/u8x8_byte.c ****       u8x8->gpio_and_delay_cb(u8x8, U8X8_MSG_DELAY_NANO, u8x8->display_info->pre_chip_disable_wait_
 384:..\..\..\u8g2\u8g2\csrc/u8x8_byte.c ****       u8x8_byte_set_ks0108_cs(u8x8, arg_int);
 385:..\..\..\u8g2\u8g2\csrc/u8x8_byte.c ****       break;
 386:..\..\..\u8g2\u8g2\csrc/u8x8_byte.c ****     default:
 387:..\..\..\u8g2\u8g2\csrc/u8x8_byte.c ****       return 0;
 388:..\..\..\u8g2\u8g2\csrc/u8x8_byte.c ****   }
 389:..\..\..\u8g2\u8g2\csrc/u8x8_byte.c ****   return 1;
 390:..\..\..\u8g2\u8g2\csrc/u8x8_byte.c **** }
 391:..\..\..\u8g2\u8g2\csrc/u8x8_byte.c **** 
 392:..\..\..\u8g2\u8g2\csrc/u8x8_byte.c **** 
 393:..\..\..\u8g2\u8g2\csrc/u8x8_byte.c **** /* sed1520 or sbn1661 
 394:..\..\..\u8g2\u8g2\csrc/u8x8_byte.c ****   U8X8_MSG_GPIO_E --> E1
 395:..\..\..\u8g2\u8g2\csrc/u8x8_byte.c ****   U8X8_MSG_GPIO_CS --> E2
 396:..\..\..\u8g2\u8g2\csrc/u8x8_byte.c **** */
 397:..\..\..\u8g2\u8g2\csrc/u8x8_byte.c **** uint8_t u8x8_byte_sed1520(u8x8_t *u8x8, uint8_t msg, uint8_t arg_int, void *arg_ptr)
 398:..\..\..\u8g2\u8g2\csrc/u8x8_byte.c **** {
 399:..\..\..\u8g2\u8g2\csrc/u8x8_byte.c ****   uint8_t i, b;
 400:..\..\..\u8g2\u8g2\csrc/u8x8_byte.c ****   uint8_t *data;
 401:..\..\..\u8g2\u8g2\csrc/u8x8_byte.c ****   static uint8_t enable_pin;
 402:..\..\..\u8g2\u8g2\csrc/u8x8_byte.c ****  
 403:..\..\..\u8g2\u8g2\csrc/u8x8_byte.c ****   switch(msg)
 404:..\..\..\u8g2\u8g2\csrc/u8x8_byte.c ****   {
 405:..\..\..\u8g2\u8g2\csrc/u8x8_byte.c ****     case U8X8_MSG_BYTE_SEND:
 406:..\..\..\u8g2\u8g2\csrc/u8x8_byte.c ****       data = (uint8_t *)arg_ptr;
 407:..\..\..\u8g2\u8g2\csrc/u8x8_byte.c ****       while( arg_int > 0 )
 408:..\..\..\u8g2\u8g2\csrc/u8x8_byte.c ****       {
 409:..\..\..\u8g2\u8g2\csrc/u8x8_byte.c **** 	b = *data;
 410:..\..\..\u8g2\u8g2\csrc/u8x8_byte.c **** 	data++;
 411:..\..\..\u8g2\u8g2\csrc/u8x8_byte.c **** 	arg_int--;
 412:..\..\..\u8g2\u8g2\csrc/u8x8_byte.c **** 	for( i = U8X8_MSG_GPIO_D0; i <= U8X8_MSG_GPIO_D7; i++ )
 413:..\..\..\u8g2\u8g2\csrc/u8x8_byte.c **** 	{
 414:..\..\..\u8g2\u8g2\csrc/u8x8_byte.c **** 	  u8x8_gpio_call(u8x8, i, b&1);
 415:..\..\..\u8g2\u8g2\csrc/u8x8_byte.c **** 	  b >>= 1;
 416:..\..\..\u8g2\u8g2\csrc/u8x8_byte.c **** 	}    
 417:..\..\..\u8g2\u8g2\csrc/u8x8_byte.c **** 	
 418:..\..\..\u8g2\u8g2\csrc/u8x8_byte.c **** 	u8x8_gpio_Delay(u8x8, U8X8_MSG_DELAY_NANO, u8x8->display_info->data_setup_time_ns);
 419:..\..\..\u8g2\u8g2\csrc/u8x8_byte.c **** 	u8x8_gpio_call(u8x8, enable_pin, 1);
 420:..\..\..\u8g2\u8g2\csrc/u8x8_byte.c **** 	u8x8_gpio_Delay(u8x8, U8X8_MSG_DELAY_NANO, 200);		/* KS0108 requires 450 ns, use 200 here */
 421:..\..\..\u8g2\u8g2\csrc/u8x8_byte.c **** 	u8x8_gpio_Delay(u8x8, U8X8_MSG_DELAY_NANO, u8x8->display_info->write_pulse_width_ns);  /* expect 2
 422:..\..\..\u8g2\u8g2\csrc/u8x8_byte.c **** 	u8x8_gpio_call(u8x8, enable_pin, 0);
 423:..\..\..\u8g2\u8g2\csrc/u8x8_byte.c ****       }
 424:..\..\..\u8g2\u8g2\csrc/u8x8_byte.c ****       break;
 425:..\..\..\u8g2\u8g2\csrc/u8x8_byte.c ****       
 426:..\..\..\u8g2\u8g2\csrc/u8x8_byte.c ****     case U8X8_MSG_BYTE_INIT:
 427:..\..\..\u8g2\u8g2\csrc/u8x8_byte.c ****       /* disable chipselect */
 428:..\..\..\u8g2\u8g2\csrc/u8x8_byte.c ****       u8x8_gpio_SetCS(u8x8, u8x8->display_info->chip_disable_level);    
 429:..\..\..\u8g2\u8g2\csrc/u8x8_byte.c ****       /* ensure that the enable signals are low */
 430:..\..\..\u8g2\u8g2\csrc/u8x8_byte.c ****       u8x8_gpio_call(u8x8, U8X8_MSG_GPIO_E, 0);
ARM GAS  C:\Users\jesse\AppData\Local\Temp\ccdqInxW.s 			page 9


 431:..\..\..\u8g2\u8g2\csrc/u8x8_byte.c ****       u8x8_gpio_call(u8x8, U8X8_MSG_GPIO_CS, 0);
 432:..\..\..\u8g2\u8g2\csrc/u8x8_byte.c ****       enable_pin = U8X8_MSG_GPIO_E;
 433:..\..\..\u8g2\u8g2\csrc/u8x8_byte.c ****       break;
 434:..\..\..\u8g2\u8g2\csrc/u8x8_byte.c ****     case U8X8_MSG_BYTE_SET_DC:
 435:..\..\..\u8g2\u8g2\csrc/u8x8_byte.c ****       u8x8_gpio_SetDC(u8x8, arg_int);
 436:..\..\..\u8g2\u8g2\csrc/u8x8_byte.c ****       break;
 437:..\..\..\u8g2\u8g2\csrc/u8x8_byte.c ****     case U8X8_MSG_BYTE_START_TRANSFER:
 438:..\..\..\u8g2\u8g2\csrc/u8x8_byte.c ****       /* cs lines are not supported for the SED1520/SBN1661 */
 439:..\..\..\u8g2\u8g2\csrc/u8x8_byte.c ****       /* instead, this will select the E1 or E2 line */ 
 440:..\..\..\u8g2\u8g2\csrc/u8x8_byte.c ****       enable_pin = U8X8_MSG_GPIO_E;
 441:..\..\..\u8g2\u8g2\csrc/u8x8_byte.c ****       if ( arg_int != 0 )
 442:..\..\..\u8g2\u8g2\csrc/u8x8_byte.c **** 	enable_pin = U8X8_MSG_GPIO_CS;
 443:..\..\..\u8g2\u8g2\csrc/u8x8_byte.c ****       break;
 444:..\..\..\u8g2\u8g2\csrc/u8x8_byte.c ****     case U8X8_MSG_BYTE_END_TRANSFER:
 445:..\..\..\u8g2\u8g2\csrc/u8x8_byte.c ****       break;
 446:..\..\..\u8g2\u8g2\csrc/u8x8_byte.c ****     default:
 447:..\..\..\u8g2\u8g2\csrc/u8x8_byte.c ****       return 0;
 448:..\..\..\u8g2\u8g2\csrc/u8x8_byte.c ****   }
 449:..\..\..\u8g2\u8g2\csrc/u8x8_byte.c ****   return 1;
 450:..\..\..\u8g2\u8g2\csrc/u8x8_byte.c **** }
 451:..\..\..\u8g2\u8g2\csrc/u8x8_byte.c **** 
 452:..\..\..\u8g2\u8g2\csrc/u8x8_byte.c **** /*=========================================*/
 453:..\..\..\u8g2\u8g2\csrc/u8x8_byte.c **** 
 454:..\..\..\u8g2\u8g2\csrc/u8x8_byte.c **** 
 455:..\..\..\u8g2\u8g2\csrc/u8x8_byte.c **** /*
 456:..\..\..\u8g2\u8g2\csrc/u8x8_byte.c ****   software i2c,
 457:..\..\..\u8g2\u8g2\csrc/u8x8_byte.c ****   ignores ACK response (which is anyway not provided by some displays)
 458:..\..\..\u8g2\u8g2\csrc/u8x8_byte.c ****   also does not allow reading from the device
 459:..\..\..\u8g2\u8g2\csrc/u8x8_byte.c **** */
 460:..\..\..\u8g2\u8g2\csrc/u8x8_byte.c **** static void i2c_delay(u8x8_t *u8x8) U8X8_NOINLINE;
 461:..\..\..\u8g2\u8g2\csrc/u8x8_byte.c **** static void i2c_delay(u8x8_t *u8x8)
 462:..\..\..\u8g2\u8g2\csrc/u8x8_byte.c **** {
  27              		.loc 1 462 0
  28              		.cfi_startproc
  29              		@ args = 0, pretend = 0, frame = 0
  30              		@ frame_needed = 0, uses_anonymous_args = 0
  31              		@ link register save eliminated.
  32              	.LVL0:
 463:..\..\..\u8g2\u8g2\csrc/u8x8_byte.c ****   //u8x8_gpio_Delay(u8x8, U8X8_MSG_DELAY_10MICRO, u8x8->display_info->i2c_bus_clock_100kHz);
 464:..\..\..\u8g2\u8g2\csrc/u8x8_byte.c ****   u8x8_gpio_Delay(u8x8, U8X8_MSG_DELAY_I2C, u8x8->display_info->i2c_bus_clock_100kHz);
  33              		.loc 1 464 0
  34 0000 0368     		ldr	r3, [r0]
  35 0002 2D21     		movs	r1, #45
  36 0004 5A7B     		ldrb	r2, [r3, #13]	@ zero_extendqisi2
  37 0006 FFF7FEBF 		b	u8x8_gpio_call
  38              	.LVL1:
  39              		.cfi_endproc
  40              	.LFE13:
  41              		.size	i2c_delay, .-i2c_delay
  42              		.section	.text.i2c_read_scl_and_delay,"ax",%progbits
  43              		.align	1
  44              		.thumb
  45              		.thumb_func
  46              		.type	i2c_read_scl_and_delay, %function
  47              	i2c_read_scl_and_delay:
  48              	.LFB15:
 465:..\..\..\u8g2\u8g2\csrc/u8x8_byte.c **** }
ARM GAS  C:\Users\jesse\AppData\Local\Temp\ccdqInxW.s 			page 10


 466:..\..\..\u8g2\u8g2\csrc/u8x8_byte.c **** 
 467:..\..\..\u8g2\u8g2\csrc/u8x8_byte.c **** static void i2c_init(u8x8_t *u8x8)
 468:..\..\..\u8g2\u8g2\csrc/u8x8_byte.c **** {
 469:..\..\..\u8g2\u8g2\csrc/u8x8_byte.c ****   u8x8_gpio_SetI2CClock(u8x8, 1);
 470:..\..\..\u8g2\u8g2\csrc/u8x8_byte.c ****   u8x8_gpio_SetI2CData(u8x8, 1);
 471:..\..\..\u8g2\u8g2\csrc/u8x8_byte.c ****   
 472:..\..\..\u8g2\u8g2\csrc/u8x8_byte.c ****   i2c_delay(u8x8);
 473:..\..\..\u8g2\u8g2\csrc/u8x8_byte.c **** }
 474:..\..\..\u8g2\u8g2\csrc/u8x8_byte.c **** 
 475:..\..\..\u8g2\u8g2\csrc/u8x8_byte.c **** /* actually, the scl line is not observed, so this procedure does not return a value */
 476:..\..\..\u8g2\u8g2\csrc/u8x8_byte.c **** 
 477:..\..\..\u8g2\u8g2\csrc/u8x8_byte.c **** static void i2c_read_scl_and_delay(u8x8_t *u8x8)
 478:..\..\..\u8g2\u8g2\csrc/u8x8_byte.c **** {
  49              		.loc 1 478 0
  50              		.cfi_startproc
  51              		@ args = 0, pretend = 0, frame = 0
  52              		@ frame_needed = 0, uses_anonymous_args = 0
  53              	.LVL2:
  54 0000 10B5     		push	{r4, lr}
  55              		.cfi_def_cfa_offset 8
  56              		.cfi_offset 4, -8
  57              		.cfi_offset 14, -4
  58              		.loc 1 478 0
  59 0002 0446     		mov	r4, r0
 479:..\..\..\u8g2\u8g2\csrc/u8x8_byte.c ****   /* set as input (line will be high) */
 480:..\..\..\u8g2\u8g2\csrc/u8x8_byte.c ****   u8x8_gpio_SetI2CClock(u8x8, 1);
  60              		.loc 1 480 0
  61 0004 0122     		movs	r2, #1
  62 0006 4C21     		movs	r1, #76
  63 0008 FFF7FEFF 		bl	u8x8_gpio_call
  64              	.LVL3:
 481:..\..\..\u8g2\u8g2\csrc/u8x8_byte.c **** 
 482:..\..\..\u8g2\u8g2\csrc/u8x8_byte.c ****   i2c_delay(u8x8);
  65              		.loc 1 482 0
  66 000c 2046     		mov	r0, r4
 483:..\..\..\u8g2\u8g2\csrc/u8x8_byte.c **** }
  67              		.loc 1 483 0
  68 000e BDE81040 		pop	{r4, lr}
  69              		.cfi_restore 14
  70              		.cfi_restore 4
  71              		.cfi_def_cfa_offset 0
  72              	.LVL4:
 482:..\..\..\u8g2\u8g2\csrc/u8x8_byte.c **** }
  73              		.loc 1 482 0
  74 0012 FFF7FEBF 		b	i2c_delay
  75              	.LVL5:
  76              		.cfi_endproc
  77              	.LFE15:
  78              		.size	i2c_read_scl_and_delay, .-i2c_read_scl_and_delay
  79              		.section	.text.i2c_read_sda,"ax",%progbits
  80              		.align	1
  81              		.thumb
  82              		.thumb_func
  83              		.type	i2c_read_sda, %function
  84              	i2c_read_sda:
  85              	.LFB17:
 484:..\..\..\u8g2\u8g2\csrc/u8x8_byte.c **** 
ARM GAS  C:\Users\jesse\AppData\Local\Temp\ccdqInxW.s 			page 11


 485:..\..\..\u8g2\u8g2\csrc/u8x8_byte.c **** static void i2c_clear_scl(u8x8_t *u8x8)
 486:..\..\..\u8g2\u8g2\csrc/u8x8_byte.c **** {
 487:..\..\..\u8g2\u8g2\csrc/u8x8_byte.c ****   u8x8_gpio_SetI2CClock(u8x8, 0);
 488:..\..\..\u8g2\u8g2\csrc/u8x8_byte.c **** }
 489:..\..\..\u8g2\u8g2\csrc/u8x8_byte.c **** 
 490:..\..\..\u8g2\u8g2\csrc/u8x8_byte.c **** static void i2c_read_sda(u8x8_t *u8x8)
 491:..\..\..\u8g2\u8g2\csrc/u8x8_byte.c **** {
  86              		.loc 1 491 0
  87              		.cfi_startproc
  88              		@ args = 0, pretend = 0, frame = 0
  89              		@ frame_needed = 0, uses_anonymous_args = 0
  90              		@ link register save eliminated.
  91              	.LVL6:
 492:..\..\..\u8g2\u8g2\csrc/u8x8_byte.c ****   /* set as input (line will be high) */
 493:..\..\..\u8g2\u8g2\csrc/u8x8_byte.c ****   u8x8_gpio_SetI2CData(u8x8, 1);
  92              		.loc 1 493 0
  93 0000 0122     		movs	r2, #1
  94 0002 4D21     		movs	r1, #77
  95 0004 FFF7FEBF 		b	u8x8_gpio_call
  96              	.LVL7:
  97              		.cfi_endproc
  98              	.LFE17:
  99              		.size	i2c_read_sda, .-i2c_read_sda
 100              		.section	.text.i2c_write_bit,"ax",%progbits
 101              		.align	1
 102              		.thumb
 103              		.thumb_func
 104              		.type	i2c_write_bit, %function
 105              	i2c_write_bit:
 106              	.LFB21:
 494:..\..\..\u8g2\u8g2\csrc/u8x8_byte.c **** }
 495:..\..\..\u8g2\u8g2\csrc/u8x8_byte.c **** 
 496:..\..\..\u8g2\u8g2\csrc/u8x8_byte.c **** static void i2c_clear_sda(u8x8_t *u8x8)
 497:..\..\..\u8g2\u8g2\csrc/u8x8_byte.c **** {
 498:..\..\..\u8g2\u8g2\csrc/u8x8_byte.c ****   /* set open collector and drive low */
 499:..\..\..\u8g2\u8g2\csrc/u8x8_byte.c ****   u8x8_gpio_SetI2CData(u8x8, 0);
 500:..\..\..\u8g2\u8g2\csrc/u8x8_byte.c **** }
 501:..\..\..\u8g2\u8g2\csrc/u8x8_byte.c **** 
 502:..\..\..\u8g2\u8g2\csrc/u8x8_byte.c **** static void i2c_start(u8x8_t *u8x8)
 503:..\..\..\u8g2\u8g2\csrc/u8x8_byte.c **** {
 504:..\..\..\u8g2\u8g2\csrc/u8x8_byte.c ****   if ( u8x8->i2c_started != 0 )
 505:..\..\..\u8g2\u8g2\csrc/u8x8_byte.c ****   {
 506:..\..\..\u8g2\u8g2\csrc/u8x8_byte.c ****     /* if already started: do restart */
 507:..\..\..\u8g2\u8g2\csrc/u8x8_byte.c ****     i2c_read_sda(u8x8);     /* SDA = 1 */
 508:..\..\..\u8g2\u8g2\csrc/u8x8_byte.c ****     i2c_delay(u8x8);
 509:..\..\..\u8g2\u8g2\csrc/u8x8_byte.c ****     i2c_read_scl_and_delay(u8x8);
 510:..\..\..\u8g2\u8g2\csrc/u8x8_byte.c ****   }
 511:..\..\..\u8g2\u8g2\csrc/u8x8_byte.c ****   i2c_read_sda(u8x8);
 512:..\..\..\u8g2\u8g2\csrc/u8x8_byte.c ****   /* send the start condition, both lines go from 1 to 0 */
 513:..\..\..\u8g2\u8g2\csrc/u8x8_byte.c ****   i2c_clear_sda(u8x8);
 514:..\..\..\u8g2\u8g2\csrc/u8x8_byte.c ****   i2c_delay(u8x8);
 515:..\..\..\u8g2\u8g2\csrc/u8x8_byte.c ****   i2c_clear_scl(u8x8);
 516:..\..\..\u8g2\u8g2\csrc/u8x8_byte.c ****   u8x8->i2c_started = 1;
 517:..\..\..\u8g2\u8g2\csrc/u8x8_byte.c **** }
 518:..\..\..\u8g2\u8g2\csrc/u8x8_byte.c **** 
 519:..\..\..\u8g2\u8g2\csrc/u8x8_byte.c **** 
 520:..\..\..\u8g2\u8g2\csrc/u8x8_byte.c **** static void i2c_stop(u8x8_t *u8x8)
ARM GAS  C:\Users\jesse\AppData\Local\Temp\ccdqInxW.s 			page 12


 521:..\..\..\u8g2\u8g2\csrc/u8x8_byte.c **** {
 522:..\..\..\u8g2\u8g2\csrc/u8x8_byte.c ****   /* set SDA to 0 */
 523:..\..\..\u8g2\u8g2\csrc/u8x8_byte.c ****   i2c_clear_sda(u8x8);  
 524:..\..\..\u8g2\u8g2\csrc/u8x8_byte.c ****   i2c_delay(u8x8);
 525:..\..\..\u8g2\u8g2\csrc/u8x8_byte.c ****  
 526:..\..\..\u8g2\u8g2\csrc/u8x8_byte.c ****   /* now release all lines */
 527:..\..\..\u8g2\u8g2\csrc/u8x8_byte.c ****   i2c_read_scl_and_delay(u8x8);
 528:..\..\..\u8g2\u8g2\csrc/u8x8_byte.c ****  
 529:..\..\..\u8g2\u8g2\csrc/u8x8_byte.c ****   /* set SDA to 1 */
 530:..\..\..\u8g2\u8g2\csrc/u8x8_byte.c ****   i2c_read_sda(u8x8);
 531:..\..\..\u8g2\u8g2\csrc/u8x8_byte.c ****   i2c_delay(u8x8);
 532:..\..\..\u8g2\u8g2\csrc/u8x8_byte.c ****   u8x8->i2c_started = 0;
 533:..\..\..\u8g2\u8g2\csrc/u8x8_byte.c **** }
 534:..\..\..\u8g2\u8g2\csrc/u8x8_byte.c **** 
 535:..\..\..\u8g2\u8g2\csrc/u8x8_byte.c **** static void i2c_write_bit(u8x8_t *u8x8, uint8_t val)
 536:..\..\..\u8g2\u8g2\csrc/u8x8_byte.c **** {
 107              		.loc 1 536 0
 108              		.cfi_startproc
 109              		@ args = 0, pretend = 0, frame = 0
 110              		@ frame_needed = 0, uses_anonymous_args = 0
 111              	.LVL8:
 112 0000 10B5     		push	{r4, lr}
 113              		.cfi_def_cfa_offset 8
 114              		.cfi_offset 4, -8
 115              		.cfi_offset 14, -4
 537:..\..\..\u8g2\u8g2\csrc/u8x8_byte.c ****   if (val)
 116              		.loc 1 537 0
 117 0002 0A46     		mov	r2, r1
 536:..\..\..\u8g2\u8g2\csrc/u8x8_byte.c ****   if (val)
 118              		.loc 1 536 0
 119 0004 0446     		mov	r4, r0
 120              		.loc 1 537 0
 121 0006 11B1     		cbz	r1, .L5
 538:..\..\..\u8g2\u8g2\csrc/u8x8_byte.c ****     i2c_read_sda(u8x8);
 122              		.loc 1 538 0
 123 0008 FFF7FEFF 		bl	i2c_read_sda
 124              	.LVL9:
 125 000c 02E0     		b	.L6
 126              	.LVL10:
 127              	.L5:
 128              	.LBB6:
 129              	.LBB7:
 499:..\..\..\u8g2\u8g2\csrc/u8x8_byte.c **** }
 130              		.loc 1 499 0
 131 000e 4D21     		movs	r1, #77
 132              	.LVL11:
 133 0010 FFF7FEFF 		bl	u8x8_gpio_call
 134              	.LVL12:
 135              	.L6:
 136              	.LBE7:
 137              	.LBE6:
 539:..\..\..\u8g2\u8g2\csrc/u8x8_byte.c ****   else
 540:..\..\..\u8g2\u8g2\csrc/u8x8_byte.c ****     i2c_clear_sda(u8x8);
 541:..\..\..\u8g2\u8g2\csrc/u8x8_byte.c ****  
 542:..\..\..\u8g2\u8g2\csrc/u8x8_byte.c ****   i2c_delay(u8x8);
 138              		.loc 1 542 0
 139 0014 2046     		mov	r0, r4
ARM GAS  C:\Users\jesse\AppData\Local\Temp\ccdqInxW.s 			page 13


 140 0016 FFF7FEFF 		bl	i2c_delay
 141              	.LVL13:
 543:..\..\..\u8g2\u8g2\csrc/u8x8_byte.c ****   i2c_read_scl_and_delay(u8x8);
 142              		.loc 1 543 0
 143 001a 2046     		mov	r0, r4
 144 001c FFF7FEFF 		bl	i2c_read_scl_and_delay
 145              	.LVL14:
 146              	.LBB8:
 147              	.LBB9:
 487:..\..\..\u8g2\u8g2\csrc/u8x8_byte.c **** }
 148              		.loc 1 487 0
 149 0020 2046     		mov	r0, r4
 150              	.LBE9:
 151              	.LBE8:
 544:..\..\..\u8g2\u8g2\csrc/u8x8_byte.c ****   i2c_clear_scl(u8x8);
 545:..\..\..\u8g2\u8g2\csrc/u8x8_byte.c **** }
 152              		.loc 1 545 0
 153 0022 BDE81040 		pop	{r4, lr}
 154              		.cfi_restore 14
 155              		.cfi_restore 4
 156              		.cfi_def_cfa_offset 0
 157              	.LVL15:
 158              	.LBB11:
 159              	.LBB10:
 487:..\..\..\u8g2\u8g2\csrc/u8x8_byte.c **** }
 160              		.loc 1 487 0
 161 0026 0022     		movs	r2, #0
 162 0028 4C21     		movs	r1, #76
 163 002a FFF7FEBF 		b	u8x8_gpio_call
 164              	.LVL16:
 165              	.LBE10:
 166              	.LBE11:
 167              		.cfi_endproc
 168              	.LFE21:
 169              		.size	i2c_write_bit, .-i2c_write_bit
 170              		.section	.text.i2c_write_byte,"ax",%progbits
 171              		.align	1
 172              		.thumb
 173              		.thumb_func
 174              		.type	i2c_write_byte, %function
 175              	i2c_write_byte:
 176              	.LFB23:
 546:..\..\..\u8g2\u8g2\csrc/u8x8_byte.c **** 
 547:..\..\..\u8g2\u8g2\csrc/u8x8_byte.c **** static void i2c_read_bit(u8x8_t *u8x8)
 548:..\..\..\u8g2\u8g2\csrc/u8x8_byte.c **** {
 549:..\..\..\u8g2\u8g2\csrc/u8x8_byte.c ****   //uint8_t val;
 550:..\..\..\u8g2\u8g2\csrc/u8x8_byte.c ****   /* do not drive SDA */
 551:..\..\..\u8g2\u8g2\csrc/u8x8_byte.c ****   i2c_read_sda(u8x8);
 552:..\..\..\u8g2\u8g2\csrc/u8x8_byte.c ****   i2c_delay(u8x8);
 553:..\..\..\u8g2\u8g2\csrc/u8x8_byte.c ****   i2c_read_scl_and_delay(u8x8);
 554:..\..\..\u8g2\u8g2\csrc/u8x8_byte.c ****   i2c_read_sda(u8x8);
 555:..\..\..\u8g2\u8g2\csrc/u8x8_byte.c ****   i2c_delay(u8x8);
 556:..\..\..\u8g2\u8g2\csrc/u8x8_byte.c ****   i2c_clear_scl(u8x8);
 557:..\..\..\u8g2\u8g2\csrc/u8x8_byte.c ****   //return val;
 558:..\..\..\u8g2\u8g2\csrc/u8x8_byte.c **** }
 559:..\..\..\u8g2\u8g2\csrc/u8x8_byte.c **** 
 560:..\..\..\u8g2\u8g2\csrc/u8x8_byte.c **** static void i2c_write_byte(u8x8_t *u8x8, uint8_t b)
ARM GAS  C:\Users\jesse\AppData\Local\Temp\ccdqInxW.s 			page 14


 561:..\..\..\u8g2\u8g2\csrc/u8x8_byte.c **** {
 177              		.loc 1 561 0
 178              		.cfi_startproc
 179              		@ args = 0, pretend = 0, frame = 0
 180              		@ frame_needed = 0, uses_anonymous_args = 0
 181              	.LVL17:
 182 0000 38B5     		push	{r3, r4, r5, lr}
 183              		.cfi_def_cfa_offset 16
 184              		.cfi_offset 3, -16
 185              		.cfi_offset 4, -12
 186              		.cfi_offset 5, -8
 187              		.cfi_offset 14, -4
 188              		.loc 1 561 0
 189 0002 0446     		mov	r4, r0
 190 0004 0D46     		mov	r5, r1
 562:..\..\..\u8g2\u8g2\csrc/u8x8_byte.c ****   i2c_write_bit(u8x8, b & 128);
 191              		.loc 1 562 0
 192 0006 01F08001 		and	r1, r1, #128
 193              	.LVL18:
 194 000a FFF7FEFF 		bl	i2c_write_bit
 195              	.LVL19:
 563:..\..\..\u8g2\u8g2\csrc/u8x8_byte.c ****   i2c_write_bit(u8x8, b & 64);
 196              		.loc 1 563 0
 197 000e 05F04001 		and	r1, r5, #64
 198 0012 2046     		mov	r0, r4
 199 0014 FFF7FEFF 		bl	i2c_write_bit
 200              	.LVL20:
 564:..\..\..\u8g2\u8g2\csrc/u8x8_byte.c ****   i2c_write_bit(u8x8, b & 32);
 201              		.loc 1 564 0
 202 0018 05F02001 		and	r1, r5, #32
 203 001c 2046     		mov	r0, r4
 204 001e FFF7FEFF 		bl	i2c_write_bit
 205              	.LVL21:
 565:..\..\..\u8g2\u8g2\csrc/u8x8_byte.c ****   i2c_write_bit(u8x8, b & 16);
 206              		.loc 1 565 0
 207 0022 05F01001 		and	r1, r5, #16
 208 0026 2046     		mov	r0, r4
 209 0028 FFF7FEFF 		bl	i2c_write_bit
 210              	.LVL22:
 566:..\..\..\u8g2\u8g2\csrc/u8x8_byte.c ****   i2c_write_bit(u8x8, b & 8);
 211              		.loc 1 566 0
 212 002c 05F00801 		and	r1, r5, #8
 213 0030 2046     		mov	r0, r4
 214 0032 FFF7FEFF 		bl	i2c_write_bit
 215              	.LVL23:
 567:..\..\..\u8g2\u8g2\csrc/u8x8_byte.c ****   i2c_write_bit(u8x8, b & 4);
 216              		.loc 1 567 0
 217 0036 05F00401 		and	r1, r5, #4
 218 003a 2046     		mov	r0, r4
 219 003c FFF7FEFF 		bl	i2c_write_bit
 220              	.LVL24:
 568:..\..\..\u8g2\u8g2\csrc/u8x8_byte.c ****   i2c_write_bit(u8x8, b & 2);
 221              		.loc 1 568 0
 222 0040 05F00201 		and	r1, r5, #2
 223 0044 2046     		mov	r0, r4
 224 0046 FFF7FEFF 		bl	i2c_write_bit
 225              	.LVL25:
ARM GAS  C:\Users\jesse\AppData\Local\Temp\ccdqInxW.s 			page 15


 569:..\..\..\u8g2\u8g2\csrc/u8x8_byte.c ****   i2c_write_bit(u8x8, b & 1);
 226              		.loc 1 569 0
 227 004a 05F00101 		and	r1, r5, #1
 228 004e 2046     		mov	r0, r4
 229 0050 FFF7FEFF 		bl	i2c_write_bit
 230              	.LVL26:
 231              	.LBB16:
 232              	.LBB17:
 551:..\..\..\u8g2\u8g2\csrc/u8x8_byte.c ****   i2c_delay(u8x8);
 233              		.loc 1 551 0
 234 0054 2046     		mov	r0, r4
 235 0056 FFF7FEFF 		bl	i2c_read_sda
 236              	.LVL27:
 552:..\..\..\u8g2\u8g2\csrc/u8x8_byte.c ****   i2c_read_scl_and_delay(u8x8);
 237              		.loc 1 552 0
 238 005a 2046     		mov	r0, r4
 239 005c FFF7FEFF 		bl	i2c_delay
 240              	.LVL28:
 553:..\..\..\u8g2\u8g2\csrc/u8x8_byte.c ****   i2c_read_sda(u8x8);
 241              		.loc 1 553 0
 242 0060 2046     		mov	r0, r4
 243 0062 FFF7FEFF 		bl	i2c_read_scl_and_delay
 244              	.LVL29:
 554:..\..\..\u8g2\u8g2\csrc/u8x8_byte.c ****   i2c_delay(u8x8);
 245              		.loc 1 554 0
 246 0066 2046     		mov	r0, r4
 247 0068 FFF7FEFF 		bl	i2c_read_sda
 248              	.LVL30:
 555:..\..\..\u8g2\u8g2\csrc/u8x8_byte.c ****   i2c_clear_scl(u8x8);
 249              		.loc 1 555 0
 250 006c 2046     		mov	r0, r4
 251 006e FFF7FEFF 		bl	i2c_delay
 252              	.LVL31:
 253              	.LBB18:
 254              	.LBB19:
 487:..\..\..\u8g2\u8g2\csrc/u8x8_byte.c **** }
 255              		.loc 1 487 0
 256 0072 2046     		mov	r0, r4
 257              	.LBE19:
 258              	.LBE18:
 259              	.LBE17:
 260              	.LBE16:
 570:..\..\..\u8g2\u8g2\csrc/u8x8_byte.c ****     
 571:..\..\..\u8g2\u8g2\csrc/u8x8_byte.c ****   /* read ack from client */
 572:..\..\..\u8g2\u8g2\csrc/u8x8_byte.c ****   /* 0: ack was given by client */
 573:..\..\..\u8g2\u8g2\csrc/u8x8_byte.c ****   /* 1: nothing happend during ack cycle */  
 574:..\..\..\u8g2\u8g2\csrc/u8x8_byte.c ****   i2c_read_bit(u8x8);
 575:..\..\..\u8g2\u8g2\csrc/u8x8_byte.c **** }
 261              		.loc 1 575 0
 262 0074 BDE83840 		pop	{r3, r4, r5, lr}
 263              		.cfi_restore 14
 264              		.cfi_restore 5
 265              		.cfi_restore 4
 266              		.cfi_restore 3
 267              		.cfi_def_cfa_offset 0
 268              	.LVL32:
 269              	.LBB23:
ARM GAS  C:\Users\jesse\AppData\Local\Temp\ccdqInxW.s 			page 16


 270              	.LBB22:
 271              	.LBB21:
 272              	.LBB20:
 487:..\..\..\u8g2\u8g2\csrc/u8x8_byte.c **** }
 273              		.loc 1 487 0
 274 0078 0022     		movs	r2, #0
 275 007a 4C21     		movs	r1, #76
 276 007c FFF7FEBF 		b	u8x8_gpio_call
 277              	.LVL33:
 278              	.LBE20:
 279              	.LBE21:
 280              	.LBE22:
 281              	.LBE23:
 282              		.cfi_endproc
 283              	.LFE23:
 284              		.size	i2c_write_byte, .-i2c_write_byte
 285              		.section	.text.u8x8_byte_SetDC,"ax",%progbits
 286              		.align	1
 287              		.global	u8x8_byte_SetDC
 288              		.thumb
 289              		.thumb_func
 290              		.type	u8x8_byte_SetDC, %function
 291              	u8x8_byte_SetDC:
 292              	.LFB0:
  40:..\..\..\u8g2\u8g2\csrc/u8x8_byte.c ****   return u8x8->byte_cb(u8x8, U8X8_MSG_BYTE_SET_DC, dc, NULL);
 293              		.loc 1 40 0
 294              		.cfi_startproc
 295              		@ args = 0, pretend = 0, frame = 0
 296              		@ frame_needed = 0, uses_anonymous_args = 0
 297              		@ link register save eliminated.
 298              	.LVL34:
 299 0000 10B4     		push	{r4}
 300              		.cfi_def_cfa_offset 4
 301              		.cfi_offset 4, -4
  41:..\..\..\u8g2\u8g2\csrc/u8x8_byte.c **** }
 302              		.loc 1 41 0
 303 0002 0469     		ldr	r4, [r0, #16]
 304 0004 0A46     		mov	r2, r1
 305 0006 A446     		mov	ip, r4
 306 0008 0023     		movs	r3, #0
 307 000a 2021     		movs	r1, #32
 308              	.LVL35:
  42:..\..\..\u8g2\u8g2\csrc/u8x8_byte.c **** 
 309              		.loc 1 42 0
 310 000c 10BC     		pop	{r4}
 311              		.cfi_restore 4
 312              		.cfi_def_cfa_offset 0
  41:..\..\..\u8g2\u8g2\csrc/u8x8_byte.c **** }
 313              		.loc 1 41 0
 314 000e 6047     		bx	ip
 315              	.LVL36:
 316              		.cfi_endproc
 317              	.LFE0:
 318              		.size	u8x8_byte_SetDC, .-u8x8_byte_SetDC
 319              		.section	.text.u8x8_byte_SendBytes,"ax",%progbits
 320              		.align	1
 321              		.global	u8x8_byte_SendBytes
ARM GAS  C:\Users\jesse\AppData\Local\Temp\ccdqInxW.s 			page 17


 322              		.thumb
 323              		.thumb_func
 324              		.type	u8x8_byte_SendBytes, %function
 325              	u8x8_byte_SendBytes:
 326              	.LFB1:
  45:..\..\..\u8g2\u8g2\csrc/u8x8_byte.c ****   return u8x8->byte_cb(u8x8, U8X8_MSG_BYTE_SEND, cnt, (void *)data);
 327              		.loc 1 45 0
 328              		.cfi_startproc
 329              		@ args = 0, pretend = 0, frame = 0
 330              		@ frame_needed = 0, uses_anonymous_args = 0
 331              		@ link register save eliminated.
 332              	.LVL37:
 333 0000 10B4     		push	{r4}
 334              		.cfi_def_cfa_offset 4
 335              		.cfi_offset 4, -4
  46:..\..\..\u8g2\u8g2\csrc/u8x8_byte.c **** }
 336              		.loc 1 46 0
 337 0002 0469     		ldr	r4, [r0, #16]
 338 0004 1346     		mov	r3, r2
 339 0006 A446     		mov	ip, r4
 340 0008 0A46     		mov	r2, r1
 341              	.LVL38:
  47:..\..\..\u8g2\u8g2\csrc/u8x8_byte.c **** 
 342              		.loc 1 47 0
 343 000a 10BC     		pop	{r4}
 344              		.cfi_restore 4
 345              		.cfi_def_cfa_offset 0
  46:..\..\..\u8g2\u8g2\csrc/u8x8_byte.c **** }
 346              		.loc 1 46 0
 347 000c 1721     		movs	r1, #23
 348              	.LVL39:
 349 000e 6047     		bx	ip
 350              	.LVL40:
 351              		.cfi_endproc
 352              	.LFE1:
 353              		.size	u8x8_byte_SendBytes, .-u8x8_byte_SendBytes
 354              		.section	.text.u8x8_byte_SendByte,"ax",%progbits
 355              		.align	1
 356              		.global	u8x8_byte_SendByte
 357              		.thumb
 358              		.thumb_func
 359              		.type	u8x8_byte_SendByte, %function
 360              	u8x8_byte_SendByte:
 361              	.LFB2:
  50:..\..\..\u8g2\u8g2\csrc/u8x8_byte.c ****   return u8x8_byte_SendBytes(u8x8, 1, &byte);
 362              		.loc 1 50 0
 363              		.cfi_startproc
 364              		@ args = 0, pretend = 0, frame = 8
 365              		@ frame_needed = 0, uses_anonymous_args = 0
 366              	.LVL41:
 367 0000 07B5     		push	{r0, r1, r2, lr}
 368              		.cfi_def_cfa_offset 16
 369              		.cfi_offset 14, -4
  50:..\..\..\u8g2\u8g2\csrc/u8x8_byte.c ****   return u8x8_byte_SendBytes(u8x8, 1, &byte);
 370              		.loc 1 50 0
 371 0002 02AA     		add	r2, sp, #8
 372 0004 02F8011D 		strb	r1, [r2, #-1]!
ARM GAS  C:\Users\jesse\AppData\Local\Temp\ccdqInxW.s 			page 18


  51:..\..\..\u8g2\u8g2\csrc/u8x8_byte.c **** }
 373              		.loc 1 51 0
 374 0008 0121     		movs	r1, #1
 375              	.LVL42:
 376 000a FFF7FEFF 		bl	u8x8_byte_SendBytes
 377              	.LVL43:
  52:..\..\..\u8g2\u8g2\csrc/u8x8_byte.c **** 
 378              		.loc 1 52 0
 379 000e 03B0     		add	sp, sp, #12
 380              		.cfi_def_cfa_offset 4
 381              		@ sp needed
 382 0010 5DF804FB 		ldr	pc, [sp], #4
 383              		.cfi_endproc
 384              	.LFE2:
 385              		.size	u8x8_byte_SendByte, .-u8x8_byte_SendByte
 386              		.section	.text.u8x8_byte_StartTransfer,"ax",%progbits
 387              		.align	1
 388              		.global	u8x8_byte_StartTransfer
 389              		.thumb
 390              		.thumb_func
 391              		.type	u8x8_byte_StartTransfer, %function
 392              	u8x8_byte_StartTransfer:
 393              	.LFB3:
  55:..\..\..\u8g2\u8g2\csrc/u8x8_byte.c ****   return u8x8->byte_cb(u8x8, U8X8_MSG_BYTE_START_TRANSFER, 0, NULL);
 394              		.loc 1 55 0
 395              		.cfi_startproc
 396              		@ args = 0, pretend = 0, frame = 0
 397              		@ frame_needed = 0, uses_anonymous_args = 0
 398              		@ link register save eliminated.
 399              	.LVL44:
 400 0000 10B4     		push	{r4}
 401              		.cfi_def_cfa_offset 4
 402              		.cfi_offset 4, -4
  56:..\..\..\u8g2\u8g2\csrc/u8x8_byte.c **** }
 403              		.loc 1 56 0
 404 0002 0469     		ldr	r4, [r0, #16]
 405 0004 0023     		movs	r3, #0
 406 0006 A446     		mov	ip, r4
 407 0008 1A46     		mov	r2, r3
 408 000a 1821     		movs	r1, #24
  57:..\..\..\u8g2\u8g2\csrc/u8x8_byte.c **** 
 409              		.loc 1 57 0
 410 000c 10BC     		pop	{r4}
 411              		.cfi_restore 4
 412              		.cfi_def_cfa_offset 0
  56:..\..\..\u8g2\u8g2\csrc/u8x8_byte.c **** }
 413              		.loc 1 56 0
 414 000e 6047     		bx	ip
 415              	.LVL45:
 416              		.cfi_endproc
 417              	.LFE3:
 418              		.size	u8x8_byte_StartTransfer, .-u8x8_byte_StartTransfer
 419              		.section	.text.u8x8_byte_EndTransfer,"ax",%progbits
 420              		.align	1
 421              		.global	u8x8_byte_EndTransfer
 422              		.thumb
 423              		.thumb_func
ARM GAS  C:\Users\jesse\AppData\Local\Temp\ccdqInxW.s 			page 19


 424              		.type	u8x8_byte_EndTransfer, %function
 425              	u8x8_byte_EndTransfer:
 426              	.LFB4:
  60:..\..\..\u8g2\u8g2\csrc/u8x8_byte.c ****   return u8x8->byte_cb(u8x8, U8X8_MSG_BYTE_END_TRANSFER, 0, NULL);
 427              		.loc 1 60 0
 428              		.cfi_startproc
 429              		@ args = 0, pretend = 0, frame = 0
 430              		@ frame_needed = 0, uses_anonymous_args = 0
 431              		@ link register save eliminated.
 432              	.LVL46:
 433 0000 10B4     		push	{r4}
 434              		.cfi_def_cfa_offset 4
 435              		.cfi_offset 4, -4
  61:..\..\..\u8g2\u8g2\csrc/u8x8_byte.c **** }
 436              		.loc 1 61 0
 437 0002 0469     		ldr	r4, [r0, #16]
 438 0004 0023     		movs	r3, #0
 439 0006 A446     		mov	ip, r4
 440 0008 1A46     		mov	r2, r3
 441 000a 1921     		movs	r1, #25
  62:..\..\..\u8g2\u8g2\csrc/u8x8_byte.c **** 
 442              		.loc 1 62 0
 443 000c 10BC     		pop	{r4}
 444              		.cfi_restore 4
 445              		.cfi_def_cfa_offset 0
  61:..\..\..\u8g2\u8g2\csrc/u8x8_byte.c **** }
 446              		.loc 1 61 0
 447 000e 6047     		bx	ip
 448              	.LVL47:
 449              		.cfi_endproc
 450              	.LFE4:
 451              		.size	u8x8_byte_EndTransfer, .-u8x8_byte_EndTransfer
 452              		.section	.text.u8x8_byte_empty,"ax",%progbits
 453              		.align	1
 454              		.global	u8x8_byte_empty
 455              		.thumb
 456              		.thumb_func
 457              		.type	u8x8_byte_empty, %function
 458              	u8x8_byte_empty:
 459              	.LFB5:
  67:..\..\..\u8g2\u8g2\csrc/u8x8_byte.c ****   switch(msg)
 460              		.loc 1 67 0
 461              		.cfi_startproc
 462              		@ args = 0, pretend = 0, frame = 0
 463              		@ frame_needed = 0, uses_anonymous_args = 0
 464              		@ link register save eliminated.
 465              	.LVL48:
  78:..\..\..\u8g2\u8g2\csrc/u8x8_byte.c **** 
 466              		.loc 1 78 0
 467 0000 0120     		movs	r0, #1
 468              	.LVL49:
 469 0002 7047     		bx	lr
 470              		.cfi_endproc
 471              	.LFE5:
 472              		.size	u8x8_byte_empty, .-u8x8_byte_empty
 473              		.section	.text.u8x8_byte_4wire_sw_spi,"ax",%progbits
 474              		.align	1
ARM GAS  C:\Users\jesse\AppData\Local\Temp\ccdqInxW.s 			page 20


 475              		.global	u8x8_byte_4wire_sw_spi
 476              		.thumb
 477              		.thumb_func
 478              		.type	u8x8_byte_4wire_sw_spi, %function
 479              	u8x8_byte_4wire_sw_spi:
 480              	.LFB6:
 108:..\..\..\u8g2\u8g2\csrc/u8x8_byte.c ****   uint8_t i, b;
 481              		.loc 1 108 0
 482              		.cfi_startproc
 483              		@ args = 0, pretend = 0, frame = 0
 484              		@ frame_needed = 0, uses_anonymous_args = 0
 485              	.LVL50:
 114:..\..\..\u8g2\u8g2\csrc/u8x8_byte.c ****   {
 486              		.loc 1 114 0
 487 0000 1439     		subs	r1, r1, #20
 488              	.LVL51:
 108:..\..\..\u8g2\u8g2\csrc/u8x8_byte.c ****   uint8_t i, b;
 489              		.loc 1 108 0
 490 0002 2DE9F047 		push	{r4, r5, r6, r7, r8, r9, r10, lr}
 491              		.cfi_def_cfa_offset 32
 492              		.cfi_offset 4, -32
 493              		.cfi_offset 5, -28
 494              		.cfi_offset 6, -24
 495              		.cfi_offset 7, -20
 496              		.cfi_offset 8, -16
 497              		.cfi_offset 9, -12
 498              		.cfi_offset 10, -8
 499              		.cfi_offset 14, -4
 108:..\..\..\u8g2\u8g2\csrc/u8x8_byte.c ****   uint8_t i, b;
 500              		.loc 1 108 0
 501 0006 1546     		mov	r5, r2
 502 0008 0446     		mov	r4, r0
 503 000a 9946     		mov	r9, r3
 111:..\..\..\u8g2\u8g2\csrc/u8x8_byte.c ****   uint8_t not_takeover_edge = 1 - takeover_edge;
 504              		.loc 1 111 0
 505 000c 0268     		ldr	r2, [r0]
 506              	.LVL52:
 114:..\..\..\u8g2\u8g2\csrc/u8x8_byte.c ****   {
 507              		.loc 1 114 0
 508 000e 0C29     		cmp	r1, #12
 509 0010 61D8     		bhi	.L28
 510 0012 DFE801F0 		tbb	[pc, r1]
 511              	.LVL53:
 512              	.L18:
 513 0016 39       		.byte	(.L17-.L18)/2
 514 0017 60       		.byte	(.L28-.L18)/2
 515 0018 60       		.byte	(.L28-.L18)/2
 516 0019 07       		.byte	(.L19-.L18)/2
 517 001a 4B       		.byte	(.L20-.L18)/2
 518 001b 57       		.byte	(.L21-.L18)/2
 519 001c 60       		.byte	(.L28-.L18)/2
 520 001d 60       		.byte	(.L28-.L18)/2
 521 001e 60       		.byte	(.L28-.L18)/2
 522 001f 60       		.byte	(.L28-.L18)/2
 523 0020 60       		.byte	(.L28-.L18)/2
 524 0021 60       		.byte	(.L28-.L18)/2
 525 0022 48       		.byte	(.L22-.L18)/2
ARM GAS  C:\Users\jesse\AppData\Local\Temp\ccdqInxW.s 			page 21


 526 0023 00       		.p2align 1
 527              	.L19:
 111:..\..\..\u8g2\u8g2\csrc/u8x8_byte.c ****   uint8_t not_takeover_edge = 1 - takeover_edge;
 528              		.loc 1 111 0
 529 0024 92F80C80 		ldrb	r8, [r2, #12]	@ zero_extendqisi2
 530 0028 08F00108 		and	r8, r8, #1
 131:..\..\..\u8g2\u8g2\csrc/u8x8_byte.c **** 	  u8x8_gpio_Delay(u8x8, U8X8_MSG_DELAY_NANO, u8x8->display_info->sda_setup_time_ns);
 531              		.loc 1 131 0
 532 002c 88F0010A 		eor	r10, r8, #1
 533              	.LVL54:
 534              	.L23:
 118:..\..\..\u8g2\u8g2\csrc/u8x8_byte.c ****       {
 535              		.loc 1 118 0
 536 0030 002D     		cmp	r5, #0
 537 0032 35D0     		beq	.L31
 122:..\..\..\u8g2\u8g2\csrc/u8x8_byte.c **** 	for( i = 0; i < 8; i++ )
 538              		.loc 1 122 0
 539 0034 013D     		subs	r5, r5, #1
 540              	.LVL55:
 120:..\..\..\u8g2\u8g2\csrc/u8x8_byte.c **** 	data++;
 541              		.loc 1 120 0
 542 0036 19F8017B 		ldrb	r7, [r9], #1	@ zero_extendqisi2
 543              	.LVL56:
 122:..\..\..\u8g2\u8g2\csrc/u8x8_byte.c **** 	for( i = 0; i < 8; i++ )
 544              		.loc 1 122 0
 545 003a EDB2     		uxtb	r5, r5
 546              	.LVL57:
 547 003c 0826     		movs	r6, #8
 548              	.LVL58:
 549              	.L26:
 125:..\..\..\u8g2\u8g2\csrc/u8x8_byte.c **** 	    u8x8_gpio_SetSPIData(u8x8, 1);
 550              		.loc 1 125 0
 551 003e 3B06     		lsls	r3, r7, #24
 126:..\..\..\u8g2\u8g2\csrc/u8x8_byte.c **** 	  else
 552              		.loc 1 126 0
 553 0040 4CBF     		ite	mi
 554 0042 0122     		movmi	r2, #1
 128:..\..\..\u8g2\u8g2\csrc/u8x8_byte.c **** 	  b <<= 1;
 555              		.loc 1 128 0
 556 0044 0022     		movpl	r2, #0
 557 0046 4121     		movs	r1, #65
 558 0048 2046     		mov	r0, r4
 559 004a FFF7FEFF 		bl	u8x8_gpio_call
 560              	.LVL59:
 131:..\..\..\u8g2\u8g2\csrc/u8x8_byte.c **** 	  u8x8_gpio_Delay(u8x8, U8X8_MSG_DELAY_NANO, u8x8->display_info->sda_setup_time_ns);
 561              		.loc 1 131 0
 562 004e 5246     		mov	r2, r10
 563 0050 4021     		movs	r1, #64
 564 0052 2046     		mov	r0, r4
 565 0054 FFF7FEFF 		bl	u8x8_gpio_call
 566              	.LVL60:
 132:..\..\..\u8g2\u8g2\csrc/u8x8_byte.c **** 	  u8x8_gpio_SetSPIClock(u8x8, takeover_edge);
 567              		.loc 1 132 0
 568 0058 2368     		ldr	r3, [r4]
 569 005a 2C21     		movs	r1, #44
 570 005c 9A79     		ldrb	r2, [r3, #6]	@ zero_extendqisi2
 571 005e 2046     		mov	r0, r4
ARM GAS  C:\Users\jesse\AppData\Local\Temp\ccdqInxW.s 			page 22


 572 0060 FFF7FEFF 		bl	u8x8_gpio_call
 573              	.LVL61:
 133:..\..\..\u8g2\u8g2\csrc/u8x8_byte.c **** 	  u8x8_gpio_Delay(u8x8, U8X8_MSG_DELAY_NANO, u8x8->display_info->sck_pulse_width_ns);
 574              		.loc 1 133 0
 575 0064 4246     		mov	r2, r8
 576 0066 4021     		movs	r1, #64
 577 0068 2046     		mov	r0, r4
 578 006a FFF7FEFF 		bl	u8x8_gpio_call
 579              	.LVL62:
 134:..\..\..\u8g2\u8g2\csrc/u8x8_byte.c **** 	}    
 580              		.loc 1 134 0
 581 006e 2368     		ldr	r3, [r4]
 582 0070 2C21     		movs	r1, #44
 583 0072 DA79     		ldrb	r2, [r3, #7]	@ zero_extendqisi2
 584 0074 2046     		mov	r0, r4
 585 0076 013E     		subs	r6, r6, #1
 586              	.LVL63:
 129:..\..\..\u8g2\u8g2\csrc/u8x8_byte.c **** 	  
 587              		.loc 1 129 0
 588 0078 7F00     		lsls	r7, r7, #1
 589              	.LVL64:
 134:..\..\..\u8g2\u8g2\csrc/u8x8_byte.c **** 	}    
 590              		.loc 1 134 0
 591 007a FFF7FEFF 		bl	u8x8_gpio_call
 592              	.LVL65:
 123:..\..\..\u8g2\u8g2\csrc/u8x8_byte.c **** 	{
 593              		.loc 1 123 0
 594 007e 16F0FF06 		ands	r6, r6, #255
 129:..\..\..\u8g2\u8g2\csrc/u8x8_byte.c **** 	  
 595              		.loc 1 129 0
 596 0082 FFB2     		uxtb	r7, r7
 597              	.LVL66:
 123:..\..\..\u8g2\u8g2\csrc/u8x8_byte.c **** 	{
 598              		.loc 1 123 0
 599 0084 DBD1     		bne	.L26
 600 0086 D3E7     		b	.L23
 601              	.LVL67:
 602              	.L17:
 141:..\..\..\u8g2\u8g2\csrc/u8x8_byte.c ****       /* no wait required here */
 603              		.loc 1 141 0
 604 0088 5278     		ldrb	r2, [r2, #1]	@ zero_extendqisi2
 605              	.LVL68:
 606 008a 4921     		movs	r1, #73
 607 008c FFF7FEFF 		bl	u8x8_gpio_call
 608              	.LVL69:
 145:..\..\..\u8g2\u8g2\csrc/u8x8_byte.c ****       break;
 609              		.loc 1 145 0
 610 0090 2368     		ldr	r3, [r4]
 611 0092 4021     		movs	r1, #64
 612 0094 1A7B     		ldrb	r2, [r3, #12]	@ zero_extendqisi2
 613 0096 02F00102 		and	r2, r2, #1
 614              	.L32:
 615 009a 2046     		mov	r0, r4
 616 009c FFF7FEFF 		bl	u8x8_gpio_call
 617              	.LVL70:
 618              	.L31:
 161:..\..\..\u8g2\u8g2\csrc/u8x8_byte.c **** }
ARM GAS  C:\Users\jesse\AppData\Local\Temp\ccdqInxW.s 			page 23


 619              		.loc 1 161 0
 620 00a0 0120     		movs	r0, #1
 146:..\..\..\u8g2\u8g2\csrc/u8x8_byte.c ****     case U8X8_MSG_BYTE_SET_DC:
 621              		.loc 1 146 0
 622 00a2 BDE8F087 		pop	{r4, r5, r6, r7, r8, r9, r10, pc}
 623              	.LVL71:
 624              	.L22:
 148:..\..\..\u8g2\u8g2\csrc/u8x8_byte.c ****       break;
 625              		.loc 1 148 0
 626 00a6 2A46     		mov	r2, r5
 627              	.LVL72:
 628 00a8 4A21     		movs	r1, #74
 629 00aa F6E7     		b	.L32
 630              	.LVL73:
 631              	.L20:
 151:..\..\..\u8g2\u8g2\csrc/u8x8_byte.c ****       u8x8->gpio_and_delay_cb(u8x8, U8X8_MSG_DELAY_NANO, u8x8->display_info->post_chip_enable_wait_
 632              		.loc 1 151 0
 633 00ac 1278     		ldrb	r2, [r2]	@ zero_extendqisi2
 634              	.LVL74:
 635 00ae 4921     		movs	r1, #73
 636 00b0 FFF7FEFF 		bl	u8x8_gpio_call
 637              	.LVL75:
 152:..\..\..\u8g2\u8g2\csrc/u8x8_byte.c ****       break;
 638              		.loc 1 152 0
 639 00b4 2268     		ldr	r2, [r4]
 640 00b6 6569     		ldr	r5, [r4, #20]
 641 00b8 0023     		movs	r3, #0
 642 00ba 9278     		ldrb	r2, [r2, #2]	@ zero_extendqisi2
 643 00bc 2C21     		movs	r1, #44
 644 00be 2046     		mov	r0, r4
 645 00c0 A847     		blx	r5
 646              	.LVL76:
 647 00c2 EDE7     		b	.L31
 648              	.LVL77:
 649              	.L21:
 155:..\..\..\u8g2\u8g2\csrc/u8x8_byte.c ****       u8x8_gpio_SetCS(u8x8, u8x8->display_info->chip_disable_level);
 650              		.loc 1 155 0
 651 00c4 0023     		movs	r3, #0
 652 00c6 D278     		ldrb	r2, [r2, #3]	@ zero_extendqisi2
 653              	.LVL78:
 654 00c8 2C21     		movs	r1, #44
 655 00ca 4569     		ldr	r5, [r0, #20]
 656 00cc A847     		blx	r5
 657              	.LVL79:
 156:..\..\..\u8g2\u8g2\csrc/u8x8_byte.c ****       break;
 658              		.loc 1 156 0
 659 00ce 2368     		ldr	r3, [r4]
 660 00d0 4921     		movs	r1, #73
 661 00d2 5A78     		ldrb	r2, [r3, #1]	@ zero_extendqisi2
 662 00d4 E1E7     		b	.L32
 663              	.LVL80:
 664              	.L28:
 159:..\..\..\u8g2\u8g2\csrc/u8x8_byte.c ****   }
 665              		.loc 1 159 0
 666 00d6 0020     		movs	r0, #0
 667              	.LVL81:
 162:..\..\..\u8g2\u8g2\csrc/u8x8_byte.c **** 
ARM GAS  C:\Users\jesse\AppData\Local\Temp\ccdqInxW.s 			page 24


 668              		.loc 1 162 0
 669 00d8 BDE8F087 		pop	{r4, r5, r6, r7, r8, r9, r10, pc}
 670              		.cfi_endproc
 671              	.LFE6:
 672              		.size	u8x8_byte_4wire_sw_spi, .-u8x8_byte_4wire_sw_spi
 673              		.section	.text.u8x8_byte_8bit_6800mode,"ax",%progbits
 674              		.align	1
 675              		.global	u8x8_byte_8bit_6800mode
 676              		.thumb
 677              		.thumb_func
 678              		.type	u8x8_byte_8bit_6800mode, %function
 679              	u8x8_byte_8bit_6800mode:
 680              	.LFB7:
 167:..\..\..\u8g2\u8g2\csrc/u8x8_byte.c ****   uint8_t i, b;
 681              		.loc 1 167 0
 682              		.cfi_startproc
 683              		@ args = 0, pretend = 0, frame = 0
 684              		@ frame_needed = 0, uses_anonymous_args = 0
 685              	.LVL82:
 171:..\..\..\u8g2\u8g2\csrc/u8x8_byte.c ****   {
 686              		.loc 1 171 0
 687 0000 1439     		subs	r1, r1, #20
 688              	.LVL83:
 167:..\..\..\u8g2\u8g2\csrc/u8x8_byte.c ****   uint8_t i, b;
 689              		.loc 1 167 0
 690 0002 2DE9F041 		push	{r4, r5, r6, r7, r8, lr}
 691              		.cfi_def_cfa_offset 24
 692              		.cfi_offset 4, -24
 693              		.cfi_offset 5, -20
 694              		.cfi_offset 6, -16
 695              		.cfi_offset 7, -12
 696              		.cfi_offset 8, -8
 697              		.cfi_offset 14, -4
 167:..\..\..\u8g2\u8g2\csrc/u8x8_byte.c ****   uint8_t i, b;
 698              		.loc 1 167 0
 699 0006 0446     		mov	r4, r0
 700 0008 1646     		mov	r6, r2
 701 000a 9846     		mov	r8, r3
 171:..\..\..\u8g2\u8g2\csrc/u8x8_byte.c ****   {
 702              		.loc 1 171 0
 703 000c 0C29     		cmp	r1, #12
 704 000e 57D8     		bhi	.L44
 705 0010 DFE801F0 		tbb	[pc, r1]
 706              	.LVL84:
 707              	.L36:
 708 0014 30       		.byte	(.L35-.L36)/2
 709 0015 56       		.byte	(.L44-.L36)/2
 710 0016 56       		.byte	(.L44-.L36)/2
 711 0017 29       		.byte	(.L41-.L36)/2
 712 0018 3F       		.byte	(.L38-.L36)/2
 713 0019 4C       		.byte	(.L39-.L36)/2
 714 001a 56       		.byte	(.L44-.L36)/2
 715 001b 56       		.byte	(.L44-.L36)/2
 716 001c 56       		.byte	(.L44-.L36)/2
 717 001d 56       		.byte	(.L44-.L36)/2
 718 001e 56       		.byte	(.L44-.L36)/2
 719 001f 56       		.byte	(.L44-.L36)/2
ARM GAS  C:\Users\jesse\AppData\Local\Temp\ccdqInxW.s 			page 25


 720 0020 3D       		.byte	(.L40-.L36)/2
 721 0021 00       		.p2align 1
 722              	.L42:
 182:..\..\..\u8g2\u8g2\csrc/u8x8_byte.c **** 	  b >>= 1;
 723              		.loc 1 182 0 discriminator 3
 724 0022 2946     		mov	r1, r5
 180:..\..\..\u8g2\u8g2\csrc/u8x8_byte.c **** 	{
 725              		.loc 1 180 0 discriminator 3
 726 0024 0135     		adds	r5, r5, #1
 727              	.LVL85:
 182:..\..\..\u8g2\u8g2\csrc/u8x8_byte.c **** 	  b >>= 1;
 728              		.loc 1 182 0 discriminator 3
 729 0026 07F00102 		and	r2, r7, #1
 730 002a 2046     		mov	r0, r4
 180:..\..\..\u8g2\u8g2\csrc/u8x8_byte.c **** 	{
 731              		.loc 1 180 0 discriminator 3
 732 002c EDB2     		uxtb	r5, r5
 182:..\..\..\u8g2\u8g2\csrc/u8x8_byte.c **** 	  b >>= 1;
 733              		.loc 1 182 0 discriminator 3
 734 002e FFF7FEFF 		bl	u8x8_gpio_call
 735              	.LVL86:
 180:..\..\..\u8g2\u8g2\csrc/u8x8_byte.c **** 	{
 736              		.loc 1 180 0 discriminator 3
 737 0032 482D     		cmp	r5, #72
 183:..\..\..\u8g2\u8g2\csrc/u8x8_byte.c **** 	}    
 738              		.loc 1 183 0 discriminator 3
 739 0034 4FEA5707 		lsr	r7, r7, #1
 740              	.LVL87:
 180:..\..\..\u8g2\u8g2\csrc/u8x8_byte.c **** 	{
 741              		.loc 1 180 0 discriminator 3
 742 0038 F3D1     		bne	.L42
 186:..\..\..\u8g2\u8g2\csrc/u8x8_byte.c **** 	u8x8_gpio_call(u8x8, U8X8_MSG_GPIO_E, 1);
 743              		.loc 1 186 0
 744 003a 2368     		ldr	r3, [r4]
 745 003c 2C21     		movs	r1, #44
 746 003e 9A7B     		ldrb	r2, [r3, #14]	@ zero_extendqisi2
 747 0040 2046     		mov	r0, r4
 748 0042 FFF7FEFF 		bl	u8x8_gpio_call
 749              	.LVL88:
 187:..\..\..\u8g2\u8g2\csrc/u8x8_byte.c **** 	u8x8_gpio_Delay(u8x8, U8X8_MSG_DELAY_NANO, u8x8->display_info->write_pulse_width_ns);
 750              		.loc 1 187 0
 751 0046 0122     		movs	r2, #1
 752 0048 2946     		mov	r1, r5
 753 004a 2046     		mov	r0, r4
 754 004c FFF7FEFF 		bl	u8x8_gpio_call
 755              	.LVL89:
 188:..\..\..\u8g2\u8g2\csrc/u8x8_byte.c **** 	u8x8_gpio_call(u8x8, U8X8_MSG_GPIO_E, 0);
 756              		.loc 1 188 0
 757 0050 2368     		ldr	r3, [r4]
 758 0052 2C21     		movs	r1, #44
 759 0054 DA7B     		ldrb	r2, [r3, #15]	@ zero_extendqisi2
 760 0056 2046     		mov	r0, r4
 761 0058 FFF7FEFF 		bl	u8x8_gpio_call
 762              	.LVL90:
 189:..\..\..\u8g2\u8g2\csrc/u8x8_byte.c ****       }
 763              		.loc 1 189 0
 764 005c 0022     		movs	r2, #0
ARM GAS  C:\Users\jesse\AppData\Local\Temp\ccdqInxW.s 			page 26


 765 005e 2946     		mov	r1, r5
 766 0060 2046     		mov	r0, r4
 767 0062 FFF7FEFF 		bl	u8x8_gpio_call
 768              	.LVL91:
 769              	.L41:
 175:..\..\..\u8g2\u8g2\csrc/u8x8_byte.c ****       {
 770              		.loc 1 175 0
 771 0066 7EB1     		cbz	r6, .L46
 179:..\..\..\u8g2\u8g2\csrc/u8x8_byte.c **** 	for( i = U8X8_MSG_GPIO_D0; i <= U8X8_MSG_GPIO_D7; i++ )
 772              		.loc 1 179 0
 773 0068 013E     		subs	r6, r6, #1
 774              	.LVL92:
 177:..\..\..\u8g2\u8g2\csrc/u8x8_byte.c **** 	data++;
 775              		.loc 1 177 0
 776 006a 18F8017B 		ldrb	r7, [r8], #1	@ zero_extendqisi2
 777              	.LVL93:
 179:..\..\..\u8g2\u8g2\csrc/u8x8_byte.c **** 	for( i = U8X8_MSG_GPIO_D0; i <= U8X8_MSG_GPIO_D7; i++ )
 778              		.loc 1 179 0
 779 006e F6B2     		uxtb	r6, r6
 780              	.LVL94:
 180:..\..\..\u8g2\u8g2\csrc/u8x8_byte.c **** 	{
 781              		.loc 1 180 0
 782 0070 4025     		movs	r5, #64
 783 0072 D6E7     		b	.L42
 784              	.LVL95:
 785              	.L35:
 195:..\..\..\u8g2\u8g2\csrc/u8x8_byte.c ****       /* ensure that the enable signal is high */
 786              		.loc 1 195 0
 787 0074 0368     		ldr	r3, [r0]
 788 0076 4921     		movs	r1, #73
 789 0078 5A78     		ldrb	r2, [r3, #1]	@ zero_extendqisi2
 790              	.LVL96:
 791 007a FFF7FEFF 		bl	u8x8_gpio_call
 792              	.LVL97:
 197:..\..\..\u8g2\u8g2\csrc/u8x8_byte.c ****       break;
 793              		.loc 1 197 0
 794 007e 0022     		movs	r2, #0
 795 0080 4821     		movs	r1, #72
 796              	.L47:
 797 0082 2046     		mov	r0, r4
 798 0084 FFF7FEFF 		bl	u8x8_gpio_call
 799              	.LVL98:
 800              	.L46:
 213:..\..\..\u8g2\u8g2\csrc/u8x8_byte.c **** }
 801              		.loc 1 213 0
 802 0088 0120     		movs	r0, #1
 198:..\..\..\u8g2\u8g2\csrc/u8x8_byte.c ****     case U8X8_MSG_BYTE_SET_DC:
 803              		.loc 1 198 0
 804 008a BDE8F081 		pop	{r4, r5, r6, r7, r8, pc}
 805              	.LVL99:
 806              	.L40:
 200:..\..\..\u8g2\u8g2\csrc/u8x8_byte.c ****       break;
 807              		.loc 1 200 0
 808 008e 4A21     		movs	r1, #74
 809 0090 F7E7     		b	.L47
 810              	.L38:
 203:..\..\..\u8g2\u8g2\csrc/u8x8_byte.c ****       u8x8->gpio_and_delay_cb(u8x8, U8X8_MSG_DELAY_NANO, u8x8->display_info->post_chip_enable_wait_
ARM GAS  C:\Users\jesse\AppData\Local\Temp\ccdqInxW.s 			page 27


 811              		.loc 1 203 0
 812 0092 0368     		ldr	r3, [r0]
 813 0094 4921     		movs	r1, #73
 814 0096 1A78     		ldrb	r2, [r3]	@ zero_extendqisi2
 815              	.LVL100:
 816 0098 FFF7FEFF 		bl	u8x8_gpio_call
 817              	.LVL101:
 204:..\..\..\u8g2\u8g2\csrc/u8x8_byte.c ****       break;
 818              		.loc 1 204 0
 819 009c 2268     		ldr	r2, [r4]
 820 009e 6569     		ldr	r5, [r4, #20]
 821 00a0 0023     		movs	r3, #0
 822 00a2 9278     		ldrb	r2, [r2, #2]	@ zero_extendqisi2
 823 00a4 2C21     		movs	r1, #44
 824 00a6 2046     		mov	r0, r4
 825 00a8 A847     		blx	r5
 826              	.LVL102:
 827 00aa EDE7     		b	.L46
 828              	.LVL103:
 829              	.L39:
 207:..\..\..\u8g2\u8g2\csrc/u8x8_byte.c ****       u8x8_gpio_SetCS(u8x8, u8x8->display_info->chip_disable_level);
 830              		.loc 1 207 0
 831 00ac 0268     		ldr	r2, [r0]
 832              	.LVL104:
 833 00ae 0023     		movs	r3, #0
 834 00b0 D278     		ldrb	r2, [r2, #3]	@ zero_extendqisi2
 835 00b2 2C21     		movs	r1, #44
 836 00b4 4569     		ldr	r5, [r0, #20]
 837 00b6 A847     		blx	r5
 838              	.LVL105:
 208:..\..\..\u8g2\u8g2\csrc/u8x8_byte.c ****       break;
 839              		.loc 1 208 0
 840 00b8 2368     		ldr	r3, [r4]
 841 00ba 4921     		movs	r1, #73
 842 00bc 5A78     		ldrb	r2, [r3, #1]	@ zero_extendqisi2
 843 00be E0E7     		b	.L47
 844              	.LVL106:
 845              	.L44:
 211:..\..\..\u8g2\u8g2\csrc/u8x8_byte.c ****   }
 846              		.loc 1 211 0
 847 00c0 0020     		movs	r0, #0
 848              	.LVL107:
 214:..\..\..\u8g2\u8g2\csrc/u8x8_byte.c **** 
 849              		.loc 1 214 0
 850 00c2 BDE8F081 		pop	{r4, r5, r6, r7, r8, pc}
 851              		.cfi_endproc
 852              	.LFE7:
 853              		.size	u8x8_byte_8bit_6800mode, .-u8x8_byte_8bit_6800mode
 854              		.section	.text.u8x8_byte_8bit_8080mode,"ax",%progbits
 855              		.align	1
 856              		.global	u8x8_byte_8bit_8080mode
 857              		.thumb
 858              		.thumb_func
 859              		.type	u8x8_byte_8bit_8080mode, %function
 860              	u8x8_byte_8bit_8080mode:
 861              	.LFB8:
 217:..\..\..\u8g2\u8g2\csrc/u8x8_byte.c ****   uint8_t i, b;
ARM GAS  C:\Users\jesse\AppData\Local\Temp\ccdqInxW.s 			page 28


 862              		.loc 1 217 0
 863              		.cfi_startproc
 864              		@ args = 0, pretend = 0, frame = 0
 865              		@ frame_needed = 0, uses_anonymous_args = 0
 866              	.LVL108:
 221:..\..\..\u8g2\u8g2\csrc/u8x8_byte.c ****   {
 867              		.loc 1 221 0
 868 0000 1439     		subs	r1, r1, #20
 869              	.LVL109:
 217:..\..\..\u8g2\u8g2\csrc/u8x8_byte.c ****   uint8_t i, b;
 870              		.loc 1 217 0
 871 0002 2DE9F041 		push	{r4, r5, r6, r7, r8, lr}
 872              		.cfi_def_cfa_offset 24
 873              		.cfi_offset 4, -24
 874              		.cfi_offset 5, -20
 875              		.cfi_offset 6, -16
 876              		.cfi_offset 7, -12
 877              		.cfi_offset 8, -8
 878              		.cfi_offset 14, -4
 217:..\..\..\u8g2\u8g2\csrc/u8x8_byte.c ****   uint8_t i, b;
 879              		.loc 1 217 0
 880 0006 0446     		mov	r4, r0
 881 0008 1646     		mov	r6, r2
 882 000a 9846     		mov	r8, r3
 221:..\..\..\u8g2\u8g2\csrc/u8x8_byte.c ****   {
 883              		.loc 1 221 0
 884 000c 0C29     		cmp	r1, #12
 885 000e 57D8     		bhi	.L59
 886 0010 DFE801F0 		tbb	[pc, r1]
 887              	.LVL110:
 888              	.L51:
 889 0014 30       		.byte	(.L50-.L51)/2
 890 0015 56       		.byte	(.L59-.L51)/2
 891 0016 56       		.byte	(.L59-.L51)/2
 892 0017 29       		.byte	(.L56-.L51)/2
 893 0018 3F       		.byte	(.L53-.L51)/2
 894 0019 4C       		.byte	(.L54-.L51)/2
 895 001a 56       		.byte	(.L59-.L51)/2
 896 001b 56       		.byte	(.L59-.L51)/2
 897 001c 56       		.byte	(.L59-.L51)/2
 898 001d 56       		.byte	(.L59-.L51)/2
 899 001e 56       		.byte	(.L59-.L51)/2
 900 001f 56       		.byte	(.L59-.L51)/2
 901 0020 3D       		.byte	(.L55-.L51)/2
 902 0021 00       		.p2align 1
 903              	.L57:
 232:..\..\..\u8g2\u8g2\csrc/u8x8_byte.c **** 	  b >>= 1;
 904              		.loc 1 232 0 discriminator 3
 905 0022 2946     		mov	r1, r5
 230:..\..\..\u8g2\u8g2\csrc/u8x8_byte.c **** 	{
 906              		.loc 1 230 0 discriminator 3
 907 0024 0135     		adds	r5, r5, #1
 908              	.LVL111:
 232:..\..\..\u8g2\u8g2\csrc/u8x8_byte.c **** 	  b >>= 1;
 909              		.loc 1 232 0 discriminator 3
 910 0026 07F00102 		and	r2, r7, #1
 911 002a 2046     		mov	r0, r4
ARM GAS  C:\Users\jesse\AppData\Local\Temp\ccdqInxW.s 			page 29


 230:..\..\..\u8g2\u8g2\csrc/u8x8_byte.c **** 	{
 912              		.loc 1 230 0 discriminator 3
 913 002c EDB2     		uxtb	r5, r5
 232:..\..\..\u8g2\u8g2\csrc/u8x8_byte.c **** 	  b >>= 1;
 914              		.loc 1 232 0 discriminator 3
 915 002e FFF7FEFF 		bl	u8x8_gpio_call
 916              	.LVL112:
 230:..\..\..\u8g2\u8g2\csrc/u8x8_byte.c **** 	{
 917              		.loc 1 230 0 discriminator 3
 918 0032 482D     		cmp	r5, #72
 233:..\..\..\u8g2\u8g2\csrc/u8x8_byte.c **** 	}    
 919              		.loc 1 233 0 discriminator 3
 920 0034 4FEA5707 		lsr	r7, r7, #1
 921              	.LVL113:
 230:..\..\..\u8g2\u8g2\csrc/u8x8_byte.c **** 	{
 922              		.loc 1 230 0 discriminator 3
 923 0038 F3D1     		bne	.L57
 236:..\..\..\u8g2\u8g2\csrc/u8x8_byte.c **** 	u8x8_gpio_call(u8x8, U8X8_MSG_GPIO_E, 0);
 924              		.loc 1 236 0
 925 003a 2368     		ldr	r3, [r4]
 926 003c 2C21     		movs	r1, #44
 927 003e 9A7B     		ldrb	r2, [r3, #14]	@ zero_extendqisi2
 928 0040 2046     		mov	r0, r4
 929 0042 FFF7FEFF 		bl	u8x8_gpio_call
 930              	.LVL114:
 237:..\..\..\u8g2\u8g2\csrc/u8x8_byte.c **** 	u8x8_gpio_Delay(u8x8, U8X8_MSG_DELAY_NANO, u8x8->display_info->write_pulse_width_ns);
 931              		.loc 1 237 0
 932 0046 0022     		movs	r2, #0
 933 0048 2946     		mov	r1, r5
 934 004a 2046     		mov	r0, r4
 935 004c FFF7FEFF 		bl	u8x8_gpio_call
 936              	.LVL115:
 238:..\..\..\u8g2\u8g2\csrc/u8x8_byte.c **** 	u8x8_gpio_call(u8x8, U8X8_MSG_GPIO_E, 1);
 937              		.loc 1 238 0
 938 0050 2368     		ldr	r3, [r4]
 939 0052 2C21     		movs	r1, #44
 940 0054 DA7B     		ldrb	r2, [r3, #15]	@ zero_extendqisi2
 941 0056 2046     		mov	r0, r4
 942 0058 FFF7FEFF 		bl	u8x8_gpio_call
 943              	.LVL116:
 239:..\..\..\u8g2\u8g2\csrc/u8x8_byte.c ****       }
 944              		.loc 1 239 0
 945 005c 0122     		movs	r2, #1
 946 005e 2946     		mov	r1, r5
 947 0060 2046     		mov	r0, r4
 948 0062 FFF7FEFF 		bl	u8x8_gpio_call
 949              	.LVL117:
 950              	.L56:
 225:..\..\..\u8g2\u8g2\csrc/u8x8_byte.c ****       {
 951              		.loc 1 225 0
 952 0066 7EB1     		cbz	r6, .L61
 229:..\..\..\u8g2\u8g2\csrc/u8x8_byte.c **** 	for( i = U8X8_MSG_GPIO_D0; i <= U8X8_MSG_GPIO_D7; i++ )
 953              		.loc 1 229 0
 954 0068 013E     		subs	r6, r6, #1
 955              	.LVL118:
 227:..\..\..\u8g2\u8g2\csrc/u8x8_byte.c **** 	data++;
 956              		.loc 1 227 0
ARM GAS  C:\Users\jesse\AppData\Local\Temp\ccdqInxW.s 			page 30


 957 006a 18F8017B 		ldrb	r7, [r8], #1	@ zero_extendqisi2
 958              	.LVL119:
 229:..\..\..\u8g2\u8g2\csrc/u8x8_byte.c **** 	for( i = U8X8_MSG_GPIO_D0; i <= U8X8_MSG_GPIO_D7; i++ )
 959              		.loc 1 229 0
 960 006e F6B2     		uxtb	r6, r6
 961              	.LVL120:
 230:..\..\..\u8g2\u8g2\csrc/u8x8_byte.c **** 	{
 962              		.loc 1 230 0
 963 0070 4025     		movs	r5, #64
 964 0072 D6E7     		b	.L57
 965              	.LVL121:
 966              	.L50:
 245:..\..\..\u8g2\u8g2\csrc/u8x8_byte.c ****       /* ensure that the enable signal is high */
 967              		.loc 1 245 0
 968 0074 0368     		ldr	r3, [r0]
 969 0076 4921     		movs	r1, #73
 970 0078 5A78     		ldrb	r2, [r3, #1]	@ zero_extendqisi2
 971              	.LVL122:
 972 007a FFF7FEFF 		bl	u8x8_gpio_call
 973              	.LVL123:
 247:..\..\..\u8g2\u8g2\csrc/u8x8_byte.c ****       break;
 974              		.loc 1 247 0
 975 007e 0122     		movs	r2, #1
 976 0080 4821     		movs	r1, #72
 977              	.L62:
 978 0082 2046     		mov	r0, r4
 979 0084 FFF7FEFF 		bl	u8x8_gpio_call
 980              	.LVL124:
 981              	.L61:
 263:..\..\..\u8g2\u8g2\csrc/u8x8_byte.c **** }
 982              		.loc 1 263 0
 983 0088 0120     		movs	r0, #1
 248:..\..\..\u8g2\u8g2\csrc/u8x8_byte.c ****     case U8X8_MSG_BYTE_SET_DC:
 984              		.loc 1 248 0
 985 008a BDE8F081 		pop	{r4, r5, r6, r7, r8, pc}
 986              	.LVL125:
 987              	.L55:
 250:..\..\..\u8g2\u8g2\csrc/u8x8_byte.c ****       break;
 988              		.loc 1 250 0
 989 008e 4A21     		movs	r1, #74
 990 0090 F7E7     		b	.L62
 991              	.L53:
 253:..\..\..\u8g2\u8g2\csrc/u8x8_byte.c ****       u8x8->gpio_and_delay_cb(u8x8, U8X8_MSG_DELAY_NANO, u8x8->display_info->post_chip_enable_wait_
 992              		.loc 1 253 0
 993 0092 0368     		ldr	r3, [r0]
 994 0094 4921     		movs	r1, #73
 995 0096 1A78     		ldrb	r2, [r3]	@ zero_extendqisi2
 996              	.LVL126:
 997 0098 FFF7FEFF 		bl	u8x8_gpio_call
 998              	.LVL127:
 254:..\..\..\u8g2\u8g2\csrc/u8x8_byte.c ****       break;
 999              		.loc 1 254 0
 1000 009c 2268     		ldr	r2, [r4]
 1001 009e 6569     		ldr	r5, [r4, #20]
 1002 00a0 0023     		movs	r3, #0
 1003 00a2 9278     		ldrb	r2, [r2, #2]	@ zero_extendqisi2
 1004 00a4 2C21     		movs	r1, #44
ARM GAS  C:\Users\jesse\AppData\Local\Temp\ccdqInxW.s 			page 31


 1005 00a6 2046     		mov	r0, r4
 1006 00a8 A847     		blx	r5
 1007              	.LVL128:
 1008 00aa EDE7     		b	.L61
 1009              	.LVL129:
 1010              	.L54:
 257:..\..\..\u8g2\u8g2\csrc/u8x8_byte.c ****       u8x8_gpio_SetCS(u8x8, u8x8->display_info->chip_disable_level);
 1011              		.loc 1 257 0
 1012 00ac 0268     		ldr	r2, [r0]
 1013              	.LVL130:
 1014 00ae 0023     		movs	r3, #0
 1015 00b0 D278     		ldrb	r2, [r2, #3]	@ zero_extendqisi2
 1016 00b2 2C21     		movs	r1, #44
 1017 00b4 4569     		ldr	r5, [r0, #20]
 1018 00b6 A847     		blx	r5
 1019              	.LVL131:
 258:..\..\..\u8g2\u8g2\csrc/u8x8_byte.c ****       break;
 1020              		.loc 1 258 0
 1021 00b8 2368     		ldr	r3, [r4]
 1022 00ba 4921     		movs	r1, #73
 1023 00bc 5A78     		ldrb	r2, [r3, #1]	@ zero_extendqisi2
 1024 00be E0E7     		b	.L62
 1025              	.LVL132:
 1026              	.L59:
 261:..\..\..\u8g2\u8g2\csrc/u8x8_byte.c ****   }
 1027              		.loc 1 261 0
 1028 00c0 0020     		movs	r0, #0
 1029              	.LVL133:
 264:..\..\..\u8g2\u8g2\csrc/u8x8_byte.c **** 
 1030              		.loc 1 264 0
 1031 00c2 BDE8F081 		pop	{r4, r5, r6, r7, r8, pc}
 1032              		.cfi_endproc
 1033              	.LFE8:
 1034              		.size	u8x8_byte_8bit_8080mode, .-u8x8_byte_8bit_8080mode
 1035              		.section	.text.u8x8_byte_3wire_sw_spi,"ax",%progbits
 1036              		.align	1
 1037              		.global	u8x8_byte_3wire_sw_spi
 1038              		.thumb
 1039              		.thumb_func
 1040              		.type	u8x8_byte_3wire_sw_spi, %function
 1041              	u8x8_byte_3wire_sw_spi:
 1042              	.LFB9:
 269:..\..\..\u8g2\u8g2\csrc/u8x8_byte.c ****   uint8_t i;
 1043              		.loc 1 269 0
 1044              		.cfi_startproc
 1045              		@ args = 0, pretend = 0, frame = 0
 1046              		@ frame_needed = 0, uses_anonymous_args = 0
 1047              	.LVL134:
 277:..\..\..\u8g2\u8g2\csrc/u8x8_byte.c ****   {
 1048              		.loc 1 277 0
 1049 0000 1439     		subs	r1, r1, #20
 1050              	.LVL135:
 269:..\..\..\u8g2\u8g2\csrc/u8x8_byte.c ****   uint8_t i;
 1051              		.loc 1 269 0
 1052 0002 2DE9F047 		push	{r4, r5, r6, r7, r8, r9, r10, lr}
 1053              		.cfi_def_cfa_offset 32
 1054              		.cfi_offset 4, -32
ARM GAS  C:\Users\jesse\AppData\Local\Temp\ccdqInxW.s 			page 32


 1055              		.cfi_offset 5, -28
 1056              		.cfi_offset 6, -24
 1057              		.cfi_offset 7, -20
 1058              		.cfi_offset 8, -16
 1059              		.cfi_offset 9, -12
 1060              		.cfi_offset 10, -8
 1061              		.cfi_offset 14, -4
 269:..\..\..\u8g2\u8g2\csrc/u8x8_byte.c ****   uint8_t i;
 1062              		.loc 1 269 0
 1063 0006 1646     		mov	r6, r2
 1064 0008 0446     		mov	r4, r0
 272:..\..\..\u8g2\u8g2\csrc/u8x8_byte.c ****   uint8_t not_takeover_edge = 1 - takeover_edge;
 1065              		.loc 1 272 0
 1066 000a 0268     		ldr	r2, [r0]
 1067              	.LVL136:
 277:..\..\..\u8g2\u8g2\csrc/u8x8_byte.c ****   {
 1068              		.loc 1 277 0
 1069 000c 0C29     		cmp	r1, #12
 1070 000e 6CD8     		bhi	.L77
 1071 0010 DFE801F0 		tbb	[pc, r1]
 1072              	.LVL137:
 1073              	.L66:
 1074 0014 41       		.byte	(.L65-.L66)/2
 1075 0015 6B       		.byte	(.L77-.L66)/2
 1076 0016 6B       		.byte	(.L77-.L66)/2
 1077 0017 07       		.byte	(.L67-.L66)/2
 1078 0018 54       		.byte	(.L68-.L66)/2
 1079 0019 61       		.byte	(.L69-.L66)/2
 1080 001a 6B       		.byte	(.L77-.L66)/2
 1081 001b 6B       		.byte	(.L77-.L66)/2
 1082 001c 6B       		.byte	(.L77-.L66)/2
 1083 001d 6B       		.byte	(.L77-.L66)/2
 1084 001e 6B       		.byte	(.L77-.L66)/2
 1085 001f 6B       		.byte	(.L77-.L66)/2
 1086 0020 51       		.byte	(.L70-.L66)/2
 1087 0021 00       		.p2align 1
 1088              	.L67:
 272:..\..\..\u8g2\u8g2\csrc/u8x8_byte.c ****   uint8_t not_takeover_edge = 1 - takeover_edge;
 1089              		.loc 1 272 0
 1090 0022 92F80C80 		ldrb	r8, [r2, #12]	@ zero_extendqisi2
 1091 0026 03F1FF39 		add	r9, r3, #-1
 1092 002a 08F00108 		and	r8, r8, #1
 296:..\..\..\u8g2\u8g2\csrc/u8x8_byte.c **** 	  u8x8_gpio_Delay(u8x8, U8X8_MSG_DELAY_NANO, u8x8->display_info->sda_setup_time_ns);
 1093              		.loc 1 296 0
 1094 002e 88F0010A 		eor	r10, r8, #1
 1095              	.LVL138:
 1096              	.L71:
 281:..\..\..\u8g2\u8g2\csrc/u8x8_byte.c ****       {
 1097              		.loc 1 281 0
 1098 0032 002E     		cmp	r6, #0
 1099 0034 3CD0     		beq	.L82
 284:..\..\..\u8g2\u8g2\csrc/u8x8_byte.c **** 	  b |= 256;
 1100              		.loc 1 284 0
 1101 0036 2E4B     		ldr	r3, .L84
 283:..\..\..\u8g2\u8g2\csrc/u8x8_byte.c **** 	if ( last_dc != 0 )
 1102              		.loc 1 283 0
 1103 0038 19F8015F 		ldrb	r5, [r9, #1]!	@ zero_extendqisi2
ARM GAS  C:\Users\jesse\AppData\Local\Temp\ccdqInxW.s 			page 33


 1104              	.LVL139:
 284:..\..\..\u8g2\u8g2\csrc/u8x8_byte.c **** 	  b |= 256;
 1105              		.loc 1 284 0
 1106 003c 1B78     		ldrb	r3, [r3]	@ zero_extendqisi2
 1107 003e 0BB1     		cbz	r3, .L72
 285:..\..\..\u8g2\u8g2\csrc/u8x8_byte.c **** 	data++;
 1108              		.loc 1 285 0
 1109 0040 45F48075 		orr	r5, r5, #256
 1110              	.LVL140:
 1111              	.L72:
 287:..\..\..\u8g2\u8g2\csrc/u8x8_byte.c **** 	for( i = 0; i < 9; i++ )
 1112              		.loc 1 287 0
 1113 0044 013E     		subs	r6, r6, #1
 1114              	.LVL141:
 1115 0046 F6B2     		uxtb	r6, r6
 1116              	.LVL142:
 1117 0048 0927     		movs	r7, #9
 1118              	.LVL143:
 1119              	.L75:
 290:..\..\..\u8g2\u8g2\csrc/u8x8_byte.c **** 	    u8x8_gpio_SetSPIData(u8x8, 1);
 1120              		.loc 1 290 0
 1121 004a 05F48072 		and	r2, r5, #256
 1122 004e 92B2     		uxth	r2, r2
 1123 0050 02B1     		cbz	r2, .L73
 291:..\..\..\u8g2\u8g2\csrc/u8x8_byte.c **** 	  else
 1124              		.loc 1 291 0
 1125 0052 0122     		movs	r2, #1
 1126              	.L73:
 293:..\..\..\u8g2\u8g2\csrc/u8x8_byte.c **** 	  b <<= 1;
 1127              		.loc 1 293 0
 1128 0054 4121     		movs	r1, #65
 1129 0056 2046     		mov	r0, r4
 1130 0058 FFF7FEFF 		bl	u8x8_gpio_call
 1131              	.LVL144:
 296:..\..\..\u8g2\u8g2\csrc/u8x8_byte.c **** 	  u8x8_gpio_Delay(u8x8, U8X8_MSG_DELAY_NANO, u8x8->display_info->sda_setup_time_ns);
 1132              		.loc 1 296 0
 1133 005c 5246     		mov	r2, r10
 1134 005e 4021     		movs	r1, #64
 1135 0060 2046     		mov	r0, r4
 1136 0062 FFF7FEFF 		bl	u8x8_gpio_call
 1137              	.LVL145:
 297:..\..\..\u8g2\u8g2\csrc/u8x8_byte.c **** 	  u8x8_gpio_SetSPIClock(u8x8, takeover_edge);
 1138              		.loc 1 297 0
 1139 0066 2368     		ldr	r3, [r4]
 1140 0068 2C21     		movs	r1, #44
 1141 006a 9A79     		ldrb	r2, [r3, #6]	@ zero_extendqisi2
 1142 006c 2046     		mov	r0, r4
 1143 006e FFF7FEFF 		bl	u8x8_gpio_call
 1144              	.LVL146:
 298:..\..\..\u8g2\u8g2\csrc/u8x8_byte.c **** 	  u8x8_gpio_Delay(u8x8, U8X8_MSG_DELAY_NANO, u8x8->display_info->sck_pulse_width_ns);
 1145              		.loc 1 298 0
 1146 0072 4246     		mov	r2, r8
 1147 0074 4021     		movs	r1, #64
 1148 0076 2046     		mov	r0, r4
 1149 0078 FFF7FEFF 		bl	u8x8_gpio_call
 1150              	.LVL147:
 299:..\..\..\u8g2\u8g2\csrc/u8x8_byte.c **** 	}    
ARM GAS  C:\Users\jesse\AppData\Local\Temp\ccdqInxW.s 			page 34


 1151              		.loc 1 299 0
 1152 007c 2368     		ldr	r3, [r4]
 1153 007e 2C21     		movs	r1, #44
 1154 0080 DA79     		ldrb	r2, [r3, #7]	@ zero_extendqisi2
 1155 0082 2046     		mov	r0, r4
 1156 0084 013F     		subs	r7, r7, #1
 1157              	.LVL148:
 294:..\..\..\u8g2\u8g2\csrc/u8x8_byte.c **** 	  
 1158              		.loc 1 294 0
 1159 0086 6D00     		lsls	r5, r5, #1
 1160              	.LVL149:
 299:..\..\..\u8g2\u8g2\csrc/u8x8_byte.c **** 	}    
 1161              		.loc 1 299 0
 1162 0088 FFF7FEFF 		bl	u8x8_gpio_call
 1163              	.LVL150:
 288:..\..\..\u8g2\u8g2\csrc/u8x8_byte.c **** 	{
 1164              		.loc 1 288 0
 1165 008c 17F0FF07 		ands	r7, r7, #255
 294:..\..\..\u8g2\u8g2\csrc/u8x8_byte.c **** 	  
 1166              		.loc 1 294 0
 1167 0090 ADB2     		uxth	r5, r5
 1168              	.LVL151:
 288:..\..\..\u8g2\u8g2\csrc/u8x8_byte.c **** 	{
 1169              		.loc 1 288 0
 1170 0092 DAD1     		bne	.L75
 1171 0094 CDE7     		b	.L71
 1172              	.LVL152:
 1173              	.L65:
 306:..\..\..\u8g2\u8g2\csrc/u8x8_byte.c ****       /* no wait required here */
 1174              		.loc 1 306 0
 1175 0096 5278     		ldrb	r2, [r2, #1]	@ zero_extendqisi2
 1176              	.LVL153:
 1177 0098 4921     		movs	r1, #73
 1178 009a 2046     		mov	r0, r4
 1179 009c FFF7FEFF 		bl	u8x8_gpio_call
 1180              	.LVL154:
 310:..\..\..\u8g2\u8g2\csrc/u8x8_byte.c ****       break;
 1181              		.loc 1 310 0
 1182 00a0 2368     		ldr	r3, [r4]
 1183 00a2 4021     		movs	r1, #64
 1184 00a4 1A7B     		ldrb	r2, [r3, #12]	@ zero_extendqisi2
 1185 00a6 02F00102 		and	r2, r2, #1
 1186              	.L83:
 1187 00aa 2046     		mov	r0, r4
 1188 00ac FFF7FEFF 		bl	u8x8_gpio_call
 1189              	.LVL155:
 1190              	.L82:
 326:..\..\..\u8g2\u8g2\csrc/u8x8_byte.c **** }
 1191              		.loc 1 326 0
 1192 00b0 0120     		movs	r0, #1
 311:..\..\..\u8g2\u8g2\csrc/u8x8_byte.c ****     case U8X8_MSG_BYTE_SET_DC:
 1193              		.loc 1 311 0
 1194 00b2 BDE8F087 		pop	{r4, r5, r6, r7, r8, r9, r10, pc}
 1195              	.LVL156:
 1196              	.L70:
 313:..\..\..\u8g2\u8g2\csrc/u8x8_byte.c ****       break;
 1197              		.loc 1 313 0
ARM GAS  C:\Users\jesse\AppData\Local\Temp\ccdqInxW.s 			page 35


 1198 00b6 0E4B     		ldr	r3, .L84
 1199              	.LVL157:
 1200 00b8 1E70     		strb	r6, [r3]
 1201 00ba F9E7     		b	.L82
 1202              	.LVL158:
 1203              	.L68:
 316:..\..\..\u8g2\u8g2\csrc/u8x8_byte.c ****       u8x8->gpio_and_delay_cb(u8x8, U8X8_MSG_DELAY_NANO, u8x8->display_info->post_chip_enable_wait_
 1204              		.loc 1 316 0
 1205 00bc 2046     		mov	r0, r4
 1206 00be 1278     		ldrb	r2, [r2]	@ zero_extendqisi2
 1207              	.LVL159:
 1208 00c0 4921     		movs	r1, #73
 1209 00c2 FFF7FEFF 		bl	u8x8_gpio_call
 1210              	.LVL160:
 317:..\..\..\u8g2\u8g2\csrc/u8x8_byte.c ****       break;
 1211              		.loc 1 317 0
 1212 00c6 2268     		ldr	r2, [r4]
 1213 00c8 6569     		ldr	r5, [r4, #20]
 1214 00ca 0023     		movs	r3, #0
 1215 00cc 9278     		ldrb	r2, [r2, #2]	@ zero_extendqisi2
 1216 00ce 2C21     		movs	r1, #44
 1217 00d0 2046     		mov	r0, r4
 1218 00d2 A847     		blx	r5
 1219              	.LVL161:
 1220 00d4 ECE7     		b	.L82
 1221              	.LVL162:
 1222              	.L69:
 320:..\..\..\u8g2\u8g2\csrc/u8x8_byte.c ****       u8x8_gpio_SetCS(u8x8, u8x8->display_info->chip_disable_level);
 1223              		.loc 1 320 0
 1224 00d6 0023     		movs	r3, #0
 1225              	.LVL163:
 1226 00d8 D278     		ldrb	r2, [r2, #3]	@ zero_extendqisi2
 1227              	.LVL164:
 1228 00da 2C21     		movs	r1, #44
 1229 00dc 6569     		ldr	r5, [r4, #20]
 1230 00de 2046     		mov	r0, r4
 1231 00e0 A847     		blx	r5
 1232              	.LVL165:
 321:..\..\..\u8g2\u8g2\csrc/u8x8_byte.c ****       break;
 1233              		.loc 1 321 0
 1234 00e2 2368     		ldr	r3, [r4]
 1235 00e4 4921     		movs	r1, #73
 1236 00e6 5A78     		ldrb	r2, [r3, #1]	@ zero_extendqisi2
 1237 00e8 DFE7     		b	.L83
 1238              	.LVL166:
 1239              	.L77:
 324:..\..\..\u8g2\u8g2\csrc/u8x8_byte.c ****   }
 1240              		.loc 1 324 0
 1241 00ea 0020     		movs	r0, #0
 327:..\..\..\u8g2\u8g2\csrc/u8x8_byte.c **** 
 1242              		.loc 1 327 0
 1243 00ec BDE8F087 		pop	{r4, r5, r6, r7, r8, r9, r10, pc}
 1244              	.LVL167:
 1245              	.L85:
 1246              		.align	2
 1247              	.L84:
 1248 00f0 00000000 		.word	.LANCHOR0
ARM GAS  C:\Users\jesse\AppData\Local\Temp\ccdqInxW.s 			page 36


 1249              		.cfi_endproc
 1250              	.LFE9:
 1251              		.size	u8x8_byte_3wire_sw_spi, .-u8x8_byte_3wire_sw_spi
 1252              		.section	.text.u8x8_byte_set_ks0108_cs,"ax",%progbits
 1253              		.align	1
 1254              		.global	u8x8_byte_set_ks0108_cs
 1255              		.thumb
 1256              		.thumb_func
 1257              		.type	u8x8_byte_set_ks0108_cs, %function
 1258              	u8x8_byte_set_ks0108_cs:
 1259              	.LFB10:
 332:..\..\..\u8g2\u8g2\csrc/u8x8_byte.c ****   u8x8_gpio_SetCS(u8x8, arg&1);
 1260              		.loc 1 332 0
 1261              		.cfi_startproc
 1262              		@ args = 0, pretend = 0, frame = 0
 1263              		@ frame_needed = 0, uses_anonymous_args = 0
 1264              	.LVL168:
 1265 0000 38B5     		push	{r3, r4, r5, lr}
 1266              		.cfi_def_cfa_offset 16
 1267              		.cfi_offset 3, -16
 1268              		.cfi_offset 4, -12
 1269              		.cfi_offset 5, -8
 1270              		.cfi_offset 14, -4
 332:..\..\..\u8g2\u8g2\csrc/u8x8_byte.c ****   u8x8_gpio_SetCS(u8x8, arg&1);
 1271              		.loc 1 332 0
 1272 0002 0C46     		mov	r4, r1
 1273 0004 0546     		mov	r5, r0
 333:..\..\..\u8g2\u8g2\csrc/u8x8_byte.c ****   arg = arg >> 1;
 1274              		.loc 1 333 0
 1275 0006 01F00102 		and	r2, r1, #1
 334:..\..\..\u8g2\u8g2\csrc/u8x8_byte.c ****   u8x8_gpio_call(u8x8, U8X8_MSG_GPIO_CS1, arg&1);
 1276              		.loc 1 334 0
 1277 000a 6408     		lsrs	r4, r4, #1
 333:..\..\..\u8g2\u8g2\csrc/u8x8_byte.c ****   arg = arg >> 1;
 1278              		.loc 1 333 0
 1279 000c 4921     		movs	r1, #73
 1280              	.LVL169:
 1281 000e FFF7FEFF 		bl	u8x8_gpio_call
 1282              	.LVL170:
 335:..\..\..\u8g2\u8g2\csrc/u8x8_byte.c ****   arg = arg >> 1;
 1283              		.loc 1 335 0
 1284 0012 04F00102 		and	r2, r4, #1
 1285 0016 2846     		mov	r0, r5
 1286 0018 4E21     		movs	r1, #78
 1287 001a FFF7FEFF 		bl	u8x8_gpio_call
 1288              	.LVL171:
 337:..\..\..\u8g2\u8g2\csrc/u8x8_byte.c **** }
 1289              		.loc 1 337 0
 1290 001e C4F34002 		ubfx	r2, r4, #1, #1
 1291 0022 2846     		mov	r0, r5
 338:..\..\..\u8g2\u8g2\csrc/u8x8_byte.c **** 
 1292              		.loc 1 338 0
 1293 0024 BDE83840 		pop	{r3, r4, r5, lr}
 1294              		.cfi_restore 14
 1295              		.cfi_restore 5
 1296              		.cfi_restore 4
 1297              		.cfi_restore 3
ARM GAS  C:\Users\jesse\AppData\Local\Temp\ccdqInxW.s 			page 37


 1298              		.cfi_def_cfa_offset 0
 1299              	.LVL172:
 337:..\..\..\u8g2\u8g2\csrc/u8x8_byte.c **** }
 1300              		.loc 1 337 0
 1301 0028 4F21     		movs	r1, #79
 1302 002a FFF7FEBF 		b	u8x8_gpio_call
 1303              	.LVL173:
 1304              		.cfi_endproc
 1305              	.LFE10:
 1306              		.size	u8x8_byte_set_ks0108_cs, .-u8x8_byte_set_ks0108_cs
 1307              		.section	.text.u8x8_byte_ks0108,"ax",%progbits
 1308              		.align	1
 1309              		.global	u8x8_byte_ks0108
 1310              		.thumb
 1311              		.thumb_func
 1312              		.type	u8x8_byte_ks0108, %function
 1313              	u8x8_byte_ks0108:
 1314              	.LFB11:
 342:..\..\..\u8g2\u8g2\csrc/u8x8_byte.c ****   uint8_t i, b;
 1315              		.loc 1 342 0
 1316              		.cfi_startproc
 1317              		@ args = 0, pretend = 0, frame = 0
 1318              		@ frame_needed = 0, uses_anonymous_args = 0
 1319              	.LVL174:
 346:..\..\..\u8g2\u8g2\csrc/u8x8_byte.c ****   {
 1320              		.loc 1 346 0
 1321 0000 1439     		subs	r1, r1, #20
 1322              	.LVL175:
 342:..\..\..\u8g2\u8g2\csrc/u8x8_byte.c ****   uint8_t i, b;
 1323              		.loc 1 342 0
 1324 0002 2DE9F041 		push	{r4, r5, r6, r7, r8, lr}
 1325              		.cfi_def_cfa_offset 24
 1326              		.cfi_offset 4, -24
 1327              		.cfi_offset 5, -20
 1328              		.cfi_offset 6, -16
 1329              		.cfi_offset 7, -12
 1330              		.cfi_offset 8, -8
 1331              		.cfi_offset 14, -4
 342:..\..\..\u8g2\u8g2\csrc/u8x8_byte.c ****   uint8_t i, b;
 1332              		.loc 1 342 0
 1333 0006 0446     		mov	r4, r0
 1334 0008 1546     		mov	r5, r2
 1335 000a 9846     		mov	r8, r3
 346:..\..\..\u8g2\u8g2\csrc/u8x8_byte.c ****   {
 1336              		.loc 1 346 0
 1337 000c 0C29     		cmp	r1, #12
 1338 000e 56D8     		bhi	.L98
 1339 0010 DFE801F0 		tbb	[pc, r1]
 1340              	.LVL176:
 1341              	.L90:
 1342 0014 30       		.byte	(.L89-.L90)/2
 1343 0015 55       		.byte	(.L98-.L90)/2
 1344 0016 55       		.byte	(.L98-.L90)/2
 1345 0017 29       		.byte	(.L95-.L90)/2
 1346 0018 3F       		.byte	(.L92-.L90)/2
 1347 0019 4A       		.byte	(.L93-.L90)/2
 1348 001a 55       		.byte	(.L98-.L90)/2
ARM GAS  C:\Users\jesse\AppData\Local\Temp\ccdqInxW.s 			page 38


 1349 001b 55       		.byte	(.L98-.L90)/2
 1350 001c 55       		.byte	(.L98-.L90)/2
 1351 001d 55       		.byte	(.L98-.L90)/2
 1352 001e 55       		.byte	(.L98-.L90)/2
 1353 001f 55       		.byte	(.L98-.L90)/2
 1354 0020 3D       		.byte	(.L94-.L90)/2
 1355 0021 00       		.p2align 1
 1356              	.L96:
 357:..\..\..\u8g2\u8g2\csrc/u8x8_byte.c **** 	  b >>= 1;
 1357              		.loc 1 357 0 discriminator 3
 1358 0022 3146     		mov	r1, r6
 355:..\..\..\u8g2\u8g2\csrc/u8x8_byte.c **** 	{
 1359              		.loc 1 355 0 discriminator 3
 1360 0024 0136     		adds	r6, r6, #1
 1361              	.LVL177:
 357:..\..\..\u8g2\u8g2\csrc/u8x8_byte.c **** 	  b >>= 1;
 1362              		.loc 1 357 0 discriminator 3
 1363 0026 07F00102 		and	r2, r7, #1
 1364 002a 2046     		mov	r0, r4
 355:..\..\..\u8g2\u8g2\csrc/u8x8_byte.c **** 	{
 1365              		.loc 1 355 0 discriminator 3
 1366 002c F6B2     		uxtb	r6, r6
 357:..\..\..\u8g2\u8g2\csrc/u8x8_byte.c **** 	  b >>= 1;
 1367              		.loc 1 357 0 discriminator 3
 1368 002e FFF7FEFF 		bl	u8x8_gpio_call
 1369              	.LVL178:
 355:..\..\..\u8g2\u8g2\csrc/u8x8_byte.c **** 	{
 1370              		.loc 1 355 0 discriminator 3
 1371 0032 482E     		cmp	r6, #72
 358:..\..\..\u8g2\u8g2\csrc/u8x8_byte.c **** 	}    
 1372              		.loc 1 358 0 discriminator 3
 1373 0034 4FEA5707 		lsr	r7, r7, #1
 1374              	.LVL179:
 355:..\..\..\u8g2\u8g2\csrc/u8x8_byte.c **** 	{
 1375              		.loc 1 355 0 discriminator 3
 1376 0038 F3D1     		bne	.L96
 361:..\..\..\u8g2\u8g2\csrc/u8x8_byte.c **** 	u8x8_gpio_call(u8x8, U8X8_MSG_GPIO_E, 1);
 1377              		.loc 1 361 0
 1378 003a 2368     		ldr	r3, [r4]
 1379 003c 2C21     		movs	r1, #44
 1380 003e 9A7B     		ldrb	r2, [r3, #14]	@ zero_extendqisi2
 1381 0040 2046     		mov	r0, r4
 1382 0042 FFF7FEFF 		bl	u8x8_gpio_call
 1383              	.LVL180:
 362:..\..\..\u8g2\u8g2\csrc/u8x8_byte.c **** 	u8x8_gpio_Delay(u8x8, U8X8_MSG_DELAY_NANO, u8x8->display_info->write_pulse_width_ns);
 1384              		.loc 1 362 0
 1385 0046 0122     		movs	r2, #1
 1386 0048 3146     		mov	r1, r6
 1387 004a 2046     		mov	r0, r4
 1388 004c FFF7FEFF 		bl	u8x8_gpio_call
 1389              	.LVL181:
 363:..\..\..\u8g2\u8g2\csrc/u8x8_byte.c **** 	u8x8_gpio_call(u8x8, U8X8_MSG_GPIO_E, 0);
 1390              		.loc 1 363 0
 1391 0050 2368     		ldr	r3, [r4]
 1392 0052 2C21     		movs	r1, #44
 1393 0054 DA7B     		ldrb	r2, [r3, #15]	@ zero_extendqisi2
 1394 0056 2046     		mov	r0, r4
ARM GAS  C:\Users\jesse\AppData\Local\Temp\ccdqInxW.s 			page 39


 1395 0058 FFF7FEFF 		bl	u8x8_gpio_call
 1396              	.LVL182:
 364:..\..\..\u8g2\u8g2\csrc/u8x8_byte.c ****       }
 1397              		.loc 1 364 0
 1398 005c 0022     		movs	r2, #0
 1399 005e 3146     		mov	r1, r6
 1400 0060 2046     		mov	r0, r4
 1401 0062 FFF7FEFF 		bl	u8x8_gpio_call
 1402              	.LVL183:
 1403              	.L95:
 350:..\..\..\u8g2\u8g2\csrc/u8x8_byte.c ****       {
 1404              		.loc 1 350 0
 1405 0066 7DB1     		cbz	r5, .L100
 354:..\..\..\u8g2\u8g2\csrc/u8x8_byte.c **** 	for( i = U8X8_MSG_GPIO_D0; i <= U8X8_MSG_GPIO_D7; i++ )
 1406              		.loc 1 354 0
 1407 0068 013D     		subs	r5, r5, #1
 1408              	.LVL184:
 352:..\..\..\u8g2\u8g2\csrc/u8x8_byte.c **** 	data++;
 1409              		.loc 1 352 0
 1410 006a 18F8017B 		ldrb	r7, [r8], #1	@ zero_extendqisi2
 1411              	.LVL185:
 354:..\..\..\u8g2\u8g2\csrc/u8x8_byte.c **** 	for( i = U8X8_MSG_GPIO_D0; i <= U8X8_MSG_GPIO_D7; i++ )
 1412              		.loc 1 354 0
 1413 006e EDB2     		uxtb	r5, r5
 1414              	.LVL186:
 355:..\..\..\u8g2\u8g2\csrc/u8x8_byte.c **** 	{
 1415              		.loc 1 355 0
 1416 0070 4026     		movs	r6, #64
 1417 0072 D6E7     		b	.L96
 1418              	.LVL187:
 1419              	.L89:
 370:..\..\..\u8g2\u8g2\csrc/u8x8_byte.c ****       /* ensure that the enable signal is low */
 1420              		.loc 1 370 0
 1421 0074 0368     		ldr	r3, [r0]
 1422 0076 4921     		movs	r1, #73
 1423 0078 5A78     		ldrb	r2, [r3, #1]	@ zero_extendqisi2
 1424              	.LVL188:
 1425 007a FFF7FEFF 		bl	u8x8_gpio_call
 1426              	.LVL189:
 372:..\..\..\u8g2\u8g2\csrc/u8x8_byte.c ****       break;
 1427              		.loc 1 372 0
 1428 007e 0022     		movs	r2, #0
 1429 0080 4821     		movs	r1, #72
 1430              	.L101:
 1431 0082 2046     		mov	r0, r4
 1432 0084 FFF7FEFF 		bl	u8x8_gpio_call
 1433              	.LVL190:
 1434              	.L100:
 389:..\..\..\u8g2\u8g2\csrc/u8x8_byte.c **** }
 1435              		.loc 1 389 0
 1436 0088 0120     		movs	r0, #1
 373:..\..\..\u8g2\u8g2\csrc/u8x8_byte.c ****     case U8X8_MSG_BYTE_SET_DC:
 1437              		.loc 1 373 0
 1438 008a BDE8F081 		pop	{r4, r5, r6, r7, r8, pc}
 1439              	.LVL191:
 1440              	.L94:
 375:..\..\..\u8g2\u8g2\csrc/u8x8_byte.c ****       break;
ARM GAS  C:\Users\jesse\AppData\Local\Temp\ccdqInxW.s 			page 40


 1441              		.loc 1 375 0
 1442 008e 4A21     		movs	r1, #74
 1443 0090 F7E7     		b	.L101
 1444              	.L92:
 379:..\..\..\u8g2\u8g2\csrc/u8x8_byte.c ****       u8x8->gpio_and_delay_cb(u8x8, U8X8_MSG_DELAY_NANO, u8x8->display_info->post_chip_enable_wait_
 1445              		.loc 1 379 0
 1446 0092 1146     		mov	r1, r2
 1447 0094 FFF7FEFF 		bl	u8x8_byte_set_ks0108_cs
 1448              	.LVL192:
 380:..\..\..\u8g2\u8g2\csrc/u8x8_byte.c ****       break;
 1449              		.loc 1 380 0
 1450 0098 2268     		ldr	r2, [r4]
 1451 009a 6569     		ldr	r5, [r4, #20]
 1452 009c 0023     		movs	r3, #0
 1453 009e 9278     		ldrb	r2, [r2, #2]	@ zero_extendqisi2
 1454 00a0 2C21     		movs	r1, #44
 1455 00a2 2046     		mov	r0, r4
 1456 00a4 A847     		blx	r5
 1457              	.LVL193:
 1458 00a6 EFE7     		b	.L100
 1459              	.LVL194:
 1460              	.L93:
 383:..\..\..\u8g2\u8g2\csrc/u8x8_byte.c ****       u8x8_byte_set_ks0108_cs(u8x8, arg_int);
 1461              		.loc 1 383 0
 1462 00a8 0268     		ldr	r2, [r0]
 1463              	.LVL195:
 1464 00aa 4669     		ldr	r6, [r0, #20]
 1465 00ac 0023     		movs	r3, #0
 1466 00ae D278     		ldrb	r2, [r2, #3]	@ zero_extendqisi2
 1467 00b0 2C21     		movs	r1, #44
 1468 00b2 B047     		blx	r6
 1469              	.LVL196:
 384:..\..\..\u8g2\u8g2\csrc/u8x8_byte.c ****       break;
 1470              		.loc 1 384 0
 1471 00b4 2946     		mov	r1, r5
 1472 00b6 2046     		mov	r0, r4
 1473 00b8 FFF7FEFF 		bl	u8x8_byte_set_ks0108_cs
 1474              	.LVL197:
 1475 00bc E4E7     		b	.L100
 1476              	.LVL198:
 1477              	.L98:
 387:..\..\..\u8g2\u8g2\csrc/u8x8_byte.c ****   }
 1478              		.loc 1 387 0
 1479 00be 0020     		movs	r0, #0
 1480              	.LVL199:
 390:..\..\..\u8g2\u8g2\csrc/u8x8_byte.c **** 
 1481              		.loc 1 390 0
 1482 00c0 BDE8F081 		pop	{r4, r5, r6, r7, r8, pc}
 1483              		.cfi_endproc
 1484              	.LFE11:
 1485              		.size	u8x8_byte_ks0108, .-u8x8_byte_ks0108
 1486              		.section	.text.u8x8_byte_sed1520,"ax",%progbits
 1487              		.align	1
 1488              		.global	u8x8_byte_sed1520
 1489              		.thumb
 1490              		.thumb_func
 1491              		.type	u8x8_byte_sed1520, %function
ARM GAS  C:\Users\jesse\AppData\Local\Temp\ccdqInxW.s 			page 41


 1492              	u8x8_byte_sed1520:
 1493              	.LFB12:
 398:..\..\..\u8g2\u8g2\csrc/u8x8_byte.c ****   uint8_t i, b;
 1494              		.loc 1 398 0
 1495              		.cfi_startproc
 1496              		@ args = 0, pretend = 0, frame = 0
 1497              		@ frame_needed = 0, uses_anonymous_args = 0
 1498              	.LVL200:
 403:..\..\..\u8g2\u8g2\csrc/u8x8_byte.c ****   {
 1499              		.loc 1 403 0
 1500 0000 1439     		subs	r1, r1, #20
 1501              	.LVL201:
 398:..\..\..\u8g2\u8g2\csrc/u8x8_byte.c ****   uint8_t i, b;
 1502              		.loc 1 398 0
 1503 0002 2DE9F843 		push	{r3, r4, r5, r6, r7, r8, r9, lr}
 1504              		.cfi_def_cfa_offset 32
 1505              		.cfi_offset 3, -32
 1506              		.cfi_offset 4, -28
 1507              		.cfi_offset 5, -24
 1508              		.cfi_offset 6, -20
 1509              		.cfi_offset 7, -16
 1510              		.cfi_offset 8, -12
 1511              		.cfi_offset 9, -8
 1512              		.cfi_offset 14, -4
 398:..\..\..\u8g2\u8g2\csrc/u8x8_byte.c ****   uint8_t i, b;
 1513              		.loc 1 398 0
 1514 0006 0446     		mov	r4, r0
 1515 0008 1546     		mov	r5, r2
 1516 000a 9846     		mov	r8, r3
 403:..\..\..\u8g2\u8g2\csrc/u8x8_byte.c ****   {
 1517              		.loc 1 403 0
 1518 000c 0C29     		cmp	r1, #12
 1519 000e 5AD8     		bhi	.L115
 1520 0010 DFE801F0 		tbb	[pc, r1]
 1521              	.LVL202:
 1522              	.L105:
 1523 0014 3A       		.byte	(.L104-.L105)/2
 1524 0015 59       		.byte	(.L115-.L105)/2
 1525 0016 59       		.byte	(.L115-.L105)/2
 1526 0017 07       		.byte	(.L106-.L105)/2
 1527 0018 53       		.byte	(.L107-.L105)/2
 1528 0019 4C       		.byte	(.L117-.L105)/2
 1529 001a 59       		.byte	(.L115-.L105)/2
 1530 001b 59       		.byte	(.L115-.L105)/2
 1531 001c 59       		.byte	(.L115-.L105)/2
 1532 001d 59       		.byte	(.L115-.L105)/2
 1533 001e 59       		.byte	(.L115-.L105)/2
 1534 001f 59       		.byte	(.L115-.L105)/2
 1535 0020 4F       		.byte	(.L109-.L105)/2
 1536 0021 00       		.p2align 1
 1537              	.L106:
 419:..\..\..\u8g2\u8g2\csrc/u8x8_byte.c **** 	u8x8_gpio_Delay(u8x8, U8X8_MSG_DELAY_NANO, 200);		/* KS0108 requires 450 ns, use 200 here */
 1538              		.loc 1 419 0
 1539 0022 DFF8A890 		ldr	r9, .L119
 1540              	.LVL203:
 1541              	.L110:
 407:..\..\..\u8g2\u8g2\csrc/u8x8_byte.c ****       {
ARM GAS  C:\Users\jesse\AppData\Local\Temp\ccdqInxW.s 			page 42


 1542              		.loc 1 407 0
 1543 0026 002D     		cmp	r5, #0
 1544 0028 40D0     		beq	.L117
 411:..\..\..\u8g2\u8g2\csrc/u8x8_byte.c **** 	for( i = U8X8_MSG_GPIO_D0; i <= U8X8_MSG_GPIO_D7; i++ )
 1545              		.loc 1 411 0
 1546 002a 013D     		subs	r5, r5, #1
 1547              	.LVL204:
 409:..\..\..\u8g2\u8g2\csrc/u8x8_byte.c **** 	data++;
 1548              		.loc 1 409 0
 1549 002c 18F8017B 		ldrb	r7, [r8], #1	@ zero_extendqisi2
 1550              	.LVL205:
 411:..\..\..\u8g2\u8g2\csrc/u8x8_byte.c **** 	for( i = U8X8_MSG_GPIO_D0; i <= U8X8_MSG_GPIO_D7; i++ )
 1551              		.loc 1 411 0
 1552 0030 EDB2     		uxtb	r5, r5
 1553              	.LVL206:
 412:..\..\..\u8g2\u8g2\csrc/u8x8_byte.c **** 	{
 1554              		.loc 1 412 0
 1555 0032 4026     		movs	r6, #64
 1556              	.LVL207:
 1557              	.L111:
 414:..\..\..\u8g2\u8g2\csrc/u8x8_byte.c **** 	  b >>= 1;
 1558              		.loc 1 414 0 discriminator 3
 1559 0034 3146     		mov	r1, r6
 412:..\..\..\u8g2\u8g2\csrc/u8x8_byte.c **** 	{
 1560              		.loc 1 412 0 discriminator 3
 1561 0036 0136     		adds	r6, r6, #1
 1562              	.LVL208:
 414:..\..\..\u8g2\u8g2\csrc/u8x8_byte.c **** 	  b >>= 1;
 1563              		.loc 1 414 0 discriminator 3
 1564 0038 07F00102 		and	r2, r7, #1
 1565 003c 2046     		mov	r0, r4
 412:..\..\..\u8g2\u8g2\csrc/u8x8_byte.c **** 	{
 1566              		.loc 1 412 0 discriminator 3
 1567 003e F6B2     		uxtb	r6, r6
 414:..\..\..\u8g2\u8g2\csrc/u8x8_byte.c **** 	  b >>= 1;
 1568              		.loc 1 414 0 discriminator 3
 1569 0040 FFF7FEFF 		bl	u8x8_gpio_call
 1570              	.LVL209:
 412:..\..\..\u8g2\u8g2\csrc/u8x8_byte.c **** 	{
 1571              		.loc 1 412 0 discriminator 3
 1572 0044 482E     		cmp	r6, #72
 415:..\..\..\u8g2\u8g2\csrc/u8x8_byte.c **** 	}    
 1573              		.loc 1 415 0 discriminator 3
 1574 0046 4FEA5707 		lsr	r7, r7, #1
 1575              	.LVL210:
 412:..\..\..\u8g2\u8g2\csrc/u8x8_byte.c **** 	{
 1576              		.loc 1 412 0 discriminator 3
 1577 004a F3D1     		bne	.L111
 418:..\..\..\u8g2\u8g2\csrc/u8x8_byte.c **** 	u8x8_gpio_call(u8x8, enable_pin, 1);
 1578              		.loc 1 418 0
 1579 004c 2368     		ldr	r3, [r4]
 1580 004e 2046     		mov	r0, r4
 1581 0050 9A7B     		ldrb	r2, [r3, #14]	@ zero_extendqisi2
 1582 0052 2C21     		movs	r1, #44
 1583 0054 FFF7FEFF 		bl	u8x8_gpio_call
 1584              	.LVL211:
 419:..\..\..\u8g2\u8g2\csrc/u8x8_byte.c **** 	u8x8_gpio_Delay(u8x8, U8X8_MSG_DELAY_NANO, 200);		/* KS0108 requires 450 ns, use 200 here */
ARM GAS  C:\Users\jesse\AppData\Local\Temp\ccdqInxW.s 			page 43


 1585              		.loc 1 419 0
 1586 0058 99F80110 		ldrb	r1, [r9, #1]	@ zero_extendqisi2
 1587 005c 2046     		mov	r0, r4
 1588 005e 0122     		movs	r2, #1
 1589 0060 FFF7FEFF 		bl	u8x8_gpio_call
 1590              	.LVL212:
 420:..\..\..\u8g2\u8g2\csrc/u8x8_byte.c **** 	u8x8_gpio_Delay(u8x8, U8X8_MSG_DELAY_NANO, u8x8->display_info->write_pulse_width_ns);  /* expect 2
 1591              		.loc 1 420 0
 1592 0064 2046     		mov	r0, r4
 1593 0066 C822     		movs	r2, #200
 1594 0068 2C21     		movs	r1, #44
 1595 006a FFF7FEFF 		bl	u8x8_gpio_call
 1596              	.LVL213:
 421:..\..\..\u8g2\u8g2\csrc/u8x8_byte.c **** 	u8x8_gpio_call(u8x8, enable_pin, 0);
 1597              		.loc 1 421 0
 1598 006e 2368     		ldr	r3, [r4]
 1599 0070 2046     		mov	r0, r4
 1600 0072 DA7B     		ldrb	r2, [r3, #15]	@ zero_extendqisi2
 1601 0074 2C21     		movs	r1, #44
 1602 0076 FFF7FEFF 		bl	u8x8_gpio_call
 1603              	.LVL214:
 422:..\..\..\u8g2\u8g2\csrc/u8x8_byte.c ****       }
 1604              		.loc 1 422 0
 1605 007a 0022     		movs	r2, #0
 1606 007c 99F80110 		ldrb	r1, [r9, #1]	@ zero_extendqisi2
 1607 0080 2046     		mov	r0, r4
 1608 0082 FFF7FEFF 		bl	u8x8_gpio_call
 1609              	.LVL215:
 1610 0086 CEE7     		b	.L110
 1611              	.LVL216:
 1612              	.L104:
 428:..\..\..\u8g2\u8g2\csrc/u8x8_byte.c ****       /* ensure that the enable signals are low */
 1613              		.loc 1 428 0
 1614 0088 0368     		ldr	r3, [r0]
 1615 008a 4921     		movs	r1, #73
 1616 008c 5A78     		ldrb	r2, [r3, #1]	@ zero_extendqisi2
 1617              	.LVL217:
 1618 008e FFF7FEFF 		bl	u8x8_gpio_call
 1619              	.LVL218:
 430:..\..\..\u8g2\u8g2\csrc/u8x8_byte.c ****       u8x8_gpio_call(u8x8, U8X8_MSG_GPIO_CS, 0);
 1620              		.loc 1 430 0
 1621 0092 0022     		movs	r2, #0
 1622 0094 4821     		movs	r1, #72
 1623 0096 2046     		mov	r0, r4
 1624 0098 FFF7FEFF 		bl	u8x8_gpio_call
 1625              	.LVL219:
 431:..\..\..\u8g2\u8g2\csrc/u8x8_byte.c ****       enable_pin = U8X8_MSG_GPIO_E;
 1626              		.loc 1 431 0
 1627 009c 0022     		movs	r2, #0
 1628 009e 4921     		movs	r1, #73
 1629 00a0 2046     		mov	r0, r4
 1630 00a2 FFF7FEFF 		bl	u8x8_gpio_call
 1631              	.LVL220:
 432:..\..\..\u8g2\u8g2\csrc/u8x8_byte.c ****       break;
 1632              		.loc 1 432 0
 1633 00a6 094B     		ldr	r3, .L119
 1634 00a8 4822     		movs	r2, #72
ARM GAS  C:\Users\jesse\AppData\Local\Temp\ccdqInxW.s 			page 44


 1635              	.L118:
 1636 00aa 5A70     		strb	r2, [r3, #1]
 1637              	.LVL221:
 1638              	.L117:
 449:..\..\..\u8g2\u8g2\csrc/u8x8_byte.c **** }
 1639              		.loc 1 449 0
 1640 00ac 0120     		movs	r0, #1
 433:..\..\..\u8g2\u8g2\csrc/u8x8_byte.c ****     case U8X8_MSG_BYTE_SET_DC:
 1641              		.loc 1 433 0
 1642 00ae BDE8F883 		pop	{r3, r4, r5, r6, r7, r8, r9, pc}
 1643              	.LVL222:
 1644              	.L109:
 435:..\..\..\u8g2\u8g2\csrc/u8x8_byte.c ****       break;
 1645              		.loc 1 435 0
 1646 00b2 4A21     		movs	r1, #74
 1647 00b4 FFF7FEFF 		bl	u8x8_gpio_call
 1648              	.LVL223:
 1649 00b8 F8E7     		b	.L117
 1650              	.LVL224:
 1651              	.L107:
 1652 00ba 044B     		ldr	r3, .L119
 441:..\..\..\u8g2\u8g2\csrc/u8x8_byte.c **** 	enable_pin = U8X8_MSG_GPIO_CS;
 1653              		.loc 1 441 0
 1654 00bc 0AB9     		cbnz	r2, .L113
 440:..\..\..\u8g2\u8g2\csrc/u8x8_byte.c ****       if ( arg_int != 0 )
 1655              		.loc 1 440 0
 1656 00be 4822     		movs	r2, #72
 1657              	.LVL225:
 1658 00c0 F3E7     		b	.L118
 1659              	.LVL226:
 1660              	.L113:
 442:..\..\..\u8g2\u8g2\csrc/u8x8_byte.c ****       break;
 1661              		.loc 1 442 0
 1662 00c2 4922     		movs	r2, #73
 1663              	.LVL227:
 1664 00c4 F1E7     		b	.L118
 1665              	.LVL228:
 1666              	.L115:
 447:..\..\..\u8g2\u8g2\csrc/u8x8_byte.c ****   }
 1667              		.loc 1 447 0
 1668 00c6 0020     		movs	r0, #0
 1669              	.LVL229:
 450:..\..\..\u8g2\u8g2\csrc/u8x8_byte.c **** 
 1670              		.loc 1 450 0
 1671 00c8 BDE8F883 		pop	{r3, r4, r5, r6, r7, r8, r9, pc}
 1672              	.LVL230:
 1673              	.L120:
 1674              		.align	2
 1675              	.L119:
 1676 00cc 00000000 		.word	.LANCHOR0
 1677              		.cfi_endproc
 1678              	.LFE12:
 1679              		.size	u8x8_byte_sed1520, .-u8x8_byte_sed1520
 1680              		.section	.text.u8x8_byte_sw_i2c,"ax",%progbits
 1681              		.align	1
 1682              		.global	u8x8_byte_sw_i2c
 1683              		.thumb
ARM GAS  C:\Users\jesse\AppData\Local\Temp\ccdqInxW.s 			page 45


 1684              		.thumb_func
 1685              		.type	u8x8_byte_sw_i2c, %function
 1686              	u8x8_byte_sw_i2c:
 1687              	.LFB24:
 576:..\..\..\u8g2\u8g2\csrc/u8x8_byte.c **** 
 577:..\..\..\u8g2\u8g2\csrc/u8x8_byte.c **** uint8_t u8x8_byte_sw_i2c(u8x8_t *u8x8, uint8_t msg, uint8_t arg_int, void *arg_ptr)
 578:..\..\..\u8g2\u8g2\csrc/u8x8_byte.c **** {
 1688              		.loc 1 578 0
 1689              		.cfi_startproc
 1690              		@ args = 0, pretend = 0, frame = 0
 1691              		@ frame_needed = 0, uses_anonymous_args = 0
 1692              	.LVL231:
 579:..\..\..\u8g2\u8g2\csrc/u8x8_byte.c ****   uint8_t *data;
 580:..\..\..\u8g2\u8g2\csrc/u8x8_byte.c **** 
 581:..\..\..\u8g2\u8g2\csrc/u8x8_byte.c ****   switch(msg)
 1693              		.loc 1 581 0
 1694 0000 1439     		subs	r1, r1, #20
 1695              	.LVL232:
 578:..\..\..\u8g2\u8g2\csrc/u8x8_byte.c ****   uint8_t *data;
 1696              		.loc 1 578 0
 1697 0002 70B5     		push	{r4, r5, r6, lr}
 1698              		.cfi_def_cfa_offset 16
 1699              		.cfi_offset 4, -16
 1700              		.cfi_offset 5, -12
 1701              		.cfi_offset 6, -8
 1702              		.cfi_offset 14, -4
 578:..\..\..\u8g2\u8g2\csrc/u8x8_byte.c ****   uint8_t *data;
 1703              		.loc 1 578 0
 1704 0004 0446     		mov	r4, r0
 1705 0006 1546     		mov	r5, r2
 1706 0008 1E46     		mov	r6, r3
 1707              		.loc 1 581 0
 1708 000a 0C29     		cmp	r1, #12
 1709 000c 58D8     		bhi	.L132
 1710 000e DFE801F0 		tbb	[pc, r1]
 1711              	.LVL233:
 1712              	.L124:
 1713 0012 11       		.byte	(.L123-.L124)/2
 1714 0013 57       		.byte	(.L132-.L124)/2
 1715 0014 57       		.byte	(.L132-.L124)/2
 1716 0015 07       		.byte	(.L129-.L124)/2
 1717 0016 1E       		.byte	(.L126-.L124)/2
 1718 0017 42       		.byte	(.L127-.L124)/2
 1719 0018 57       		.byte	(.L132-.L124)/2
 1720 0019 57       		.byte	(.L132-.L124)/2
 1721 001a 57       		.byte	(.L132-.L124)/2
 1722 001b 57       		.byte	(.L132-.L124)/2
 1723 001c 57       		.byte	(.L132-.L124)/2
 1724 001d 57       		.byte	(.L132-.L124)/2
 1725 001e 55       		.byte	(.L137-.L124)/2
 1726 001f 00       		.p2align 1
 1727              	.L129:
 582:..\..\..\u8g2\u8g2\csrc/u8x8_byte.c ****   {
 583:..\..\..\u8g2\u8g2\csrc/u8x8_byte.c ****     case U8X8_MSG_BYTE_SEND:
 584:..\..\..\u8g2\u8g2\csrc/u8x8_byte.c ****       data = (uint8_t *)arg_ptr;
 585:..\..\..\u8g2\u8g2\csrc/u8x8_byte.c ****     
 586:..\..\..\u8g2\u8g2\csrc/u8x8_byte.c ****       while( arg_int > 0 )
ARM GAS  C:\Users\jesse\AppData\Local\Temp\ccdqInxW.s 			page 46


 1728              		.loc 1 586 0
 1729 0020 002D     		cmp	r5, #0
 1730 0022 4BD0     		beq	.L137
 587:..\..\..\u8g2\u8g2\csrc/u8x8_byte.c ****       {
 588:..\..\..\u8g2\u8g2\csrc/u8x8_byte.c **** 	i2c_write_byte(u8x8, *data);
 1731              		.loc 1 588 0
 1732 0024 16F8011B 		ldrb	r1, [r6], #1	@ zero_extendqisi2
 1733              	.LVL234:
 1734 0028 2046     		mov	r0, r4
 589:..\..\..\u8g2\u8g2\csrc/u8x8_byte.c **** 	data++;
 590:..\..\..\u8g2\u8g2\csrc/u8x8_byte.c **** 	arg_int--;
 1735              		.loc 1 590 0
 1736 002a 013D     		subs	r5, r5, #1
 1737              	.LVL235:
 588:..\..\..\u8g2\u8g2\csrc/u8x8_byte.c **** 	data++;
 1738              		.loc 1 588 0
 1739 002c FFF7FEFF 		bl	i2c_write_byte
 1740              	.LVL236:
 1741              		.loc 1 590 0
 1742 0030 EDB2     		uxtb	r5, r5
 1743              	.LVL237:
 1744 0032 F5E7     		b	.L129
 1745              	.LVL238:
 1746              	.L123:
 1747              	.LBB36:
 1748              	.LBB37:
 469:..\..\..\u8g2\u8g2\csrc/u8x8_byte.c ****   u8x8_gpio_SetI2CData(u8x8, 1);
 1749              		.loc 1 469 0
 1750 0034 0122     		movs	r2, #1
 1751              	.LVL239:
 1752 0036 4C21     		movs	r1, #76
 1753 0038 FFF7FEFF 		bl	u8x8_gpio_call
 1754              	.LVL240:
 470:..\..\..\u8g2\u8g2\csrc/u8x8_byte.c ****   
 1755              		.loc 1 470 0
 1756 003c 2046     		mov	r0, r4
 1757 003e 0122     		movs	r2, #1
 1758 0040 4D21     		movs	r1, #77
 1759 0042 FFF7FEFF 		bl	u8x8_gpio_call
 1760              	.LVL241:
 472:..\..\..\u8g2\u8g2\csrc/u8x8_byte.c **** }
 1761              		.loc 1 472 0
 1762 0046 2046     		mov	r0, r4
 1763 0048 FFF7FEFF 		bl	i2c_delay
 1764              	.LVL242:
 1765 004c 36E0     		b	.L137
 1766              	.LVL243:
 1767              	.L126:
 1768              	.LBE37:
 1769              	.LBE36:
 1770              	.LBB38:
 1771              	.LBB39:
 504:..\..\..\u8g2\u8g2\csrc/u8x8_byte.c ****   {
 1772              		.loc 1 504 0
 1773 004e 90F82530 		ldrb	r3, [r0, #37]	@ zero_extendqisi2
 1774 0052 3BB1     		cbz	r3, .L131
 507:..\..\..\u8g2\u8g2\csrc/u8x8_byte.c ****     i2c_delay(u8x8);
ARM GAS  C:\Users\jesse\AppData\Local\Temp\ccdqInxW.s 			page 47


 1775              		.loc 1 507 0
 1776 0054 FFF7FEFF 		bl	i2c_read_sda
 1777              	.LVL244:
 508:..\..\..\u8g2\u8g2\csrc/u8x8_byte.c ****     i2c_read_scl_and_delay(u8x8);
 1778              		.loc 1 508 0
 1779 0058 2046     		mov	r0, r4
 1780 005a FFF7FEFF 		bl	i2c_delay
 1781              	.LVL245:
 509:..\..\..\u8g2\u8g2\csrc/u8x8_byte.c ****   }
 1782              		.loc 1 509 0
 1783 005e 2046     		mov	r0, r4
 1784 0060 FFF7FEFF 		bl	i2c_read_scl_and_delay
 1785              	.LVL246:
 1786              	.L131:
 511:..\..\..\u8g2\u8g2\csrc/u8x8_byte.c ****   /* send the start condition, both lines go from 1 to 0 */
 1787              		.loc 1 511 0
 1788 0064 2046     		mov	r0, r4
 1789 0066 FFF7FEFF 		bl	i2c_read_sda
 1790              	.LVL247:
 1791              	.LBB40:
 1792              	.LBB41:
 499:..\..\..\u8g2\u8g2\csrc/u8x8_byte.c **** }
 1793              		.loc 1 499 0
 1794 006a 0022     		movs	r2, #0
 1795 006c 4D21     		movs	r1, #77
 1796 006e 2046     		mov	r0, r4
 1797 0070 FFF7FEFF 		bl	u8x8_gpio_call
 1798              	.LVL248:
 1799              	.LBE41:
 1800              	.LBE40:
 514:..\..\..\u8g2\u8g2\csrc/u8x8_byte.c ****   i2c_clear_scl(u8x8);
 1801              		.loc 1 514 0
 1802 0074 2046     		mov	r0, r4
 1803 0076 FFF7FEFF 		bl	i2c_delay
 1804              	.LVL249:
 516:..\..\..\u8g2\u8g2\csrc/u8x8_byte.c **** }
 1805              		.loc 1 516 0
 1806 007a 0125     		movs	r5, #1
 1807              	.LBB42:
 1808              	.LBB43:
 487:..\..\..\u8g2\u8g2\csrc/u8x8_byte.c **** }
 1809              		.loc 1 487 0
 1810 007c 2046     		mov	r0, r4
 1811 007e 0022     		movs	r2, #0
 1812 0080 4C21     		movs	r1, #76
 1813 0082 FFF7FEFF 		bl	u8x8_gpio_call
 1814              	.LVL250:
 1815              	.LBE43:
 1816              	.LBE42:
 516:..\..\..\u8g2\u8g2\csrc/u8x8_byte.c **** }
 1817              		.loc 1 516 0
 1818 0086 84F82550 		strb	r5, [r4, #37]
 1819              	.LVL251:
 1820              	.LBE39:
 1821              	.LBE38:
 591:..\..\..\u8g2\u8g2\csrc/u8x8_byte.c ****       }
 592:..\..\..\u8g2\u8g2\csrc/u8x8_byte.c ****       
ARM GAS  C:\Users\jesse\AppData\Local\Temp\ccdqInxW.s 			page 48


 593:..\..\..\u8g2\u8g2\csrc/u8x8_byte.c ****       break;
 594:..\..\..\u8g2\u8g2\csrc/u8x8_byte.c ****       
 595:..\..\..\u8g2\u8g2\csrc/u8x8_byte.c ****     case U8X8_MSG_BYTE_INIT:
 596:..\..\..\u8g2\u8g2\csrc/u8x8_byte.c ****       i2c_init(u8x8);
 597:..\..\..\u8g2\u8g2\csrc/u8x8_byte.c ****       break;
 598:..\..\..\u8g2\u8g2\csrc/u8x8_byte.c ****     case U8X8_MSG_BYTE_SET_DC:
 599:..\..\..\u8g2\u8g2\csrc/u8x8_byte.c ****       break;
 600:..\..\..\u8g2\u8g2\csrc/u8x8_byte.c ****     case U8X8_MSG_BYTE_START_TRANSFER:
 601:..\..\..\u8g2\u8g2\csrc/u8x8_byte.c ****       i2c_start(u8x8);
 602:..\..\..\u8g2\u8g2\csrc/u8x8_byte.c ****       i2c_write_byte(u8x8, u8x8_GetI2CAddress(u8x8));
 1822              		.loc 1 602 0
 1823 008a 94F82410 		ldrb	r1, [r4, #36]	@ zero_extendqisi2
 1824 008e 2046     		mov	r0, r4
 1825 0090 FFF7FEFF 		bl	i2c_write_byte
 1826              	.LVL252:
 1827 0094 12E0     		b	.L137
 1828              	.LVL253:
 1829              	.L127:
 1830              	.LBB44:
 1831              	.LBB45:
 1832              	.LBB46:
 1833              	.LBB47:
 499:..\..\..\u8g2\u8g2\csrc/u8x8_byte.c **** }
 1834              		.loc 1 499 0
 1835 0096 0022     		movs	r2, #0
 1836              	.LVL254:
 1837 0098 4D21     		movs	r1, #77
 1838 009a FFF7FEFF 		bl	u8x8_gpio_call
 1839              	.LVL255:
 1840              	.LBE47:
 1841              	.LBE46:
 524:..\..\..\u8g2\u8g2\csrc/u8x8_byte.c ****  
 1842              		.loc 1 524 0
 1843 009e 2046     		mov	r0, r4
 1844 00a0 FFF7FEFF 		bl	i2c_delay
 1845              	.LVL256:
 527:..\..\..\u8g2\u8g2\csrc/u8x8_byte.c ****  
 1846              		.loc 1 527 0
 1847 00a4 2046     		mov	r0, r4
 1848 00a6 FFF7FEFF 		bl	i2c_read_scl_and_delay
 1849              	.LVL257:
 530:..\..\..\u8g2\u8g2\csrc/u8x8_byte.c ****   i2c_delay(u8x8);
 1850              		.loc 1 530 0
 1851 00aa 2046     		mov	r0, r4
 1852 00ac FFF7FEFF 		bl	i2c_read_sda
 1853              	.LVL258:
 531:..\..\..\u8g2\u8g2\csrc/u8x8_byte.c ****   u8x8->i2c_started = 0;
 1854              		.loc 1 531 0
 1855 00b0 2046     		mov	r0, r4
 1856 00b2 FFF7FEFF 		bl	i2c_delay
 1857              	.LVL259:
 532:..\..\..\u8g2\u8g2\csrc/u8x8_byte.c **** }
 1858              		.loc 1 532 0
 1859 00b6 0023     		movs	r3, #0
 1860 00b8 84F82530 		strb	r3, [r4, #37]
 1861              	.LVL260:
 1862              	.L137:
ARM GAS  C:\Users\jesse\AppData\Local\Temp\ccdqInxW.s 			page 49


 1863              	.LBE45:
 1864              	.LBE44:
 603:..\..\..\u8g2\u8g2\csrc/u8x8_byte.c ****       //i2c_write_byte(u8x8, 0x078);
 604:..\..\..\u8g2\u8g2\csrc/u8x8_byte.c ****       break;
 605:..\..\..\u8g2\u8g2\csrc/u8x8_byte.c ****     case U8X8_MSG_BYTE_END_TRANSFER:
 606:..\..\..\u8g2\u8g2\csrc/u8x8_byte.c ****       i2c_stop(u8x8);
 607:..\..\..\u8g2\u8g2\csrc/u8x8_byte.c ****       break;
 608:..\..\..\u8g2\u8g2\csrc/u8x8_byte.c ****     default:
 609:..\..\..\u8g2\u8g2\csrc/u8x8_byte.c ****       return 0;
 610:..\..\..\u8g2\u8g2\csrc/u8x8_byte.c ****   }
 611:..\..\..\u8g2\u8g2\csrc/u8x8_byte.c ****   return 1;
 1865              		.loc 1 611 0
 1866 00bc 0120     		movs	r0, #1
 1867 00be 70BD     		pop	{r4, r5, r6, pc}
 1868              	.LVL261:
 1869              	.L132:
 609:..\..\..\u8g2\u8g2\csrc/u8x8_byte.c ****   }
 1870              		.loc 1 609 0
 1871 00c0 0020     		movs	r0, #0
 1872              	.LVL262:
 612:..\..\..\u8g2\u8g2\csrc/u8x8_byte.c **** }
 1873              		.loc 1 612 0
 1874 00c2 70BD     		pop	{r4, r5, r6, pc}
 1875              		.cfi_endproc
 1876              	.LFE24:
 1877              		.size	u8x8_byte_sw_i2c, .-u8x8_byte_sw_i2c
 1878              		.bss
 1879              		.set	.LANCHOR0,. + 0
 1880              		.type	last_dc.5879, %object
 1881              		.size	last_dc.5879, 1
 1882              	last_dc.5879:
 1883 0000 00       		.space	1
 1884              		.type	enable_pin.5928, %object
 1885              		.size	enable_pin.5928, 1
 1886              	enable_pin.5928:
 1887 0001 00       		.space	1
 1888              		.text
 1889              	.Letext0:
 1890              		.file 2 "c:\\program files (x86)\\cypress\\psoc creator\\4.4\\psoc creator\\import\\gnu\\arm\\5.4.
 1891              		.file 3 "c:\\program files (x86)\\cypress\\psoc creator\\4.4\\psoc creator\\import\\gnu\\arm\\5.4.
 1892              		.file 4 "..\\..\\..\\u8g2\\u8g2\\csrc\\u8x8.h"