ARM GAS  C:\Users\jesse\AppData\Local\Temp\ccjh0Qlm.s 			page 1


   1              		.syntax unified
   2              		.cpu cortex-m3
   3              		.fpu softvfp
   4              		.eabi_attribute 20, 1
   5              		.eabi_attribute 21, 1
   6              		.eabi_attribute 23, 3
   7              		.eabi_attribute 24, 1
   8              		.eabi_attribute 25, 1
   9              		.eabi_attribute 26, 1
  10              		.eabi_attribute 30, 4
  11              		.eabi_attribute 34, 1
  12              		.eabi_attribute 18, 4
  13              		.thumb
  14              		.syntax unified
  15              		.file	"u8x8_d_ssd1327.c"
  16              		.text
  17              	.Ltext0:
  18              		.cfi_sections	.debug_frame
  19              		.section	.text.u8x8_d_ssd1327_96x96_generic,"ax",%progbits
  20              		.align	1
  21              		.thumb
  22              		.thumb_func
  23              		.type	u8x8_d_ssd1327_96x96_generic, %function
  24              	u8x8_d_ssd1327_96x96_generic:
  25              	.LFB1:
  26              		.file 1 "..\\..\\..\\u8g2\\u8g2\\csrc\\u8x8_d_ssd1327.c"
   1:..\..\..\u8g2\u8g2\csrc/u8x8_d_ssd1327.c **** /*
   2:..\..\..\u8g2\u8g2\csrc/u8x8_d_ssd1327.c **** 
   3:..\..\..\u8g2\u8g2\csrc/u8x8_d_ssd1327.c ****   u8x8_d_ssd1327.c
   4:..\..\..\u8g2\u8g2\csrc/u8x8_d_ssd1327.c **** 
   5:..\..\..\u8g2\u8g2\csrc/u8x8_d_ssd1327.c ****   Universal 8bit Graphics Library (https://github.com/olikraus/u8g2/)
   6:..\..\..\u8g2\u8g2\csrc/u8x8_d_ssd1327.c **** 
   7:..\..\..\u8g2\u8g2\csrc/u8x8_d_ssd1327.c ****   Copyright (c) 2016, olikraus@gmail.com
   8:..\..\..\u8g2\u8g2\csrc/u8x8_d_ssd1327.c ****   All rights reserved.
   9:..\..\..\u8g2\u8g2\csrc/u8x8_d_ssd1327.c **** 
  10:..\..\..\u8g2\u8g2\csrc/u8x8_d_ssd1327.c ****   Redistribution and use in source and binary forms, with or without modification, 
  11:..\..\..\u8g2\u8g2\csrc/u8x8_d_ssd1327.c ****   are permitted provided that the following conditions are met:
  12:..\..\..\u8g2\u8g2\csrc/u8x8_d_ssd1327.c **** 
  13:..\..\..\u8g2\u8g2\csrc/u8x8_d_ssd1327.c ****   * Redistributions of source code must retain the above copyright notice, this list 
  14:..\..\..\u8g2\u8g2\csrc/u8x8_d_ssd1327.c ****     of conditions and the following disclaimer.
  15:..\..\..\u8g2\u8g2\csrc/u8x8_d_ssd1327.c ****     
  16:..\..\..\u8g2\u8g2\csrc/u8x8_d_ssd1327.c ****   * Redistributions in binary form must reproduce the above copyright notice, this 
  17:..\..\..\u8g2\u8g2\csrc/u8x8_d_ssd1327.c ****     list of conditions and the following disclaimer in the documentation and/or other 
  18:..\..\..\u8g2\u8g2\csrc/u8x8_d_ssd1327.c ****     materials provided with the distribution.
  19:..\..\..\u8g2\u8g2\csrc/u8x8_d_ssd1327.c **** 
  20:..\..\..\u8g2\u8g2\csrc/u8x8_d_ssd1327.c ****   THIS SOFTWARE IS PROVIDED BY THE COPYRIGHT HOLDERS AND 
  21:..\..\..\u8g2\u8g2\csrc/u8x8_d_ssd1327.c ****   CONTRIBUTORS "AS IS" AND ANY EXPRESS OR IMPLIED WARRANTIES, 
  22:..\..\..\u8g2\u8g2\csrc/u8x8_d_ssd1327.c ****   INCLUDING, BUT NOT LIMITED TO, THE IMPLIED WARRANTIES OF 
  23:..\..\..\u8g2\u8g2\csrc/u8x8_d_ssd1327.c ****   MERCHANTABILITY AND FITNESS FOR A PARTICULAR PURPOSE ARE 
  24:..\..\..\u8g2\u8g2\csrc/u8x8_d_ssd1327.c ****   DISCLAIMED. IN NO EVENT SHALL THE COPYRIGHT HOLDER OR 
  25:..\..\..\u8g2\u8g2\csrc/u8x8_d_ssd1327.c ****   CONTRIBUTORS BE LIABLE FOR ANY DIRECT, INDIRECT, INCIDENTAL, 
  26:..\..\..\u8g2\u8g2\csrc/u8x8_d_ssd1327.c ****   SPECIAL, EXEMPLARY, OR CONSEQUENTIAL DAMAGES (INCLUDING, BUT 
  27:..\..\..\u8g2\u8g2\csrc/u8x8_d_ssd1327.c ****   NOT LIMITED TO, PROCUREMENT OF SUBSTITUTE GOODS OR SERVICES; 
  28:..\..\..\u8g2\u8g2\csrc/u8x8_d_ssd1327.c ****   LOSS OF USE, DATA, OR PROFITS; OR BUSINESS INTERRUPTION) HOWEVER 
  29:..\..\..\u8g2\u8g2\csrc/u8x8_d_ssd1327.c ****   CAUSED AND ON ANY THEORY OF LIABILITY, WHETHER IN CONTRACT, 
  30:..\..\..\u8g2\u8g2\csrc/u8x8_d_ssd1327.c ****   STRICT LIABILITY, OR TORT (INCLUDING NEGLIGENCE OR OTHERWISE) 
  31:..\..\..\u8g2\u8g2\csrc/u8x8_d_ssd1327.c ****   ARISING IN ANY WAY OUT OF THE USE OF THIS SOFTWARE, EVEN IF 
ARM GAS  C:\Users\jesse\AppData\Local\Temp\ccjh0Qlm.s 			page 2


  32:..\..\..\u8g2\u8g2\csrc/u8x8_d_ssd1327.c ****   ADVISED OF THE POSSIBILITY OF SUCH DAMAGE.  
  33:..\..\..\u8g2\u8g2\csrc/u8x8_d_ssd1327.c ****   
  34:..\..\..\u8g2\u8g2\csrc/u8x8_d_ssd1327.c **** */
  35:..\..\..\u8g2\u8g2\csrc/u8x8_d_ssd1327.c **** 
  36:..\..\..\u8g2\u8g2\csrc/u8x8_d_ssd1327.c **** 
  37:..\..\..\u8g2\u8g2\csrc/u8x8_d_ssd1327.c **** #include "u8x8.h"
  38:..\..\..\u8g2\u8g2\csrc/u8x8_d_ssd1327.c **** 
  39:..\..\..\u8g2\u8g2\csrc/u8x8_d_ssd1327.c **** 
  40:..\..\..\u8g2\u8g2\csrc/u8x8_d_ssd1327.c **** static const uint8_t u8x8_d_ssd1327_96x96_powersave0_seq[] = {
  41:..\..\..\u8g2\u8g2\csrc/u8x8_d_ssd1327.c ****   U8X8_START_TRANSFER(),             	/* enable chip, delay is part of the transfer start */
  42:..\..\..\u8g2\u8g2\csrc/u8x8_d_ssd1327.c ****   U8X8_C(0x0af),		                /* display on */
  43:..\..\..\u8g2\u8g2\csrc/u8x8_d_ssd1327.c ****   U8X8_END_TRANSFER(),             	/* disable chip */
  44:..\..\..\u8g2\u8g2\csrc/u8x8_d_ssd1327.c ****   U8X8_END()             			/* end of sequence */
  45:..\..\..\u8g2\u8g2\csrc/u8x8_d_ssd1327.c **** };
  46:..\..\..\u8g2\u8g2\csrc/u8x8_d_ssd1327.c **** 
  47:..\..\..\u8g2\u8g2\csrc/u8x8_d_ssd1327.c **** static const uint8_t u8x8_d_ssd1327_96x96_powersave1_seq[] = {
  48:..\..\..\u8g2\u8g2\csrc/u8x8_d_ssd1327.c ****   U8X8_START_TRANSFER(),             	/* enable chip, delay is part of the transfer start */
  49:..\..\..\u8g2\u8g2\csrc/u8x8_d_ssd1327.c ****   U8X8_C(0x0ae),		                /* display off */
  50:..\..\..\u8g2\u8g2\csrc/u8x8_d_ssd1327.c ****   U8X8_END_TRANSFER(),             	/* disable chip */
  51:..\..\..\u8g2\u8g2\csrc/u8x8_d_ssd1327.c ****   U8X8_END()             			/* end of sequence */
  52:..\..\..\u8g2\u8g2\csrc/u8x8_d_ssd1327.c **** };
  53:..\..\..\u8g2\u8g2\csrc/u8x8_d_ssd1327.c **** 
  54:..\..\..\u8g2\u8g2\csrc/u8x8_d_ssd1327.c **** 
  55:..\..\..\u8g2\u8g2\csrc/u8x8_d_ssd1327.c **** static const uint8_t u8x8_d_ssd1327_seeed_96x96_flip0_seq[] = {
  56:..\..\..\u8g2\u8g2\csrc/u8x8_d_ssd1327.c ****   U8X8_START_TRANSFER(),             	/* enable chip, delay is part of the transfer start */
  57:..\..\..\u8g2\u8g2\csrc/u8x8_d_ssd1327.c ****   U8X8_CA(0x0a2, 0x020),		/* display offset, shift mapping ram counter */
  58:..\..\..\u8g2\u8g2\csrc/u8x8_d_ssd1327.c ****   U8X8_CA(0x0a0, 0x051),		/* remap configuration */
  59:..\..\..\u8g2\u8g2\csrc/u8x8_d_ssd1327.c ****   U8X8_END_TRANSFER(),             	/* disable chip */
  60:..\..\..\u8g2\u8g2\csrc/u8x8_d_ssd1327.c ****   U8X8_END()             			/* end of sequence */
  61:..\..\..\u8g2\u8g2\csrc/u8x8_d_ssd1327.c **** };
  62:..\..\..\u8g2\u8g2\csrc/u8x8_d_ssd1327.c **** 
  63:..\..\..\u8g2\u8g2\csrc/u8x8_d_ssd1327.c **** static const uint8_t u8x8_d_ssd1327_seeed_96x96_flip1_seq[] = {
  64:..\..\..\u8g2\u8g2\csrc/u8x8_d_ssd1327.c ****   U8X8_START_TRANSFER(),             	/* enable chip, delay is part of the transfer start */
  65:..\..\..\u8g2\u8g2\csrc/u8x8_d_ssd1327.c ****   U8X8_CA(0x0a2, 0x060),		/* display offset, shift mapping ram counter */
  66:..\..\..\u8g2\u8g2\csrc/u8x8_d_ssd1327.c ****   U8X8_CA(0x0a0, 0x042),		/* remap configuration */
  67:..\..\..\u8g2\u8g2\csrc/u8x8_d_ssd1327.c ****   U8X8_END_TRANSFER(),             	/* disable chip */
  68:..\..\..\u8g2\u8g2\csrc/u8x8_d_ssd1327.c ****   U8X8_END()             			/* end of sequence */
  69:..\..\..\u8g2\u8g2\csrc/u8x8_d_ssd1327.c **** };
  70:..\..\..\u8g2\u8g2\csrc/u8x8_d_ssd1327.c **** 
  71:..\..\..\u8g2\u8g2\csrc/u8x8_d_ssd1327.c **** 
  72:..\..\..\u8g2\u8g2\csrc/u8x8_d_ssd1327.c **** static const uint8_t u8x8_d_ssd1327_winstar_96x64_flip0_seq[] = {
  73:..\..\..\u8g2\u8g2\csrc/u8x8_d_ssd1327.c ****   U8X8_START_TRANSFER(),             	/* enable chip, delay is part of the transfer start */  
  74:..\..\..\u8g2\u8g2\csrc/u8x8_d_ssd1327.c ****   U8X8_CA(0x0a0, 0x042),		/* remap configuration */
  75:..\..\..\u8g2\u8g2\csrc/u8x8_d_ssd1327.c ****   U8X8_CA(0x0a2, 0x000),		/* display offset, shift mapping ram counter */
  76:..\..\..\u8g2\u8g2\csrc/u8x8_d_ssd1327.c ****   U8X8_END_TRANSFER(),             	/* disable chip */
  77:..\..\..\u8g2\u8g2\csrc/u8x8_d_ssd1327.c ****   U8X8_END()             			/* end of sequence */
  78:..\..\..\u8g2\u8g2\csrc/u8x8_d_ssd1327.c **** };
  79:..\..\..\u8g2\u8g2\csrc/u8x8_d_ssd1327.c **** 
  80:..\..\..\u8g2\u8g2\csrc/u8x8_d_ssd1327.c **** static const uint8_t u8x8_d_ssd1327_winstar_96x64_flip1_seq[] = {
  81:..\..\..\u8g2\u8g2\csrc/u8x8_d_ssd1327.c ****   U8X8_START_TRANSFER(),             	/* enable chip, delay is part of the transfer start */
  82:..\..\..\u8g2\u8g2\csrc/u8x8_d_ssd1327.c ****   U8X8_CA(0x0a0, 0x051),		/* remap configuration */
  83:..\..\..\u8g2\u8g2\csrc/u8x8_d_ssd1327.c ****   U8X8_CA(0x0a2, 0x040),		/* display offset, shift mapping ram counter */
  84:..\..\..\u8g2\u8g2\csrc/u8x8_d_ssd1327.c ****   U8X8_END_TRANSFER(),             	/* disable chip */
  85:..\..\..\u8g2\u8g2\csrc/u8x8_d_ssd1327.c ****   U8X8_END()             			/* end of sequence */
  86:..\..\..\u8g2\u8g2\csrc/u8x8_d_ssd1327.c **** };
  87:..\..\..\u8g2\u8g2\csrc/u8x8_d_ssd1327.c **** 
  88:..\..\..\u8g2\u8g2\csrc/u8x8_d_ssd1327.c **** /*
ARM GAS  C:\Users\jesse\AppData\Local\Temp\ccjh0Qlm.s 			page 3


  89:..\..\..\u8g2\u8g2\csrc/u8x8_d_ssd1327.c ****   input:
  90:..\..\..\u8g2\u8g2\csrc/u8x8_d_ssd1327.c ****     one tile (8 Bytes)
  91:..\..\..\u8g2\u8g2\csrc/u8x8_d_ssd1327.c ****   output:
  92:..\..\..\u8g2\u8g2\csrc/u8x8_d_ssd1327.c ****     Tile for ssd1327 (32 Bytes)
  93:..\..\..\u8g2\u8g2\csrc/u8x8_d_ssd1327.c **** */
  94:..\..\..\u8g2\u8g2\csrc/u8x8_d_ssd1327.c **** 
  95:..\..\..\u8g2\u8g2\csrc/u8x8_d_ssd1327.c **** static uint8_t u8x8_ssd1327_8to32_dest_buf[32];
  96:..\..\..\u8g2\u8g2\csrc/u8x8_d_ssd1327.c **** 
  97:..\..\..\u8g2\u8g2\csrc/u8x8_d_ssd1327.c **** static uint8_t *u8x8_ssd1327_8to32(U8X8_UNUSED u8x8_t *u8x8, uint8_t *ptr)
  98:..\..\..\u8g2\u8g2\csrc/u8x8_d_ssd1327.c **** {
  99:..\..\..\u8g2\u8g2\csrc/u8x8_d_ssd1327.c ****   uint8_t v;
 100:..\..\..\u8g2\u8g2\csrc/u8x8_d_ssd1327.c ****   uint8_t a,b;
 101:..\..\..\u8g2\u8g2\csrc/u8x8_d_ssd1327.c ****   uint8_t i, j;
 102:..\..\..\u8g2\u8g2\csrc/u8x8_d_ssd1327.c ****   uint8_t *dest;
 103:..\..\..\u8g2\u8g2\csrc/u8x8_d_ssd1327.c ****   
 104:..\..\..\u8g2\u8g2\csrc/u8x8_d_ssd1327.c ****   for( j = 0; j < 4; j++ )
 105:..\..\..\u8g2\u8g2\csrc/u8x8_d_ssd1327.c ****   {
 106:..\..\..\u8g2\u8g2\csrc/u8x8_d_ssd1327.c ****     dest = u8x8_ssd1327_8to32_dest_buf;
 107:..\..\..\u8g2\u8g2\csrc/u8x8_d_ssd1327.c ****     dest += j;
 108:..\..\..\u8g2\u8g2\csrc/u8x8_d_ssd1327.c ****     a =*ptr;
 109:..\..\..\u8g2\u8g2\csrc/u8x8_d_ssd1327.c ****     ptr++;
 110:..\..\..\u8g2\u8g2\csrc/u8x8_d_ssd1327.c ****     b = *ptr;
 111:..\..\..\u8g2\u8g2\csrc/u8x8_d_ssd1327.c ****     ptr++;
 112:..\..\..\u8g2\u8g2\csrc/u8x8_d_ssd1327.c ****     for( i = 0; i < 8; i++ )
 113:..\..\..\u8g2\u8g2\csrc/u8x8_d_ssd1327.c ****     {
 114:..\..\..\u8g2\u8g2\csrc/u8x8_d_ssd1327.c ****       v = 0;
 115:..\..\..\u8g2\u8g2\csrc/u8x8_d_ssd1327.c ****       if ( a&1 ) v |= 0xf0;
 116:..\..\..\u8g2\u8g2\csrc/u8x8_d_ssd1327.c ****       if ( b&1 ) v |= 0x0f;
 117:..\..\..\u8g2\u8g2\csrc/u8x8_d_ssd1327.c ****       *dest = v;
 118:..\..\..\u8g2\u8g2\csrc/u8x8_d_ssd1327.c ****       dest+=4;
 119:..\..\..\u8g2\u8g2\csrc/u8x8_d_ssd1327.c ****       a >>= 1;
 120:..\..\..\u8g2\u8g2\csrc/u8x8_d_ssd1327.c ****       b >>= 1;
 121:..\..\..\u8g2\u8g2\csrc/u8x8_d_ssd1327.c ****     }
 122:..\..\..\u8g2\u8g2\csrc/u8x8_d_ssd1327.c ****   }
 123:..\..\..\u8g2\u8g2\csrc/u8x8_d_ssd1327.c ****   
 124:..\..\..\u8g2\u8g2\csrc/u8x8_d_ssd1327.c ****   return u8x8_ssd1327_8to32_dest_buf;
 125:..\..\..\u8g2\u8g2\csrc/u8x8_d_ssd1327.c **** }
 126:..\..\..\u8g2\u8g2\csrc/u8x8_d_ssd1327.c **** 
 127:..\..\..\u8g2\u8g2\csrc/u8x8_d_ssd1327.c **** 
 128:..\..\..\u8g2\u8g2\csrc/u8x8_d_ssd1327.c **** 
 129:..\..\..\u8g2\u8g2\csrc/u8x8_d_ssd1327.c **** 
 130:..\..\..\u8g2\u8g2\csrc/u8x8_d_ssd1327.c **** static uint8_t u8x8_d_ssd1327_96x96_generic(u8x8_t *u8x8, uint8_t msg, uint8_t arg_int, void *arg_p
 131:..\..\..\u8g2\u8g2\csrc/u8x8_d_ssd1327.c **** {
  27              		.loc 1 131 0
  28              		.cfi_startproc
  29              		@ args = 0, pretend = 0, frame = 8
  30              		@ frame_needed = 0, uses_anonymous_args = 0
  31              	.LVL0:
 132:..\..\..\u8g2\u8g2\csrc/u8x8_d_ssd1327.c ****   uint8_t x, y, c;
 133:..\..\..\u8g2\u8g2\csrc/u8x8_d_ssd1327.c ****   uint8_t *ptr;
 134:..\..\..\u8g2\u8g2\csrc/u8x8_d_ssd1327.c ****   switch(msg)
  32              		.loc 1 134 0
  33 0000 0E29     		cmp	r1, #14
 131:..\..\..\u8g2\u8g2\csrc/u8x8_d_ssd1327.c ****   uint8_t x, y, c;
  34              		.loc 1 131 0
  35 0002 2DE9F74F 		push	{r0, r1, r2, r4, r5, r6, r7, r8, r9, r10, fp, lr}
  36              		.cfi_def_cfa_offset 48
ARM GAS  C:\Users\jesse\AppData\Local\Temp\ccjh0Qlm.s 			page 4


  37              		.cfi_offset 4, -36
  38              		.cfi_offset 5, -32
  39              		.cfi_offset 6, -28
  40              		.cfi_offset 7, -24
  41              		.cfi_offset 8, -20
  42              		.cfi_offset 9, -16
  43              		.cfi_offset 10, -12
  44              		.cfi_offset 11, -8
  45              		.cfi_offset 14, -4
 131:..\..\..\u8g2\u8g2\csrc/u8x8_d_ssd1327.c ****   uint8_t x, y, c;
  46              		.loc 1 131 0
  47 0006 0446     		mov	r4, r0
  48 0008 1646     		mov	r6, r2
  49 000a 9946     		mov	r9, r3
  50              		.loc 1 134 0
  51 000c 0BD0     		beq	.L3
  52 000e 0F29     		cmp	r1, #15
  53 0010 18D0     		beq	.L4
  54 0012 0B29     		cmp	r1, #11
  55 0014 40F08580 		bne	.L22
 135:..\..\..\u8g2\u8g2\csrc/u8x8_d_ssd1327.c ****   {
 136:..\..\..\u8g2\u8g2\csrc/u8x8_d_ssd1327.c ****     /* handled by the calling function
 137:..\..\..\u8g2\u8g2\csrc/u8x8_d_ssd1327.c ****     case U8X8_MSG_DISPLAY_SETUP_MEMORY:
 138:..\..\..\u8g2\u8g2\csrc/u8x8_d_ssd1327.c ****       u8x8_d_helper_display_setup_memory(u8x8, &u8x8_ssd1327_96x96_display_info);
 139:..\..\..\u8g2\u8g2\csrc/u8x8_d_ssd1327.c ****       break;
 140:..\..\..\u8g2\u8g2\csrc/u8x8_d_ssd1327.c ****     */
 141:..\..\..\u8g2\u8g2\csrc/u8x8_d_ssd1327.c ****     /* handled by the calling function
 142:..\..\..\u8g2\u8g2\csrc/u8x8_d_ssd1327.c ****     case U8X8_MSG_DISPLAY_INIT:
 143:..\..\..\u8g2\u8g2\csrc/u8x8_d_ssd1327.c ****       u8x8_d_helper_display_init(u8x8);
 144:..\..\..\u8g2\u8g2\csrc/u8x8_d_ssd1327.c ****       u8x8_cad_SendSequence(u8x8, u8x8_d_ssd1327_96x96_init_seq);    
 145:..\..\..\u8g2\u8g2\csrc/u8x8_d_ssd1327.c ****       break;
 146:..\..\..\u8g2\u8g2\csrc/u8x8_d_ssd1327.c ****     */
 147:..\..\..\u8g2\u8g2\csrc/u8x8_d_ssd1327.c ****     case U8X8_MSG_DISPLAY_SET_POWER_SAVE:
 148:..\..\..\u8g2\u8g2\csrc/u8x8_d_ssd1327.c ****       if ( arg_int == 0 )
  56              		.loc 1 148 0
  57 0018 0AB9     		cbnz	r2, .L6
 149:..\..\..\u8g2\u8g2\csrc/u8x8_d_ssd1327.c **** 	u8x8_cad_SendSequence(u8x8, u8x8_d_ssd1327_96x96_powersave0_seq);
  58              		.loc 1 149 0
  59 001a 4449     		ldr	r1, .L27
  60              	.LVL1:
  61 001c 00E0     		b	.L25
  62              	.LVL2:
  63              	.L6:
 150:..\..\..\u8g2\u8g2\csrc/u8x8_d_ssd1327.c ****       else
 151:..\..\..\u8g2\u8g2\csrc/u8x8_d_ssd1327.c **** 	u8x8_cad_SendSequence(u8x8, u8x8_d_ssd1327_96x96_powersave1_seq);
  64              		.loc 1 151 0
  65 001e 4449     		ldr	r1, .L27+4
  66              	.LVL3:
  67              	.L25:
  68 0020 FFF7FEFF 		bl	u8x8_cad_SendSequence
  69              	.LVL4:
  70 0024 0CE0     		b	.L23
  71              	.LVL5:
  72              	.L3:
 152:..\..\..\u8g2\u8g2\csrc/u8x8_d_ssd1327.c ****       break;
 153:..\..\..\u8g2\u8g2\csrc/u8x8_d_ssd1327.c **** #ifdef U8X8_WITH_SET_CONTRAST
 154:..\..\..\u8g2\u8g2\csrc/u8x8_d_ssd1327.c ****     case U8X8_MSG_DISPLAY_SET_CONTRAST:
ARM GAS  C:\Users\jesse\AppData\Local\Temp\ccjh0Qlm.s 			page 5


 155:..\..\..\u8g2\u8g2\csrc/u8x8_d_ssd1327.c ****       u8x8_cad_StartTransfer(u8x8);
  73              		.loc 1 155 0
  74 0026 FFF7FEFF 		bl	u8x8_cad_StartTransfer
  75              	.LVL6:
 156:..\..\..\u8g2\u8g2\csrc/u8x8_d_ssd1327.c ****       u8x8_cad_SendCmd(u8x8, 0x081 );
  76              		.loc 1 156 0
  77 002a 8121     		movs	r1, #129
  78 002c 2046     		mov	r0, r4
  79 002e FFF7FEFF 		bl	u8x8_cad_SendCmd
  80              	.LVL7:
 157:..\..\..\u8g2\u8g2\csrc/u8x8_d_ssd1327.c ****       u8x8_cad_SendArg(u8x8, arg_int );	/* ssd1327 has range from 0 to 255 */
  81              		.loc 1 157 0
  82 0032 3146     		mov	r1, r6
  83 0034 2046     		mov	r0, r4
  84 0036 FFF7FEFF 		bl	u8x8_cad_SendArg
  85              	.LVL8:
  86              	.L24:
 158:..\..\..\u8g2\u8g2\csrc/u8x8_d_ssd1327.c ****       u8x8_cad_EndTransfer(u8x8);
  87              		.loc 1 158 0
  88 003a 2046     		mov	r0, r4
  89 003c FFF7FEFF 		bl	u8x8_cad_EndTransfer
  90              	.LVL9:
  91              	.L23:
 159:..\..\..\u8g2\u8g2\csrc/u8x8_d_ssd1327.c ****       break;
 160:..\..\..\u8g2\u8g2\csrc/u8x8_d_ssd1327.c **** #endif
 161:..\..\..\u8g2\u8g2\csrc/u8x8_d_ssd1327.c ****     case U8X8_MSG_DISPLAY_DRAW_TILE:
 162:..\..\..\u8g2\u8g2\csrc/u8x8_d_ssd1327.c ****       u8x8_cad_StartTransfer(u8x8);
 163:..\..\..\u8g2\u8g2\csrc/u8x8_d_ssd1327.c ****       x = ((u8x8_tile_t *)arg_ptr)->x_pos;    
 164:..\..\..\u8g2\u8g2\csrc/u8x8_d_ssd1327.c ****       x *= 4;
 165:..\..\..\u8g2\u8g2\csrc/u8x8_d_ssd1327.c ****       x+=u8x8->x_offset/2;
 166:..\..\..\u8g2\u8g2\csrc/u8x8_d_ssd1327.c ****     
 167:..\..\..\u8g2\u8g2\csrc/u8x8_d_ssd1327.c ****       y = (((u8x8_tile_t *)arg_ptr)->y_pos);
 168:..\..\..\u8g2\u8g2\csrc/u8x8_d_ssd1327.c ****       y *= 8;
 169:..\..\..\u8g2\u8g2\csrc/u8x8_d_ssd1327.c ****     
 170:..\..\..\u8g2\u8g2\csrc/u8x8_d_ssd1327.c ****       u8x8_cad_SendCmd(u8x8, 0x075 );	/* set row address, moved out of the loop (issue 302) */
 171:..\..\..\u8g2\u8g2\csrc/u8x8_d_ssd1327.c ****       u8x8_cad_SendArg(u8x8, y);
 172:..\..\..\u8g2\u8g2\csrc/u8x8_d_ssd1327.c ****       u8x8_cad_SendArg(u8x8, y+7);
 173:..\..\..\u8g2\u8g2\csrc/u8x8_d_ssd1327.c **** 	  
 174:..\..\..\u8g2\u8g2\csrc/u8x8_d_ssd1327.c ****       
 175:..\..\..\u8g2\u8g2\csrc/u8x8_d_ssd1327.c ****       do
 176:..\..\..\u8g2\u8g2\csrc/u8x8_d_ssd1327.c ****       {
 177:..\..\..\u8g2\u8g2\csrc/u8x8_d_ssd1327.c **** 	c = ((u8x8_tile_t *)arg_ptr)->cnt;
 178:..\..\..\u8g2\u8g2\csrc/u8x8_d_ssd1327.c **** 	ptr = ((u8x8_tile_t *)arg_ptr)->tile_ptr;
 179:..\..\..\u8g2\u8g2\csrc/u8x8_d_ssd1327.c **** 
 180:..\..\..\u8g2\u8g2\csrc/u8x8_d_ssd1327.c **** 	do
 181:..\..\..\u8g2\u8g2\csrc/u8x8_d_ssd1327.c **** 	{
 182:..\..\..\u8g2\u8g2\csrc/u8x8_d_ssd1327.c **** 	  u8x8_cad_SendCmd(u8x8, 0x015 );	/* set column address */
 183:..\..\..\u8g2\u8g2\csrc/u8x8_d_ssd1327.c **** 	  u8x8_cad_SendArg(u8x8, x );	/* start */
 184:..\..\..\u8g2\u8g2\csrc/u8x8_d_ssd1327.c **** 	  u8x8_cad_SendArg(u8x8, x+3 );	/* end */
 185:..\..\..\u8g2\u8g2\csrc/u8x8_d_ssd1327.c **** 
 186:..\..\..\u8g2\u8g2\csrc/u8x8_d_ssd1327.c **** 	  
 187:..\..\..\u8g2\u8g2\csrc/u8x8_d_ssd1327.c **** 	  u8x8_cad_SendData(u8x8, 32, u8x8_ssd1327_8to32(u8x8, ptr));
 188:..\..\..\u8g2\u8g2\csrc/u8x8_d_ssd1327.c **** 	  ptr += 8;
 189:..\..\..\u8g2\u8g2\csrc/u8x8_d_ssd1327.c **** 	  x += 4;
 190:..\..\..\u8g2\u8g2\csrc/u8x8_d_ssd1327.c **** 	  c--;
 191:..\..\..\u8g2\u8g2\csrc/u8x8_d_ssd1327.c **** 	} while( c > 0 );
 192:..\..\..\u8g2\u8g2\csrc/u8x8_d_ssd1327.c **** 	
ARM GAS  C:\Users\jesse\AppData\Local\Temp\ccjh0Qlm.s 			page 6


 193:..\..\..\u8g2\u8g2\csrc/u8x8_d_ssd1327.c **** 	//x += 4;
 194:..\..\..\u8g2\u8g2\csrc/u8x8_d_ssd1327.c **** 	arg_int--;
 195:..\..\..\u8g2\u8g2\csrc/u8x8_d_ssd1327.c ****       } while( arg_int > 0 );
 196:..\..\..\u8g2\u8g2\csrc/u8x8_d_ssd1327.c ****       
 197:..\..\..\u8g2\u8g2\csrc/u8x8_d_ssd1327.c ****       u8x8_cad_EndTransfer(u8x8);
 198:..\..\..\u8g2\u8g2\csrc/u8x8_d_ssd1327.c ****       break;
 199:..\..\..\u8g2\u8g2\csrc/u8x8_d_ssd1327.c ****     default:
 200:..\..\..\u8g2\u8g2\csrc/u8x8_d_ssd1327.c ****       return 0;
 201:..\..\..\u8g2\u8g2\csrc/u8x8_d_ssd1327.c ****   }
 202:..\..\..\u8g2\u8g2\csrc/u8x8_d_ssd1327.c ****   return 1;
  92              		.loc 1 202 0
  93 0040 0120     		movs	r0, #1
 159:..\..\..\u8g2\u8g2\csrc/u8x8_d_ssd1327.c ****       break;
  94              		.loc 1 159 0
  95 0042 6FE0     		b	.L2
  96              	.LVL10:
  97              	.L4:
  98              	.LBB6:
  99              	.LBB7:
 162:..\..\..\u8g2\u8g2\csrc/u8x8_d_ssd1327.c ****       x = ((u8x8_tile_t *)arg_ptr)->x_pos;    
 100              		.loc 1 162 0
 101 0044 FFF7FEFF 		bl	u8x8_cad_StartTransfer
 102              	.LVL11:
 167:..\..\..\u8g2\u8g2\csrc/u8x8_d_ssd1327.c ****       y *= 8;
 103              		.loc 1 167 0
 104 0048 99F80670 		ldrb	r7, [r9, #6]	@ zero_extendqisi2
 163:..\..\..\u8g2\u8g2\csrc/u8x8_d_ssd1327.c ****       x *= 4;
 105              		.loc 1 163 0
 106 004c 99F80550 		ldrb	r5, [r9, #5]	@ zero_extendqisi2
 107              	.LVL12:
 165:..\..\..\u8g2\u8g2\csrc/u8x8_d_ssd1327.c ****     
 108              		.loc 1 165 0
 109 0050 94F82230 		ldrb	r3, [r4, #34]	@ zero_extendqisi2
 168:..\..\..\u8g2\u8g2\csrc/u8x8_d_ssd1327.c ****     
 110              		.loc 1 168 0
 111 0054 FF00     		lsls	r7, r7, #3
 112 0056 FFB2     		uxtb	r7, r7
 170:..\..\..\u8g2\u8g2\csrc/u8x8_d_ssd1327.c ****       u8x8_cad_SendArg(u8x8, y);
 113              		.loc 1 170 0
 114 0058 7521     		movs	r1, #117
 164:..\..\..\u8g2\u8g2\csrc/u8x8_d_ssd1327.c ****       x+=u8x8->x_offset/2;
 115              		.loc 1 164 0
 116 005a AD00     		lsls	r5, r5, #2
 117              	.LVL13:
 170:..\..\..\u8g2\u8g2\csrc/u8x8_d_ssd1327.c ****       u8x8_cad_SendArg(u8x8, y);
 118              		.loc 1 170 0
 119 005c 2046     		mov	r0, r4
 165:..\..\..\u8g2\u8g2\csrc/u8x8_d_ssd1327.c ****     
 120              		.loc 1 165 0
 121 005e 05EB5305 		add	r5, r5, r3, lsr #1
 122              	.LVL14:
 170:..\..\..\u8g2\u8g2\csrc/u8x8_d_ssd1327.c ****       u8x8_cad_SendArg(u8x8, y);
 123              		.loc 1 170 0
 124 0062 FFF7FEFF 		bl	u8x8_cad_SendCmd
 125              	.LVL15:
 171:..\..\..\u8g2\u8g2\csrc/u8x8_d_ssd1327.c ****       u8x8_cad_SendArg(u8x8, y+7);
 126              		.loc 1 171 0
ARM GAS  C:\Users\jesse\AppData\Local\Temp\ccjh0Qlm.s 			page 7


 127 0066 3946     		mov	r1, r7
 128 0068 2046     		mov	r0, r4
 129 006a FFF7FEFF 		bl	u8x8_cad_SendArg
 130              	.LVL16:
 172:..\..\..\u8g2\u8g2\csrc/u8x8_d_ssd1327.c **** 	  
 131              		.loc 1 172 0
 132 006e F91D     		adds	r1, r7, #7
 133 0070 C9B2     		uxtb	r1, r1
 134 0072 2046     		mov	r0, r4
 165:..\..\..\u8g2\u8g2\csrc/u8x8_d_ssd1327.c ****     
 135              		.loc 1 165 0
 136 0074 05F0FF05 		and	r5, r5, #255
 137              	.LVL17:
 172:..\..\..\u8g2\u8g2\csrc/u8x8_d_ssd1327.c **** 	  
 138              		.loc 1 172 0
 139 0078 FFF7FEFF 		bl	u8x8_cad_SendArg
 140              	.LVL18:
 141              	.L12:
 178:..\..\..\u8g2\u8g2\csrc/u8x8_d_ssd1327.c **** 
 142              		.loc 1 178 0
 143 007c 2F46     		mov	r7, r5
 177:..\..\..\u8g2\u8g2\csrc/u8x8_d_ssd1327.c **** 	ptr = ((u8x8_tile_t *)arg_ptr)->tile_ptr;
 144              		.loc 1 177 0
 145 007e 99F80480 		ldrb	r8, [r9, #4]	@ zero_extendqisi2
 146              	.LVL19:
 178:..\..\..\u8g2\u8g2\csrc/u8x8_d_ssd1327.c **** 
 147              		.loc 1 178 0
 148 0082 D9F80030 		ldr	r3, [r9]
 149              	.LVL20:
 150 0086 08F1FF32 		add	r2, r8, #-1
 151 008a D2B2     		uxtb	r2, r2
 152 008c 03F1020A 		add	r10, r3, #2
 153 0090 03EBC203 		add	r3, r3, r2, lsl #3
 154              	.LVL21:
 155 0094 0A33     		adds	r3, r3, #10
 156 0096 0193     		str	r3, [sp, #4]
 157              	.LVL22:
 158              	.L11:
 182:..\..\..\u8g2\u8g2\csrc/u8x8_d_ssd1327.c **** 	  u8x8_cad_SendArg(u8x8, x );	/* start */
 159              		.loc 1 182 0
 160 0098 1521     		movs	r1, #21
 161 009a 2046     		mov	r0, r4
 162 009c FFF7FEFF 		bl	u8x8_cad_SendCmd
 163              	.LVL23:
 183:..\..\..\u8g2\u8g2\csrc/u8x8_d_ssd1327.c **** 	  u8x8_cad_SendArg(u8x8, x+3 );	/* end */
 164              		.loc 1 183 0
 165 00a0 3946     		mov	r1, r7
 166 00a2 2046     		mov	r0, r4
 167 00a4 FFF7FEFF 		bl	u8x8_cad_SendArg
 168              	.LVL24:
 184:..\..\..\u8g2\u8g2\csrc/u8x8_d_ssd1327.c **** 
 169              		.loc 1 184 0
 170 00a8 F91C     		adds	r1, r7, #3
 171 00aa C9B2     		uxtb	r1, r1
 172 00ac 2046     		mov	r0, r4
 173 00ae FFF7FEFF 		bl	u8x8_cad_SendArg
 174              	.LVL25:
ARM GAS  C:\Users\jesse\AppData\Local\Temp\ccjh0Qlm.s 			page 8


 175 00b2 5246     		mov	r2, r10
 176 00b4 0023     		movs	r3, #0
 177              	.LVL26:
 178              	.L10:
 179 00b6 1F49     		ldr	r1, .L27+8
 180              	.LBB8:
 181              	.LBB9:
 108:..\..\..\u8g2\u8g2\csrc/u8x8_d_ssd1327.c ****     ptr++;
 182              		.loc 1 108 0
 183 00b8 12F802EC 		ldrb	lr, [r2, #-2]	@ zero_extendqisi2
 110:..\..\..\u8g2\u8g2\csrc/u8x8_d_ssd1327.c ****     ptr++;
 184              		.loc 1 110 0
 185 00bc 12F8010C 		ldrb	r0, [r2, #-1]	@ zero_extendqisi2
 186 00c0 01EB030B 		add	fp, r1, r3
 187              	.LVL27:
 188 00c4 0021     		movs	r1, #0
 189              	.LVL28:
 190              	.L9:
 115:..\..\..\u8g2\u8g2\csrc/u8x8_d_ssd1327.c ****       if ( b&1 ) v |= 0x0f;
 191              		.loc 1 115 0
 192 00c6 1EF0010F 		tst	lr, #1
 193 00ca 14BF     		ite	ne
 194 00cc 4FF0F00C 		movne	ip, #240
 195 00d0 4FF0000C 		moveq	ip, #0
 196              	.LVL29:
 116:..\..\..\u8g2\u8g2\csrc/u8x8_d_ssd1327.c ****       *dest = v;
 197              		.loc 1 116 0
 198 00d4 10F0010F 		tst	r0, #1
 199 00d8 18BF     		it	ne
 200 00da 4CF00F0C 		orrne	ip, ip, #15
 201              	.LVL30:
 117:..\..\..\u8g2\u8g2\csrc/u8x8_d_ssd1327.c ****       dest+=4;
 202              		.loc 1 117 0
 203 00de 0BF821C0 		strb	ip, [fp, r1, lsl #2]
 204              	.LVL31:
 205 00e2 0131     		adds	r1, r1, #1
 206              	.LVL32:
 112:..\..\..\u8g2\u8g2\csrc/u8x8_d_ssd1327.c ****     {
 207              		.loc 1 112 0
 208 00e4 0829     		cmp	r1, #8
 119:..\..\..\u8g2\u8g2\csrc/u8x8_d_ssd1327.c ****       b >>= 1;
 209              		.loc 1 119 0
 210 00e6 4FEA5E0E 		lsr	lr, lr, #1
 211              	.LVL33:
 120:..\..\..\u8g2\u8g2\csrc/u8x8_d_ssd1327.c ****     }
 212              		.loc 1 120 0
 213 00ea 4FEA5000 		lsr	r0, r0, #1
 214              	.LVL34:
 112:..\..\..\u8g2\u8g2\csrc/u8x8_d_ssd1327.c ****     {
 215              		.loc 1 112 0
 216 00ee EAD1     		bne	.L9
 217              	.LVL35:
 218 00f0 0133     		adds	r3, r3, #1
 219              	.LVL36:
 104:..\..\..\u8g2\u8g2\csrc/u8x8_d_ssd1327.c ****   {
 220              		.loc 1 104 0
 221 00f2 042B     		cmp	r3, #4
ARM GAS  C:\Users\jesse\AppData\Local\Temp\ccjh0Qlm.s 			page 9


 222 00f4 02F10202 		add	r2, r2, #2
 223              	.LVL37:
 224 00f8 DDD1     		bne	.L10
 225              	.LVL38:
 226              	.LBE9:
 227              	.LBE8:
 187:..\..\..\u8g2\u8g2\csrc/u8x8_d_ssd1327.c **** 	  ptr += 8;
 228              		.loc 1 187 0
 229 00fa 0E4A     		ldr	r2, .L27+8
 230 00fc 2021     		movs	r1, #32
 231 00fe 2046     		mov	r0, r4
 232 0100 FFF7FEFF 		bl	u8x8_cad_SendData
 233              	.LVL39:
 191:..\..\..\u8g2\u8g2\csrc/u8x8_d_ssd1327.c **** 	
 234              		.loc 1 191 0
 235 0104 019B     		ldr	r3, [sp, #4]
 236 0106 0AF1080A 		add	r10, r10, #8
 237              	.LVL40:
 189:..\..\..\u8g2\u8g2\csrc/u8x8_d_ssd1327.c **** 	  c--;
 238              		.loc 1 189 0
 239 010a 0437     		adds	r7, r7, #4
 240              	.LVL41:
 191:..\..\..\u8g2\u8g2\csrc/u8x8_d_ssd1327.c **** 	
 241              		.loc 1 191 0
 242 010c 5345     		cmp	r3, r10
 189:..\..\..\u8g2\u8g2\csrc/u8x8_d_ssd1327.c **** 	  c--;
 243              		.loc 1 189 0
 244 010e FFB2     		uxtb	r7, r7
 245              	.LVL42:
 191:..\..\..\u8g2\u8g2\csrc/u8x8_d_ssd1327.c **** 	
 246              		.loc 1 191 0
 247 0110 C2D1     		bne	.L11
 194:..\..\..\u8g2\u8g2\csrc/u8x8_d_ssd1327.c ****       } while( arg_int > 0 );
 248              		.loc 1 194 0
 249 0112 013E     		subs	r6, r6, #1
 250              	.LVL43:
 251 0114 05EB8805 		add	r5, r5, r8, lsl #2
 195:..\..\..\u8g2\u8g2\csrc/u8x8_d_ssd1327.c ****       
 252              		.loc 1 195 0
 253 0118 16F0FF06 		ands	r6, r6, #255
 254              	.LVL44:
 255 011c EDB2     		uxtb	r5, r5
 256 011e ADD1     		bne	.L12
 257 0120 8BE7     		b	.L24
 258              	.LVL45:
 259              	.L22:
 260              	.LBE7:
 261              	.LBE6:
 200:..\..\..\u8g2\u8g2\csrc/u8x8_d_ssd1327.c ****   }
 262              		.loc 1 200 0
 263 0122 0020     		movs	r0, #0
 264              	.LVL46:
 265              	.L2:
 203:..\..\..\u8g2\u8g2\csrc/u8x8_d_ssd1327.c **** }
 266              		.loc 1 203 0
 267 0124 03B0     		add	sp, sp, #12
 268              		.cfi_def_cfa_offset 36
ARM GAS  C:\Users\jesse\AppData\Local\Temp\ccjh0Qlm.s 			page 10


 269              		@ sp needed
 270 0126 BDE8F08F 		pop	{r4, r5, r6, r7, r8, r9, r10, fp, pc}
 271              	.LVL47:
 272              	.L28:
 273 012a 00BF     		.align	2
 274              	.L27:
 275 012c 00000000 		.word	.LANCHOR0
 276 0130 05000000 		.word	.LANCHOR0+5
 277 0134 00000000 		.word	.LANCHOR1
 278              		.cfi_endproc
 279              	.LFE1:
 280              		.size	u8x8_d_ssd1327_96x96_generic, .-u8x8_d_ssd1327_96x96_generic
 281              		.section	.text.u8x8_d_ssd1327_ws_96x64,"ax",%progbits
 282              		.align	1
 283              		.global	u8x8_d_ssd1327_ws_96x64
 284              		.thumb
 285              		.thumb_func
 286              		.type	u8x8_d_ssd1327_ws_96x64, %function
 287              	u8x8_d_ssd1327_ws_96x64:
 288              	.LFB2:
 204:..\..\..\u8g2\u8g2\csrc/u8x8_d_ssd1327.c **** 
 205:..\..\..\u8g2\u8g2\csrc/u8x8_d_ssd1327.c **** /*=============================================*/
 206:..\..\..\u8g2\u8g2\csrc/u8x8_d_ssd1327.c **** /*
 207:..\..\..\u8g2\u8g2\csrc/u8x8_d_ssd1327.c ****   Winstar WEA009664B 96x64 OLED Display, 1.1 inch OLED
 208:..\..\..\u8g2\u8g2\csrc/u8x8_d_ssd1327.c ****   https://www.winstar.com.tw/products/oled-module/graphic-oled-display/96x64-oled.html
 209:..\..\..\u8g2\u8g2\csrc/u8x8_d_ssd1327.c **** 
 210:..\..\..\u8g2\u8g2\csrc/u8x8_d_ssd1327.c ****   https://github.com/olikraus/u8g2/issues/1050
 211:..\..\..\u8g2\u8g2\csrc/u8x8_d_ssd1327.c **** */
 212:..\..\..\u8g2\u8g2\csrc/u8x8_d_ssd1327.c **** 
 213:..\..\..\u8g2\u8g2\csrc/u8x8_d_ssd1327.c **** static const u8x8_display_info_t u8x8_ssd1327_winstar_96x64_display_info =
 214:..\..\..\u8g2\u8g2\csrc/u8x8_d_ssd1327.c **** {
 215:..\..\..\u8g2\u8g2\csrc/u8x8_d_ssd1327.c ****   /* chip_enable_level = */ 0,
 216:..\..\..\u8g2\u8g2\csrc/u8x8_d_ssd1327.c ****   /* chip_disable_level = */ 1,
 217:..\..\..\u8g2\u8g2\csrc/u8x8_d_ssd1327.c ****   
 218:..\..\..\u8g2\u8g2\csrc/u8x8_d_ssd1327.c ****   /* post_chip_enable_wait_ns = */ 20,
 219:..\..\..\u8g2\u8g2\csrc/u8x8_d_ssd1327.c ****   /* pre_chip_disable_wait_ns = */ 10,
 220:..\..\..\u8g2\u8g2\csrc/u8x8_d_ssd1327.c ****   /* reset_pulse_width_ms = */ 100, 	
 221:..\..\..\u8g2\u8g2\csrc/u8x8_d_ssd1327.c ****   /* post_reset_wait_ms = */ 100, 		/**/
 222:..\..\..\u8g2\u8g2\csrc/u8x8_d_ssd1327.c ****   /* sda_setup_time_ns = */ 100,		/* */
 223:..\..\..\u8g2\u8g2\csrc/u8x8_d_ssd1327.c ****   /* sck_pulse_width_ns = */ 100,	/*  */
 224:..\..\..\u8g2\u8g2\csrc/u8x8_d_ssd1327.c ****   /* sck_clock_hz = */ 4000000UL,	/* since Arduino 1.6.0, the SPI bus speed in Hz. Should be  10000
 225:..\..\..\u8g2\u8g2\csrc/u8x8_d_ssd1327.c ****   /* spi_mode = */ 0,		/* active high, rising edge */
 226:..\..\..\u8g2\u8g2\csrc/u8x8_d_ssd1327.c ****   /* i2c_bus_clock_100kHz = */ 1,	/* use 1 instead of 4, because the SSD1327 seems to be very slow 
 227:..\..\..\u8g2\u8g2\csrc/u8x8_d_ssd1327.c ****   /* data_setup_time_ns = */ 40,
 228:..\..\..\u8g2\u8g2\csrc/u8x8_d_ssd1327.c ****   /* write_pulse_width_ns = */ 60,	
 229:..\..\..\u8g2\u8g2\csrc/u8x8_d_ssd1327.c ****   /* tile_width = */ 12,
 230:..\..\..\u8g2\u8g2\csrc/u8x8_d_ssd1327.c ****   /* tile_hight = */ 8,
 231:..\..\..\u8g2\u8g2\csrc/u8x8_d_ssd1327.c ****   /* default_x_offset = */ 16,		/* changed to 16, issue 1050 */
 232:..\..\..\u8g2\u8g2\csrc/u8x8_d_ssd1327.c ****   /* flipmode_x_offset = */ 16,		/* changed to 16, issue 1050 */
 233:..\..\..\u8g2\u8g2\csrc/u8x8_d_ssd1327.c ****   /* pixel_width = */ 96,
 234:..\..\..\u8g2\u8g2\csrc/u8x8_d_ssd1327.c ****   /* pixel_height = */ 64
 235:..\..\..\u8g2\u8g2\csrc/u8x8_d_ssd1327.c **** };
 236:..\..\..\u8g2\u8g2\csrc/u8x8_d_ssd1327.c **** 
 237:..\..\..\u8g2\u8g2\csrc/u8x8_d_ssd1327.c **** /*
 238:..\..\..\u8g2\u8g2\csrc/u8x8_d_ssd1327.c **** 	Write_Cmd(0xAE);	//Set Display Off     OK
 239:..\..\..\u8g2\u8g2\csrc/u8x8_d_ssd1327.c **** 	Write_Cmd(0x81);	//Contrast Level  OK
 240:..\..\..\u8g2\u8g2\csrc/u8x8_d_ssd1327.c ****   	Write_Cmd(0xdF);	//			VALUE WRONG????
ARM GAS  C:\Users\jesse\AppData\Local\Temp\ccjh0Qlm.s 			page 11


 241:..\..\..\u8g2\u8g2\csrc/u8x8_d_ssd1327.c **** 	Write_Cmd(0xD9);	//Pre-charge Period
 242:..\..\..\u8g2\u8g2\csrc/u8x8_d_ssd1327.c ****   	Write_Cmd(0x00);
 243:..\..\..\u8g2\u8g2\csrc/u8x8_d_ssd1327.c **** 	Write_Cmd(0xA0);	//Set Re-map		OK
 244:..\..\..\u8g2\u8g2\csrc/u8x8_d_ssd1327.c **** 	Write_Cmd(0x42);	//Default Setting	OK
 245:..\..\..\u8g2\u8g2\csrc/u8x8_d_ssd1327.c **** 	Write_Cmd(0xA1);	//Set Display Start Line	OK
 246:..\..\..\u8g2\u8g2\csrc/u8x8_d_ssd1327.c **** 	Write_Cmd(0x00);						OK
 247:..\..\..\u8g2\u8g2\csrc/u8x8_d_ssd1327.c **** 	Write_Cmd(0xA2);	//Set Display Offset		OK
 248:..\..\..\u8g2\u8g2\csrc/u8x8_d_ssd1327.c **** 	Write_Cmd(0x00);						OK
 249:..\..\..\u8g2\u8g2\csrc/u8x8_d_ssd1327.c **** 	Write_Cmd(0xA4);	//Set Display Mode		OK
 250:..\..\..\u8g2\u8g2\csrc/u8x8_d_ssd1327.c **** 	Write_Cmd(0xA8);	//Set Multiplex Ratio     	OK
 251:..\..\..\u8g2\u8g2\csrc/u8x8_d_ssd1327.c **** 	Write_Cmd(0x63);	//Multiplex			OK
 252:..\..\..\u8g2\u8g2\csrc/u8x8_d_ssd1327.c **** 	Write_Cmd(0xAB);	//Set Function SelectionA OK
 253:..\..\..\u8g2\u8g2\csrc/u8x8_d_ssd1327.c **** 	Write_Cmd(0x01);						OK
 254:..\..\..\u8g2\u8g2\csrc/u8x8_d_ssd1327.c **** 	Write_Cmd(0xB1);	//Set Phase Length		OK
 255:..\..\..\u8g2\u8g2\csrc/u8x8_d_ssd1327.c **** 	Write_Cmd(0x47);						OK
 256:..\..\..\u8g2\u8g2\csrc/u8x8_d_ssd1327.c **** 	Write_Cmd(0xB3);	//Set Display Clock Divide Ratio/Oscillator Frequency	OK
 257:..\..\..\u8g2\u8g2\csrc/u8x8_d_ssd1327.c **** 	Write_Cmd(0x00);						OK
 258:..\..\..\u8g2\u8g2\csrc/u8x8_d_ssd1327.c **** 	Write_Cmd(0xBC);	//Set Prechange Voltage	OK
 259:..\..\..\u8g2\u8g2\csrc/u8x8_d_ssd1327.c **** 	Write_Cmd(0x07);						OK
 260:..\..\..\u8g2\u8g2\csrc/u8x8_d_ssd1327.c **** 	Write_Cmd(0xBE);	//Set VCOMH Voltage	OK
 261:..\..\..\u8g2\u8g2\csrc/u8x8_d_ssd1327.c **** 	Write_Cmd(0x07);						OK
 262:..\..\..\u8g2\u8g2\csrc/u8x8_d_ssd1327.c **** 	Write_Cmd(0xB6);	//Set Second Pre-charge period	OK
 263:..\..\..\u8g2\u8g2\csrc/u8x8_d_ssd1327.c **** 	Write_Cmd(0x04);								OK
 264:..\..\..\u8g2\u8g2\csrc/u8x8_d_ssd1327.c **** 	Write_Cmd(0xD5);	//Set Function selection B		OK
 265:..\..\..\u8g2\u8g2\csrc/u8x8_d_ssd1327.c **** 	Write_Cmd(0x62);								OK
 266:..\..\..\u8g2\u8g2\csrc/u8x8_d_ssd1327.c **** 	Write_Cmd(0xAF);	//Set Display On
 267:..\..\..\u8g2\u8g2\csrc/u8x8_d_ssd1327.c **** 
 268:..\..\..\u8g2\u8g2\csrc/u8x8_d_ssd1327.c **** */
 269:..\..\..\u8g2\u8g2\csrc/u8x8_d_ssd1327.c **** 
 270:..\..\..\u8g2\u8g2\csrc/u8x8_d_ssd1327.c **** static const uint8_t u8x8_d_ssd1327_winstar_96x64_init_seq[] = {
 271:..\..\..\u8g2\u8g2\csrc/u8x8_d_ssd1327.c ****     
 272:..\..\..\u8g2\u8g2\csrc/u8x8_d_ssd1327.c ****   U8X8_START_TRANSFER(),             	/* enable chip, delay is part of the transfer start */
 273:..\..\..\u8g2\u8g2\csrc/u8x8_d_ssd1327.c ****   
 274:..\..\..\u8g2\u8g2\csrc/u8x8_d_ssd1327.c ****   U8X8_CA(0x0fd, 0x012),		/* unlock display, usually not required because the display is unlocked a
 275:..\..\..\u8g2\u8g2\csrc/u8x8_d_ssd1327.c ****   U8X8_C(0x0ae),		                /* display off */
 276:..\..\..\u8g2\u8g2\csrc/u8x8_d_ssd1327.c ****   
 277:..\..\..\u8g2\u8g2\csrc/u8x8_d_ssd1327.c ****   U8X8_CA(0x0d9, 0x000),		/* Pre-charge Period ??? */
 278:..\..\..\u8g2\u8g2\csrc/u8x8_d_ssd1327.c ****   
 279:..\..\..\u8g2\u8g2\csrc/u8x8_d_ssd1327.c ****   U8X8_CA(0x0a0, 0x042),		/* remap configuration */
 280:..\..\..\u8g2\u8g2\csrc/u8x8_d_ssd1327.c ****   U8X8_CA(0x0a1, 0x000),		/* display start line */  
 281:..\..\..\u8g2\u8g2\csrc/u8x8_d_ssd1327.c ****   U8X8_CA(0x0a2, 0x000),		/* display offset, shift mapping ram counter */
 282:..\..\..\u8g2\u8g2\csrc/u8x8_d_ssd1327.c ****   
 283:..\..\..\u8g2\u8g2\csrc/u8x8_d_ssd1327.c ****   U8X8_CA(0x0a8, 0x063),		/* multiplex ratio: 63* 1/64 duty */ /* changed to hex, issue 1050 */
 284:..\..\..\u8g2\u8g2\csrc/u8x8_d_ssd1327.c ****   
 285:..\..\..\u8g2\u8g2\csrc/u8x8_d_ssd1327.c ****   U8X8_CA(0x0ab, 0x001),		/* Enable internal VDD regulator (RESET) */
 286:..\..\..\u8g2\u8g2\csrc/u8x8_d_ssd1327.c ****   U8X8_CA(0x081, 0x053),		/* contrast, brightness, 0..128 */
 287:..\..\..\u8g2\u8g2\csrc/u8x8_d_ssd1327.c ****   
 288:..\..\..\u8g2\u8g2\csrc/u8x8_d_ssd1327.c ****   U8X8_CA(0x0b1, 0x047),                    /* phase length */  
 289:..\..\..\u8g2\u8g2\csrc/u8x8_d_ssd1327.c ****   //U8X8_CA(0x0b3, 0x001),		/* set display clock divide ratio/oscillator frequency  */			
 290:..\..\..\u8g2\u8g2\csrc/u8x8_d_ssd1327.c ****   U8X8_CA(0x0b3, 0x000),		/* set display clock divide ratio/oscillator frequency  */			
 291:..\..\..\u8g2\u8g2\csrc/u8x8_d_ssd1327.c ****   
 292:..\..\..\u8g2\u8g2\csrc/u8x8_d_ssd1327.c ****   U8X8_C(0x0b9),				/* use linear lookup table */
 293:..\..\..\u8g2\u8g2\csrc/u8x8_d_ssd1327.c **** 
 294:..\..\..\u8g2\u8g2\csrc/u8x8_d_ssd1327.c ****   U8X8_CA(0x0bc, 0x007),                    /* pre-charge voltage level */
 295:..\..\..\u8g2\u8g2\csrc/u8x8_d_ssd1327.c ****   U8X8_CA(0x0be, 0x007),                     /* VCOMH voltage */
 296:..\..\..\u8g2\u8g2\csrc/u8x8_d_ssd1327.c ****   U8X8_CA(0x0b6, 0x004),		/* second precharge */
 297:..\..\..\u8g2\u8g2\csrc/u8x8_d_ssd1327.c ****   U8X8_CA(0x0d5, 0x062),		/* enable second precharge, internal vsl (bit0 = 0) */
ARM GAS  C:\Users\jesse\AppData\Local\Temp\ccjh0Qlm.s 			page 12


 298:..\..\..\u8g2\u8g2\csrc/u8x8_d_ssd1327.c ****   
 299:..\..\..\u8g2\u8g2\csrc/u8x8_d_ssd1327.c ****   U8X8_C(0x0a4),				/* normal display mode */
 300:..\..\..\u8g2\u8g2\csrc/u8x8_d_ssd1327.c ****     
 301:..\..\..\u8g2\u8g2\csrc/u8x8_d_ssd1327.c ****   U8X8_END_TRANSFER(),             	/* disable chip */
 302:..\..\..\u8g2\u8g2\csrc/u8x8_d_ssd1327.c ****   U8X8_END()             			/* end of sequence */
 303:..\..\..\u8g2\u8g2\csrc/u8x8_d_ssd1327.c **** };
 304:..\..\..\u8g2\u8g2\csrc/u8x8_d_ssd1327.c **** 
 305:..\..\..\u8g2\u8g2\csrc/u8x8_d_ssd1327.c **** uint8_t u8x8_d_ssd1327_ws_96x64(u8x8_t *u8x8, uint8_t msg, uint8_t arg_int, void *arg_ptr)
 306:..\..\..\u8g2\u8g2\csrc/u8x8_d_ssd1327.c **** {
 289              		.loc 1 306 0
 290              		.cfi_startproc
 291              		@ args = 0, pretend = 0, frame = 0
 292              		@ frame_needed = 0, uses_anonymous_args = 0
 293              	.LVL48:
 294 0000 70B5     		push	{r4, r5, r6, lr}
 295              		.cfi_def_cfa_offset 16
 296              		.cfi_offset 4, -16
 297              		.cfi_offset 5, -12
 298              		.cfi_offset 6, -8
 299              		.cfi_offset 14, -4
 300              		.loc 1 306 0
 301 0002 0446     		mov	r4, r0
 302 0004 0D46     		mov	r5, r1
 303 0006 1646     		mov	r6, r2
 307:..\..\..\u8g2\u8g2\csrc/u8x8_d_ssd1327.c ****   if ( u8x8_d_ssd1327_96x96_generic(u8x8, msg, arg_int, arg_ptr) != 0 )
 304              		.loc 1 307 0
 305 0008 FFF7FEFF 		bl	u8x8_d_ssd1327_96x96_generic
 306              	.LVL49:
 307 000c 10BB     		cbnz	r0, .L34
 308:..\..\..\u8g2\u8g2\csrc/u8x8_d_ssd1327.c ****     return 1;
 309:..\..\..\u8g2\u8g2\csrc/u8x8_d_ssd1327.c ****   if ( msg == U8X8_MSG_DISPLAY_SETUP_MEMORY )
 308              		.loc 1 309 0
 309 000e 092D     		cmp	r5, #9
 310 0010 04D1     		bne	.L31
 310:..\..\..\u8g2\u8g2\csrc/u8x8_d_ssd1327.c ****   {
 311:..\..\..\u8g2\u8g2\csrc/u8x8_d_ssd1327.c ****     u8x8_d_helper_display_setup_memory(u8x8, &u8x8_ssd1327_winstar_96x64_display_info);
 311              		.loc 1 311 0
 312 0012 1149     		ldr	r1, .L36
 313 0014 2046     		mov	r0, r4
 314 0016 FFF7FEFF 		bl	u8x8_d_helper_display_setup_memory
 315              	.LVL50:
 316 001a 1BE0     		b	.L34
 317              	.L31:
 312:..\..\..\u8g2\u8g2\csrc/u8x8_d_ssd1327.c ****     return 1;
 313:..\..\..\u8g2\u8g2\csrc/u8x8_d_ssd1327.c ****   }
 314:..\..\..\u8g2\u8g2\csrc/u8x8_d_ssd1327.c ****   else if ( msg == U8X8_MSG_DISPLAY_INIT )
 318              		.loc 1 314 0
 319 001c 0A2D     		cmp	r5, #10
 320 001e 07D1     		bne	.L32
 315:..\..\..\u8g2\u8g2\csrc/u8x8_d_ssd1327.c ****   {
 316:..\..\..\u8g2\u8g2\csrc/u8x8_d_ssd1327.c ****     u8x8_d_helper_display_init(u8x8);
 321              		.loc 1 316 0
 322 0020 2046     		mov	r0, r4
 323 0022 FFF7FEFF 		bl	u8x8_d_helper_display_init
 324              	.LVL51:
 317:..\..\..\u8g2\u8g2\csrc/u8x8_d_ssd1327.c ****     u8x8_cad_SendSequence(u8x8, u8x8_d_ssd1327_winstar_96x64_init_seq);    
 325              		.loc 1 317 0
ARM GAS  C:\Users\jesse\AppData\Local\Temp\ccjh0Qlm.s 			page 13


 326 0026 0D49     		ldr	r1, .L36+4
 327 0028 2046     		mov	r0, r4
 328 002a FFF7FEFF 		bl	u8x8_cad_SendSequence
 329              	.LVL52:
 330 002e 11E0     		b	.L34
 331              	.L32:
 318:..\..\..\u8g2\u8g2\csrc/u8x8_d_ssd1327.c ****     return 1;
 319:..\..\..\u8g2\u8g2\csrc/u8x8_d_ssd1327.c ****   }
 320:..\..\..\u8g2\u8g2\csrc/u8x8_d_ssd1327.c ****   else if  ( msg == U8X8_MSG_DISPLAY_SET_FLIP_MODE )
 332              		.loc 1 320 0
 333 0030 0D2D     		cmp	r5, #13
 334 0032 10D1     		bne	.L30
 321:..\..\..\u8g2\u8g2\csrc/u8x8_d_ssd1327.c ****   {
 322:..\..\..\u8g2\u8g2\csrc/u8x8_d_ssd1327.c ****     if ( arg_int == 0 )
 335              		.loc 1 322 0
 336 0034 36B9     		cbnz	r6, .L33
 323:..\..\..\u8g2\u8g2\csrc/u8x8_d_ssd1327.c ****     {
 324:..\..\..\u8g2\u8g2\csrc/u8x8_d_ssd1327.c ****       u8x8_cad_SendSequence(u8x8, u8x8_d_ssd1327_winstar_96x64_flip0_seq);
 337              		.loc 1 324 0
 338 0036 0A49     		ldr	r1, .L36+8
 339 0038 2046     		mov	r0, r4
 340 003a FFF7FEFF 		bl	u8x8_cad_SendSequence
 341              	.LVL53:
 325:..\..\..\u8g2\u8g2\csrc/u8x8_d_ssd1327.c ****       u8x8->x_offset = u8x8->display_info->default_x_offset;
 342              		.loc 1 325 0
 343 003e 2368     		ldr	r3, [r4]
 344 0040 9B7C     		ldrb	r3, [r3, #18]	@ zero_extendqisi2
 345 0042 05E0     		b	.L35
 346              	.L33:
 326:..\..\..\u8g2\u8g2\csrc/u8x8_d_ssd1327.c ****     }
 327:..\..\..\u8g2\u8g2\csrc/u8x8_d_ssd1327.c ****     else
 328:..\..\..\u8g2\u8g2\csrc/u8x8_d_ssd1327.c ****     {
 329:..\..\..\u8g2\u8g2\csrc/u8x8_d_ssd1327.c ****       u8x8_cad_SendSequence(u8x8, u8x8_d_ssd1327_winstar_96x64_flip1_seq);
 347              		.loc 1 329 0
 348 0044 0749     		ldr	r1, .L36+12
 349 0046 2046     		mov	r0, r4
 350 0048 FFF7FEFF 		bl	u8x8_cad_SendSequence
 351              	.LVL54:
 330:..\..\..\u8g2\u8g2\csrc/u8x8_d_ssd1327.c ****       u8x8->x_offset = u8x8->display_info->flipmode_x_offset;
 352              		.loc 1 330 0
 353 004c 2368     		ldr	r3, [r4]
 354 004e DB7C     		ldrb	r3, [r3, #19]	@ zero_extendqisi2
 355              	.L35:
 356 0050 84F82230 		strb	r3, [r4, #34]
 357              	.L34:
 308:..\..\..\u8g2\u8g2\csrc/u8x8_d_ssd1327.c ****   if ( msg == U8X8_MSG_DISPLAY_SETUP_MEMORY )
 358              		.loc 1 308 0
 359 0054 0120     		movs	r0, #1
 360              	.L30:
 331:..\..\..\u8g2\u8g2\csrc/u8x8_d_ssd1327.c ****     }
 332:..\..\..\u8g2\u8g2\csrc/u8x8_d_ssd1327.c ****     return 1;
 333:..\..\..\u8g2\u8g2\csrc/u8x8_d_ssd1327.c ****   }
 334:..\..\..\u8g2\u8g2\csrc/u8x8_d_ssd1327.c ****   return 0;
 335:..\..\..\u8g2\u8g2\csrc/u8x8_d_ssd1327.c **** }
 361              		.loc 1 335 0
 362 0056 70BD     		pop	{r4, r5, r6, pc}
 363              	.LVL55:
ARM GAS  C:\Users\jesse\AppData\Local\Temp\ccjh0Qlm.s 			page 14


 364              	.L37:
 365              		.align	2
 366              	.L36:
 367 0058 0C000000 		.word	.LANCHOR0+12
 368 005c 24000000 		.word	.LANCHOR0+36
 369 0060 65000000 		.word	.LANCHOR0+101
 370 0064 70000000 		.word	.LANCHOR0+112
 371              		.cfi_endproc
 372              	.LFE2:
 373              		.size	u8x8_d_ssd1327_ws_96x64, .-u8x8_d_ssd1327_ws_96x64
 374              		.section	.text.u8x8_d_ssd1327_seeed_96x96,"ax",%progbits
 375              		.align	1
 376              		.global	u8x8_d_ssd1327_seeed_96x96
 377              		.thumb
 378              		.thumb_func
 379              		.type	u8x8_d_ssd1327_seeed_96x96, %function
 380              	u8x8_d_ssd1327_seeed_96x96:
 381              	.LFB3:
 336:..\..\..\u8g2\u8g2\csrc/u8x8_d_ssd1327.c **** 
 337:..\..\..\u8g2\u8g2\csrc/u8x8_d_ssd1327.c **** 
 338:..\..\..\u8g2\u8g2\csrc/u8x8_d_ssd1327.c **** /*=============================================*/
 339:..\..\..\u8g2\u8g2\csrc/u8x8_d_ssd1327.c **** /*  Seeedstudio Grove OLED 96x96 */
 340:..\..\..\u8g2\u8g2\csrc/u8x8_d_ssd1327.c **** 
 341:..\..\..\u8g2\u8g2\csrc/u8x8_d_ssd1327.c **** static const u8x8_display_info_t u8x8_ssd1327_96x96_display_info =
 342:..\..\..\u8g2\u8g2\csrc/u8x8_d_ssd1327.c **** {
 343:..\..\..\u8g2\u8g2\csrc/u8x8_d_ssd1327.c ****   /* chip_enable_level = */ 0,
 344:..\..\..\u8g2\u8g2\csrc/u8x8_d_ssd1327.c ****   /* chip_disable_level = */ 1,
 345:..\..\..\u8g2\u8g2\csrc/u8x8_d_ssd1327.c ****   
 346:..\..\..\u8g2\u8g2\csrc/u8x8_d_ssd1327.c ****   /* post_chip_enable_wait_ns = */ 20,
 347:..\..\..\u8g2\u8g2\csrc/u8x8_d_ssd1327.c ****   /* pre_chip_disable_wait_ns = */ 10,
 348:..\..\..\u8g2\u8g2\csrc/u8x8_d_ssd1327.c ****   /* reset_pulse_width_ms = */ 100, 	
 349:..\..\..\u8g2\u8g2\csrc/u8x8_d_ssd1327.c ****   /* post_reset_wait_ms = */ 100, 		/**/
 350:..\..\..\u8g2\u8g2\csrc/u8x8_d_ssd1327.c ****   /* sda_setup_time_ns = */ 100,		/* */
 351:..\..\..\u8g2\u8g2\csrc/u8x8_d_ssd1327.c ****   /* sck_pulse_width_ns = */ 100,	/*  */
 352:..\..\..\u8g2\u8g2\csrc/u8x8_d_ssd1327.c ****   /* sck_clock_hz = */ 4000000UL,	/* since Arduino 1.6.0, the SPI bus speed in Hz. Should be  10000
 353:..\..\..\u8g2\u8g2\csrc/u8x8_d_ssd1327.c ****   /* spi_mode = */ 0,		/* active high, rising edge */
 354:..\..\..\u8g2\u8g2\csrc/u8x8_d_ssd1327.c ****   /* i2c_bus_clock_100kHz = */ 1,	/* use 1 instead of 4, because the SSD1327 seems to be very slow 
 355:..\..\..\u8g2\u8g2\csrc/u8x8_d_ssd1327.c ****   /* data_setup_time_ns = */ 40,
 356:..\..\..\u8g2\u8g2\csrc/u8x8_d_ssd1327.c ****   /* write_pulse_width_ns = */ 60,	
 357:..\..\..\u8g2\u8g2\csrc/u8x8_d_ssd1327.c ****   /* tile_width = */ 12,
 358:..\..\..\u8g2\u8g2\csrc/u8x8_d_ssd1327.c ****   /* tile_hight = */ 12,
 359:..\..\..\u8g2\u8g2\csrc/u8x8_d_ssd1327.c ****   /* default_x_offset = */ 16,
 360:..\..\..\u8g2\u8g2\csrc/u8x8_d_ssd1327.c ****   /* flipmode_x_offset = */ 16,		
 361:..\..\..\u8g2\u8g2\csrc/u8x8_d_ssd1327.c ****   /* pixel_width = */ 96,
 362:..\..\..\u8g2\u8g2\csrc/u8x8_d_ssd1327.c ****   /* pixel_height = */ 96
 363:..\..\..\u8g2\u8g2\csrc/u8x8_d_ssd1327.c **** };
 364:..\..\..\u8g2\u8g2\csrc/u8x8_d_ssd1327.c **** 
 365:..\..\..\u8g2\u8g2\csrc/u8x8_d_ssd1327.c **** /*  https://github.com/SeeedDocument/Grove_OLED_1.12/raw/master/resources/LY120-096096.pdf */
 366:..\..\..\u8g2\u8g2\csrc/u8x8_d_ssd1327.c **** /*  http://www.seeedstudio.com/wiki/index.php?title=Twig_-_OLED_96x96 */
 367:..\..\..\u8g2\u8g2\csrc/u8x8_d_ssd1327.c **** /* values from u8glib */
 368:..\..\..\u8g2\u8g2\csrc/u8x8_d_ssd1327.c **** /*
 369:..\..\..\u8g2\u8g2\csrc/u8x8_d_ssd1327.c ****   Re-map setting in Graphic Display Data RAM, command 0x0a0
 370:..\..\..\u8g2\u8g2\csrc/u8x8_d_ssd1327.c ****     Bit 0: Column Address Re-map
 371:..\..\..\u8g2\u8g2\csrc/u8x8_d_ssd1327.c ****     Bit 1: Nibble Re-map
 372:..\..\..\u8g2\u8g2\csrc/u8x8_d_ssd1327.c ****     Bit 2: Horizontal/Vertical Address Increment
 373:..\..\..\u8g2\u8g2\csrc/u8x8_d_ssd1327.c ****     Bit 3: Not used, must be 0
 374:..\..\..\u8g2\u8g2\csrc/u8x8_d_ssd1327.c ****     
ARM GAS  C:\Users\jesse\AppData\Local\Temp\ccjh0Qlm.s 			page 15


 375:..\..\..\u8g2\u8g2\csrc/u8x8_d_ssd1327.c ****     Bit 4: COM Re-map
 376:..\..\..\u8g2\u8g2\csrc/u8x8_d_ssd1327.c ****     Bit 5: Not used, must be 0
 377:..\..\..\u8g2\u8g2\csrc/u8x8_d_ssd1327.c ****     Bit 6: COM Split Odd Even
 378:..\..\..\u8g2\u8g2\csrc/u8x8_d_ssd1327.c ****     Bit 7: Not used, must be 0
 379:..\..\..\u8g2\u8g2\csrc/u8x8_d_ssd1327.c **** */
 380:..\..\..\u8g2\u8g2\csrc/u8x8_d_ssd1327.c **** 
 381:..\..\..\u8g2\u8g2\csrc/u8x8_d_ssd1327.c **** 
 382:..\..\..\u8g2\u8g2\csrc/u8x8_d_ssd1327.c **** static const uint8_t u8x8_d_ssd1327_96x96_init_seq[] = {
 383:..\..\..\u8g2\u8g2\csrc/u8x8_d_ssd1327.c ****     
 384:..\..\..\u8g2\u8g2\csrc/u8x8_d_ssd1327.c ****   U8X8_START_TRANSFER(),             	/* enable chip, delay is part of the transfer start */
 385:..\..\..\u8g2\u8g2\csrc/u8x8_d_ssd1327.c ****   
 386:..\..\..\u8g2\u8g2\csrc/u8x8_d_ssd1327.c ****   U8X8_CA(0x0fd, 0x012),		/* unlock display, usually not required because the display is unlocked a
 387:..\..\..\u8g2\u8g2\csrc/u8x8_d_ssd1327.c ****   U8X8_C(0x0ae),		                /* display off */
 388:..\..\..\u8g2\u8g2\csrc/u8x8_d_ssd1327.c ****   //U8X8_CA(0x0a8, 0x03f),		/* multiplex ratio: 0x03f * 1/64 duty */
 389:..\..\..\u8g2\u8g2\csrc/u8x8_d_ssd1327.c ****   U8X8_CA(0x0a8, 0x05f),		/* multiplex ratio: 0x05f * 1/64 duty */
 390:..\..\..\u8g2\u8g2\csrc/u8x8_d_ssd1327.c ****   U8X8_CA(0x0a1, 0x000),		/* display start line */
 391:..\..\..\u8g2\u8g2\csrc/u8x8_d_ssd1327.c ****   //U8X8_CA(0x0a2, 0x04c),		/* display offset, shift mapping ram counter */
 392:..\..\..\u8g2\u8g2\csrc/u8x8_d_ssd1327.c ****   
 393:..\..\..\u8g2\u8g2\csrc/u8x8_d_ssd1327.c ****   U8X8_CA(0x0a2, 0x020),		/* display offset, shift mapping ram counter */
 394:..\..\..\u8g2\u8g2\csrc/u8x8_d_ssd1327.c ****   U8X8_CA(0x0a0, 0x051),		/* remap configuration */
 395:..\..\..\u8g2\u8g2\csrc/u8x8_d_ssd1327.c ****   
 396:..\..\..\u8g2\u8g2\csrc/u8x8_d_ssd1327.c ****   
 397:..\..\..\u8g2\u8g2\csrc/u8x8_d_ssd1327.c ****   U8X8_CA(0x0ab, 0x001),		/* Enable internal VDD regulator (RESET) */
 398:..\..\..\u8g2\u8g2\csrc/u8x8_d_ssd1327.c ****   //U8X8_CA(0x081, 0x070),		/* contrast, brightness, 0..128 */
 399:..\..\..\u8g2\u8g2\csrc/u8x8_d_ssd1327.c ****   U8X8_CA(0x081, 0x053),		/* contrast, brightness, 0..128 */
 400:..\..\..\u8g2\u8g2\csrc/u8x8_d_ssd1327.c ****   //U8X8_CA(0x0b1, 0x055),                    /* phase length */
 401:..\..\..\u8g2\u8g2\csrc/u8x8_d_ssd1327.c ****   U8X8_CA(0x0b1, 0x051),                    /* phase length */  
 402:..\..\..\u8g2\u8g2\csrc/u8x8_d_ssd1327.c ****   //U8X8_CA(0x0b3, 0x091),		/* set display clock divide ratio/oscillator frequency (set clock as 13
 403:..\..\..\u8g2\u8g2\csrc/u8x8_d_ssd1327.c ****   U8X8_CA(0x0b3, 0x001),		/* set display clock divide ratio/oscillator frequency  */			
 404:..\..\..\u8g2\u8g2\csrc/u8x8_d_ssd1327.c ****   
 405:..\..\..\u8g2\u8g2\csrc/u8x8_d_ssd1327.c ****   //? U8X8_CA(0x0ad, 0x002),		/* master configuration: disable embedded DC-DC, enable internal VCOM
 406:..\..\..\u8g2\u8g2\csrc/u8x8_d_ssd1327.c ****   //? U8X8_C(0x086),				/* full current range (0x084, 0x085, 0x086) */
 407:..\..\..\u8g2\u8g2\csrc/u8x8_d_ssd1327.c ****   
 408:..\..\..\u8g2\u8g2\csrc/u8x8_d_ssd1327.c ****   U8X8_C(0x0b9),				/* use linear lookup table */
 409:..\..\..\u8g2\u8g2\csrc/u8x8_d_ssd1327.c **** 
 410:..\..\..\u8g2\u8g2\csrc/u8x8_d_ssd1327.c ****   //U8X8_CA(0x0bc, 0x010),                    /* pre-charge voltage level */
 411:..\..\..\u8g2\u8g2\csrc/u8x8_d_ssd1327.c ****   U8X8_CA(0x0bc, 0x008),                    /* pre-charge voltage level */
 412:..\..\..\u8g2\u8g2\csrc/u8x8_d_ssd1327.c ****   //U8X8_CA(0x0be, 0x01c),                     /* VCOMH voltage */
 413:..\..\..\u8g2\u8g2\csrc/u8x8_d_ssd1327.c ****   U8X8_CA(0x0be, 0x007),                     /* VCOMH voltage */
 414:..\..\..\u8g2\u8g2\csrc/u8x8_d_ssd1327.c ****   U8X8_CA(0x0b6, 0x001),		/* second precharge */
 415:..\..\..\u8g2\u8g2\csrc/u8x8_d_ssd1327.c ****   U8X8_CA(0x0d5, 0x062),		/* enable second precharge, internal vsl (bit0 = 0) */
 416:..\..\..\u8g2\u8g2\csrc/u8x8_d_ssd1327.c **** 
 417:..\..\..\u8g2\u8g2\csrc/u8x8_d_ssd1327.c **** 
 418:..\..\..\u8g2\u8g2\csrc/u8x8_d_ssd1327.c ****   
 419:..\..\..\u8g2\u8g2\csrc/u8x8_d_ssd1327.c ****   U8X8_C(0x0a4),				/* normal display mode */
 420:..\..\..\u8g2\u8g2\csrc/u8x8_d_ssd1327.c ****     
 421:..\..\..\u8g2\u8g2\csrc/u8x8_d_ssd1327.c ****   U8X8_END_TRANSFER(),             	/* disable chip */
 422:..\..\..\u8g2\u8g2\csrc/u8x8_d_ssd1327.c ****   U8X8_END()             			/* end of sequence */
 423:..\..\..\u8g2\u8g2\csrc/u8x8_d_ssd1327.c **** };
 424:..\..\..\u8g2\u8g2\csrc/u8x8_d_ssd1327.c **** 
 425:..\..\..\u8g2\u8g2\csrc/u8x8_d_ssd1327.c **** 
 426:..\..\..\u8g2\u8g2\csrc/u8x8_d_ssd1327.c **** 
 427:..\..\..\u8g2\u8g2\csrc/u8x8_d_ssd1327.c **** 
 428:..\..\..\u8g2\u8g2\csrc/u8x8_d_ssd1327.c **** uint8_t u8x8_d_ssd1327_seeed_96x96(u8x8_t *u8x8, uint8_t msg, uint8_t arg_int, void *arg_ptr)
 429:..\..\..\u8g2\u8g2\csrc/u8x8_d_ssd1327.c **** {
 382              		.loc 1 429 0
 383              		.cfi_startproc
ARM GAS  C:\Users\jesse\AppData\Local\Temp\ccjh0Qlm.s 			page 16


 384              		@ args = 0, pretend = 0, frame = 0
 385              		@ frame_needed = 0, uses_anonymous_args = 0
 386              	.LVL56:
 387 0000 70B5     		push	{r4, r5, r6, lr}
 388              		.cfi_def_cfa_offset 16
 389              		.cfi_offset 4, -16
 390              		.cfi_offset 5, -12
 391              		.cfi_offset 6, -8
 392              		.cfi_offset 14, -4
 393              		.loc 1 429 0
 394 0002 0446     		mov	r4, r0
 395 0004 0D46     		mov	r5, r1
 396 0006 1646     		mov	r6, r2
 430:..\..\..\u8g2\u8g2\csrc/u8x8_d_ssd1327.c ****   if ( u8x8_d_ssd1327_96x96_generic(u8x8, msg, arg_int, arg_ptr) != 0 )
 397              		.loc 1 430 0
 398 0008 FFF7FEFF 		bl	u8x8_d_ssd1327_96x96_generic
 399              	.LVL57:
 400 000c 10BB     		cbnz	r0, .L43
 431:..\..\..\u8g2\u8g2\csrc/u8x8_d_ssd1327.c ****     return 1;
 432:..\..\..\u8g2\u8g2\csrc/u8x8_d_ssd1327.c ****   if ( msg == U8X8_MSG_DISPLAY_SETUP_MEMORY )
 401              		.loc 1 432 0
 402 000e 092D     		cmp	r5, #9
 403 0010 04D1     		bne	.L40
 433:..\..\..\u8g2\u8g2\csrc/u8x8_d_ssd1327.c ****   {
 434:..\..\..\u8g2\u8g2\csrc/u8x8_d_ssd1327.c ****     u8x8_d_helper_display_setup_memory(u8x8, &u8x8_ssd1327_96x96_display_info);
 404              		.loc 1 434 0
 405 0012 1149     		ldr	r1, .L45
 406 0014 2046     		mov	r0, r4
 407 0016 FFF7FEFF 		bl	u8x8_d_helper_display_setup_memory
 408              	.LVL58:
 409 001a 1BE0     		b	.L43
 410              	.L40:
 435:..\..\..\u8g2\u8g2\csrc/u8x8_d_ssd1327.c ****     return 1;
 436:..\..\..\u8g2\u8g2\csrc/u8x8_d_ssd1327.c ****   }
 437:..\..\..\u8g2\u8g2\csrc/u8x8_d_ssd1327.c ****   else if ( msg == U8X8_MSG_DISPLAY_INIT )
 411              		.loc 1 437 0
 412 001c 0A2D     		cmp	r5, #10
 413 001e 07D1     		bne	.L41
 438:..\..\..\u8g2\u8g2\csrc/u8x8_d_ssd1327.c ****   {
 439:..\..\..\u8g2\u8g2\csrc/u8x8_d_ssd1327.c ****     u8x8_d_helper_display_init(u8x8);
 414              		.loc 1 439 0
 415 0020 2046     		mov	r0, r4
 416 0022 FFF7FEFF 		bl	u8x8_d_helper_display_init
 417              	.LVL59:
 440:..\..\..\u8g2\u8g2\csrc/u8x8_d_ssd1327.c ****     u8x8_cad_SendSequence(u8x8, u8x8_d_ssd1327_96x96_init_seq);    
 418              		.loc 1 440 0
 419 0026 0D49     		ldr	r1, .L45+4
 420 0028 2046     		mov	r0, r4
 421 002a FFF7FEFF 		bl	u8x8_cad_SendSequence
 422              	.LVL60:
 423 002e 11E0     		b	.L43
 424              	.L41:
 441:..\..\..\u8g2\u8g2\csrc/u8x8_d_ssd1327.c ****     return 1;
 442:..\..\..\u8g2\u8g2\csrc/u8x8_d_ssd1327.c ****   }
 443:..\..\..\u8g2\u8g2\csrc/u8x8_d_ssd1327.c ****   else if  ( msg == U8X8_MSG_DISPLAY_SET_FLIP_MODE )
 425              		.loc 1 443 0
 426 0030 0D2D     		cmp	r5, #13
ARM GAS  C:\Users\jesse\AppData\Local\Temp\ccjh0Qlm.s 			page 17


 427 0032 10D1     		bne	.L39
 444:..\..\..\u8g2\u8g2\csrc/u8x8_d_ssd1327.c ****   {
 445:..\..\..\u8g2\u8g2\csrc/u8x8_d_ssd1327.c ****     if ( arg_int == 0 )
 428              		.loc 1 445 0
 429 0034 36B9     		cbnz	r6, .L42
 446:..\..\..\u8g2\u8g2\csrc/u8x8_d_ssd1327.c ****     {
 447:..\..\..\u8g2\u8g2\csrc/u8x8_d_ssd1327.c ****       u8x8_cad_SendSequence(u8x8, u8x8_d_ssd1327_seeed_96x96_flip0_seq);
 430              		.loc 1 447 0
 431 0036 0A49     		ldr	r1, .L45+8
 432 0038 2046     		mov	r0, r4
 433 003a FFF7FEFF 		bl	u8x8_cad_SendSequence
 434              	.LVL61:
 448:..\..\..\u8g2\u8g2\csrc/u8x8_d_ssd1327.c ****       u8x8->x_offset = u8x8->display_info->default_x_offset;
 435              		.loc 1 448 0
 436 003e 2368     		ldr	r3, [r4]
 437 0040 9B7C     		ldrb	r3, [r3, #18]	@ zero_extendqisi2
 438 0042 05E0     		b	.L44
 439              	.L42:
 449:..\..\..\u8g2\u8g2\csrc/u8x8_d_ssd1327.c ****     }
 450:..\..\..\u8g2\u8g2\csrc/u8x8_d_ssd1327.c ****     else
 451:..\..\..\u8g2\u8g2\csrc/u8x8_d_ssd1327.c ****     {
 452:..\..\..\u8g2\u8g2\csrc/u8x8_d_ssd1327.c ****       u8x8_cad_SendSequence(u8x8, u8x8_d_ssd1327_seeed_96x96_flip1_seq);
 440              		.loc 1 452 0
 441 0044 0749     		ldr	r1, .L45+12
 442 0046 2046     		mov	r0, r4
 443 0048 FFF7FEFF 		bl	u8x8_cad_SendSequence
 444              	.LVL62:
 453:..\..\..\u8g2\u8g2\csrc/u8x8_d_ssd1327.c ****       u8x8->x_offset = u8x8->display_info->flipmode_x_offset;
 445              		.loc 1 453 0
 446 004c 2368     		ldr	r3, [r4]
 447 004e DB7C     		ldrb	r3, [r3, #19]	@ zero_extendqisi2
 448              	.L44:
 449 0050 84F82230 		strb	r3, [r4, #34]
 450              	.L43:
 431:..\..\..\u8g2\u8g2\csrc/u8x8_d_ssd1327.c ****   if ( msg == U8X8_MSG_DISPLAY_SETUP_MEMORY )
 451              		.loc 1 431 0
 452 0054 0120     		movs	r0, #1
 453              	.L39:
 454:..\..\..\u8g2\u8g2\csrc/u8x8_d_ssd1327.c ****     }
 455:..\..\..\u8g2\u8g2\csrc/u8x8_d_ssd1327.c ****     return 1;
 456:..\..\..\u8g2\u8g2\csrc/u8x8_d_ssd1327.c ****   }
 457:..\..\..\u8g2\u8g2\csrc/u8x8_d_ssd1327.c ****   return 0;
 458:..\..\..\u8g2\u8g2\csrc/u8x8_d_ssd1327.c **** }
 454              		.loc 1 458 0
 455 0056 70BD     		pop	{r4, r5, r6, pc}
 456              	.LVL63:
 457              	.L46:
 458              		.align	2
 459              	.L45:
 460 0058 7C000000 		.word	.LANCHOR0+124
 461 005c 94000000 		.word	.LANCHOR0+148
 462 0060 D1000000 		.word	.LANCHOR0+209
 463 0064 DC000000 		.word	.LANCHOR0+220
 464              		.cfi_endproc
 465              	.LFE3:
 466              		.size	u8x8_d_ssd1327_seeed_96x96, .-u8x8_d_ssd1327_seeed_96x96
 467              		.section	.text.u8x8_d_ssd1327_ea_w128128,"ax",%progbits
ARM GAS  C:\Users\jesse\AppData\Local\Temp\ccjh0Qlm.s 			page 18


 468              		.align	1
 469              		.global	u8x8_d_ssd1327_ea_w128128
 470              		.thumb
 471              		.thumb_func
 472              		.type	u8x8_d_ssd1327_ea_w128128, %function
 473              	u8x8_d_ssd1327_ea_w128128:
 474              	.LFB4:
 459:..\..\..\u8g2\u8g2\csrc/u8x8_d_ssd1327.c **** 
 460:..\..\..\u8g2\u8g2\csrc/u8x8_d_ssd1327.c **** /*=============================================*/
 461:..\..\..\u8g2\u8g2\csrc/u8x8_d_ssd1327.c **** /*  EA W128128 round OLED 128x128 */
 462:..\..\..\u8g2\u8g2\csrc/u8x8_d_ssd1327.c **** /* issue #641 */
 463:..\..\..\u8g2\u8g2\csrc/u8x8_d_ssd1327.c **** /* https://www.lcd-module.de/fileadmin/eng/pdf/grafik/W128128-XR.pdf */
 464:..\..\..\u8g2\u8g2\csrc/u8x8_d_ssd1327.c **** 
 465:..\..\..\u8g2\u8g2\csrc/u8x8_d_ssd1327.c **** static const u8x8_display_info_t u8x8_ssd1327_ea_w128128_display_info =
 466:..\..\..\u8g2\u8g2\csrc/u8x8_d_ssd1327.c **** {
 467:..\..\..\u8g2\u8g2\csrc/u8x8_d_ssd1327.c ****   /* chip_enable_level = */ 0,
 468:..\..\..\u8g2\u8g2\csrc/u8x8_d_ssd1327.c ****   /* chip_disable_level = */ 1,
 469:..\..\..\u8g2\u8g2\csrc/u8x8_d_ssd1327.c ****   
 470:..\..\..\u8g2\u8g2\csrc/u8x8_d_ssd1327.c ****   /* post_chip_enable_wait_ns = */ 20,
 471:..\..\..\u8g2\u8g2\csrc/u8x8_d_ssd1327.c ****   /* pre_chip_disable_wait_ns = */ 10,
 472:..\..\..\u8g2\u8g2\csrc/u8x8_d_ssd1327.c ****   /* reset_pulse_width_ms = */ 100, 	
 473:..\..\..\u8g2\u8g2\csrc/u8x8_d_ssd1327.c ****   /* post_reset_wait_ms = */ 100, 		/**/
 474:..\..\..\u8g2\u8g2\csrc/u8x8_d_ssd1327.c ****   /* sda_setup_time_ns = */ 100,		/* */
 475:..\..\..\u8g2\u8g2\csrc/u8x8_d_ssd1327.c ****   /* sck_pulse_width_ns = */ 100,	/*  */
 476:..\..\..\u8g2\u8g2\csrc/u8x8_d_ssd1327.c ****   /* sck_clock_hz = */ 4000000UL,	/* since Arduino 1.6.0, the SPI bus speed in Hz. Should be  10000
 477:..\..\..\u8g2\u8g2\csrc/u8x8_d_ssd1327.c ****   /* spi_mode = */ 0,		/* active high, rising edge */
 478:..\..\..\u8g2\u8g2\csrc/u8x8_d_ssd1327.c ****   /* i2c_bus_clock_100kHz = */ 1,	/* use 1 instead of 4, because the SSD1327 seems to be very slow 
 479:..\..\..\u8g2\u8g2\csrc/u8x8_d_ssd1327.c ****   /* data_setup_time_ns = */ 40,
 480:..\..\..\u8g2\u8g2\csrc/u8x8_d_ssd1327.c ****   /* write_pulse_width_ns = */ 60,	
 481:..\..\..\u8g2\u8g2\csrc/u8x8_d_ssd1327.c ****   /* tile_width = */ 16,
 482:..\..\..\u8g2\u8g2\csrc/u8x8_d_ssd1327.c ****   /* tile_hight = */ 16,
 483:..\..\..\u8g2\u8g2\csrc/u8x8_d_ssd1327.c ****   /* default_x_offset = */ 0,
 484:..\..\..\u8g2\u8g2\csrc/u8x8_d_ssd1327.c ****   /* flipmode_x_offset = */ 0,		
 485:..\..\..\u8g2\u8g2\csrc/u8x8_d_ssd1327.c ****   /* pixel_width = */ 128,
 486:..\..\..\u8g2\u8g2\csrc/u8x8_d_ssd1327.c ****   /* pixel_height = */ 128
 487:..\..\..\u8g2\u8g2\csrc/u8x8_d_ssd1327.c **** };
 488:..\..\..\u8g2\u8g2\csrc/u8x8_d_ssd1327.c **** 
 489:..\..\..\u8g2\u8g2\csrc/u8x8_d_ssd1327.c **** /* this is a copy of the init sequence for the seeed 96x96 oled */
 490:..\..\..\u8g2\u8g2\csrc/u8x8_d_ssd1327.c **** static const uint8_t u8x8_d_ssd1327_ea_w128128_init_seq[] = {
 491:..\..\..\u8g2\u8g2\csrc/u8x8_d_ssd1327.c ****     
 492:..\..\..\u8g2\u8g2\csrc/u8x8_d_ssd1327.c ****   U8X8_START_TRANSFER(),             	/* enable chip, delay is part of the transfer start */
 493:..\..\..\u8g2\u8g2\csrc/u8x8_d_ssd1327.c ****   
 494:..\..\..\u8g2\u8g2\csrc/u8x8_d_ssd1327.c ****   U8X8_CA(0x0fd, 0x012),		/* unlock display, usually not required because the display is unlocked a
 495:..\..\..\u8g2\u8g2\csrc/u8x8_d_ssd1327.c ****   U8X8_C(0x0ae),		                /* display off */
 496:..\..\..\u8g2\u8g2\csrc/u8x8_d_ssd1327.c ****   //U8X8_CA(0x0a8, 0x03f),		/* multiplex ratio: 0x03f * 1/64 duty */
 497:..\..\..\u8g2\u8g2\csrc/u8x8_d_ssd1327.c ****   U8X8_CA(0x0a8, 0x05f),		/* multiplex ratio: 0x05f * 1/64 duty */
 498:..\..\..\u8g2\u8g2\csrc/u8x8_d_ssd1327.c ****   U8X8_CA(0x0a1, 0x000),		/* display start line */
 499:..\..\..\u8g2\u8g2\csrc/u8x8_d_ssd1327.c ****   //U8X8_CA(0x0a2, 0x04c),		/* display offset, shift mapping ram counter */
 500:..\..\..\u8g2\u8g2\csrc/u8x8_d_ssd1327.c ****   
 501:..\..\..\u8g2\u8g2\csrc/u8x8_d_ssd1327.c ****   U8X8_CA(0x0a2, 0x010),		/* display offset, shift mapping ram counter */
 502:..\..\..\u8g2\u8g2\csrc/u8x8_d_ssd1327.c ****   U8X8_CA(0x0a0, 0x051),		/* remap configuration */
 503:..\..\..\u8g2\u8g2\csrc/u8x8_d_ssd1327.c ****   
 504:..\..\..\u8g2\u8g2\csrc/u8x8_d_ssd1327.c ****   
 505:..\..\..\u8g2\u8g2\csrc/u8x8_d_ssd1327.c ****   U8X8_CA(0x0ab, 0x001),		/* Enable internal VDD regulator (RESET) */
 506:..\..\..\u8g2\u8g2\csrc/u8x8_d_ssd1327.c ****   //U8X8_CA(0x081, 0x070),		/* contrast, brightness, 0..128 */
 507:..\..\..\u8g2\u8g2\csrc/u8x8_d_ssd1327.c ****   U8X8_CA(0x081, 0x053),		/* contrast, brightness, 0..128 */
 508:..\..\..\u8g2\u8g2\csrc/u8x8_d_ssd1327.c ****   //U8X8_CA(0x0b1, 0x055),                    /* phase length */
ARM GAS  C:\Users\jesse\AppData\Local\Temp\ccjh0Qlm.s 			page 19


 509:..\..\..\u8g2\u8g2\csrc/u8x8_d_ssd1327.c ****   U8X8_CA(0x0b1, 0x051),                    /* phase length */  
 510:..\..\..\u8g2\u8g2\csrc/u8x8_d_ssd1327.c ****   //U8X8_CA(0x0b3, 0x091),		/* set display clock divide ratio/oscillator frequency (set clock as 13
 511:..\..\..\u8g2\u8g2\csrc/u8x8_d_ssd1327.c ****   U8X8_CA(0x0b3, 0x001),		/* set display clock divide ratio/oscillator frequency  */			
 512:..\..\..\u8g2\u8g2\csrc/u8x8_d_ssd1327.c ****   
 513:..\..\..\u8g2\u8g2\csrc/u8x8_d_ssd1327.c ****   //? U8X8_CA(0x0ad, 0x002),		/* master configuration: disable embedded DC-DC, enable internal VCOM
 514:..\..\..\u8g2\u8g2\csrc/u8x8_d_ssd1327.c ****   //? U8X8_C(0x086),				/* full current range (0x084, 0x085, 0x086) */
 515:..\..\..\u8g2\u8g2\csrc/u8x8_d_ssd1327.c ****   
 516:..\..\..\u8g2\u8g2\csrc/u8x8_d_ssd1327.c ****   U8X8_C(0x0b9),				/* use linear lookup table */
 517:..\..\..\u8g2\u8g2\csrc/u8x8_d_ssd1327.c **** 
 518:..\..\..\u8g2\u8g2\csrc/u8x8_d_ssd1327.c ****   //U8X8_CA(0x0bc, 0x010),                    /* pre-charge voltage level */
 519:..\..\..\u8g2\u8g2\csrc/u8x8_d_ssd1327.c ****   U8X8_CA(0x0bc, 0x008),                    /* pre-charge voltage level */
 520:..\..\..\u8g2\u8g2\csrc/u8x8_d_ssd1327.c ****   //U8X8_CA(0x0be, 0x01c),                     /* VCOMH voltage */
 521:..\..\..\u8g2\u8g2\csrc/u8x8_d_ssd1327.c ****   U8X8_CA(0x0be, 0x007),                     /* VCOMH voltage */
 522:..\..\..\u8g2\u8g2\csrc/u8x8_d_ssd1327.c ****   U8X8_CA(0x0b6, 0x001),		/* second precharge */
 523:..\..\..\u8g2\u8g2\csrc/u8x8_d_ssd1327.c ****   U8X8_CA(0x0d5, 0x062),		/* enable second precharge, internal vsl (bit0 = 0) */
 524:..\..\..\u8g2\u8g2\csrc/u8x8_d_ssd1327.c ****   
 525:..\..\..\u8g2\u8g2\csrc/u8x8_d_ssd1327.c ****   U8X8_C(0x0a4),				/* normal display mode */
 526:..\..\..\u8g2\u8g2\csrc/u8x8_d_ssd1327.c ****     
 527:..\..\..\u8g2\u8g2\csrc/u8x8_d_ssd1327.c ****   U8X8_END_TRANSFER(),             	/* disable chip */
 528:..\..\..\u8g2\u8g2\csrc/u8x8_d_ssd1327.c ****   U8X8_END()             			/* end of sequence */
 529:..\..\..\u8g2\u8g2\csrc/u8x8_d_ssd1327.c **** };
 530:..\..\..\u8g2\u8g2\csrc/u8x8_d_ssd1327.c **** 
 531:..\..\..\u8g2\u8g2\csrc/u8x8_d_ssd1327.c **** 
 532:..\..\..\u8g2\u8g2\csrc/u8x8_d_ssd1327.c **** 
 533:..\..\..\u8g2\u8g2\csrc/u8x8_d_ssd1327.c **** static const uint8_t u8x8_d_ssd1327_ea_w128128_flip0_seq[] = {
 534:..\..\..\u8g2\u8g2\csrc/u8x8_d_ssd1327.c ****   U8X8_START_TRANSFER(),             	/* enable chip, delay is part of the transfer start */
 535:..\..\..\u8g2\u8g2\csrc/u8x8_d_ssd1327.c ****   U8X8_CA(0x0a2, 0x000),		/* display offset, shift mapping ram counter */
 536:..\..\..\u8g2\u8g2\csrc/u8x8_d_ssd1327.c ****   U8X8_CA(0x0a0, 0x051),		/* remap configuration */
 537:..\..\..\u8g2\u8g2\csrc/u8x8_d_ssd1327.c ****   U8X8_END_TRANSFER(),             	/* disable chip */
 538:..\..\..\u8g2\u8g2\csrc/u8x8_d_ssd1327.c ****   U8X8_END()             			/* end of sequence */
 539:..\..\..\u8g2\u8g2\csrc/u8x8_d_ssd1327.c **** };
 540:..\..\..\u8g2\u8g2\csrc/u8x8_d_ssd1327.c **** 
 541:..\..\..\u8g2\u8g2\csrc/u8x8_d_ssd1327.c **** static const uint8_t u8x8_d_ssd1327_ea_w128128_flip1_seq[] = {
 542:..\..\..\u8g2\u8g2\csrc/u8x8_d_ssd1327.c ****   U8X8_START_TRANSFER(),             	/* enable chip, delay is part of the transfer start */
 543:..\..\..\u8g2\u8g2\csrc/u8x8_d_ssd1327.c ****   U8X8_CA(0x0a2, 0x000),		/* display offset, shift mapping ram counter */
 544:..\..\..\u8g2\u8g2\csrc/u8x8_d_ssd1327.c ****   U8X8_CA(0x0a0, 0x042),		/* remap configuration */
 545:..\..\..\u8g2\u8g2\csrc/u8x8_d_ssd1327.c ****   U8X8_END_TRANSFER(),             	/* disable chip */
 546:..\..\..\u8g2\u8g2\csrc/u8x8_d_ssd1327.c ****   U8X8_END()             			/* end of sequence */
 547:..\..\..\u8g2\u8g2\csrc/u8x8_d_ssd1327.c **** };
 548:..\..\..\u8g2\u8g2\csrc/u8x8_d_ssd1327.c **** 
 549:..\..\..\u8g2\u8g2\csrc/u8x8_d_ssd1327.c **** uint8_t u8x8_d_ssd1327_ea_w128128(u8x8_t *u8x8, uint8_t msg, uint8_t arg_int, void *arg_ptr)
 550:..\..\..\u8g2\u8g2\csrc/u8x8_d_ssd1327.c **** {
 475              		.loc 1 550 0
 476              		.cfi_startproc
 477              		@ args = 0, pretend = 0, frame = 0
 478              		@ frame_needed = 0, uses_anonymous_args = 0
 479              	.LVL64:
 480 0000 70B5     		push	{r4, r5, r6, lr}
 481              		.cfi_def_cfa_offset 16
 482              		.cfi_offset 4, -16
 483              		.cfi_offset 5, -12
 484              		.cfi_offset 6, -8
 485              		.cfi_offset 14, -4
 486              		.loc 1 550 0
 487 0002 0446     		mov	r4, r0
 488 0004 0D46     		mov	r5, r1
 489 0006 1646     		mov	r6, r2
ARM GAS  C:\Users\jesse\AppData\Local\Temp\ccjh0Qlm.s 			page 20


 551:..\..\..\u8g2\u8g2\csrc/u8x8_d_ssd1327.c ****   if ( u8x8_d_ssd1327_96x96_generic(u8x8, msg, arg_int, arg_ptr) != 0 )
 490              		.loc 1 551 0
 491 0008 FFF7FEFF 		bl	u8x8_d_ssd1327_96x96_generic
 492              	.LVL65:
 493 000c 10BB     		cbnz	r0, .L52
 552:..\..\..\u8g2\u8g2\csrc/u8x8_d_ssd1327.c ****     return 1;
 553:..\..\..\u8g2\u8g2\csrc/u8x8_d_ssd1327.c ****   if ( msg == U8X8_MSG_DISPLAY_SETUP_MEMORY )
 494              		.loc 1 553 0
 495 000e 092D     		cmp	r5, #9
 496 0010 04D1     		bne	.L49
 554:..\..\..\u8g2\u8g2\csrc/u8x8_d_ssd1327.c ****   {
 555:..\..\..\u8g2\u8g2\csrc/u8x8_d_ssd1327.c ****     u8x8_d_helper_display_setup_memory(u8x8, &u8x8_ssd1327_ea_w128128_display_info);
 497              		.loc 1 555 0
 498 0012 1149     		ldr	r1, .L54
 499 0014 2046     		mov	r0, r4
 500 0016 FFF7FEFF 		bl	u8x8_d_helper_display_setup_memory
 501              	.LVL66:
 502 001a 1BE0     		b	.L52
 503              	.L49:
 556:..\..\..\u8g2\u8g2\csrc/u8x8_d_ssd1327.c ****     return 1;
 557:..\..\..\u8g2\u8g2\csrc/u8x8_d_ssd1327.c ****   }
 558:..\..\..\u8g2\u8g2\csrc/u8x8_d_ssd1327.c ****   else if ( msg == U8X8_MSG_DISPLAY_INIT )
 504              		.loc 1 558 0
 505 001c 0A2D     		cmp	r5, #10
 506 001e 07D1     		bne	.L50
 559:..\..\..\u8g2\u8g2\csrc/u8x8_d_ssd1327.c ****   {
 560:..\..\..\u8g2\u8g2\csrc/u8x8_d_ssd1327.c ****     u8x8_d_helper_display_init(u8x8);
 507              		.loc 1 560 0
 508 0020 2046     		mov	r0, r4
 509 0022 FFF7FEFF 		bl	u8x8_d_helper_display_init
 510              	.LVL67:
 561:..\..\..\u8g2\u8g2\csrc/u8x8_d_ssd1327.c ****     u8x8_cad_SendSequence(u8x8, u8x8_d_ssd1327_ea_w128128_init_seq);    
 511              		.loc 1 561 0
 512 0026 0D49     		ldr	r1, .L54+4
 513 0028 2046     		mov	r0, r4
 514 002a FFF7FEFF 		bl	u8x8_cad_SendSequence
 515              	.LVL68:
 516 002e 11E0     		b	.L52
 517              	.L50:
 562:..\..\..\u8g2\u8g2\csrc/u8x8_d_ssd1327.c ****     return 1;
 563:..\..\..\u8g2\u8g2\csrc/u8x8_d_ssd1327.c ****   }
 564:..\..\..\u8g2\u8g2\csrc/u8x8_d_ssd1327.c ****   else if  ( msg == U8X8_MSG_DISPLAY_SET_FLIP_MODE )
 518              		.loc 1 564 0
 519 0030 0D2D     		cmp	r5, #13
 520 0032 10D1     		bne	.L48
 565:..\..\..\u8g2\u8g2\csrc/u8x8_d_ssd1327.c ****   {
 566:..\..\..\u8g2\u8g2\csrc/u8x8_d_ssd1327.c ****     if ( arg_int == 0 )
 521              		.loc 1 566 0
 522 0034 36B9     		cbnz	r6, .L51
 567:..\..\..\u8g2\u8g2\csrc/u8x8_d_ssd1327.c ****     {
 568:..\..\..\u8g2\u8g2\csrc/u8x8_d_ssd1327.c ****       u8x8_cad_SendSequence(u8x8, u8x8_d_ssd1327_ea_w128128_flip0_seq);
 523              		.loc 1 568 0
 524 0036 0A49     		ldr	r1, .L54+8
 525 0038 2046     		mov	r0, r4
 526 003a FFF7FEFF 		bl	u8x8_cad_SendSequence
 527              	.LVL69:
 569:..\..\..\u8g2\u8g2\csrc/u8x8_d_ssd1327.c ****       u8x8->x_offset = u8x8->display_info->default_x_offset;
ARM GAS  C:\Users\jesse\AppData\Local\Temp\ccjh0Qlm.s 			page 21


 528              		.loc 1 569 0
 529 003e 2368     		ldr	r3, [r4]
 530 0040 9B7C     		ldrb	r3, [r3, #18]	@ zero_extendqisi2
 531 0042 05E0     		b	.L53
 532              	.L51:
 570:..\..\..\u8g2\u8g2\csrc/u8x8_d_ssd1327.c ****     }
 571:..\..\..\u8g2\u8g2\csrc/u8x8_d_ssd1327.c ****     else
 572:..\..\..\u8g2\u8g2\csrc/u8x8_d_ssd1327.c ****     {
 573:..\..\..\u8g2\u8g2\csrc/u8x8_d_ssd1327.c ****       u8x8_cad_SendSequence(u8x8, u8x8_d_ssd1327_ea_w128128_flip1_seq);
 533              		.loc 1 573 0
 534 0044 0749     		ldr	r1, .L54+12
 535 0046 2046     		mov	r0, r4
 536 0048 FFF7FEFF 		bl	u8x8_cad_SendSequence
 537              	.LVL70:
 574:..\..\..\u8g2\u8g2\csrc/u8x8_d_ssd1327.c ****       u8x8->x_offset = u8x8->display_info->flipmode_x_offset;
 538              		.loc 1 574 0
 539 004c 2368     		ldr	r3, [r4]
 540 004e DB7C     		ldrb	r3, [r3, #19]	@ zero_extendqisi2
 541              	.L53:
 542 0050 84F82230 		strb	r3, [r4, #34]
 543              	.L52:
 552:..\..\..\u8g2\u8g2\csrc/u8x8_d_ssd1327.c ****   if ( msg == U8X8_MSG_DISPLAY_SETUP_MEMORY )
 544              		.loc 1 552 0
 545 0054 0120     		movs	r0, #1
 546              	.L48:
 575:..\..\..\u8g2\u8g2\csrc/u8x8_d_ssd1327.c ****     }
 576:..\..\..\u8g2\u8g2\csrc/u8x8_d_ssd1327.c ****     return 1;
 577:..\..\..\u8g2\u8g2\csrc/u8x8_d_ssd1327.c ****   }
 578:..\..\..\u8g2\u8g2\csrc/u8x8_d_ssd1327.c ****   return 0;
 579:..\..\..\u8g2\u8g2\csrc/u8x8_d_ssd1327.c **** }
 547              		.loc 1 579 0
 548 0056 70BD     		pop	{r4, r5, r6, pc}
 549              	.LVL71:
 550              	.L55:
 551              		.align	2
 552              	.L54:
 553 0058 E8000000 		.word	.LANCHOR0+232
 554 005c 00010000 		.word	.LANCHOR0+256
 555 0060 3D010000 		.word	.LANCHOR0+317
 556 0064 48010000 		.word	.LANCHOR0+328
 557              		.cfi_endproc
 558              	.LFE4:
 559              		.size	u8x8_d_ssd1327_ea_w128128, .-u8x8_d_ssd1327_ea_w128128
 560              		.section	.text.u8x8_d_ssd1327_midas_128x128,"ax",%progbits
 561              		.align	1
 562              		.global	u8x8_d_ssd1327_midas_128x128
 563              		.thumb
 564              		.thumb_func
 565              		.type	u8x8_d_ssd1327_midas_128x128, %function
 566              	u8x8_d_ssd1327_midas_128x128:
 567              	.LFB5:
 580:..\..\..\u8g2\u8g2\csrc/u8x8_d_ssd1327.c **** 
 581:..\..\..\u8g2\u8g2\csrc/u8x8_d_ssd1327.c **** /*=============================================*/
 582:..\..\..\u8g2\u8g2\csrc/u8x8_d_ssd1327.c **** /*  MIDAS MCOT128128C1V-YM 128x128 Module */
 583:..\..\..\u8g2\u8g2\csrc/u8x8_d_ssd1327.c **** 
 584:..\..\..\u8g2\u8g2\csrc/u8x8_d_ssd1327.c **** 
 585:..\..\..\u8g2\u8g2\csrc/u8x8_d_ssd1327.c **** static const u8x8_display_info_t u8x8_ssd1327_128x128_display_info =
ARM GAS  C:\Users\jesse\AppData\Local\Temp\ccjh0Qlm.s 			page 22


 586:..\..\..\u8g2\u8g2\csrc/u8x8_d_ssd1327.c **** {
 587:..\..\..\u8g2\u8g2\csrc/u8x8_d_ssd1327.c ****   /* chip_enable_level = */ 0,
 588:..\..\..\u8g2\u8g2\csrc/u8x8_d_ssd1327.c ****   /* chip_disable_level = */ 1,
 589:..\..\..\u8g2\u8g2\csrc/u8x8_d_ssd1327.c ****   
 590:..\..\..\u8g2\u8g2\csrc/u8x8_d_ssd1327.c ****   /* post_chip_enable_wait_ns = */ 20,
 591:..\..\..\u8g2\u8g2\csrc/u8x8_d_ssd1327.c ****   /* pre_chip_disable_wait_ns = */ 10,
 592:..\..\..\u8g2\u8g2\csrc/u8x8_d_ssd1327.c ****   /* reset_pulse_width_ms = */ 100, 	
 593:..\..\..\u8g2\u8g2\csrc/u8x8_d_ssd1327.c ****   /* post_reset_wait_ms = */ 100, 		/**/
 594:..\..\..\u8g2\u8g2\csrc/u8x8_d_ssd1327.c ****   /* sda_setup_time_ns = */ 100,		/* */
 595:..\..\..\u8g2\u8g2\csrc/u8x8_d_ssd1327.c ****   /* sck_pulse_width_ns = */ 100,	/*  */
 596:..\..\..\u8g2\u8g2\csrc/u8x8_d_ssd1327.c ****   /* sck_clock_hz = */ 4000000UL,	/* since Arduino 1.6.0, the SPI bus speed in Hz. Should be  10000
 597:..\..\..\u8g2\u8g2\csrc/u8x8_d_ssd1327.c ****   /* spi_mode = */ 0,		/* active high, rising edge */
 598:..\..\..\u8g2\u8g2\csrc/u8x8_d_ssd1327.c ****   /* i2c_bus_clock_100kHz = */ 1,	/* use 1 instead of 4, because the SSD1327 seems to be very slow,
 599:..\..\..\u8g2\u8g2\csrc/u8x8_d_ssd1327.c ****   /* data_setup_time_ns = */ 40,
 600:..\..\..\u8g2\u8g2\csrc/u8x8_d_ssd1327.c ****   /* write_pulse_width_ns = */ 60,	
 601:..\..\..\u8g2\u8g2\csrc/u8x8_d_ssd1327.c ****   /* tile_width = */ 16,
 602:..\..\..\u8g2\u8g2\csrc/u8x8_d_ssd1327.c ****   /* tile_hight = */ 16,
 603:..\..\..\u8g2\u8g2\csrc/u8x8_d_ssd1327.c ****   /* default_x_offset = */ 0,
 604:..\..\..\u8g2\u8g2\csrc/u8x8_d_ssd1327.c ****   /* flipmode_x_offset = */ 0,		
 605:..\..\..\u8g2\u8g2\csrc/u8x8_d_ssd1327.c ****   /* pixel_width = */ 128,
 606:..\..\..\u8g2\u8g2\csrc/u8x8_d_ssd1327.c ****   /* pixel_height = */ 128
 607:..\..\..\u8g2\u8g2\csrc/u8x8_d_ssd1327.c **** };
 608:..\..\..\u8g2\u8g2\csrc/u8x8_d_ssd1327.c **** 
 609:..\..\..\u8g2\u8g2\csrc/u8x8_d_ssd1327.c **** /*  https://github.com/SeeedDocument/Grove_OLED_1.12/raw/master/resources/LY120-096096.pdf */
 610:..\..\..\u8g2\u8g2\csrc/u8x8_d_ssd1327.c **** /*  http://www.seeedstudio.com/wiki/index.php?title=Twig_-_OLED_96x96 */
 611:..\..\..\u8g2\u8g2\csrc/u8x8_d_ssd1327.c **** /* values from u8glib */
 612:..\..\..\u8g2\u8g2\csrc/u8x8_d_ssd1327.c **** /*
 613:..\..\..\u8g2\u8g2\csrc/u8x8_d_ssd1327.c ****   Re-map setting in Graphic Display Data RAM, command 0x0a0
 614:..\..\..\u8g2\u8g2\csrc/u8x8_d_ssd1327.c ****     Bit 0: Column Address Re-map
 615:..\..\..\u8g2\u8g2\csrc/u8x8_d_ssd1327.c ****     Bit 1: Nibble Re-map
 616:..\..\..\u8g2\u8g2\csrc/u8x8_d_ssd1327.c ****     Bit 2: Horizontal/Vertical Address Increment
 617:..\..\..\u8g2\u8g2\csrc/u8x8_d_ssd1327.c ****     Bit 3: Not used, must be 0
 618:..\..\..\u8g2\u8g2\csrc/u8x8_d_ssd1327.c ****     
 619:..\..\..\u8g2\u8g2\csrc/u8x8_d_ssd1327.c ****     Bit 4: COM Re-map
 620:..\..\..\u8g2\u8g2\csrc/u8x8_d_ssd1327.c ****     Bit 5: Not used, must be 0
 621:..\..\..\u8g2\u8g2\csrc/u8x8_d_ssd1327.c ****     Bit 6: COM Split Odd Even
 622:..\..\..\u8g2\u8g2\csrc/u8x8_d_ssd1327.c ****     Bit 7: Not used, must be 0
 623:..\..\..\u8g2\u8g2\csrc/u8x8_d_ssd1327.c **** */
 624:..\..\..\u8g2\u8g2\csrc/u8x8_d_ssd1327.c **** 
 625:..\..\..\u8g2\u8g2\csrc/u8x8_d_ssd1327.c **** 
 626:..\..\..\u8g2\u8g2\csrc/u8x8_d_ssd1327.c **** static const uint8_t u8x8_d_ssd1327_128x128_init_seq[] = {
 627:..\..\..\u8g2\u8g2\csrc/u8x8_d_ssd1327.c ****     
 628:..\..\..\u8g2\u8g2\csrc/u8x8_d_ssd1327.c ****   U8X8_START_TRANSFER(),             	/* enable chip, delay is part of the transfer start */
 629:..\..\..\u8g2\u8g2\csrc/u8x8_d_ssd1327.c **** 
 630:..\..\..\u8g2\u8g2\csrc/u8x8_d_ssd1327.c **** 	
 631:..\..\..\u8g2\u8g2\csrc/u8x8_d_ssd1327.c ****   U8X8_CA(0x0fd, 0x012),		/* unlock display, usually not required because the display is unlocked a
 632:..\..\..\u8g2\u8g2\csrc/u8x8_d_ssd1327.c ****   U8X8_C(0x0ae),		                /* display off */
 633:..\..\..\u8g2\u8g2\csrc/u8x8_d_ssd1327.c ****   //U8X8_CA(0x0a8, 0x03f),		/* multiplex ratio: 0x03f * 1/64 duty */
 634:..\..\..\u8g2\u8g2\csrc/u8x8_d_ssd1327.c ****   //U8X8_CA(0x0a8, 0x05f),		/* multiplex ratio: 0x05f * 1/64 duty */
 635:..\..\..\u8g2\u8g2\csrc/u8x8_d_ssd1327.c ****   U8X8_CA(0x0a8, 0x07f),       		 /* multiplex ratio: 0x05f * 1/128duty */
 636:..\..\..\u8g2\u8g2\csrc/u8x8_d_ssd1327.c ****   U8X8_CA(0x0a1, 0x000),		/* display start line */
 637:..\..\..\u8g2\u8g2\csrc/u8x8_d_ssd1327.c ****   //U8X8_CA(0x0a2, 0x04c),		/* display offset, shift mapping ram counter */
 638:..\..\..\u8g2\u8g2\csrc/u8x8_d_ssd1327.c ****   
 639:..\..\..\u8g2\u8g2\csrc/u8x8_d_ssd1327.c ****   U8X8_CA(0x0a2, 0x000),		/* display offset, shift mapping ram counter */
 640:..\..\..\u8g2\u8g2\csrc/u8x8_d_ssd1327.c ****   U8X8_CA(0x0a0, 0x051),		/* remap configuration */
 641:..\..\..\u8g2\u8g2\csrc/u8x8_d_ssd1327.c ****   
 642:..\..\..\u8g2\u8g2\csrc/u8x8_d_ssd1327.c ****   
ARM GAS  C:\Users\jesse\AppData\Local\Temp\ccjh0Qlm.s 			page 23


 643:..\..\..\u8g2\u8g2\csrc/u8x8_d_ssd1327.c ****   U8X8_CA(0x0ab, 0x001),		/* Enable internal VDD regulator (RESET) */
 644:..\..\..\u8g2\u8g2\csrc/u8x8_d_ssd1327.c ****   //U8X8_CA(0x081, 0x070),		/* contrast, brightness, 0..128 */
 645:..\..\..\u8g2\u8g2\csrc/u8x8_d_ssd1327.c ****   U8X8_CA(0x081, 0x053),		/* contrast, brightness, 0..128 */
 646:..\..\..\u8g2\u8g2\csrc/u8x8_d_ssd1327.c ****   //U8X8_CA(0x0b1, 0x055),                    /* phase length */
 647:..\..\..\u8g2\u8g2\csrc/u8x8_d_ssd1327.c ****   U8X8_CA(0x0b1, 0x051),                    /* phase length */  
 648:..\..\..\u8g2\u8g2\csrc/u8x8_d_ssd1327.c ****   //U8X8_CA(0x0b3, 0x091),		/* set display clock divide ratio/oscillator frequency (set clock as 13
 649:..\..\..\u8g2\u8g2\csrc/u8x8_d_ssd1327.c ****   U8X8_CA(0x0b3, 0x001),		/* set display clock divide ratio/oscillator frequency  */			
 650:..\..\..\u8g2\u8g2\csrc/u8x8_d_ssd1327.c ****   
 651:..\..\..\u8g2\u8g2\csrc/u8x8_d_ssd1327.c ****   //? U8X8_CA(0x0ad, 0x002),		/* master configuration: disable embedded DC-DC, enable internal VCOM
 652:..\..\..\u8g2\u8g2\csrc/u8x8_d_ssd1327.c ****   //? U8X8_C(0x086),				/* full current range (0x084, 0x085, 0x086) */
 653:..\..\..\u8g2\u8g2\csrc/u8x8_d_ssd1327.c ****   
 654:..\..\..\u8g2\u8g2\csrc/u8x8_d_ssd1327.c ****   U8X8_C(0x0b9),				/* use linear lookup table */
 655:..\..\..\u8g2\u8g2\csrc/u8x8_d_ssd1327.c **** 
 656:..\..\..\u8g2\u8g2\csrc/u8x8_d_ssd1327.c ****   //U8X8_CA(0x0bc, 0x010),                    /* pre-charge voltage level */
 657:..\..\..\u8g2\u8g2\csrc/u8x8_d_ssd1327.c ****   U8X8_CA(0x0bc, 0x008),                    /* pre-charge voltage level */
 658:..\..\..\u8g2\u8g2\csrc/u8x8_d_ssd1327.c ****   //U8X8_CA(0x0be, 0x01c),                     /* VCOMH voltage */
 659:..\..\..\u8g2\u8g2\csrc/u8x8_d_ssd1327.c ****   U8X8_CA(0x0be, 0x007),                     /* VCOMH voltage */
 660:..\..\..\u8g2\u8g2\csrc/u8x8_d_ssd1327.c ****   U8X8_CA(0x0b6, 0x001),		/* second precharge */
 661:..\..\..\u8g2\u8g2\csrc/u8x8_d_ssd1327.c ****   U8X8_CA(0x0d5, 0x062),		/* enable second precharge, internal vsl (bit0 = 0) */
 662:..\..\..\u8g2\u8g2\csrc/u8x8_d_ssd1327.c **** 
 663:..\..\..\u8g2\u8g2\csrc/u8x8_d_ssd1327.c **** 
 664:..\..\..\u8g2\u8g2\csrc/u8x8_d_ssd1327.c ****   
 665:..\..\..\u8g2\u8g2\csrc/u8x8_d_ssd1327.c ****   U8X8_C(0x0a4),				/* normal display mode */
 666:..\..\..\u8g2\u8g2\csrc/u8x8_d_ssd1327.c ****     
 667:..\..\..\u8g2\u8g2\csrc/u8x8_d_ssd1327.c ****   U8X8_END_TRANSFER(),             	/* disable chip */
 668:..\..\..\u8g2\u8g2\csrc/u8x8_d_ssd1327.c ****   U8X8_END()             			/* end of sequence */
 669:..\..\..\u8g2\u8g2\csrc/u8x8_d_ssd1327.c **** };
 670:..\..\..\u8g2\u8g2\csrc/u8x8_d_ssd1327.c **** 
 671:..\..\..\u8g2\u8g2\csrc/u8x8_d_ssd1327.c **** 
 672:..\..\..\u8g2\u8g2\csrc/u8x8_d_ssd1327.c **** static const uint8_t u8x8_d_ssd1327_128x128_flip0_seq[] = {
 673:..\..\..\u8g2\u8g2\csrc/u8x8_d_ssd1327.c ****   U8X8_START_TRANSFER(),             	/* enable chip, delay is part of the transfer start */
 674:..\..\..\u8g2\u8g2\csrc/u8x8_d_ssd1327.c ****   U8X8_CA(0x0a2, 0x000),		/* display offset, shift mapping ram counter */
 675:..\..\..\u8g2\u8g2\csrc/u8x8_d_ssd1327.c ****   U8X8_CA(0x0a0, 0x051),		/* remap configuration */
 676:..\..\..\u8g2\u8g2\csrc/u8x8_d_ssd1327.c ****   U8X8_END_TRANSFER(),             	/* disable chip */
 677:..\..\..\u8g2\u8g2\csrc/u8x8_d_ssd1327.c ****   U8X8_END()             			/* end of sequence */
 678:..\..\..\u8g2\u8g2\csrc/u8x8_d_ssd1327.c **** };
 679:..\..\..\u8g2\u8g2\csrc/u8x8_d_ssd1327.c **** 
 680:..\..\..\u8g2\u8g2\csrc/u8x8_d_ssd1327.c **** static const uint8_t u8x8_d_ssd1327_128x128_flip1_seq[] = {
 681:..\..\..\u8g2\u8g2\csrc/u8x8_d_ssd1327.c ****   U8X8_START_TRANSFER(),             	/* enable chip, delay is part of the transfer start */
 682:..\..\..\u8g2\u8g2\csrc/u8x8_d_ssd1327.c ****   U8X8_CA(0x0a2, 0x000),		/* display offset, shift mapping ram counter */
 683:..\..\..\u8g2\u8g2\csrc/u8x8_d_ssd1327.c ****   U8X8_CA(0x0a0, 0x042),		/* remap configuration */
 684:..\..\..\u8g2\u8g2\csrc/u8x8_d_ssd1327.c ****   U8X8_END_TRANSFER(),             	/* disable chip */
 685:..\..\..\u8g2\u8g2\csrc/u8x8_d_ssd1327.c ****   U8X8_END()             			/* end of sequence */
 686:..\..\..\u8g2\u8g2\csrc/u8x8_d_ssd1327.c **** };
 687:..\..\..\u8g2\u8g2\csrc/u8x8_d_ssd1327.c **** 
 688:..\..\..\u8g2\u8g2\csrc/u8x8_d_ssd1327.c **** 
 689:..\..\..\u8g2\u8g2\csrc/u8x8_d_ssd1327.c **** uint8_t u8x8_d_ssd1327_midas_128x128(u8x8_t *u8x8, uint8_t msg, uint8_t arg_int, void *arg_ptr)
 690:..\..\..\u8g2\u8g2\csrc/u8x8_d_ssd1327.c **** {
 568              		.loc 1 690 0
 569              		.cfi_startproc
 570              		@ args = 0, pretend = 0, frame = 0
 571              		@ frame_needed = 0, uses_anonymous_args = 0
 572              	.LVL72:
 573 0000 70B5     		push	{r4, r5, r6, lr}
 574              		.cfi_def_cfa_offset 16
 575              		.cfi_offset 4, -16
 576              		.cfi_offset 5, -12
ARM GAS  C:\Users\jesse\AppData\Local\Temp\ccjh0Qlm.s 			page 24


 577              		.cfi_offset 6, -8
 578              		.cfi_offset 14, -4
 579              		.loc 1 690 0
 580 0002 0446     		mov	r4, r0
 581 0004 0D46     		mov	r5, r1
 582 0006 1646     		mov	r6, r2
 691:..\..\..\u8g2\u8g2\csrc/u8x8_d_ssd1327.c ****   /* call the 96x96 procedure at the moment */
 692:..\..\..\u8g2\u8g2\csrc/u8x8_d_ssd1327.c ****   if ( u8x8_d_ssd1327_96x96_generic(u8x8, msg, arg_int, arg_ptr) != 0 )
 583              		.loc 1 692 0
 584 0008 FFF7FEFF 		bl	u8x8_d_ssd1327_96x96_generic
 585              	.LVL73:
 586 000c 10BB     		cbnz	r0, .L61
 693:..\..\..\u8g2\u8g2\csrc/u8x8_d_ssd1327.c ****     return 1;
 694:..\..\..\u8g2\u8g2\csrc/u8x8_d_ssd1327.c ****   if ( msg == U8X8_MSG_DISPLAY_SETUP_MEMORY )
 587              		.loc 1 694 0
 588 000e 092D     		cmp	r5, #9
 589 0010 04D1     		bne	.L58
 695:..\..\..\u8g2\u8g2\csrc/u8x8_d_ssd1327.c ****   {
 696:..\..\..\u8g2\u8g2\csrc/u8x8_d_ssd1327.c ****     u8x8_d_helper_display_setup_memory(u8x8, &u8x8_ssd1327_128x128_display_info);
 590              		.loc 1 696 0
 591 0012 1149     		ldr	r1, .L63
 592 0014 2046     		mov	r0, r4
 593 0016 FFF7FEFF 		bl	u8x8_d_helper_display_setup_memory
 594              	.LVL74:
 595 001a 1BE0     		b	.L61
 596              	.L58:
 697:..\..\..\u8g2\u8g2\csrc/u8x8_d_ssd1327.c ****     return 1;
 698:..\..\..\u8g2\u8g2\csrc/u8x8_d_ssd1327.c ****   }
 699:..\..\..\u8g2\u8g2\csrc/u8x8_d_ssd1327.c ****   else if ( msg == U8X8_MSG_DISPLAY_INIT )
 597              		.loc 1 699 0
 598 001c 0A2D     		cmp	r5, #10
 599 001e 07D1     		bne	.L59
 700:..\..\..\u8g2\u8g2\csrc/u8x8_d_ssd1327.c ****   {
 701:..\..\..\u8g2\u8g2\csrc/u8x8_d_ssd1327.c ****     u8x8_d_helper_display_init(u8x8);
 600              		.loc 1 701 0
 601 0020 2046     		mov	r0, r4
 602 0022 FFF7FEFF 		bl	u8x8_d_helper_display_init
 603              	.LVL75:
 702:..\..\..\u8g2\u8g2\csrc/u8x8_d_ssd1327.c ****     u8x8_cad_SendSequence(u8x8, u8x8_d_ssd1327_128x128_init_seq); 
 604              		.loc 1 702 0
 605 0026 0D49     		ldr	r1, .L63+4
 606 0028 2046     		mov	r0, r4
 607 002a FFF7FEFF 		bl	u8x8_cad_SendSequence
 608              	.LVL76:
 609 002e 11E0     		b	.L61
 610              	.L59:
 703:..\..\..\u8g2\u8g2\csrc/u8x8_d_ssd1327.c ****     return 1;
 704:..\..\..\u8g2\u8g2\csrc/u8x8_d_ssd1327.c ****   }
 705:..\..\..\u8g2\u8g2\csrc/u8x8_d_ssd1327.c ****   else if  ( msg == U8X8_MSG_DISPLAY_SET_FLIP_MODE )
 611              		.loc 1 705 0
 612 0030 0D2D     		cmp	r5, #13
 613 0032 10D1     		bne	.L57
 706:..\..\..\u8g2\u8g2\csrc/u8x8_d_ssd1327.c ****   {
 707:..\..\..\u8g2\u8g2\csrc/u8x8_d_ssd1327.c ****     if ( arg_int == 0 )
 614              		.loc 1 707 0
 615 0034 36B9     		cbnz	r6, .L60
 708:..\..\..\u8g2\u8g2\csrc/u8x8_d_ssd1327.c ****     {
ARM GAS  C:\Users\jesse\AppData\Local\Temp\ccjh0Qlm.s 			page 25


 709:..\..\..\u8g2\u8g2\csrc/u8x8_d_ssd1327.c ****       u8x8_cad_SendSequence(u8x8, u8x8_d_ssd1327_128x128_flip0_seq);
 616              		.loc 1 709 0
 617 0036 0A49     		ldr	r1, .L63+8
 618 0038 2046     		mov	r0, r4
 619 003a FFF7FEFF 		bl	u8x8_cad_SendSequence
 620              	.LVL77:
 710:..\..\..\u8g2\u8g2\csrc/u8x8_d_ssd1327.c ****       u8x8->x_offset = u8x8->display_info->default_x_offset;
 621              		.loc 1 710 0
 622 003e 2368     		ldr	r3, [r4]
 623 0040 9B7C     		ldrb	r3, [r3, #18]	@ zero_extendqisi2
 624 0042 05E0     		b	.L62
 625              	.L60:
 711:..\..\..\u8g2\u8g2\csrc/u8x8_d_ssd1327.c ****     }
 712:..\..\..\u8g2\u8g2\csrc/u8x8_d_ssd1327.c ****     else
 713:..\..\..\u8g2\u8g2\csrc/u8x8_d_ssd1327.c ****     {
 714:..\..\..\u8g2\u8g2\csrc/u8x8_d_ssd1327.c ****       u8x8_cad_SendSequence(u8x8, u8x8_d_ssd1327_128x128_flip1_seq);
 626              		.loc 1 714 0
 627 0044 0749     		ldr	r1, .L63+12
 628 0046 2046     		mov	r0, r4
 629 0048 FFF7FEFF 		bl	u8x8_cad_SendSequence
 630              	.LVL78:
 715:..\..\..\u8g2\u8g2\csrc/u8x8_d_ssd1327.c ****       u8x8->x_offset = u8x8->display_info->flipmode_x_offset;
 631              		.loc 1 715 0
 632 004c 2368     		ldr	r3, [r4]
 633 004e DB7C     		ldrb	r3, [r3, #19]	@ zero_extendqisi2
 634              	.L62:
 635 0050 84F82230 		strb	r3, [r4, #34]
 636              	.L61:
 693:..\..\..\u8g2\u8g2\csrc/u8x8_d_ssd1327.c ****   if ( msg == U8X8_MSG_DISPLAY_SETUP_MEMORY )
 637              		.loc 1 693 0
 638 0054 0120     		movs	r0, #1
 639              	.L57:
 716:..\..\..\u8g2\u8g2\csrc/u8x8_d_ssd1327.c ****     }
 717:..\..\..\u8g2\u8g2\csrc/u8x8_d_ssd1327.c ****     return 1;
 718:..\..\..\u8g2\u8g2\csrc/u8x8_d_ssd1327.c ****   }
 719:..\..\..\u8g2\u8g2\csrc/u8x8_d_ssd1327.c ****   return 0;
 720:..\..\..\u8g2\u8g2\csrc/u8x8_d_ssd1327.c **** }
 640              		.loc 1 720 0
 641 0056 70BD     		pop	{r4, r5, r6, pc}
 642              	.LVL79:
 643              	.L64:
 644              		.align	2
 645              	.L63:
 646 0058 54010000 		.word	.LANCHOR0+340
 647 005c 6C010000 		.word	.LANCHOR0+364
 648 0060 A9010000 		.word	.LANCHOR0+425
 649 0064 B4010000 		.word	.LANCHOR0+436
 650              		.cfi_endproc
 651              	.LFE5:
 652              		.size	u8x8_d_ssd1327_midas_128x128, .-u8x8_d_ssd1327_midas_128x128
 653              		.section	.text.u8x8_d_ssd1327_zjy_128x128,"ax",%progbits
 654              		.align	1
 655              		.global	u8x8_d_ssd1327_zjy_128x128
 656              		.thumb
 657              		.thumb_func
 658              		.type	u8x8_d_ssd1327_zjy_128x128, %function
 659              	u8x8_d_ssd1327_zjy_128x128:
ARM GAS  C:\Users\jesse\AppData\Local\Temp\ccjh0Qlm.s 			page 26


 660              	.LFB6:
 721:..\..\..\u8g2\u8g2\csrc/u8x8_d_ssd1327.c **** 
 722:..\..\..\u8g2\u8g2\csrc/u8x8_d_ssd1327.c **** /*=============================================*/
 723:..\..\..\u8g2\u8g2\csrc/u8x8_d_ssd1327.c **** /*
 724:..\..\..\u8g2\u8g2\csrc/u8x8_d_ssd1327.c **** 
 725:..\..\..\u8g2\u8g2\csrc/u8x8_d_ssd1327.c ****   ZJY-M150 128x128 
 726:..\..\..\u8g2\u8g2\csrc/u8x8_d_ssd1327.c **** 
 727:..\..\..\u8g2\u8g2\csrc/u8x8_d_ssd1327.c ****   https://aliexpress.com/item/1005003784174529.html
 728:..\..\..\u8g2\u8g2\csrc/u8x8_d_ssd1327.c ****   https://github.com/olikraus/u8g2/issues/1960
 729:..\..\..\u8g2\u8g2\csrc/u8x8_d_ssd1327.c **** 
 730:..\..\..\u8g2\u8g2\csrc/u8x8_d_ssd1327.c ****   Mostly like the MIDAS version, but requires the GPIO enabled.
 731:..\..\..\u8g2\u8g2\csrc/u8x8_d_ssd1327.c **** 
 732:..\..\..\u8g2\u8g2\csrc/u8x8_d_ssd1327.c **** */
 733:..\..\..\u8g2\u8g2\csrc/u8x8_d_ssd1327.c **** 
 734:..\..\..\u8g2\u8g2\csrc/u8x8_d_ssd1327.c **** static const uint8_t u8x8_d_ssd1327_zjy_128x128_init_seq[] = {
 735:..\..\..\u8g2\u8g2\csrc/u8x8_d_ssd1327.c ****     
 736:..\..\..\u8g2\u8g2\csrc/u8x8_d_ssd1327.c ****   U8X8_START_TRANSFER(),             	/* enable chip, delay is part of the transfer start */
 737:..\..\..\u8g2\u8g2\csrc/u8x8_d_ssd1327.c **** 
 738:..\..\..\u8g2\u8g2\csrc/u8x8_d_ssd1327.c **** 	
 739:..\..\..\u8g2\u8g2\csrc/u8x8_d_ssd1327.c ****   U8X8_CA(0x0fd, 0x012),		/* unlock display, usually not required because the display is unlocked a
 740:..\..\..\u8g2\u8g2\csrc/u8x8_d_ssd1327.c ****   U8X8_C(0x0ae),		                /* display off */
 741:..\..\..\u8g2\u8g2\csrc/u8x8_d_ssd1327.c ****   //U8X8_CA(0x0a8, 0x03f),		/* multiplex ratio: 0x03f * 1/64 duty */
 742:..\..\..\u8g2\u8g2\csrc/u8x8_d_ssd1327.c ****   //U8X8_CA(0x0a8, 0x05f),		/* multiplex ratio: 0x05f * 1/64 duty */
 743:..\..\..\u8g2\u8g2\csrc/u8x8_d_ssd1327.c ****   U8X8_CA(0x0a8, 0x07f),       		 /* multiplex ratio: 0x05f * 1/128duty */
 744:..\..\..\u8g2\u8g2\csrc/u8x8_d_ssd1327.c ****   U8X8_CA(0x0a1, 0x000),		/* display start line */
 745:..\..\..\u8g2\u8g2\csrc/u8x8_d_ssd1327.c ****   //U8X8_CA(0x0a2, 0x04c),		/* display offset, shift mapping ram counter */
 746:..\..\..\u8g2\u8g2\csrc/u8x8_d_ssd1327.c ****   
 747:..\..\..\u8g2\u8g2\csrc/u8x8_d_ssd1327.c ****   U8X8_CA(0x0a2, 0x000),		/* display offset, shift mapping ram counter */
 748:..\..\..\u8g2\u8g2\csrc/u8x8_d_ssd1327.c ****   U8X8_CA(0x0a0, 0x051),		/* remap configuration */
 749:..\..\..\u8g2\u8g2\csrc/u8x8_d_ssd1327.c ****   
 750:..\..\..\u8g2\u8g2\csrc/u8x8_d_ssd1327.c ****   
 751:..\..\..\u8g2\u8g2\csrc/u8x8_d_ssd1327.c ****   U8X8_CA(0x0ab, 0x001),		/* Enable internal VDD regulator (RESET) */
 752:..\..\..\u8g2\u8g2\csrc/u8x8_d_ssd1327.c ****   //U8X8_CA(0x081, 0x070),		/* contrast, brightness, 0..128 */
 753:..\..\..\u8g2\u8g2\csrc/u8x8_d_ssd1327.c ****   U8X8_CA(0x081, 0x053),		/* contrast, brightness, 0..128 */
 754:..\..\..\u8g2\u8g2\csrc/u8x8_d_ssd1327.c ****   //U8X8_CA(0x0b1, 0x055),                    /* phase length */
 755:..\..\..\u8g2\u8g2\csrc/u8x8_d_ssd1327.c ****   U8X8_CA(0x0b1, 0x051),                    /* phase length */  
 756:..\..\..\u8g2\u8g2\csrc/u8x8_d_ssd1327.c ****   //U8X8_CA(0x0b3, 0x091),		/* set display clock divide ratio/oscillator frequency (set clock as 13
 757:..\..\..\u8g2\u8g2\csrc/u8x8_d_ssd1327.c ****   U8X8_CA(0x0b3, 0x001),		/* set display clock divide ratio/oscillator frequency  */			
 758:..\..\..\u8g2\u8g2\csrc/u8x8_d_ssd1327.c ****   
 759:..\..\..\u8g2\u8g2\csrc/u8x8_d_ssd1327.c ****   //? U8X8_CA(0x0ad, 0x002),		/* master configuration: disable embedded DC-DC, enable internal VCOM
 760:..\..\..\u8g2\u8g2\csrc/u8x8_d_ssd1327.c ****   //? U8X8_C(0x086),				/* full current range (0x084, 0x085, 0x086) */
 761:..\..\..\u8g2\u8g2\csrc/u8x8_d_ssd1327.c ****   
 762:..\..\..\u8g2\u8g2\csrc/u8x8_d_ssd1327.c ****   U8X8_C(0x0b9),				/* use linear lookup table */
 763:..\..\..\u8g2\u8g2\csrc/u8x8_d_ssd1327.c **** 
 764:..\..\..\u8g2\u8g2\csrc/u8x8_d_ssd1327.c ****   //U8X8_CA(0x0bc, 0x010),                    /* pre-charge voltage level */
 765:..\..\..\u8g2\u8g2\csrc/u8x8_d_ssd1327.c ****   U8X8_CA(0x0bc, 0x008),                    /* pre-charge voltage level */
 766:..\..\..\u8g2\u8g2\csrc/u8x8_d_ssd1327.c ****   //U8X8_CA(0x0be, 0x01c),                     /* VCOMH voltage */
 767:..\..\..\u8g2\u8g2\csrc/u8x8_d_ssd1327.c ****   U8X8_CA(0x0be, 0x007),                     /* VCOMH voltage */
 768:..\..\..\u8g2\u8g2\csrc/u8x8_d_ssd1327.c ****   
 769:..\..\..\u8g2\u8g2\csrc/u8x8_d_ssd1327.c ****   U8X8_CA(0x0b6, 0x001),		/* second precharge */
 770:..\..\..\u8g2\u8g2\csrc/u8x8_d_ssd1327.c ****   U8X8_CA(0x0d5, 0x062),		/* enable second precharge, internal vsl (bit0 = 0) */
 771:..\..\..\u8g2\u8g2\csrc/u8x8_d_ssd1327.c ****   
 772:..\..\..\u8g2\u8g2\csrc/u8x8_d_ssd1327.c ****   U8X8_CA(0x0b5, 0x003),		/* Enable GPIO, issue 1960 */
 773:..\..\..\u8g2\u8g2\csrc/u8x8_d_ssd1327.c ****   
 774:..\..\..\u8g2\u8g2\csrc/u8x8_d_ssd1327.c ****   
 775:..\..\..\u8g2\u8g2\csrc/u8x8_d_ssd1327.c ****   U8X8_C(0x0a4),				/* normal display mode */
 776:..\..\..\u8g2\u8g2\csrc/u8x8_d_ssd1327.c ****     
ARM GAS  C:\Users\jesse\AppData\Local\Temp\ccjh0Qlm.s 			page 27


 777:..\..\..\u8g2\u8g2\csrc/u8x8_d_ssd1327.c ****   U8X8_END_TRANSFER(),             	/* disable chip */
 778:..\..\..\u8g2\u8g2\csrc/u8x8_d_ssd1327.c ****   U8X8_END()             			/* end of sequence */
 779:..\..\..\u8g2\u8g2\csrc/u8x8_d_ssd1327.c **** };
 780:..\..\..\u8g2\u8g2\csrc/u8x8_d_ssd1327.c **** 
 781:..\..\..\u8g2\u8g2\csrc/u8x8_d_ssd1327.c **** uint8_t u8x8_d_ssd1327_zjy_128x128(u8x8_t *u8x8, uint8_t msg, uint8_t arg_int, void *arg_ptr)
 782:..\..\..\u8g2\u8g2\csrc/u8x8_d_ssd1327.c **** {
 661              		.loc 1 782 0
 662              		.cfi_startproc
 663              		@ args = 0, pretend = 0, frame = 0
 664              		@ frame_needed = 0, uses_anonymous_args = 0
 665              	.LVL80:
 666 0000 70B5     		push	{r4, r5, r6, lr}
 667              		.cfi_def_cfa_offset 16
 668              		.cfi_offset 4, -16
 669              		.cfi_offset 5, -12
 670              		.cfi_offset 6, -8
 671              		.cfi_offset 14, -4
 672              		.loc 1 782 0
 673 0002 0446     		mov	r4, r0
 674 0004 0D46     		mov	r5, r1
 675 0006 1646     		mov	r6, r2
 783:..\..\..\u8g2\u8g2\csrc/u8x8_d_ssd1327.c ****   /* call the 96x96 procedure at the moment */
 784:..\..\..\u8g2\u8g2\csrc/u8x8_d_ssd1327.c ****   if ( u8x8_d_ssd1327_96x96_generic(u8x8, msg, arg_int, arg_ptr) != 0 )
 676              		.loc 1 784 0
 677 0008 FFF7FEFF 		bl	u8x8_d_ssd1327_96x96_generic
 678              	.LVL81:
 679 000c 10BB     		cbnz	r0, .L70
 785:..\..\..\u8g2\u8g2\csrc/u8x8_d_ssd1327.c ****     return 1;
 786:..\..\..\u8g2\u8g2\csrc/u8x8_d_ssd1327.c ****   if ( msg == U8X8_MSG_DISPLAY_SETUP_MEMORY )
 680              		.loc 1 786 0
 681 000e 092D     		cmp	r5, #9
 682 0010 04D1     		bne	.L67
 787:..\..\..\u8g2\u8g2\csrc/u8x8_d_ssd1327.c ****   {
 788:..\..\..\u8g2\u8g2\csrc/u8x8_d_ssd1327.c ****     u8x8_d_helper_display_setup_memory(u8x8, &u8x8_ssd1327_128x128_display_info);
 683              		.loc 1 788 0
 684 0012 1149     		ldr	r1, .L72
 685 0014 2046     		mov	r0, r4
 686 0016 FFF7FEFF 		bl	u8x8_d_helper_display_setup_memory
 687              	.LVL82:
 688 001a 1BE0     		b	.L70
 689              	.L67:
 789:..\..\..\u8g2\u8g2\csrc/u8x8_d_ssd1327.c ****     return 1;
 790:..\..\..\u8g2\u8g2\csrc/u8x8_d_ssd1327.c ****   }
 791:..\..\..\u8g2\u8g2\csrc/u8x8_d_ssd1327.c ****   else if ( msg == U8X8_MSG_DISPLAY_INIT )
 690              		.loc 1 791 0
 691 001c 0A2D     		cmp	r5, #10
 692 001e 07D1     		bne	.L68
 792:..\..\..\u8g2\u8g2\csrc/u8x8_d_ssd1327.c ****   {
 793:..\..\..\u8g2\u8g2\csrc/u8x8_d_ssd1327.c ****     u8x8_d_helper_display_init(u8x8);
 693              		.loc 1 793 0
 694 0020 2046     		mov	r0, r4
 695 0022 FFF7FEFF 		bl	u8x8_d_helper_display_init
 696              	.LVL83:
 794:..\..\..\u8g2\u8g2\csrc/u8x8_d_ssd1327.c ****     u8x8_cad_SendSequence(u8x8, u8x8_d_ssd1327_zjy_128x128_init_seq); 
 697              		.loc 1 794 0
 698 0026 0D49     		ldr	r1, .L72+4
 699 0028 2046     		mov	r0, r4
ARM GAS  C:\Users\jesse\AppData\Local\Temp\ccjh0Qlm.s 			page 28


 700 002a FFF7FEFF 		bl	u8x8_cad_SendSequence
 701              	.LVL84:
 702 002e 11E0     		b	.L70
 703              	.L68:
 795:..\..\..\u8g2\u8g2\csrc/u8x8_d_ssd1327.c ****     return 1;
 796:..\..\..\u8g2\u8g2\csrc/u8x8_d_ssd1327.c ****   }
 797:..\..\..\u8g2\u8g2\csrc/u8x8_d_ssd1327.c ****   else if  ( msg == U8X8_MSG_DISPLAY_SET_FLIP_MODE )
 704              		.loc 1 797 0
 705 0030 0D2D     		cmp	r5, #13
 706 0032 10D1     		bne	.L66
 798:..\..\..\u8g2\u8g2\csrc/u8x8_d_ssd1327.c ****   {
 799:..\..\..\u8g2\u8g2\csrc/u8x8_d_ssd1327.c ****     if ( arg_int == 0 )
 707              		.loc 1 799 0
 708 0034 36B9     		cbnz	r6, .L69
 800:..\..\..\u8g2\u8g2\csrc/u8x8_d_ssd1327.c ****     {
 801:..\..\..\u8g2\u8g2\csrc/u8x8_d_ssd1327.c ****       u8x8_cad_SendSequence(u8x8, u8x8_d_ssd1327_128x128_flip0_seq);
 709              		.loc 1 801 0
 710 0036 0A49     		ldr	r1, .L72+8
 711 0038 2046     		mov	r0, r4
 712 003a FFF7FEFF 		bl	u8x8_cad_SendSequence
 713              	.LVL85:
 802:..\..\..\u8g2\u8g2\csrc/u8x8_d_ssd1327.c ****       u8x8->x_offset = u8x8->display_info->default_x_offset;
 714              		.loc 1 802 0
 715 003e 2368     		ldr	r3, [r4]
 716 0040 9B7C     		ldrb	r3, [r3, #18]	@ zero_extendqisi2
 717 0042 05E0     		b	.L71
 718              	.L69:
 803:..\..\..\u8g2\u8g2\csrc/u8x8_d_ssd1327.c ****     }
 804:..\..\..\u8g2\u8g2\csrc/u8x8_d_ssd1327.c ****     else
 805:..\..\..\u8g2\u8g2\csrc/u8x8_d_ssd1327.c ****     {
 806:..\..\..\u8g2\u8g2\csrc/u8x8_d_ssd1327.c ****       u8x8_cad_SendSequence(u8x8, u8x8_d_ssd1327_128x128_flip1_seq);
 719              		.loc 1 806 0
 720 0044 0749     		ldr	r1, .L72+12
 721 0046 2046     		mov	r0, r4
 722 0048 FFF7FEFF 		bl	u8x8_cad_SendSequence
 723              	.LVL86:
 807:..\..\..\u8g2\u8g2\csrc/u8x8_d_ssd1327.c ****       u8x8->x_offset = u8x8->display_info->flipmode_x_offset;
 724              		.loc 1 807 0
 725 004c 2368     		ldr	r3, [r4]
 726 004e DB7C     		ldrb	r3, [r3, #19]	@ zero_extendqisi2
 727              	.L71:
 728 0050 84F82230 		strb	r3, [r4, #34]
 729              	.L70:
 785:..\..\..\u8g2\u8g2\csrc/u8x8_d_ssd1327.c ****   if ( msg == U8X8_MSG_DISPLAY_SETUP_MEMORY )
 730              		.loc 1 785 0
 731 0054 0120     		movs	r0, #1
 732              	.L66:
 808:..\..\..\u8g2\u8g2\csrc/u8x8_d_ssd1327.c ****     }
 809:..\..\..\u8g2\u8g2\csrc/u8x8_d_ssd1327.c ****     return 1;
 810:..\..\..\u8g2\u8g2\csrc/u8x8_d_ssd1327.c ****   }
 811:..\..\..\u8g2\u8g2\csrc/u8x8_d_ssd1327.c ****   return 0;
 812:..\..\..\u8g2\u8g2\csrc/u8x8_d_ssd1327.c **** }
 733              		.loc 1 812 0
 734 0056 70BD     		pop	{r4, r5, r6, pc}
 735              	.LVL87:
 736              	.L73:
 737              		.align	2
ARM GAS  C:\Users\jesse\AppData\Local\Temp\ccjh0Qlm.s 			page 29


 738              	.L72:
 739 0058 54010000 		.word	.LANCHOR0+340
 740 005c BF010000 		.word	.LANCHOR0+447
 741 0060 A9010000 		.word	.LANCHOR0+425
 742 0064 B4010000 		.word	.LANCHOR0+436
 743              		.cfi_endproc
 744              	.LFE6:
 745              		.size	u8x8_d_ssd1327_zjy_128x128, .-u8x8_d_ssd1327_zjy_128x128
 746              		.section	.text.u8x8_d_ssd1327_ws_128x128,"ax",%progbits
 747              		.align	1
 748              		.global	u8x8_d_ssd1327_ws_128x128
 749              		.thumb
 750              		.thumb_func
 751              		.type	u8x8_d_ssd1327_ws_128x128, %function
 752              	u8x8_d_ssd1327_ws_128x128:
 753              	.LFB7:
 813:..\..\..\u8g2\u8g2\csrc/u8x8_d_ssd1327.c **** 
 814:..\..\..\u8g2\u8g2\csrc/u8x8_d_ssd1327.c **** /*=============================================*/
 815:..\..\..\u8g2\u8g2\csrc/u8x8_d_ssd1327.c **** /*  
 816:..\..\..\u8g2\u8g2\csrc/u8x8_d_ssd1327.c ****   Waveshare 128x128 Module 
 817:..\..\..\u8g2\u8g2\csrc/u8x8_d_ssd1327.c ****   https://www.waveshare.com/w/upload/8/80/1.5inch_OLED_Module_User_Manual_EN.pdf
 818:..\..\..\u8g2\u8g2\csrc/u8x8_d_ssd1327.c ****   https://github.com/olikraus/u8g2/issues/880
 819:..\..\..\u8g2\u8g2\csrc/u8x8_d_ssd1327.c **** 
 820:..\..\..\u8g2\u8g2\csrc/u8x8_d_ssd1327.c ****   This is mostly a takeover of the EA display.
 821:..\..\..\u8g2\u8g2\csrc/u8x8_d_ssd1327.c **** */
 822:..\..\..\u8g2\u8g2\csrc/u8x8_d_ssd1327.c **** 
 823:..\..\..\u8g2\u8g2\csrc/u8x8_d_ssd1327.c **** /*  https://github.com/SeeedDocument/Grove_OLED_1.12/raw/master/resources/LY120-096096.pdf */
 824:..\..\..\u8g2\u8g2\csrc/u8x8_d_ssd1327.c **** /*  http://www.seeedstudio.com/wiki/index.php?title=Twig_-_OLED_96x96 */
 825:..\..\..\u8g2\u8g2\csrc/u8x8_d_ssd1327.c **** /* values from u8glib */
 826:..\..\..\u8g2\u8g2\csrc/u8x8_d_ssd1327.c **** /*
 827:..\..\..\u8g2\u8g2\csrc/u8x8_d_ssd1327.c ****   Re-map setting in Graphic Display Data RAM, command 0x0a0
 828:..\..\..\u8g2\u8g2\csrc/u8x8_d_ssd1327.c ****     Bit 0: Column Address Re-map
 829:..\..\..\u8g2\u8g2\csrc/u8x8_d_ssd1327.c ****     Bit 1: Nibble Re-map
 830:..\..\..\u8g2\u8g2\csrc/u8x8_d_ssd1327.c ****     Bit 2: Horizontal/Vertical Address Increment
 831:..\..\..\u8g2\u8g2\csrc/u8x8_d_ssd1327.c ****     Bit 3: Not used, must be 0
 832:..\..\..\u8g2\u8g2\csrc/u8x8_d_ssd1327.c ****     
 833:..\..\..\u8g2\u8g2\csrc/u8x8_d_ssd1327.c ****     Bit 4: COM Re-map
 834:..\..\..\u8g2\u8g2\csrc/u8x8_d_ssd1327.c ****     Bit 5: Not used, must be 0
 835:..\..\..\u8g2\u8g2\csrc/u8x8_d_ssd1327.c ****     Bit 6: COM Split Odd Even
 836:..\..\..\u8g2\u8g2\csrc/u8x8_d_ssd1327.c ****     Bit 7: Not used, must be 0
 837:..\..\..\u8g2\u8g2\csrc/u8x8_d_ssd1327.c **** */
 838:..\..\..\u8g2\u8g2\csrc/u8x8_d_ssd1327.c **** 
 839:..\..\..\u8g2\u8g2\csrc/u8x8_d_ssd1327.c **** /* takeover from https://github.com/olikraus/u8g2/issues/880 */
 840:..\..\..\u8g2\u8g2\csrc/u8x8_d_ssd1327.c **** static const uint8_t u8x8_d_ssd1327_ws_128x128_init_seq[] = {
 841:..\..\..\u8g2\u8g2\csrc/u8x8_d_ssd1327.c ****     
 842:..\..\..\u8g2\u8g2\csrc/u8x8_d_ssd1327.c ****     U8X8_START_TRANSFER(),             	/* enable chip, delay is part of the transfer start */
 843:..\..\..\u8g2\u8g2\csrc/u8x8_d_ssd1327.c **** 
 844:..\..\..\u8g2\u8g2\csrc/u8x8_d_ssd1327.c ****     U8X8_C(0x0ae), //--turn off oled panel
 845:..\..\..\u8g2\u8g2\csrc/u8x8_d_ssd1327.c ****     U8X8_CAA(0x015, 0x000, 0x07f),    //set column address, start column 0, end column 127
 846:..\..\..\u8g2\u8g2\csrc/u8x8_d_ssd1327.c ****     U8X8_CAA(0x075, 0x000, 0x07f),    //set row address, start row 0, end row 127
 847:..\..\..\u8g2\u8g2\csrc/u8x8_d_ssd1327.c ****     U8X8_CA(0x081, 0x080),    //set contrast control
 848:..\..\..\u8g2\u8g2\csrc/u8x8_d_ssd1327.c ****     U8X8_CA(0x0a0, 0x051),    //gment remap, 51
 849:..\..\..\u8g2\u8g2\csrc/u8x8_d_ssd1327.c ****     U8X8_CA(0x0a1, 0x000),    //start line
 850:..\..\..\u8g2\u8g2\csrc/u8x8_d_ssd1327.c ****     U8X8_CA(0x0a2, 0x000),    //display offset
 851:..\..\..\u8g2\u8g2\csrc/u8x8_d_ssd1327.c ****     U8X8_CAA(0x0a4, 0x0a8, 0x07f),    //rmal display, set multiplex ratio
 852:..\..\..\u8g2\u8g2\csrc/u8x8_d_ssd1327.c ****     U8X8_CA(0x0b1, 0x0f1),    //set phase leghth
 853:..\..\..\u8g2\u8g2\csrc/u8x8_d_ssd1327.c ****     U8X8_CA(0x0b3, 0x000),    //set dclk, 80Hz:0xc1 90Hz:0xe1   100Hz:0x00   110Hz:0x30 120Hz:0x50 
ARM GAS  C:\Users\jesse\AppData\Local\Temp\ccjh0Qlm.s 			page 30


 854:..\..\..\u8g2\u8g2\csrc/u8x8_d_ssd1327.c ****     U8X8_CA(0x0ab, 0x001),    //
 855:..\..\..\u8g2\u8g2\csrc/u8x8_d_ssd1327.c ****     U8X8_CA(0x0b6, 0x00f),    //set phase leghth
 856:..\..\..\u8g2\u8g2\csrc/u8x8_d_ssd1327.c ****     U8X8_CA(0x0be, 0x00f),
 857:..\..\..\u8g2\u8g2\csrc/u8x8_d_ssd1327.c ****     U8X8_CA(0x0bc, 0x008),
 858:..\..\..\u8g2\u8g2\csrc/u8x8_d_ssd1327.c ****     U8X8_CA(0x0d5, 0x062),
 859:..\..\..\u8g2\u8g2\csrc/u8x8_d_ssd1327.c ****     U8X8_CA(0x0fd, 0x012),
 860:..\..\..\u8g2\u8g2\csrc/u8x8_d_ssd1327.c **** 
 861:..\..\..\u8g2\u8g2\csrc/u8x8_d_ssd1327.c ****     U8X8_END_TRANSFER(),             	/* disable chip */
 862:..\..\..\u8g2\u8g2\csrc/u8x8_d_ssd1327.c ****     U8X8_END()             			/* end of sequence */
 863:..\..\..\u8g2\u8g2\csrc/u8x8_d_ssd1327.c ****   };
 864:..\..\..\u8g2\u8g2\csrc/u8x8_d_ssd1327.c **** 
 865:..\..\..\u8g2\u8g2\csrc/u8x8_d_ssd1327.c **** 
 866:..\..\..\u8g2\u8g2\csrc/u8x8_d_ssd1327.c **** uint8_t u8x8_d_ssd1327_ws_128x128(u8x8_t *u8x8, uint8_t msg, uint8_t arg_int, void *arg_ptr)
 867:..\..\..\u8g2\u8g2\csrc/u8x8_d_ssd1327.c **** {
 754              		.loc 1 867 0
 755              		.cfi_startproc
 756              		@ args = 0, pretend = 0, frame = 0
 757              		@ frame_needed = 0, uses_anonymous_args = 0
 758              	.LVL88:
 759 0000 70B5     		push	{r4, r5, r6, lr}
 760              		.cfi_def_cfa_offset 16
 761              		.cfi_offset 4, -16
 762              		.cfi_offset 5, -12
 763              		.cfi_offset 6, -8
 764              		.cfi_offset 14, -4
 765              		.loc 1 867 0
 766 0002 0446     		mov	r4, r0
 767 0004 0D46     		mov	r5, r1
 768 0006 1646     		mov	r6, r2
 868:..\..\..\u8g2\u8g2\csrc/u8x8_d_ssd1327.c ****   /* call the 96x96 procedure at the moment */
 869:..\..\..\u8g2\u8g2\csrc/u8x8_d_ssd1327.c ****   if ( u8x8_d_ssd1327_96x96_generic(u8x8, msg, arg_int, arg_ptr) != 0 )
 769              		.loc 1 869 0
 770 0008 FFF7FEFF 		bl	u8x8_d_ssd1327_96x96_generic
 771              	.LVL89:
 772 000c 10BB     		cbnz	r0, .L79
 870:..\..\..\u8g2\u8g2\csrc/u8x8_d_ssd1327.c ****     return 1;
 871:..\..\..\u8g2\u8g2\csrc/u8x8_d_ssd1327.c ****   if ( msg == U8X8_MSG_DISPLAY_SETUP_MEMORY )
 773              		.loc 1 871 0
 774 000e 092D     		cmp	r5, #9
 775 0010 04D1     		bne	.L76
 872:..\..\..\u8g2\u8g2\csrc/u8x8_d_ssd1327.c ****   {
 873:..\..\..\u8g2\u8g2\csrc/u8x8_d_ssd1327.c ****     u8x8_d_helper_display_setup_memory(u8x8, &u8x8_ssd1327_ea_w128128_display_info);
 776              		.loc 1 873 0
 777 0012 1149     		ldr	r1, .L81
 778 0014 2046     		mov	r0, r4
 779 0016 FFF7FEFF 		bl	u8x8_d_helper_display_setup_memory
 780              	.LVL90:
 781 001a 1BE0     		b	.L79
 782              	.L76:
 874:..\..\..\u8g2\u8g2\csrc/u8x8_d_ssd1327.c ****     return 1;
 875:..\..\..\u8g2\u8g2\csrc/u8x8_d_ssd1327.c ****   }
 876:..\..\..\u8g2\u8g2\csrc/u8x8_d_ssd1327.c ****   else if ( msg == U8X8_MSG_DISPLAY_INIT )
 783              		.loc 1 876 0
 784 001c 0A2D     		cmp	r5, #10
 785 001e 07D1     		bne	.L77
 877:..\..\..\u8g2\u8g2\csrc/u8x8_d_ssd1327.c ****   {
 878:..\..\..\u8g2\u8g2\csrc/u8x8_d_ssd1327.c ****     u8x8_d_helper_display_init(u8x8);
ARM GAS  C:\Users\jesse\AppData\Local\Temp\ccjh0Qlm.s 			page 31


 786              		.loc 1 878 0
 787 0020 2046     		mov	r0, r4
 788 0022 FFF7FEFF 		bl	u8x8_d_helper_display_init
 789              	.LVL91:
 879:..\..\..\u8g2\u8g2\csrc/u8x8_d_ssd1327.c ****     u8x8_cad_SendSequence(u8x8, u8x8_d_ssd1327_ws_128x128_init_seq); 
 790              		.loc 1 879 0
 791 0026 0D49     		ldr	r1, .L81+4
 792 0028 2046     		mov	r0, r4
 793 002a FFF7FEFF 		bl	u8x8_cad_SendSequence
 794              	.LVL92:
 795 002e 11E0     		b	.L79
 796              	.L77:
 880:..\..\..\u8g2\u8g2\csrc/u8x8_d_ssd1327.c ****     return 1;
 881:..\..\..\u8g2\u8g2\csrc/u8x8_d_ssd1327.c ****   }
 882:..\..\..\u8g2\u8g2\csrc/u8x8_d_ssd1327.c ****   else if  ( msg == U8X8_MSG_DISPLAY_SET_FLIP_MODE )
 797              		.loc 1 882 0
 798 0030 0D2D     		cmp	r5, #13
 799 0032 10D1     		bne	.L75
 883:..\..\..\u8g2\u8g2\csrc/u8x8_d_ssd1327.c ****   {
 884:..\..\..\u8g2\u8g2\csrc/u8x8_d_ssd1327.c ****     if ( arg_int == 0 )
 800              		.loc 1 884 0
 801 0034 36B9     		cbnz	r6, .L78
 885:..\..\..\u8g2\u8g2\csrc/u8x8_d_ssd1327.c ****     {
 886:..\..\..\u8g2\u8g2\csrc/u8x8_d_ssd1327.c ****       u8x8_cad_SendSequence(u8x8, u8x8_d_ssd1327_ea_w128128_flip0_seq);
 802              		.loc 1 886 0
 803 0036 0A49     		ldr	r1, .L81+8
 804 0038 2046     		mov	r0, r4
 805 003a FFF7FEFF 		bl	u8x8_cad_SendSequence
 806              	.LVL93:
 887:..\..\..\u8g2\u8g2\csrc/u8x8_d_ssd1327.c ****       u8x8->x_offset = u8x8->display_info->default_x_offset;
 807              		.loc 1 887 0
 808 003e 2368     		ldr	r3, [r4]
 809 0040 9B7C     		ldrb	r3, [r3, #18]	@ zero_extendqisi2
 810 0042 05E0     		b	.L80
 811              	.L78:
 888:..\..\..\u8g2\u8g2\csrc/u8x8_d_ssd1327.c ****     }
 889:..\..\..\u8g2\u8g2\csrc/u8x8_d_ssd1327.c ****     else
 890:..\..\..\u8g2\u8g2\csrc/u8x8_d_ssd1327.c ****     {
 891:..\..\..\u8g2\u8g2\csrc/u8x8_d_ssd1327.c ****       u8x8_cad_SendSequence(u8x8, u8x8_d_ssd1327_ea_w128128_flip1_seq);
 812              		.loc 1 891 0
 813 0044 0749     		ldr	r1, .L81+12
 814 0046 2046     		mov	r0, r4
 815 0048 FFF7FEFF 		bl	u8x8_cad_SendSequence
 816              	.LVL94:
 892:..\..\..\u8g2\u8g2\csrc/u8x8_d_ssd1327.c ****       u8x8->x_offset = u8x8->display_info->flipmode_x_offset;
 817              		.loc 1 892 0
 818 004c 2368     		ldr	r3, [r4]
 819 004e DB7C     		ldrb	r3, [r3, #19]	@ zero_extendqisi2
 820              	.L80:
 821 0050 84F82230 		strb	r3, [r4, #34]
 822              	.L79:
 870:..\..\..\u8g2\u8g2\csrc/u8x8_d_ssd1327.c ****   if ( msg == U8X8_MSG_DISPLAY_SETUP_MEMORY )
 823              		.loc 1 870 0
 824 0054 0120     		movs	r0, #1
 825              	.L75:
 893:..\..\..\u8g2\u8g2\csrc/u8x8_d_ssd1327.c ****     }
 894:..\..\..\u8g2\u8g2\csrc/u8x8_d_ssd1327.c ****     return 1;
ARM GAS  C:\Users\jesse\AppData\Local\Temp\ccjh0Qlm.s 			page 32


 895:..\..\..\u8g2\u8g2\csrc/u8x8_d_ssd1327.c ****   }
 896:..\..\..\u8g2\u8g2\csrc/u8x8_d_ssd1327.c ****   return 0;
 897:..\..\..\u8g2\u8g2\csrc/u8x8_d_ssd1327.c **** }
 826              		.loc 1 897 0
 827 0056 70BD     		pop	{r4, r5, r6, pc}
 828              	.LVL95:
 829              	.L82:
 830              		.align	2
 831              	.L81:
 832 0058 E8000000 		.word	.LANCHOR0+232
 833 005c 00020000 		.word	.LANCHOR0+512
 834 0060 3D010000 		.word	.LANCHOR0+317
 835 0064 48010000 		.word	.LANCHOR0+328
 836              		.cfi_endproc
 837              	.LFE7:
 838              		.size	u8x8_d_ssd1327_ws_128x128, .-u8x8_d_ssd1327_ws_128x128
 839              		.section	.text.u8x8_d_ssd1327_visionox_128x96,"ax",%progbits
 840              		.align	1
 841              		.global	u8x8_d_ssd1327_visionox_128x96
 842              		.thumb
 843              		.thumb_func
 844              		.type	u8x8_d_ssd1327_visionox_128x96, %function
 845              	u8x8_d_ssd1327_visionox_128x96:
 846              	.LFB8:
 898:..\..\..\u8g2\u8g2\csrc/u8x8_d_ssd1327.c **** 
 899:..\..\..\u8g2\u8g2\csrc/u8x8_d_ssd1327.c **** 
 900:..\..\..\u8g2\u8g2\csrc/u8x8_d_ssd1327.c **** 
 901:..\..\..\u8g2\u8g2\csrc/u8x8_d_ssd1327.c **** 
 902:..\..\..\u8g2\u8g2\csrc/u8x8_d_ssd1327.c **** /*=============================================*/
 903:..\..\..\u8g2\u8g2\csrc/u8x8_d_ssd1327.c **** /*  
 904:..\..\..\u8g2\u8g2\csrc/u8x8_d_ssd1327.c **** Visonox VGM128096A4W10 128x96 COB 
 905:..\..\..\u8g2\u8g2\csrc/u8x8_d_ssd1327.c **** https://github.com/olikraus/u8g2/files/4052919/M02289_VGM128096A4W10_Y02.pdf
 906:..\..\..\u8g2\u8g2\csrc/u8x8_d_ssd1327.c **** https://github.com/olikraus/u8g2/issues/1090
 907:..\..\..\u8g2\u8g2\csrc/u8x8_d_ssd1327.c **** */
 908:..\..\..\u8g2\u8g2\csrc/u8x8_d_ssd1327.c **** 
 909:..\..\..\u8g2\u8g2\csrc/u8x8_d_ssd1327.c **** 
 910:..\..\..\u8g2\u8g2\csrc/u8x8_d_ssd1327.c **** static const u8x8_display_info_t u8x8_ssd1327_128x96_display_info =
 911:..\..\..\u8g2\u8g2\csrc/u8x8_d_ssd1327.c **** {
 912:..\..\..\u8g2\u8g2\csrc/u8x8_d_ssd1327.c ****   /* chip_enable_level = */ 0,
 913:..\..\..\u8g2\u8g2\csrc/u8x8_d_ssd1327.c ****   /* chip_disable_level = */ 1,
 914:..\..\..\u8g2\u8g2\csrc/u8x8_d_ssd1327.c ****   
 915:..\..\..\u8g2\u8g2\csrc/u8x8_d_ssd1327.c ****   /* post_chip_enable_wait_ns = */ 20,
 916:..\..\..\u8g2\u8g2\csrc/u8x8_d_ssd1327.c ****   /* pre_chip_disable_wait_ns = */ 10,
 917:..\..\..\u8g2\u8g2\csrc/u8x8_d_ssd1327.c ****   /* reset_pulse_width_ms = */ 100, 	
 918:..\..\..\u8g2\u8g2\csrc/u8x8_d_ssd1327.c ****   /* post_reset_wait_ms = */ 100, 		/**/
 919:..\..\..\u8g2\u8g2\csrc/u8x8_d_ssd1327.c ****   /* sda_setup_time_ns = */ 100,		/* */
 920:..\..\..\u8g2\u8g2\csrc/u8x8_d_ssd1327.c ****   /* sck_pulse_width_ns = */ 100,	/*  */
 921:..\..\..\u8g2\u8g2\csrc/u8x8_d_ssd1327.c ****   /* sck_clock_hz = */ 4000000UL,	/* since Arduino 1.6.0, the SPI bus speed in Hz. Should be  10000
 922:..\..\..\u8g2\u8g2\csrc/u8x8_d_ssd1327.c ****   /* spi_mode = */ 0,		/* active high, rising edge */
 923:..\..\..\u8g2\u8g2\csrc/u8x8_d_ssd1327.c ****   /* i2c_bus_clock_100kHz = */ 1,	/* use 1 instead of 4, because the SSD1327 seems to be very slow,
 924:..\..\..\u8g2\u8g2\csrc/u8x8_d_ssd1327.c ****   /* data_setup_time_ns = */ 40,
 925:..\..\..\u8g2\u8g2\csrc/u8x8_d_ssd1327.c ****   /* write_pulse_width_ns = */ 60,	
 926:..\..\..\u8g2\u8g2\csrc/u8x8_d_ssd1327.c ****   /* tile_width = */ 16,
 927:..\..\..\u8g2\u8g2\csrc/u8x8_d_ssd1327.c ****   /* tile_hight = */ 12,
 928:..\..\..\u8g2\u8g2\csrc/u8x8_d_ssd1327.c ****   /* default_x_offset = */ 0,
 929:..\..\..\u8g2\u8g2\csrc/u8x8_d_ssd1327.c ****   /* flipmode_x_offset = */ 0,		
 930:..\..\..\u8g2\u8g2\csrc/u8x8_d_ssd1327.c ****   /* pixel_width = */ 128,
ARM GAS  C:\Users\jesse\AppData\Local\Temp\ccjh0Qlm.s 			page 33


 931:..\..\..\u8g2\u8g2\csrc/u8x8_d_ssd1327.c ****   /* pixel_height = */ 96
 932:..\..\..\u8g2\u8g2\csrc/u8x8_d_ssd1327.c **** };
 933:..\..\..\u8g2\u8g2\csrc/u8x8_d_ssd1327.c **** 
 934:..\..\..\u8g2\u8g2\csrc/u8x8_d_ssd1327.c **** /*  https://github.com/SeeedDocument/Grove_OLED_1.12/raw/master/resources/LY120-096096.pdf */
 935:..\..\..\u8g2\u8g2\csrc/u8x8_d_ssd1327.c **** /*  http://www.seeedstudio.com/wiki/index.php?title=Twig_-_OLED_96x96 */
 936:..\..\..\u8g2\u8g2\csrc/u8x8_d_ssd1327.c **** /* values from u8glib */
 937:..\..\..\u8g2\u8g2\csrc/u8x8_d_ssd1327.c **** /*
 938:..\..\..\u8g2\u8g2\csrc/u8x8_d_ssd1327.c ****   Re-map setting in Graphic Display Data RAM, command 0x0a0
 939:..\..\..\u8g2\u8g2\csrc/u8x8_d_ssd1327.c ****     Bit 0: Column Address Re-map
 940:..\..\..\u8g2\u8g2\csrc/u8x8_d_ssd1327.c ****     Bit 1: Nibble Re-map
 941:..\..\..\u8g2\u8g2\csrc/u8x8_d_ssd1327.c ****     Bit 2: Horizontal/Vertical Address Increment
 942:..\..\..\u8g2\u8g2\csrc/u8x8_d_ssd1327.c ****     Bit 3: Not used, must be 0
 943:..\..\..\u8g2\u8g2\csrc/u8x8_d_ssd1327.c ****     
 944:..\..\..\u8g2\u8g2\csrc/u8x8_d_ssd1327.c ****     Bit 4: COM Re-map
 945:..\..\..\u8g2\u8g2\csrc/u8x8_d_ssd1327.c ****     Bit 5: Not used, must be 0
 946:..\..\..\u8g2\u8g2\csrc/u8x8_d_ssd1327.c ****     Bit 6: COM Split Odd Even
 947:..\..\..\u8g2\u8g2\csrc/u8x8_d_ssd1327.c ****     Bit 7: Not used, must be 0
 948:..\..\..\u8g2\u8g2\csrc/u8x8_d_ssd1327.c **** */
 949:..\..\..\u8g2\u8g2\csrc/u8x8_d_ssd1327.c **** 
 950:..\..\..\u8g2\u8g2\csrc/u8x8_d_ssd1327.c **** /* init values from the Visionox datasheeet section 10.4 */
 951:..\..\..\u8g2\u8g2\csrc/u8x8_d_ssd1327.c **** 
 952:..\..\..\u8g2\u8g2\csrc/u8x8_d_ssd1327.c **** static const uint8_t u8x8_d_ssd1327_128x96_init_seq[] = {
 953:..\..\..\u8g2\u8g2\csrc/u8x8_d_ssd1327.c ****     
 954:..\..\..\u8g2\u8g2\csrc/u8x8_d_ssd1327.c ****   U8X8_START_TRANSFER(),             	/* enable chip, delay is part of the transfer start */
 955:..\..\..\u8g2\u8g2\csrc/u8x8_d_ssd1327.c **** 
 956:..\..\..\u8g2\u8g2\csrc/u8x8_d_ssd1327.c **** 	
 957:..\..\..\u8g2\u8g2\csrc/u8x8_d_ssd1327.c ****   U8X8_CA(0x0fd, 0x012),		/* unlock display, usually not required because the display is unlocked a
 958:..\..\..\u8g2\u8g2\csrc/u8x8_d_ssd1327.c ****   U8X8_C(0x0ae),		                /* display off */
 959:..\..\..\u8g2\u8g2\csrc/u8x8_d_ssd1327.c ****   //U8X8_CA(0x0a8, 0x03f),		/* multiplex ratio: 0x03f * 1/64 duty */
 960:..\..\..\u8g2\u8g2\csrc/u8x8_d_ssd1327.c ****   U8X8_CA(0x0a8, 0x05f),		/* multiplex ratio: 0x05f * 1/64 duty */
 961:..\..\..\u8g2\u8g2\csrc/u8x8_d_ssd1327.c ****   //U8X8_CA(0x0a8, 0x07f),       		 /* multiplex ratio: 0x05f * 1/128duty */
 962:..\..\..\u8g2\u8g2\csrc/u8x8_d_ssd1327.c ****   U8X8_CA(0x0a1, 0x000),		/* display start line */
 963:..\..\..\u8g2\u8g2\csrc/u8x8_d_ssd1327.c ****   //U8X8_CA(0x0a2, 0x04c),		/* display offset, shift mapping ram counter */
 964:..\..\..\u8g2\u8g2\csrc/u8x8_d_ssd1327.c ****   
 965:..\..\..\u8g2\u8g2\csrc/u8x8_d_ssd1327.c ****   U8X8_CA(0x0a2, 0x020),		/* display offset, shift mapping ram counter */
 966:..\..\..\u8g2\u8g2\csrc/u8x8_d_ssd1327.c ****   U8X8_CA(0x0a0, 0x051),		/* remap configuration */
 967:..\..\..\u8g2\u8g2\csrc/u8x8_d_ssd1327.c ****   
 968:..\..\..\u8g2\u8g2\csrc/u8x8_d_ssd1327.c ****   
 969:..\..\..\u8g2\u8g2\csrc/u8x8_d_ssd1327.c ****   U8X8_CA(0x0ab, 0x001),		/* Enable internal VDD regulator (RESET) */
 970:..\..\..\u8g2\u8g2\csrc/u8x8_d_ssd1327.c ****   //U8X8_CA(0x081, 0x070),		/* contrast, brightness, 0..128 */
 971:..\..\..\u8g2\u8g2\csrc/u8x8_d_ssd1327.c ****   U8X8_CA(0x081, 0x0df),		/* contrast, brightness, 0..128 (0xdf as per datasheet) */
 972:..\..\..\u8g2\u8g2\csrc/u8x8_d_ssd1327.c ****   U8X8_CA(0x0b1, 0x022),                    /* phase length */  
 973:..\..\..\u8g2\u8g2\csrc/u8x8_d_ssd1327.c ****   U8X8_CA(0x0b3, 0x050),		/* set display clock divide ratio/oscillator frequency  */			
 974:..\..\..\u8g2\u8g2\csrc/u8x8_d_ssd1327.c ****   
 975:..\..\..\u8g2\u8g2\csrc/u8x8_d_ssd1327.c ****   //? U8X8_CA(0x0ad, 0x002),		/* master configuration: disable embedded DC-DC, enable internal VCOM
 976:..\..\..\u8g2\u8g2\csrc/u8x8_d_ssd1327.c ****   //? U8X8_C(0x086),				/* full current range (0x084, 0x085, 0x086) */
 977:..\..\..\u8g2\u8g2\csrc/u8x8_d_ssd1327.c ****   
 978:..\..\..\u8g2\u8g2\csrc/u8x8_d_ssd1327.c ****   U8X8_C(0x0b9),				/* use linear lookup table */
 979:..\..\..\u8g2\u8g2\csrc/u8x8_d_ssd1327.c **** 
 980:..\..\..\u8g2\u8g2\csrc/u8x8_d_ssd1327.c ****   U8X8_CA(0x0bc, 0x010),                    /* pre-charge voltage level */
 981:..\..\..\u8g2\u8g2\csrc/u8x8_d_ssd1327.c ****   U8X8_CA(0x0be, 0x005),                     /* VCOMH voltage */
 982:..\..\..\u8g2\u8g2\csrc/u8x8_d_ssd1327.c ****   U8X8_CA(0x0b6, 0x00a),		/* second precharge */
 983:..\..\..\u8g2\u8g2\csrc/u8x8_d_ssd1327.c ****   U8X8_CA(0x0d5, 0x062),		/* enable second precharge, internal vsl (bit0 = 0) */
 984:..\..\..\u8g2\u8g2\csrc/u8x8_d_ssd1327.c **** 
 985:..\..\..\u8g2\u8g2\csrc/u8x8_d_ssd1327.c **** 
 986:..\..\..\u8g2\u8g2\csrc/u8x8_d_ssd1327.c ****   
 987:..\..\..\u8g2\u8g2\csrc/u8x8_d_ssd1327.c ****   U8X8_C(0x0a4),				/* normal display mode */
ARM GAS  C:\Users\jesse\AppData\Local\Temp\ccjh0Qlm.s 			page 34


 988:..\..\..\u8g2\u8g2\csrc/u8x8_d_ssd1327.c ****     
 989:..\..\..\u8g2\u8g2\csrc/u8x8_d_ssd1327.c ****   U8X8_END_TRANSFER(),             	/* disable chip */
 990:..\..\..\u8g2\u8g2\csrc/u8x8_d_ssd1327.c ****   U8X8_END()             			/* end of sequence */
 991:..\..\..\u8g2\u8g2\csrc/u8x8_d_ssd1327.c **** };
 992:..\..\..\u8g2\u8g2\csrc/u8x8_d_ssd1327.c **** 
 993:..\..\..\u8g2\u8g2\csrc/u8x8_d_ssd1327.c **** 
 994:..\..\..\u8g2\u8g2\csrc/u8x8_d_ssd1327.c **** static const uint8_t u8x8_d_ssd1327_128x96_flip0_seq[] = {
 995:..\..\..\u8g2\u8g2\csrc/u8x8_d_ssd1327.c ****   U8X8_START_TRANSFER(),             	/* enable chip, delay is part of the transfer start */
 996:..\..\..\u8g2\u8g2\csrc/u8x8_d_ssd1327.c ****   U8X8_CA(0x0a2, 0x020),		/* display offset, shift mapping ram counter */
 997:..\..\..\u8g2\u8g2\csrc/u8x8_d_ssd1327.c ****   U8X8_CA(0x0a0, 0x051),		/* remap configuration */
 998:..\..\..\u8g2\u8g2\csrc/u8x8_d_ssd1327.c ****   U8X8_END_TRANSFER(),             	/* disable chip */
 999:..\..\..\u8g2\u8g2\csrc/u8x8_d_ssd1327.c ****   U8X8_END()             			/* end of sequence */
1000:..\..\..\u8g2\u8g2\csrc/u8x8_d_ssd1327.c **** };
1001:..\..\..\u8g2\u8g2\csrc/u8x8_d_ssd1327.c **** 
1002:..\..\..\u8g2\u8g2\csrc/u8x8_d_ssd1327.c **** static const uint8_t u8x8_d_ssd1327_128x96_flip1_seq[] = {
1003:..\..\..\u8g2\u8g2\csrc/u8x8_d_ssd1327.c ****   U8X8_START_TRANSFER(),             	/* enable chip, delay is part of the transfer start */
1004:..\..\..\u8g2\u8g2\csrc/u8x8_d_ssd1327.c ****   U8X8_CA(0x0a2, 0x060),		/* display offset, shift mapping ram counter */
1005:..\..\..\u8g2\u8g2\csrc/u8x8_d_ssd1327.c ****   U8X8_CA(0x0a0, 0x042),		/* remap configuration */
1006:..\..\..\u8g2\u8g2\csrc/u8x8_d_ssd1327.c ****   U8X8_END_TRANSFER(),             	/* disable chip */
1007:..\..\..\u8g2\u8g2\csrc/u8x8_d_ssd1327.c ****   U8X8_END()             			/* end of sequence */
1008:..\..\..\u8g2\u8g2\csrc/u8x8_d_ssd1327.c **** };
1009:..\..\..\u8g2\u8g2\csrc/u8x8_d_ssd1327.c **** 
1010:..\..\..\u8g2\u8g2\csrc/u8x8_d_ssd1327.c **** 
1011:..\..\..\u8g2\u8g2\csrc/u8x8_d_ssd1327.c **** uint8_t u8x8_d_ssd1327_visionox_128x96(u8x8_t *u8x8, uint8_t msg, uint8_t arg_int, void *arg_ptr)
1012:..\..\..\u8g2\u8g2\csrc/u8x8_d_ssd1327.c **** {
 847              		.loc 1 1012 0
 848              		.cfi_startproc
 849              		@ args = 0, pretend = 0, frame = 0
 850              		@ frame_needed = 0, uses_anonymous_args = 0
 851              	.LVL96:
 852 0000 70B5     		push	{r4, r5, r6, lr}
 853              		.cfi_def_cfa_offset 16
 854              		.cfi_offset 4, -16
 855              		.cfi_offset 5, -12
 856              		.cfi_offset 6, -8
 857              		.cfi_offset 14, -4
 858              		.loc 1 1012 0
 859 0002 0446     		mov	r4, r0
 860 0004 0D46     		mov	r5, r1
 861 0006 1646     		mov	r6, r2
1013:..\..\..\u8g2\u8g2\csrc/u8x8_d_ssd1327.c ****   /* call the 96x96 procedure at the moment */
1014:..\..\..\u8g2\u8g2\csrc/u8x8_d_ssd1327.c ****   if ( u8x8_d_ssd1327_96x96_generic(u8x8, msg, arg_int, arg_ptr) != 0 )
 862              		.loc 1 1014 0
 863 0008 FFF7FEFF 		bl	u8x8_d_ssd1327_96x96_generic
 864              	.LVL97:
 865 000c 10BB     		cbnz	r0, .L88
1015:..\..\..\u8g2\u8g2\csrc/u8x8_d_ssd1327.c ****     return 1;
1016:..\..\..\u8g2\u8g2\csrc/u8x8_d_ssd1327.c ****   if ( msg == U8X8_MSG_DISPLAY_SETUP_MEMORY )
 866              		.loc 1 1016 0
 867 000e 092D     		cmp	r5, #9
 868 0010 04D1     		bne	.L85
1017:..\..\..\u8g2\u8g2\csrc/u8x8_d_ssd1327.c ****   {
1018:..\..\..\u8g2\u8g2\csrc/u8x8_d_ssd1327.c ****     u8x8_d_helper_display_setup_memory(u8x8, &u8x8_ssd1327_128x96_display_info);
 869              		.loc 1 1018 0
 870 0012 1149     		ldr	r1, .L90
 871 0014 2046     		mov	r0, r4
 872 0016 FFF7FEFF 		bl	u8x8_d_helper_display_setup_memory
ARM GAS  C:\Users\jesse\AppData\Local\Temp\ccjh0Qlm.s 			page 35


 873              	.LVL98:
 874 001a 1BE0     		b	.L88
 875              	.L85:
1019:..\..\..\u8g2\u8g2\csrc/u8x8_d_ssd1327.c ****     return 1;
1020:..\..\..\u8g2\u8g2\csrc/u8x8_d_ssd1327.c ****   }
1021:..\..\..\u8g2\u8g2\csrc/u8x8_d_ssd1327.c ****   else if ( msg == U8X8_MSG_DISPLAY_INIT )
 876              		.loc 1 1021 0
 877 001c 0A2D     		cmp	r5, #10
 878 001e 07D1     		bne	.L86
1022:..\..\..\u8g2\u8g2\csrc/u8x8_d_ssd1327.c ****   {
1023:..\..\..\u8g2\u8g2\csrc/u8x8_d_ssd1327.c ****     u8x8_d_helper_display_init(u8x8);
 879              		.loc 1 1023 0
 880 0020 2046     		mov	r0, r4
 881 0022 FFF7FEFF 		bl	u8x8_d_helper_display_init
 882              	.LVL99:
1024:..\..\..\u8g2\u8g2\csrc/u8x8_d_ssd1327.c ****     u8x8_cad_SendSequence(u8x8, u8x8_d_ssd1327_128x96_init_seq); 
 883              		.loc 1 1024 0
 884 0026 0D49     		ldr	r1, .L90+4
 885 0028 2046     		mov	r0, r4
 886 002a FFF7FEFF 		bl	u8x8_cad_SendSequence
 887              	.LVL100:
 888 002e 11E0     		b	.L88
 889              	.L86:
1025:..\..\..\u8g2\u8g2\csrc/u8x8_d_ssd1327.c ****     return 1;
1026:..\..\..\u8g2\u8g2\csrc/u8x8_d_ssd1327.c ****   }
1027:..\..\..\u8g2\u8g2\csrc/u8x8_d_ssd1327.c ****   else if  ( msg == U8X8_MSG_DISPLAY_SET_FLIP_MODE )
 890              		.loc 1 1027 0
 891 0030 0D2D     		cmp	r5, #13
 892 0032 10D1     		bne	.L84
1028:..\..\..\u8g2\u8g2\csrc/u8x8_d_ssd1327.c ****   {
1029:..\..\..\u8g2\u8g2\csrc/u8x8_d_ssd1327.c ****     if ( arg_int == 0 )
 893              		.loc 1 1029 0
 894 0034 36B9     		cbnz	r6, .L87
1030:..\..\..\u8g2\u8g2\csrc/u8x8_d_ssd1327.c ****     {
1031:..\..\..\u8g2\u8g2\csrc/u8x8_d_ssd1327.c ****       u8x8_cad_SendSequence(u8x8, u8x8_d_ssd1327_128x96_flip0_seq);
 895              		.loc 1 1031 0
 896 0036 0A49     		ldr	r1, .L90+8
 897 0038 2046     		mov	r0, r4
 898 003a FFF7FEFF 		bl	u8x8_cad_SendSequence
 899              	.LVL101:
1032:..\..\..\u8g2\u8g2\csrc/u8x8_d_ssd1327.c ****       u8x8->x_offset = u8x8->display_info->default_x_offset;
 900              		.loc 1 1032 0
 901 003e 2368     		ldr	r3, [r4]
 902 0040 9B7C     		ldrb	r3, [r3, #18]	@ zero_extendqisi2
 903 0042 05E0     		b	.L89
 904              	.L87:
1033:..\..\..\u8g2\u8g2\csrc/u8x8_d_ssd1327.c ****     }
1034:..\..\..\u8g2\u8g2\csrc/u8x8_d_ssd1327.c ****     else
1035:..\..\..\u8g2\u8g2\csrc/u8x8_d_ssd1327.c ****     {
1036:..\..\..\u8g2\u8g2\csrc/u8x8_d_ssd1327.c ****       u8x8_cad_SendSequence(u8x8, u8x8_d_ssd1327_128x96_flip1_seq);
 905              		.loc 1 1036 0
 906 0044 0749     		ldr	r1, .L90+12
 907 0046 2046     		mov	r0, r4
 908 0048 FFF7FEFF 		bl	u8x8_cad_SendSequence
 909              	.LVL102:
1037:..\..\..\u8g2\u8g2\csrc/u8x8_d_ssd1327.c ****       u8x8->x_offset = u8x8->display_info->flipmode_x_offset;
 910              		.loc 1 1037 0
ARM GAS  C:\Users\jesse\AppData\Local\Temp\ccjh0Qlm.s 			page 36


 911 004c 2368     		ldr	r3, [r4]
 912 004e DB7C     		ldrb	r3, [r3, #19]	@ zero_extendqisi2
 913              	.L89:
 914 0050 84F82230 		strb	r3, [r4, #34]
 915              	.L88:
1015:..\..\..\u8g2\u8g2\csrc/u8x8_d_ssd1327.c ****   if ( msg == U8X8_MSG_DISPLAY_SETUP_MEMORY )
 916              		.loc 1 1015 0
 917 0054 0120     		movs	r0, #1
 918              	.L84:
1038:..\..\..\u8g2\u8g2\csrc/u8x8_d_ssd1327.c ****     }
1039:..\..\..\u8g2\u8g2\csrc/u8x8_d_ssd1327.c ****     return 1;
1040:..\..\..\u8g2\u8g2\csrc/u8x8_d_ssd1327.c ****   }
1041:..\..\..\u8g2\u8g2\csrc/u8x8_d_ssd1327.c ****   return 0;
1042:..\..\..\u8g2\u8g2\csrc/u8x8_d_ssd1327.c **** }
 919              		.loc 1 1042 0
 920 0056 70BD     		pop	{r4, r5, r6, pc}
 921              	.LVL103:
 922              	.L91:
 923              		.align	2
 924              	.L90:
 925 0058 48020000 		.word	.LANCHOR0+584
 926 005c 60020000 		.word	.LANCHOR0+608
 927 0060 9D020000 		.word	.LANCHOR0+669
 928 0064 A8020000 		.word	.LANCHOR0+680
 929              		.cfi_endproc
 930              	.LFE8:
 931              		.size	u8x8_d_ssd1327_visionox_128x96, .-u8x8_d_ssd1327_visionox_128x96
 932              		.section	.rodata
 933              		.align	2
 934              		.set	.LANCHOR0,. + 0
 935              		.type	u8x8_d_ssd1327_96x96_powersave0_seq, %object
 936              		.size	u8x8_d_ssd1327_96x96_powersave0_seq, 5
 937              	u8x8_d_ssd1327_96x96_powersave0_seq:
 938 0000 18       		.byte	24
 939 0001 15       		.byte	21
 940 0002 AF       		.byte	-81
 941 0003 19       		.byte	25
 942 0004 FF       		.byte	-1
 943              		.type	u8x8_d_ssd1327_96x96_powersave1_seq, %object
 944              		.size	u8x8_d_ssd1327_96x96_powersave1_seq, 5
 945              	u8x8_d_ssd1327_96x96_powersave1_seq:
 946 0005 18       		.byte	24
 947 0006 15       		.byte	21
 948 0007 AE       		.byte	-82
 949 0008 19       		.byte	25
 950 0009 FF       		.byte	-1
 951 000a 0000     		.space	2
 952              		.type	u8x8_ssd1327_winstar_96x64_display_info, %object
 953              		.size	u8x8_ssd1327_winstar_96x64_display_info, 24
 954              	u8x8_ssd1327_winstar_96x64_display_info:
 955 000c 00       		.byte	0
 956 000d 01       		.byte	1
 957 000e 14       		.byte	20
 958 000f 0A       		.byte	10
 959 0010 64       		.byte	100
 960 0011 64       		.byte	100
 961 0012 64       		.byte	100
ARM GAS  C:\Users\jesse\AppData\Local\Temp\ccjh0Qlm.s 			page 37


 962 0013 64       		.byte	100
 963 0014 00093D00 		.word	4000000
 964 0018 00       		.byte	0
 965 0019 01       		.byte	1
 966 001a 28       		.byte	40
 967 001b 3C       		.byte	60
 968 001c 0C       		.byte	12
 969 001d 08       		.byte	8
 970 001e 10       		.byte	16
 971 001f 10       		.byte	16
 972 0020 6000     		.short	96
 973 0022 4000     		.short	64
 974              		.type	u8x8_d_ssd1327_winstar_96x64_init_seq, %object
 975              		.size	u8x8_d_ssd1327_winstar_96x64_init_seq, 65
 976              	u8x8_d_ssd1327_winstar_96x64_init_seq:
 977 0024 18       		.byte	24
 978 0025 15       		.byte	21
 979 0026 FD       		.byte	-3
 980 0027 16       		.byte	22
 981 0028 12       		.byte	18
 982 0029 15       		.byte	21
 983 002a AE       		.byte	-82
 984 002b 15       		.byte	21
 985 002c D9       		.byte	-39
 986 002d 16       		.byte	22
 987 002e 00       		.byte	0
 988 002f 15       		.byte	21
 989 0030 A0       		.byte	-96
 990 0031 16       		.byte	22
 991 0032 42       		.byte	66
 992 0033 15       		.byte	21
 993 0034 A1       		.byte	-95
 994 0035 16       		.byte	22
 995 0036 00       		.byte	0
 996 0037 15       		.byte	21
 997 0038 A2       		.byte	-94
 998 0039 16       		.byte	22
 999 003a 00       		.byte	0
 1000 003b 15       		.byte	21
 1001 003c A8       		.byte	-88
 1002 003d 16       		.byte	22
 1003 003e 63       		.byte	99
 1004 003f 15       		.byte	21
 1005 0040 AB       		.byte	-85
 1006 0041 16       		.byte	22
 1007 0042 01       		.byte	1
 1008 0043 15       		.byte	21
 1009 0044 81       		.byte	-127
 1010 0045 16       		.byte	22
 1011 0046 53       		.byte	83
 1012 0047 15       		.byte	21
 1013 0048 B1       		.byte	-79
 1014 0049 16       		.byte	22
 1015 004a 47       		.byte	71
 1016 004b 15       		.byte	21
 1017 004c B3       		.byte	-77
 1018 004d 16       		.byte	22
ARM GAS  C:\Users\jesse\AppData\Local\Temp\ccjh0Qlm.s 			page 38


 1019 004e 00       		.byte	0
 1020 004f 15       		.byte	21
 1021 0050 B9       		.byte	-71
 1022 0051 15       		.byte	21
 1023 0052 BC       		.byte	-68
 1024 0053 16       		.byte	22
 1025 0054 07       		.byte	7
 1026 0055 15       		.byte	21
 1027 0056 BE       		.byte	-66
 1028 0057 16       		.byte	22
 1029 0058 07       		.byte	7
 1030 0059 15       		.byte	21
 1031 005a B6       		.byte	-74
 1032 005b 16       		.byte	22
 1033 005c 04       		.byte	4
 1034 005d 15       		.byte	21
 1035 005e D5       		.byte	-43
 1036 005f 16       		.byte	22
 1037 0060 62       		.byte	98
 1038 0061 15       		.byte	21
 1039 0062 A4       		.byte	-92
 1040 0063 19       		.byte	25
 1041 0064 FF       		.byte	-1
 1042              		.type	u8x8_d_ssd1327_winstar_96x64_flip0_seq, %object
 1043              		.size	u8x8_d_ssd1327_winstar_96x64_flip0_seq, 11
 1044              	u8x8_d_ssd1327_winstar_96x64_flip0_seq:
 1045 0065 18       		.byte	24
 1046 0066 15       		.byte	21
 1047 0067 A0       		.byte	-96
 1048 0068 16       		.byte	22
 1049 0069 42       		.byte	66
 1050 006a 15       		.byte	21
 1051 006b A2       		.byte	-94
 1052 006c 16       		.byte	22
 1053 006d 00       		.byte	0
 1054 006e 19       		.byte	25
 1055 006f FF       		.byte	-1
 1056              		.type	u8x8_d_ssd1327_winstar_96x64_flip1_seq, %object
 1057              		.size	u8x8_d_ssd1327_winstar_96x64_flip1_seq, 11
 1058              	u8x8_d_ssd1327_winstar_96x64_flip1_seq:
 1059 0070 18       		.byte	24
 1060 0071 15       		.byte	21
 1061 0072 A0       		.byte	-96
 1062 0073 16       		.byte	22
 1063 0074 51       		.byte	81
 1064 0075 15       		.byte	21
 1065 0076 A2       		.byte	-94
 1066 0077 16       		.byte	22
 1067 0078 40       		.byte	64
 1068 0079 19       		.byte	25
 1069 007a FF       		.byte	-1
 1070 007b 00       		.space	1
 1071              		.type	u8x8_ssd1327_96x96_display_info, %object
 1072              		.size	u8x8_ssd1327_96x96_display_info, 24
 1073              	u8x8_ssd1327_96x96_display_info:
 1074 007c 00       		.byte	0
 1075 007d 01       		.byte	1
ARM GAS  C:\Users\jesse\AppData\Local\Temp\ccjh0Qlm.s 			page 39


 1076 007e 14       		.byte	20
 1077 007f 0A       		.byte	10
 1078 0080 64       		.byte	100
 1079 0081 64       		.byte	100
 1080 0082 64       		.byte	100
 1081 0083 64       		.byte	100
 1082 0084 00093D00 		.word	4000000
 1083 0088 00       		.byte	0
 1084 0089 01       		.byte	1
 1085 008a 28       		.byte	40
 1086 008b 3C       		.byte	60
 1087 008c 0C       		.byte	12
 1088 008d 0C       		.byte	12
 1089 008e 10       		.byte	16
 1090 008f 10       		.byte	16
 1091 0090 6000     		.short	96
 1092 0092 6000     		.short	96
 1093              		.type	u8x8_d_ssd1327_96x96_init_seq, %object
 1094              		.size	u8x8_d_ssd1327_96x96_init_seq, 61
 1095              	u8x8_d_ssd1327_96x96_init_seq:
 1096 0094 18       		.byte	24
 1097 0095 15       		.byte	21
 1098 0096 FD       		.byte	-3
 1099 0097 16       		.byte	22
 1100 0098 12       		.byte	18
 1101 0099 15       		.byte	21
 1102 009a AE       		.byte	-82
 1103 009b 15       		.byte	21
 1104 009c A8       		.byte	-88
 1105 009d 16       		.byte	22
 1106 009e 5F       		.byte	95
 1107 009f 15       		.byte	21
 1108 00a0 A1       		.byte	-95
 1109 00a1 16       		.byte	22
 1110 00a2 00       		.byte	0
 1111 00a3 15       		.byte	21
 1112 00a4 A2       		.byte	-94
 1113 00a5 16       		.byte	22
 1114 00a6 20       		.byte	32
 1115 00a7 15       		.byte	21
 1116 00a8 A0       		.byte	-96
 1117 00a9 16       		.byte	22
 1118 00aa 51       		.byte	81
 1119 00ab 15       		.byte	21
 1120 00ac AB       		.byte	-85
 1121 00ad 16       		.byte	22
 1122 00ae 01       		.byte	1
 1123 00af 15       		.byte	21
 1124 00b0 81       		.byte	-127
 1125 00b1 16       		.byte	22
 1126 00b2 53       		.byte	83
 1127 00b3 15       		.byte	21
 1128 00b4 B1       		.byte	-79
 1129 00b5 16       		.byte	22
 1130 00b6 51       		.byte	81
 1131 00b7 15       		.byte	21
 1132 00b8 B3       		.byte	-77
ARM GAS  C:\Users\jesse\AppData\Local\Temp\ccjh0Qlm.s 			page 40


 1133 00b9 16       		.byte	22
 1134 00ba 01       		.byte	1
 1135 00bb 15       		.byte	21
 1136 00bc B9       		.byte	-71
 1137 00bd 15       		.byte	21
 1138 00be BC       		.byte	-68
 1139 00bf 16       		.byte	22
 1140 00c0 08       		.byte	8
 1141 00c1 15       		.byte	21
 1142 00c2 BE       		.byte	-66
 1143 00c3 16       		.byte	22
 1144 00c4 07       		.byte	7
 1145 00c5 15       		.byte	21
 1146 00c6 B6       		.byte	-74
 1147 00c7 16       		.byte	22
 1148 00c8 01       		.byte	1
 1149 00c9 15       		.byte	21
 1150 00ca D5       		.byte	-43
 1151 00cb 16       		.byte	22
 1152 00cc 62       		.byte	98
 1153 00cd 15       		.byte	21
 1154 00ce A4       		.byte	-92
 1155 00cf 19       		.byte	25
 1156 00d0 FF       		.byte	-1
 1157              		.type	u8x8_d_ssd1327_seeed_96x96_flip0_seq, %object
 1158              		.size	u8x8_d_ssd1327_seeed_96x96_flip0_seq, 11
 1159              	u8x8_d_ssd1327_seeed_96x96_flip0_seq:
 1160 00d1 18       		.byte	24
 1161 00d2 15       		.byte	21
 1162 00d3 A2       		.byte	-94
 1163 00d4 16       		.byte	22
 1164 00d5 20       		.byte	32
 1165 00d6 15       		.byte	21
 1166 00d7 A0       		.byte	-96
 1167 00d8 16       		.byte	22
 1168 00d9 51       		.byte	81
 1169 00da 19       		.byte	25
 1170 00db FF       		.byte	-1
 1171              		.type	u8x8_d_ssd1327_seeed_96x96_flip1_seq, %object
 1172              		.size	u8x8_d_ssd1327_seeed_96x96_flip1_seq, 11
 1173              	u8x8_d_ssd1327_seeed_96x96_flip1_seq:
 1174 00dc 18       		.byte	24
 1175 00dd 15       		.byte	21
 1176 00de A2       		.byte	-94
 1177 00df 16       		.byte	22
 1178 00e0 60       		.byte	96
 1179 00e1 15       		.byte	21
 1180 00e2 A0       		.byte	-96
 1181 00e3 16       		.byte	22
 1182 00e4 42       		.byte	66
 1183 00e5 19       		.byte	25
 1184 00e6 FF       		.byte	-1
 1185 00e7 00       		.space	1
 1186              		.type	u8x8_ssd1327_ea_w128128_display_info, %object
 1187              		.size	u8x8_ssd1327_ea_w128128_display_info, 24
 1188              	u8x8_ssd1327_ea_w128128_display_info:
 1189 00e8 00       		.byte	0
ARM GAS  C:\Users\jesse\AppData\Local\Temp\ccjh0Qlm.s 			page 41


 1190 00e9 01       		.byte	1
 1191 00ea 14       		.byte	20
 1192 00eb 0A       		.byte	10
 1193 00ec 64       		.byte	100
 1194 00ed 64       		.byte	100
 1195 00ee 64       		.byte	100
 1196 00ef 64       		.byte	100
 1197 00f0 00093D00 		.word	4000000
 1198 00f4 00       		.byte	0
 1199 00f5 01       		.byte	1
 1200 00f6 28       		.byte	40
 1201 00f7 3C       		.byte	60
 1202 00f8 10       		.byte	16
 1203 00f9 10       		.byte	16
 1204 00fa 00       		.byte	0
 1205 00fb 00       		.byte	0
 1206 00fc 8000     		.short	128
 1207 00fe 8000     		.short	128
 1208              		.type	u8x8_d_ssd1327_ea_w128128_init_seq, %object
 1209              		.size	u8x8_d_ssd1327_ea_w128128_init_seq, 61
 1210              	u8x8_d_ssd1327_ea_w128128_init_seq:
 1211 0100 18       		.byte	24
 1212 0101 15       		.byte	21
 1213 0102 FD       		.byte	-3
 1214 0103 16       		.byte	22
 1215 0104 12       		.byte	18
 1216 0105 15       		.byte	21
 1217 0106 AE       		.byte	-82
 1218 0107 15       		.byte	21
 1219 0108 A8       		.byte	-88
 1220 0109 16       		.byte	22
 1221 010a 5F       		.byte	95
 1222 010b 15       		.byte	21
 1223 010c A1       		.byte	-95
 1224 010d 16       		.byte	22
 1225 010e 00       		.byte	0
 1226 010f 15       		.byte	21
 1227 0110 A2       		.byte	-94
 1228 0111 16       		.byte	22
 1229 0112 10       		.byte	16
 1230 0113 15       		.byte	21
 1231 0114 A0       		.byte	-96
 1232 0115 16       		.byte	22
 1233 0116 51       		.byte	81
 1234 0117 15       		.byte	21
 1235 0118 AB       		.byte	-85
 1236 0119 16       		.byte	22
 1237 011a 01       		.byte	1
 1238 011b 15       		.byte	21
 1239 011c 81       		.byte	-127
 1240 011d 16       		.byte	22
 1241 011e 53       		.byte	83
 1242 011f 15       		.byte	21
 1243 0120 B1       		.byte	-79
 1244 0121 16       		.byte	22
 1245 0122 51       		.byte	81
 1246 0123 15       		.byte	21
ARM GAS  C:\Users\jesse\AppData\Local\Temp\ccjh0Qlm.s 			page 42


 1247 0124 B3       		.byte	-77
 1248 0125 16       		.byte	22
 1249 0126 01       		.byte	1
 1250 0127 15       		.byte	21
 1251 0128 B9       		.byte	-71
 1252 0129 15       		.byte	21
 1253 012a BC       		.byte	-68
 1254 012b 16       		.byte	22
 1255 012c 08       		.byte	8
 1256 012d 15       		.byte	21
 1257 012e BE       		.byte	-66
 1258 012f 16       		.byte	22
 1259 0130 07       		.byte	7
 1260 0131 15       		.byte	21
 1261 0132 B6       		.byte	-74
 1262 0133 16       		.byte	22
 1263 0134 01       		.byte	1
 1264 0135 15       		.byte	21
 1265 0136 D5       		.byte	-43
 1266 0137 16       		.byte	22
 1267 0138 62       		.byte	98
 1268 0139 15       		.byte	21
 1269 013a A4       		.byte	-92
 1270 013b 19       		.byte	25
 1271 013c FF       		.byte	-1
 1272              		.type	u8x8_d_ssd1327_ea_w128128_flip0_seq, %object
 1273              		.size	u8x8_d_ssd1327_ea_w128128_flip0_seq, 11
 1274              	u8x8_d_ssd1327_ea_w128128_flip0_seq:
 1275 013d 18       		.byte	24
 1276 013e 15       		.byte	21
 1277 013f A2       		.byte	-94
 1278 0140 16       		.byte	22
 1279 0141 00       		.byte	0
 1280 0142 15       		.byte	21
 1281 0143 A0       		.byte	-96
 1282 0144 16       		.byte	22
 1283 0145 51       		.byte	81
 1284 0146 19       		.byte	25
 1285 0147 FF       		.byte	-1
 1286              		.type	u8x8_d_ssd1327_ea_w128128_flip1_seq, %object
 1287              		.size	u8x8_d_ssd1327_ea_w128128_flip1_seq, 11
 1288              	u8x8_d_ssd1327_ea_w128128_flip1_seq:
 1289 0148 18       		.byte	24
 1290 0149 15       		.byte	21
 1291 014a A2       		.byte	-94
 1292 014b 16       		.byte	22
 1293 014c 00       		.byte	0
 1294 014d 15       		.byte	21
 1295 014e A0       		.byte	-96
 1296 014f 16       		.byte	22
 1297 0150 42       		.byte	66
 1298 0151 19       		.byte	25
 1299 0152 FF       		.byte	-1
 1300 0153 00       		.space	1
 1301              		.type	u8x8_ssd1327_128x128_display_info, %object
 1302              		.size	u8x8_ssd1327_128x128_display_info, 24
 1303              	u8x8_ssd1327_128x128_display_info:
ARM GAS  C:\Users\jesse\AppData\Local\Temp\ccjh0Qlm.s 			page 43


 1304 0154 00       		.byte	0
 1305 0155 01       		.byte	1
 1306 0156 14       		.byte	20
 1307 0157 0A       		.byte	10
 1308 0158 64       		.byte	100
 1309 0159 64       		.byte	100
 1310 015a 64       		.byte	100
 1311 015b 64       		.byte	100
 1312 015c 00093D00 		.word	4000000
 1313 0160 00       		.byte	0
 1314 0161 01       		.byte	1
 1315 0162 28       		.byte	40
 1316 0163 3C       		.byte	60
 1317 0164 10       		.byte	16
 1318 0165 10       		.byte	16
 1319 0166 00       		.byte	0
 1320 0167 00       		.byte	0
 1321 0168 8000     		.short	128
 1322 016a 8000     		.short	128
 1323              		.type	u8x8_d_ssd1327_128x128_init_seq, %object
 1324              		.size	u8x8_d_ssd1327_128x128_init_seq, 61
 1325              	u8x8_d_ssd1327_128x128_init_seq:
 1326 016c 18       		.byte	24
 1327 016d 15       		.byte	21
 1328 016e FD       		.byte	-3
 1329 016f 16       		.byte	22
 1330 0170 12       		.byte	18
 1331 0171 15       		.byte	21
 1332 0172 AE       		.byte	-82
 1333 0173 15       		.byte	21
 1334 0174 A8       		.byte	-88
 1335 0175 16       		.byte	22
 1336 0176 7F       		.byte	127
 1337 0177 15       		.byte	21
 1338 0178 A1       		.byte	-95
 1339 0179 16       		.byte	22
 1340 017a 00       		.byte	0
 1341 017b 15       		.byte	21
 1342 017c A2       		.byte	-94
 1343 017d 16       		.byte	22
 1344 017e 00       		.byte	0
 1345 017f 15       		.byte	21
 1346 0180 A0       		.byte	-96
 1347 0181 16       		.byte	22
 1348 0182 51       		.byte	81
 1349 0183 15       		.byte	21
 1350 0184 AB       		.byte	-85
 1351 0185 16       		.byte	22
 1352 0186 01       		.byte	1
 1353 0187 15       		.byte	21
 1354 0188 81       		.byte	-127
 1355 0189 16       		.byte	22
 1356 018a 53       		.byte	83
 1357 018b 15       		.byte	21
 1358 018c B1       		.byte	-79
 1359 018d 16       		.byte	22
 1360 018e 51       		.byte	81
ARM GAS  C:\Users\jesse\AppData\Local\Temp\ccjh0Qlm.s 			page 44


 1361 018f 15       		.byte	21
 1362 0190 B3       		.byte	-77
 1363 0191 16       		.byte	22
 1364 0192 01       		.byte	1
 1365 0193 15       		.byte	21
 1366 0194 B9       		.byte	-71
 1367 0195 15       		.byte	21
 1368 0196 BC       		.byte	-68
 1369 0197 16       		.byte	22
 1370 0198 08       		.byte	8
 1371 0199 15       		.byte	21
 1372 019a BE       		.byte	-66
 1373 019b 16       		.byte	22
 1374 019c 07       		.byte	7
 1375 019d 15       		.byte	21
 1376 019e B6       		.byte	-74
 1377 019f 16       		.byte	22
 1378 01a0 01       		.byte	1
 1379 01a1 15       		.byte	21
 1380 01a2 D5       		.byte	-43
 1381 01a3 16       		.byte	22
 1382 01a4 62       		.byte	98
 1383 01a5 15       		.byte	21
 1384 01a6 A4       		.byte	-92
 1385 01a7 19       		.byte	25
 1386 01a8 FF       		.byte	-1
 1387              		.type	u8x8_d_ssd1327_128x128_flip0_seq, %object
 1388              		.size	u8x8_d_ssd1327_128x128_flip0_seq, 11
 1389              	u8x8_d_ssd1327_128x128_flip0_seq:
 1390 01a9 18       		.byte	24
 1391 01aa 15       		.byte	21
 1392 01ab A2       		.byte	-94
 1393 01ac 16       		.byte	22
 1394 01ad 00       		.byte	0
 1395 01ae 15       		.byte	21
 1396 01af A0       		.byte	-96
 1397 01b0 16       		.byte	22
 1398 01b1 51       		.byte	81
 1399 01b2 19       		.byte	25
 1400 01b3 FF       		.byte	-1
 1401              		.type	u8x8_d_ssd1327_128x128_flip1_seq, %object
 1402              		.size	u8x8_d_ssd1327_128x128_flip1_seq, 11
 1403              	u8x8_d_ssd1327_128x128_flip1_seq:
 1404 01b4 18       		.byte	24
 1405 01b5 15       		.byte	21
 1406 01b6 A2       		.byte	-94
 1407 01b7 16       		.byte	22
 1408 01b8 00       		.byte	0
 1409 01b9 15       		.byte	21
 1410 01ba A0       		.byte	-96
 1411 01bb 16       		.byte	22
 1412 01bc 42       		.byte	66
 1413 01bd 19       		.byte	25
 1414 01be FF       		.byte	-1
 1415              		.type	u8x8_d_ssd1327_zjy_128x128_init_seq, %object
 1416              		.size	u8x8_d_ssd1327_zjy_128x128_init_seq, 65
 1417              	u8x8_d_ssd1327_zjy_128x128_init_seq:
ARM GAS  C:\Users\jesse\AppData\Local\Temp\ccjh0Qlm.s 			page 45


 1418 01bf 18       		.byte	24
 1419 01c0 15       		.byte	21
 1420 01c1 FD       		.byte	-3
 1421 01c2 16       		.byte	22
 1422 01c3 12       		.byte	18
 1423 01c4 15       		.byte	21
 1424 01c5 AE       		.byte	-82
 1425 01c6 15       		.byte	21
 1426 01c7 A8       		.byte	-88
 1427 01c8 16       		.byte	22
 1428 01c9 7F       		.byte	127
 1429 01ca 15       		.byte	21
 1430 01cb A1       		.byte	-95
 1431 01cc 16       		.byte	22
 1432 01cd 00       		.byte	0
 1433 01ce 15       		.byte	21
 1434 01cf A2       		.byte	-94
 1435 01d0 16       		.byte	22
 1436 01d1 00       		.byte	0
 1437 01d2 15       		.byte	21
 1438 01d3 A0       		.byte	-96
 1439 01d4 16       		.byte	22
 1440 01d5 51       		.byte	81
 1441 01d6 15       		.byte	21
 1442 01d7 AB       		.byte	-85
 1443 01d8 16       		.byte	22
 1444 01d9 01       		.byte	1
 1445 01da 15       		.byte	21
 1446 01db 81       		.byte	-127
 1447 01dc 16       		.byte	22
 1448 01dd 53       		.byte	83
 1449 01de 15       		.byte	21
 1450 01df B1       		.byte	-79
 1451 01e0 16       		.byte	22
 1452 01e1 51       		.byte	81
 1453 01e2 15       		.byte	21
 1454 01e3 B3       		.byte	-77
 1455 01e4 16       		.byte	22
 1456 01e5 01       		.byte	1
 1457 01e6 15       		.byte	21
 1458 01e7 B9       		.byte	-71
 1459 01e8 15       		.byte	21
 1460 01e9 BC       		.byte	-68
 1461 01ea 16       		.byte	22
 1462 01eb 08       		.byte	8
 1463 01ec 15       		.byte	21
 1464 01ed BE       		.byte	-66
 1465 01ee 16       		.byte	22
 1466 01ef 07       		.byte	7
 1467 01f0 15       		.byte	21
 1468 01f1 B6       		.byte	-74
 1469 01f2 16       		.byte	22
 1470 01f3 01       		.byte	1
 1471 01f4 15       		.byte	21
 1472 01f5 D5       		.byte	-43
 1473 01f6 16       		.byte	22
 1474 01f7 62       		.byte	98
ARM GAS  C:\Users\jesse\AppData\Local\Temp\ccjh0Qlm.s 			page 46


 1475 01f8 15       		.byte	21
 1476 01f9 B5       		.byte	-75
 1477 01fa 16       		.byte	22
 1478 01fb 03       		.byte	3
 1479 01fc 15       		.byte	21
 1480 01fd A4       		.byte	-92
 1481 01fe 19       		.byte	25
 1482 01ff FF       		.byte	-1
 1483              		.type	u8x8_d_ssd1327_ws_128x128_init_seq, %object
 1484              		.size	u8x8_d_ssd1327_ws_128x128_init_seq, 71
 1485              	u8x8_d_ssd1327_ws_128x128_init_seq:
 1486 0200 18       		.byte	24
 1487 0201 15       		.byte	21
 1488 0202 AE       		.byte	-82
 1489 0203 15       		.byte	21
 1490 0204 15       		.byte	21
 1491 0205 16       		.byte	22
 1492 0206 00       		.byte	0
 1493 0207 16       		.byte	22
 1494 0208 7F       		.byte	127
 1495 0209 15       		.byte	21
 1496 020a 75       		.byte	117
 1497 020b 16       		.byte	22
 1498 020c 00       		.byte	0
 1499 020d 16       		.byte	22
 1500 020e 7F       		.byte	127
 1501 020f 15       		.byte	21
 1502 0210 81       		.byte	-127
 1503 0211 16       		.byte	22
 1504 0212 80       		.byte	-128
 1505 0213 15       		.byte	21
 1506 0214 A0       		.byte	-96
 1507 0215 16       		.byte	22
 1508 0216 51       		.byte	81
 1509 0217 15       		.byte	21
 1510 0218 A1       		.byte	-95
 1511 0219 16       		.byte	22
 1512 021a 00       		.byte	0
 1513 021b 15       		.byte	21
 1514 021c A2       		.byte	-94
 1515 021d 16       		.byte	22
 1516 021e 00       		.byte	0
 1517 021f 15       		.byte	21
 1518 0220 A4       		.byte	-92
 1519 0221 16       		.byte	22
 1520 0222 A8       		.byte	-88
 1521 0223 16       		.byte	22
 1522 0224 7F       		.byte	127
 1523 0225 15       		.byte	21
 1524 0226 B1       		.byte	-79
 1525 0227 16       		.byte	22
 1526 0228 F1       		.byte	-15
 1527 0229 15       		.byte	21
 1528 022a B3       		.byte	-77
 1529 022b 16       		.byte	22
 1530 022c 00       		.byte	0
 1531 022d 15       		.byte	21
ARM GAS  C:\Users\jesse\AppData\Local\Temp\ccjh0Qlm.s 			page 47


 1532 022e AB       		.byte	-85
 1533 022f 16       		.byte	22
 1534 0230 01       		.byte	1
 1535 0231 15       		.byte	21
 1536 0232 B6       		.byte	-74
 1537 0233 16       		.byte	22
 1538 0234 0F       		.byte	15
 1539 0235 15       		.byte	21
 1540 0236 BE       		.byte	-66
 1541 0237 16       		.byte	22
 1542 0238 0F       		.byte	15
 1543 0239 15       		.byte	21
 1544 023a BC       		.byte	-68
 1545 023b 16       		.byte	22
 1546 023c 08       		.byte	8
 1547 023d 15       		.byte	21
 1548 023e D5       		.byte	-43
 1549 023f 16       		.byte	22
 1550 0240 62       		.byte	98
 1551 0241 15       		.byte	21
 1552 0242 FD       		.byte	-3
 1553 0243 16       		.byte	22
 1554 0244 12       		.byte	18
 1555 0245 19       		.byte	25
 1556 0246 FF       		.byte	-1
 1557 0247 00       		.space	1
 1558              		.type	u8x8_ssd1327_128x96_display_info, %object
 1559              		.size	u8x8_ssd1327_128x96_display_info, 24
 1560              	u8x8_ssd1327_128x96_display_info:
 1561 0248 00       		.byte	0
 1562 0249 01       		.byte	1
 1563 024a 14       		.byte	20
 1564 024b 0A       		.byte	10
 1565 024c 64       		.byte	100
 1566 024d 64       		.byte	100
 1567 024e 64       		.byte	100
 1568 024f 64       		.byte	100
 1569 0250 00093D00 		.word	4000000
 1570 0254 00       		.byte	0
 1571 0255 01       		.byte	1
 1572 0256 28       		.byte	40
 1573 0257 3C       		.byte	60
 1574 0258 10       		.byte	16
 1575 0259 0C       		.byte	12
 1576 025a 00       		.byte	0
 1577 025b 00       		.byte	0
 1578 025c 8000     		.short	128
 1579 025e 6000     		.short	96
 1580              		.type	u8x8_d_ssd1327_128x96_init_seq, %object
 1581              		.size	u8x8_d_ssd1327_128x96_init_seq, 61
 1582              	u8x8_d_ssd1327_128x96_init_seq:
 1583 0260 18       		.byte	24
 1584 0261 15       		.byte	21
 1585 0262 FD       		.byte	-3
 1586 0263 16       		.byte	22
 1587 0264 12       		.byte	18
 1588 0265 15       		.byte	21
ARM GAS  C:\Users\jesse\AppData\Local\Temp\ccjh0Qlm.s 			page 48


 1589 0266 AE       		.byte	-82
 1590 0267 15       		.byte	21
 1591 0268 A8       		.byte	-88
 1592 0269 16       		.byte	22
 1593 026a 5F       		.byte	95
 1594 026b 15       		.byte	21
 1595 026c A1       		.byte	-95
 1596 026d 16       		.byte	22
 1597 026e 00       		.byte	0
 1598 026f 15       		.byte	21
 1599 0270 A2       		.byte	-94
 1600 0271 16       		.byte	22
 1601 0272 20       		.byte	32
 1602 0273 15       		.byte	21
 1603 0274 A0       		.byte	-96
 1604 0275 16       		.byte	22
 1605 0276 51       		.byte	81
 1606 0277 15       		.byte	21
 1607 0278 AB       		.byte	-85
 1608 0279 16       		.byte	22
 1609 027a 01       		.byte	1
 1610 027b 15       		.byte	21
 1611 027c 81       		.byte	-127
 1612 027d 16       		.byte	22
 1613 027e DF       		.byte	-33
 1614 027f 15       		.byte	21
 1615 0280 B1       		.byte	-79
 1616 0281 16       		.byte	22
 1617 0282 22       		.byte	34
 1618 0283 15       		.byte	21
 1619 0284 B3       		.byte	-77
 1620 0285 16       		.byte	22
 1621 0286 50       		.byte	80
 1622 0287 15       		.byte	21
 1623 0288 B9       		.byte	-71
 1624 0289 15       		.byte	21
 1625 028a BC       		.byte	-68
 1626 028b 16       		.byte	22
 1627 028c 10       		.byte	16
 1628 028d 15       		.byte	21
 1629 028e BE       		.byte	-66
 1630 028f 16       		.byte	22
 1631 0290 05       		.byte	5
 1632 0291 15       		.byte	21
 1633 0292 B6       		.byte	-74
 1634 0293 16       		.byte	22
 1635 0294 0A       		.byte	10
 1636 0295 15       		.byte	21
 1637 0296 D5       		.byte	-43
 1638 0297 16       		.byte	22
 1639 0298 62       		.byte	98
 1640 0299 15       		.byte	21
 1641 029a A4       		.byte	-92
 1642 029b 19       		.byte	25
 1643 029c FF       		.byte	-1
 1644              		.type	u8x8_d_ssd1327_128x96_flip0_seq, %object
 1645              		.size	u8x8_d_ssd1327_128x96_flip0_seq, 11
ARM GAS  C:\Users\jesse\AppData\Local\Temp\ccjh0Qlm.s 			page 49


 1646              	u8x8_d_ssd1327_128x96_flip0_seq:
 1647 029d 18       		.byte	24
 1648 029e 15       		.byte	21
 1649 029f A2       		.byte	-94
 1650 02a0 16       		.byte	22
 1651 02a1 20       		.byte	32
 1652 02a2 15       		.byte	21
 1653 02a3 A0       		.byte	-96
 1654 02a4 16       		.byte	22
 1655 02a5 51       		.byte	81
 1656 02a6 19       		.byte	25
 1657 02a7 FF       		.byte	-1
 1658              		.type	u8x8_d_ssd1327_128x96_flip1_seq, %object
 1659              		.size	u8x8_d_ssd1327_128x96_flip1_seq, 11
 1660              	u8x8_d_ssd1327_128x96_flip1_seq:
 1661 02a8 18       		.byte	24
 1662 02a9 15       		.byte	21
 1663 02aa A2       		.byte	-94
 1664 02ab 16       		.byte	22
 1665 02ac 60       		.byte	96
 1666 02ad 15       		.byte	21
 1667 02ae A0       		.byte	-96
 1668 02af 16       		.byte	22
 1669 02b0 42       		.byte	66
 1670 02b1 19       		.byte	25
 1671 02b2 FF       		.byte	-1
 1672              		.bss
 1673              		.set	.LANCHOR1,. + 0
 1674              		.type	u8x8_ssd1327_8to32_dest_buf, %object
 1675              		.size	u8x8_ssd1327_8to32_dest_buf, 32
 1676              	u8x8_ssd1327_8to32_dest_buf:
 1677 0000 00000000 		.space	32
 1677      00000000 
 1677      00000000 
 1677      00000000 
 1677      00000000 
 1678              		.text
 1679              	.Letext0:
 1680              		.file 2 "c:\\program files (x86)\\cypress\\psoc creator\\4.4\\psoc creator\\import\\gnu\\arm\\5.4.
 1681              		.file 3 "c:\\program files (x86)\\cypress\\psoc creator\\4.4\\psoc creator\\import\\gnu\\arm\\5.4.
 1682              		.file 4 "..\\..\\..\\u8g2\\u8g2\\csrc\\u8x8.h"