ARM GAS  C:\Users\jesse\AppData\Local\Temp\ccijhLEy.s 			page 1


   1              		.syntax unified
   2              		.cpu cortex-m3
   3              		.fpu softvfp
   4              		.eabi_attribute 20, 1
   5              		.eabi_attribute 21, 1
   6              		.eabi_attribute 23, 3
   7              		.eabi_attribute 24, 1
   8              		.eabi_attribute 25, 1
   9              		.eabi_attribute 26, 1
  10              		.eabi_attribute 30, 4
  11              		.eabi_attribute 34, 1
  12              		.eabi_attribute 18, 4
  13              		.thumb
  14              		.syntax unified
  15              		.file	"u8x8_d_ssd1306_128x32.c"
  16              		.text
  17              	.Ltext0:
  18              		.cfi_sections	.debug_frame
  19              		.section	.text.u8x8_d_ssd1306_128x32_generic,"ax",%progbits
  20              		.align	1
  21              		.thumb
  22              		.thumb_func
  23              		.type	u8x8_d_ssd1306_128x32_generic, %function
  24              	u8x8_d_ssd1306_128x32_generic:
  25              	.LFB0:
  26              		.file 1 "..\\..\\..\\u8g2\\u8g2\\csrc\\u8x8_d_ssd1306_128x32.c"
   1:..\..\..\u8g2\u8g2\csrc/u8x8_d_ssd1306_128x32.c **** /*
   2:..\..\..\u8g2\u8g2\csrc/u8x8_d_ssd1306_128x32.c **** 
   3:..\..\..\u8g2\u8g2\csrc/u8x8_d_ssd1306_128x32.c ****   u8x8_d_ssd1306_128x32.c
   4:..\..\..\u8g2\u8g2\csrc/u8x8_d_ssd1306_128x32.c **** 
   5:..\..\..\u8g2\u8g2\csrc/u8x8_d_ssd1306_128x32.c ****   Universal 8bit Graphics Library (https://github.com/olikraus/u8g2/)
   6:..\..\..\u8g2\u8g2\csrc/u8x8_d_ssd1306_128x32.c **** 
   7:..\..\..\u8g2\u8g2\csrc/u8x8_d_ssd1306_128x32.c ****   Copyright (c) 2016, olikraus@gmail.com
   8:..\..\..\u8g2\u8g2\csrc/u8x8_d_ssd1306_128x32.c ****   All rights reserved.
   9:..\..\..\u8g2\u8g2\csrc/u8x8_d_ssd1306_128x32.c **** 
  10:..\..\..\u8g2\u8g2\csrc/u8x8_d_ssd1306_128x32.c ****   Redistribution and use in source and binary forms, with or without modification, 
  11:..\..\..\u8g2\u8g2\csrc/u8x8_d_ssd1306_128x32.c ****   are permitted provided that the following conditions are met:
  12:..\..\..\u8g2\u8g2\csrc/u8x8_d_ssd1306_128x32.c **** 
  13:..\..\..\u8g2\u8g2\csrc/u8x8_d_ssd1306_128x32.c ****   * Redistributions of source code must retain the above copyright notice, this list 
  14:..\..\..\u8g2\u8g2\csrc/u8x8_d_ssd1306_128x32.c ****     of conditions and the following disclaimer.
  15:..\..\..\u8g2\u8g2\csrc/u8x8_d_ssd1306_128x32.c ****     
  16:..\..\..\u8g2\u8g2\csrc/u8x8_d_ssd1306_128x32.c ****   * Redistributions in binary form must reproduce the above copyright notice, this 
  17:..\..\..\u8g2\u8g2\csrc/u8x8_d_ssd1306_128x32.c ****     list of conditions and the following disclaimer in the documentation and/or other 
  18:..\..\..\u8g2\u8g2\csrc/u8x8_d_ssd1306_128x32.c ****     materials provided with the distribution.
  19:..\..\..\u8g2\u8g2\csrc/u8x8_d_ssd1306_128x32.c **** 
  20:..\..\..\u8g2\u8g2\csrc/u8x8_d_ssd1306_128x32.c ****   THIS SOFTWARE IS PROVIDED BY THE COPYRIGHT HOLDERS AND 
  21:..\..\..\u8g2\u8g2\csrc/u8x8_d_ssd1306_128x32.c ****   CONTRIBUTORS "AS IS" AND ANY EXPRESS OR IMPLIED WARRANTIES, 
  22:..\..\..\u8g2\u8g2\csrc/u8x8_d_ssd1306_128x32.c ****   INCLUDING, BUT NOT LIMITED TO, THE IMPLIED WARRANTIES OF 
  23:..\..\..\u8g2\u8g2\csrc/u8x8_d_ssd1306_128x32.c ****   MERCHANTABILITY AND FITNESS FOR A PARTICULAR PURPOSE ARE 
  24:..\..\..\u8g2\u8g2\csrc/u8x8_d_ssd1306_128x32.c ****   DISCLAIMED. IN NO EVENT SHALL THE COPYRIGHT HOLDER OR 
  25:..\..\..\u8g2\u8g2\csrc/u8x8_d_ssd1306_128x32.c ****   CONTRIBUTORS BE LIABLE FOR ANY DIRECT, INDIRECT, INCIDENTAL, 
  26:..\..\..\u8g2\u8g2\csrc/u8x8_d_ssd1306_128x32.c ****   SPECIAL, EXEMPLARY, OR CONSEQUENTIAL DAMAGES (INCLUDING, BUT 
  27:..\..\..\u8g2\u8g2\csrc/u8x8_d_ssd1306_128x32.c ****   NOT LIMITED TO, PROCUREMENT OF SUBSTITUTE GOODS OR SERVICES; 
  28:..\..\..\u8g2\u8g2\csrc/u8x8_d_ssd1306_128x32.c ****   LOSS OF USE, DATA, OR PROFITS; OR BUSINESS INTERRUPTION) HOWEVER 
  29:..\..\..\u8g2\u8g2\csrc/u8x8_d_ssd1306_128x32.c ****   CAUSED AND ON ANY THEORY OF LIABILITY, WHETHER IN CONTRACT, 
  30:..\..\..\u8g2\u8g2\csrc/u8x8_d_ssd1306_128x32.c ****   STRICT LIABILITY, OR TORT (INCLUDING NEGLIGENCE OR OTHERWISE) 
  31:..\..\..\u8g2\u8g2\csrc/u8x8_d_ssd1306_128x32.c ****   ARISING IN ANY WAY OUT OF THE USE OF THIS SOFTWARE, EVEN IF 
ARM GAS  C:\Users\jesse\AppData\Local\Temp\ccijhLEy.s 			page 2


  32:..\..\..\u8g2\u8g2\csrc/u8x8_d_ssd1306_128x32.c ****   ADVISED OF THE POSSIBILITY OF SUCH DAMAGE.  
  33:..\..\..\u8g2\u8g2\csrc/u8x8_d_ssd1306_128x32.c ****   
  34:..\..\..\u8g2\u8g2\csrc/u8x8_d_ssd1306_128x32.c **** */
  35:..\..\..\u8g2\u8g2\csrc/u8x8_d_ssd1306_128x32.c **** 
  36:..\..\..\u8g2\u8g2\csrc/u8x8_d_ssd1306_128x32.c **** 
  37:..\..\..\u8g2\u8g2\csrc/u8x8_d_ssd1306_128x32.c **** #include "u8x8.h"
  38:..\..\..\u8g2\u8g2\csrc/u8x8_d_ssd1306_128x32.c **** 
  39:..\..\..\u8g2\u8g2\csrc/u8x8_d_ssd1306_128x32.c **** 
  40:..\..\..\u8g2\u8g2\csrc/u8x8_d_ssd1306_128x32.c **** 
  41:..\..\..\u8g2\u8g2\csrc/u8x8_d_ssd1306_128x32.c **** /* UG-2832HSWEG02 Datasheet, Section 4.4 */
  42:..\..\..\u8g2\u8g2\csrc/u8x8_d_ssd1306_128x32.c **** static const uint8_t u8x8_d_ssd1306_128x32_univision_init_seq[] = {
  43:..\..\..\u8g2\u8g2\csrc/u8x8_d_ssd1306_128x32.c ****     
  44:..\..\..\u8g2\u8g2\csrc/u8x8_d_ssd1306_128x32.c ****   U8X8_START_TRANSFER(),             	/* enable chip, delay is part of the transfer start */
  45:..\..\..\u8g2\u8g2\csrc/u8x8_d_ssd1306_128x32.c ****   
  46:..\..\..\u8g2\u8g2\csrc/u8x8_d_ssd1306_128x32.c ****   
  47:..\..\..\u8g2\u8g2\csrc/u8x8_d_ssd1306_128x32.c ****   U8X8_C(0x0ae),		                /* display off */
  48:..\..\..\u8g2\u8g2\csrc/u8x8_d_ssd1306_128x32.c ****   U8X8_CA(0x0d5, 0x080),		/* clock divide ratio (0x00=1) and oscillator frequency (0x8) */
  49:..\..\..\u8g2\u8g2\csrc/u8x8_d_ssd1306_128x32.c ****   U8X8_CA(0x0a8, 0x01f),		/* multiplex ratio */
  50:..\..\..\u8g2\u8g2\csrc/u8x8_d_ssd1306_128x32.c ****   U8X8_CA(0x0d3, 0x000),		/* display offset */
  51:..\..\..\u8g2\u8g2\csrc/u8x8_d_ssd1306_128x32.c ****   U8X8_C(0x040),		                /* set display start line to 0 */
  52:..\..\..\u8g2\u8g2\csrc/u8x8_d_ssd1306_128x32.c ****   U8X8_CA(0x08d, 0x014),		/* [2] charge pump setting (p62): 0x014 enable, 0x010 disable */
  53:..\..\..\u8g2\u8g2\csrc/u8x8_d_ssd1306_128x32.c ****   U8X8_CA(0x020, 0x000),		/* horizontal addressing mode */
  54:..\..\..\u8g2\u8g2\csrc/u8x8_d_ssd1306_128x32.c ****   
  55:..\..\..\u8g2\u8g2\csrc/u8x8_d_ssd1306_128x32.c ****   U8X8_C(0x0a1),				/* segment remap a0/a1*/
  56:..\..\..\u8g2\u8g2\csrc/u8x8_d_ssd1306_128x32.c ****   U8X8_C(0x0c8),				/* c0: scan dir normal, c8: reverse */
  57:..\..\..\u8g2\u8g2\csrc/u8x8_d_ssd1306_128x32.c ****   // Flipmode
  58:..\..\..\u8g2\u8g2\csrc/u8x8_d_ssd1306_128x32.c ****   // U8X8_C(0x0a0),				/* segment remap a0/a1*/
  59:..\..\..\u8g2\u8g2\csrc/u8x8_d_ssd1306_128x32.c ****   // U8X8_C(0x0c0),				/* c0: scan dir normal, c8: reverse */
  60:..\..\..\u8g2\u8g2\csrc/u8x8_d_ssd1306_128x32.c ****   
  61:..\..\..\u8g2\u8g2\csrc/u8x8_d_ssd1306_128x32.c ****   U8X8_CA(0x0da, 0x002),		/* com pin HW config, sequential com pin config (bit 4), disable left/rig
  62:..\..\..\u8g2\u8g2\csrc/u8x8_d_ssd1306_128x32.c ****   U8X8_CA(0x081, 0x08f),		/* [2] set contrast control */
  63:..\..\..\u8g2\u8g2\csrc/u8x8_d_ssd1306_128x32.c ****   U8X8_CA(0x0d9, 0x0f1),		/* [2] pre-charge period 0x022/f1*/
  64:..\..\..\u8g2\u8g2\csrc/u8x8_d_ssd1306_128x32.c ****   U8X8_CA(0x0db, 0x040),		/* vcomh deselect level */
  65:..\..\..\u8g2\u8g2\csrc/u8x8_d_ssd1306_128x32.c ****   
  66:..\..\..\u8g2\u8g2\csrc/u8x8_d_ssd1306_128x32.c ****   U8X8_C(0x02e),				/* Deactivate scroll */ 
  67:..\..\..\u8g2\u8g2\csrc/u8x8_d_ssd1306_128x32.c ****   U8X8_C(0x0a4),				/* output ram to display */
  68:..\..\..\u8g2\u8g2\csrc/u8x8_d_ssd1306_128x32.c ****   U8X8_C(0x0a6),				/* none inverted normal display mode */
  69:..\..\..\u8g2\u8g2\csrc/u8x8_d_ssd1306_128x32.c ****     
  70:..\..\..\u8g2\u8g2\csrc/u8x8_d_ssd1306_128x32.c ****   U8X8_END_TRANSFER(),             	/* disable chip */
  71:..\..\..\u8g2\u8g2\csrc/u8x8_d_ssd1306_128x32.c ****   U8X8_END()             			/* end of sequence */
  72:..\..\..\u8g2\u8g2\csrc/u8x8_d_ssd1306_128x32.c **** };
  73:..\..\..\u8g2\u8g2\csrc/u8x8_d_ssd1306_128x32.c **** 
  74:..\..\..\u8g2\u8g2\csrc/u8x8_d_ssd1306_128x32.c **** static const uint8_t u8x8_d_ssd1306_128x32_univision_powersave0_seq[] = {
  75:..\..\..\u8g2\u8g2\csrc/u8x8_d_ssd1306_128x32.c ****   U8X8_START_TRANSFER(),             	/* enable chip, delay is part of the transfer start */
  76:..\..\..\u8g2\u8g2\csrc/u8x8_d_ssd1306_128x32.c ****   U8X8_C(0x0af),		                /* display on */
  77:..\..\..\u8g2\u8g2\csrc/u8x8_d_ssd1306_128x32.c ****   U8X8_END_TRANSFER(),             	/* disable chip */
  78:..\..\..\u8g2\u8g2\csrc/u8x8_d_ssd1306_128x32.c ****   U8X8_END()             			/* end of sequence */
  79:..\..\..\u8g2\u8g2\csrc/u8x8_d_ssd1306_128x32.c **** };
  80:..\..\..\u8g2\u8g2\csrc/u8x8_d_ssd1306_128x32.c **** 
  81:..\..\..\u8g2\u8g2\csrc/u8x8_d_ssd1306_128x32.c **** static const uint8_t u8x8_d_ssd1306_128x32_univision_powersave1_seq[] = {
  82:..\..\..\u8g2\u8g2\csrc/u8x8_d_ssd1306_128x32.c ****   U8X8_START_TRANSFER(),             	/* enable chip, delay is part of the transfer start */
  83:..\..\..\u8g2\u8g2\csrc/u8x8_d_ssd1306_128x32.c ****   U8X8_C(0x0ae),		                /* display off */
  84:..\..\..\u8g2\u8g2\csrc/u8x8_d_ssd1306_128x32.c ****   U8X8_END_TRANSFER(),             	/* disable chip */
  85:..\..\..\u8g2\u8g2\csrc/u8x8_d_ssd1306_128x32.c ****   U8X8_END()             			/* end of sequence */
  86:..\..\..\u8g2\u8g2\csrc/u8x8_d_ssd1306_128x32.c **** };
  87:..\..\..\u8g2\u8g2\csrc/u8x8_d_ssd1306_128x32.c **** 
  88:..\..\..\u8g2\u8g2\csrc/u8x8_d_ssd1306_128x32.c **** static const uint8_t u8x8_d_ssd1306_128x32_univision_flip0_seq[] = {
ARM GAS  C:\Users\jesse\AppData\Local\Temp\ccijhLEy.s 			page 3


  89:..\..\..\u8g2\u8g2\csrc/u8x8_d_ssd1306_128x32.c ****   U8X8_START_TRANSFER(),             	/* enable chip, delay is part of the transfer start */
  90:..\..\..\u8g2\u8g2\csrc/u8x8_d_ssd1306_128x32.c ****   U8X8_C(0x0a1),				/* segment remap a0/a1*/
  91:..\..\..\u8g2\u8g2\csrc/u8x8_d_ssd1306_128x32.c ****   U8X8_C(0x0c8),				/* c0: scan dir normal, c8: reverse */
  92:..\..\..\u8g2\u8g2\csrc/u8x8_d_ssd1306_128x32.c ****   U8X8_END_TRANSFER(),             	/* disable chip */
  93:..\..\..\u8g2\u8g2\csrc/u8x8_d_ssd1306_128x32.c ****   U8X8_END()             			/* end of sequence */
  94:..\..\..\u8g2\u8g2\csrc/u8x8_d_ssd1306_128x32.c **** };
  95:..\..\..\u8g2\u8g2\csrc/u8x8_d_ssd1306_128x32.c **** 
  96:..\..\..\u8g2\u8g2\csrc/u8x8_d_ssd1306_128x32.c **** static const uint8_t u8x8_d_ssd1306_128x32_univision_flip1_seq[] = {
  97:..\..\..\u8g2\u8g2\csrc/u8x8_d_ssd1306_128x32.c ****   U8X8_START_TRANSFER(),             	/* enable chip, delay is part of the transfer start */
  98:..\..\..\u8g2\u8g2\csrc/u8x8_d_ssd1306_128x32.c ****   U8X8_C(0x0a0),				/* segment remap a0/a1*/
  99:..\..\..\u8g2\u8g2\csrc/u8x8_d_ssd1306_128x32.c ****   U8X8_C(0x0c0),				/* c0: scan dir normal, c8: reverse */
 100:..\..\..\u8g2\u8g2\csrc/u8x8_d_ssd1306_128x32.c ****   U8X8_END_TRANSFER(),             	/* disable chip */
 101:..\..\..\u8g2\u8g2\csrc/u8x8_d_ssd1306_128x32.c ****   U8X8_END()             			/* end of sequence */
 102:..\..\..\u8g2\u8g2\csrc/u8x8_d_ssd1306_128x32.c **** };
 103:..\..\..\u8g2\u8g2\csrc/u8x8_d_ssd1306_128x32.c **** 
 104:..\..\..\u8g2\u8g2\csrc/u8x8_d_ssd1306_128x32.c **** 
 105:..\..\..\u8g2\u8g2\csrc/u8x8_d_ssd1306_128x32.c **** static uint8_t u8x8_d_ssd1306_128x32_generic(u8x8_t *u8x8, uint8_t msg, uint8_t arg_int, void *arg_
 106:..\..\..\u8g2\u8g2\csrc/u8x8_d_ssd1306_128x32.c **** {
  27              		.loc 1 106 0
  28              		.cfi_startproc
  29              		@ args = 0, pretend = 0, frame = 0
  30              		@ frame_needed = 0, uses_anonymous_args = 0
  31              	.LVL0:
 107:..\..\..\u8g2\u8g2\csrc/u8x8_d_ssd1306_128x32.c ****   uint8_t x, c;
 108:..\..\..\u8g2\u8g2\csrc/u8x8_d_ssd1306_128x32.c ****   uint8_t *ptr;
 109:..\..\..\u8g2\u8g2\csrc/u8x8_d_ssd1306_128x32.c ****   switch(msg)
  32              		.loc 1 109 0
  33 0000 0A39     		subs	r1, r1, #10
  34              	.LVL1:
 106:..\..\..\u8g2\u8g2\csrc/u8x8_d_ssd1306_128x32.c ****   uint8_t x, c;
  35              		.loc 1 106 0
  36 0002 F8B5     		push	{r3, r4, r5, r6, r7, lr}
  37              		.cfi_def_cfa_offset 24
  38              		.cfi_offset 3, -24
  39              		.cfi_offset 4, -20
  40              		.cfi_offset 5, -16
  41              		.cfi_offset 6, -12
  42              		.cfi_offset 7, -8
  43              		.cfi_offset 14, -4
 106:..\..\..\u8g2\u8g2\csrc/u8x8_d_ssd1306_128x32.c ****   uint8_t x, c;
  44              		.loc 1 106 0
  45 0004 0446     		mov	r4, r0
  46 0006 1546     		mov	r5, r2
  47 0008 1F46     		mov	r7, r3
  48              		.loc 1 109 0
  49 000a 0529     		cmp	r1, #5
  50 000c 55D8     		bhi	.L12
  51 000e DFE801F0 		tbb	[pc, r1]
  52              	.LVL2:
  53              	.L4:
  54 0012 03       		.byte	(.L3-.L4)/2
  55 0013 07       		.byte	(.L5-.L4)/2
  56 0014 54       		.byte	(.L12-.L4)/2
  57 0015 0F       		.byte	(.L6-.L4)/2
  58 0016 1E       		.byte	(.L7-.L4)/2
  59 0017 2D       		.byte	(.L8-.L4)/2
  60              		.p2align 1
ARM GAS  C:\Users\jesse\AppData\Local\Temp\ccijhLEy.s 			page 4


  61              	.L3:
 110:..\..\..\u8g2\u8g2\csrc/u8x8_d_ssd1306_128x32.c ****   {
 111:..\..\..\u8g2\u8g2\csrc/u8x8_d_ssd1306_128x32.c ****     /* handled by the calling function
 112:..\..\..\u8g2\u8g2\csrc/u8x8_d_ssd1306_128x32.c ****     case U8X8_MSG_DISPLAY_SETUP_MEMORY:
 113:..\..\..\u8g2\u8g2\csrc/u8x8_d_ssd1306_128x32.c ****       u8x8_d_helper_display_setup_memory(u8x8, &u8x8_ssd1306_128x32_univision_display_info);
 114:..\..\..\u8g2\u8g2\csrc/u8x8_d_ssd1306_128x32.c ****       break;
 115:..\..\..\u8g2\u8g2\csrc/u8x8_d_ssd1306_128x32.c ****     */
 116:..\..\..\u8g2\u8g2\csrc/u8x8_d_ssd1306_128x32.c ****     case U8X8_MSG_DISPLAY_INIT:
 117:..\..\..\u8g2\u8g2\csrc/u8x8_d_ssd1306_128x32.c ****       u8x8_d_helper_display_init(u8x8);
  62              		.loc 1 117 0
  63 0018 FFF7FEFF 		bl	u8x8_d_helper_display_init
  64              	.LVL3:
 118:..\..\..\u8g2\u8g2\csrc/u8x8_d_ssd1306_128x32.c ****       u8x8_cad_SendSequence(u8x8, u8x8_d_ssd1306_128x32_univision_init_seq);    
  65              		.loc 1 118 0
  66 001c 2849     		ldr	r1, .L19
  67 001e 03E0     		b	.L16
  68              	.LVL4:
  69              	.L5:
 119:..\..\..\u8g2\u8g2\csrc/u8x8_d_ssd1306_128x32.c ****       break;
 120:..\..\..\u8g2\u8g2\csrc/u8x8_d_ssd1306_128x32.c ****     case U8X8_MSG_DISPLAY_SET_POWER_SAVE:
 121:..\..\..\u8g2\u8g2\csrc/u8x8_d_ssd1306_128x32.c ****       if ( arg_int == 0 )
  70              		.loc 1 121 0
  71 0020 0AB9     		cbnz	r2, .L9
 122:..\..\..\u8g2\u8g2\csrc/u8x8_d_ssd1306_128x32.c **** 	u8x8_cad_SendSequence(u8x8, u8x8_d_ssd1306_128x32_univision_powersave0_seq);
  72              		.loc 1 122 0
  73 0022 2849     		ldr	r1, .L19+4
  74 0024 00E0     		b	.L16
  75              	.L9:
 123:..\..\..\u8g2\u8g2\csrc/u8x8_d_ssd1306_128x32.c ****       else
 124:..\..\..\u8g2\u8g2\csrc/u8x8_d_ssd1306_128x32.c **** 	u8x8_cad_SendSequence(u8x8, u8x8_d_ssd1306_128x32_univision_powersave1_seq);
  76              		.loc 1 124 0
  77 0026 2849     		ldr	r1, .L19+8
  78              	.LVL5:
  79              	.L16:
  80 0028 2046     		mov	r0, r4
  81 002a FFF7FEFF 		bl	u8x8_cad_SendSequence
  82              	.LVL6:
  83 002e 1BE0     		b	.L14
  84              	.LVL7:
  85              	.L6:
 125:..\..\..\u8g2\u8g2\csrc/u8x8_d_ssd1306_128x32.c ****       break;
 126:..\..\..\u8g2\u8g2\csrc/u8x8_d_ssd1306_128x32.c ****     case U8X8_MSG_DISPLAY_SET_FLIP_MODE:
 127:..\..\..\u8g2\u8g2\csrc/u8x8_d_ssd1306_128x32.c ****       if ( arg_int == 0 )
  86              		.loc 1 127 0
  87 0030 2AB9     		cbnz	r2, .L10
 128:..\..\..\u8g2\u8g2\csrc/u8x8_d_ssd1306_128x32.c ****       {
 129:..\..\..\u8g2\u8g2\csrc/u8x8_d_ssd1306_128x32.c **** 	u8x8_cad_SendSequence(u8x8, u8x8_d_ssd1306_128x32_univision_flip0_seq);
  88              		.loc 1 129 0
  89 0032 2649     		ldr	r1, .L19+12
  90 0034 FFF7FEFF 		bl	u8x8_cad_SendSequence
  91              	.LVL8:
 130:..\..\..\u8g2\u8g2\csrc/u8x8_d_ssd1306_128x32.c **** 	u8x8->x_offset = u8x8->display_info->default_x_offset;
  92              		.loc 1 130 0
  93 0038 2368     		ldr	r3, [r4]
  94 003a 9B7C     		ldrb	r3, [r3, #18]	@ zero_extendqisi2
  95 003c 04E0     		b	.L17
  96              	.LVL9:
ARM GAS  C:\Users\jesse\AppData\Local\Temp\ccijhLEy.s 			page 5


  97              	.L10:
 131:..\..\..\u8g2\u8g2\csrc/u8x8_d_ssd1306_128x32.c ****       }
 132:..\..\..\u8g2\u8g2\csrc/u8x8_d_ssd1306_128x32.c ****       else
 133:..\..\..\u8g2\u8g2\csrc/u8x8_d_ssd1306_128x32.c ****       {
 134:..\..\..\u8g2\u8g2\csrc/u8x8_d_ssd1306_128x32.c **** 	u8x8_cad_SendSequence(u8x8, u8x8_d_ssd1306_128x32_univision_flip1_seq);
  98              		.loc 1 134 0
  99 003e 2449     		ldr	r1, .L19+16
 100 0040 FFF7FEFF 		bl	u8x8_cad_SendSequence
 101              	.LVL10:
 135:..\..\..\u8g2\u8g2\csrc/u8x8_d_ssd1306_128x32.c **** 	u8x8->x_offset = u8x8->display_info->flipmode_x_offset;
 102              		.loc 1 135 0
 103 0044 2368     		ldr	r3, [r4]
 104 0046 DB7C     		ldrb	r3, [r3, #19]	@ zero_extendqisi2
 105              	.L17:
 106 0048 84F82230 		strb	r3, [r4, #34]
 107 004c 0CE0     		b	.L14
 108              	.LVL11:
 109              	.L7:
 136:..\..\..\u8g2\u8g2\csrc/u8x8_d_ssd1306_128x32.c ****       }
 137:..\..\..\u8g2\u8g2\csrc/u8x8_d_ssd1306_128x32.c ****       break;
 138:..\..\..\u8g2\u8g2\csrc/u8x8_d_ssd1306_128x32.c **** #ifdef U8X8_WITH_SET_CONTRAST
 139:..\..\..\u8g2\u8g2\csrc/u8x8_d_ssd1306_128x32.c ****     case U8X8_MSG_DISPLAY_SET_CONTRAST:
 140:..\..\..\u8g2\u8g2\csrc/u8x8_d_ssd1306_128x32.c ****       u8x8_cad_StartTransfer(u8x8);
 110              		.loc 1 140 0
 111 004e FFF7FEFF 		bl	u8x8_cad_StartTransfer
 112              	.LVL12:
 141:..\..\..\u8g2\u8g2\csrc/u8x8_d_ssd1306_128x32.c ****       u8x8_cad_SendCmd(u8x8, 0x081 );
 113              		.loc 1 141 0
 114 0052 8121     		movs	r1, #129
 115 0054 2046     		mov	r0, r4
 116 0056 FFF7FEFF 		bl	u8x8_cad_SendCmd
 117              	.LVL13:
 142:..\..\..\u8g2\u8g2\csrc/u8x8_d_ssd1306_128x32.c ****       u8x8_cad_SendArg(u8x8, arg_int );	/* ssd1306 has range from 0 to 255 */
 118              		.loc 1 142 0
 119 005a 2946     		mov	r1, r5
 120 005c 2046     		mov	r0, r4
 121 005e FFF7FEFF 		bl	u8x8_cad_SendArg
 122              	.LVL14:
 123              	.L15:
 143:..\..\..\u8g2\u8g2\csrc/u8x8_d_ssd1306_128x32.c ****       u8x8_cad_EndTransfer(u8x8);
 124              		.loc 1 143 0
 125 0062 2046     		mov	r0, r4
 126 0064 FFF7FEFF 		bl	u8x8_cad_EndTransfer
 127              	.LVL15:
 128              	.L14:
 144:..\..\..\u8g2\u8g2\csrc/u8x8_d_ssd1306_128x32.c ****       break;
 145:..\..\..\u8g2\u8g2\csrc/u8x8_d_ssd1306_128x32.c **** #endif
 146:..\..\..\u8g2\u8g2\csrc/u8x8_d_ssd1306_128x32.c ****     case U8X8_MSG_DISPLAY_DRAW_TILE:
 147:..\..\..\u8g2\u8g2\csrc/u8x8_d_ssd1306_128x32.c ****       u8x8_cad_StartTransfer(u8x8);
 148:..\..\..\u8g2\u8g2\csrc/u8x8_d_ssd1306_128x32.c ****       x = ((u8x8_tile_t *)arg_ptr)->x_pos;    
 149:..\..\..\u8g2\u8g2\csrc/u8x8_d_ssd1306_128x32.c ****       x *= 8;
 150:..\..\..\u8g2\u8g2\csrc/u8x8_d_ssd1306_128x32.c ****       x += u8x8->x_offset;
 151:..\..\..\u8g2\u8g2\csrc/u8x8_d_ssd1306_128x32.c ****       u8x8_cad_SendCmd(u8x8, 0x010 | (x>>4) );
 152:..\..\..\u8g2\u8g2\csrc/u8x8_d_ssd1306_128x32.c ****       u8x8_cad_SendCmd(u8x8, 0x000 | ((x&15)));
 153:..\..\..\u8g2\u8g2\csrc/u8x8_d_ssd1306_128x32.c ****       u8x8_cad_SendCmd(u8x8, 0x0b0 | (((u8x8_tile_t *)arg_ptr)->y_pos));
 154:..\..\..\u8g2\u8g2\csrc/u8x8_d_ssd1306_128x32.c ****       
 155:..\..\..\u8g2\u8g2\csrc/u8x8_d_ssd1306_128x32.c ****       do
ARM GAS  C:\Users\jesse\AppData\Local\Temp\ccijhLEy.s 			page 6


 156:..\..\..\u8g2\u8g2\csrc/u8x8_d_ssd1306_128x32.c ****       {
 157:..\..\..\u8g2\u8g2\csrc/u8x8_d_ssd1306_128x32.c **** 	c = ((u8x8_tile_t *)arg_ptr)->cnt;
 158:..\..\..\u8g2\u8g2\csrc/u8x8_d_ssd1306_128x32.c **** 	ptr = ((u8x8_tile_t *)arg_ptr)->tile_ptr;
 159:..\..\..\u8g2\u8g2\csrc/u8x8_d_ssd1306_128x32.c **** 	u8x8_cad_SendData(u8x8, c*8, ptr); 	/* note: SendData can not handle more than 255 bytes */
 160:..\..\..\u8g2\u8g2\csrc/u8x8_d_ssd1306_128x32.c **** 	/*
 161:..\..\..\u8g2\u8g2\csrc/u8x8_d_ssd1306_128x32.c **** 	do
 162:..\..\..\u8g2\u8g2\csrc/u8x8_d_ssd1306_128x32.c **** 	{
 163:..\..\..\u8g2\u8g2\csrc/u8x8_d_ssd1306_128x32.c **** 	  u8x8_cad_SendData(u8x8, 8, ptr);
 164:..\..\..\u8g2\u8g2\csrc/u8x8_d_ssd1306_128x32.c **** 	  ptr += 8;
 165:..\..\..\u8g2\u8g2\csrc/u8x8_d_ssd1306_128x32.c **** 	  c--;
 166:..\..\..\u8g2\u8g2\csrc/u8x8_d_ssd1306_128x32.c **** 	} while( c > 0 );
 167:..\..\..\u8g2\u8g2\csrc/u8x8_d_ssd1306_128x32.c **** 	*/
 168:..\..\..\u8g2\u8g2\csrc/u8x8_d_ssd1306_128x32.c **** 	arg_int--;
 169:..\..\..\u8g2\u8g2\csrc/u8x8_d_ssd1306_128x32.c ****       } while( arg_int > 0 );
 170:..\..\..\u8g2\u8g2\csrc/u8x8_d_ssd1306_128x32.c ****       
 171:..\..\..\u8g2\u8g2\csrc/u8x8_d_ssd1306_128x32.c ****       u8x8_cad_EndTransfer(u8x8);
 172:..\..\..\u8g2\u8g2\csrc/u8x8_d_ssd1306_128x32.c ****       break;
 173:..\..\..\u8g2\u8g2\csrc/u8x8_d_ssd1306_128x32.c ****     default:
 174:..\..\..\u8g2\u8g2\csrc/u8x8_d_ssd1306_128x32.c ****       return 0;
 175:..\..\..\u8g2\u8g2\csrc/u8x8_d_ssd1306_128x32.c ****   }
 176:..\..\..\u8g2\u8g2\csrc/u8x8_d_ssd1306_128x32.c ****   return 1;
 129              		.loc 1 176 0
 130 0068 0120     		movs	r0, #1
 144:..\..\..\u8g2\u8g2\csrc/u8x8_d_ssd1306_128x32.c ****       break;
 131              		.loc 1 144 0
 132 006a F8BD     		pop	{r3, r4, r5, r6, r7, pc}
 133              	.LVL16:
 134              	.L8:
 147:..\..\..\u8g2\u8g2\csrc/u8x8_d_ssd1306_128x32.c ****       x = ((u8x8_tile_t *)arg_ptr)->x_pos;    
 135              		.loc 1 147 0
 136 006c FFF7FEFF 		bl	u8x8_cad_StartTransfer
 137              	.LVL17:
 150:..\..\..\u8g2\u8g2\csrc/u8x8_d_ssd1306_128x32.c ****       u8x8_cad_SendCmd(u8x8, 0x010 | (x>>4) );
 138              		.loc 1 150 0
 139 0070 94F82230 		ldrb	r3, [r4, #34]	@ zero_extendqisi2
 148:..\..\..\u8g2\u8g2\csrc/u8x8_d_ssd1306_128x32.c ****       x *= 8;
 140              		.loc 1 148 0
 141 0074 7E79     		ldrb	r6, [r7, #5]	@ zero_extendqisi2
 142              	.LVL18:
 151:..\..\..\u8g2\u8g2\csrc/u8x8_d_ssd1306_128x32.c ****       u8x8_cad_SendCmd(u8x8, 0x000 | ((x&15)));
 143              		.loc 1 151 0
 144 0076 2046     		mov	r0, r4
 150:..\..\..\u8g2\u8g2\csrc/u8x8_d_ssd1306_128x32.c ****       u8x8_cad_SendCmd(u8x8, 0x010 | (x>>4) );
 145              		.loc 1 150 0
 146 0078 03EBC606 		add	r6, r3, r6, lsl #3
 147              	.LVL19:
 148 007c 06F0FF06 		and	r6, r6, #255
 149              	.LVL20:
 151:..\..\..\u8g2\u8g2\csrc/u8x8_d_ssd1306_128x32.c ****       u8x8_cad_SendCmd(u8x8, 0x000 | ((x&15)));
 150              		.loc 1 151 0
 151 0080 3109     		lsrs	r1, r6, #4
 152 0082 41F01001 		orr	r1, r1, #16
 153 0086 FFF7FEFF 		bl	u8x8_cad_SendCmd
 154              	.LVL21:
 152:..\..\..\u8g2\u8g2\csrc/u8x8_d_ssd1306_128x32.c ****       u8x8_cad_SendCmd(u8x8, 0x0b0 | (((u8x8_tile_t *)arg_ptr)->y_pos));
 155              		.loc 1 152 0
 156 008a 06F00F01 		and	r1, r6, #15
ARM GAS  C:\Users\jesse\AppData\Local\Temp\ccijhLEy.s 			page 7


 157 008e 2046     		mov	r0, r4
 158 0090 FFF7FEFF 		bl	u8x8_cad_SendCmd
 159              	.LVL22:
 153:..\..\..\u8g2\u8g2\csrc/u8x8_d_ssd1306_128x32.c ****       
 160              		.loc 1 153 0
 161 0094 B979     		ldrb	r1, [r7, #6]	@ zero_extendqisi2
 162 0096 2046     		mov	r0, r4
 163 0098 41F0B001 		orr	r1, r1, #176
 164 009c FFF7FEFF 		bl	u8x8_cad_SendCmd
 165              	.LVL23:
 166              	.L11:
 159:..\..\..\u8g2\u8g2\csrc/u8x8_d_ssd1306_128x32.c **** 	/*
 167              		.loc 1 159 0 discriminator 1
 168 00a0 3979     		ldrb	r1, [r7, #4]	@ zero_extendqisi2
 169 00a2 3A68     		ldr	r2, [r7]
 170 00a4 C900     		lsls	r1, r1, #3
 171 00a6 01F0F801 		and	r1, r1, #248
 172 00aa 2046     		mov	r0, r4
 168:..\..\..\u8g2\u8g2\csrc/u8x8_d_ssd1306_128x32.c ****       } while( arg_int > 0 );
 173              		.loc 1 168 0 discriminator 1
 174 00ac 013D     		subs	r5, r5, #1
 175              	.LVL24:
 159:..\..\..\u8g2\u8g2\csrc/u8x8_d_ssd1306_128x32.c **** 	/*
 176              		.loc 1 159 0 discriminator 1
 177 00ae FFF7FEFF 		bl	u8x8_cad_SendData
 178              	.LVL25:
 169:..\..\..\u8g2\u8g2\csrc/u8x8_d_ssd1306_128x32.c ****       
 179              		.loc 1 169 0 discriminator 1
 180 00b2 15F0FF05 		ands	r5, r5, #255
 181              	.LVL26:
 182 00b6 F3D1     		bne	.L11
 183 00b8 D3E7     		b	.L15
 184              	.LVL27:
 185              	.L12:
 174:..\..\..\u8g2\u8g2\csrc/u8x8_d_ssd1306_128x32.c ****   }
 186              		.loc 1 174 0
 187 00ba 0020     		movs	r0, #0
 188              	.LVL28:
 177:..\..\..\u8g2\u8g2\csrc/u8x8_d_ssd1306_128x32.c **** }
 189              		.loc 1 177 0
 190 00bc F8BD     		pop	{r3, r4, r5, r6, r7, pc}
 191              	.LVL29:
 192              	.L20:
 193 00be 00BF     		.align	2
 194              	.L19:
 195 00c0 00000000 		.word	.LANCHOR0
 196 00c4 35000000 		.word	.LANCHOR0+53
 197 00c8 3A000000 		.word	.LANCHOR0+58
 198 00cc 3F000000 		.word	.LANCHOR0+63
 199 00d0 46000000 		.word	.LANCHOR0+70
 200              		.cfi_endproc
 201              	.LFE0:
 202              		.size	u8x8_d_ssd1306_128x32_generic, .-u8x8_d_ssd1306_128x32_generic
 203              		.section	.text.u8x8_d_ssd1306_128x32_univision,"ax",%progbits
 204              		.align	1
 205              		.global	u8x8_d_ssd1306_128x32_univision
 206              		.thumb
ARM GAS  C:\Users\jesse\AppData\Local\Temp\ccijhLEy.s 			page 8


 207              		.thumb_func
 208              		.type	u8x8_d_ssd1306_128x32_univision, %function
 209              	u8x8_d_ssd1306_128x32_univision:
 210              	.LFB1:
 178:..\..\..\u8g2\u8g2\csrc/u8x8_d_ssd1306_128x32.c **** 
 179:..\..\..\u8g2\u8g2\csrc/u8x8_d_ssd1306_128x32.c **** 
 180:..\..\..\u8g2\u8g2\csrc/u8x8_d_ssd1306_128x32.c **** static const u8x8_display_info_t u8x8_ssd1306_128x32_univision_display_info =
 181:..\..\..\u8g2\u8g2\csrc/u8x8_d_ssd1306_128x32.c **** {
 182:..\..\..\u8g2\u8g2\csrc/u8x8_d_ssd1306_128x32.c ****   /* chip_enable_level = */ 0,
 183:..\..\..\u8g2\u8g2\csrc/u8x8_d_ssd1306_128x32.c ****   /* chip_disable_level = */ 1,
 184:..\..\..\u8g2\u8g2\csrc/u8x8_d_ssd1306_128x32.c ****   
 185:..\..\..\u8g2\u8g2\csrc/u8x8_d_ssd1306_128x32.c ****   /* post_chip_enable_wait_ns = */ 20,
 186:..\..\..\u8g2\u8g2\csrc/u8x8_d_ssd1306_128x32.c ****   /* pre_chip_disable_wait_ns = */ 10,
 187:..\..\..\u8g2\u8g2\csrc/u8x8_d_ssd1306_128x32.c ****   /* reset_pulse_width_ms = */ 100, 	/* SSD1306: 3 us */
 188:..\..\..\u8g2\u8g2\csrc/u8x8_d_ssd1306_128x32.c ****   /* post_reset_wait_ms = */ 100, /* far east OLEDs need much longer setup time */
 189:..\..\..\u8g2\u8g2\csrc/u8x8_d_ssd1306_128x32.c ****   /* sda_setup_time_ns = */ 50,		/* SSD1306: 15ns, but cycle time is 100ns, so use 100/2 */
 190:..\..\..\u8g2\u8g2\csrc/u8x8_d_ssd1306_128x32.c ****   /* sck_pulse_width_ns = */ 50,	/* SSD1306: 20ns, but cycle time is 100ns, so use 100/2, AVR: belo
 191:..\..\..\u8g2\u8g2\csrc/u8x8_d_ssd1306_128x32.c ****   /* sck_clock_hz = */ 8000000UL,	/* since Arduino 1.6.0, the SPI bus speed in Hz. Should be  10000
 192:..\..\..\u8g2\u8g2\csrc/u8x8_d_ssd1306_128x32.c ****   /* spi_mode = */ 0,		/* active high, rising edge */
 193:..\..\..\u8g2\u8g2\csrc/u8x8_d_ssd1306_128x32.c ****   /* i2c_bus_clock_100kHz = */ 4,
 194:..\..\..\u8g2\u8g2\csrc/u8x8_d_ssd1306_128x32.c ****   /* data_setup_time_ns = */ 40,
 195:..\..\..\u8g2\u8g2\csrc/u8x8_d_ssd1306_128x32.c ****   /* write_pulse_width_ns = */ 150,	/* SSD1306: cycle time is 300ns, so use 300/2 = 150 */
 196:..\..\..\u8g2\u8g2\csrc/u8x8_d_ssd1306_128x32.c ****   /* tile_width = */ 16,
 197:..\..\..\u8g2\u8g2\csrc/u8x8_d_ssd1306_128x32.c ****   /* tile_hight = */ 4,
 198:..\..\..\u8g2\u8g2\csrc/u8x8_d_ssd1306_128x32.c ****   /* default_x_offset = */ 0,
 199:..\..\..\u8g2\u8g2\csrc/u8x8_d_ssd1306_128x32.c ****   /* flipmode_x_offset = */ 0,
 200:..\..\..\u8g2\u8g2\csrc/u8x8_d_ssd1306_128x32.c ****   /* pixel_width = */ 128,
 201:..\..\..\u8g2\u8g2\csrc/u8x8_d_ssd1306_128x32.c ****   /* pixel_height = */ 32
 202:..\..\..\u8g2\u8g2\csrc/u8x8_d_ssd1306_128x32.c **** };
 203:..\..\..\u8g2\u8g2\csrc/u8x8_d_ssd1306_128x32.c **** 
 204:..\..\..\u8g2\u8g2\csrc/u8x8_d_ssd1306_128x32.c **** uint8_t u8x8_d_ssd1306_128x32_univision(u8x8_t *u8x8, uint8_t msg, uint8_t arg_int, void *arg_ptr)
 205:..\..\..\u8g2\u8g2\csrc/u8x8_d_ssd1306_128x32.c **** {
 211              		.loc 1 205 0
 212              		.cfi_startproc
 213              		@ args = 0, pretend = 0, frame = 0
 214              		@ frame_needed = 0, uses_anonymous_args = 0
 215              	.LVL30:
 206:..\..\..\u8g2\u8g2\csrc/u8x8_d_ssd1306_128x32.c ****     if ( msg == U8X8_MSG_DISPLAY_SETUP_MEMORY )
 216              		.loc 1 206 0
 217 0000 0929     		cmp	r1, #9
 205:..\..\..\u8g2\u8g2\csrc/u8x8_d_ssd1306_128x32.c ****     if ( msg == U8X8_MSG_DISPLAY_SETUP_MEMORY )
 218              		.loc 1 205 0
 219 0002 10B5     		push	{r4, lr}
 220              		.cfi_def_cfa_offset 8
 221              		.cfi_offset 4, -8
 222              		.cfi_offset 14, -4
 223              		.loc 1 206 0
 224 0004 03D0     		beq	.L25
 207:..\..\..\u8g2\u8g2\csrc/u8x8_d_ssd1306_128x32.c ****     {
 208:..\..\..\u8g2\u8g2\csrc/u8x8_d_ssd1306_128x32.c ****       u8x8_d_helper_display_setup_memory(u8x8, &u8x8_ssd1306_128x32_univision_display_info);
 209:..\..\..\u8g2\u8g2\csrc/u8x8_d_ssd1306_128x32.c ****       return 1;
 210:..\..\..\u8g2\u8g2\csrc/u8x8_d_ssd1306_128x32.c ****     }
 211:..\..\..\u8g2\u8g2\csrc/u8x8_d_ssd1306_128x32.c ****     return u8x8_d_ssd1306_128x32_generic(u8x8, msg, arg_int, arg_ptr);
 212:..\..\..\u8g2\u8g2\csrc/u8x8_d_ssd1306_128x32.c **** }
 225              		.loc 1 212 0
 226 0006 BDE81040 		pop	{r4, lr}
 227              		.cfi_remember_state
ARM GAS  C:\Users\jesse\AppData\Local\Temp\ccijhLEy.s 			page 9


 228              		.cfi_restore 14
 229              		.cfi_restore 4
 230              		.cfi_def_cfa_offset 0
 211:..\..\..\u8g2\u8g2\csrc/u8x8_d_ssd1306_128x32.c **** }
 231              		.loc 1 211 0
 232 000a FFF7FEBF 		b	u8x8_d_ssd1306_128x32_generic
 233              	.LVL31:
 234              	.L25:
 235              		.cfi_restore_state
 208:..\..\..\u8g2\u8g2\csrc/u8x8_d_ssd1306_128x32.c ****       return 1;
 236              		.loc 1 208 0
 237 000e 0249     		ldr	r1, .L26
 238              	.LVL32:
 239 0010 FFF7FEFF 		bl	u8x8_d_helper_display_setup_memory
 240              	.LVL33:
 241              		.loc 1 212 0
 242 0014 0120     		movs	r0, #1
 243 0016 10BD     		pop	{r4, pc}
 244              	.L27:
 245              		.align	2
 246              	.L26:
 247 0018 50000000 		.word	.LANCHOR0+80
 248              		.cfi_endproc
 249              	.LFE1:
 250              		.size	u8x8_d_ssd1306_128x32_univision, .-u8x8_d_ssd1306_128x32_univision
 251              		.section	.text.u8x8_d_ssd1306_128x32_winstar,"ax",%progbits
 252              		.align	1
 253              		.global	u8x8_d_ssd1306_128x32_winstar
 254              		.thumb
 255              		.thumb_func
 256              		.type	u8x8_d_ssd1306_128x32_winstar, %function
 257              	u8x8_d_ssd1306_128x32_winstar:
 258              	.LFB2:
 213:..\..\..\u8g2\u8g2\csrc/u8x8_d_ssd1306_128x32.c **** 
 214:..\..\..\u8g2\u8g2\csrc/u8x8_d_ssd1306_128x32.c **** /*=============================================*/
 215:..\..\..\u8g2\u8g2\csrc/u8x8_d_ssd1306_128x32.c **** /* issue 756 */
 216:..\..\..\u8g2\u8g2\csrc/u8x8_d_ssd1306_128x32.c **** 
 217:..\..\..\u8g2\u8g2\csrc/u8x8_d_ssd1306_128x32.c **** #define	    ADDR_MODE	0 //0:horizontal, 1:vertical, 2:page
 218:..\..\..\u8g2\u8g2\csrc/u8x8_d_ssd1306_128x32.c **** 
 219:..\..\..\u8g2\u8g2\csrc/u8x8_d_ssd1306_128x32.c **** 
 220:..\..\..\u8g2\u8g2\csrc/u8x8_d_ssd1306_128x32.c **** static const u8x8_display_info_t u8x8_ssd1306_128x32_winstar_display_info =
 221:..\..\..\u8g2\u8g2\csrc/u8x8_d_ssd1306_128x32.c **** {
 222:..\..\..\u8g2\u8g2\csrc/u8x8_d_ssd1306_128x32.c ****   /* chip_enable_level = */ 0,
 223:..\..\..\u8g2\u8g2\csrc/u8x8_d_ssd1306_128x32.c ****   /* chip_disable_level = */ 1,
 224:..\..\..\u8g2\u8g2\csrc/u8x8_d_ssd1306_128x32.c ****   
 225:..\..\..\u8g2\u8g2\csrc/u8x8_d_ssd1306_128x32.c ****   /* post_chip_enable_wait_ns = */ 20,
 226:..\..\..\u8g2\u8g2\csrc/u8x8_d_ssd1306_128x32.c ****   /* pre_chip_disable_wait_ns = */ 10,
 227:..\..\..\u8g2\u8g2\csrc/u8x8_d_ssd1306_128x32.c ****   /* reset_pulse_width_ms = */ 100, 	/* SSD1306: 3 us */
 228:..\..\..\u8g2\u8g2\csrc/u8x8_d_ssd1306_128x32.c ****   /* post_reset_wait_ms = */ 100, /* far east OLEDs need much longer setup time */
 229:..\..\..\u8g2\u8g2\csrc/u8x8_d_ssd1306_128x32.c ****   /* sda_setup_time_ns = */ 50,		/* SSD1306: 15ns, but cycle time is 100ns, so use 100/2 */
 230:..\..\..\u8g2\u8g2\csrc/u8x8_d_ssd1306_128x32.c ****   /* sck_pulse_width_ns = */ 50,	/* SSD1306: 20ns, but cycle time is 100ns, so use 100/2, AVR: belo
 231:..\..\..\u8g2\u8g2\csrc/u8x8_d_ssd1306_128x32.c ****   /* sck_clock_hz = */ 8000000UL,	/* since Arduino 1.6.0, the SPI bus speed in Hz. Should be  10000
 232:..\..\..\u8g2\u8g2\csrc/u8x8_d_ssd1306_128x32.c ****   /* spi_mode = */ 0,		/* active high, rising edge */
 233:..\..\..\u8g2\u8g2\csrc/u8x8_d_ssd1306_128x32.c ****   /* i2c_bus_clock_100kHz = */ 4,
 234:..\..\..\u8g2\u8g2\csrc/u8x8_d_ssd1306_128x32.c ****   /* data_setup_time_ns = */ 40,
 235:..\..\..\u8g2\u8g2\csrc/u8x8_d_ssd1306_128x32.c ****   /* write_pulse_width_ns = */ 150,	/* SSD1306: cycle time is 300ns, so use 300/2 = 150 */
 236:..\..\..\u8g2\u8g2\csrc/u8x8_d_ssd1306_128x32.c ****   /* tile_width = */ 16,
ARM GAS  C:\Users\jesse\AppData\Local\Temp\ccijhLEy.s 			page 10


 237:..\..\..\u8g2\u8g2\csrc/u8x8_d_ssd1306_128x32.c ****   /* tile_hight = */ 4,
 238:..\..\..\u8g2\u8g2\csrc/u8x8_d_ssd1306_128x32.c ****   /* default_x_offset = */ 125,
 239:..\..\..\u8g2\u8g2\csrc/u8x8_d_ssd1306_128x32.c ****   /* flipmode_x_offset = */ 125,
 240:..\..\..\u8g2\u8g2\csrc/u8x8_d_ssd1306_128x32.c ****   /* pixel_width = */ 128,
 241:..\..\..\u8g2\u8g2\csrc/u8x8_d_ssd1306_128x32.c ****   /* pixel_height = */ 32
 242:..\..\..\u8g2\u8g2\csrc/u8x8_d_ssd1306_128x32.c **** };
 243:..\..\..\u8g2\u8g2\csrc/u8x8_d_ssd1306_128x32.c **** 
 244:..\..\..\u8g2\u8g2\csrc/u8x8_d_ssd1306_128x32.c **** uint8_t u8x8_d_ssd1306_128x32_winstar(u8x8_t *u8x8, uint8_t msg, uint8_t arg_int, void *arg_ptr)
 245:..\..\..\u8g2\u8g2\csrc/u8x8_d_ssd1306_128x32.c **** {
 259              		.loc 1 245 0
 260              		.cfi_startproc
 261              		@ args = 0, pretend = 0, frame = 0
 262              		@ frame_needed = 0, uses_anonymous_args = 0
 263              	.LVL34:
 246:..\..\..\u8g2\u8g2\csrc/u8x8_d_ssd1306_128x32.c ****     if ( msg == U8X8_MSG_DISPLAY_SETUP_MEMORY )
 264              		.loc 1 246 0
 265 0000 0929     		cmp	r1, #9
 245:..\..\..\u8g2\u8g2\csrc/u8x8_d_ssd1306_128x32.c ****     if ( msg == U8X8_MSG_DISPLAY_SETUP_MEMORY )
 266              		.loc 1 245 0
 267 0002 10B5     		push	{r4, lr}
 268              		.cfi_def_cfa_offset 8
 269              		.cfi_offset 4, -8
 270              		.cfi_offset 14, -4
 271              		.loc 1 246 0
 272 0004 03D0     		beq	.L32
 247:..\..\..\u8g2\u8g2\csrc/u8x8_d_ssd1306_128x32.c ****     {
 248:..\..\..\u8g2\u8g2\csrc/u8x8_d_ssd1306_128x32.c ****       u8x8_d_helper_display_setup_memory(u8x8, &u8x8_ssd1306_128x32_winstar_display_info);
 249:..\..\..\u8g2\u8g2\csrc/u8x8_d_ssd1306_128x32.c ****       return 1;
 250:..\..\..\u8g2\u8g2\csrc/u8x8_d_ssd1306_128x32.c ****     }
 251:..\..\..\u8g2\u8g2\csrc/u8x8_d_ssd1306_128x32.c ****     return u8x8_d_ssd1306_128x32_generic(u8x8, msg, arg_int, arg_ptr);
 252:..\..\..\u8g2\u8g2\csrc/u8x8_d_ssd1306_128x32.c **** }
 273              		.loc 1 252 0
 274 0006 BDE81040 		pop	{r4, lr}
 275              		.cfi_remember_state
 276              		.cfi_restore 14
 277              		.cfi_restore 4
 278              		.cfi_def_cfa_offset 0
 251:..\..\..\u8g2\u8g2\csrc/u8x8_d_ssd1306_128x32.c **** }
 279              		.loc 1 251 0
 280 000a FFF7FEBF 		b	u8x8_d_ssd1306_128x32_generic
 281              	.LVL35:
 282              	.L32:
 283              		.cfi_restore_state
 248:..\..\..\u8g2\u8g2\csrc/u8x8_d_ssd1306_128x32.c ****       return 1;
 284              		.loc 1 248 0
 285 000e 0249     		ldr	r1, .L33
 286              	.LVL36:
 287 0010 FFF7FEFF 		bl	u8x8_d_helper_display_setup_memory
 288              	.LVL37:
 289              		.loc 1 252 0
 290 0014 0120     		movs	r0, #1
 291 0016 10BD     		pop	{r4, pc}
 292              	.L34:
 293              		.align	2
 294              	.L33:
 295 0018 68000000 		.word	.LANCHOR0+104
 296              		.cfi_endproc
ARM GAS  C:\Users\jesse\AppData\Local\Temp\ccijhLEy.s 			page 11


 297              	.LFE2:
 298              		.size	u8x8_d_ssd1306_128x32_winstar, .-u8x8_d_ssd1306_128x32_winstar
 299              		.section	.text.u8x8_d_sh1106_128x32_visionox,"ax",%progbits
 300              		.align	1
 301              		.global	u8x8_d_sh1106_128x32_visionox
 302              		.thumb
 303              		.thumb_func
 304              		.type	u8x8_d_sh1106_128x32_visionox, %function
 305              	u8x8_d_sh1106_128x32_visionox:
 306              	.LFB3:
 253:..\..\..\u8g2\u8g2\csrc/u8x8_d_ssd1306_128x32.c **** 
 254:..\..\..\u8g2\u8g2\csrc/u8x8_d_ssd1306_128x32.c **** 
 255:..\..\..\u8g2\u8g2\csrc/u8x8_d_ssd1306_128x32.c **** /*=============================================*/
 256:..\..\..\u8g2\u8g2\csrc/u8x8_d_ssd1306_128x32.c **** /* visionox 132x32 OLED, https://github.com/olikraus/u8g2/issues/1250 */
 257:..\..\..\u8g2\u8g2\csrc/u8x8_d_ssd1306_128x32.c **** 
 258:..\..\..\u8g2\u8g2\csrc/u8x8_d_ssd1306_128x32.c **** 
 259:..\..\..\u8g2\u8g2\csrc/u8x8_d_ssd1306_128x32.c **** static const uint8_t u8x8_d_sh1106_128x32_visionox_init_seq[] = {
 260:..\..\..\u8g2\u8g2\csrc/u8x8_d_ssd1306_128x32.c ****     
 261:..\..\..\u8g2\u8g2\csrc/u8x8_d_ssd1306_128x32.c ****   U8X8_START_TRANSFER(),             	/* enable chip, delay is part of the transfer start */
 262:..\..\..\u8g2\u8g2\csrc/u8x8_d_ssd1306_128x32.c ****   
 263:..\..\..\u8g2\u8g2\csrc/u8x8_d_ssd1306_128x32.c ****   U8X8_C(0xAE),
 264:..\..\..\u8g2\u8g2\csrc/u8x8_d_ssd1306_128x32.c ****   U8X8_CA(0xD5, 0x91),
 265:..\..\..\u8g2\u8g2\csrc/u8x8_d_ssd1306_128x32.c ****   U8X8_CA(0xA8, 0x1F),
 266:..\..\..\u8g2\u8g2\csrc/u8x8_d_ssd1306_128x32.c ****   U8X8_CA(0xD3, 0x10),
 267:..\..\..\u8g2\u8g2\csrc/u8x8_d_ssd1306_128x32.c ****   U8X8_C(0x40),
 268:..\..\..\u8g2\u8g2\csrc/u8x8_d_ssd1306_128x32.c ****   U8X8_CA(0xAD, 0x8B),
 269:..\..\..\u8g2\u8g2\csrc/u8x8_d_ssd1306_128x32.c ****   U8X8_C(0x33),
 270:..\..\..\u8g2\u8g2\csrc/u8x8_d_ssd1306_128x32.c ****   U8X8_C(0xA1),
 271:..\..\..\u8g2\u8g2\csrc/u8x8_d_ssd1306_128x32.c ****   U8X8_C(0xC8),
 272:..\..\..\u8g2\u8g2\csrc/u8x8_d_ssd1306_128x32.c ****   U8X8_CA(0xDA, 0x12),
 273:..\..\..\u8g2\u8g2\csrc/u8x8_d_ssd1306_128x32.c ****   U8X8_CA(0x81, 0xAF),
 274:..\..\..\u8g2\u8g2\csrc/u8x8_d_ssd1306_128x32.c ****   U8X8_CA(0xD9, 0x1F),
 275:..\..\..\u8g2\u8g2\csrc/u8x8_d_ssd1306_128x32.c ****   U8X8_CA(0xDB, 0x25),
 276:..\..\..\u8g2\u8g2\csrc/u8x8_d_ssd1306_128x32.c ****   U8X8_C(0xA4),
 277:..\..\..\u8g2\u8g2\csrc/u8x8_d_ssd1306_128x32.c ****   U8X8_C(0xA6),
 278:..\..\..\u8g2\u8g2\csrc/u8x8_d_ssd1306_128x32.c ****     
 279:..\..\..\u8g2\u8g2\csrc/u8x8_d_ssd1306_128x32.c ****   U8X8_END_TRANSFER(),             	/* disable chip */
 280:..\..\..\u8g2\u8g2\csrc/u8x8_d_ssd1306_128x32.c ****   U8X8_END()             			/* end of sequence */
 281:..\..\..\u8g2\u8g2\csrc/u8x8_d_ssd1306_128x32.c **** };
 282:..\..\..\u8g2\u8g2\csrc/u8x8_d_ssd1306_128x32.c **** 
 283:..\..\..\u8g2\u8g2\csrc/u8x8_d_ssd1306_128x32.c **** static const u8x8_display_info_t u8x8_d_sh1106_128x32_visionox_display_info =
 284:..\..\..\u8g2\u8g2\csrc/u8x8_d_ssd1306_128x32.c **** {
 285:..\..\..\u8g2\u8g2\csrc/u8x8_d_ssd1306_128x32.c ****   /* chip_enable_level = */ 0,
 286:..\..\..\u8g2\u8g2\csrc/u8x8_d_ssd1306_128x32.c ****   /* chip_disable_level = */ 1,
 287:..\..\..\u8g2\u8g2\csrc/u8x8_d_ssd1306_128x32.c ****   
 288:..\..\..\u8g2\u8g2\csrc/u8x8_d_ssd1306_128x32.c ****   /* post_chip_enable_wait_ns = */ 20,
 289:..\..\..\u8g2\u8g2\csrc/u8x8_d_ssd1306_128x32.c ****   /* pre_chip_disable_wait_ns = */ 10,
 290:..\..\..\u8g2\u8g2\csrc/u8x8_d_ssd1306_128x32.c ****   /* reset_pulse_width_ms = */ 100, 	/* SSD1306: 3 us */
 291:..\..\..\u8g2\u8g2\csrc/u8x8_d_ssd1306_128x32.c ****   /* post_reset_wait_ms = */ 100, /* far east OLEDs need much longer setup time */
 292:..\..\..\u8g2\u8g2\csrc/u8x8_d_ssd1306_128x32.c ****   /* sda_setup_time_ns = */ 50,		/* SSD1306: 15ns, but cycle time is 100ns, so use 100/2 */
 293:..\..\..\u8g2\u8g2\csrc/u8x8_d_ssd1306_128x32.c ****   /* sck_pulse_width_ns = */ 50,	/* SSD1306: 20ns, but cycle time is 100ns, so use 100/2, AVR: belo
 294:..\..\..\u8g2\u8g2\csrc/u8x8_d_ssd1306_128x32.c ****   /* sck_clock_hz = */ 4000000UL,	/* since Arduino 1.6.0, the SPI bus speed in Hz. Should be  10000
 295:..\..\..\u8g2\u8g2\csrc/u8x8_d_ssd1306_128x32.c ****   /* spi_mode = */ 0,		/* active high, rising edge */
 296:..\..\..\u8g2\u8g2\csrc/u8x8_d_ssd1306_128x32.c ****   /* i2c_bus_clock_100kHz = */ 4,
 297:..\..\..\u8g2\u8g2\csrc/u8x8_d_ssd1306_128x32.c ****   /* data_setup_time_ns = */ 40,
 298:..\..\..\u8g2\u8g2\csrc/u8x8_d_ssd1306_128x32.c ****   /* write_pulse_width_ns = */ 150,	/* SSD1306: cycle time is 300ns, so use 300/2 = 150 */
 299:..\..\..\u8g2\u8g2\csrc/u8x8_d_ssd1306_128x32.c ****   /* tile_width = */ 16,
ARM GAS  C:\Users\jesse\AppData\Local\Temp\ccijhLEy.s 			page 12


 300:..\..\..\u8g2\u8g2\csrc/u8x8_d_ssd1306_128x32.c ****   /* tile_hight = */ 4,
 301:..\..\..\u8g2\u8g2\csrc/u8x8_d_ssd1306_128x32.c ****   /* default_x_offset = */ 2,
 302:..\..\..\u8g2\u8g2\csrc/u8x8_d_ssd1306_128x32.c ****   /* flipmode_x_offset = */ 2,
 303:..\..\..\u8g2\u8g2\csrc/u8x8_d_ssd1306_128x32.c ****   /* pixel_width = */ 128,
 304:..\..\..\u8g2\u8g2\csrc/u8x8_d_ssd1306_128x32.c ****   /* pixel_height = */ 32
 305:..\..\..\u8g2\u8g2\csrc/u8x8_d_ssd1306_128x32.c **** };
 306:..\..\..\u8g2\u8g2\csrc/u8x8_d_ssd1306_128x32.c **** 
 307:..\..\..\u8g2\u8g2\csrc/u8x8_d_ssd1306_128x32.c **** 
 308:..\..\..\u8g2\u8g2\csrc/u8x8_d_ssd1306_128x32.c **** uint8_t u8x8_d_sh1106_128x32_visionox(u8x8_t *u8x8, uint8_t msg, uint8_t arg_int, void *arg_ptr)
 309:..\..\..\u8g2\u8g2\csrc/u8x8_d_ssd1306_128x32.c **** {
 307              		.loc 1 309 0
 308              		.cfi_startproc
 309              		@ args = 0, pretend = 0, frame = 0
 310              		@ frame_needed = 0, uses_anonymous_args = 0
 311              	.LVL38:
 310:..\..\..\u8g2\u8g2\csrc/u8x8_d_ssd1306_128x32.c ****     if ( msg == U8X8_MSG_DISPLAY_SETUP_MEMORY )
 312              		.loc 1 310 0
 313 0000 0929     		cmp	r1, #9
 309:..\..\..\u8g2\u8g2\csrc/u8x8_d_ssd1306_128x32.c ****     if ( msg == U8X8_MSG_DISPLAY_SETUP_MEMORY )
 314              		.loc 1 309 0
 315 0002 2DE9F041 		push	{r4, r5, r6, r7, r8, lr}
 316              		.cfi_def_cfa_offset 24
 317              		.cfi_offset 4, -24
 318              		.cfi_offset 5, -20
 319              		.cfi_offset 6, -16
 320              		.cfi_offset 7, -12
 321              		.cfi_offset 8, -8
 322              		.cfi_offset 14, -4
 309:..\..\..\u8g2\u8g2\csrc/u8x8_d_ssd1306_128x32.c ****     if ( msg == U8X8_MSG_DISPLAY_SETUP_MEMORY )
 323              		.loc 1 309 0
 324 0006 0546     		mov	r5, r0
 325 0008 0C46     		mov	r4, r1
 326 000a 1646     		mov	r6, r2
 327 000c 1F46     		mov	r7, r3
 328              		.loc 1 310 0
 329 000e 0FD0     		beq	.L40
 311:..\..\..\u8g2\u8g2\csrc/u8x8_d_ssd1306_128x32.c ****     {
 312:..\..\..\u8g2\u8g2\csrc/u8x8_d_ssd1306_128x32.c ****       u8x8_d_helper_display_setup_memory(u8x8, &u8x8_d_sh1106_128x32_visionox_display_info);
 313:..\..\..\u8g2\u8g2\csrc/u8x8_d_ssd1306_128x32.c ****       return 1;
 314:..\..\..\u8g2\u8g2\csrc/u8x8_d_ssd1306_128x32.c ****     }
 315:..\..\..\u8g2\u8g2\csrc/u8x8_d_ssd1306_128x32.c **** 
 316:..\..\..\u8g2\u8g2\csrc/u8x8_d_ssd1306_128x32.c ****     if ( msg == U8X8_MSG_DISPLAY_INIT )
 330              		.loc 1 316 0
 331 0010 0A29     		cmp	r1, #10
 332 0012 05D1     		bne	.L38
 317:..\..\..\u8g2\u8g2\csrc/u8x8_d_ssd1306_128x32.c ****     {
 318:..\..\..\u8g2\u8g2\csrc/u8x8_d_ssd1306_128x32.c ****       u8x8_d_helper_display_init(u8x8);
 333              		.loc 1 318 0
 334 0014 FFF7FEFF 		bl	u8x8_d_helper_display_init
 335              	.LVL39:
 319:..\..\..\u8g2\u8g2\csrc/u8x8_d_ssd1306_128x32.c ****       u8x8_cad_SendSequence(u8x8, u8x8_d_sh1106_128x32_visionox_init_seq);    
 336              		.loc 1 319 0
 337 0018 0849     		ldr	r1, .L41
 338 001a 2846     		mov	r0, r5
 339 001c FFF7FEFF 		bl	u8x8_cad_SendSequence
 340              	.LVL40:
 341              	.L38:
ARM GAS  C:\Users\jesse\AppData\Local\Temp\ccijhLEy.s 			page 13


 320:..\..\..\u8g2\u8g2\csrc/u8x8_d_ssd1306_128x32.c ****     }
 321:..\..\..\u8g2\u8g2\csrc/u8x8_d_ssd1306_128x32.c ****     
 322:..\..\..\u8g2\u8g2\csrc/u8x8_d_ssd1306_128x32.c ****     return u8x8_d_ssd1306_128x32_generic(u8x8, msg, arg_int, arg_ptr);
 342              		.loc 1 322 0
 343 0020 3B46     		mov	r3, r7
 344 0022 3246     		mov	r2, r6
 345 0024 2146     		mov	r1, r4
 346 0026 2846     		mov	r0, r5
 323:..\..\..\u8g2\u8g2\csrc/u8x8_d_ssd1306_128x32.c **** }
 347              		.loc 1 323 0
 348 0028 BDE8F041 		pop	{r4, r5, r6, r7, r8, lr}
 349              		.cfi_remember_state
 350              		.cfi_restore 14
 351              		.cfi_restore 8
 352              		.cfi_restore 7
 353              		.cfi_restore 6
 354              		.cfi_restore 5
 355              		.cfi_restore 4
 356              		.cfi_def_cfa_offset 0
 357              	.LVL41:
 322:..\..\..\u8g2\u8g2\csrc/u8x8_d_ssd1306_128x32.c **** }
 358              		.loc 1 322 0
 359 002c FFF7FEBF 		b	u8x8_d_ssd1306_128x32_generic
 360              	.LVL42:
 361              	.L40:
 362              		.cfi_restore_state
 312:..\..\..\u8g2\u8g2\csrc/u8x8_d_ssd1306_128x32.c ****       return 1;
 363              		.loc 1 312 0
 364 0030 0349     		ldr	r1, .L41+4
 365              	.LVL43:
 366 0032 FFF7FEFF 		bl	u8x8_d_helper_display_setup_memory
 367              	.LVL44:
 368              		.loc 1 323 0
 369 0036 0120     		movs	r0, #1
 370 0038 BDE8F081 		pop	{r4, r5, r6, r7, r8, pc}
 371              	.LVL45:
 372              	.L42:
 373              		.align	2
 374              	.L41:
 375 003c 98000000 		.word	.LANCHOR0+152
 376 0040 80000000 		.word	.LANCHOR0+128
 377              		.cfi_endproc
 378              	.LFE3:
 379              		.size	u8x8_d_sh1106_128x32_visionox, .-u8x8_d_sh1106_128x32_visionox
 380              		.section	.rodata
 381              		.align	2
 382              		.set	.LANCHOR0,. + 0
 383              		.type	u8x8_d_ssd1306_128x32_univision_init_seq, %object
 384              		.size	u8x8_d_ssd1306_128x32_univision_init_seq, 53
 385              	u8x8_d_ssd1306_128x32_univision_init_seq:
 386 0000 18       		.byte	24
 387 0001 15       		.byte	21
 388 0002 AE       		.byte	-82
 389 0003 15       		.byte	21
 390 0004 D5       		.byte	-43
 391 0005 16       		.byte	22
 392 0006 80       		.byte	-128
ARM GAS  C:\Users\jesse\AppData\Local\Temp\ccijhLEy.s 			page 14


 393 0007 15       		.byte	21
 394 0008 A8       		.byte	-88
 395 0009 16       		.byte	22
 396 000a 1F       		.byte	31
 397 000b 15       		.byte	21
 398 000c D3       		.byte	-45
 399 000d 16       		.byte	22
 400 000e 00       		.byte	0
 401 000f 15       		.byte	21
 402 0010 40       		.byte	64
 403 0011 15       		.byte	21
 404 0012 8D       		.byte	-115
 405 0013 16       		.byte	22
 406 0014 14       		.byte	20
 407 0015 15       		.byte	21
 408 0016 20       		.byte	32
 409 0017 16       		.byte	22
 410 0018 00       		.byte	0
 411 0019 15       		.byte	21
 412 001a A1       		.byte	-95
 413 001b 15       		.byte	21
 414 001c C8       		.byte	-56
 415 001d 15       		.byte	21
 416 001e DA       		.byte	-38
 417 001f 16       		.byte	22
 418 0020 02       		.byte	2
 419 0021 15       		.byte	21
 420 0022 81       		.byte	-127
 421 0023 16       		.byte	22
 422 0024 8F       		.byte	-113
 423 0025 15       		.byte	21
 424 0026 D9       		.byte	-39
 425 0027 16       		.byte	22
 426 0028 F1       		.byte	-15
 427 0029 15       		.byte	21
 428 002a DB       		.byte	-37
 429 002b 16       		.byte	22
 430 002c 40       		.byte	64
 431 002d 15       		.byte	21
 432 002e 2E       		.byte	46
 433 002f 15       		.byte	21
 434 0030 A4       		.byte	-92
 435 0031 15       		.byte	21
 436 0032 A6       		.byte	-90
 437 0033 19       		.byte	25
 438 0034 FF       		.byte	-1
 439              		.type	u8x8_d_ssd1306_128x32_univision_powersave0_seq, %object
 440              		.size	u8x8_d_ssd1306_128x32_univision_powersave0_seq, 5
 441              	u8x8_d_ssd1306_128x32_univision_powersave0_seq:
 442 0035 18       		.byte	24
 443 0036 15       		.byte	21
 444 0037 AF       		.byte	-81
 445 0038 19       		.byte	25
 446 0039 FF       		.byte	-1
 447              		.type	u8x8_d_ssd1306_128x32_univision_powersave1_seq, %object
 448              		.size	u8x8_d_ssd1306_128x32_univision_powersave1_seq, 5
 449              	u8x8_d_ssd1306_128x32_univision_powersave1_seq:
ARM GAS  C:\Users\jesse\AppData\Local\Temp\ccijhLEy.s 			page 15


 450 003a 18       		.byte	24
 451 003b 15       		.byte	21
 452 003c AE       		.byte	-82
 453 003d 19       		.byte	25
 454 003e FF       		.byte	-1
 455              		.type	u8x8_d_ssd1306_128x32_univision_flip0_seq, %object
 456              		.size	u8x8_d_ssd1306_128x32_univision_flip0_seq, 7
 457              	u8x8_d_ssd1306_128x32_univision_flip0_seq:
 458 003f 18       		.byte	24
 459 0040 15       		.byte	21
 460 0041 A1       		.byte	-95
 461 0042 15       		.byte	21
 462 0043 C8       		.byte	-56
 463 0044 19       		.byte	25
 464 0045 FF       		.byte	-1
 465              		.type	u8x8_d_ssd1306_128x32_univision_flip1_seq, %object
 466              		.size	u8x8_d_ssd1306_128x32_univision_flip1_seq, 7
 467              	u8x8_d_ssd1306_128x32_univision_flip1_seq:
 468 0046 18       		.byte	24
 469 0047 15       		.byte	21
 470 0048 A0       		.byte	-96
 471 0049 15       		.byte	21
 472 004a C0       		.byte	-64
 473 004b 19       		.byte	25
 474 004c FF       		.byte	-1
 475 004d 000000   		.space	3
 476              		.type	u8x8_ssd1306_128x32_univision_display_info, %object
 477              		.size	u8x8_ssd1306_128x32_univision_display_info, 24
 478              	u8x8_ssd1306_128x32_univision_display_info:
 479 0050 00       		.byte	0
 480 0051 01       		.byte	1
 481 0052 14       		.byte	20
 482 0053 0A       		.byte	10
 483 0054 64       		.byte	100
 484 0055 64       		.byte	100
 485 0056 32       		.byte	50
 486 0057 32       		.byte	50
 487 0058 00127A00 		.word	8000000
 488 005c 00       		.byte	0
 489 005d 04       		.byte	4
 490 005e 28       		.byte	40
 491 005f 96       		.byte	-106
 492 0060 10       		.byte	16
 493 0061 04       		.byte	4
 494 0062 00       		.byte	0
 495 0063 00       		.byte	0
 496 0064 8000     		.short	128
 497 0066 2000     		.short	32
 498              		.type	u8x8_ssd1306_128x32_winstar_display_info, %object
 499              		.size	u8x8_ssd1306_128x32_winstar_display_info, 24
 500              	u8x8_ssd1306_128x32_winstar_display_info:
 501 0068 00       		.byte	0
 502 0069 01       		.byte	1
 503 006a 14       		.byte	20
 504 006b 0A       		.byte	10
 505 006c 64       		.byte	100
 506 006d 64       		.byte	100
ARM GAS  C:\Users\jesse\AppData\Local\Temp\ccijhLEy.s 			page 16


 507 006e 32       		.byte	50
 508 006f 32       		.byte	50
 509 0070 00127A00 		.word	8000000
 510 0074 00       		.byte	0
 511 0075 04       		.byte	4
 512 0076 28       		.byte	40
 513 0077 96       		.byte	-106
 514 0078 10       		.byte	16
 515 0079 04       		.byte	4
 516 007a 7D       		.byte	125
 517 007b 7D       		.byte	125
 518 007c 8000     		.short	128
 519 007e 2000     		.short	32
 520              		.type	u8x8_d_sh1106_128x32_visionox_display_info, %object
 521              		.size	u8x8_d_sh1106_128x32_visionox_display_info, 24
 522              	u8x8_d_sh1106_128x32_visionox_display_info:
 523 0080 00       		.byte	0
 524 0081 01       		.byte	1
 525 0082 14       		.byte	20
 526 0083 0A       		.byte	10
 527 0084 64       		.byte	100
 528 0085 64       		.byte	100
 529 0086 32       		.byte	50
 530 0087 32       		.byte	50
 531 0088 00093D00 		.word	4000000
 532 008c 00       		.byte	0
 533 008d 04       		.byte	4
 534 008e 28       		.byte	40
 535 008f 96       		.byte	-106
 536 0090 10       		.byte	16
 537 0091 04       		.byte	4
 538 0092 02       		.byte	2
 539 0093 02       		.byte	2
 540 0094 8000     		.short	128
 541 0096 2000     		.short	32
 542              		.type	u8x8_d_sh1106_128x32_visionox_init_seq, %object
 543              		.size	u8x8_d_sh1106_128x32_visionox_init_seq, 49
 544              	u8x8_d_sh1106_128x32_visionox_init_seq:
 545 0098 18       		.byte	24
 546 0099 15       		.byte	21
 547 009a AE       		.byte	-82
 548 009b 15       		.byte	21
 549 009c D5       		.byte	-43
 550 009d 16       		.byte	22
 551 009e 91       		.byte	-111
 552 009f 15       		.byte	21
 553 00a0 A8       		.byte	-88
 554 00a1 16       		.byte	22
 555 00a2 1F       		.byte	31
 556 00a3 15       		.byte	21
 557 00a4 D3       		.byte	-45
 558 00a5 16       		.byte	22
 559 00a6 10       		.byte	16
 560 00a7 15       		.byte	21
 561 00a8 40       		.byte	64
 562 00a9 15       		.byte	21
 563 00aa AD       		.byte	-83
ARM GAS  C:\Users\jesse\AppData\Local\Temp\ccijhLEy.s 			page 17


 564 00ab 16       		.byte	22
 565 00ac 8B       		.byte	-117
 566 00ad 15       		.byte	21
 567 00ae 33       		.byte	51
 568 00af 15       		.byte	21
 569 00b0 A1       		.byte	-95
 570 00b1 15       		.byte	21
 571 00b2 C8       		.byte	-56
 572 00b3 15       		.byte	21
 573 00b4 DA       		.byte	-38
 574 00b5 16       		.byte	22
 575 00b6 12       		.byte	18
 576 00b7 15       		.byte	21
 577 00b8 81       		.byte	-127
 578 00b9 16       		.byte	22
 579 00ba AF       		.byte	-81
 580 00bb 15       		.byte	21
 581 00bc D9       		.byte	-39
 582 00bd 16       		.byte	22
 583 00be 1F       		.byte	31
 584 00bf 15       		.byte	21
 585 00c0 DB       		.byte	-37
 586 00c1 16       		.byte	22
 587 00c2 25       		.byte	37
 588 00c3 15       		.byte	21
 589 00c4 A4       		.byte	-92
 590 00c5 15       		.byte	21
 591 00c6 A6       		.byte	-90
 592 00c7 19       		.byte	25
 593 00c8 FF       		.byte	-1
 594              		.text
 595              	.Letext0:
 596              		.file 2 "c:\\program files (x86)\\cypress\\psoc creator\\4.4\\psoc creator\\import\\gnu\\arm\\5.4.
 597              		.file 3 "c:\\program files (x86)\\cypress\\psoc creator\\4.4\\psoc creator\\import\\gnu\\arm\\5.4.
 598              		.file 4 "..\\..\\..\\u8g2\\u8g2\\csrc\\u8x8.h"