ARM GAS  C:\Users\jesse\AppData\Local\Temp\cc105cPm.s 			page 1


   1              		.syntax unified
   2              		.cpu cortex-m3
   3              		.fpu softvfp
   4              		.eabi_attribute 20, 1
   5              		.eabi_attribute 21, 1
   6              		.eabi_attribute 23, 3
   7              		.eabi_attribute 24, 1
   8              		.eabi_attribute 25, 1
   9              		.eabi_attribute 26, 1
  10              		.eabi_attribute 30, 4
  11              		.eabi_attribute 34, 1
  12              		.eabi_attribute 18, 4
  13              		.thumb
  14              		.syntax unified
  15              		.file	"u8x8_d_pcf8814_hx1230.c"
  16              		.text
  17              	.Ltext0:
  18              		.cfi_sections	.debug_frame
  19              		.section	.text.u8x8_d_hx1230_96x68,"ax",%progbits
  20              		.align	1
  21              		.global	u8x8_d_hx1230_96x68
  22              		.thumb
  23              		.thumb_func
  24              		.type	u8x8_d_hx1230_96x68, %function
  25              	u8x8_d_hx1230_96x68:
  26              	.LFB1:
  27              		.file 1 "..\\..\\..\\u8g2\\u8g2\\csrc\\u8x8_d_pcf8814_hx1230.c"
   1:..\..\..\u8g2\u8g2\csrc/u8x8_d_pcf8814_hx1230.c **** /*
   2:..\..\..\u8g2\u8g2\csrc/u8x8_d_pcf8814_hx1230.c **** 
   3:..\..\..\u8g2\u8g2\csrc/u8x8_d_pcf8814_hx1230.c ****   u8x8_d_pcf8814_hc1230.c
   4:..\..\..\u8g2\u8g2\csrc/u8x8_d_pcf8814_hx1230.c ****   
   5:..\..\..\u8g2\u8g2\csrc/u8x8_d_pcf8814_hx1230.c ****   pcf8814: 65x96
   6:..\..\..\u8g2\u8g2\csrc/u8x8_d_pcf8814_hx1230.c ****   hx1230: 68x96
   7:..\..\..\u8g2\u8g2\csrc/u8x8_d_pcf8814_hx1230.c ****   
   8:..\..\..\u8g2\u8g2\csrc/u8x8_d_pcf8814_hx1230.c ****   pcf8814 and hc1230 are almost identical.
   9:..\..\..\u8g2\u8g2\csrc/u8x8_d_pcf8814_hx1230.c **** 
  10:..\..\..\u8g2\u8g2\csrc/u8x8_d_pcf8814_hx1230.c ****   Universal 8bit Graphics Library (https://github.com/olikraus/u8g2/)
  11:..\..\..\u8g2\u8g2\csrc/u8x8_d_pcf8814_hx1230.c **** 
  12:..\..\..\u8g2\u8g2\csrc/u8x8_d_pcf8814_hx1230.c ****   Copyright (c) 2017, olikraus@gmail.com
  13:..\..\..\u8g2\u8g2\csrc/u8x8_d_pcf8814_hx1230.c ****   All rights reserved.
  14:..\..\..\u8g2\u8g2\csrc/u8x8_d_pcf8814_hx1230.c **** 
  15:..\..\..\u8g2\u8g2\csrc/u8x8_d_pcf8814_hx1230.c ****   Redistribution and use in source and binary forms, with or without modification, 
  16:..\..\..\u8g2\u8g2\csrc/u8x8_d_pcf8814_hx1230.c ****   are permitted provided that the following conditions are met:
  17:..\..\..\u8g2\u8g2\csrc/u8x8_d_pcf8814_hx1230.c **** 
  18:..\..\..\u8g2\u8g2\csrc/u8x8_d_pcf8814_hx1230.c ****   * Redistributions of source code must retain the above copyright notice, this list 
  19:..\..\..\u8g2\u8g2\csrc/u8x8_d_pcf8814_hx1230.c ****     of conditions and the following disclaimer.
  20:..\..\..\u8g2\u8g2\csrc/u8x8_d_pcf8814_hx1230.c ****     
  21:..\..\..\u8g2\u8g2\csrc/u8x8_d_pcf8814_hx1230.c ****   * Redistributions in binary form must reproduce the above copyright notice, this 
  22:..\..\..\u8g2\u8g2\csrc/u8x8_d_pcf8814_hx1230.c ****     list of conditions and the following disclaimer in the documentation and/or other 
  23:..\..\..\u8g2\u8g2\csrc/u8x8_d_pcf8814_hx1230.c ****     materials provided with the distribution.
  24:..\..\..\u8g2\u8g2\csrc/u8x8_d_pcf8814_hx1230.c **** 
  25:..\..\..\u8g2\u8g2\csrc/u8x8_d_pcf8814_hx1230.c ****   THIS SOFTWARE IS PROVIDED BY THE COPYRIGHT HOLDERS AND 
  26:..\..\..\u8g2\u8g2\csrc/u8x8_d_pcf8814_hx1230.c ****   CONTRIBUTORS "AS IS" AND ANY EXPRESS OR IMPLIED WARRANTIES, 
  27:..\..\..\u8g2\u8g2\csrc/u8x8_d_pcf8814_hx1230.c ****   INCLUDING, BUT NOT LIMITED TO, THE IMPLIED WARRANTIES OF 
  28:..\..\..\u8g2\u8g2\csrc/u8x8_d_pcf8814_hx1230.c ****   MERCHANTABILITY AND FITNESS FOR A PARTICULAR PURPOSE ARE 
  29:..\..\..\u8g2\u8g2\csrc/u8x8_d_pcf8814_hx1230.c ****   DISCLAIMED. IN NO EVENT SHALL THE COPYRIGHT HOLDER OR 
  30:..\..\..\u8g2\u8g2\csrc/u8x8_d_pcf8814_hx1230.c ****   CONTRIBUTORS BE LIABLE FOR ANY DIRECT, INDIRECT, INCIDENTAL, 
ARM GAS  C:\Users\jesse\AppData\Local\Temp\cc105cPm.s 			page 2


  31:..\..\..\u8g2\u8g2\csrc/u8x8_d_pcf8814_hx1230.c ****   SPECIAL, EXEMPLARY, OR CONSEQUENTIAL DAMAGES (INCLUDING, BUT 
  32:..\..\..\u8g2\u8g2\csrc/u8x8_d_pcf8814_hx1230.c ****   NOT LIMITED TO, PROCUREMENT OF SUBSTITUTE GOODS OR SERVICES; 
  33:..\..\..\u8g2\u8g2\csrc/u8x8_d_pcf8814_hx1230.c ****   LOSS OF USE, DATA, OR PROFITS; OR BUSINESS INTERRUPTION) HOWEVER 
  34:..\..\..\u8g2\u8g2\csrc/u8x8_d_pcf8814_hx1230.c ****   CAUSED AND ON ANY THEORY OF LIABILITY, WHETHER IN CONTRACT, 
  35:..\..\..\u8g2\u8g2\csrc/u8x8_d_pcf8814_hx1230.c ****   STRICT LIABILITY, OR TORT (INCLUDING NEGLIGENCE OR OTHERWISE) 
  36:..\..\..\u8g2\u8g2\csrc/u8x8_d_pcf8814_hx1230.c ****   ARISING IN ANY WAY OUT OF THE USE OF THIS SOFTWARE, EVEN IF 
  37:..\..\..\u8g2\u8g2\csrc/u8x8_d_pcf8814_hx1230.c ****   ADVISED OF THE POSSIBILITY OF SUCH DAMAGE.  
  38:..\..\..\u8g2\u8g2\csrc/u8x8_d_pcf8814_hx1230.c ****   
  39:..\..\..\u8g2\u8g2\csrc/u8x8_d_pcf8814_hx1230.c **** */
  40:..\..\..\u8g2\u8g2\csrc/u8x8_d_pcf8814_hx1230.c **** 
  41:..\..\..\u8g2\u8g2\csrc/u8x8_d_pcf8814_hx1230.c **** 
  42:..\..\..\u8g2\u8g2\csrc/u8x8_d_pcf8814_hx1230.c **** #include "u8x8.h"
  43:..\..\..\u8g2\u8g2\csrc/u8x8_d_pcf8814_hx1230.c **** 
  44:..\..\..\u8g2\u8g2\csrc/u8x8_d_pcf8814_hx1230.c **** 
  45:..\..\..\u8g2\u8g2\csrc/u8x8_d_pcf8814_hx1230.c **** 
  46:..\..\..\u8g2\u8g2\csrc/u8x8_d_pcf8814_hx1230.c **** static const uint8_t u8x8_d_hx1230_96x68_init_seq[] = {
  47:..\..\..\u8g2\u8g2\csrc/u8x8_d_pcf8814_hx1230.c ****     
  48:..\..\..\u8g2\u8g2\csrc/u8x8_d_pcf8814_hx1230.c ****   U8X8_START_TRANSFER(),             	/* enable chip, delay is part of the transfer start */
  49:..\..\..\u8g2\u8g2\csrc/u8x8_d_pcf8814_hx1230.c ****   
  50:..\..\..\u8g2\u8g2\csrc/u8x8_d_pcf8814_hx1230.c ****   U8X8_C(0x0ae),		                /* display off */
  51:..\..\..\u8g2\u8g2\csrc/u8x8_d_pcf8814_hx1230.c ****   U8X8_C(0x020),		                /* power off */
  52:..\..\..\u8g2\u8g2\csrc/u8x8_d_pcf8814_hx1230.c ****   U8X8_C(0x080),				/* contrast setting, 0..31, set to 0 */
  53:..\..\..\u8g2\u8g2\csrc/u8x8_d_pcf8814_hx1230.c ****   U8X8_C(0x0a6),		                /* not inverted display */
  54:..\..\..\u8g2\u8g2\csrc/u8x8_d_pcf8814_hx1230.c ****   U8X8_C(0x0a4),		                /* normal display mode */
  55:..\..\..\u8g2\u8g2\csrc/u8x8_d_pcf8814_hx1230.c **** 
  56:..\..\..\u8g2\u8g2\csrc/u8x8_d_pcf8814_hx1230.c ****   U8X8_C(0x0a0),		                /* */
  57:..\..\..\u8g2\u8g2\csrc/u8x8_d_pcf8814_hx1230.c ****   U8X8_C(0x0c0),		                /* */
  58:..\..\..\u8g2\u8g2\csrc/u8x8_d_pcf8814_hx1230.c ****   
  59:..\..\..\u8g2\u8g2\csrc/u8x8_d_pcf8814_hx1230.c ****   U8X8_C(0x040),		                /* start at scanline 0 */
  60:..\..\..\u8g2\u8g2\csrc/u8x8_d_pcf8814_hx1230.c ****     
  61:..\..\..\u8g2\u8g2\csrc/u8x8_d_pcf8814_hx1230.c ****   U8X8_END_TRANSFER(),             	/* disable chip */
  62:..\..\..\u8g2\u8g2\csrc/u8x8_d_pcf8814_hx1230.c ****   U8X8_END()             			/* end of sequence */
  63:..\..\..\u8g2\u8g2\csrc/u8x8_d_pcf8814_hx1230.c **** };
  64:..\..\..\u8g2\u8g2\csrc/u8x8_d_pcf8814_hx1230.c **** 
  65:..\..\..\u8g2\u8g2\csrc/u8x8_d_pcf8814_hx1230.c **** static const uint8_t u8x8_d_hx1230_96x68_powersave0_seq[] = {
  66:..\..\..\u8g2\u8g2\csrc/u8x8_d_pcf8814_hx1230.c ****   U8X8_START_TRANSFER(),             	/* enable chip, delay is part of the transfer start */
  67:..\..\..\u8g2\u8g2\csrc/u8x8_d_pcf8814_hx1230.c ****   U8X8_C(0x02f),		                /* power on */
  68:..\..\..\u8g2\u8g2\csrc/u8x8_d_pcf8814_hx1230.c ****   U8X8_C(0x0af),		                /* display on */
  69:..\..\..\u8g2\u8g2\csrc/u8x8_d_pcf8814_hx1230.c ****   U8X8_END_TRANSFER(),             	/* disable chip */
  70:..\..\..\u8g2\u8g2\csrc/u8x8_d_pcf8814_hx1230.c ****   U8X8_END()             			/* end of sequence */
  71:..\..\..\u8g2\u8g2\csrc/u8x8_d_pcf8814_hx1230.c **** };
  72:..\..\..\u8g2\u8g2\csrc/u8x8_d_pcf8814_hx1230.c **** 
  73:..\..\..\u8g2\u8g2\csrc/u8x8_d_pcf8814_hx1230.c **** static const uint8_t u8x8_d_hx1230_96x68_powersave1_seq[] = {
  74:..\..\..\u8g2\u8g2\csrc/u8x8_d_pcf8814_hx1230.c ****   U8X8_START_TRANSFER(),             	/* enable chip, delay is part of the transfer start */
  75:..\..\..\u8g2\u8g2\csrc/u8x8_d_pcf8814_hx1230.c ****   U8X8_C(0x0ae),           		/* display off */
  76:..\..\..\u8g2\u8g2\csrc/u8x8_d_pcf8814_hx1230.c ****   U8X8_C(0x0a5),	     		/* All pixels on = powersave */
  77:..\..\..\u8g2\u8g2\csrc/u8x8_d_pcf8814_hx1230.c ****   U8X8_END_TRANSFER(),             	/* disable chip */
  78:..\..\..\u8g2\u8g2\csrc/u8x8_d_pcf8814_hx1230.c ****   U8X8_END()             			/* end of sequence */
  79:..\..\..\u8g2\u8g2\csrc/u8x8_d_pcf8814_hx1230.c **** };
  80:..\..\..\u8g2\u8g2\csrc/u8x8_d_pcf8814_hx1230.c **** 
  81:..\..\..\u8g2\u8g2\csrc/u8x8_d_pcf8814_hx1230.c **** static const uint8_t u8x8_d_hx1230_96x68_flip0_seq[] = {
  82:..\..\..\u8g2\u8g2\csrc/u8x8_d_pcf8814_hx1230.c ****   U8X8_START_TRANSFER(),             	/* enable chip, delay is part of the transfer start */
  83:..\..\..\u8g2\u8g2\csrc/u8x8_d_pcf8814_hx1230.c ****   U8X8_C(0x0a0),		                /* */
  84:..\..\..\u8g2\u8g2\csrc/u8x8_d_pcf8814_hx1230.c ****   U8X8_C(0x0c0),		                /* */
  85:..\..\..\u8g2\u8g2\csrc/u8x8_d_pcf8814_hx1230.c ****   U8X8_END_TRANSFER(),             	/* disable chip */
  86:..\..\..\u8g2\u8g2\csrc/u8x8_d_pcf8814_hx1230.c ****   U8X8_END()             			/* end of sequence */
  87:..\..\..\u8g2\u8g2\csrc/u8x8_d_pcf8814_hx1230.c **** };
ARM GAS  C:\Users\jesse\AppData\Local\Temp\cc105cPm.s 			page 3


  88:..\..\..\u8g2\u8g2\csrc/u8x8_d_pcf8814_hx1230.c **** 
  89:..\..\..\u8g2\u8g2\csrc/u8x8_d_pcf8814_hx1230.c **** static const uint8_t u8x8_d_hx1230_96x68_flip1_seq[] = {
  90:..\..\..\u8g2\u8g2\csrc/u8x8_d_pcf8814_hx1230.c ****   U8X8_START_TRANSFER(),             	/* enable chip, delay is part of the transfer start */
  91:..\..\..\u8g2\u8g2\csrc/u8x8_d_pcf8814_hx1230.c ****   U8X8_C(0x0a1),		                /* */
  92:..\..\..\u8g2\u8g2\csrc/u8x8_d_pcf8814_hx1230.c ****   U8X8_C(0x0c8),		                /* */
  93:..\..\..\u8g2\u8g2\csrc/u8x8_d_pcf8814_hx1230.c ****   U8X8_END_TRANSFER(),             	/* disable chip */
  94:..\..\..\u8g2\u8g2\csrc/u8x8_d_pcf8814_hx1230.c ****   U8X8_END()             			/* end of sequence */
  95:..\..\..\u8g2\u8g2\csrc/u8x8_d_pcf8814_hx1230.c **** };
  96:..\..\..\u8g2\u8g2\csrc/u8x8_d_pcf8814_hx1230.c **** 
  97:..\..\..\u8g2\u8g2\csrc/u8x8_d_pcf8814_hx1230.c **** 
  98:..\..\..\u8g2\u8g2\csrc/u8x8_d_pcf8814_hx1230.c **** static uint8_t u8x8_d_hx1230_96x68_generic(u8x8_t *u8x8, uint8_t msg, uint8_t arg_int, void *arg_pt
  99:..\..\..\u8g2\u8g2\csrc/u8x8_d_pcf8814_hx1230.c **** {
 100:..\..\..\u8g2\u8g2\csrc/u8x8_d_pcf8814_hx1230.c ****   uint8_t x, c;
 101:..\..\..\u8g2\u8g2\csrc/u8x8_d_pcf8814_hx1230.c ****   uint8_t *ptr;
 102:..\..\..\u8g2\u8g2\csrc/u8x8_d_pcf8814_hx1230.c ****   switch(msg)
 103:..\..\..\u8g2\u8g2\csrc/u8x8_d_pcf8814_hx1230.c ****   {
 104:..\..\..\u8g2\u8g2\csrc/u8x8_d_pcf8814_hx1230.c ****     /* handled by the calling function
 105:..\..\..\u8g2\u8g2\csrc/u8x8_d_pcf8814_hx1230.c ****     case U8X8_MSG_DISPLAY_SETUP_MEMORY:
 106:..\..\..\u8g2\u8g2\csrc/u8x8_d_pcf8814_hx1230.c ****       u8x8_d_helper_display_setup_memory(u8x8, &u8x8_hx1230_96x68_display_info);
 107:..\..\..\u8g2\u8g2\csrc/u8x8_d_pcf8814_hx1230.c ****       break;
 108:..\..\..\u8g2\u8g2\csrc/u8x8_d_pcf8814_hx1230.c ****     */
 109:..\..\..\u8g2\u8g2\csrc/u8x8_d_pcf8814_hx1230.c ****     case U8X8_MSG_DISPLAY_INIT:
 110:..\..\..\u8g2\u8g2\csrc/u8x8_d_pcf8814_hx1230.c ****       u8x8_d_helper_display_init(u8x8);
 111:..\..\..\u8g2\u8g2\csrc/u8x8_d_pcf8814_hx1230.c ****       u8x8_cad_SendSequence(u8x8, u8x8_d_hx1230_96x68_init_seq);    
 112:..\..\..\u8g2\u8g2\csrc/u8x8_d_pcf8814_hx1230.c ****       break;
 113:..\..\..\u8g2\u8g2\csrc/u8x8_d_pcf8814_hx1230.c ****     case U8X8_MSG_DISPLAY_SET_POWER_SAVE:
 114:..\..\..\u8g2\u8g2\csrc/u8x8_d_pcf8814_hx1230.c ****       if ( arg_int == 0 )
 115:..\..\..\u8g2\u8g2\csrc/u8x8_d_pcf8814_hx1230.c **** 	u8x8_cad_SendSequence(u8x8, u8x8_d_hx1230_96x68_powersave0_seq);
 116:..\..\..\u8g2\u8g2\csrc/u8x8_d_pcf8814_hx1230.c ****       else
 117:..\..\..\u8g2\u8g2\csrc/u8x8_d_pcf8814_hx1230.c **** 	u8x8_cad_SendSequence(u8x8, u8x8_d_hx1230_96x68_powersave1_seq);
 118:..\..\..\u8g2\u8g2\csrc/u8x8_d_pcf8814_hx1230.c ****       break;
 119:..\..\..\u8g2\u8g2\csrc/u8x8_d_pcf8814_hx1230.c ****     case U8X8_MSG_DISPLAY_SET_FLIP_MODE:
 120:..\..\..\u8g2\u8g2\csrc/u8x8_d_pcf8814_hx1230.c ****       if ( arg_int == 0 )
 121:..\..\..\u8g2\u8g2\csrc/u8x8_d_pcf8814_hx1230.c ****       {
 122:..\..\..\u8g2\u8g2\csrc/u8x8_d_pcf8814_hx1230.c **** 	u8x8_cad_SendSequence(u8x8, u8x8_d_hx1230_96x68_flip0_seq);
 123:..\..\..\u8g2\u8g2\csrc/u8x8_d_pcf8814_hx1230.c **** 	u8x8->x_offset = u8x8->display_info->default_x_offset;
 124:..\..\..\u8g2\u8g2\csrc/u8x8_d_pcf8814_hx1230.c ****       }
 125:..\..\..\u8g2\u8g2\csrc/u8x8_d_pcf8814_hx1230.c ****       else
 126:..\..\..\u8g2\u8g2\csrc/u8x8_d_pcf8814_hx1230.c ****       {
 127:..\..\..\u8g2\u8g2\csrc/u8x8_d_pcf8814_hx1230.c **** 	u8x8_cad_SendSequence(u8x8, u8x8_d_hx1230_96x68_flip1_seq);
 128:..\..\..\u8g2\u8g2\csrc/u8x8_d_pcf8814_hx1230.c **** 	u8x8->x_offset = u8x8->display_info->flipmode_x_offset;
 129:..\..\..\u8g2\u8g2\csrc/u8x8_d_pcf8814_hx1230.c ****       }
 130:..\..\..\u8g2\u8g2\csrc/u8x8_d_pcf8814_hx1230.c ****       break;
 131:..\..\..\u8g2\u8g2\csrc/u8x8_d_pcf8814_hx1230.c **** #ifdef U8X8_WITH_SET_CONTRAST
 132:..\..\..\u8g2\u8g2\csrc/u8x8_d_pcf8814_hx1230.c ****     case U8X8_MSG_DISPLAY_SET_CONTRAST:
 133:..\..\..\u8g2\u8g2\csrc/u8x8_d_pcf8814_hx1230.c ****       u8x8_cad_StartTransfer(u8x8);
 134:..\..\..\u8g2\u8g2\csrc/u8x8_d_pcf8814_hx1230.c ****       u8x8_cad_SendCmd(u8x8, (arg_int>>3)|0x80 );	/* 0..31 for contrast */
 135:..\..\..\u8g2\u8g2\csrc/u8x8_d_pcf8814_hx1230.c ****       u8x8_cad_EndTransfer(u8x8);
 136:..\..\..\u8g2\u8g2\csrc/u8x8_d_pcf8814_hx1230.c ****       break;
 137:..\..\..\u8g2\u8g2\csrc/u8x8_d_pcf8814_hx1230.c **** #endif
 138:..\..\..\u8g2\u8g2\csrc/u8x8_d_pcf8814_hx1230.c ****     case U8X8_MSG_DISPLAY_DRAW_TILE:
 139:..\..\..\u8g2\u8g2\csrc/u8x8_d_pcf8814_hx1230.c ****       u8x8_cad_StartTransfer(u8x8);
 140:..\..\..\u8g2\u8g2\csrc/u8x8_d_pcf8814_hx1230.c ****       x = ((u8x8_tile_t *)arg_ptr)->x_pos;    
 141:..\..\..\u8g2\u8g2\csrc/u8x8_d_pcf8814_hx1230.c ****       x *= 8;
 142:..\..\..\u8g2\u8g2\csrc/u8x8_d_pcf8814_hx1230.c ****       x += u8x8->x_offset;
 143:..\..\..\u8g2\u8g2\csrc/u8x8_d_pcf8814_hx1230.c ****     
 144:..\..\..\u8g2\u8g2\csrc/u8x8_d_pcf8814_hx1230.c ****       u8x8_cad_SendCmd(u8x8, x&15);
ARM GAS  C:\Users\jesse\AppData\Local\Temp\cc105cPm.s 			page 4


 145:..\..\..\u8g2\u8g2\csrc/u8x8_d_pcf8814_hx1230.c ****       u8x8_cad_SendCmd(u8x8, 0x010 | (x>>4));
 146:..\..\..\u8g2\u8g2\csrc/u8x8_d_pcf8814_hx1230.c ****       u8x8_cad_SendCmd(u8x8, 0x0b0 | ((u8x8_tile_t *)arg_ptr)->y_pos);
 147:..\..\..\u8g2\u8g2\csrc/u8x8_d_pcf8814_hx1230.c ****       
 148:..\..\..\u8g2\u8g2\csrc/u8x8_d_pcf8814_hx1230.c ****       do
 149:..\..\..\u8g2\u8g2\csrc/u8x8_d_pcf8814_hx1230.c ****       {
 150:..\..\..\u8g2\u8g2\csrc/u8x8_d_pcf8814_hx1230.c **** 	c = ((u8x8_tile_t *)arg_ptr)->cnt;
 151:..\..\..\u8g2\u8g2\csrc/u8x8_d_pcf8814_hx1230.c **** 	ptr = ((u8x8_tile_t *)arg_ptr)->tile_ptr;
 152:..\..\..\u8g2\u8g2\csrc/u8x8_d_pcf8814_hx1230.c **** 	u8x8_cad_SendData(u8x8, c*8, ptr); 	/* note: SendData can not handle more than 255 bytes */
 153:..\..\..\u8g2\u8g2\csrc/u8x8_d_pcf8814_hx1230.c **** 	arg_int--;
 154:..\..\..\u8g2\u8g2\csrc/u8x8_d_pcf8814_hx1230.c ****       } while( arg_int > 0 );
 155:..\..\..\u8g2\u8g2\csrc/u8x8_d_pcf8814_hx1230.c ****       
 156:..\..\..\u8g2\u8g2\csrc/u8x8_d_pcf8814_hx1230.c ****       u8x8_cad_EndTransfer(u8x8);
 157:..\..\..\u8g2\u8g2\csrc/u8x8_d_pcf8814_hx1230.c ****       break;
 158:..\..\..\u8g2\u8g2\csrc/u8x8_d_pcf8814_hx1230.c ****     default:
 159:..\..\..\u8g2\u8g2\csrc/u8x8_d_pcf8814_hx1230.c ****       return 0;
 160:..\..\..\u8g2\u8g2\csrc/u8x8_d_pcf8814_hx1230.c ****   }
 161:..\..\..\u8g2\u8g2\csrc/u8x8_d_pcf8814_hx1230.c ****   return 1;
 162:..\..\..\u8g2\u8g2\csrc/u8x8_d_pcf8814_hx1230.c **** }
 163:..\..\..\u8g2\u8g2\csrc/u8x8_d_pcf8814_hx1230.c **** 
 164:..\..\..\u8g2\u8g2\csrc/u8x8_d_pcf8814_hx1230.c **** static const u8x8_display_info_t u8x8_hx1230_96x68_display_info =
 165:..\..\..\u8g2\u8g2\csrc/u8x8_d_pcf8814_hx1230.c **** {
 166:..\..\..\u8g2\u8g2\csrc/u8x8_d_pcf8814_hx1230.c ****   /* chip_enable_level = */ 0,
 167:..\..\..\u8g2\u8g2\csrc/u8x8_d_pcf8814_hx1230.c ****   /* chip_disable_level = */ 1,
 168:..\..\..\u8g2\u8g2\csrc/u8x8_d_pcf8814_hx1230.c ****   
 169:..\..\..\u8g2\u8g2\csrc/u8x8_d_pcf8814_hx1230.c ****   /* post_chip_enable_wait_ns = */ 100,
 170:..\..\..\u8g2\u8g2\csrc/u8x8_d_pcf8814_hx1230.c ****   /* pre_chip_disable_wait_ns = */ 100,
 171:..\..\..\u8g2\u8g2\csrc/u8x8_d_pcf8814_hx1230.c ****   /* reset_pulse_width_ms = */ 100, 
 172:..\..\..\u8g2\u8g2\csrc/u8x8_d_pcf8814_hx1230.c ****   /* post_reset_wait_ms = */ 100, 
 173:..\..\..\u8g2\u8g2\csrc/u8x8_d_pcf8814_hx1230.c ****   /* sda_setup_time_ns = */ 100,	
 174:..\..\..\u8g2\u8g2\csrc/u8x8_d_pcf8814_hx1230.c ****   /* sck_pulse_width_ns = */ 100,	
 175:..\..\..\u8g2\u8g2\csrc/u8x8_d_pcf8814_hx1230.c ****   /* sck_clock_hz = */ 4000000UL,	/* since Arduino 1.6.0, the SPI bus speed in Hz. Should be  10000
 176:..\..\..\u8g2\u8g2\csrc/u8x8_d_pcf8814_hx1230.c ****   /* spi_mode = */ 0,		/* active high, rising edge */
 177:..\..\..\u8g2\u8g2\csrc/u8x8_d_pcf8814_hx1230.c ****   /* i2c_bus_clock_100kHz = */ 4,
 178:..\..\..\u8g2\u8g2\csrc/u8x8_d_pcf8814_hx1230.c ****   /* data_setup_time_ns = */ 40,
 179:..\..\..\u8g2\u8g2\csrc/u8x8_d_pcf8814_hx1230.c ****   /* write_pulse_width_ns = */ 150,	
 180:..\..\..\u8g2\u8g2\csrc/u8x8_d_pcf8814_hx1230.c ****   /* tile_width = */ 12,
 181:..\..\..\u8g2\u8g2\csrc/u8x8_d_pcf8814_hx1230.c ****   /* tile_hight = */ 9,
 182:..\..\..\u8g2\u8g2\csrc/u8x8_d_pcf8814_hx1230.c ****   /* default_x_offset = */ 0,
 183:..\..\..\u8g2\u8g2\csrc/u8x8_d_pcf8814_hx1230.c ****   /* flipmode_x_offset = */ 0,
 184:..\..\..\u8g2\u8g2\csrc/u8x8_d_pcf8814_hx1230.c ****   /* pixel_width = */ 96,
 185:..\..\..\u8g2\u8g2\csrc/u8x8_d_pcf8814_hx1230.c ****   /* pixel_height = */ 68
 186:..\..\..\u8g2\u8g2\csrc/u8x8_d_pcf8814_hx1230.c **** };
 187:..\..\..\u8g2\u8g2\csrc/u8x8_d_pcf8814_hx1230.c **** 
 188:..\..\..\u8g2\u8g2\csrc/u8x8_d_pcf8814_hx1230.c **** uint8_t u8x8_d_hx1230_96x68(u8x8_t *u8x8, uint8_t msg, uint8_t arg_int, void *arg_ptr)
 189:..\..\..\u8g2\u8g2\csrc/u8x8_d_pcf8814_hx1230.c **** {
  28              		.loc 1 189 0
  29              		.cfi_startproc
  30              		@ args = 0, pretend = 0, frame = 0
  31              		@ frame_needed = 0, uses_anonymous_args = 0
  32              	.LVL0:
 190:..\..\..\u8g2\u8g2\csrc/u8x8_d_pcf8814_hx1230.c ****     if ( msg == U8X8_MSG_DISPLAY_SETUP_MEMORY )
  33              		.loc 1 190 0
  34 0000 0929     		cmp	r1, #9
 189:..\..\..\u8g2\u8g2\csrc/u8x8_d_pcf8814_hx1230.c ****     if ( msg == U8X8_MSG_DISPLAY_SETUP_MEMORY )
  35              		.loc 1 189 0
  36 0002 F8B5     		push	{r3, r4, r5, r6, r7, lr}
  37              		.cfi_def_cfa_offset 24
ARM GAS  C:\Users\jesse\AppData\Local\Temp\cc105cPm.s 			page 5


  38              		.cfi_offset 3, -24
  39              		.cfi_offset 4, -20
  40              		.cfi_offset 5, -16
  41              		.cfi_offset 6, -12
  42              		.cfi_offset 7, -8
  43              		.cfi_offset 14, -4
 189:..\..\..\u8g2\u8g2\csrc/u8x8_d_pcf8814_hx1230.c ****     if ( msg == U8X8_MSG_DISPLAY_SETUP_MEMORY )
  44              		.loc 1 189 0
  45 0004 0446     		mov	r4, r0
  46 0006 1546     		mov	r5, r2
  47 0008 1F46     		mov	r7, r3
  48              		.loc 1 190 0
  49 000a 03D1     		bne	.L2
 191:..\..\..\u8g2\u8g2\csrc/u8x8_d_pcf8814_hx1230.c ****     {
 192:..\..\..\u8g2\u8g2\csrc/u8x8_d_pcf8814_hx1230.c ****       u8x8_d_helper_display_setup_memory(u8x8, &u8x8_hx1230_96x68_display_info);
  50              		.loc 1 192 0
  51 000c 2E49     		ldr	r1, .L20
  52              	.LVL1:
  53 000e FFF7FEFF 		bl	u8x8_d_helper_display_setup_memory
  54              	.LVL2:
  55 0012 54E0     		b	.L16
  56              	.LVL3:
  57              	.L2:
  58              	.LBB4:
  59              	.LBB5:
 102:..\..\..\u8g2\u8g2\csrc/u8x8_d_pcf8814_hx1230.c ****   {
  60              		.loc 1 102 0
  61 0014 0A39     		subs	r1, r1, #10
  62              	.LVL4:
  63 0016 0529     		cmp	r1, #5
  64 0018 53D8     		bhi	.L13
  65 001a DFE801F0 		tbb	[pc, r1]
  66              	.LVL5:
  67              	.L5:
  68 001e 03       		.byte	(.L4-.L5)/2
  69 001f 07       		.byte	(.L6-.L5)/2
  70 0020 52       		.byte	(.L13-.L5)/2
  71 0021 0F       		.byte	(.L7-.L5)/2
  72 0022 1E       		.byte	(.L8-.L5)/2
  73 0023 27       		.byte	(.L9-.L5)/2
  74              		.p2align 1
  75              	.L4:
 110:..\..\..\u8g2\u8g2\csrc/u8x8_d_pcf8814_hx1230.c ****       u8x8_cad_SendSequence(u8x8, u8x8_d_hx1230_96x68_init_seq);    
  76              		.loc 1 110 0
  77 0024 FFF7FEFF 		bl	u8x8_d_helper_display_init
  78              	.LVL6:
 111:..\..\..\u8g2\u8g2\csrc/u8x8_d_pcf8814_hx1230.c ****       break;
  79              		.loc 1 111 0
  80 0028 2849     		ldr	r1, .L20+4
  81 002a 03E0     		b	.L17
  82              	.LVL7:
  83              	.L6:
 114:..\..\..\u8g2\u8g2\csrc/u8x8_d_pcf8814_hx1230.c **** 	u8x8_cad_SendSequence(u8x8, u8x8_d_hx1230_96x68_powersave0_seq);
  84              		.loc 1 114 0
  85 002c 0AB9     		cbnz	r2, .L10
 115:..\..\..\u8g2\u8g2\csrc/u8x8_d_pcf8814_hx1230.c ****       else
  86              		.loc 1 115 0
ARM GAS  C:\Users\jesse\AppData\Local\Temp\cc105cPm.s 			page 6


  87 002e 2849     		ldr	r1, .L20+8
  88 0030 00E0     		b	.L17
  89              	.L10:
 117:..\..\..\u8g2\u8g2\csrc/u8x8_d_pcf8814_hx1230.c ****       break;
  90              		.loc 1 117 0
  91 0032 2849     		ldr	r1, .L20+12
  92              	.LVL8:
  93              	.L17:
  94 0034 2046     		mov	r0, r4
  95 0036 FFF7FEFF 		bl	u8x8_cad_SendSequence
  96              	.LVL9:
  97 003a 40E0     		b	.L16
  98              	.LVL10:
  99              	.L7:
 120:..\..\..\u8g2\u8g2\csrc/u8x8_d_pcf8814_hx1230.c ****       {
 100              		.loc 1 120 0
 101 003c 2AB9     		cbnz	r2, .L11
 122:..\..\..\u8g2\u8g2\csrc/u8x8_d_pcf8814_hx1230.c **** 	u8x8->x_offset = u8x8->display_info->default_x_offset;
 102              		.loc 1 122 0
 103 003e 2649     		ldr	r1, .L20+16
 104 0040 FFF7FEFF 		bl	u8x8_cad_SendSequence
 105              	.LVL11:
 123:..\..\..\u8g2\u8g2\csrc/u8x8_d_pcf8814_hx1230.c ****       }
 106              		.loc 1 123 0
 107 0044 2368     		ldr	r3, [r4]
 108 0046 9B7C     		ldrb	r3, [r3, #18]	@ zero_extendqisi2
 109 0048 04E0     		b	.L18
 110              	.LVL12:
 111              	.L11:
 127:..\..\..\u8g2\u8g2\csrc/u8x8_d_pcf8814_hx1230.c **** 	u8x8->x_offset = u8x8->display_info->flipmode_x_offset;
 112              		.loc 1 127 0
 113 004a 2449     		ldr	r1, .L20+20
 114 004c FFF7FEFF 		bl	u8x8_cad_SendSequence
 115              	.LVL13:
 128:..\..\..\u8g2\u8g2\csrc/u8x8_d_pcf8814_hx1230.c ****       }
 116              		.loc 1 128 0
 117 0050 2368     		ldr	r3, [r4]
 118 0052 DB7C     		ldrb	r3, [r3, #19]	@ zero_extendqisi2
 119              	.L18:
 120 0054 84F82230 		strb	r3, [r4, #34]
 121 0058 31E0     		b	.L16
 122              	.LVL14:
 123              	.L8:
 133:..\..\..\u8g2\u8g2\csrc/u8x8_d_pcf8814_hx1230.c ****       u8x8_cad_SendCmd(u8x8, (arg_int>>3)|0x80 );	/* 0..31 for contrast */
 124              		.loc 1 133 0
 125 005a FFF7FEFF 		bl	u8x8_cad_StartTransfer
 126              	.LVL15:
 134:..\..\..\u8g2\u8g2\csrc/u8x8_d_pcf8814_hx1230.c ****       u8x8_cad_EndTransfer(u8x8);
 127              		.loc 1 134 0
 128 005e E908     		lsrs	r1, r5, #3
 129 0060 41F08001 		orr	r1, r1, #128
 130 0064 2046     		mov	r0, r4
 131 0066 FFF7FEFF 		bl	u8x8_cad_SendCmd
 132              	.LVL16:
 133 006a 25E0     		b	.L15
 134              	.LVL17:
 135              	.L9:
ARM GAS  C:\Users\jesse\AppData\Local\Temp\cc105cPm.s 			page 7


 139:..\..\..\u8g2\u8g2\csrc/u8x8_d_pcf8814_hx1230.c ****       x = ((u8x8_tile_t *)arg_ptr)->x_pos;    
 136              		.loc 1 139 0
 137 006c FFF7FEFF 		bl	u8x8_cad_StartTransfer
 138              	.LVL18:
 142:..\..\..\u8g2\u8g2\csrc/u8x8_d_pcf8814_hx1230.c ****     
 139              		.loc 1 142 0
 140 0070 94F82230 		ldrb	r3, [r4, #34]	@ zero_extendqisi2
 140:..\..\..\u8g2\u8g2\csrc/u8x8_d_pcf8814_hx1230.c ****       x *= 8;
 141              		.loc 1 140 0
 142 0074 7E79     		ldrb	r6, [r7, #5]	@ zero_extendqisi2
 143              	.LVL19:
 144:..\..\..\u8g2\u8g2\csrc/u8x8_d_pcf8814_hx1230.c ****       u8x8_cad_SendCmd(u8x8, 0x010 | (x>>4));
 144              		.loc 1 144 0
 145 0076 2046     		mov	r0, r4
 142:..\..\..\u8g2\u8g2\csrc/u8x8_d_pcf8814_hx1230.c ****     
 146              		.loc 1 142 0
 147 0078 03EBC606 		add	r6, r3, r6, lsl #3
 148              	.LVL20:
 149 007c 06F0FF06 		and	r6, r6, #255
 150              	.LVL21:
 144:..\..\..\u8g2\u8g2\csrc/u8x8_d_pcf8814_hx1230.c ****       u8x8_cad_SendCmd(u8x8, 0x010 | (x>>4));
 151              		.loc 1 144 0
 152 0080 06F00F01 		and	r1, r6, #15
 153 0084 FFF7FEFF 		bl	u8x8_cad_SendCmd
 154              	.LVL22:
 145:..\..\..\u8g2\u8g2\csrc/u8x8_d_pcf8814_hx1230.c ****       u8x8_cad_SendCmd(u8x8, 0x0b0 | ((u8x8_tile_t *)arg_ptr)->y_pos);
 155              		.loc 1 145 0
 156 0088 3109     		lsrs	r1, r6, #4
 157 008a 41F01001 		orr	r1, r1, #16
 158 008e 2046     		mov	r0, r4
 159 0090 FFF7FEFF 		bl	u8x8_cad_SendCmd
 160              	.LVL23:
 146:..\..\..\u8g2\u8g2\csrc/u8x8_d_pcf8814_hx1230.c ****       
 161              		.loc 1 146 0
 162 0094 B979     		ldrb	r1, [r7, #6]	@ zero_extendqisi2
 163 0096 2046     		mov	r0, r4
 164 0098 41F0B001 		orr	r1, r1, #176
 165 009c FFF7FEFF 		bl	u8x8_cad_SendCmd
 166              	.LVL24:
 167              	.L12:
 152:..\..\..\u8g2\u8g2\csrc/u8x8_d_pcf8814_hx1230.c **** 	arg_int--;
 168              		.loc 1 152 0
 169 00a0 3979     		ldrb	r1, [r7, #4]	@ zero_extendqisi2
 170 00a2 3A68     		ldr	r2, [r7]
 171 00a4 C900     		lsls	r1, r1, #3
 172 00a6 01F0F801 		and	r1, r1, #248
 173 00aa 2046     		mov	r0, r4
 153:..\..\..\u8g2\u8g2\csrc/u8x8_d_pcf8814_hx1230.c ****       } while( arg_int > 0 );
 174              		.loc 1 153 0
 175 00ac 013D     		subs	r5, r5, #1
 176              	.LVL25:
 152:..\..\..\u8g2\u8g2\csrc/u8x8_d_pcf8814_hx1230.c **** 	arg_int--;
 177              		.loc 1 152 0
 178 00ae FFF7FEFF 		bl	u8x8_cad_SendData
 179              	.LVL26:
 154:..\..\..\u8g2\u8g2\csrc/u8x8_d_pcf8814_hx1230.c ****       
 180              		.loc 1 154 0
ARM GAS  C:\Users\jesse\AppData\Local\Temp\cc105cPm.s 			page 8


 181 00b2 15F0FF05 		ands	r5, r5, #255
 182              	.LVL27:
 183 00b6 F3D1     		bne	.L12
 184              	.LVL28:
 185              	.L15:
 156:..\..\..\u8g2\u8g2\csrc/u8x8_d_pcf8814_hx1230.c ****       break;
 186              		.loc 1 156 0
 187 00b8 2046     		mov	r0, r4
 188 00ba FFF7FEFF 		bl	u8x8_cad_EndTransfer
 189              	.LVL29:
 190              	.L16:
 161:..\..\..\u8g2\u8g2\csrc/u8x8_d_pcf8814_hx1230.c **** }
 191              		.loc 1 161 0
 192 00be 0120     		movs	r0, #1
 193 00c0 F8BD     		pop	{r3, r4, r5, r6, r7, pc}
 194              	.LVL30:
 195              	.L13:
 159:..\..\..\u8g2\u8g2\csrc/u8x8_d_pcf8814_hx1230.c ****   }
 196              		.loc 1 159 0
 197 00c2 0020     		movs	r0, #0
 198              	.LVL31:
 199              	.LBE5:
 200              	.LBE4:
 193:..\..\..\u8g2\u8g2\csrc/u8x8_d_pcf8814_hx1230.c ****       return 1;
 194:..\..\..\u8g2\u8g2\csrc/u8x8_d_pcf8814_hx1230.c ****     }
 195:..\..\..\u8g2\u8g2\csrc/u8x8_d_pcf8814_hx1230.c ****     return u8x8_d_hx1230_96x68_generic(u8x8, msg, arg_int, arg_ptr);
 196:..\..\..\u8g2\u8g2\csrc/u8x8_d_pcf8814_hx1230.c **** }
 201              		.loc 1 196 0
 202 00c4 F8BD     		pop	{r3, r4, r5, r6, r7, pc}
 203              	.LVL32:
 204              	.L21:
 205 00c6 00BF     		.align	2
 206              	.L20:
 207 00c8 00000000 		.word	.LANCHOR0
 208 00cc 18000000 		.word	.LANCHOR0+24
 209 00d0 2B000000 		.word	.LANCHOR0+43
 210 00d4 32000000 		.word	.LANCHOR0+50
 211 00d8 39000000 		.word	.LANCHOR0+57
 212 00dc 40000000 		.word	.LANCHOR0+64
 213              		.cfi_endproc
 214              	.LFE1:
 215              		.size	u8x8_d_hx1230_96x68, .-u8x8_d_hx1230_96x68
 216              		.section	.rodata
 217              		.align	2
 218              		.set	.LANCHOR0,. + 0
 219              		.type	u8x8_hx1230_96x68_display_info, %object
 220              		.size	u8x8_hx1230_96x68_display_info, 24
 221              	u8x8_hx1230_96x68_display_info:
 222 0000 00       		.byte	0
 223 0001 01       		.byte	1
 224 0002 64       		.byte	100
 225 0003 64       		.byte	100
 226 0004 64       		.byte	100
 227 0005 64       		.byte	100
 228 0006 64       		.byte	100
 229 0007 64       		.byte	100
 230 0008 00093D00 		.word	4000000
ARM GAS  C:\Users\jesse\AppData\Local\Temp\cc105cPm.s 			page 9


 231 000c 00       		.byte	0
 232 000d 04       		.byte	4
 233 000e 28       		.byte	40
 234 000f 96       		.byte	-106
 235 0010 0C       		.byte	12
 236 0011 09       		.byte	9
 237 0012 00       		.byte	0
 238 0013 00       		.byte	0
 239 0014 6000     		.short	96
 240 0016 4400     		.short	68
 241              		.type	u8x8_d_hx1230_96x68_init_seq, %object
 242              		.size	u8x8_d_hx1230_96x68_init_seq, 19
 243              	u8x8_d_hx1230_96x68_init_seq:
 244 0018 18       		.byte	24
 245 0019 15       		.byte	21
 246 001a AE       		.byte	-82
 247 001b 15       		.byte	21
 248 001c 20       		.byte	32
 249 001d 15       		.byte	21
 250 001e 80       		.byte	-128
 251 001f 15       		.byte	21
 252 0020 A6       		.byte	-90
 253 0021 15       		.byte	21
 254 0022 A4       		.byte	-92
 255 0023 15       		.byte	21
 256 0024 A0       		.byte	-96
 257 0025 15       		.byte	21
 258 0026 C0       		.byte	-64
 259 0027 15       		.byte	21
 260 0028 40       		.byte	64
 261 0029 19       		.byte	25
 262 002a FF       		.byte	-1
 263              		.type	u8x8_d_hx1230_96x68_powersave0_seq, %object
 264              		.size	u8x8_d_hx1230_96x68_powersave0_seq, 7
 265              	u8x8_d_hx1230_96x68_powersave0_seq:
 266 002b 18       		.byte	24
 267 002c 15       		.byte	21
 268 002d 2F       		.byte	47
 269 002e 15       		.byte	21
 270 002f AF       		.byte	-81
 271 0030 19       		.byte	25
 272 0031 FF       		.byte	-1
 273              		.type	u8x8_d_hx1230_96x68_powersave1_seq, %object
 274              		.size	u8x8_d_hx1230_96x68_powersave1_seq, 7
 275              	u8x8_d_hx1230_96x68_powersave1_seq:
 276 0032 18       		.byte	24
 277 0033 15       		.byte	21
 278 0034 AE       		.byte	-82
 279 0035 15       		.byte	21
 280 0036 A5       		.byte	-91
 281 0037 19       		.byte	25
 282 0038 FF       		.byte	-1
 283              		.type	u8x8_d_hx1230_96x68_flip0_seq, %object
 284              		.size	u8x8_d_hx1230_96x68_flip0_seq, 7
 285              	u8x8_d_hx1230_96x68_flip0_seq:
 286 0039 18       		.byte	24
 287 003a 15       		.byte	21
ARM GAS  C:\Users\jesse\AppData\Local\Temp\cc105cPm.s 			page 10


 288 003b A0       		.byte	-96
 289 003c 15       		.byte	21
 290 003d C0       		.byte	-64
 291 003e 19       		.byte	25
 292 003f FF       		.byte	-1
 293              		.type	u8x8_d_hx1230_96x68_flip1_seq, %object
 294              		.size	u8x8_d_hx1230_96x68_flip1_seq, 7
 295              	u8x8_d_hx1230_96x68_flip1_seq:
 296 0040 18       		.byte	24
 297 0041 15       		.byte	21
 298 0042 A1       		.byte	-95
 299 0043 15       		.byte	21
 300 0044 C8       		.byte	-56
 301 0045 19       		.byte	25
 302 0046 FF       		.byte	-1
 303              		.text
 304              	.Letext0:
 305              		.file 2 "c:\\program files (x86)\\cypress\\psoc creator\\4.4\\psoc creator\\import\\gnu\\arm\\5.4.
 306              		.file 3 "c:\\program files (x86)\\cypress\\psoc creator\\4.4\\psoc creator\\import\\gnu\\arm\\5.4.
 307              		.file 4 "..\\..\\..\\u8g2\\u8g2\\csrc\\u8x8.h"