ARM GAS  C:\Users\jesse\AppData\Local\Temp\cc9dv931.s 			page 1


   1              		.syntax unified
   2              		.cpu cortex-m3
   3              		.fpu softvfp
   4              		.eabi_attribute 20, 1
   5              		.eabi_attribute 21, 1
   6              		.eabi_attribute 23, 3
   7              		.eabi_attribute 24, 1
   8              		.eabi_attribute 25, 1
   9              		.eabi_attribute 26, 1
  10              		.eabi_attribute 30, 4
  11              		.eabi_attribute 34, 1
  12              		.eabi_attribute 18, 4
  13              		.thumb
  14              		.syntax unified
  15              		.file	"u8x8_d_st7565.c"
  16              		.text
  17              	.Ltext0:
  18              		.cfi_sections	.debug_frame
  19              		.section	.text.u8x8_d_st7565_common,"ax",%progbits
  20              		.align	1
  21              		.global	u8x8_d_st7565_common
  22              		.thumb
  23              		.thumb_func
  24              		.type	u8x8_d_st7565_common, %function
  25              	u8x8_d_st7565_common:
  26              	.LFB0:
  27              		.file 1 "..\\..\\..\\u8g2\\u8g2\\csrc\\u8x8_d_st7565.c"
   1:..\..\..\u8g2\u8g2\csrc/u8x8_d_st7565.c **** /*
   2:..\..\..\u8g2\u8g2\csrc/u8x8_d_st7565.c **** 
   3:..\..\..\u8g2\u8g2\csrc/u8x8_d_st7565.c ****   u8x8_d_st7565.c
   4:..\..\..\u8g2\u8g2\csrc/u8x8_d_st7565.c ****   also includes support for nt7534 
   5:..\..\..\u8g2\u8g2\csrc/u8x8_d_st7565.c ****   
   6:..\..\..\u8g2\u8g2\csrc/u8x8_d_st7565.c ****   Universal 8bit Graphics Library (https://github.com/olikraus/u8g2/)
   7:..\..\..\u8g2\u8g2\csrc/u8x8_d_st7565.c **** 
   8:..\..\..\u8g2\u8g2\csrc/u8x8_d_st7565.c ****   Copyright (c) 2016, olikraus@gmail.com
   9:..\..\..\u8g2\u8g2\csrc/u8x8_d_st7565.c ****   All rights reserved.
  10:..\..\..\u8g2\u8g2\csrc/u8x8_d_st7565.c **** 
  11:..\..\..\u8g2\u8g2\csrc/u8x8_d_st7565.c ****   Redistribution and use in source and binary forms, with or without modification, 
  12:..\..\..\u8g2\u8g2\csrc/u8x8_d_st7565.c ****   are permitted provided that the following conditions are met:
  13:..\..\..\u8g2\u8g2\csrc/u8x8_d_st7565.c **** 
  14:..\..\..\u8g2\u8g2\csrc/u8x8_d_st7565.c ****   * Redistributions of source code must retain the above copyright notice, this list 
  15:..\..\..\u8g2\u8g2\csrc/u8x8_d_st7565.c ****     of conditions and the following disclaimer.
  16:..\..\..\u8g2\u8g2\csrc/u8x8_d_st7565.c ****     
  17:..\..\..\u8g2\u8g2\csrc/u8x8_d_st7565.c ****   * Redistributions in binary form must reproduce the above copyright notice, this 
  18:..\..\..\u8g2\u8g2\csrc/u8x8_d_st7565.c ****     list of conditions and the following disclaimer in the documentation and/or other 
  19:..\..\..\u8g2\u8g2\csrc/u8x8_d_st7565.c ****     materials provided with the distribution.
  20:..\..\..\u8g2\u8g2\csrc/u8x8_d_st7565.c **** 
  21:..\..\..\u8g2\u8g2\csrc/u8x8_d_st7565.c ****   THIS SOFTWARE IS PROVIDED BY THE COPYRIGHT HOLDERS AND 
  22:..\..\..\u8g2\u8g2\csrc/u8x8_d_st7565.c ****   CONTRIBUTORS "AS IS" AND ANY EXPRESS OR IMPLIED WARRANTIES, 
  23:..\..\..\u8g2\u8g2\csrc/u8x8_d_st7565.c ****   INCLUDING, BUT NOT LIMITED TO, THE IMPLIED WARRANTIES OF 
  24:..\..\..\u8g2\u8g2\csrc/u8x8_d_st7565.c ****   MERCHANTABILITY AND FITNESS FOR A PARTICULAR PURPOSE ARE 
  25:..\..\..\u8g2\u8g2\csrc/u8x8_d_st7565.c ****   DISCLAIMED. IN NO EVENT SHALL THE COPYRIGHT HOLDER OR 
  26:..\..\..\u8g2\u8g2\csrc/u8x8_d_st7565.c ****   CONTRIBUTORS BE LIABLE FOR ANY DIRECT, INDIRECT, INCIDENTAL, 
  27:..\..\..\u8g2\u8g2\csrc/u8x8_d_st7565.c ****   SPECIAL, EXEMPLARY, OR CONSEQUENTIAL DAMAGES (INCLUDING, BUT 
  28:..\..\..\u8g2\u8g2\csrc/u8x8_d_st7565.c ****   NOT LIMITED TO, PROCUREMENT OF SUBSTITUTE GOODS OR SERVICES; 
  29:..\..\..\u8g2\u8g2\csrc/u8x8_d_st7565.c ****   LOSS OF USE, DATA, OR PROFITS; OR BUSINESS INTERRUPTION) HOWEVER 
  30:..\..\..\u8g2\u8g2\csrc/u8x8_d_st7565.c ****   CAUSED AND ON ANY THEORY OF LIABILITY, WHETHER IN CONTRACT, 
ARM GAS  C:\Users\jesse\AppData\Local\Temp\cc9dv931.s 			page 2


  31:..\..\..\u8g2\u8g2\csrc/u8x8_d_st7565.c ****   STRICT LIABILITY, OR TORT (INCLUDING NEGLIGENCE OR OTHERWISE) 
  32:..\..\..\u8g2\u8g2\csrc/u8x8_d_st7565.c ****   ARISING IN ANY WAY OUT OF THE USE OF THIS SOFTWARE, EVEN IF 
  33:..\..\..\u8g2\u8g2\csrc/u8x8_d_st7565.c ****   ADVISED OF THE POSSIBILITY OF SUCH DAMAGE.  
  34:..\..\..\u8g2\u8g2\csrc/u8x8_d_st7565.c **** 
  35:..\..\..\u8g2\u8g2\csrc/u8x8_d_st7565.c ****   
  36:..\..\..\u8g2\u8g2\csrc/u8x8_d_st7565.c **** */
  37:..\..\..\u8g2\u8g2\csrc/u8x8_d_st7565.c **** #include "u8x8.h"
  38:..\..\..\u8g2\u8g2\csrc/u8x8_d_st7565.c **** 
  39:..\..\..\u8g2\u8g2\csrc/u8x8_d_st7565.c **** 
  40:..\..\..\u8g2\u8g2\csrc/u8x8_d_st7565.c **** 
  41:..\..\..\u8g2\u8g2\csrc/u8x8_d_st7565.c **** 
  42:..\..\..\u8g2\u8g2\csrc/u8x8_d_st7565.c **** 
  43:..\..\..\u8g2\u8g2\csrc/u8x8_d_st7565.c **** static const uint8_t u8x8_d_st7565_powersave0_seq[] = {
  44:..\..\..\u8g2\u8g2\csrc/u8x8_d_st7565.c ****   U8X8_START_TRANSFER(),             	/* enable chip, delay is part of the transfer start */
  45:..\..\..\u8g2\u8g2\csrc/u8x8_d_st7565.c ****   U8X8_C(0x0a4),		                /* all pixel off, issue 142 */
  46:..\..\..\u8g2\u8g2\csrc/u8x8_d_st7565.c ****   U8X8_C(0x0af),		                /* display on */
  47:..\..\..\u8g2\u8g2\csrc/u8x8_d_st7565.c ****   U8X8_END_TRANSFER(),             	/* disable chip */
  48:..\..\..\u8g2\u8g2\csrc/u8x8_d_st7565.c ****   U8X8_END()             			/* end of sequence */
  49:..\..\..\u8g2\u8g2\csrc/u8x8_d_st7565.c **** };
  50:..\..\..\u8g2\u8g2\csrc/u8x8_d_st7565.c **** 
  51:..\..\..\u8g2\u8g2\csrc/u8x8_d_st7565.c **** static const uint8_t u8x8_d_st7565_powersave1_seq[] = {
  52:..\..\..\u8g2\u8g2\csrc/u8x8_d_st7565.c ****   U8X8_START_TRANSFER(),             	/* enable chip, delay is part of the transfer start */
  53:..\..\..\u8g2\u8g2\csrc/u8x8_d_st7565.c ****   U8X8_C(0x0ae),		                /* display off */
  54:..\..\..\u8g2\u8g2\csrc/u8x8_d_st7565.c ****   U8X8_C(0x0a5),		                /* enter powersafe: all pixel on, issue 142 */
  55:..\..\..\u8g2\u8g2\csrc/u8x8_d_st7565.c ****   U8X8_END_TRANSFER(),             	/* disable chip */
  56:..\..\..\u8g2\u8g2\csrc/u8x8_d_st7565.c ****   U8X8_END()             			/* end of sequence */
  57:..\..\..\u8g2\u8g2\csrc/u8x8_d_st7565.c **** };
  58:..\..\..\u8g2\u8g2\csrc/u8x8_d_st7565.c **** 
  59:..\..\..\u8g2\u8g2\csrc/u8x8_d_st7565.c **** static const uint8_t u8x8_d_st7565_flip0_seq[] = {
  60:..\..\..\u8g2\u8g2\csrc/u8x8_d_st7565.c ****   U8X8_START_TRANSFER(),             	/* enable chip, delay is part of the transfer start */
  61:..\..\..\u8g2\u8g2\csrc/u8x8_d_st7565.c ****   U8X8_C(0x0a1),				/* segment remap a0/a1*/
  62:..\..\..\u8g2\u8g2\csrc/u8x8_d_st7565.c ****   U8X8_C(0x0c0),				/* c0: scan dir normal, c8: reverse */
  63:..\..\..\u8g2\u8g2\csrc/u8x8_d_st7565.c ****   U8X8_END_TRANSFER(),             	/* disable chip */
  64:..\..\..\u8g2\u8g2\csrc/u8x8_d_st7565.c ****   U8X8_END()             			/* end of sequence */
  65:..\..\..\u8g2\u8g2\csrc/u8x8_d_st7565.c **** };
  66:..\..\..\u8g2\u8g2\csrc/u8x8_d_st7565.c **** 
  67:..\..\..\u8g2\u8g2\csrc/u8x8_d_st7565.c **** static const uint8_t u8x8_d_st7565_flip1_seq[] = {
  68:..\..\..\u8g2\u8g2\csrc/u8x8_d_st7565.c ****   U8X8_START_TRANSFER(),             	/* enable chip, delay is part of the transfer start */
  69:..\..\..\u8g2\u8g2\csrc/u8x8_d_st7565.c ****   U8X8_C(0x0a0),				/* segment remap a0/a1*/
  70:..\..\..\u8g2\u8g2\csrc/u8x8_d_st7565.c ****   U8X8_C(0x0c8),				/* c0: scan dir normal, c8: reverse */
  71:..\..\..\u8g2\u8g2\csrc/u8x8_d_st7565.c ****   U8X8_END_TRANSFER(),             	/* disable chip */
  72:..\..\..\u8g2\u8g2\csrc/u8x8_d_st7565.c ****   U8X8_END()             			/* end of sequence */
  73:..\..\..\u8g2\u8g2\csrc/u8x8_d_st7565.c **** };
  74:..\..\..\u8g2\u8g2\csrc/u8x8_d_st7565.c **** 
  75:..\..\..\u8g2\u8g2\csrc/u8x8_d_st7565.c **** static const uint8_t u8x8_d_st7565_zflip0_seq[] = {
  76:..\..\..\u8g2\u8g2\csrc/u8x8_d_st7565.c ****   U8X8_START_TRANSFER(),             	/* enable chip, delay is part of the transfer start */
  77:..\..\..\u8g2\u8g2\csrc/u8x8_d_st7565.c ****   U8X8_C(0x0a1),				/* segment remap a0/a1*/
  78:..\..\..\u8g2\u8g2\csrc/u8x8_d_st7565.c ****   U8X8_C(0x0c8),				/* c0: scan dir normal, c8: reverse */
  79:..\..\..\u8g2\u8g2\csrc/u8x8_d_st7565.c ****   U8X8_END_TRANSFER(),             	/* disable chip */
  80:..\..\..\u8g2\u8g2\csrc/u8x8_d_st7565.c ****   U8X8_END()             			/* end of sequence */
  81:..\..\..\u8g2\u8g2\csrc/u8x8_d_st7565.c **** };
  82:..\..\..\u8g2\u8g2\csrc/u8x8_d_st7565.c **** 
  83:..\..\..\u8g2\u8g2\csrc/u8x8_d_st7565.c **** static const uint8_t u8x8_d_st7565_zflip1_seq[] = {
  84:..\..\..\u8g2\u8g2\csrc/u8x8_d_st7565.c ****   U8X8_START_TRANSFER(),             	/* enable chip, delay is part of the transfer start */
  85:..\..\..\u8g2\u8g2\csrc/u8x8_d_st7565.c ****   U8X8_C(0x0a0),				/* segment remap a0/a1*/
  86:..\..\..\u8g2\u8g2\csrc/u8x8_d_st7565.c ****   U8X8_C(0x0c0),				/* c0: scan dir normal, c8: reverse */
  87:..\..\..\u8g2\u8g2\csrc/u8x8_d_st7565.c ****   U8X8_END_TRANSFER(),             	/* disable chip */
ARM GAS  C:\Users\jesse\AppData\Local\Temp\cc9dv931.s 			page 3


  88:..\..\..\u8g2\u8g2\csrc/u8x8_d_st7565.c ****   U8X8_END()             			/* end of sequence */
  89:..\..\..\u8g2\u8g2\csrc/u8x8_d_st7565.c **** };
  90:..\..\..\u8g2\u8g2\csrc/u8x8_d_st7565.c **** 
  91:..\..\..\u8g2\u8g2\csrc/u8x8_d_st7565.c **** static const u8x8_display_info_t u8x8_st7565_128x64_display_info =
  92:..\..\..\u8g2\u8g2\csrc/u8x8_d_st7565.c **** {
  93:..\..\..\u8g2\u8g2\csrc/u8x8_d_st7565.c ****   /* chip_enable_level = */ 0,
  94:..\..\..\u8g2\u8g2\csrc/u8x8_d_st7565.c ****   /* chip_disable_level = */ 1,
  95:..\..\..\u8g2\u8g2\csrc/u8x8_d_st7565.c ****   
  96:..\..\..\u8g2\u8g2\csrc/u8x8_d_st7565.c ****   /* post_chip_enable_wait_ns = */ 150,	/* st7565 datasheet, table 26, tcsh */
  97:..\..\..\u8g2\u8g2\csrc/u8x8_d_st7565.c ****   /* pre_chip_disable_wait_ns = */ 50,	/* st7565 datasheet, table 26, tcss */
  98:..\..\..\u8g2\u8g2\csrc/u8x8_d_st7565.c ****   /* reset_pulse_width_ms = */ 1, 
  99:..\..\..\u8g2\u8g2\csrc/u8x8_d_st7565.c ****   /* post_reset_wait_ms = */ 1, 
 100:..\..\..\u8g2\u8g2\csrc/u8x8_d_st7565.c ****   /* sda_setup_time_ns = */ 50,		/* st7565 datasheet, table 26, tsds */
 101:..\..\..\u8g2\u8g2\csrc/u8x8_d_st7565.c ****   /* sck_pulse_width_ns = */ 120,	/* half of cycle time (100ns according to datasheet), AVR: below 
 102:..\..\..\u8g2\u8g2\csrc/u8x8_d_st7565.c ****   /* sck_clock_hz = */ 4000000UL,	/* since Arduino 1.6.0, the SPI bus speed in Hz. Should be  10000
 103:..\..\..\u8g2\u8g2\csrc/u8x8_d_st7565.c ****   /* spi_mode = */ 0,		/* active high, rising edge */
 104:..\..\..\u8g2\u8g2\csrc/u8x8_d_st7565.c ****   /* i2c_bus_clock_100kHz = */ 4,
 105:..\..\..\u8g2\u8g2\csrc/u8x8_d_st7565.c ****   /* data_setup_time_ns = */ 40,	/* st7565 datasheet, table 24, tds8 */
 106:..\..\..\u8g2\u8g2\csrc/u8x8_d_st7565.c ****   /* write_pulse_width_ns = */ 80,	/* st7565 datasheet, table 24, tcclw */
 107:..\..\..\u8g2\u8g2\csrc/u8x8_d_st7565.c ****   /* tile_width = */ 16,		/* width of 16*8=128 pixel */
 108:..\..\..\u8g2\u8g2\csrc/u8x8_d_st7565.c ****   /* tile_hight = */ 8,
 109:..\..\..\u8g2\u8g2\csrc/u8x8_d_st7565.c ****   /* default_x_offset = */ 0,
 110:..\..\..\u8g2\u8g2\csrc/u8x8_d_st7565.c ****   /* flipmode_x_offset = */ 4,
 111:..\..\..\u8g2\u8g2\csrc/u8x8_d_st7565.c ****   /* pixel_width = */ 128,
 112:..\..\..\u8g2\u8g2\csrc/u8x8_d_st7565.c ****   /* pixel_height = */ 64
 113:..\..\..\u8g2\u8g2\csrc/u8x8_d_st7565.c **** };
 114:..\..\..\u8g2\u8g2\csrc/u8x8_d_st7565.c **** 
 115:..\..\..\u8g2\u8g2\csrc/u8x8_d_st7565.c **** uint8_t u8x8_d_st7565_common(u8x8_t *u8x8, uint8_t msg, uint8_t arg_int, void *arg_ptr)
 116:..\..\..\u8g2\u8g2\csrc/u8x8_d_st7565.c **** {
  28              		.loc 1 116 0
  29              		.cfi_startproc
  30              		@ args = 0, pretend = 0, frame = 0
  31              		@ frame_needed = 0, uses_anonymous_args = 0
  32              	.LVL0:
 117:..\..\..\u8g2\u8g2\csrc/u8x8_d_st7565.c ****   uint8_t x, c;
 118:..\..\..\u8g2\u8g2\csrc/u8x8_d_st7565.c ****   uint8_t *ptr;
 119:..\..\..\u8g2\u8g2\csrc/u8x8_d_st7565.c ****   switch(msg)
  33              		.loc 1 119 0
  34 0000 0E29     		cmp	r1, #14
 116:..\..\..\u8g2\u8g2\csrc/u8x8_d_st7565.c ****   uint8_t x, c;
  35              		.loc 1 116 0
  36 0002 2DE9F041 		push	{r4, r5, r6, r7, r8, lr}
  37              		.cfi_def_cfa_offset 24
  38              		.cfi_offset 4, -24
  39              		.cfi_offset 5, -20
  40              		.cfi_offset 6, -16
  41              		.cfi_offset 7, -12
  42              		.cfi_offset 8, -8
  43              		.cfi_offset 14, -4
 116:..\..\..\u8g2\u8g2\csrc/u8x8_d_st7565.c ****   uint8_t x, c;
  44              		.loc 1 116 0
  45 0006 0646     		mov	r6, r0
  46 0008 1746     		mov	r7, r2
  47 000a 9846     		mov	r8, r3
  48              		.loc 1 119 0
  49 000c 3FD0     		beq	.L3
  50 000e 0F29     		cmp	r1, #15
ARM GAS  C:\Users\jesse\AppData\Local\Temp\cc9dv931.s 			page 4


  51 0010 02D0     		beq	.L4
  52 0012 0B29     		cmp	r1, #11
  53 0014 49D1     		bne	.L11
  54 0016 31E0     		b	.L16
  55              	.L4:
  56              	.LVL1:
  57              	.LBB4:
  58              	.LBB5:
 120:..\..\..\u8g2\u8g2\csrc/u8x8_d_st7565.c ****   {
 121:..\..\..\u8g2\u8g2\csrc/u8x8_d_st7565.c ****     case U8X8_MSG_DISPLAY_DRAW_TILE:
 122:..\..\..\u8g2\u8g2\csrc/u8x8_d_st7565.c ****       u8x8_cad_StartTransfer(u8x8);
  59              		.loc 1 122 0
  60 0018 FFF7FEFF 		bl	u8x8_cad_StartTransfer
  61              	.LVL2:
 123:..\..\..\u8g2\u8g2\csrc/u8x8_d_st7565.c ****     
 124:..\..\..\u8g2\u8g2\csrc/u8x8_d_st7565.c ****       x = ((u8x8_tile_t *)arg_ptr)->x_pos;
 125:..\..\..\u8g2\u8g2\csrc/u8x8_d_st7565.c ****       x *= 8;
 126:..\..\..\u8g2\u8g2\csrc/u8x8_d_st7565.c ****       x += u8x8->x_offset;
  62              		.loc 1 126 0
  63 001c 96F82230 		ldrb	r3, [r6, #34]	@ zero_extendqisi2
 124:..\..\..\u8g2\u8g2\csrc/u8x8_d_st7565.c ****       x *= 8;
  64              		.loc 1 124 0
  65 0020 98F80540 		ldrb	r4, [r8, #5]	@ zero_extendqisi2
  66              	.LVL3:
 127:..\..\..\u8g2\u8g2\csrc/u8x8_d_st7565.c ****       u8x8_cad_SendCmd(u8x8, 0x010 | (x>>4) );
  67              		.loc 1 127 0
  68 0024 3046     		mov	r0, r6
 126:..\..\..\u8g2\u8g2\csrc/u8x8_d_st7565.c ****       u8x8_cad_SendCmd(u8x8, 0x010 | (x>>4) );
  69              		.loc 1 126 0
  70 0026 03EBC404 		add	r4, r3, r4, lsl #3
  71              	.LVL4:
  72 002a 04F0FF04 		and	r4, r4, #255
  73              	.LVL5:
  74              		.loc 1 127 0
  75 002e 2109     		lsrs	r1, r4, #4
  76 0030 41F01001 		orr	r1, r1, #16
  77 0034 FFF7FEFF 		bl	u8x8_cad_SendCmd
  78              	.LVL6:
 128:..\..\..\u8g2\u8g2\csrc/u8x8_d_st7565.c ****       u8x8_cad_SendCmd(u8x8, 0x000 | ((x&15)));
  79              		.loc 1 128 0
  80 0038 04F00F01 		and	r1, r4, #15
  81 003c 3046     		mov	r0, r6
  82 003e FFF7FEFF 		bl	u8x8_cad_SendCmd
  83              	.LVL7:
 129:..\..\..\u8g2\u8g2\csrc/u8x8_d_st7565.c ****       u8x8_cad_SendCmd(u8x8, 0x0b0 | (((u8x8_tile_t *)arg_ptr)->y_pos));
  84              		.loc 1 129 0
  85 0042 98F80610 		ldrb	r1, [r8, #6]	@ zero_extendqisi2
  86 0046 3046     		mov	r0, r6
  87 0048 41F0B001 		orr	r1, r1, #176
  88 004c FFF7FEFF 		bl	u8x8_cad_SendCmd
  89              	.LVL8:
 130:..\..\..\u8g2\u8g2\csrc/u8x8_d_st7565.c ****     
 131:..\..\..\u8g2\u8g2\csrc/u8x8_d_st7565.c ****       c = ((u8x8_tile_t *)arg_ptr)->cnt;
  90              		.loc 1 131 0
  91 0050 98F80450 		ldrb	r5, [r8, #4]	@ zero_extendqisi2
  92              	.LVL9:
 132:..\..\..\u8g2\u8g2\csrc/u8x8_d_st7565.c ****       c *= 8;
ARM GAS  C:\Users\jesse\AppData\Local\Temp\cc9dv931.s 			page 5


 133:..\..\..\u8g2\u8g2\csrc/u8x8_d_st7565.c ****       ptr = ((u8x8_tile_t *)arg_ptr)->tile_ptr;
  93              		.loc 1 133 0
  94 0054 D8F80080 		ldr	r8, [r8]
  95              	.LVL10:
 132:..\..\..\u8g2\u8g2\csrc/u8x8_d_st7565.c ****       c *= 8;
  96              		.loc 1 132 0
  97 0058 ED00     		lsls	r5, r5, #3
  98              	.LVL11:
  99 005a EDB2     		uxtb	r5, r5
 100              	.LVL12:
 134:..\..\..\u8g2\u8g2\csrc/u8x8_d_st7565.c ****       /* 
 135:..\..\..\u8g2\u8g2\csrc/u8x8_d_st7565.c **** 	The following if condition checks the hardware limits of the st7565 
 136:..\..\..\u8g2\u8g2\csrc/u8x8_d_st7565.c **** 	controller: It is not allowed to write beyond the display limits.
 137:..\..\..\u8g2\u8g2\csrc/u8x8_d_st7565.c **** 	This is in fact an issue within flip mode.
 138:..\..\..\u8g2\u8g2\csrc/u8x8_d_st7565.c ****       */
 139:..\..\..\u8g2\u8g2\csrc/u8x8_d_st7565.c ****       if ( c + x > 132u )
 101              		.loc 1 139 0
 102 005c 2B19     		adds	r3, r5, r4
 103 005e 842B     		cmp	r3, #132
 104              	.LVL13:
 140:..\..\..\u8g2\u8g2\csrc/u8x8_d_st7565.c ****       {
 141:..\..\..\u8g2\u8g2\csrc/u8x8_d_st7565.c **** 	c = 132u;
 142:..\..\..\u8g2\u8g2\csrc/u8x8_d_st7565.c **** 	c -= x;
 105              		.loc 1 142 0
 106 0060 C4BF     		itt	gt
 107 0062 C4F18404 		rsbgt	r4, r4, #132
 108              	.LVL14:
 109 0066 E5B2     		uxtbgt	r5, r4
 110              	.LVL15:
 111              	.L7:
 143:..\..\..\u8g2\u8g2\csrc/u8x8_d_st7565.c ****       }
 144:..\..\..\u8g2\u8g2\csrc/u8x8_d_st7565.c ****       do
 145:..\..\..\u8g2\u8g2\csrc/u8x8_d_st7565.c ****       {
 146:..\..\..\u8g2\u8g2\csrc/u8x8_d_st7565.c **** 	u8x8_cad_SendData(u8x8, c, ptr);	/* note: SendData can not handle more than 255 bytes */
 112              		.loc 1 146 0
 113 0068 4246     		mov	r2, r8
 114 006a 2946     		mov	r1, r5
 115 006c 3046     		mov	r0, r6
 147:..\..\..\u8g2\u8g2\csrc/u8x8_d_st7565.c **** 	arg_int--;
 116              		.loc 1 147 0
 117 006e 013F     		subs	r7, r7, #1
 118              	.LVL16:
 146:..\..\..\u8g2\u8g2\csrc/u8x8_d_st7565.c **** 	arg_int--;
 119              		.loc 1 146 0
 120 0070 FFF7FEFF 		bl	u8x8_cad_SendData
 121              	.LVL17:
 148:..\..\..\u8g2\u8g2\csrc/u8x8_d_st7565.c ****       } while( arg_int > 0 );
 122              		.loc 1 148 0
 123 0074 17F0FF07 		ands	r7, r7, #255
 124              	.LVL18:
 125 0078 F6D1     		bne	.L7
 126 007a 12E0     		b	.L14
 127              	.LVL19:
 128              	.L16:
 129              	.LBE5:
 130              	.LBE4:
 149:..\..\..\u8g2\u8g2\csrc/u8x8_d_st7565.c ****       
ARM GAS  C:\Users\jesse\AppData\Local\Temp\cc9dv931.s 			page 6


 150:..\..\..\u8g2\u8g2\csrc/u8x8_d_st7565.c ****       u8x8_cad_EndTransfer(u8x8);
 151:..\..\..\u8g2\u8g2\csrc/u8x8_d_st7565.c ****       break;
 152:..\..\..\u8g2\u8g2\csrc/u8x8_d_st7565.c ****     /*	handled in the calling procedure 
 153:..\..\..\u8g2\u8g2\csrc/u8x8_d_st7565.c ****     case U8X8_MSG_DISPLAY_SETUP_MEMORY:
 154:..\..\..\u8g2\u8g2\csrc/u8x8_d_st7565.c ****       u8x8_d_helper_display_setup_memory(u8x8, &u8x8_st7565_128x64_display_info);
 155:..\..\..\u8g2\u8g2\csrc/u8x8_d_st7565.c ****       break;
 156:..\..\..\u8g2\u8g2\csrc/u8x8_d_st7565.c ****     case U8X8_MSG_DISPLAY_INIT:
 157:..\..\..\u8g2\u8g2\csrc/u8x8_d_st7565.c ****       u8x8_d_helper_display_init(u8x8);
 158:..\..\..\u8g2\u8g2\csrc/u8x8_d_st7565.c ****       u8x8_cad_SendSequence(u8x8, u8x8_d_uc1701_dogs102_init_seq);
 159:..\..\..\u8g2\u8g2\csrc/u8x8_d_st7565.c ****       break;
 160:..\..\..\u8g2\u8g2\csrc/u8x8_d_st7565.c ****     */
 161:..\..\..\u8g2\u8g2\csrc/u8x8_d_st7565.c ****     case U8X8_MSG_DISPLAY_SET_POWER_SAVE:
 162:..\..\..\u8g2\u8g2\csrc/u8x8_d_st7565.c ****       if ( arg_int == 0 )
 131              		.loc 1 162 0
 132 007c 0AB9     		cbnz	r2, .L8
 163:..\..\..\u8g2\u8g2\csrc/u8x8_d_st7565.c **** 	u8x8_cad_SendSequence(u8x8, u8x8_d_st7565_powersave0_seq);
 133              		.loc 1 163 0
 134 007e 0C49     		ldr	r1, .L17
 135              	.LVL20:
 136 0080 00E0     		b	.L12
 137              	.LVL21:
 138              	.L8:
 164:..\..\..\u8g2\u8g2\csrc/u8x8_d_st7565.c ****       else
 165:..\..\..\u8g2\u8g2\csrc/u8x8_d_st7565.c **** 	u8x8_cad_SendSequence(u8x8, u8x8_d_st7565_powersave1_seq);
 139              		.loc 1 165 0
 140 0082 0C49     		ldr	r1, .L17+4
 141              	.LVL22:
 142              	.L12:
 143 0084 FFF7FEFF 		bl	u8x8_cad_SendSequence
 144              	.LVL23:
 145              	.L13:
 166:..\..\..\u8g2\u8g2\csrc/u8x8_d_st7565.c ****       break;
 167:..\..\..\u8g2\u8g2\csrc/u8x8_d_st7565.c **** #ifdef U8X8_WITH_SET_CONTRAST
 168:..\..\..\u8g2\u8g2\csrc/u8x8_d_st7565.c ****     case U8X8_MSG_DISPLAY_SET_CONTRAST:
 169:..\..\..\u8g2\u8g2\csrc/u8x8_d_st7565.c ****       u8x8_cad_StartTransfer(u8x8);
 170:..\..\..\u8g2\u8g2\csrc/u8x8_d_st7565.c ****       u8x8_cad_SendCmd(u8x8, 0x081 );
 171:..\..\..\u8g2\u8g2\csrc/u8x8_d_st7565.c ****       u8x8_cad_SendArg(u8x8, arg_int >> 2 );	/* st7565 has range from 0 to 63 */
 172:..\..\..\u8g2\u8g2\csrc/u8x8_d_st7565.c ****       u8x8_cad_EndTransfer(u8x8);
 173:..\..\..\u8g2\u8g2\csrc/u8x8_d_st7565.c ****       break;
 174:..\..\..\u8g2\u8g2\csrc/u8x8_d_st7565.c **** #endif
 175:..\..\..\u8g2\u8g2\csrc/u8x8_d_st7565.c ****     default:
 176:..\..\..\u8g2\u8g2\csrc/u8x8_d_st7565.c ****       return 0;
 177:..\..\..\u8g2\u8g2\csrc/u8x8_d_st7565.c ****   }
 178:..\..\..\u8g2\u8g2\csrc/u8x8_d_st7565.c ****   return 1;
 146              		.loc 1 178 0
 147 0088 0120     		movs	r0, #1
 148 008a BDE8F081 		pop	{r4, r5, r6, r7, r8, pc}
 149              	.LVL24:
 150              	.L3:
 169:..\..\..\u8g2\u8g2\csrc/u8x8_d_st7565.c ****       u8x8_cad_SendCmd(u8x8, 0x081 );
 151              		.loc 1 169 0
 152 008e FFF7FEFF 		bl	u8x8_cad_StartTransfer
 153              	.LVL25:
 170:..\..\..\u8g2\u8g2\csrc/u8x8_d_st7565.c ****       u8x8_cad_SendArg(u8x8, arg_int >> 2 );	/* st7565 has range from 0 to 63 */
 154              		.loc 1 170 0
 155 0092 8121     		movs	r1, #129
 156 0094 3046     		mov	r0, r6
ARM GAS  C:\Users\jesse\AppData\Local\Temp\cc9dv931.s 			page 7


 157 0096 FFF7FEFF 		bl	u8x8_cad_SendCmd
 158              	.LVL26:
 171:..\..\..\u8g2\u8g2\csrc/u8x8_d_st7565.c ****       u8x8_cad_EndTransfer(u8x8);
 159              		.loc 1 171 0
 160 009a B908     		lsrs	r1, r7, #2
 161 009c 3046     		mov	r0, r6
 162 009e FFF7FEFF 		bl	u8x8_cad_SendArg
 163              	.LVL27:
 164              	.L14:
 172:..\..\..\u8g2\u8g2\csrc/u8x8_d_st7565.c ****       break;
 165              		.loc 1 172 0
 166 00a2 3046     		mov	r0, r6
 167 00a4 FFF7FEFF 		bl	u8x8_cad_EndTransfer
 168              	.LVL28:
 169 00a8 EEE7     		b	.L13
 170              	.LVL29:
 171              	.L11:
 176:..\..\..\u8g2\u8g2\csrc/u8x8_d_st7565.c ****   }
 172              		.loc 1 176 0
 173 00aa 0020     		movs	r0, #0
 174              	.LVL30:
 179:..\..\..\u8g2\u8g2\csrc/u8x8_d_st7565.c **** }
 175              		.loc 1 179 0
 176 00ac BDE8F081 		pop	{r4, r5, r6, r7, r8, pc}
 177              	.LVL31:
 178              	.L18:
 179              		.align	2
 180              	.L17:
 181 00b0 00000000 		.word	.LANCHOR0
 182 00b4 07000000 		.word	.LANCHOR0+7
 183              		.cfi_endproc
 184              	.LFE0:
 185              		.size	u8x8_d_st7565_common, .-u8x8_d_st7565_common
 186              		.section	.text.u8x8_d_st7565_ea_dogm128,"ax",%progbits
 187              		.align	1
 188              		.global	u8x8_d_st7565_ea_dogm128
 189              		.thumb
 190              		.thumb_func
 191              		.type	u8x8_d_st7565_ea_dogm128, %function
 192              	u8x8_d_st7565_ea_dogm128:
 193              	.LFB1:
 180:..\..\..\u8g2\u8g2\csrc/u8x8_d_st7565.c **** 
 181:..\..\..\u8g2\u8g2\csrc/u8x8_d_st7565.c **** /*================================================*/
 182:..\..\..\u8g2\u8g2\csrc/u8x8_d_st7565.c **** /* DOGM128 */
 183:..\..\..\u8g2\u8g2\csrc/u8x8_d_st7565.c **** 
 184:..\..\..\u8g2\u8g2\csrc/u8x8_d_st7565.c **** static const uint8_t u8x8_d_st7565_dogm128_init_seq[] = {
 185:..\..\..\u8g2\u8g2\csrc/u8x8_d_st7565.c ****     
 186:..\..\..\u8g2\u8g2\csrc/u8x8_d_st7565.c ****   U8X8_START_TRANSFER(),             	/* enable chip, delay is part of the transfer start */
 187:..\..\..\u8g2\u8g2\csrc/u8x8_d_st7565.c ****   
 188:..\..\..\u8g2\u8g2\csrc/u8x8_d_st7565.c ****   U8X8_C(0x0e2),            			/* soft reset */
 189:..\..\..\u8g2\u8g2\csrc/u8x8_d_st7565.c ****   U8X8_C(0x0ae),		                /* display off */
 190:..\..\..\u8g2\u8g2\csrc/u8x8_d_st7565.c ****   U8X8_C(0x040),		                /* set display start line to 0 */
 191:..\..\..\u8g2\u8g2\csrc/u8x8_d_st7565.c ****   
 192:..\..\..\u8g2\u8g2\csrc/u8x8_d_st7565.c ****   U8X8_C(0x0a1),		                /* ADC set to reverse */
 193:..\..\..\u8g2\u8g2\csrc/u8x8_d_st7565.c ****   U8X8_C(0x0c0),		                /* common output mode */
 194:..\..\..\u8g2\u8g2\csrc/u8x8_d_st7565.c ****   // Flipmode
 195:..\..\..\u8g2\u8g2\csrc/u8x8_d_st7565.c ****   // U8X8_C(0x0a0),		                /* ADC set to reverse */
ARM GAS  C:\Users\jesse\AppData\Local\Temp\cc9dv931.s 			page 8


 196:..\..\..\u8g2\u8g2\csrc/u8x8_d_st7565.c ****   // U8X8_C(0x0c8),		                /* common output mode */
 197:..\..\..\u8g2\u8g2\csrc/u8x8_d_st7565.c ****   
 198:..\..\..\u8g2\u8g2\csrc/u8x8_d_st7565.c ****   U8X8_C(0x0a6),		                /* display normal, bit val 0: LCD pixel off. */
 199:..\..\..\u8g2\u8g2\csrc/u8x8_d_st7565.c ****   U8X8_C(0x0a2),		                /* LCD bias 1/9 */
 200:..\..\..\u8g2\u8g2\csrc/u8x8_d_st7565.c ****   U8X8_C(0x02f),		                /* all power  control circuits on (regulator, booster and followe
 201:..\..\..\u8g2\u8g2\csrc/u8x8_d_st7565.c ****   U8X8_CA(0x0f8, 0x000),		/* set booster ratio to 4x */
 202:..\..\..\u8g2\u8g2\csrc/u8x8_d_st7565.c ****   U8X8_C(0x027),		                /* set V0 voltage resistor ratio to max  */
 203:..\..\..\u8g2\u8g2\csrc/u8x8_d_st7565.c ****   U8X8_CA(0x081, 0x018),		/* set contrast, contrast value, EA default: 0x016 */
 204:..\..\..\u8g2\u8g2\csrc/u8x8_d_st7565.c ****   
 205:..\..\..\u8g2\u8g2\csrc/u8x8_d_st7565.c ****   U8X8_C(0x0ae),		                /* display off */
 206:..\..\..\u8g2\u8g2\csrc/u8x8_d_st7565.c ****   U8X8_C(0x0a5),		                /* enter powersafe: all pixel on, issue 142 */
 207:..\..\..\u8g2\u8g2\csrc/u8x8_d_st7565.c ****   
 208:..\..\..\u8g2\u8g2\csrc/u8x8_d_st7565.c ****   U8X8_END_TRANSFER(),             	/* disable chip */
 209:..\..\..\u8g2\u8g2\csrc/u8x8_d_st7565.c ****   U8X8_END()             			/* end of sequence */
 210:..\..\..\u8g2\u8g2\csrc/u8x8_d_st7565.c **** };
 211:..\..\..\u8g2\u8g2\csrc/u8x8_d_st7565.c **** 
 212:..\..\..\u8g2\u8g2\csrc/u8x8_d_st7565.c **** uint8_t u8x8_d_st7565_ea_dogm128(u8x8_t *u8x8, uint8_t msg, uint8_t arg_int, void *arg_ptr)
 213:..\..\..\u8g2\u8g2\csrc/u8x8_d_st7565.c **** {
 194              		.loc 1 213 0
 195              		.cfi_startproc
 196              		@ args = 0, pretend = 0, frame = 0
 197              		@ frame_needed = 0, uses_anonymous_args = 0
 198              	.LVL32:
 199 0000 70B5     		push	{r4, r5, r6, lr}
 200              		.cfi_def_cfa_offset 16
 201              		.cfi_offset 4, -16
 202              		.cfi_offset 5, -12
 203              		.cfi_offset 6, -8
 204              		.cfi_offset 14, -4
 205              		.loc 1 213 0
 206 0002 0446     		mov	r4, r0
 207 0004 0D46     		mov	r5, r1
 208 0006 1646     		mov	r6, r2
 214:..\..\..\u8g2\u8g2\csrc/u8x8_d_st7565.c ****   /* call common procedure first and handle messages there */
 215:..\..\..\u8g2\u8g2\csrc/u8x8_d_st7565.c ****   if ( u8x8_d_st7565_common(u8x8, msg, arg_int, arg_ptr) == 0 )
 209              		.loc 1 215 0
 210 0008 FFF7FEFF 		bl	u8x8_d_st7565_common
 211              	.LVL33:
 212 000c 10BB     		cbnz	r0, .L25
 216:..\..\..\u8g2\u8g2\csrc/u8x8_d_st7565.c ****   {
 217:..\..\..\u8g2\u8g2\csrc/u8x8_d_st7565.c ****     /* msg not handled, then try here */
 218:..\..\..\u8g2\u8g2\csrc/u8x8_d_st7565.c ****     switch(msg)
 213              		.loc 1 218 0
 214 000e 0A2D     		cmp	r5, #10
 215 0010 08D0     		beq	.L21
 216 0012 0D2D     		cmp	r5, #13
 217 0014 0ED0     		beq	.L22
 218 0016 092D     		cmp	r5, #9
 219 0018 1DD1     		bne	.L20
 219:..\..\..\u8g2\u8g2\csrc/u8x8_d_st7565.c ****     {
 220:..\..\..\u8g2\u8g2\csrc/u8x8_d_st7565.c ****       case U8X8_MSG_DISPLAY_SETUP_MEMORY:
 221:..\..\..\u8g2\u8g2\csrc/u8x8_d_st7565.c **** 	u8x8_d_helper_display_setup_memory(u8x8, &u8x8_st7565_128x64_display_info);
 220              		.loc 1 221 0
 221 001a 0F49     		ldr	r1, .L27
 222 001c 2046     		mov	r0, r4
 223 001e FFF7FEFF 		bl	u8x8_d_helper_display_setup_memory
 224              	.LVL34:
ARM GAS  C:\Users\jesse\AppData\Local\Temp\cc9dv931.s 			page 9


 225 0022 17E0     		b	.L25
 226              	.L21:
 222:..\..\..\u8g2\u8g2\csrc/u8x8_d_st7565.c **** 	break;
 223:..\..\..\u8g2\u8g2\csrc/u8x8_d_st7565.c ****       case U8X8_MSG_DISPLAY_INIT:
 224:..\..\..\u8g2\u8g2\csrc/u8x8_d_st7565.c **** 	u8x8_d_helper_display_init(u8x8);
 227              		.loc 1 224 0
 228 0024 2046     		mov	r0, r4
 229 0026 FFF7FEFF 		bl	u8x8_d_helper_display_init
 230              	.LVL35:
 225:..\..\..\u8g2\u8g2\csrc/u8x8_d_st7565.c **** 	u8x8_cad_SendSequence(u8x8, u8x8_d_st7565_dogm128_init_seq);
 231              		.loc 1 225 0
 232 002a 0C49     		ldr	r1, .L27+4
 233 002c 2046     		mov	r0, r4
 234 002e FFF7FEFF 		bl	u8x8_cad_SendSequence
 235              	.LVL36:
 236 0032 0FE0     		b	.L25
 237              	.L22:
 226:..\..\..\u8g2\u8g2\csrc/u8x8_d_st7565.c **** 	break;
 227:..\..\..\u8g2\u8g2\csrc/u8x8_d_st7565.c ****       case U8X8_MSG_DISPLAY_SET_FLIP_MODE:
 228:..\..\..\u8g2\u8g2\csrc/u8x8_d_st7565.c **** 	if ( arg_int == 0 )
 238              		.loc 1 228 0
 239 0034 36B9     		cbnz	r6, .L24
 229:..\..\..\u8g2\u8g2\csrc/u8x8_d_st7565.c **** 	{
 230:..\..\..\u8g2\u8g2\csrc/u8x8_d_st7565.c **** 	  u8x8_cad_SendSequence(u8x8, u8x8_d_st7565_flip0_seq);
 240              		.loc 1 230 0
 241 0036 0A49     		ldr	r1, .L27+8
 242 0038 2046     		mov	r0, r4
 243 003a FFF7FEFF 		bl	u8x8_cad_SendSequence
 244              	.LVL37:
 231:..\..\..\u8g2\u8g2\csrc/u8x8_d_st7565.c **** 	  u8x8->x_offset = u8x8->display_info->default_x_offset;
 245              		.loc 1 231 0
 246 003e 2368     		ldr	r3, [r4]
 247 0040 9B7C     		ldrb	r3, [r3, #18]	@ zero_extendqisi2
 248 0042 05E0     		b	.L26
 249              	.L24:
 232:..\..\..\u8g2\u8g2\csrc/u8x8_d_st7565.c **** 	}
 233:..\..\..\u8g2\u8g2\csrc/u8x8_d_st7565.c **** 	else
 234:..\..\..\u8g2\u8g2\csrc/u8x8_d_st7565.c **** 	{
 235:..\..\..\u8g2\u8g2\csrc/u8x8_d_st7565.c **** 	  u8x8_cad_SendSequence(u8x8, u8x8_d_st7565_flip1_seq);
 250              		.loc 1 235 0
 251 0044 0749     		ldr	r1, .L27+12
 252 0046 2046     		mov	r0, r4
 253 0048 FFF7FEFF 		bl	u8x8_cad_SendSequence
 254              	.LVL38:
 236:..\..\..\u8g2\u8g2\csrc/u8x8_d_st7565.c **** 	  u8x8->x_offset = u8x8->display_info->flipmode_x_offset;
 255              		.loc 1 236 0
 256 004c 2368     		ldr	r3, [r4]
 257 004e DB7C     		ldrb	r3, [r3, #19]	@ zero_extendqisi2
 258              	.L26:
 259 0050 84F82230 		strb	r3, [r4, #34]
 260              	.L25:
 237:..\..\..\u8g2\u8g2\csrc/u8x8_d_st7565.c **** 	}	
 238:..\..\..\u8g2\u8g2\csrc/u8x8_d_st7565.c **** 	break;
 239:..\..\..\u8g2\u8g2\csrc/u8x8_d_st7565.c ****       default:
 240:..\..\..\u8g2\u8g2\csrc/u8x8_d_st7565.c **** 	return 0;		/* msg unknown */
 241:..\..\..\u8g2\u8g2\csrc/u8x8_d_st7565.c ****     }
 242:..\..\..\u8g2\u8g2\csrc/u8x8_d_st7565.c ****   }
ARM GAS  C:\Users\jesse\AppData\Local\Temp\cc9dv931.s 			page 10


 243:..\..\..\u8g2\u8g2\csrc/u8x8_d_st7565.c ****   return 1;
 261              		.loc 1 243 0
 262 0054 0120     		movs	r0, #1
 263              	.L20:
 244:..\..\..\u8g2\u8g2\csrc/u8x8_d_st7565.c **** }
 264              		.loc 1 244 0
 265 0056 70BD     		pop	{r4, r5, r6, pc}
 266              	.LVL39:
 267              	.L28:
 268              		.align	2
 269              	.L27:
 270 0058 10000000 		.word	.LANCHOR0+16
 271 005c 28000000 		.word	.LANCHOR0+40
 272 0060 49000000 		.word	.LANCHOR0+73
 273 0064 50000000 		.word	.LANCHOR0+80
 274              		.cfi_endproc
 275              	.LFE1:
 276              		.size	u8x8_d_st7565_ea_dogm128, .-u8x8_d_st7565_ea_dogm128
 277              		.section	.text.u8x8_d_st7565_lm6063,"ax",%progbits
 278              		.align	1
 279              		.global	u8x8_d_st7565_lm6063
 280              		.thumb
 281              		.thumb_func
 282              		.type	u8x8_d_st7565_lm6063, %function
 283              	u8x8_d_st7565_lm6063:
 284              	.LFB2:
 245:..\..\..\u8g2\u8g2\csrc/u8x8_d_st7565.c **** 
 246:..\..\..\u8g2\u8g2\csrc/u8x8_d_st7565.c **** 
 247:..\..\..\u8g2\u8g2\csrc/u8x8_d_st7565.c **** 
 248:..\..\..\u8g2\u8g2\csrc/u8x8_d_st7565.c **** /*================================================*/
 249:..\..\..\u8g2\u8g2\csrc/u8x8_d_st7565.c **** /* LM6063 https://github.com/olikraus/u8g2/issues/893 */
 250:..\..\..\u8g2\u8g2\csrc/u8x8_d_st7565.c **** 
 251:..\..\..\u8g2\u8g2\csrc/u8x8_d_st7565.c **** static const uint8_t u8x8_d_st7565_lm6063_init_seq[] = {
 252:..\..\..\u8g2\u8g2\csrc/u8x8_d_st7565.c ****     
 253:..\..\..\u8g2\u8g2\csrc/u8x8_d_st7565.c ****   U8X8_START_TRANSFER(),             	/* enable chip, delay is part of the transfer start */
 254:..\..\..\u8g2\u8g2\csrc/u8x8_d_st7565.c ****   
 255:..\..\..\u8g2\u8g2\csrc/u8x8_d_st7565.c ****   U8X8_C(0x0e2),            			/* soft reset */
 256:..\..\..\u8g2\u8g2\csrc/u8x8_d_st7565.c ****   U8X8_C(0x0ae),		                /* display off */
 257:..\..\..\u8g2\u8g2\csrc/u8x8_d_st7565.c ****   U8X8_C(0x040),		                /* set display start line to 0 */
 258:..\..\..\u8g2\u8g2\csrc/u8x8_d_st7565.c ****   
 259:..\..\..\u8g2\u8g2\csrc/u8x8_d_st7565.c ****   U8X8_C(0x0a1),		                /* ADC set to reverse */
 260:..\..\..\u8g2\u8g2\csrc/u8x8_d_st7565.c ****   U8X8_C(0x0c0),		                /* common output mode */
 261:..\..\..\u8g2\u8g2\csrc/u8x8_d_st7565.c ****   // Flipmode
 262:..\..\..\u8g2\u8g2\csrc/u8x8_d_st7565.c ****   // U8X8_C(0x0a0),		                /* ADC set to reverse */
 263:..\..\..\u8g2\u8g2\csrc/u8x8_d_st7565.c ****   // U8X8_C(0x0c8),		                /* common output mode */
 264:..\..\..\u8g2\u8g2\csrc/u8x8_d_st7565.c ****   
 265:..\..\..\u8g2\u8g2\csrc/u8x8_d_st7565.c ****   U8X8_C(0x0a6),		                /* display normal, bit val 0: LCD pixel off. */
 266:..\..\..\u8g2\u8g2\csrc/u8x8_d_st7565.c ****   U8X8_C(0x0a2),		                /* LCD bias 1/9 */
 267:..\..\..\u8g2\u8g2\csrc/u8x8_d_st7565.c ****   U8X8_C(0x02f),		                /* all power  control circuits on (regulator, booster and followe
 268:..\..\..\u8g2\u8g2\csrc/u8x8_d_st7565.c ****   U8X8_CA(0x0f8, 0x000),		/* set booster ratio to 4x */
 269:..\..\..\u8g2\u8g2\csrc/u8x8_d_st7565.c ****   U8X8_C(0x027),		                /* set V0 voltage resistor ratio to max  */
 270:..\..\..\u8g2\u8g2\csrc/u8x8_d_st7565.c ****   U8X8_CA(0x081, 50/4),		/* set contrast, contrast value, 40..60 seems to be good */
 271:..\..\..\u8g2\u8g2\csrc/u8x8_d_st7565.c ****   
 272:..\..\..\u8g2\u8g2\csrc/u8x8_d_st7565.c ****   U8X8_C(0x0ae),		                /* display off */
 273:..\..\..\u8g2\u8g2\csrc/u8x8_d_st7565.c ****   U8X8_C(0x0a5),		                /* enter powersafe: all pixel on, issue 142 */
 274:..\..\..\u8g2\u8g2\csrc/u8x8_d_st7565.c ****   
 275:..\..\..\u8g2\u8g2\csrc/u8x8_d_st7565.c ****   U8X8_END_TRANSFER(),             	/* disable chip */
ARM GAS  C:\Users\jesse\AppData\Local\Temp\cc9dv931.s 			page 11


 276:..\..\..\u8g2\u8g2\csrc/u8x8_d_st7565.c ****   U8X8_END()             			/* end of sequence */
 277:..\..\..\u8g2\u8g2\csrc/u8x8_d_st7565.c **** };
 278:..\..\..\u8g2\u8g2\csrc/u8x8_d_st7565.c **** 
 279:..\..\..\u8g2\u8g2\csrc/u8x8_d_st7565.c **** uint8_t u8x8_d_st7565_lm6063(u8x8_t *u8x8, uint8_t msg, uint8_t arg_int, void *arg_ptr)
 280:..\..\..\u8g2\u8g2\csrc/u8x8_d_st7565.c **** {
 285              		.loc 1 280 0
 286              		.cfi_startproc
 287              		@ args = 0, pretend = 0, frame = 0
 288              		@ frame_needed = 0, uses_anonymous_args = 0
 289              	.LVL40:
 290 0000 70B5     		push	{r4, r5, r6, lr}
 291              		.cfi_def_cfa_offset 16
 292              		.cfi_offset 4, -16
 293              		.cfi_offset 5, -12
 294              		.cfi_offset 6, -8
 295              		.cfi_offset 14, -4
 296              		.loc 1 280 0
 297 0002 0446     		mov	r4, r0
 298 0004 0D46     		mov	r5, r1
 299 0006 1646     		mov	r6, r2
 281:..\..\..\u8g2\u8g2\csrc/u8x8_d_st7565.c ****   /* call common procedure first and handle messages there */
 282:..\..\..\u8g2\u8g2\csrc/u8x8_d_st7565.c ****   if ( u8x8_d_st7565_common(u8x8, msg, arg_int, arg_ptr) == 0 )
 300              		.loc 1 282 0
 301 0008 FFF7FEFF 		bl	u8x8_d_st7565_common
 302              	.LVL41:
 303 000c 10BB     		cbnz	r0, .L35
 283:..\..\..\u8g2\u8g2\csrc/u8x8_d_st7565.c ****   {
 284:..\..\..\u8g2\u8g2\csrc/u8x8_d_st7565.c ****     /* msg not handled, then try here */
 285:..\..\..\u8g2\u8g2\csrc/u8x8_d_st7565.c ****     switch(msg)
 304              		.loc 1 285 0
 305 000e 0A2D     		cmp	r5, #10
 306 0010 08D0     		beq	.L31
 307 0012 0D2D     		cmp	r5, #13
 308 0014 0ED0     		beq	.L32
 309 0016 092D     		cmp	r5, #9
 310 0018 1DD1     		bne	.L30
 286:..\..\..\u8g2\u8g2\csrc/u8x8_d_st7565.c ****     {
 287:..\..\..\u8g2\u8g2\csrc/u8x8_d_st7565.c ****       case U8X8_MSG_DISPLAY_SETUP_MEMORY:
 288:..\..\..\u8g2\u8g2\csrc/u8x8_d_st7565.c **** 	u8x8_d_helper_display_setup_memory(u8x8, &u8x8_st7565_128x64_display_info);
 311              		.loc 1 288 0
 312 001a 0F49     		ldr	r1, .L37
 313 001c 2046     		mov	r0, r4
 314 001e FFF7FEFF 		bl	u8x8_d_helper_display_setup_memory
 315              	.LVL42:
 316 0022 17E0     		b	.L35
 317              	.L31:
 289:..\..\..\u8g2\u8g2\csrc/u8x8_d_st7565.c **** 	break;
 290:..\..\..\u8g2\u8g2\csrc/u8x8_d_st7565.c ****       case U8X8_MSG_DISPLAY_INIT:
 291:..\..\..\u8g2\u8g2\csrc/u8x8_d_st7565.c **** 	u8x8_d_helper_display_init(u8x8);
 318              		.loc 1 291 0
 319 0024 2046     		mov	r0, r4
 320 0026 FFF7FEFF 		bl	u8x8_d_helper_display_init
 321              	.LVL43:
 292:..\..\..\u8g2\u8g2\csrc/u8x8_d_st7565.c **** 	u8x8_cad_SendSequence(u8x8, u8x8_d_st7565_lm6063_init_seq);
 322              		.loc 1 292 0
 323 002a 0C49     		ldr	r1, .L37+4
 324 002c 2046     		mov	r0, r4
ARM GAS  C:\Users\jesse\AppData\Local\Temp\cc9dv931.s 			page 12


 325 002e FFF7FEFF 		bl	u8x8_cad_SendSequence
 326              	.LVL44:
 327 0032 0FE0     		b	.L35
 328              	.L32:
 293:..\..\..\u8g2\u8g2\csrc/u8x8_d_st7565.c **** 	break;
 294:..\..\..\u8g2\u8g2\csrc/u8x8_d_st7565.c ****       case U8X8_MSG_DISPLAY_SET_FLIP_MODE:
 295:..\..\..\u8g2\u8g2\csrc/u8x8_d_st7565.c **** 	if ( arg_int == 0 )
 329              		.loc 1 295 0
 330 0034 36B9     		cbnz	r6, .L34
 296:..\..\..\u8g2\u8g2\csrc/u8x8_d_st7565.c **** 	{
 297:..\..\..\u8g2\u8g2\csrc/u8x8_d_st7565.c **** 	  u8x8_cad_SendSequence(u8x8, u8x8_d_st7565_flip0_seq);
 331              		.loc 1 297 0
 332 0036 0A49     		ldr	r1, .L37+8
 333 0038 2046     		mov	r0, r4
 334 003a FFF7FEFF 		bl	u8x8_cad_SendSequence
 335              	.LVL45:
 298:..\..\..\u8g2\u8g2\csrc/u8x8_d_st7565.c **** 	  u8x8->x_offset = u8x8->display_info->default_x_offset;
 336              		.loc 1 298 0
 337 003e 2368     		ldr	r3, [r4]
 338 0040 9B7C     		ldrb	r3, [r3, #18]	@ zero_extendqisi2
 339 0042 05E0     		b	.L36
 340              	.L34:
 299:..\..\..\u8g2\u8g2\csrc/u8x8_d_st7565.c **** 	}
 300:..\..\..\u8g2\u8g2\csrc/u8x8_d_st7565.c **** 	else
 301:..\..\..\u8g2\u8g2\csrc/u8x8_d_st7565.c **** 	{
 302:..\..\..\u8g2\u8g2\csrc/u8x8_d_st7565.c **** 	  u8x8_cad_SendSequence(u8x8, u8x8_d_st7565_flip1_seq);
 341              		.loc 1 302 0
 342 0044 0749     		ldr	r1, .L37+12
 343 0046 2046     		mov	r0, r4
 344 0048 FFF7FEFF 		bl	u8x8_cad_SendSequence
 345              	.LVL46:
 303:..\..\..\u8g2\u8g2\csrc/u8x8_d_st7565.c **** 	  u8x8->x_offset = u8x8->display_info->flipmode_x_offset;
 346              		.loc 1 303 0
 347 004c 2368     		ldr	r3, [r4]
 348 004e DB7C     		ldrb	r3, [r3, #19]	@ zero_extendqisi2
 349              	.L36:
 350 0050 84F82230 		strb	r3, [r4, #34]
 351              	.L35:
 304:..\..\..\u8g2\u8g2\csrc/u8x8_d_st7565.c **** 	}	
 305:..\..\..\u8g2\u8g2\csrc/u8x8_d_st7565.c **** 	break;
 306:..\..\..\u8g2\u8g2\csrc/u8x8_d_st7565.c ****       default:
 307:..\..\..\u8g2\u8g2\csrc/u8x8_d_st7565.c **** 	return 0;		/* msg unknown */
 308:..\..\..\u8g2\u8g2\csrc/u8x8_d_st7565.c ****     }
 309:..\..\..\u8g2\u8g2\csrc/u8x8_d_st7565.c ****   }
 310:..\..\..\u8g2\u8g2\csrc/u8x8_d_st7565.c ****   return 1;
 352              		.loc 1 310 0
 353 0054 0120     		movs	r0, #1
 354              	.L30:
 311:..\..\..\u8g2\u8g2\csrc/u8x8_d_st7565.c **** }
 355              		.loc 1 311 0
 356 0056 70BD     		pop	{r4, r5, r6, pc}
 357              	.LVL47:
 358              	.L38:
 359              		.align	2
 360              	.L37:
 361 0058 10000000 		.word	.LANCHOR0+16
 362 005c 57000000 		.word	.LANCHOR0+87
ARM GAS  C:\Users\jesse\AppData\Local\Temp\cc9dv931.s 			page 13


 363 0060 49000000 		.word	.LANCHOR0+73
 364 0064 50000000 		.word	.LANCHOR0+80
 365              		.cfi_endproc
 366              	.LFE2:
 367              		.size	u8x8_d_st7565_lm6063, .-u8x8_d_st7565_lm6063
 368              		.section	.text.u8x8_d_st7565_64128n,"ax",%progbits
 369              		.align	1
 370              		.global	u8x8_d_st7565_64128n
 371              		.thumb
 372              		.thumb_func
 373              		.type	u8x8_d_st7565_64128n, %function
 374              	u8x8_d_st7565_64128n:
 375              	.LFB3:
 312:..\..\..\u8g2\u8g2\csrc/u8x8_d_st7565.c **** 
 313:..\..\..\u8g2\u8g2\csrc/u8x8_d_st7565.c **** 
 314:..\..\..\u8g2\u8g2\csrc/u8x8_d_st7565.c **** /*================================================*/
 315:..\..\..\u8g2\u8g2\csrc/u8x8_d_st7565.c **** /* Displaytech 64128n */
 316:..\..\..\u8g2\u8g2\csrc/u8x8_d_st7565.c **** 
 317:..\..\..\u8g2\u8g2\csrc/u8x8_d_st7565.c **** static const uint8_t u8x8_d_st7565_64128n_init_seq[] = {
 318:..\..\..\u8g2\u8g2\csrc/u8x8_d_st7565.c ****     
 319:..\..\..\u8g2\u8g2\csrc/u8x8_d_st7565.c ****   U8X8_START_TRANSFER(),             	/* enable chip, delay is part of the transfer start */
 320:..\..\..\u8g2\u8g2\csrc/u8x8_d_st7565.c **** 
 321:..\..\..\u8g2\u8g2\csrc/u8x8_d_st7565.c ****   #ifdef NOT_WORKING
 322:..\..\..\u8g2\u8g2\csrc/u8x8_d_st7565.c ****   
 323:..\..\..\u8g2\u8g2\csrc/u8x8_d_st7565.c ****   U8X8_C(0x0e2),            			/* soft reset */
 324:..\..\..\u8g2\u8g2\csrc/u8x8_d_st7565.c ****   U8X8_C(0x0ae),		                /* display off */
 325:..\..\..\u8g2\u8g2\csrc/u8x8_d_st7565.c ****   U8X8_C(0x040),		                /* set display start line to 0 */
 326:..\..\..\u8g2\u8g2\csrc/u8x8_d_st7565.c ****   
 327:..\..\..\u8g2\u8g2\csrc/u8x8_d_st7565.c ****   U8X8_C(0x0a1),		                /* ADC set to reverse */
 328:..\..\..\u8g2\u8g2\csrc/u8x8_d_st7565.c ****   U8X8_C(0x0c0),		                /* common output mode */
 329:..\..\..\u8g2\u8g2\csrc/u8x8_d_st7565.c ****   // Flipmode
 330:..\..\..\u8g2\u8g2\csrc/u8x8_d_st7565.c ****   // U8X8_C(0x0a0),		                /* ADC set to reverse */
 331:..\..\..\u8g2\u8g2\csrc/u8x8_d_st7565.c ****   // U8X8_C(0x0c8),		                /* common output mode */
 332:..\..\..\u8g2\u8g2\csrc/u8x8_d_st7565.c ****   
 333:..\..\..\u8g2\u8g2\csrc/u8x8_d_st7565.c ****   U8X8_C(0x0a6),		                /* display normal, bit val 0: LCD pixel off. */
 334:..\..\..\u8g2\u8g2\csrc/u8x8_d_st7565.c ****   U8X8_C(0x0a2),		                /* LCD bias 1/9 */
 335:..\..\..\u8g2\u8g2\csrc/u8x8_d_st7565.c ****   U8X8_C(0x02f),		                /* all power  control circuits on */
 336:..\..\..\u8g2\u8g2\csrc/u8x8_d_st7565.c ****   //U8X8_CA(0x0f8, 0x000),		/* set booster ratio to 4x */
 337:..\..\..\u8g2\u8g2\csrc/u8x8_d_st7565.c ****   //U8X8_C(0x027),		                /* set V0 voltage resistor ratio to max  */
 338:..\..\..\u8g2\u8g2\csrc/u8x8_d_st7565.c **** 
 339:..\..\..\u8g2\u8g2\csrc/u8x8_d_st7565.c ****   U8X8_C(0x010),                   		/* Set V0 voltage resistor ratio. Setting for controlling brig
 340:..\..\..\u8g2\u8g2\csrc/u8x8_d_st7565.c ****   
 341:..\..\..\u8g2\u8g2\csrc/u8x8_d_st7565.c ****   
 342:..\..\..\u8g2\u8g2\csrc/u8x8_d_st7565.c ****   U8X8_CA(0x081, 0x01e),		/* set contrast, contrast value */
 343:..\..\..\u8g2\u8g2\csrc/u8x8_d_st7565.c ****   
 344:..\..\..\u8g2\u8g2\csrc/u8x8_d_st7565.c ****   U8X8_C(0x0ae),		                /* display off */
 345:..\..\..\u8g2\u8g2\csrc/u8x8_d_st7565.c ****   U8X8_C(0x0a5),		                /* enter powersafe: all pixel on, issue 142 */
 346:..\..\..\u8g2\u8g2\csrc/u8x8_d_st7565.c **** #else
 347:..\..\..\u8g2\u8g2\csrc/u8x8_d_st7565.c **** 
 348:..\..\..\u8g2\u8g2\csrc/u8x8_d_st7565.c **** 
 349:..\..\..\u8g2\u8g2\csrc/u8x8_d_st7565.c ****   U8X8_C(0x0e2),            	   /* soft reset */
 350:..\..\..\u8g2\u8g2\csrc/u8x8_d_st7565.c ****   U8X8_C(0x0A2),   				   /* 0x0a2: LCD bias 1/9 (according to Displaytech 64128N datasheet) */
 351:..\..\..\u8g2\u8g2\csrc/u8x8_d_st7565.c ****   
 352:..\..\..\u8g2\u8g2\csrc/u8x8_d_st7565.c ****   U8X8_C(0x0a1),		                /* ADC set to reverse */
 353:..\..\..\u8g2\u8g2\csrc/u8x8_d_st7565.c ****   U8X8_C(0x0c0),		                /* common output mode */
 354:..\..\..\u8g2\u8g2\csrc/u8x8_d_st7565.c ****   //U8X8_C(0x0A0),  				   /* Normal ADC Select (according to Displaytech 64128N datasheet) */
 355:..\..\..\u8g2\u8g2\csrc/u8x8_d_st7565.c ****   //U8X8_C(0x0c8),                   /* common output mode: set scan direction normal operation/SHL
ARM GAS  C:\Users\jesse\AppData\Local\Temp\cc9dv931.s 			page 14


 356:..\..\..\u8g2\u8g2\csrc/u8x8_d_st7565.c ****   
 357:..\..\..\u8g2\u8g2\csrc/u8x8_d_st7565.c ****   U8X8_C(0x040),		           /* Display start line for Displaytech 64128N */
 358:..\..\..\u8g2\u8g2\csrc/u8x8_d_st7565.c ****   U8X8_C(0x028 | 0x04),            /* power control: turn on voltage converter */
 359:..\..\..\u8g2\u8g2\csrc/u8x8_d_st7565.c ****   U8X8_C(0x028 | 0x06),            /* power control: turn on voltage regulator */
 360:..\..\..\u8g2\u8g2\csrc/u8x8_d_st7565.c ****   U8X8_C(0x028 | 0x07),            /* power control: turn on voltage follower */
 361:..\..\..\u8g2\u8g2\csrc/u8x8_d_st7565.c ****   U8X8_C(0x010),                   /* Set V0 voltage resistor ratio. Setting for controlling bright
 362:..\..\..\u8g2\u8g2\csrc/u8x8_d_st7565.c **** 					      /* 19 Jul 17: Not sure if this is true, cmd 0x1? is used to set the column */
 363:..\..\..\u8g2\u8g2\csrc/u8x8_d_st7565.c ****   U8X8_C(0x0a6),                   /* display normal, bit val 0: LCD pixel off. */
 364:..\..\..\u8g2\u8g2\csrc/u8x8_d_st7565.c ****   U8X8_C(0x081),      	           /* set contrast */
 365:..\..\..\u8g2\u8g2\csrc/u8x8_d_st7565.c ****   U8X8_C(0x01e),        	       /* Contrast value. Setting for controlling brightness of Displaytec
 366:..\..\..\u8g2\u8g2\csrc/u8x8_d_st7565.c ****   //U8X8_C(0x0af),		           /* display on */
 367:..\..\..\u8g2\u8g2\csrc/u8x8_d_st7565.c ****   //U8X8_C(0x0a5),		           /* display all points, ST7565 */
 368:..\..\..\u8g2\u8g2\csrc/u8x8_d_st7565.c ****   //U8X8_C(0x0a4),		           /* normal display */
 369:..\..\..\u8g2\u8g2\csrc/u8x8_d_st7565.c **** 
 370:..\..\..\u8g2\u8g2\csrc/u8x8_d_st7565.c ****   U8X8_C(0x0ae),		                /* display off */
 371:..\..\..\u8g2\u8g2\csrc/u8x8_d_st7565.c **** 
 372:..\..\..\u8g2\u8g2\csrc/u8x8_d_st7565.c **** 
 373:..\..\..\u8g2\u8g2\csrc/u8x8_d_st7565.c **** #endif
 374:..\..\..\u8g2\u8g2\csrc/u8x8_d_st7565.c **** 
 375:..\..\..\u8g2\u8g2\csrc/u8x8_d_st7565.c ****   U8X8_END_TRANSFER(),             	/* disable chip */
 376:..\..\..\u8g2\u8g2\csrc/u8x8_d_st7565.c ****   U8X8_END()             			/* end of sequence */
 377:..\..\..\u8g2\u8g2\csrc/u8x8_d_st7565.c **** };
 378:..\..\..\u8g2\u8g2\csrc/u8x8_d_st7565.c **** 
 379:..\..\..\u8g2\u8g2\csrc/u8x8_d_st7565.c **** static const u8x8_display_info_t u8x8_st7565_64128n_display_info =
 380:..\..\..\u8g2\u8g2\csrc/u8x8_d_st7565.c **** {
 381:..\..\..\u8g2\u8g2\csrc/u8x8_d_st7565.c ****   /* chip_enable_level = */ 0,
 382:..\..\..\u8g2\u8g2\csrc/u8x8_d_st7565.c ****   /* chip_disable_level = */ 1,
 383:..\..\..\u8g2\u8g2\csrc/u8x8_d_st7565.c ****   
 384:..\..\..\u8g2\u8g2\csrc/u8x8_d_st7565.c ****   /* post_chip_enable_wait_ns = */ 150,	/* st7565 datasheet, table 26, tcsh */
 385:..\..\..\u8g2\u8g2\csrc/u8x8_d_st7565.c ****   /* pre_chip_disable_wait_ns = */ 50,	/* st7565 datasheet, table 26, tcss */
 386:..\..\..\u8g2\u8g2\csrc/u8x8_d_st7565.c ****   /* reset_pulse_width_ms = */ 1, 
 387:..\..\..\u8g2\u8g2\csrc/u8x8_d_st7565.c ****   /* post_reset_wait_ms = */ 1, 
 388:..\..\..\u8g2\u8g2\csrc/u8x8_d_st7565.c ****   /* sda_setup_time_ns = */ 50,		/* st7565 datasheet, table 26, tsds */
 389:..\..\..\u8g2\u8g2\csrc/u8x8_d_st7565.c ****   /* sck_pulse_width_ns = */ 120,	/* half of cycle time (100ns according to datasheet), AVR: below 
 390:..\..\..\u8g2\u8g2\csrc/u8x8_d_st7565.c ****   /* sck_clock_hz = */ 4000000UL,	/* since Arduino 1.6.0, the SPI bus speed in Hz. Should be  10000
 391:..\..\..\u8g2\u8g2\csrc/u8x8_d_st7565.c ****   /* spi_mode = */ 0,		/* active high, rising edge */
 392:..\..\..\u8g2\u8g2\csrc/u8x8_d_st7565.c ****   /* i2c_bus_clock_100kHz = */ 4,
 393:..\..\..\u8g2\u8g2\csrc/u8x8_d_st7565.c ****   /* data_setup_time_ns = */ 40,	/* st7565 datasheet, table 24, tds8 */
 394:..\..\..\u8g2\u8g2\csrc/u8x8_d_st7565.c ****   /* write_pulse_width_ns = */ 80,	/* st7565 datasheet, table 24, tcclw */
 395:..\..\..\u8g2\u8g2\csrc/u8x8_d_st7565.c ****   /* tile_width = */ 16,		/* width of 16*8=128 pixel */
 396:..\..\..\u8g2\u8g2\csrc/u8x8_d_st7565.c ****   /* tile_hight = */ 8,
 397:..\..\..\u8g2\u8g2\csrc/u8x8_d_st7565.c ****   /* default_x_offset = */ 4,
 398:..\..\..\u8g2\u8g2\csrc/u8x8_d_st7565.c ****   /* flipmode_x_offset = */ 0,
 399:..\..\..\u8g2\u8g2\csrc/u8x8_d_st7565.c ****   /* pixel_width = */ 128,
 400:..\..\..\u8g2\u8g2\csrc/u8x8_d_st7565.c ****   /* pixel_height = */ 64
 401:..\..\..\u8g2\u8g2\csrc/u8x8_d_st7565.c **** };
 402:..\..\..\u8g2\u8g2\csrc/u8x8_d_st7565.c **** 
 403:..\..\..\u8g2\u8g2\csrc/u8x8_d_st7565.c **** uint8_t u8x8_d_st7565_64128n(u8x8_t *u8x8, uint8_t msg, uint8_t arg_int, void *arg_ptr)
 404:..\..\..\u8g2\u8g2\csrc/u8x8_d_st7565.c **** {
 376              		.loc 1 404 0
 377              		.cfi_startproc
 378              		@ args = 0, pretend = 0, frame = 0
 379              		@ frame_needed = 0, uses_anonymous_args = 0
 380              	.LVL48:
 381 0000 70B5     		push	{r4, r5, r6, lr}
 382              		.cfi_def_cfa_offset 16
 383              		.cfi_offset 4, -16
ARM GAS  C:\Users\jesse\AppData\Local\Temp\cc9dv931.s 			page 15


 384              		.cfi_offset 5, -12
 385              		.cfi_offset 6, -8
 386              		.cfi_offset 14, -4
 387              		.loc 1 404 0
 388 0002 0446     		mov	r4, r0
 389 0004 0D46     		mov	r5, r1
 390 0006 1646     		mov	r6, r2
 405:..\..\..\u8g2\u8g2\csrc/u8x8_d_st7565.c ****   /* call common procedure first and handle messages there */
 406:..\..\..\u8g2\u8g2\csrc/u8x8_d_st7565.c ****   if ( u8x8_d_st7565_common(u8x8, msg, arg_int, arg_ptr) == 0 )
 391              		.loc 1 406 0
 392 0008 FFF7FEFF 		bl	u8x8_d_st7565_common
 393              	.LVL49:
 394 000c 10BB     		cbnz	r0, .L45
 407:..\..\..\u8g2\u8g2\csrc/u8x8_d_st7565.c ****   {
 408:..\..\..\u8g2\u8g2\csrc/u8x8_d_st7565.c ****     /* msg not handled, then try here */
 409:..\..\..\u8g2\u8g2\csrc/u8x8_d_st7565.c ****     switch(msg)
 395              		.loc 1 409 0
 396 000e 0A2D     		cmp	r5, #10
 397 0010 08D0     		beq	.L41
 398 0012 0D2D     		cmp	r5, #13
 399 0014 0ED0     		beq	.L42
 400 0016 092D     		cmp	r5, #9
 401 0018 1DD1     		bne	.L40
 410:..\..\..\u8g2\u8g2\csrc/u8x8_d_st7565.c ****     {
 411:..\..\..\u8g2\u8g2\csrc/u8x8_d_st7565.c ****       case U8X8_MSG_DISPLAY_SETUP_MEMORY:
 412:..\..\..\u8g2\u8g2\csrc/u8x8_d_st7565.c **** 	u8x8_d_helper_display_setup_memory(u8x8, &u8x8_st7565_64128n_display_info);
 402              		.loc 1 412 0
 403 001a 0F49     		ldr	r1, .L47
 404 001c 2046     		mov	r0, r4
 405 001e FFF7FEFF 		bl	u8x8_d_helper_display_setup_memory
 406              	.LVL50:
 407 0022 17E0     		b	.L45
 408              	.L41:
 413:..\..\..\u8g2\u8g2\csrc/u8x8_d_st7565.c **** 	break;
 414:..\..\..\u8g2\u8g2\csrc/u8x8_d_st7565.c ****       case U8X8_MSG_DISPLAY_INIT:
 415:..\..\..\u8g2\u8g2\csrc/u8x8_d_st7565.c **** 	u8x8_d_helper_display_init(u8x8);
 409              		.loc 1 415 0
 410 0024 2046     		mov	r0, r4
 411 0026 FFF7FEFF 		bl	u8x8_d_helper_display_init
 412              	.LVL51:
 416:..\..\..\u8g2\u8g2\csrc/u8x8_d_st7565.c **** 	u8x8_cad_SendSequence(u8x8, u8x8_d_st7565_64128n_init_seq);
 413              		.loc 1 416 0
 414 002a 0C49     		ldr	r1, .L47+4
 415 002c 2046     		mov	r0, r4
 416 002e FFF7FEFF 		bl	u8x8_cad_SendSequence
 417              	.LVL52:
 418 0032 0FE0     		b	.L45
 419              	.L42:
 417:..\..\..\u8g2\u8g2\csrc/u8x8_d_st7565.c **** 	break;
 418:..\..\..\u8g2\u8g2\csrc/u8x8_d_st7565.c ****       case U8X8_MSG_DISPLAY_SET_FLIP_MODE:
 419:..\..\..\u8g2\u8g2\csrc/u8x8_d_st7565.c **** 	if ( arg_int == 0 )
 420              		.loc 1 419 0
 421 0034 36B9     		cbnz	r6, .L44
 420:..\..\..\u8g2\u8g2\csrc/u8x8_d_st7565.c **** 	{
 421:..\..\..\u8g2\u8g2\csrc/u8x8_d_st7565.c **** 	  u8x8_cad_SendSequence(u8x8, u8x8_d_st7565_flip0_seq);
 422              		.loc 1 421 0
 423 0036 0A49     		ldr	r1, .L47+8
ARM GAS  C:\Users\jesse\AppData\Local\Temp\cc9dv931.s 			page 16


 424 0038 2046     		mov	r0, r4
 425 003a FFF7FEFF 		bl	u8x8_cad_SendSequence
 426              	.LVL53:
 422:..\..\..\u8g2\u8g2\csrc/u8x8_d_st7565.c **** 	  u8x8->x_offset = u8x8->display_info->default_x_offset;
 427              		.loc 1 422 0
 428 003e 2368     		ldr	r3, [r4]
 429 0040 9B7C     		ldrb	r3, [r3, #18]	@ zero_extendqisi2
 430 0042 05E0     		b	.L46
 431              	.L44:
 423:..\..\..\u8g2\u8g2\csrc/u8x8_d_st7565.c **** 	}
 424:..\..\..\u8g2\u8g2\csrc/u8x8_d_st7565.c **** 	else
 425:..\..\..\u8g2\u8g2\csrc/u8x8_d_st7565.c **** 	{
 426:..\..\..\u8g2\u8g2\csrc/u8x8_d_st7565.c **** 	  u8x8_cad_SendSequence(u8x8, u8x8_d_st7565_flip1_seq);
 432              		.loc 1 426 0
 433 0044 0749     		ldr	r1, .L47+12
 434 0046 2046     		mov	r0, r4
 435 0048 FFF7FEFF 		bl	u8x8_cad_SendSequence
 436              	.LVL54:
 427:..\..\..\u8g2\u8g2\csrc/u8x8_d_st7565.c **** 	  u8x8->x_offset = u8x8->display_info->flipmode_x_offset;
 437              		.loc 1 427 0
 438 004c 2368     		ldr	r3, [r4]
 439 004e DB7C     		ldrb	r3, [r3, #19]	@ zero_extendqisi2
 440              	.L46:
 441 0050 84F82230 		strb	r3, [r4, #34]
 442              	.L45:
 428:..\..\..\u8g2\u8g2\csrc/u8x8_d_st7565.c **** 	}	
 429:..\..\..\u8g2\u8g2\csrc/u8x8_d_st7565.c **** 	break;
 430:..\..\..\u8g2\u8g2\csrc/u8x8_d_st7565.c ****       default:
 431:..\..\..\u8g2\u8g2\csrc/u8x8_d_st7565.c **** 	return 0;		/* msg unknown */
 432:..\..\..\u8g2\u8g2\csrc/u8x8_d_st7565.c ****     }
 433:..\..\..\u8g2\u8g2\csrc/u8x8_d_st7565.c ****   }
 434:..\..\..\u8g2\u8g2\csrc/u8x8_d_st7565.c ****   return 1;
 443              		.loc 1 434 0
 444 0054 0120     		movs	r0, #1
 445              	.L40:
 435:..\..\..\u8g2\u8g2\csrc/u8x8_d_st7565.c **** }
 446              		.loc 1 435 0
 447 0056 70BD     		pop	{r4, r5, r6, pc}
 448              	.LVL55:
 449              	.L48:
 450              		.align	2
 451              	.L47:
 452 0058 78000000 		.word	.LANCHOR0+120
 453 005c 90000000 		.word	.LANCHOR0+144
 454 0060 49000000 		.word	.LANCHOR0+73
 455 0064 50000000 		.word	.LANCHOR0+80
 456              		.cfi_endproc
 457              	.LFE3:
 458              		.size	u8x8_d_st7565_64128n, .-u8x8_d_st7565_64128n
 459              		.section	.text.u8x8_d_st7565_zolen_128x64,"ax",%progbits
 460              		.align	1
 461              		.global	u8x8_d_st7565_zolen_128x64
 462              		.thumb
 463              		.thumb_func
 464              		.type	u8x8_d_st7565_zolen_128x64, %function
 465              	u8x8_d_st7565_zolen_128x64:
 466              	.LFB4:
ARM GAS  C:\Users\jesse\AppData\Local\Temp\cc9dv931.s 			page 17


 436:..\..\..\u8g2\u8g2\csrc/u8x8_d_st7565.c **** 
 437:..\..\..\u8g2\u8g2\csrc/u8x8_d_st7565.c **** /*================================================*/
 438:..\..\..\u8g2\u8g2\csrc/u8x8_d_st7565.c **** /* ZOLEN 128x64  */
 439:..\..\..\u8g2\u8g2\csrc/u8x8_d_st7565.c **** 
 440:..\..\..\u8g2\u8g2\csrc/u8x8_d_st7565.c **** static const uint8_t u8x8_d_st7565_zolen_128x64_init_seq[] = {
 441:..\..\..\u8g2\u8g2\csrc/u8x8_d_st7565.c ****     
 442:..\..\..\u8g2\u8g2\csrc/u8x8_d_st7565.c ****   U8X8_START_TRANSFER(),             	/* enable chip, delay is part of the transfer start */
 443:..\..\..\u8g2\u8g2\csrc/u8x8_d_st7565.c ****   
 444:..\..\..\u8g2\u8g2\csrc/u8x8_d_st7565.c ****   U8X8_C(0x0e2),            			/* soft reset */
 445:..\..\..\u8g2\u8g2\csrc/u8x8_d_st7565.c ****   U8X8_C(0x0ae),		                /* display off */
 446:..\..\..\u8g2\u8g2\csrc/u8x8_d_st7565.c ****   U8X8_C(0x040),		                /* set display start line to 0 */
 447:..\..\..\u8g2\u8g2\csrc/u8x8_d_st7565.c ****   
 448:..\..\..\u8g2\u8g2\csrc/u8x8_d_st7565.c ****   U8X8_C(0x0a1),		                /* ADC set to reverse */
 449:..\..\..\u8g2\u8g2\csrc/u8x8_d_st7565.c ****   U8X8_C(0x0c8),		                /* common output mode */
 450:..\..\..\u8g2\u8g2\csrc/u8x8_d_st7565.c ****   // Flipmode
 451:..\..\..\u8g2\u8g2\csrc/u8x8_d_st7565.c ****   // U8X8_C(0x0a0),		                /* ADC set to reverse */
 452:..\..\..\u8g2\u8g2\csrc/u8x8_d_st7565.c ****   // U8X8_C(0x0c0),		                /* common output mode */
 453:..\..\..\u8g2\u8g2\csrc/u8x8_d_st7565.c ****   
 454:..\..\..\u8g2\u8g2\csrc/u8x8_d_st7565.c ****   U8X8_C(0x0a6),		                /* display normal, bit val 0: LCD pixel off. */
 455:..\..\..\u8g2\u8g2\csrc/u8x8_d_st7565.c ****   U8X8_C(0x0a2),		                /* LCD bias 1/9 */
 456:..\..\..\u8g2\u8g2\csrc/u8x8_d_st7565.c ****   U8X8_C(0x02f),		                /* all power  control circuits on (regulator, booster and followe
 457:..\..\..\u8g2\u8g2\csrc/u8x8_d_st7565.c ****   U8X8_CA(0x0f8, 0x000),		/* set booster ratio to 4x */
 458:..\..\..\u8g2\u8g2\csrc/u8x8_d_st7565.c ****   U8X8_C(0x027),		                /* set V0 voltage resistor ratio to max  */
 459:..\..\..\u8g2\u8g2\csrc/u8x8_d_st7565.c ****   U8X8_CA(0x081, 0x007),		/* set contrast, contrast value, EA default: 0x016 */
 460:..\..\..\u8g2\u8g2\csrc/u8x8_d_st7565.c ****   
 461:..\..\..\u8g2\u8g2\csrc/u8x8_d_st7565.c ****   U8X8_C(0x0ae),		                /* display off */
 462:..\..\..\u8g2\u8g2\csrc/u8x8_d_st7565.c ****   U8X8_C(0x0a5),		                /* enter powersafe: all pixel on, issue 142 */
 463:..\..\..\u8g2\u8g2\csrc/u8x8_d_st7565.c ****   
 464:..\..\..\u8g2\u8g2\csrc/u8x8_d_st7565.c ****   U8X8_END_TRANSFER(),             	/* disable chip */
 465:..\..\..\u8g2\u8g2\csrc/u8x8_d_st7565.c ****   U8X8_END()             			/* end of sequence */
 466:..\..\..\u8g2\u8g2\csrc/u8x8_d_st7565.c **** };
 467:..\..\..\u8g2\u8g2\csrc/u8x8_d_st7565.c **** 
 468:..\..\..\u8g2\u8g2\csrc/u8x8_d_st7565.c **** uint8_t u8x8_d_st7565_zolen_128x64(u8x8_t *u8x8, uint8_t msg, uint8_t arg_int, void *arg_ptr)
 469:..\..\..\u8g2\u8g2\csrc/u8x8_d_st7565.c **** {
 467              		.loc 1 469 0
 468              		.cfi_startproc
 469              		@ args = 0, pretend = 0, frame = 0
 470              		@ frame_needed = 0, uses_anonymous_args = 0
 471              	.LVL56:
 472 0000 70B5     		push	{r4, r5, r6, lr}
 473              		.cfi_def_cfa_offset 16
 474              		.cfi_offset 4, -16
 475              		.cfi_offset 5, -12
 476              		.cfi_offset 6, -8
 477              		.cfi_offset 14, -4
 478              		.loc 1 469 0
 479 0002 0446     		mov	r4, r0
 480 0004 0D46     		mov	r5, r1
 481 0006 1646     		mov	r6, r2
 470:..\..\..\u8g2\u8g2\csrc/u8x8_d_st7565.c ****   /* call common procedure first and handle messages there */
 471:..\..\..\u8g2\u8g2\csrc/u8x8_d_st7565.c ****   if ( u8x8_d_st7565_common(u8x8, msg, arg_int, arg_ptr) == 0 )
 482              		.loc 1 471 0
 483 0008 FFF7FEFF 		bl	u8x8_d_st7565_common
 484              	.LVL57:
 485 000c 10BB     		cbnz	r0, .L55
 472:..\..\..\u8g2\u8g2\csrc/u8x8_d_st7565.c ****   {
 473:..\..\..\u8g2\u8g2\csrc/u8x8_d_st7565.c ****     /* msg not handled, then try here */
ARM GAS  C:\Users\jesse\AppData\Local\Temp\cc9dv931.s 			page 18


 474:..\..\..\u8g2\u8g2\csrc/u8x8_d_st7565.c ****     switch(msg)
 486              		.loc 1 474 0
 487 000e 0A2D     		cmp	r5, #10
 488 0010 08D0     		beq	.L51
 489 0012 0D2D     		cmp	r5, #13
 490 0014 0ED0     		beq	.L52
 491 0016 092D     		cmp	r5, #9
 492 0018 1DD1     		bne	.L50
 475:..\..\..\u8g2\u8g2\csrc/u8x8_d_st7565.c ****     {
 476:..\..\..\u8g2\u8g2\csrc/u8x8_d_st7565.c ****       case U8X8_MSG_DISPLAY_SETUP_MEMORY:
 477:..\..\..\u8g2\u8g2\csrc/u8x8_d_st7565.c **** 	u8x8_d_helper_display_setup_memory(u8x8, &u8x8_st7565_128x64_display_info);
 493              		.loc 1 477 0
 494 001a 0F49     		ldr	r1, .L57
 495 001c 2046     		mov	r0, r4
 496 001e FFF7FEFF 		bl	u8x8_d_helper_display_setup_memory
 497              	.LVL58:
 498 0022 17E0     		b	.L55
 499              	.L51:
 478:..\..\..\u8g2\u8g2\csrc/u8x8_d_st7565.c **** 	break;
 479:..\..\..\u8g2\u8g2\csrc/u8x8_d_st7565.c ****       case U8X8_MSG_DISPLAY_INIT:
 480:..\..\..\u8g2\u8g2\csrc/u8x8_d_st7565.c **** 	u8x8_d_helper_display_init(u8x8);
 500              		.loc 1 480 0
 501 0024 2046     		mov	r0, r4
 502 0026 FFF7FEFF 		bl	u8x8_d_helper_display_init
 503              	.LVL59:
 481:..\..\..\u8g2\u8g2\csrc/u8x8_d_st7565.c **** 	u8x8_cad_SendSequence(u8x8, u8x8_d_st7565_zolen_128x64_init_seq);
 504              		.loc 1 481 0
 505 002a 0C49     		ldr	r1, .L57+4
 506 002c 2046     		mov	r0, r4
 507 002e FFF7FEFF 		bl	u8x8_cad_SendSequence
 508              	.LVL60:
 509 0032 0FE0     		b	.L55
 510              	.L52:
 482:..\..\..\u8g2\u8g2\csrc/u8x8_d_st7565.c **** 	break;
 483:..\..\..\u8g2\u8g2\csrc/u8x8_d_st7565.c ****       case U8X8_MSG_DISPLAY_SET_FLIP_MODE:
 484:..\..\..\u8g2\u8g2\csrc/u8x8_d_st7565.c **** 	if ( arg_int == 0 )
 511              		.loc 1 484 0
 512 0034 36B9     		cbnz	r6, .L54
 485:..\..\..\u8g2\u8g2\csrc/u8x8_d_st7565.c **** 	{
 486:..\..\..\u8g2\u8g2\csrc/u8x8_d_st7565.c **** 	  u8x8_cad_SendSequence(u8x8, u8x8_d_st7565_zflip0_seq);
 513              		.loc 1 486 0
 514 0036 0A49     		ldr	r1, .L57+8
 515 0038 2046     		mov	r0, r4
 516 003a FFF7FEFF 		bl	u8x8_cad_SendSequence
 517              	.LVL61:
 487:..\..\..\u8g2\u8g2\csrc/u8x8_d_st7565.c **** 	  u8x8->x_offset = u8x8->display_info->default_x_offset;
 518              		.loc 1 487 0
 519 003e 2368     		ldr	r3, [r4]
 520 0040 9B7C     		ldrb	r3, [r3, #18]	@ zero_extendqisi2
 521 0042 05E0     		b	.L56
 522              	.L54:
 488:..\..\..\u8g2\u8g2\csrc/u8x8_d_st7565.c **** 	}
 489:..\..\..\u8g2\u8g2\csrc/u8x8_d_st7565.c **** 	else
 490:..\..\..\u8g2\u8g2\csrc/u8x8_d_st7565.c **** 	{
 491:..\..\..\u8g2\u8g2\csrc/u8x8_d_st7565.c **** 	  u8x8_cad_SendSequence(u8x8, u8x8_d_st7565_zflip1_seq);
 523              		.loc 1 491 0
 524 0044 0749     		ldr	r1, .L57+12
ARM GAS  C:\Users\jesse\AppData\Local\Temp\cc9dv931.s 			page 19


 525 0046 2046     		mov	r0, r4
 526 0048 FFF7FEFF 		bl	u8x8_cad_SendSequence
 527              	.LVL62:
 492:..\..\..\u8g2\u8g2\csrc/u8x8_d_st7565.c **** 	  u8x8->x_offset = u8x8->display_info->flipmode_x_offset;
 528              		.loc 1 492 0
 529 004c 2368     		ldr	r3, [r4]
 530 004e DB7C     		ldrb	r3, [r3, #19]	@ zero_extendqisi2
 531              	.L56:
 532 0050 84F82230 		strb	r3, [r4, #34]
 533              	.L55:
 493:..\..\..\u8g2\u8g2\csrc/u8x8_d_st7565.c **** 	}	
 494:..\..\..\u8g2\u8g2\csrc/u8x8_d_st7565.c **** 	break;
 495:..\..\..\u8g2\u8g2\csrc/u8x8_d_st7565.c ****       default:
 496:..\..\..\u8g2\u8g2\csrc/u8x8_d_st7565.c **** 	return 0;		/* msg unknown */
 497:..\..\..\u8g2\u8g2\csrc/u8x8_d_st7565.c ****     }
 498:..\..\..\u8g2\u8g2\csrc/u8x8_d_st7565.c ****   }
 499:..\..\..\u8g2\u8g2\csrc/u8x8_d_st7565.c ****   return 1;
 534              		.loc 1 499 0
 535 0054 0120     		movs	r0, #1
 536              	.L50:
 500:..\..\..\u8g2\u8g2\csrc/u8x8_d_st7565.c **** }
 537              		.loc 1 500 0
 538 0056 70BD     		pop	{r4, r5, r6, pc}
 539              	.LVL63:
 540              	.L58:
 541              		.align	2
 542              	.L57:
 543 0058 10000000 		.word	.LANCHOR0+16
 544 005c AD000000 		.word	.LANCHOR0+173
 545 0060 CE000000 		.word	.LANCHOR0+206
 546 0064 D5000000 		.word	.LANCHOR0+213
 547              		.cfi_endproc
 548              	.LFE4:
 549              		.size	u8x8_d_st7565_zolen_128x64, .-u8x8_d_st7565_zolen_128x64
 550              		.section	.text.u8x8_d_st7565_nhd_c12832,"ax",%progbits
 551              		.align	1
 552              		.global	u8x8_d_st7565_nhd_c12832
 553              		.thumb
 554              		.thumb_func
 555              		.type	u8x8_d_st7565_nhd_c12832, %function
 556              	u8x8_d_st7565_nhd_c12832:
 557              	.LFB5:
 501:..\..\..\u8g2\u8g2\csrc/u8x8_d_st7565.c **** 
 502:..\..\..\u8g2\u8g2\csrc/u8x8_d_st7565.c **** 
 503:..\..\..\u8g2\u8g2\csrc/u8x8_d_st7565.c **** 
 504:..\..\..\u8g2\u8g2\csrc/u8x8_d_st7565.c **** /*================================================*/
 505:..\..\..\u8g2\u8g2\csrc/u8x8_d_st7565.c **** /* NHD-C12832 */
 506:..\..\..\u8g2\u8g2\csrc/u8x8_d_st7565.c **** 
 507:..\..\..\u8g2\u8g2\csrc/u8x8_d_st7565.c **** static const u8x8_display_info_t u8x8_st7565_128x32_display_info =
 508:..\..\..\u8g2\u8g2\csrc/u8x8_d_st7565.c **** {
 509:..\..\..\u8g2\u8g2\csrc/u8x8_d_st7565.c ****   /* chip_enable_level = */ 0,
 510:..\..\..\u8g2\u8g2\csrc/u8x8_d_st7565.c ****   /* chip_disable_level = */ 1,
 511:..\..\..\u8g2\u8g2\csrc/u8x8_d_st7565.c ****   
 512:..\..\..\u8g2\u8g2\csrc/u8x8_d_st7565.c ****   /* post_chip_enable_wait_ns = */ 150,	/* st7565 datasheet, table 26, tcsh */
 513:..\..\..\u8g2\u8g2\csrc/u8x8_d_st7565.c ****   /* pre_chip_disable_wait_ns = */ 50,	/* st7565 datasheet, table 26, tcss */
 514:..\..\..\u8g2\u8g2\csrc/u8x8_d_st7565.c ****   /* reset_pulse_width_ms = */ 1, 
 515:..\..\..\u8g2\u8g2\csrc/u8x8_d_st7565.c ****   /* post_reset_wait_ms = */ 1, 
ARM GAS  C:\Users\jesse\AppData\Local\Temp\cc9dv931.s 			page 20


 516:..\..\..\u8g2\u8g2\csrc/u8x8_d_st7565.c ****   /* sda_setup_time_ns = */ 50,		/* st7565 datasheet, table 26, tsds */
 517:..\..\..\u8g2\u8g2\csrc/u8x8_d_st7565.c ****   /* sck_pulse_width_ns = */ 120,	/* half of cycle time (100ns according to datasheet), AVR: below 
 518:..\..\..\u8g2\u8g2\csrc/u8x8_d_st7565.c ****   /* sck_clock_hz = */ 4000000UL,	/* since Arduino 1.6.0, the SPI bus speed in Hz. Should be  10000
 519:..\..\..\u8g2\u8g2\csrc/u8x8_d_st7565.c ****   /* spi_mode = */ 0,		/* active high, rising edge */
 520:..\..\..\u8g2\u8g2\csrc/u8x8_d_st7565.c ****   /* i2c_bus_clock_100kHz = */ 4,
 521:..\..\..\u8g2\u8g2\csrc/u8x8_d_st7565.c ****   /* data_setup_time_ns = */ 40,	/* st7565 datasheet, table 24, tds8 */
 522:..\..\..\u8g2\u8g2\csrc/u8x8_d_st7565.c ****   /* write_pulse_width_ns = */ 80,	/* st7565 datasheet, table 24, tcclw */
 523:..\..\..\u8g2\u8g2\csrc/u8x8_d_st7565.c ****   /* tile_width = */ 16,		/* width of 16*8=128 pixel */
 524:..\..\..\u8g2\u8g2\csrc/u8x8_d_st7565.c ****   /* tile_hight = */ 4,
 525:..\..\..\u8g2\u8g2\csrc/u8x8_d_st7565.c ****   /* default_x_offset = */ 4,
 526:..\..\..\u8g2\u8g2\csrc/u8x8_d_st7565.c ****   /* flipmode_x_offset = */ 0,
 527:..\..\..\u8g2\u8g2\csrc/u8x8_d_st7565.c ****   /* pixel_width = */ 128,
 528:..\..\..\u8g2\u8g2\csrc/u8x8_d_st7565.c ****   /* pixel_height = */ 32
 529:..\..\..\u8g2\u8g2\csrc/u8x8_d_st7565.c **** };
 530:..\..\..\u8g2\u8g2\csrc/u8x8_d_st7565.c **** 
 531:..\..\..\u8g2\u8g2\csrc/u8x8_d_st7565.c **** 
 532:..\..\..\u8g2\u8g2\csrc/u8x8_d_st7565.c **** static const uint8_t u8x8_d_st7565_nhd_c12832_init_seq[] = {
 533:..\..\..\u8g2\u8g2\csrc/u8x8_d_st7565.c ****     
 534:..\..\..\u8g2\u8g2\csrc/u8x8_d_st7565.c ****   U8X8_START_TRANSFER(),             	/* enable chip, delay is part of the transfer start */
 535:..\..\..\u8g2\u8g2\csrc/u8x8_d_st7565.c ****   
 536:..\..\..\u8g2\u8g2\csrc/u8x8_d_st7565.c ****   U8X8_C(0x0e2),            			/* soft reset */
 537:..\..\..\u8g2\u8g2\csrc/u8x8_d_st7565.c ****   U8X8_C(0x0ae),		                /* display off */
 538:..\..\..\u8g2\u8g2\csrc/u8x8_d_st7565.c ****   U8X8_C(0x040),		                /* set display start line to 0 */
 539:..\..\..\u8g2\u8g2\csrc/u8x8_d_st7565.c ****   
 540:..\..\..\u8g2\u8g2\csrc/u8x8_d_st7565.c ****   U8X8_C(0x0a1),		                /* ADC set to reverse */
 541:..\..\..\u8g2\u8g2\csrc/u8x8_d_st7565.c ****   U8X8_C(0x0c0),		                /* common output mode */
 542:..\..\..\u8g2\u8g2\csrc/u8x8_d_st7565.c ****   // Flipmode
 543:..\..\..\u8g2\u8g2\csrc/u8x8_d_st7565.c ****   //U8X8_C(0x0a0),		                /* ADC set to reverse */
 544:..\..\..\u8g2\u8g2\csrc/u8x8_d_st7565.c ****   //U8X8_C(0x0c8),		                /* common output mode */
 545:..\..\..\u8g2\u8g2\csrc/u8x8_d_st7565.c ****   
 546:..\..\..\u8g2\u8g2\csrc/u8x8_d_st7565.c ****   U8X8_C(0x0a6),		                /* display normal, bit val 0: LCD pixel off. */
 547:..\..\..\u8g2\u8g2\csrc/u8x8_d_st7565.c ****   U8X8_C(0x0a2),		                /* LCD bias 1/9 */
 548:..\..\..\u8g2\u8g2\csrc/u8x8_d_st7565.c ****   U8X8_C(0x02f),		                /* all power  control circuits on */
 549:..\..\..\u8g2\u8g2\csrc/u8x8_d_st7565.c ****   U8X8_CA(0x0f8, 0x000),		/* set booster ratio to 4x */
 550:..\..\..\u8g2\u8g2\csrc/u8x8_d_st7565.c ****   U8X8_C(0x023),		                /* set V0 voltage resistor ratio to large*/
 551:..\..\..\u8g2\u8g2\csrc/u8x8_d_st7565.c ****   U8X8_CA(0x081, 0x00a),		/* set contrast, contrast value NHD C12832 */
 552:..\..\..\u8g2\u8g2\csrc/u8x8_d_st7565.c ****   
 553:..\..\..\u8g2\u8g2\csrc/u8x8_d_st7565.c ****   U8X8_C(0x0ae),		                /* display off */
 554:..\..\..\u8g2\u8g2\csrc/u8x8_d_st7565.c ****   U8X8_C(0x0a5),		                /* enter powersafe: all pixel on, issue 142 */
 555:..\..\..\u8g2\u8g2\csrc/u8x8_d_st7565.c ****   
 556:..\..\..\u8g2\u8g2\csrc/u8x8_d_st7565.c ****   U8X8_END_TRANSFER(),             	/* disable chip */
 557:..\..\..\u8g2\u8g2\csrc/u8x8_d_st7565.c ****   U8X8_END()             			/* end of sequence */
 558:..\..\..\u8g2\u8g2\csrc/u8x8_d_st7565.c **** };
 559:..\..\..\u8g2\u8g2\csrc/u8x8_d_st7565.c **** 
 560:..\..\..\u8g2\u8g2\csrc/u8x8_d_st7565.c **** uint8_t u8x8_d_st7565_nhd_c12832(u8x8_t *u8x8, uint8_t msg, uint8_t arg_int, void *arg_ptr)
 561:..\..\..\u8g2\u8g2\csrc/u8x8_d_st7565.c **** {
 558              		.loc 1 561 0
 559              		.cfi_startproc
 560              		@ args = 0, pretend = 0, frame = 0
 561              		@ frame_needed = 0, uses_anonymous_args = 0
 562              	.LVL64:
 563 0000 70B5     		push	{r4, r5, r6, lr}
 564              		.cfi_def_cfa_offset 16
 565              		.cfi_offset 4, -16
 566              		.cfi_offset 5, -12
 567              		.cfi_offset 6, -8
 568              		.cfi_offset 14, -4
ARM GAS  C:\Users\jesse\AppData\Local\Temp\cc9dv931.s 			page 21


 569              		.loc 1 561 0
 570 0002 0446     		mov	r4, r0
 571 0004 0D46     		mov	r5, r1
 572 0006 1646     		mov	r6, r2
 562:..\..\..\u8g2\u8g2\csrc/u8x8_d_st7565.c ****   /* call common procedure first and handle messages there */
 563:..\..\..\u8g2\u8g2\csrc/u8x8_d_st7565.c ****   if ( u8x8_d_st7565_common(u8x8, msg, arg_int, arg_ptr) == 0 )
 573              		.loc 1 563 0
 574 0008 FFF7FEFF 		bl	u8x8_d_st7565_common
 575              	.LVL65:
 576 000c 10BB     		cbnz	r0, .L65
 564:..\..\..\u8g2\u8g2\csrc/u8x8_d_st7565.c ****   {
 565:..\..\..\u8g2\u8g2\csrc/u8x8_d_st7565.c ****     /* msg not handled, then try here */
 566:..\..\..\u8g2\u8g2\csrc/u8x8_d_st7565.c ****     switch(msg)
 577              		.loc 1 566 0
 578 000e 0A2D     		cmp	r5, #10
 579 0010 08D0     		beq	.L61
 580 0012 0D2D     		cmp	r5, #13
 581 0014 0ED0     		beq	.L62
 582 0016 092D     		cmp	r5, #9
 583 0018 1DD1     		bne	.L60
 567:..\..\..\u8g2\u8g2\csrc/u8x8_d_st7565.c ****     {
 568:..\..\..\u8g2\u8g2\csrc/u8x8_d_st7565.c ****       case U8X8_MSG_DISPLAY_SETUP_MEMORY:
 569:..\..\..\u8g2\u8g2\csrc/u8x8_d_st7565.c **** 	u8x8_d_helper_display_setup_memory(u8x8, &u8x8_st7565_128x32_display_info);
 584              		.loc 1 569 0
 585 001a 0F49     		ldr	r1, .L67
 586 001c 2046     		mov	r0, r4
 587 001e FFF7FEFF 		bl	u8x8_d_helper_display_setup_memory
 588              	.LVL66:
 589 0022 17E0     		b	.L65
 590              	.L61:
 570:..\..\..\u8g2\u8g2\csrc/u8x8_d_st7565.c **** 	break;
 571:..\..\..\u8g2\u8g2\csrc/u8x8_d_st7565.c ****       case U8X8_MSG_DISPLAY_INIT:
 572:..\..\..\u8g2\u8g2\csrc/u8x8_d_st7565.c **** 	u8x8_d_helper_display_init(u8x8);
 591              		.loc 1 572 0
 592 0024 2046     		mov	r0, r4
 593 0026 FFF7FEFF 		bl	u8x8_d_helper_display_init
 594              	.LVL67:
 573:..\..\..\u8g2\u8g2\csrc/u8x8_d_st7565.c **** 	u8x8_cad_SendSequence(u8x8, u8x8_d_st7565_nhd_c12832_init_seq);
 595              		.loc 1 573 0
 596 002a 0C49     		ldr	r1, .L67+4
 597 002c 2046     		mov	r0, r4
 598 002e FFF7FEFF 		bl	u8x8_cad_SendSequence
 599              	.LVL68:
 600 0032 0FE0     		b	.L65
 601              	.L62:
 574:..\..\..\u8g2\u8g2\csrc/u8x8_d_st7565.c **** 	break;
 575:..\..\..\u8g2\u8g2\csrc/u8x8_d_st7565.c ****       case U8X8_MSG_DISPLAY_SET_FLIP_MODE:
 576:..\..\..\u8g2\u8g2\csrc/u8x8_d_st7565.c **** 	if ( arg_int == 0 )
 602              		.loc 1 576 0
 603 0034 36B9     		cbnz	r6, .L64
 577:..\..\..\u8g2\u8g2\csrc/u8x8_d_st7565.c **** 	{
 578:..\..\..\u8g2\u8g2\csrc/u8x8_d_st7565.c **** 	  u8x8_cad_SendSequence(u8x8, u8x8_d_st7565_flip0_seq);
 604              		.loc 1 578 0
 605 0036 0A49     		ldr	r1, .L67+8
 606 0038 2046     		mov	r0, r4
 607 003a FFF7FEFF 		bl	u8x8_cad_SendSequence
 608              	.LVL69:
ARM GAS  C:\Users\jesse\AppData\Local\Temp\cc9dv931.s 			page 22


 579:..\..\..\u8g2\u8g2\csrc/u8x8_d_st7565.c **** 	  u8x8->x_offset = u8x8->display_info->default_x_offset;
 609              		.loc 1 579 0
 610 003e 2368     		ldr	r3, [r4]
 611 0040 9B7C     		ldrb	r3, [r3, #18]	@ zero_extendqisi2
 612 0042 05E0     		b	.L66
 613              	.L64:
 580:..\..\..\u8g2\u8g2\csrc/u8x8_d_st7565.c **** 	}
 581:..\..\..\u8g2\u8g2\csrc/u8x8_d_st7565.c **** 	else
 582:..\..\..\u8g2\u8g2\csrc/u8x8_d_st7565.c **** 	{
 583:..\..\..\u8g2\u8g2\csrc/u8x8_d_st7565.c **** 	  u8x8_cad_SendSequence(u8x8, u8x8_d_st7565_flip1_seq);
 614              		.loc 1 583 0
 615 0044 0749     		ldr	r1, .L67+12
 616 0046 2046     		mov	r0, r4
 617 0048 FFF7FEFF 		bl	u8x8_cad_SendSequence
 618              	.LVL70:
 584:..\..\..\u8g2\u8g2\csrc/u8x8_d_st7565.c **** 	  u8x8->x_offset = u8x8->display_info->flipmode_x_offset;
 619              		.loc 1 584 0
 620 004c 2368     		ldr	r3, [r4]
 621 004e DB7C     		ldrb	r3, [r3, #19]	@ zero_extendqisi2
 622              	.L66:
 623 0050 84F82230 		strb	r3, [r4, #34]
 624              	.L65:
 585:..\..\..\u8g2\u8g2\csrc/u8x8_d_st7565.c **** 	}	
 586:..\..\..\u8g2\u8g2\csrc/u8x8_d_st7565.c **** 	break;
 587:..\..\..\u8g2\u8g2\csrc/u8x8_d_st7565.c ****       default:
 588:..\..\..\u8g2\u8g2\csrc/u8x8_d_st7565.c **** 	return 0;		/* msg unknown */
 589:..\..\..\u8g2\u8g2\csrc/u8x8_d_st7565.c ****     }
 590:..\..\..\u8g2\u8g2\csrc/u8x8_d_st7565.c ****   }
 591:..\..\..\u8g2\u8g2\csrc/u8x8_d_st7565.c ****   return 1;
 625              		.loc 1 591 0
 626 0054 0120     		movs	r0, #1
 627              	.L60:
 592:..\..\..\u8g2\u8g2\csrc/u8x8_d_st7565.c **** }
 628              		.loc 1 592 0
 629 0056 70BD     		pop	{r4, r5, r6, pc}
 630              	.LVL71:
 631              	.L68:
 632              		.align	2
 633              	.L67:
 634 0058 DC000000 		.word	.LANCHOR0+220
 635 005c F4000000 		.word	.LANCHOR0+244
 636 0060 49000000 		.word	.LANCHOR0+73
 637 0064 50000000 		.word	.LANCHOR0+80
 638              		.cfi_endproc
 639              	.LFE5:
 640              		.size	u8x8_d_st7565_nhd_c12832, .-u8x8_d_st7565_nhd_c12832
 641              		.section	.text.u8x8_d_st7565_nhd_c12864,"ax",%progbits
 642              		.align	1
 643              		.global	u8x8_d_st7565_nhd_c12864
 644              		.thumb
 645              		.thumb_func
 646              		.type	u8x8_d_st7565_nhd_c12864, %function
 647              	u8x8_d_st7565_nhd_c12864:
 648              	.LFB6:
 593:..\..\..\u8g2\u8g2\csrc/u8x8_d_st7565.c **** 
 594:..\..\..\u8g2\u8g2\csrc/u8x8_d_st7565.c **** /*================================================*/
 595:..\..\..\u8g2\u8g2\csrc/u8x8_d_st7565.c **** /* NHD-C12864 */
ARM GAS  C:\Users\jesse\AppData\Local\Temp\cc9dv931.s 			page 23


 596:..\..\..\u8g2\u8g2\csrc/u8x8_d_st7565.c **** 
 597:..\..\..\u8g2\u8g2\csrc/u8x8_d_st7565.c **** static const u8x8_display_info_t u8x8_st7565_nhd_c12864_display_info =
 598:..\..\..\u8g2\u8g2\csrc/u8x8_d_st7565.c **** {
 599:..\..\..\u8g2\u8g2\csrc/u8x8_d_st7565.c ****   /* chip_enable_level = */ 0,
 600:..\..\..\u8g2\u8g2\csrc/u8x8_d_st7565.c ****   /* chip_disable_level = */ 1,
 601:..\..\..\u8g2\u8g2\csrc/u8x8_d_st7565.c ****   
 602:..\..\..\u8g2\u8g2\csrc/u8x8_d_st7565.c ****   /* post_chip_enable_wait_ns = */ 150,	/* st7565 datasheet, table 26, tcsh */
 603:..\..\..\u8g2\u8g2\csrc/u8x8_d_st7565.c ****   /* pre_chip_disable_wait_ns = */ 50,	/* st7565 datasheet, table 26, tcss */
 604:..\..\..\u8g2\u8g2\csrc/u8x8_d_st7565.c ****   /* reset_pulse_width_ms = */ 1, 
 605:..\..\..\u8g2\u8g2\csrc/u8x8_d_st7565.c ****   /* post_reset_wait_ms = */ 1, 
 606:..\..\..\u8g2\u8g2\csrc/u8x8_d_st7565.c ****   /* sda_setup_time_ns = */ 50,		/* st7565 datasheet, table 26, tsds */
 607:..\..\..\u8g2\u8g2\csrc/u8x8_d_st7565.c ****   /* sck_pulse_width_ns = */ 120,	/* half of cycle time (100ns according to datasheet), AVR: below 
 608:..\..\..\u8g2\u8g2\csrc/u8x8_d_st7565.c ****   /* sck_clock_hz = */ 4000000UL,	/* since Arduino 1.6.0, the SPI bus speed in Hz. Should be  10000
 609:..\..\..\u8g2\u8g2\csrc/u8x8_d_st7565.c ****   /* spi_mode = */ 0,		/* active high, rising edge */
 610:..\..\..\u8g2\u8g2\csrc/u8x8_d_st7565.c ****   /* i2c_bus_clock_100kHz = */ 4,
 611:..\..\..\u8g2\u8g2\csrc/u8x8_d_st7565.c ****   /* data_setup_time_ns = */ 40,	/* st7565 datasheet, table 24, tds8 */
 612:..\..\..\u8g2\u8g2\csrc/u8x8_d_st7565.c ****   /* write_pulse_width_ns = */ 80,	/* st7565 datasheet, table 24, tcclw */
 613:..\..\..\u8g2\u8g2\csrc/u8x8_d_st7565.c ****   /* tile_width = */ 16,		/* width of 16*8=128 pixel */
 614:..\..\..\u8g2\u8g2\csrc/u8x8_d_st7565.c ****   /* tile_hight = */ 8,
 615:..\..\..\u8g2\u8g2\csrc/u8x8_d_st7565.c ****   /* default_x_offset = */ 4,
 616:..\..\..\u8g2\u8g2\csrc/u8x8_d_st7565.c ****   /* flipmode_x_offset = */ 0,
 617:..\..\..\u8g2\u8g2\csrc/u8x8_d_st7565.c ****   /* pixel_width = */ 128,
 618:..\..\..\u8g2\u8g2\csrc/u8x8_d_st7565.c ****   /* pixel_height = */ 64
 619:..\..\..\u8g2\u8g2\csrc/u8x8_d_st7565.c **** };
 620:..\..\..\u8g2\u8g2\csrc/u8x8_d_st7565.c **** 
 621:..\..\..\u8g2\u8g2\csrc/u8x8_d_st7565.c **** 
 622:..\..\..\u8g2\u8g2\csrc/u8x8_d_st7565.c **** static const uint8_t u8x8_d_st7565_nhd_c12864_init_seq[] = {
 623:..\..\..\u8g2\u8g2\csrc/u8x8_d_st7565.c ****     
 624:..\..\..\u8g2\u8g2\csrc/u8x8_d_st7565.c ****   U8X8_START_TRANSFER(),             	/* enable chip, delay is part of the transfer start */
 625:..\..\..\u8g2\u8g2\csrc/u8x8_d_st7565.c ****   
 626:..\..\..\u8g2\u8g2\csrc/u8x8_d_st7565.c ****   U8X8_C(0x0e2),            			/* soft reset */
 627:..\..\..\u8g2\u8g2\csrc/u8x8_d_st7565.c ****   U8X8_C(0x0ae),		                /* display off */
 628:..\..\..\u8g2\u8g2\csrc/u8x8_d_st7565.c ****   U8X8_C(0x040),		                /* set display start line to 0 */
 629:..\..\..\u8g2\u8g2\csrc/u8x8_d_st7565.c ****   
 630:..\..\..\u8g2\u8g2\csrc/u8x8_d_st7565.c ****   U8X8_C(0x0a1),		                /* ADC set to reverse */
 631:..\..\..\u8g2\u8g2\csrc/u8x8_d_st7565.c ****   U8X8_C(0x0c0),		                /* common output mode */
 632:..\..\..\u8g2\u8g2\csrc/u8x8_d_st7565.c ****   // Flipmode
 633:..\..\..\u8g2\u8g2\csrc/u8x8_d_st7565.c ****   //U8X8_C(0x0a0),		                /* ADC set to reverse */
 634:..\..\..\u8g2\u8g2\csrc/u8x8_d_st7565.c ****   //U8X8_C(0x0c8),		                /* common output mode */
 635:..\..\..\u8g2\u8g2\csrc/u8x8_d_st7565.c ****   
 636:..\..\..\u8g2\u8g2\csrc/u8x8_d_st7565.c ****   U8X8_C(0x0a6),		                /* display normal, bit val 0: LCD pixel off. */
 637:..\..\..\u8g2\u8g2\csrc/u8x8_d_st7565.c ****   U8X8_C(0x0a2),		                /* LCD bias 1/9 */
 638:..\..\..\u8g2\u8g2\csrc/u8x8_d_st7565.c ****   U8X8_C(0x02f),		                /* all power  control circuits on */
 639:..\..\..\u8g2\u8g2\csrc/u8x8_d_st7565.c ****   U8X8_CA(0x0f8, 0x000),		/* set booster ratio to 4x */
 640:..\..\..\u8g2\u8g2\csrc/u8x8_d_st7565.c ****   U8X8_C(0x025),		                /* set V0 voltage resistor ratio to large,  issue 1678: changed f
 641:..\..\..\u8g2\u8g2\csrc/u8x8_d_st7565.c ****   U8X8_CA(0x081, 170),			/* set contrast, contrast value NHD C12864, see issue 186, increased contr
 642:..\..\..\u8g2\u8g2\csrc/u8x8_d_st7565.c ****   
 643:..\..\..\u8g2\u8g2\csrc/u8x8_d_st7565.c ****   U8X8_C(0x0ae),		                /* display off */
 644:..\..\..\u8g2\u8g2\csrc/u8x8_d_st7565.c ****   U8X8_C(0x0a5),		                /* enter powersafe: all pixel on, issue 142 */
 645:..\..\..\u8g2\u8g2\csrc/u8x8_d_st7565.c ****   
 646:..\..\..\u8g2\u8g2\csrc/u8x8_d_st7565.c ****   U8X8_END_TRANSFER(),             	/* disable chip */
 647:..\..\..\u8g2\u8g2\csrc/u8x8_d_st7565.c ****   U8X8_END()             			/* end of sequence */
 648:..\..\..\u8g2\u8g2\csrc/u8x8_d_st7565.c **** };
 649:..\..\..\u8g2\u8g2\csrc/u8x8_d_st7565.c **** 
 650:..\..\..\u8g2\u8g2\csrc/u8x8_d_st7565.c **** uint8_t u8x8_d_st7565_nhd_c12864(u8x8_t *u8x8, uint8_t msg, uint8_t arg_int, void *arg_ptr)
 651:..\..\..\u8g2\u8g2\csrc/u8x8_d_st7565.c **** {
 649              		.loc 1 651 0
ARM GAS  C:\Users\jesse\AppData\Local\Temp\cc9dv931.s 			page 24


 650              		.cfi_startproc
 651              		@ args = 0, pretend = 0, frame = 0
 652              		@ frame_needed = 0, uses_anonymous_args = 0
 653              	.LVL72:
 654 0000 70B5     		push	{r4, r5, r6, lr}
 655              		.cfi_def_cfa_offset 16
 656              		.cfi_offset 4, -16
 657              		.cfi_offset 5, -12
 658              		.cfi_offset 6, -8
 659              		.cfi_offset 14, -4
 660              		.loc 1 651 0
 661 0002 0446     		mov	r4, r0
 662 0004 0D46     		mov	r5, r1
 663 0006 1646     		mov	r6, r2
 652:..\..\..\u8g2\u8g2\csrc/u8x8_d_st7565.c ****   /* call common procedure first and handle messages there */
 653:..\..\..\u8g2\u8g2\csrc/u8x8_d_st7565.c ****   if ( u8x8_d_st7565_common(u8x8, msg, arg_int, arg_ptr) == 0 )
 664              		.loc 1 653 0
 665 0008 FFF7FEFF 		bl	u8x8_d_st7565_common
 666              	.LVL73:
 667 000c 10BB     		cbnz	r0, .L75
 654:..\..\..\u8g2\u8g2\csrc/u8x8_d_st7565.c ****   {
 655:..\..\..\u8g2\u8g2\csrc/u8x8_d_st7565.c ****     /* msg not handled, then try here */
 656:..\..\..\u8g2\u8g2\csrc/u8x8_d_st7565.c ****     switch(msg)
 668              		.loc 1 656 0
 669 000e 0A2D     		cmp	r5, #10
 670 0010 08D0     		beq	.L71
 671 0012 0D2D     		cmp	r5, #13
 672 0014 0ED0     		beq	.L72
 673 0016 092D     		cmp	r5, #9
 674 0018 1DD1     		bne	.L70
 657:..\..\..\u8g2\u8g2\csrc/u8x8_d_st7565.c ****     {
 658:..\..\..\u8g2\u8g2\csrc/u8x8_d_st7565.c ****       case U8X8_MSG_DISPLAY_SETUP_MEMORY:
 659:..\..\..\u8g2\u8g2\csrc/u8x8_d_st7565.c **** 	u8x8_d_helper_display_setup_memory(u8x8, &u8x8_st7565_nhd_c12864_display_info);
 675              		.loc 1 659 0
 676 001a 0F49     		ldr	r1, .L77
 677 001c 2046     		mov	r0, r4
 678 001e FFF7FEFF 		bl	u8x8_d_helper_display_setup_memory
 679              	.LVL74:
 680 0022 17E0     		b	.L75
 681              	.L71:
 660:..\..\..\u8g2\u8g2\csrc/u8x8_d_st7565.c **** 	break;
 661:..\..\..\u8g2\u8g2\csrc/u8x8_d_st7565.c ****       case U8X8_MSG_DISPLAY_INIT:
 662:..\..\..\u8g2\u8g2\csrc/u8x8_d_st7565.c **** 	u8x8_d_helper_display_init(u8x8);
 682              		.loc 1 662 0
 683 0024 2046     		mov	r0, r4
 684 0026 FFF7FEFF 		bl	u8x8_d_helper_display_init
 685              	.LVL75:
 663:..\..\..\u8g2\u8g2\csrc/u8x8_d_st7565.c **** 	u8x8_cad_SendSequence(u8x8, u8x8_d_st7565_nhd_c12864_init_seq);
 686              		.loc 1 663 0
 687 002a 0C49     		ldr	r1, .L77+4
 688 002c 2046     		mov	r0, r4
 689 002e FFF7FEFF 		bl	u8x8_cad_SendSequence
 690              	.LVL76:
 691 0032 0FE0     		b	.L75
 692              	.L72:
 664:..\..\..\u8g2\u8g2\csrc/u8x8_d_st7565.c **** 	break;
 665:..\..\..\u8g2\u8g2\csrc/u8x8_d_st7565.c ****       case U8X8_MSG_DISPLAY_SET_FLIP_MODE:
ARM GAS  C:\Users\jesse\AppData\Local\Temp\cc9dv931.s 			page 25


 666:..\..\..\u8g2\u8g2\csrc/u8x8_d_st7565.c **** 	if ( arg_int == 0 )
 693              		.loc 1 666 0
 694 0034 36B9     		cbnz	r6, .L74
 695              	.LVL77:
 696              	.LBB8:
 697              	.LBB9:
 667:..\..\..\u8g2\u8g2\csrc/u8x8_d_st7565.c **** 	{
 668:..\..\..\u8g2\u8g2\csrc/u8x8_d_st7565.c **** 	  u8x8_cad_SendSequence(u8x8, u8x8_d_st7565_flip0_seq);
 698              		.loc 1 668 0
 699 0036 0A49     		ldr	r1, .L77+8
 700 0038 2046     		mov	r0, r4
 701 003a FFF7FEFF 		bl	u8x8_cad_SendSequence
 702              	.LVL78:
 669:..\..\..\u8g2\u8g2\csrc/u8x8_d_st7565.c **** 	  u8x8->x_offset = u8x8->display_info->default_x_offset;
 703              		.loc 1 669 0
 704 003e 2368     		ldr	r3, [r4]
 705 0040 9B7C     		ldrb	r3, [r3, #18]	@ zero_extendqisi2
 706 0042 05E0     		b	.L76
 707              	.LVL79:
 708              	.L74:
 709              	.LBE9:
 710              	.LBE8:
 670:..\..\..\u8g2\u8g2\csrc/u8x8_d_st7565.c **** 	}
 671:..\..\..\u8g2\u8g2\csrc/u8x8_d_st7565.c **** 	else
 672:..\..\..\u8g2\u8g2\csrc/u8x8_d_st7565.c **** 	{
 673:..\..\..\u8g2\u8g2\csrc/u8x8_d_st7565.c **** 	  u8x8_cad_SendSequence(u8x8, u8x8_d_st7565_flip1_seq);
 711              		.loc 1 673 0
 712 0044 0749     		ldr	r1, .L77+12
 713 0046 2046     		mov	r0, r4
 714 0048 FFF7FEFF 		bl	u8x8_cad_SendSequence
 715              	.LVL80:
 674:..\..\..\u8g2\u8g2\csrc/u8x8_d_st7565.c **** 	  u8x8->x_offset = u8x8->display_info->flipmode_x_offset;
 716              		.loc 1 674 0
 717 004c 2368     		ldr	r3, [r4]
 718 004e DB7C     		ldrb	r3, [r3, #19]	@ zero_extendqisi2
 719              	.L76:
 720 0050 84F82230 		strb	r3, [r4, #34]
 721              	.L75:
 675:..\..\..\u8g2\u8g2\csrc/u8x8_d_st7565.c **** 	}	
 676:..\..\..\u8g2\u8g2\csrc/u8x8_d_st7565.c **** 	break;
 677:..\..\..\u8g2\u8g2\csrc/u8x8_d_st7565.c ****       default:
 678:..\..\..\u8g2\u8g2\csrc/u8x8_d_st7565.c **** 	return 0;		/* msg unknown */
 679:..\..\..\u8g2\u8g2\csrc/u8x8_d_st7565.c ****     }
 680:..\..\..\u8g2\u8g2\csrc/u8x8_d_st7565.c ****   }
 681:..\..\..\u8g2\u8g2\csrc/u8x8_d_st7565.c ****   return 1;
 722              		.loc 1 681 0
 723 0054 0120     		movs	r0, #1
 724              	.L70:
 682:..\..\..\u8g2\u8g2\csrc/u8x8_d_st7565.c **** }
 725              		.loc 1 682 0
 726 0056 70BD     		pop	{r4, r5, r6, pc}
 727              	.LVL81:
 728              	.L78:
 729              		.align	2
 730              	.L77:
 731 0058 18010000 		.word	.LANCHOR0+280
 732 005c 30010000 		.word	.LANCHOR0+304
ARM GAS  C:\Users\jesse\AppData\Local\Temp\cc9dv931.s 			page 26


 733 0060 49000000 		.word	.LANCHOR0+73
 734 0064 50000000 		.word	.LANCHOR0+80
 735              		.cfi_endproc
 736              	.LFE6:
 737              		.size	u8x8_d_st7565_nhd_c12864, .-u8x8_d_st7565_nhd_c12864
 738              		.section	.text.u8x8_d_st7565_jlx12864,"ax",%progbits
 739              		.align	1
 740              		.global	u8x8_d_st7565_jlx12864
 741              		.thumb
 742              		.thumb_func
 743              		.type	u8x8_d_st7565_jlx12864, %function
 744              	u8x8_d_st7565_jlx12864:
 745              	.LFB7:
 683:..\..\..\u8g2\u8g2\csrc/u8x8_d_st7565.c **** /*================================================*/
 684:..\..\..\u8g2\u8g2\csrc/u8x8_d_st7565.c **** /* JLX12864 */
 685:..\..\..\u8g2\u8g2\csrc/u8x8_d_st7565.c **** 
 686:..\..\..\u8g2\u8g2\csrc/u8x8_d_st7565.c **** uint8_t u8x8_d_st7565_jlx12864(u8x8_t *u8x8, uint8_t msg, uint8_t arg_int, void *arg_ptr)
 687:..\..\..\u8g2\u8g2\csrc/u8x8_d_st7565.c **** {
 746              		.loc 1 687 0
 747              		.cfi_startproc
 748              		@ args = 0, pretend = 0, frame = 0
 749              		@ frame_needed = 0, uses_anonymous_args = 0
 750              		@ link register save eliminated.
 751              	.LVL82:
 688:..\..\..\u8g2\u8g2\csrc/u8x8_d_st7565.c ****   return u8x8_d_st7565_nhd_c12864(u8x8, msg, arg_int, arg_ptr);
 752              		.loc 1 688 0
 753 0000 FFF7FEBF 		b	u8x8_d_st7565_nhd_c12864
 754              	.LVL83:
 755              		.cfi_endproc
 756              	.LFE7:
 757              		.size	u8x8_d_st7565_jlx12864, .-u8x8_d_st7565_jlx12864
 758              		.section	.text.u8x8_d_st7565_lm6059,"ax",%progbits
 759              		.align	1
 760              		.global	u8x8_d_st7565_lm6059
 761              		.thumb
 762              		.thumb_func
 763              		.type	u8x8_d_st7565_lm6059, %function
 764              	u8x8_d_st7565_lm6059:
 765              	.LFB8:
 689:..\..\..\u8g2\u8g2\csrc/u8x8_d_st7565.c **** }
 690:..\..\..\u8g2\u8g2\csrc/u8x8_d_st7565.c **** 
 691:..\..\..\u8g2\u8g2\csrc/u8x8_d_st7565.c **** 
 692:..\..\..\u8g2\u8g2\csrc/u8x8_d_st7565.c **** /*================================================*/
 693:..\..\..\u8g2\u8g2\csrc/u8x8_d_st7565.c **** /* LM6059 (Adafruit)... probably this is a ST7567 display */
 694:..\..\..\u8g2\u8g2\csrc/u8x8_d_st7565.c **** 
 695:..\..\..\u8g2\u8g2\csrc/u8x8_d_st7565.c **** static const uint8_t u8x8_d_st7565_lm6059_init_seq[] = {
 696:..\..\..\u8g2\u8g2\csrc/u8x8_d_st7565.c ****     
 697:..\..\..\u8g2\u8g2\csrc/u8x8_d_st7565.c ****   U8X8_START_TRANSFER(),             	/* enable chip, delay is part of the transfer start */
 698:..\..\..\u8g2\u8g2\csrc/u8x8_d_st7565.c ****   
 699:..\..\..\u8g2\u8g2\csrc/u8x8_d_st7565.c ****   U8X8_C(0x0e2),            			/* soft reset */
 700:..\..\..\u8g2\u8g2\csrc/u8x8_d_st7565.c ****   U8X8_C(0x0ae),		                /* display off */
 701:..\..\..\u8g2\u8g2\csrc/u8x8_d_st7565.c ****   U8X8_C(0x060),		                /* set display start line to ... */
 702:..\..\..\u8g2\u8g2\csrc/u8x8_d_st7565.c ****   
 703:..\..\..\u8g2\u8g2\csrc/u8x8_d_st7565.c ****   U8X8_C(0x0a0),		                /* ADC set to reverse */
 704:..\..\..\u8g2\u8g2\csrc/u8x8_d_st7565.c ****   U8X8_C(0x0c8),		                /* common output mode */
 705:..\..\..\u8g2\u8g2\csrc/u8x8_d_st7565.c ****   //U8X8_C(0x0a1),		                /* ADC set to reverse */
 706:..\..\..\u8g2\u8g2\csrc/u8x8_d_st7565.c ****   //U8X8_C(0x0c0),		                /* common output mode */
ARM GAS  C:\Users\jesse\AppData\Local\Temp\cc9dv931.s 			page 27


 707:..\..\..\u8g2\u8g2\csrc/u8x8_d_st7565.c ****   // Flipmode
 708:..\..\..\u8g2\u8g2\csrc/u8x8_d_st7565.c ****   // U8X8_C(0x0a0),		                /* ADC set to reverse */
 709:..\..\..\u8g2\u8g2\csrc/u8x8_d_st7565.c ****   // U8X8_C(0x0c8),		                /* common output mode */
 710:..\..\..\u8g2\u8g2\csrc/u8x8_d_st7565.c ****   
 711:..\..\..\u8g2\u8g2\csrc/u8x8_d_st7565.c ****   U8X8_C(0x0a6),		                /* display normal, bit val 0: LCD pixel off. */
 712:..\..\..\u8g2\u8g2\csrc/u8x8_d_st7565.c ****   U8X8_C(0x0a3),		                /* LCD bias 1/9 */
 713:..\..\..\u8g2\u8g2\csrc/u8x8_d_st7565.c ****   U8X8_C(0x02f),		                /* all power  control circuits on (regulator, booster and followe
 714:..\..\..\u8g2\u8g2\csrc/u8x8_d_st7565.c ****   U8X8_CA(0x0f8, 0x000),		/* set booster ratio to 4x (ST7567 feature) */
 715:..\..\..\u8g2\u8g2\csrc/u8x8_d_st7565.c ****   U8X8_C(0x027),		                /* set V0 voltage resistor ratio to max  */
 716:..\..\..\u8g2\u8g2\csrc/u8x8_d_st7565.c ****   U8X8_CA(0x081, 0x018),		/* set contrast, contrast value, EA default: 0x016 */
 717:..\..\..\u8g2\u8g2\csrc/u8x8_d_st7565.c ****   
 718:..\..\..\u8g2\u8g2\csrc/u8x8_d_st7565.c ****   U8X8_C(0x0ae),		                /* display off */
 719:..\..\..\u8g2\u8g2\csrc/u8x8_d_st7565.c ****   U8X8_C(0x0a5),		                /* enter powersafe: all pixel on, issue 142 */
 720:..\..\..\u8g2\u8g2\csrc/u8x8_d_st7565.c ****   
 721:..\..\..\u8g2\u8g2\csrc/u8x8_d_st7565.c ****   U8X8_END_TRANSFER(),             	/* disable chip */
 722:..\..\..\u8g2\u8g2\csrc/u8x8_d_st7565.c ****   U8X8_END()             			/* end of sequence */
 723:..\..\..\u8g2\u8g2\csrc/u8x8_d_st7565.c **** };
 724:..\..\..\u8g2\u8g2\csrc/u8x8_d_st7565.c **** 
 725:..\..\..\u8g2\u8g2\csrc/u8x8_d_st7565.c **** static const u8x8_display_info_t u8x8_st7565_lm6059_display_info =
 726:..\..\..\u8g2\u8g2\csrc/u8x8_d_st7565.c **** {
 727:..\..\..\u8g2\u8g2\csrc/u8x8_d_st7565.c ****   /* chip_enable_level = */ 0,
 728:..\..\..\u8g2\u8g2\csrc/u8x8_d_st7565.c ****   /* chip_disable_level = */ 1,
 729:..\..\..\u8g2\u8g2\csrc/u8x8_d_st7565.c ****   
 730:..\..\..\u8g2\u8g2\csrc/u8x8_d_st7565.c ****   /* post_chip_enable_wait_ns = */ 150,	/* st7565 datasheet, table 26, tcsh */
 731:..\..\..\u8g2\u8g2\csrc/u8x8_d_st7565.c ****   /* pre_chip_disable_wait_ns = */ 50,	/* st7565 datasheet, table 26, tcss */
 732:..\..\..\u8g2\u8g2\csrc/u8x8_d_st7565.c ****   /* reset_pulse_width_ms = */ 1, 
 733:..\..\..\u8g2\u8g2\csrc/u8x8_d_st7565.c ****   /* post_reset_wait_ms = */ 1, 
 734:..\..\..\u8g2\u8g2\csrc/u8x8_d_st7565.c ****   /* sda_setup_time_ns = */ 50,		/* st7565 datasheet, table 26, tsds */
 735:..\..\..\u8g2\u8g2\csrc/u8x8_d_st7565.c ****   /* sck_pulse_width_ns = */ 120,	/* half of cycle time (100ns according to datasheet), AVR: below 
 736:..\..\..\u8g2\u8g2\csrc/u8x8_d_st7565.c ****   /* sck_clock_hz = */ 4000000UL,	/* since Arduino 1.6.0, the SPI bus speed in Hz. Should be  10000
 737:..\..\..\u8g2\u8g2\csrc/u8x8_d_st7565.c ****   /* spi_mode = */ 0,		/* active high, rising edge */
 738:..\..\..\u8g2\u8g2\csrc/u8x8_d_st7565.c ****   /* i2c_bus_clock_100kHz = */ 4,
 739:..\..\..\u8g2\u8g2\csrc/u8x8_d_st7565.c ****   /* data_setup_time_ns = */ 40,	/* st7565 datasheet, table 24, tds8 */
 740:..\..\..\u8g2\u8g2\csrc/u8x8_d_st7565.c ****   /* write_pulse_width_ns = */ 80,	/* st7565 datasheet, table 24, tcclw */
 741:..\..\..\u8g2\u8g2\csrc/u8x8_d_st7565.c ****   /* tile_width = */ 16,		/* width of 16*8=128 pixel */
 742:..\..\..\u8g2\u8g2\csrc/u8x8_d_st7565.c ****   /* tile_hight = */ 8,
 743:..\..\..\u8g2\u8g2\csrc/u8x8_d_st7565.c ****   /* default_x_offset = */ 1,	/* not sure... */
 744:..\..\..\u8g2\u8g2\csrc/u8x8_d_st7565.c ****   /* flipmode_x_offset = */ 3,
 745:..\..\..\u8g2\u8g2\csrc/u8x8_d_st7565.c ****   /* pixel_width = */ 128,
 746:..\..\..\u8g2\u8g2\csrc/u8x8_d_st7565.c ****   /* pixel_height = */ 64
 747:..\..\..\u8g2\u8g2\csrc/u8x8_d_st7565.c **** };
 748:..\..\..\u8g2\u8g2\csrc/u8x8_d_st7565.c **** 
 749:..\..\..\u8g2\u8g2\csrc/u8x8_d_st7565.c **** uint8_t u8x8_d_st7565_lm6059(u8x8_t *u8x8, uint8_t msg, uint8_t arg_int, void *arg_ptr)
 750:..\..\..\u8g2\u8g2\csrc/u8x8_d_st7565.c **** {
 766              		.loc 1 750 0
 767              		.cfi_startproc
 768              		@ args = 0, pretend = 0, frame = 0
 769              		@ frame_needed = 0, uses_anonymous_args = 0
 770              	.LVL84:
 771 0000 70B5     		push	{r4, r5, r6, lr}
 772              		.cfi_def_cfa_offset 16
 773              		.cfi_offset 4, -16
 774              		.cfi_offset 5, -12
 775              		.cfi_offset 6, -8
 776              		.cfi_offset 14, -4
 777              		.loc 1 750 0
 778 0002 0446     		mov	r4, r0
ARM GAS  C:\Users\jesse\AppData\Local\Temp\cc9dv931.s 			page 28


 779 0004 0D46     		mov	r5, r1
 780 0006 1646     		mov	r6, r2
 751:..\..\..\u8g2\u8g2\csrc/u8x8_d_st7565.c ****   /* call common procedure first and handle messages there */
 752:..\..\..\u8g2\u8g2\csrc/u8x8_d_st7565.c ****   if ( u8x8_d_st7565_common(u8x8, msg, arg_int, arg_ptr) == 0 )
 781              		.loc 1 752 0
 782 0008 FFF7FEFF 		bl	u8x8_d_st7565_common
 783              	.LVL85:
 784 000c 10BB     		cbnz	r0, .L86
 753:..\..\..\u8g2\u8g2\csrc/u8x8_d_st7565.c ****   {
 754:..\..\..\u8g2\u8g2\csrc/u8x8_d_st7565.c ****     /* msg not handled, then try here */
 755:..\..\..\u8g2\u8g2\csrc/u8x8_d_st7565.c ****     switch(msg)
 785              		.loc 1 755 0
 786 000e 0A2D     		cmp	r5, #10
 787 0010 08D0     		beq	.L82
 788 0012 0D2D     		cmp	r5, #13
 789 0014 0ED0     		beq	.L83
 790 0016 092D     		cmp	r5, #9
 791 0018 1DD1     		bne	.L81
 756:..\..\..\u8g2\u8g2\csrc/u8x8_d_st7565.c ****     {
 757:..\..\..\u8g2\u8g2\csrc/u8x8_d_st7565.c ****       case U8X8_MSG_DISPLAY_SETUP_MEMORY:
 758:..\..\..\u8g2\u8g2\csrc/u8x8_d_st7565.c **** 	u8x8_d_helper_display_setup_memory(u8x8, &u8x8_st7565_lm6059_display_info);
 792              		.loc 1 758 0
 793 001a 0F49     		ldr	r1, .L88
 794 001c 2046     		mov	r0, r4
 795 001e FFF7FEFF 		bl	u8x8_d_helper_display_setup_memory
 796              	.LVL86:
 797 0022 17E0     		b	.L86
 798              	.L82:
 759:..\..\..\u8g2\u8g2\csrc/u8x8_d_st7565.c **** 	break;
 760:..\..\..\u8g2\u8g2\csrc/u8x8_d_st7565.c ****       case U8X8_MSG_DISPLAY_INIT:
 761:..\..\..\u8g2\u8g2\csrc/u8x8_d_st7565.c **** 	u8x8_d_helper_display_init(u8x8);
 799              		.loc 1 761 0
 800 0024 2046     		mov	r0, r4
 801 0026 FFF7FEFF 		bl	u8x8_d_helper_display_init
 802              	.LVL87:
 762:..\..\..\u8g2\u8g2\csrc/u8x8_d_st7565.c **** 	u8x8_cad_SendSequence(u8x8, u8x8_d_st7565_lm6059_init_seq);
 803              		.loc 1 762 0
 804 002a 0C49     		ldr	r1, .L88+4
 805 002c 2046     		mov	r0, r4
 806 002e FFF7FEFF 		bl	u8x8_cad_SendSequence
 807              	.LVL88:
 808 0032 0FE0     		b	.L86
 809              	.L83:
 763:..\..\..\u8g2\u8g2\csrc/u8x8_d_st7565.c **** 	break;
 764:..\..\..\u8g2\u8g2\csrc/u8x8_d_st7565.c ****       case U8X8_MSG_DISPLAY_SET_FLIP_MODE:
 765:..\..\..\u8g2\u8g2\csrc/u8x8_d_st7565.c **** 	if ( arg_int == 0 )
 810              		.loc 1 765 0
 811 0034 36B9     		cbnz	r6, .L85
 766:..\..\..\u8g2\u8g2\csrc/u8x8_d_st7565.c **** 	{
 767:..\..\..\u8g2\u8g2\csrc/u8x8_d_st7565.c **** 	  u8x8_cad_SendSequence(u8x8, u8x8_d_st7565_flip1_seq);
 812              		.loc 1 767 0
 813 0036 0A49     		ldr	r1, .L88+8
 814 0038 2046     		mov	r0, r4
 815 003a FFF7FEFF 		bl	u8x8_cad_SendSequence
 816              	.LVL89:
 768:..\..\..\u8g2\u8g2\csrc/u8x8_d_st7565.c **** 	  u8x8->x_offset = u8x8->display_info->default_x_offset;
 817              		.loc 1 768 0
ARM GAS  C:\Users\jesse\AppData\Local\Temp\cc9dv931.s 			page 29


 818 003e 2368     		ldr	r3, [r4]
 819 0040 9B7C     		ldrb	r3, [r3, #18]	@ zero_extendqisi2
 820 0042 05E0     		b	.L87
 821              	.L85:
 769:..\..\..\u8g2\u8g2\csrc/u8x8_d_st7565.c **** 	}
 770:..\..\..\u8g2\u8g2\csrc/u8x8_d_st7565.c **** 	else
 771:..\..\..\u8g2\u8g2\csrc/u8x8_d_st7565.c **** 	{
 772:..\..\..\u8g2\u8g2\csrc/u8x8_d_st7565.c **** 	  u8x8_cad_SendSequence(u8x8, u8x8_d_st7565_flip0_seq);
 822              		.loc 1 772 0
 823 0044 0749     		ldr	r1, .L88+12
 824 0046 2046     		mov	r0, r4
 825 0048 FFF7FEFF 		bl	u8x8_cad_SendSequence
 826              	.LVL90:
 773:..\..\..\u8g2\u8g2\csrc/u8x8_d_st7565.c **** 	  u8x8->x_offset = u8x8->display_info->flipmode_x_offset;
 827              		.loc 1 773 0
 828 004c 2368     		ldr	r3, [r4]
 829 004e DB7C     		ldrb	r3, [r3, #19]	@ zero_extendqisi2
 830              	.L87:
 831 0050 84F82230 		strb	r3, [r4, #34]
 832              	.L86:
 774:..\..\..\u8g2\u8g2\csrc/u8x8_d_st7565.c **** 	}	
 775:..\..\..\u8g2\u8g2\csrc/u8x8_d_st7565.c **** 	break;
 776:..\..\..\u8g2\u8g2\csrc/u8x8_d_st7565.c ****       default:
 777:..\..\..\u8g2\u8g2\csrc/u8x8_d_st7565.c **** 	return 0;		/* msg unknown */
 778:..\..\..\u8g2\u8g2\csrc/u8x8_d_st7565.c ****     }
 779:..\..\..\u8g2\u8g2\csrc/u8x8_d_st7565.c ****   }
 780:..\..\..\u8g2\u8g2\csrc/u8x8_d_st7565.c ****   return 1;
 833              		.loc 1 780 0
 834 0054 0120     		movs	r0, #1
 835              	.L81:
 781:..\..\..\u8g2\u8g2\csrc/u8x8_d_st7565.c **** }
 836              		.loc 1 781 0
 837 0056 70BD     		pop	{r4, r5, r6, pc}
 838              	.LVL91:
 839              	.L89:
 840              		.align	2
 841              	.L88:
 842 0058 54010000 		.word	.LANCHOR0+340
 843 005c 6C010000 		.word	.LANCHOR0+364
 844 0060 50000000 		.word	.LANCHOR0+80
 845 0064 49000000 		.word	.LANCHOR0+73
 846              		.cfi_endproc
 847              	.LFE8:
 848              		.size	u8x8_d_st7565_lm6059, .-u8x8_d_st7565_lm6059
 849              		.section	.text.u8x8_d_st7565_ks0713,"ax",%progbits
 850              		.align	1
 851              		.global	u8x8_d_st7565_ks0713
 852              		.thumb
 853              		.thumb_func
 854              		.type	u8x8_d_st7565_ks0713, %function
 855              	u8x8_d_st7565_ks0713:
 856              	.LFB9:
 782:..\..\..\u8g2\u8g2\csrc/u8x8_d_st7565.c **** 
 783:..\..\..\u8g2\u8g2\csrc/u8x8_d_st7565.c **** /*================================================*/
 784:..\..\..\u8g2\u8g2\csrc/u8x8_d_st7565.c **** /* https://github.com/olikraus/u8g2/issues/1314 */
 785:..\..\..\u8g2\u8g2\csrc/u8x8_d_st7565.c **** /* KS0713 controller, takeover from LM6059 */
 786:..\..\..\u8g2\u8g2\csrc/u8x8_d_st7565.c **** 
ARM GAS  C:\Users\jesse\AppData\Local\Temp\cc9dv931.s 			page 30


 787:..\..\..\u8g2\u8g2\csrc/u8x8_d_st7565.c **** static const uint8_t u8x8_d_st7565_ks0713_init_seq[] = {
 788:..\..\..\u8g2\u8g2\csrc/u8x8_d_st7565.c ****     
 789:..\..\..\u8g2\u8g2\csrc/u8x8_d_st7565.c ****   U8X8_START_TRANSFER(),             /* enable chip, delay is part of the transfer start */
 790:..\..\..\u8g2\u8g2\csrc/u8x8_d_st7565.c ****   U8X8_C(0x0ae),		                /* display off */
 791:..\..\..\u8g2\u8g2\csrc/u8x8_d_st7565.c ****   U8X8_C(0x0e2),            			 /* soft reset */
 792:..\..\..\u8g2\u8g2\csrc/u8x8_d_st7565.c ****   U8X8_C(0x0a3),		                /* LCD bias 1/9 */
 793:..\..\..\u8g2\u8g2\csrc/u8x8_d_st7565.c ****   U8X8_C(0x0a0),		                /* ADC set to reverse */
 794:..\..\..\u8g2\u8g2\csrc/u8x8_d_st7565.c ****   U8X8_C(0x0c0),		                /* common output mode */
 795:..\..\..\u8g2\u8g2\csrc/u8x8_d_st7565.c ****   U8X8_C(0x02f),		                /* all power  control circuits on (regulator, booster and followe
 796:..\..\..\u8g2\u8g2\csrc/u8x8_d_st7565.c ****   U8X8_C(0x026),		                /* set V0 voltage resistor ratio to max  */
 797:..\..\..\u8g2\u8g2\csrc/u8x8_d_st7565.c ****   U8X8_C(0x0a6),		                /* display normal, bit val 0: LCD pixel off. */
 798:..\..\..\u8g2\u8g2\csrc/u8x8_d_st7565.c ****   U8X8_CA(0x081, 0x010),		       /* set contrast, contrast value, EA default: 0x016 */
 799:..\..\..\u8g2\u8g2\csrc/u8x8_d_st7565.c ****   U8X8_C(0x0af),		                /* display on */
 800:..\..\..\u8g2\u8g2\csrc/u8x8_d_st7565.c ****   U8X8_END_TRANSFER(),             	/* disable chip */
 801:..\..\..\u8g2\u8g2\csrc/u8x8_d_st7565.c ****   U8X8_END()             			/* end of sequence */
 802:..\..\..\u8g2\u8g2\csrc/u8x8_d_st7565.c **** };
 803:..\..\..\u8g2\u8g2\csrc/u8x8_d_st7565.c **** 
 804:..\..\..\u8g2\u8g2\csrc/u8x8_d_st7565.c **** uint8_t u8x8_d_st7565_ks0713(u8x8_t *u8x8, uint8_t msg, uint8_t arg_int, void *arg_ptr)
 805:..\..\..\u8g2\u8g2\csrc/u8x8_d_st7565.c **** {
 857              		.loc 1 805 0
 858              		.cfi_startproc
 859              		@ args = 0, pretend = 0, frame = 0
 860              		@ frame_needed = 0, uses_anonymous_args = 0
 861              	.LVL92:
 862 0000 70B5     		push	{r4, r5, r6, lr}
 863              		.cfi_def_cfa_offset 16
 864              		.cfi_offset 4, -16
 865              		.cfi_offset 5, -12
 866              		.cfi_offset 6, -8
 867              		.cfi_offset 14, -4
 868              		.loc 1 805 0
 869 0002 0446     		mov	r4, r0
 870 0004 0D46     		mov	r5, r1
 871 0006 1646     		mov	r6, r2
 806:..\..\..\u8g2\u8g2\csrc/u8x8_d_st7565.c ****   /* call common procedure first and handle messages there */
 807:..\..\..\u8g2\u8g2\csrc/u8x8_d_st7565.c ****   if ( u8x8_d_st7565_common(u8x8, msg, arg_int, arg_ptr) == 0 )
 872              		.loc 1 807 0
 873 0008 FFF7FEFF 		bl	u8x8_d_st7565_common
 874              	.LVL93:
 875 000c 10BB     		cbnz	r0, .L96
 808:..\..\..\u8g2\u8g2\csrc/u8x8_d_st7565.c ****   {
 809:..\..\..\u8g2\u8g2\csrc/u8x8_d_st7565.c ****     /* msg not handled, then try here */
 810:..\..\..\u8g2\u8g2\csrc/u8x8_d_st7565.c ****     switch(msg)
 876              		.loc 1 810 0
 877 000e 0A2D     		cmp	r5, #10
 878 0010 08D0     		beq	.L92
 879 0012 0D2D     		cmp	r5, #13
 880 0014 0ED0     		beq	.L93
 881 0016 092D     		cmp	r5, #9
 882 0018 1DD1     		bne	.L91
 811:..\..\..\u8g2\u8g2\csrc/u8x8_d_st7565.c ****     {
 812:..\..\..\u8g2\u8g2\csrc/u8x8_d_st7565.c ****       case U8X8_MSG_DISPLAY_SETUP_MEMORY:
 813:..\..\..\u8g2\u8g2\csrc/u8x8_d_st7565.c **** 	u8x8_d_helper_display_setup_memory(u8x8, &u8x8_st7565_lm6059_display_info);
 883              		.loc 1 813 0
 884 001a 0F49     		ldr	r1, .L98
 885 001c 2046     		mov	r0, r4
 886 001e FFF7FEFF 		bl	u8x8_d_helper_display_setup_memory
ARM GAS  C:\Users\jesse\AppData\Local\Temp\cc9dv931.s 			page 31


 887              	.LVL94:
 888 0022 17E0     		b	.L96
 889              	.L92:
 814:..\..\..\u8g2\u8g2\csrc/u8x8_d_st7565.c **** 	break;
 815:..\..\..\u8g2\u8g2\csrc/u8x8_d_st7565.c ****       case U8X8_MSG_DISPLAY_INIT:
 816:..\..\..\u8g2\u8g2\csrc/u8x8_d_st7565.c **** 	u8x8_d_helper_display_init(u8x8);
 890              		.loc 1 816 0
 891 0024 2046     		mov	r0, r4
 892 0026 FFF7FEFF 		bl	u8x8_d_helper_display_init
 893              	.LVL95:
 817:..\..\..\u8g2\u8g2\csrc/u8x8_d_st7565.c **** 	u8x8_cad_SendSequence(u8x8, u8x8_d_st7565_ks0713_init_seq);
 894              		.loc 1 817 0
 895 002a 0C49     		ldr	r1, .L98+4
 896 002c 2046     		mov	r0, r4
 897 002e FFF7FEFF 		bl	u8x8_cad_SendSequence
 898              	.LVL96:
 899 0032 0FE0     		b	.L96
 900              	.L93:
 818:..\..\..\u8g2\u8g2\csrc/u8x8_d_st7565.c **** 	break;
 819:..\..\..\u8g2\u8g2\csrc/u8x8_d_st7565.c ****       case U8X8_MSG_DISPLAY_SET_FLIP_MODE:
 820:..\..\..\u8g2\u8g2\csrc/u8x8_d_st7565.c **** 	if ( arg_int == 0 )
 901              		.loc 1 820 0
 902 0034 36B9     		cbnz	r6, .L95
 821:..\..\..\u8g2\u8g2\csrc/u8x8_d_st7565.c **** 	{
 822:..\..\..\u8g2\u8g2\csrc/u8x8_d_st7565.c **** 	  u8x8_cad_SendSequence(u8x8, u8x8_d_st7565_zflip1_seq);
 903              		.loc 1 822 0
 904 0036 0A49     		ldr	r1, .L98+8
 905 0038 2046     		mov	r0, r4
 906 003a FFF7FEFF 		bl	u8x8_cad_SendSequence
 907              	.LVL97:
 823:..\..\..\u8g2\u8g2\csrc/u8x8_d_st7565.c **** 	  u8x8->x_offset = u8x8->display_info->default_x_offset;
 908              		.loc 1 823 0
 909 003e 2368     		ldr	r3, [r4]
 910 0040 9B7C     		ldrb	r3, [r3, #18]	@ zero_extendqisi2
 911 0042 05E0     		b	.L97
 912              	.L95:
 824:..\..\..\u8g2\u8g2\csrc/u8x8_d_st7565.c **** 	}
 825:..\..\..\u8g2\u8g2\csrc/u8x8_d_st7565.c **** 	else
 826:..\..\..\u8g2\u8g2\csrc/u8x8_d_st7565.c **** 	{
 827:..\..\..\u8g2\u8g2\csrc/u8x8_d_st7565.c **** 	  u8x8_cad_SendSequence(u8x8, u8x8_d_st7565_zflip0_seq);
 913              		.loc 1 827 0
 914 0044 0749     		ldr	r1, .L98+12
 915 0046 2046     		mov	r0, r4
 916 0048 FFF7FEFF 		bl	u8x8_cad_SendSequence
 917              	.LVL98:
 828:..\..\..\u8g2\u8g2\csrc/u8x8_d_st7565.c **** 	  u8x8->x_offset = u8x8->display_info->flipmode_x_offset;
 918              		.loc 1 828 0
 919 004c 2368     		ldr	r3, [r4]
 920 004e DB7C     		ldrb	r3, [r3, #19]	@ zero_extendqisi2
 921              	.L97:
 922 0050 84F82230 		strb	r3, [r4, #34]
 923              	.L96:
 829:..\..\..\u8g2\u8g2\csrc/u8x8_d_st7565.c **** 	}	
 830:..\..\..\u8g2\u8g2\csrc/u8x8_d_st7565.c **** 	break;
 831:..\..\..\u8g2\u8g2\csrc/u8x8_d_st7565.c ****       default:
 832:..\..\..\u8g2\u8g2\csrc/u8x8_d_st7565.c **** 	return 0;		/* msg unknown */
 833:..\..\..\u8g2\u8g2\csrc/u8x8_d_st7565.c ****     }
ARM GAS  C:\Users\jesse\AppData\Local\Temp\cc9dv931.s 			page 32


 834:..\..\..\u8g2\u8g2\csrc/u8x8_d_st7565.c ****   }
 835:..\..\..\u8g2\u8g2\csrc/u8x8_d_st7565.c ****   return 1;
 924              		.loc 1 835 0
 925 0054 0120     		movs	r0, #1
 926              	.L91:
 836:..\..\..\u8g2\u8g2\csrc/u8x8_d_st7565.c **** }
 927              		.loc 1 836 0
 928 0056 70BD     		pop	{r4, r5, r6, pc}
 929              	.LVL99:
 930              	.L99:
 931              		.align	2
 932              	.L98:
 933 0058 54010000 		.word	.LANCHOR0+340
 934 005c 8D010000 		.word	.LANCHOR0+397
 935 0060 D5000000 		.word	.LANCHOR0+213
 936 0064 CE000000 		.word	.LANCHOR0+206
 937              		.cfi_endproc
 938              	.LFE9:
 939              		.size	u8x8_d_st7565_ks0713, .-u8x8_d_st7565_ks0713
 940              		.section	.text.u8x8_d_st7565_lx12864,"ax",%progbits
 941              		.align	1
 942              		.global	u8x8_d_st7565_lx12864
 943              		.thumb
 944              		.thumb_func
 945              		.type	u8x8_d_st7565_lx12864, %function
 946              	u8x8_d_st7565_lx12864:
 947              	.LFB10:
 837:..\..\..\u8g2\u8g2\csrc/u8x8_d_st7565.c **** 
 838:..\..\..\u8g2\u8g2\csrc/u8x8_d_st7565.c **** 
 839:..\..\..\u8g2\u8g2\csrc/u8x8_d_st7565.c **** /*================================================*/
 840:..\..\..\u8g2\u8g2\csrc/u8x8_d_st7565.c **** /* LX12864 issue 576 */
 841:..\..\..\u8g2\u8g2\csrc/u8x8_d_st7565.c **** 
 842:..\..\..\u8g2\u8g2\csrc/u8x8_d_st7565.c **** static const uint8_t u8x8_d_st7565_lx12864_init_seq[] = {
 843:..\..\..\u8g2\u8g2\csrc/u8x8_d_st7565.c ****     
 844:..\..\..\u8g2\u8g2\csrc/u8x8_d_st7565.c ****   U8X8_START_TRANSFER(),             	/* enable chip, delay is part of the transfer start */
 845:..\..\..\u8g2\u8g2\csrc/u8x8_d_st7565.c ****   
 846:..\..\..\u8g2\u8g2\csrc/u8x8_d_st7565.c ****   U8X8_C(0x0e2),            			/* soft reset */
 847:..\..\..\u8g2\u8g2\csrc/u8x8_d_st7565.c ****   U8X8_C(0x0ae),		                /* display off */
 848:..\..\..\u8g2\u8g2\csrc/u8x8_d_st7565.c ****   U8X8_C(0x060),		                /* set display start line to ... */
 849:..\..\..\u8g2\u8g2\csrc/u8x8_d_st7565.c ****   
 850:..\..\..\u8g2\u8g2\csrc/u8x8_d_st7565.c ****   U8X8_C(0x0a0),		                /* ADC set to reverse */
 851:..\..\..\u8g2\u8g2\csrc/u8x8_d_st7565.c ****   U8X8_C(0x0c8),		                /* common output mode */
 852:..\..\..\u8g2\u8g2\csrc/u8x8_d_st7565.c ****   //U8X8_C(0x0a1),		                /* ADC set to reverse */
 853:..\..\..\u8g2\u8g2\csrc/u8x8_d_st7565.c ****   //U8X8_C(0x0c0),		                /* common output mode */
 854:..\..\..\u8g2\u8g2\csrc/u8x8_d_st7565.c ****   // Flipmode
 855:..\..\..\u8g2\u8g2\csrc/u8x8_d_st7565.c ****   // U8X8_C(0x0a0),		                /* ADC set to reverse */
 856:..\..\..\u8g2\u8g2\csrc/u8x8_d_st7565.c ****   // U8X8_C(0x0c8),		                /* common output mode */
 857:..\..\..\u8g2\u8g2\csrc/u8x8_d_st7565.c ****   
 858:..\..\..\u8g2\u8g2\csrc/u8x8_d_st7565.c ****   U8X8_C(0x0a6),		                /* display normal, bit val 0: LCD pixel off. */
 859:..\..\..\u8g2\u8g2\csrc/u8x8_d_st7565.c ****   U8X8_C(0x0a2),		                /* LCD bias 1/9 */
 860:..\..\..\u8g2\u8g2\csrc/u8x8_d_st7565.c ****   U8X8_C(0x02f),		                /* all power  control circuits on (regulator, booster and followe
 861:..\..\..\u8g2\u8g2\csrc/u8x8_d_st7565.c ****   U8X8_CA(0x0f8, 0x000),		/* set booster ratio to 4x (ST7567 feature) */
 862:..\..\..\u8g2\u8g2\csrc/u8x8_d_st7565.c ****   U8X8_C(0x027),		                /* set V0 voltage resistor ratio to max  */
 863:..\..\..\u8g2\u8g2\csrc/u8x8_d_st7565.c ****   U8X8_CA(0x081, 0x008),		/* set contrast, contrast value */
 864:..\..\..\u8g2\u8g2\csrc/u8x8_d_st7565.c ****   
 865:..\..\..\u8g2\u8g2\csrc/u8x8_d_st7565.c ****   U8X8_C(0x0ae),		                /* display off */
 866:..\..\..\u8g2\u8g2\csrc/u8x8_d_st7565.c ****   U8X8_C(0x0a5),		                /* enter powersafe: all pixel on, issue 142 */
ARM GAS  C:\Users\jesse\AppData\Local\Temp\cc9dv931.s 			page 33


 867:..\..\..\u8g2\u8g2\csrc/u8x8_d_st7565.c ****   
 868:..\..\..\u8g2\u8g2\csrc/u8x8_d_st7565.c ****   U8X8_END_TRANSFER(),             	/* disable chip */
 869:..\..\..\u8g2\u8g2\csrc/u8x8_d_st7565.c ****   U8X8_END()             			/* end of sequence */
 870:..\..\..\u8g2\u8g2\csrc/u8x8_d_st7565.c **** };
 871:..\..\..\u8g2\u8g2\csrc/u8x8_d_st7565.c **** 
 872:..\..\..\u8g2\u8g2\csrc/u8x8_d_st7565.c **** static const u8x8_display_info_t u8x8_st7565_lx12864_display_info =
 873:..\..\..\u8g2\u8g2\csrc/u8x8_d_st7565.c **** {
 874:..\..\..\u8g2\u8g2\csrc/u8x8_d_st7565.c ****   /* chip_enable_level = */ 0,
 875:..\..\..\u8g2\u8g2\csrc/u8x8_d_st7565.c ****   /* chip_disable_level = */ 1,
 876:..\..\..\u8g2\u8g2\csrc/u8x8_d_st7565.c ****   
 877:..\..\..\u8g2\u8g2\csrc/u8x8_d_st7565.c ****   /* post_chip_enable_wait_ns = */ 150,	/* st7565 datasheet, table 26, tcsh */
 878:..\..\..\u8g2\u8g2\csrc/u8x8_d_st7565.c ****   /* pre_chip_disable_wait_ns = */ 50,	/* st7565 datasheet, table 26, tcss */
 879:..\..\..\u8g2\u8g2\csrc/u8x8_d_st7565.c ****   /* reset_pulse_width_ms = */ 1, 
 880:..\..\..\u8g2\u8g2\csrc/u8x8_d_st7565.c ****   /* post_reset_wait_ms = */ 1, 
 881:..\..\..\u8g2\u8g2\csrc/u8x8_d_st7565.c ****   /* sda_setup_time_ns = */ 50,		/* st7565 datasheet, table 26, tsds */
 882:..\..\..\u8g2\u8g2\csrc/u8x8_d_st7565.c ****   /* sck_pulse_width_ns = */ 120,	/* half of cycle time (100ns according to datasheet), AVR: below 
 883:..\..\..\u8g2\u8g2\csrc/u8x8_d_st7565.c ****   /* sck_clock_hz = */ 4000000UL,	/* since Arduino 1.6.0, the SPI bus speed in Hz. Should be  10000
 884:..\..\..\u8g2\u8g2\csrc/u8x8_d_st7565.c ****   /* spi_mode = */ 0,		/* active high, rising edge */
 885:..\..\..\u8g2\u8g2\csrc/u8x8_d_st7565.c ****   /* i2c_bus_clock_100kHz = */ 4,
 886:..\..\..\u8g2\u8g2\csrc/u8x8_d_st7565.c ****   /* data_setup_time_ns = */ 40,	/* st7565 datasheet, table 24, tds8 */
 887:..\..\..\u8g2\u8g2\csrc/u8x8_d_st7565.c ****   /* write_pulse_width_ns = */ 80,	/* st7565 datasheet, table 24, tcclw */
 888:..\..\..\u8g2\u8g2\csrc/u8x8_d_st7565.c ****   /* tile_width = */ 16,		/* width of 16*8=128 pixel */
 889:..\..\..\u8g2\u8g2\csrc/u8x8_d_st7565.c ****   /* tile_hight = */ 8,
 890:..\..\..\u8g2\u8g2\csrc/u8x8_d_st7565.c ****   /* default_x_offset = */ 1,	/* not sure... */
 891:..\..\..\u8g2\u8g2\csrc/u8x8_d_st7565.c ****   /* flipmode_x_offset = */ 3,
 892:..\..\..\u8g2\u8g2\csrc/u8x8_d_st7565.c ****   /* pixel_width = */ 128,
 893:..\..\..\u8g2\u8g2\csrc/u8x8_d_st7565.c ****   /* pixel_height = */ 64
 894:..\..\..\u8g2\u8g2\csrc/u8x8_d_st7565.c **** };
 895:..\..\..\u8g2\u8g2\csrc/u8x8_d_st7565.c **** 
 896:..\..\..\u8g2\u8g2\csrc/u8x8_d_st7565.c **** uint8_t u8x8_d_st7565_lx12864(u8x8_t *u8x8, uint8_t msg, uint8_t arg_int, void *arg_ptr)
 897:..\..\..\u8g2\u8g2\csrc/u8x8_d_st7565.c **** {
 948              		.loc 1 897 0
 949              		.cfi_startproc
 950              		@ args = 0, pretend = 0, frame = 0
 951              		@ frame_needed = 0, uses_anonymous_args = 0
 952              	.LVL100:
 953 0000 70B5     		push	{r4, r5, r6, lr}
 954              		.cfi_def_cfa_offset 16
 955              		.cfi_offset 4, -16
 956              		.cfi_offset 5, -12
 957              		.cfi_offset 6, -8
 958              		.cfi_offset 14, -4
 959              		.loc 1 897 0
 960 0002 0446     		mov	r4, r0
 961 0004 0D46     		mov	r5, r1
 962 0006 1646     		mov	r6, r2
 898:..\..\..\u8g2\u8g2\csrc/u8x8_d_st7565.c ****   /* call common procedure first and handle messages there */
 899:..\..\..\u8g2\u8g2\csrc/u8x8_d_st7565.c ****   if ( u8x8_d_st7565_common(u8x8, msg, arg_int, arg_ptr) == 0 )
 963              		.loc 1 899 0
 964 0008 FFF7FEFF 		bl	u8x8_d_st7565_common
 965              	.LVL101:
 966 000c 10BB     		cbnz	r0, .L106
 900:..\..\..\u8g2\u8g2\csrc/u8x8_d_st7565.c ****   {
 901:..\..\..\u8g2\u8g2\csrc/u8x8_d_st7565.c ****     /* msg not handled, then try here */
 902:..\..\..\u8g2\u8g2\csrc/u8x8_d_st7565.c ****     switch(msg)
 967              		.loc 1 902 0
 968 000e 0A2D     		cmp	r5, #10
ARM GAS  C:\Users\jesse\AppData\Local\Temp\cc9dv931.s 			page 34


 969 0010 08D0     		beq	.L102
 970 0012 0D2D     		cmp	r5, #13
 971 0014 0ED0     		beq	.L103
 972 0016 092D     		cmp	r5, #9
 973 0018 1DD1     		bne	.L101
 903:..\..\..\u8g2\u8g2\csrc/u8x8_d_st7565.c ****     {
 904:..\..\..\u8g2\u8g2\csrc/u8x8_d_st7565.c ****       case U8X8_MSG_DISPLAY_SETUP_MEMORY:
 905:..\..\..\u8g2\u8g2\csrc/u8x8_d_st7565.c **** 	u8x8_d_helper_display_setup_memory(u8x8, &u8x8_st7565_lx12864_display_info);
 974              		.loc 1 905 0
 975 001a 0F49     		ldr	r1, .L108
 976 001c 2046     		mov	r0, r4
 977 001e FFF7FEFF 		bl	u8x8_d_helper_display_setup_memory
 978              	.LVL102:
 979 0022 17E0     		b	.L106
 980              	.L102:
 906:..\..\..\u8g2\u8g2\csrc/u8x8_d_st7565.c **** 	break;
 907:..\..\..\u8g2\u8g2\csrc/u8x8_d_st7565.c ****       case U8X8_MSG_DISPLAY_INIT:
 908:..\..\..\u8g2\u8g2\csrc/u8x8_d_st7565.c **** 	u8x8_d_helper_display_init(u8x8);
 981              		.loc 1 908 0
 982 0024 2046     		mov	r0, r4
 983 0026 FFF7FEFF 		bl	u8x8_d_helper_display_init
 984              	.LVL103:
 909:..\..\..\u8g2\u8g2\csrc/u8x8_d_st7565.c **** 	u8x8_cad_SendSequence(u8x8, u8x8_d_st7565_lx12864_init_seq);
 985              		.loc 1 909 0
 986 002a 0C49     		ldr	r1, .L108+4
 987 002c 2046     		mov	r0, r4
 988 002e FFF7FEFF 		bl	u8x8_cad_SendSequence
 989              	.LVL104:
 990 0032 0FE0     		b	.L106
 991              	.L103:
 910:..\..\..\u8g2\u8g2\csrc/u8x8_d_st7565.c **** 	break;
 911:..\..\..\u8g2\u8g2\csrc/u8x8_d_st7565.c ****       case U8X8_MSG_DISPLAY_SET_FLIP_MODE:
 912:..\..\..\u8g2\u8g2\csrc/u8x8_d_st7565.c **** 	if ( arg_int == 0 )
 992              		.loc 1 912 0
 993 0034 36B9     		cbnz	r6, .L105
 913:..\..\..\u8g2\u8g2\csrc/u8x8_d_st7565.c **** 	{
 914:..\..\..\u8g2\u8g2\csrc/u8x8_d_st7565.c **** 	  u8x8_cad_SendSequence(u8x8, u8x8_d_st7565_flip1_seq);
 994              		.loc 1 914 0
 995 0036 0A49     		ldr	r1, .L108+8
 996 0038 2046     		mov	r0, r4
 997 003a FFF7FEFF 		bl	u8x8_cad_SendSequence
 998              	.LVL105:
 915:..\..\..\u8g2\u8g2\csrc/u8x8_d_st7565.c **** 	  u8x8->x_offset = u8x8->display_info->default_x_offset;
 999              		.loc 1 915 0
 1000 003e 2368     		ldr	r3, [r4]
 1001 0040 9B7C     		ldrb	r3, [r3, #18]	@ zero_extendqisi2
 1002 0042 05E0     		b	.L107
 1003              	.L105:
 916:..\..\..\u8g2\u8g2\csrc/u8x8_d_st7565.c **** 	}
 917:..\..\..\u8g2\u8g2\csrc/u8x8_d_st7565.c **** 	else
 918:..\..\..\u8g2\u8g2\csrc/u8x8_d_st7565.c **** 	{
 919:..\..\..\u8g2\u8g2\csrc/u8x8_d_st7565.c **** 	  u8x8_cad_SendSequence(u8x8, u8x8_d_st7565_flip0_seq);
 1004              		.loc 1 919 0
 1005 0044 0749     		ldr	r1, .L108+12
 1006 0046 2046     		mov	r0, r4
 1007 0048 FFF7FEFF 		bl	u8x8_cad_SendSequence
 1008              	.LVL106:
ARM GAS  C:\Users\jesse\AppData\Local\Temp\cc9dv931.s 			page 35


 920:..\..\..\u8g2\u8g2\csrc/u8x8_d_st7565.c **** 	  u8x8->x_offset = u8x8->display_info->flipmode_x_offset;
 1009              		.loc 1 920 0
 1010 004c 2368     		ldr	r3, [r4]
 1011 004e DB7C     		ldrb	r3, [r3, #19]	@ zero_extendqisi2
 1012              	.L107:
 1013 0050 84F82230 		strb	r3, [r4, #34]
 1014              	.L106:
 921:..\..\..\u8g2\u8g2\csrc/u8x8_d_st7565.c **** 	}	
 922:..\..\..\u8g2\u8g2\csrc/u8x8_d_st7565.c **** 	break;
 923:..\..\..\u8g2\u8g2\csrc/u8x8_d_st7565.c ****       default:
 924:..\..\..\u8g2\u8g2\csrc/u8x8_d_st7565.c **** 	return 0;		/* msg unknown */
 925:..\..\..\u8g2\u8g2\csrc/u8x8_d_st7565.c ****     }
 926:..\..\..\u8g2\u8g2\csrc/u8x8_d_st7565.c ****   }
 927:..\..\..\u8g2\u8g2\csrc/u8x8_d_st7565.c ****   return 1;
 1015              		.loc 1 927 0
 1016 0054 0120     		movs	r0, #1
 1017              	.L101:
 928:..\..\..\u8g2\u8g2\csrc/u8x8_d_st7565.c **** }
 1018              		.loc 1 928 0
 1019 0056 70BD     		pop	{r4, r5, r6, pc}
 1020              	.LVL107:
 1021              	.L109:
 1022              		.align	2
 1023              	.L108:
 1024 0058 A8010000 		.word	.LANCHOR0+424
 1025 005c C0010000 		.word	.LANCHOR0+448
 1026 0060 50000000 		.word	.LANCHOR0+80
 1027 0064 49000000 		.word	.LANCHOR0+73
 1028              		.cfi_endproc
 1029              	.LFE10:
 1030              		.size	u8x8_d_st7565_lx12864, .-u8x8_d_st7565_lx12864
 1031              		.section	.text.u8x8_d_st7565_erc12864,"ax",%progbits
 1032              		.align	1
 1033              		.global	u8x8_d_st7565_erc12864
 1034              		.thumb
 1035              		.thumb_func
 1036              		.type	u8x8_d_st7565_erc12864, %function
 1037              	u8x8_d_st7565_erc12864:
 1038              	.LFB11:
 929:..\..\..\u8g2\u8g2\csrc/u8x8_d_st7565.c **** 
 930:..\..\..\u8g2\u8g2\csrc/u8x8_d_st7565.c **** 
 931:..\..\..\u8g2\u8g2\csrc/u8x8_d_st7565.c **** /*================================================*/
 932:..\..\..\u8g2\u8g2\csrc/u8x8_d_st7565.c **** /* ERC12864-1 (buydisplay.com) */
 933:..\..\..\u8g2\u8g2\csrc/u8x8_d_st7565.c **** 
 934:..\..\..\u8g2\u8g2\csrc/u8x8_d_st7565.c **** static const uint8_t u8x8_d_st7565_erc12864_init_seq[] = {
 935:..\..\..\u8g2\u8g2\csrc/u8x8_d_st7565.c ****     
 936:..\..\..\u8g2\u8g2\csrc/u8x8_d_st7565.c ****   U8X8_START_TRANSFER(),             	/* enable chip, delay is part of the transfer start */
 937:..\..\..\u8g2\u8g2\csrc/u8x8_d_st7565.c ****   
 938:..\..\..\u8g2\u8g2\csrc/u8x8_d_st7565.c ****   U8X8_C(0x0e2),            			/* soft reset */
 939:..\..\..\u8g2\u8g2\csrc/u8x8_d_st7565.c ****   U8X8_C(0x0ae),		                /* display off */
 940:..\..\..\u8g2\u8g2\csrc/u8x8_d_st7565.c ****   U8X8_C(0x040),		                /* set display start line to ... */
 941:..\..\..\u8g2\u8g2\csrc/u8x8_d_st7565.c ****   
 942:..\..\..\u8g2\u8g2\csrc/u8x8_d_st7565.c ****   U8X8_C(0x0a0),		                /* ADC set to reverse */
 943:..\..\..\u8g2\u8g2\csrc/u8x8_d_st7565.c ****   U8X8_C(0x0c8),		                /* common output mode */
 944:..\..\..\u8g2\u8g2\csrc/u8x8_d_st7565.c ****   //U8X8_C(0x0a1),		                /* ADC set to reverse */
 945:..\..\..\u8g2\u8g2\csrc/u8x8_d_st7565.c ****   //U8X8_C(0x0c0),		                /* common output mode */
 946:..\..\..\u8g2\u8g2\csrc/u8x8_d_st7565.c ****   // Flipmode
ARM GAS  C:\Users\jesse\AppData\Local\Temp\cc9dv931.s 			page 36


 947:..\..\..\u8g2\u8g2\csrc/u8x8_d_st7565.c ****   // U8X8_C(0x0a0),		                /* ADC set to reverse */
 948:..\..\..\u8g2\u8g2\csrc/u8x8_d_st7565.c ****   // U8X8_C(0x0c8),		                /* common output mode */
 949:..\..\..\u8g2\u8g2\csrc/u8x8_d_st7565.c ****   
 950:..\..\..\u8g2\u8g2\csrc/u8x8_d_st7565.c ****   U8X8_C(0x0a6),		                /* display normal, bit val 0: LCD pixel off. */
 951:..\..\..\u8g2\u8g2\csrc/u8x8_d_st7565.c ****   U8X8_C(0x0a3),		                /* LCD bias 1/9 */
 952:..\..\..\u8g2\u8g2\csrc/u8x8_d_st7565.c ****   U8X8_C(0x02f),		                /* all power  control circuits on (regulator, booster and followe
 953:..\..\..\u8g2\u8g2\csrc/u8x8_d_st7565.c ****   U8X8_CA(0x0f8, 0x000),		/* set booster ratio to 4x (ST7567 feature)*/
 954:..\..\..\u8g2\u8g2\csrc/u8x8_d_st7565.c ****   U8X8_C(0x027),		                /* set V0 voltage resistor ratio to max  */
 955:..\..\..\u8g2\u8g2\csrc/u8x8_d_st7565.c ****   U8X8_CA(0x081, 0x018),		/* set contrast, contrast value, EA default: 0x016 */
 956:..\..\..\u8g2\u8g2\csrc/u8x8_d_st7565.c ****   
 957:..\..\..\u8g2\u8g2\csrc/u8x8_d_st7565.c ****   U8X8_C(0x0ae),		                /* display off */
 958:..\..\..\u8g2\u8g2\csrc/u8x8_d_st7565.c ****   U8X8_C(0x0a5),		                /* enter powersafe: all pixel on, issue 142 */
 959:..\..\..\u8g2\u8g2\csrc/u8x8_d_st7565.c ****   
 960:..\..\..\u8g2\u8g2\csrc/u8x8_d_st7565.c ****   U8X8_END_TRANSFER(),             	/* disable chip */
 961:..\..\..\u8g2\u8g2\csrc/u8x8_d_st7565.c ****   U8X8_END()             			/* end of sequence */
 962:..\..\..\u8g2\u8g2\csrc/u8x8_d_st7565.c **** };
 963:..\..\..\u8g2\u8g2\csrc/u8x8_d_st7565.c **** 
 964:..\..\..\u8g2\u8g2\csrc/u8x8_d_st7565.c **** static const u8x8_display_info_t u8x8_st7565_erc12864_display_info =
 965:..\..\..\u8g2\u8g2\csrc/u8x8_d_st7565.c **** {
 966:..\..\..\u8g2\u8g2\csrc/u8x8_d_st7565.c ****   /* chip_enable_level = */ 0,
 967:..\..\..\u8g2\u8g2\csrc/u8x8_d_st7565.c ****   /* chip_disable_level = */ 1,
 968:..\..\..\u8g2\u8g2\csrc/u8x8_d_st7565.c ****   
 969:..\..\..\u8g2\u8g2\csrc/u8x8_d_st7565.c ****   /* post_chip_enable_wait_ns = */ 150,	/* st7565 datasheet, table 26, tcsh */
 970:..\..\..\u8g2\u8g2\csrc/u8x8_d_st7565.c ****   /* pre_chip_disable_wait_ns = */ 50,	/* st7565 datasheet, table 26, tcss */
 971:..\..\..\u8g2\u8g2\csrc/u8x8_d_st7565.c ****   /* reset_pulse_width_ms = */ 1, 
 972:..\..\..\u8g2\u8g2\csrc/u8x8_d_st7565.c ****   /* post_reset_wait_ms = */ 1, 
 973:..\..\..\u8g2\u8g2\csrc/u8x8_d_st7565.c ****   /* sda_setup_time_ns = */ 50,		/* st7565 datasheet, table 26, tsds */
 974:..\..\..\u8g2\u8g2\csrc/u8x8_d_st7565.c ****   /* sck_pulse_width_ns = */ 120,	/* half of cycle time (100ns according to datasheet), AVR: below 
 975:..\..\..\u8g2\u8g2\csrc/u8x8_d_st7565.c ****   /* sck_clock_hz = */ 4000000UL,	/* since Arduino 1.6.0, the SPI bus speed in Hz. Should be  10000
 976:..\..\..\u8g2\u8g2\csrc/u8x8_d_st7565.c ****   /* spi_mode = */ 0,		/* active high, rising edge */
 977:..\..\..\u8g2\u8g2\csrc/u8x8_d_st7565.c ****   /* i2c_bus_clock_100kHz = */ 4,
 978:..\..\..\u8g2\u8g2\csrc/u8x8_d_st7565.c ****   /* data_setup_time_ns = */ 40,	/* st7565 datasheet, table 24, tds8 */
 979:..\..\..\u8g2\u8g2\csrc/u8x8_d_st7565.c ****   /* write_pulse_width_ns = */ 80,	/* st7565 datasheet, table 24, tcclw */
 980:..\..\..\u8g2\u8g2\csrc/u8x8_d_st7565.c ****   /* tile_width = */ 16,		/* width of 16*8=128 pixel */
 981:..\..\..\u8g2\u8g2\csrc/u8x8_d_st7565.c ****   /* tile_hight = */ 8,
 982:..\..\..\u8g2\u8g2\csrc/u8x8_d_st7565.c ****   /* default_x_offset = */ 0,
 983:..\..\..\u8g2\u8g2\csrc/u8x8_d_st7565.c ****   /* flipmode_x_offset = */ 4,
 984:..\..\..\u8g2\u8g2\csrc/u8x8_d_st7565.c ****   /* pixel_width = */ 128,
 985:..\..\..\u8g2\u8g2\csrc/u8x8_d_st7565.c ****   /* pixel_height = */ 64
 986:..\..\..\u8g2\u8g2\csrc/u8x8_d_st7565.c **** };
 987:..\..\..\u8g2\u8g2\csrc/u8x8_d_st7565.c **** 
 988:..\..\..\u8g2\u8g2\csrc/u8x8_d_st7565.c **** uint8_t u8x8_d_st7565_erc12864(u8x8_t *u8x8, uint8_t msg, uint8_t arg_int, void *arg_ptr)
 989:..\..\..\u8g2\u8g2\csrc/u8x8_d_st7565.c **** {
 1039              		.loc 1 989 0
 1040              		.cfi_startproc
 1041              		@ args = 0, pretend = 0, frame = 0
 1042              		@ frame_needed = 0, uses_anonymous_args = 0
 1043              	.LVL108:
 1044 0000 70B5     		push	{r4, r5, r6, lr}
 1045              		.cfi_def_cfa_offset 16
 1046              		.cfi_offset 4, -16
 1047              		.cfi_offset 5, -12
 1048              		.cfi_offset 6, -8
 1049              		.cfi_offset 14, -4
 1050              		.loc 1 989 0
 1051 0002 0446     		mov	r4, r0
 1052 0004 0D46     		mov	r5, r1
ARM GAS  C:\Users\jesse\AppData\Local\Temp\cc9dv931.s 			page 37


 1053 0006 1646     		mov	r6, r2
 990:..\..\..\u8g2\u8g2\csrc/u8x8_d_st7565.c ****   /* call common procedure first and handle messages there */
 991:..\..\..\u8g2\u8g2\csrc/u8x8_d_st7565.c ****   if ( u8x8_d_st7565_common(u8x8, msg, arg_int, arg_ptr) == 0 )
 1054              		.loc 1 991 0
 1055 0008 FFF7FEFF 		bl	u8x8_d_st7565_common
 1056              	.LVL109:
 1057 000c 10BB     		cbnz	r0, .L116
 992:..\..\..\u8g2\u8g2\csrc/u8x8_d_st7565.c ****   {
 993:..\..\..\u8g2\u8g2\csrc/u8x8_d_st7565.c ****     /* msg not handled, then try here */
 994:..\..\..\u8g2\u8g2\csrc/u8x8_d_st7565.c ****     switch(msg)
 1058              		.loc 1 994 0
 1059 000e 0A2D     		cmp	r5, #10
 1060 0010 08D0     		beq	.L112
 1061 0012 0D2D     		cmp	r5, #13
 1062 0014 0ED0     		beq	.L113
 1063 0016 092D     		cmp	r5, #9
 1064 0018 1DD1     		bne	.L111
 995:..\..\..\u8g2\u8g2\csrc/u8x8_d_st7565.c ****     {
 996:..\..\..\u8g2\u8g2\csrc/u8x8_d_st7565.c ****       case U8X8_MSG_DISPLAY_SETUP_MEMORY:
 997:..\..\..\u8g2\u8g2\csrc/u8x8_d_st7565.c **** 	u8x8_d_helper_display_setup_memory(u8x8, &u8x8_st7565_erc12864_display_info);
 1065              		.loc 1 997 0
 1066 001a 0F49     		ldr	r1, .L118
 1067 001c 2046     		mov	r0, r4
 1068 001e FFF7FEFF 		bl	u8x8_d_helper_display_setup_memory
 1069              	.LVL110:
 1070 0022 17E0     		b	.L116
 1071              	.L112:
 998:..\..\..\u8g2\u8g2\csrc/u8x8_d_st7565.c **** 	break;
 999:..\..\..\u8g2\u8g2\csrc/u8x8_d_st7565.c ****       case U8X8_MSG_DISPLAY_INIT:
1000:..\..\..\u8g2\u8g2\csrc/u8x8_d_st7565.c **** 	u8x8_d_helper_display_init(u8x8);
 1072              		.loc 1 1000 0
 1073 0024 2046     		mov	r0, r4
 1074 0026 FFF7FEFF 		bl	u8x8_d_helper_display_init
 1075              	.LVL111:
1001:..\..\..\u8g2\u8g2\csrc/u8x8_d_st7565.c **** 	u8x8_cad_SendSequence(u8x8, u8x8_d_st7565_erc12864_init_seq);
 1076              		.loc 1 1001 0
 1077 002a 0C49     		ldr	r1, .L118+4
 1078 002c 2046     		mov	r0, r4
 1079 002e FFF7FEFF 		bl	u8x8_cad_SendSequence
 1080              	.LVL112:
 1081 0032 0FE0     		b	.L116
 1082              	.L113:
1002:..\..\..\u8g2\u8g2\csrc/u8x8_d_st7565.c **** 	break;
1003:..\..\..\u8g2\u8g2\csrc/u8x8_d_st7565.c ****       case U8X8_MSG_DISPLAY_SET_FLIP_MODE:
1004:..\..\..\u8g2\u8g2\csrc/u8x8_d_st7565.c **** 	if ( arg_int == 0 )
 1083              		.loc 1 1004 0
 1084 0034 36B9     		cbnz	r6, .L115
1005:..\..\..\u8g2\u8g2\csrc/u8x8_d_st7565.c **** 	{
1006:..\..\..\u8g2\u8g2\csrc/u8x8_d_st7565.c **** 	  u8x8_cad_SendSequence(u8x8, u8x8_d_st7565_flip1_seq);
 1085              		.loc 1 1006 0
 1086 0036 0A49     		ldr	r1, .L118+8
 1087 0038 2046     		mov	r0, r4
 1088 003a FFF7FEFF 		bl	u8x8_cad_SendSequence
 1089              	.LVL113:
1007:..\..\..\u8g2\u8g2\csrc/u8x8_d_st7565.c **** 	  u8x8->x_offset = u8x8->display_info->default_x_offset;
 1090              		.loc 1 1007 0
 1091 003e 2368     		ldr	r3, [r4]
ARM GAS  C:\Users\jesse\AppData\Local\Temp\cc9dv931.s 			page 38


 1092 0040 9B7C     		ldrb	r3, [r3, #18]	@ zero_extendqisi2
 1093 0042 05E0     		b	.L117
 1094              	.L115:
1008:..\..\..\u8g2\u8g2\csrc/u8x8_d_st7565.c **** 	}
1009:..\..\..\u8g2\u8g2\csrc/u8x8_d_st7565.c **** 	else
1010:..\..\..\u8g2\u8g2\csrc/u8x8_d_st7565.c **** 	{
1011:..\..\..\u8g2\u8g2\csrc/u8x8_d_st7565.c **** 	  u8x8_cad_SendSequence(u8x8, u8x8_d_st7565_flip0_seq);
 1095              		.loc 1 1011 0
 1096 0044 0749     		ldr	r1, .L118+12
 1097 0046 2046     		mov	r0, r4
 1098 0048 FFF7FEFF 		bl	u8x8_cad_SendSequence
 1099              	.LVL114:
1012:..\..\..\u8g2\u8g2\csrc/u8x8_d_st7565.c **** 	  u8x8->x_offset = u8x8->display_info->flipmode_x_offset;
 1100              		.loc 1 1012 0
 1101 004c 2368     		ldr	r3, [r4]
 1102 004e DB7C     		ldrb	r3, [r3, #19]	@ zero_extendqisi2
 1103              	.L117:
 1104 0050 84F82230 		strb	r3, [r4, #34]
 1105              	.L116:
1013:..\..\..\u8g2\u8g2\csrc/u8x8_d_st7565.c **** 	}	
1014:..\..\..\u8g2\u8g2\csrc/u8x8_d_st7565.c **** 	break;
1015:..\..\..\u8g2\u8g2\csrc/u8x8_d_st7565.c ****       default:
1016:..\..\..\u8g2\u8g2\csrc/u8x8_d_st7565.c **** 	return 0;		/* msg unknown */
1017:..\..\..\u8g2\u8g2\csrc/u8x8_d_st7565.c ****     }
1018:..\..\..\u8g2\u8g2\csrc/u8x8_d_st7565.c ****   }
1019:..\..\..\u8g2\u8g2\csrc/u8x8_d_st7565.c ****   return 1;
 1106              		.loc 1 1019 0
 1107 0054 0120     		movs	r0, #1
 1108              	.L111:
1020:..\..\..\u8g2\u8g2\csrc/u8x8_d_st7565.c **** }
 1109              		.loc 1 1020 0
 1110 0056 70BD     		pop	{r4, r5, r6, pc}
 1111              	.LVL115:
 1112              	.L119:
 1113              		.align	2
 1114              	.L118:
 1115 0058 E4010000 		.word	.LANCHOR0+484
 1116 005c FC010000 		.word	.LANCHOR0+508
 1117 0060 50000000 		.word	.LANCHOR0+80
 1118 0064 49000000 		.word	.LANCHOR0+73
 1119              		.cfi_endproc
 1120              	.LFE11:
 1121              		.size	u8x8_d_st7565_erc12864, .-u8x8_d_st7565_erc12864
 1122              		.section	.text.u8x8_d_st7565_erc12864_alt,"ax",%progbits
 1123              		.align	1
 1124              		.global	u8x8_d_st7565_erc12864_alt
 1125              		.thumb
 1126              		.thumb_func
 1127              		.type	u8x8_d_st7565_erc12864_alt, %function
 1128              	u8x8_d_st7565_erc12864_alt:
 1129              	.LFB12:
1021:..\..\..\u8g2\u8g2\csrc/u8x8_d_st7565.c **** 
1022:..\..\..\u8g2\u8g2\csrc/u8x8_d_st7565.c **** 
1023:..\..\..\u8g2\u8g2\csrc/u8x8_d_st7565.c **** 
1024:..\..\..\u8g2\u8g2\csrc/u8x8_d_st7565.c **** 
1025:..\..\..\u8g2\u8g2\csrc/u8x8_d_st7565.c **** /*================================================*/
1026:..\..\..\u8g2\u8g2\csrc/u8x8_d_st7565.c **** /* ERC12864-1 alternative version, suggested in issue 790 */
ARM GAS  C:\Users\jesse\AppData\Local\Temp\cc9dv931.s 			page 39


1027:..\..\..\u8g2\u8g2\csrc/u8x8_d_st7565.c **** 
1028:..\..\..\u8g2\u8g2\csrc/u8x8_d_st7565.c **** static const uint8_t u8x8_d_st7565_erc12864_alt_init_seq[] = {
1029:..\..\..\u8g2\u8g2\csrc/u8x8_d_st7565.c **** 
1030:..\..\..\u8g2\u8g2\csrc/u8x8_d_st7565.c **** 
1031:..\..\..\u8g2\u8g2\csrc/u8x8_d_st7565.c ****   // original sequence 
1032:..\..\..\u8g2\u8g2\csrc/u8x8_d_st7565.c ****   
1033:..\..\..\u8g2\u8g2\csrc/u8x8_d_st7565.c ****   // U8X8_START_TRANSFER(),             	/* enable chip, delay is part of the transfer start */
1034:..\..\..\u8g2\u8g2\csrc/u8x8_d_st7565.c ****   
1035:..\..\..\u8g2\u8g2\csrc/u8x8_d_st7565.c ****   // U8X8_C(0x0e2),            			/* soft reset */
1036:..\..\..\u8g2\u8g2\csrc/u8x8_d_st7565.c ****   // U8X8_C(0x0ae),		                /* display off */
1037:..\..\..\u8g2\u8g2\csrc/u8x8_d_st7565.c ****   // U8X8_C(0x040),		                /* set display start line to ... */
1038:..\..\..\u8g2\u8g2\csrc/u8x8_d_st7565.c ****   
1039:..\..\..\u8g2\u8g2\csrc/u8x8_d_st7565.c ****   // U8X8_C(0x0a0),		                /* ADC set to reverse */
1040:..\..\..\u8g2\u8g2\csrc/u8x8_d_st7565.c ****   // U8X8_C(0x0c8),		                /* common output mode */
1041:..\..\..\u8g2\u8g2\csrc/u8x8_d_st7565.c ****   
1042:..\..\..\u8g2\u8g2\csrc/u8x8_d_st7565.c ****   // U8X8_C(0x0a6),		                /* display normal, bit val 0: LCD pixel off. */
1043:..\..\..\u8g2\u8g2\csrc/u8x8_d_st7565.c ****   // U8X8_C(0x0a3),		                /* LCD bias 1/9 */
1044:..\..\..\u8g2\u8g2\csrc/u8x8_d_st7565.c ****   // U8X8_C(0x02f),		                /* all power  control circuits on (regulator, booster and foll
1045:..\..\..\u8g2\u8g2\csrc/u8x8_d_st7565.c ****   // U8X8_CA(0x0f8, 0x000),		/* set booster ratio to 4x (ST7567 feature)*/
1046:..\..\..\u8g2\u8g2\csrc/u8x8_d_st7565.c ****   // U8X8_C(0x027),		                /* set V0 voltage resistor ratio to max  */
1047:..\..\..\u8g2\u8g2\csrc/u8x8_d_st7565.c ****   // U8X8_CA(0x081, 0x018),		/* set contrast, contrast value, EA default: 0x016 */
1048:..\..\..\u8g2\u8g2\csrc/u8x8_d_st7565.c ****   
1049:..\..\..\u8g2\u8g2\csrc/u8x8_d_st7565.c ****   // U8X8_C(0x0ae),		                /* display off */
1050:..\..\..\u8g2\u8g2\csrc/u8x8_d_st7565.c ****   // U8X8_C(0x0a5),		                /* enter powersafe: all pixel on, issue 142 */
1051:..\..\..\u8g2\u8g2\csrc/u8x8_d_st7565.c ****   
1052:..\..\..\u8g2\u8g2\csrc/u8x8_d_st7565.c ****   // U8X8_END_TRANSFER(),             	/* disable chip */
1053:..\..\..\u8g2\u8g2\csrc/u8x8_d_st7565.c ****   // U8X8_END()             			/* end of sequence */
1054:..\..\..\u8g2\u8g2\csrc/u8x8_d_st7565.c ****   
1055:..\..\..\u8g2\u8g2\csrc/u8x8_d_st7565.c **** 
1056:..\..\..\u8g2\u8g2\csrc/u8x8_d_st7565.c **** 
1057:..\..\..\u8g2\u8g2\csrc/u8x8_d_st7565.c ****   // suggested in https://github.com/olikraus/u8g2/issues/790
1058:..\..\..\u8g2\u8g2\csrc/u8x8_d_st7565.c ****   
1059:..\..\..\u8g2\u8g2\csrc/u8x8_d_st7565.c ****   U8X8_START_TRANSFER(),             	/* enable chip, delay is part of the transfer start */
1060:..\..\..\u8g2\u8g2\csrc/u8x8_d_st7565.c ****   
1061:..\..\..\u8g2\u8g2\csrc/u8x8_d_st7565.c ****   U8X8_C(0x0e2),            			/* soft reset */
1062:..\..\..\u8g2\u8g2\csrc/u8x8_d_st7565.c ****   U8X8_C(0x0ae),		                /* display off */
1063:..\..\..\u8g2\u8g2\csrc/u8x8_d_st7565.c ****   U8X8_C(0x040),		                /* set display start line to ... */
1064:..\..\..\u8g2\u8g2\csrc/u8x8_d_st7565.c ****   
1065:..\..\..\u8g2\u8g2\csrc/u8x8_d_st7565.c ****   U8X8_C(0x0a0),		                /* ADC set to reverse */
1066:..\..\..\u8g2\u8g2\csrc/u8x8_d_st7565.c ****   U8X8_C(0x0c8),		                /* common output mode */
1067:..\..\..\u8g2\u8g2\csrc/u8x8_d_st7565.c ****   
1068:..\..\..\u8g2\u8g2\csrc/u8x8_d_st7565.c ****   U8X8_C(0x0a6),		                /* display normal, bit val 0: LCD pixel off. */
1069:..\..\..\u8g2\u8g2\csrc/u8x8_d_st7565.c ****   U8X8_C(0x0a2),		                /* LCD bias 1/9 - *** Changed by Ismail - was 0xa3 - 1/7 bias we 
1070:..\..\..\u8g2\u8g2\csrc/u8x8_d_st7565.c ****   U8X8_C(0x02f),		                /* all power  control circuits on (regulator, booster and followe
1071:..\..\..\u8g2\u8g2\csrc/u8x8_d_st7565.c ****   U8X8_CA(0x0f8, 0x000),		/* set booster ratio to 4x (ST7567 feature)*/
1072:..\..\..\u8g2\u8g2\csrc/u8x8_d_st7565.c ****   U8X8_C(0x027),		                /* set V0 voltage resistor ratio to max  */
1073:..\..\..\u8g2\u8g2\csrc/u8x8_d_st7565.c ****   U8X8_CA(0x081, 0x05),		       /* set contrast, contrast value, EA default: 0x016 - *** Changed by
1074:..\..\..\u8g2\u8g2\csrc/u8x8_d_st7565.c ****   
1075:..\..\..\u8g2\u8g2\csrc/u8x8_d_st7565.c ****   U8X8_C(0x0ae),		                /* display off */
1076:..\..\..\u8g2\u8g2\csrc/u8x8_d_st7565.c ****   U8X8_C(0x0a5),		                /* enter powersafe: all pixel on, issue 142 */
1077:..\..\..\u8g2\u8g2\csrc/u8x8_d_st7565.c ****   
1078:..\..\..\u8g2\u8g2\csrc/u8x8_d_st7565.c ****   U8X8_END_TRANSFER(),             	/* disable chip */
1079:..\..\..\u8g2\u8g2\csrc/u8x8_d_st7565.c ****   U8X8_END()             			/* end of sequence */
1080:..\..\..\u8g2\u8g2\csrc/u8x8_d_st7565.c ****   
1081:..\..\..\u8g2\u8g2\csrc/u8x8_d_st7565.c **** };
1082:..\..\..\u8g2\u8g2\csrc/u8x8_d_st7565.c **** 
1083:..\..\..\u8g2\u8g2\csrc/u8x8_d_st7565.c **** 
ARM GAS  C:\Users\jesse\AppData\Local\Temp\cc9dv931.s 			page 40


1084:..\..\..\u8g2\u8g2\csrc/u8x8_d_st7565.c **** uint8_t u8x8_d_st7565_erc12864_alt(u8x8_t *u8x8, uint8_t msg, uint8_t arg_int, void *arg_ptr)
1085:..\..\..\u8g2\u8g2\csrc/u8x8_d_st7565.c **** {
 1130              		.loc 1 1085 0
 1131              		.cfi_startproc
 1132              		@ args = 0, pretend = 0, frame = 0
 1133              		@ frame_needed = 0, uses_anonymous_args = 0
 1134              	.LVL116:
 1135 0000 70B5     		push	{r4, r5, r6, lr}
 1136              		.cfi_def_cfa_offset 16
 1137              		.cfi_offset 4, -16
 1138              		.cfi_offset 5, -12
 1139              		.cfi_offset 6, -8
 1140              		.cfi_offset 14, -4
 1141              		.loc 1 1085 0
 1142 0002 0446     		mov	r4, r0
 1143 0004 0D46     		mov	r5, r1
 1144 0006 1646     		mov	r6, r2
1086:..\..\..\u8g2\u8g2\csrc/u8x8_d_st7565.c ****   /* call common procedure first and handle messages there */
1087:..\..\..\u8g2\u8g2\csrc/u8x8_d_st7565.c ****   if ( u8x8_d_st7565_common(u8x8, msg, arg_int, arg_ptr) == 0 )
 1145              		.loc 1 1087 0
 1146 0008 FFF7FEFF 		bl	u8x8_d_st7565_common
 1147              	.LVL117:
 1148 000c 10BB     		cbnz	r0, .L126
1088:..\..\..\u8g2\u8g2\csrc/u8x8_d_st7565.c ****   {
1089:..\..\..\u8g2\u8g2\csrc/u8x8_d_st7565.c ****     /* msg not handled, then try here */
1090:..\..\..\u8g2\u8g2\csrc/u8x8_d_st7565.c ****     switch(msg)
 1149              		.loc 1 1090 0
 1150 000e 0A2D     		cmp	r5, #10
 1151 0010 08D0     		beq	.L122
 1152 0012 0D2D     		cmp	r5, #13
 1153 0014 0ED0     		beq	.L123
 1154 0016 092D     		cmp	r5, #9
 1155 0018 1DD1     		bne	.L121
1091:..\..\..\u8g2\u8g2\csrc/u8x8_d_st7565.c ****     {
1092:..\..\..\u8g2\u8g2\csrc/u8x8_d_st7565.c ****       case U8X8_MSG_DISPLAY_SETUP_MEMORY:
1093:..\..\..\u8g2\u8g2\csrc/u8x8_d_st7565.c **** 	u8x8_d_helper_display_setup_memory(u8x8, &u8x8_st7565_erc12864_display_info);
 1156              		.loc 1 1093 0
 1157 001a 0F49     		ldr	r1, .L128
 1158 001c 2046     		mov	r0, r4
 1159 001e FFF7FEFF 		bl	u8x8_d_helper_display_setup_memory
 1160              	.LVL118:
 1161 0022 17E0     		b	.L126
 1162              	.L122:
1094:..\..\..\u8g2\u8g2\csrc/u8x8_d_st7565.c **** 	break;
1095:..\..\..\u8g2\u8g2\csrc/u8x8_d_st7565.c ****       case U8X8_MSG_DISPLAY_INIT:
1096:..\..\..\u8g2\u8g2\csrc/u8x8_d_st7565.c **** 	u8x8_d_helper_display_init(u8x8);
 1163              		.loc 1 1096 0
 1164 0024 2046     		mov	r0, r4
 1165 0026 FFF7FEFF 		bl	u8x8_d_helper_display_init
 1166              	.LVL119:
1097:..\..\..\u8g2\u8g2\csrc/u8x8_d_st7565.c **** 	u8x8_cad_SendSequence(u8x8, u8x8_d_st7565_erc12864_alt_init_seq);
 1167              		.loc 1 1097 0
 1168 002a 0C49     		ldr	r1, .L128+4
 1169 002c 2046     		mov	r0, r4
 1170 002e FFF7FEFF 		bl	u8x8_cad_SendSequence
 1171              	.LVL120:
 1172 0032 0FE0     		b	.L126
ARM GAS  C:\Users\jesse\AppData\Local\Temp\cc9dv931.s 			page 41


 1173              	.L123:
1098:..\..\..\u8g2\u8g2\csrc/u8x8_d_st7565.c **** 	break;
1099:..\..\..\u8g2\u8g2\csrc/u8x8_d_st7565.c ****       case U8X8_MSG_DISPLAY_SET_FLIP_MODE:
1100:..\..\..\u8g2\u8g2\csrc/u8x8_d_st7565.c **** 	if ( arg_int == 0 )
 1174              		.loc 1 1100 0
 1175 0034 36B9     		cbnz	r6, .L125
1101:..\..\..\u8g2\u8g2\csrc/u8x8_d_st7565.c **** 	{
1102:..\..\..\u8g2\u8g2\csrc/u8x8_d_st7565.c **** 	  u8x8_cad_SendSequence(u8x8, u8x8_d_st7565_flip1_seq);
 1176              		.loc 1 1102 0
 1177 0036 0A49     		ldr	r1, .L128+8
 1178 0038 2046     		mov	r0, r4
 1179 003a FFF7FEFF 		bl	u8x8_cad_SendSequence
 1180              	.LVL121:
1103:..\..\..\u8g2\u8g2\csrc/u8x8_d_st7565.c **** 	  u8x8->x_offset = u8x8->display_info->default_x_offset;
 1181              		.loc 1 1103 0
 1182 003e 2368     		ldr	r3, [r4]
 1183 0040 9B7C     		ldrb	r3, [r3, #18]	@ zero_extendqisi2
 1184 0042 05E0     		b	.L127
 1185              	.L125:
1104:..\..\..\u8g2\u8g2\csrc/u8x8_d_st7565.c **** 	}
1105:..\..\..\u8g2\u8g2\csrc/u8x8_d_st7565.c **** 	else
1106:..\..\..\u8g2\u8g2\csrc/u8x8_d_st7565.c **** 	{
1107:..\..\..\u8g2\u8g2\csrc/u8x8_d_st7565.c **** 	  u8x8_cad_SendSequence(u8x8, u8x8_d_st7565_flip0_seq);
 1186              		.loc 1 1107 0
 1187 0044 0749     		ldr	r1, .L128+12
 1188 0046 2046     		mov	r0, r4
 1189 0048 FFF7FEFF 		bl	u8x8_cad_SendSequence
 1190              	.LVL122:
1108:..\..\..\u8g2\u8g2\csrc/u8x8_d_st7565.c **** 	  u8x8->x_offset = u8x8->display_info->flipmode_x_offset;
 1191              		.loc 1 1108 0
 1192 004c 2368     		ldr	r3, [r4]
 1193 004e DB7C     		ldrb	r3, [r3, #19]	@ zero_extendqisi2
 1194              	.L127:
 1195 0050 84F82230 		strb	r3, [r4, #34]
 1196              	.L126:
1109:..\..\..\u8g2\u8g2\csrc/u8x8_d_st7565.c **** 	}	
1110:..\..\..\u8g2\u8g2\csrc/u8x8_d_st7565.c **** 	break;
1111:..\..\..\u8g2\u8g2\csrc/u8x8_d_st7565.c ****       default:
1112:..\..\..\u8g2\u8g2\csrc/u8x8_d_st7565.c **** 	return 0;		/* msg unknown */
1113:..\..\..\u8g2\u8g2\csrc/u8x8_d_st7565.c ****     }
1114:..\..\..\u8g2\u8g2\csrc/u8x8_d_st7565.c ****   }
1115:..\..\..\u8g2\u8g2\csrc/u8x8_d_st7565.c ****   return 1;
 1197              		.loc 1 1115 0
 1198 0054 0120     		movs	r0, #1
 1199              	.L121:
1116:..\..\..\u8g2\u8g2\csrc/u8x8_d_st7565.c **** }
 1200              		.loc 1 1116 0
 1201 0056 70BD     		pop	{r4, r5, r6, pc}
 1202              	.LVL123:
 1203              	.L129:
 1204              		.align	2
 1205              	.L128:
 1206 0058 E4010000 		.word	.LANCHOR0+484
 1207 005c 1D020000 		.word	.LANCHOR0+541
 1208 0060 50000000 		.word	.LANCHOR0+80
 1209 0064 49000000 		.word	.LANCHOR0+73
 1210              		.cfi_endproc
ARM GAS  C:\Users\jesse\AppData\Local\Temp\cc9dv931.s 			page 42


 1211              	.LFE12:
 1212              		.size	u8x8_d_st7565_erc12864_alt, .-u8x8_d_st7565_erc12864_alt
 1213              		.section	.text.u8x8_d_nt7534_tg12864r,"ax",%progbits
 1214              		.align	1
 1215              		.global	u8x8_d_nt7534_tg12864r
 1216              		.thumb
 1217              		.thumb_func
 1218              		.type	u8x8_d_nt7534_tg12864r, %function
 1219              	u8x8_d_nt7534_tg12864r:
 1220              	.LFB13:
1117:..\..\..\u8g2\u8g2\csrc/u8x8_d_st7565.c **** 
1118:..\..\..\u8g2\u8g2\csrc/u8x8_d_st7565.c **** 
1119:..\..\..\u8g2\u8g2\csrc/u8x8_d_st7565.c **** 
1120:..\..\..\u8g2\u8g2\csrc/u8x8_d_st7565.c **** 
1121:..\..\..\u8g2\u8g2\csrc/u8x8_d_st7565.c **** /*================================================*/
1122:..\..\..\u8g2\u8g2\csrc/u8x8_d_st7565.c **** /* NT7534, TG12864R */
1123:..\..\..\u8g2\u8g2\csrc/u8x8_d_st7565.c **** /* The NT7534 has an extended command set for the ST7565, however this is not used. */
1124:..\..\..\u8g2\u8g2\csrc/u8x8_d_st7565.c **** /* The TG12864R display is also shifted in lines, like the LM6059/Adafruit display */
1125:..\..\..\u8g2\u8g2\csrc/u8x8_d_st7565.c **** /* However contrast seems to be different */
1126:..\..\..\u8g2\u8g2\csrc/u8x8_d_st7565.c **** 
1127:..\..\..\u8g2\u8g2\csrc/u8x8_d_st7565.c **** static const uint8_t u8x8_d_nt7534_tg12864r_init_seq[] = {
1128:..\..\..\u8g2\u8g2\csrc/u8x8_d_st7565.c ****     
1129:..\..\..\u8g2\u8g2\csrc/u8x8_d_st7565.c ****   U8X8_START_TRANSFER(),             	/* enable chip, delay is part of the transfer start */
1130:..\..\..\u8g2\u8g2\csrc/u8x8_d_st7565.c ****   
1131:..\..\..\u8g2\u8g2\csrc/u8x8_d_st7565.c ****   U8X8_C(0x0e2),            			/* soft reset */
1132:..\..\..\u8g2\u8g2\csrc/u8x8_d_st7565.c ****   U8X8_C(0x0ae),		                /* display off */
1133:..\..\..\u8g2\u8g2\csrc/u8x8_d_st7565.c ****   U8X8_C(0x060),		                /* set display start line to ... */
1134:..\..\..\u8g2\u8g2\csrc/u8x8_d_st7565.c ****   
1135:..\..\..\u8g2\u8g2\csrc/u8x8_d_st7565.c ****   U8X8_C(0x0a0),		                /* ADC set to reverse */
1136:..\..\..\u8g2\u8g2\csrc/u8x8_d_st7565.c ****   U8X8_C(0x0c8),		                /* common output mode */
1137:..\..\..\u8g2\u8g2\csrc/u8x8_d_st7565.c ****   // Flipmode
1138:..\..\..\u8g2\u8g2\csrc/u8x8_d_st7565.c ****   //U8X8_C(0x0a1),		                /* ADC set to reverse */
1139:..\..\..\u8g2\u8g2\csrc/u8x8_d_st7565.c ****   //U8X8_C(0x0c0),		                /* common output mode */
1140:..\..\..\u8g2\u8g2\csrc/u8x8_d_st7565.c ****   
1141:..\..\..\u8g2\u8g2\csrc/u8x8_d_st7565.c ****   U8X8_C(0x0a6),		                /* display normal, bit val 0: LCD pixel off. */
1142:..\..\..\u8g2\u8g2\csrc/u8x8_d_st7565.c ****   U8X8_C(0x0a3),		                /* LCD bias 1/9 */
1143:..\..\..\u8g2\u8g2\csrc/u8x8_d_st7565.c ****   U8X8_C(0x02f),		                /* all power  control circuits on (regulator, booster and followe
1144:..\..\..\u8g2\u8g2\csrc/u8x8_d_st7565.c ****   //U8X8_CA(0x0f8, 0x000),		/* set booster ratio to 4x (ST7567 feature)*/
1145:..\..\..\u8g2\u8g2\csrc/u8x8_d_st7565.c ****   U8X8_C(0x027),		                /* set V0 voltage resistor ratio to max  */
1146:..\..\..\u8g2\u8g2\csrc/u8x8_d_st7565.c ****   U8X8_CA(0x081, 0x009),		/* set contrast, contrast value, EA default: 0x016 */
1147:..\..\..\u8g2\u8g2\csrc/u8x8_d_st7565.c ****   
1148:..\..\..\u8g2\u8g2\csrc/u8x8_d_st7565.c ****   U8X8_C(0x0ae),		                /* display off */
1149:..\..\..\u8g2\u8g2\csrc/u8x8_d_st7565.c ****   U8X8_C(0x0a5),		                /* enter powersafe: all pixel on, issue 142 */
1150:..\..\..\u8g2\u8g2\csrc/u8x8_d_st7565.c ****   
1151:..\..\..\u8g2\u8g2\csrc/u8x8_d_st7565.c ****   U8X8_END_TRANSFER(),             	/* disable chip */
1152:..\..\..\u8g2\u8g2\csrc/u8x8_d_st7565.c ****   U8X8_END()             			/* end of sequence */
1153:..\..\..\u8g2\u8g2\csrc/u8x8_d_st7565.c **** };
1154:..\..\..\u8g2\u8g2\csrc/u8x8_d_st7565.c **** 
1155:..\..\..\u8g2\u8g2\csrc/u8x8_d_st7565.c **** uint8_t u8x8_d_nt7534_tg12864r(u8x8_t *u8x8, uint8_t msg, uint8_t arg_int, void *arg_ptr)
1156:..\..\..\u8g2\u8g2\csrc/u8x8_d_st7565.c **** {
 1221              		.loc 1 1156 0
 1222              		.cfi_startproc
 1223              		@ args = 0, pretend = 0, frame = 0
 1224              		@ frame_needed = 0, uses_anonymous_args = 0
 1225              	.LVL124:
 1226 0000 70B5     		push	{r4, r5, r6, lr}
 1227              		.cfi_def_cfa_offset 16
ARM GAS  C:\Users\jesse\AppData\Local\Temp\cc9dv931.s 			page 43


 1228              		.cfi_offset 4, -16
 1229              		.cfi_offset 5, -12
 1230              		.cfi_offset 6, -8
 1231              		.cfi_offset 14, -4
 1232              		.loc 1 1156 0
 1233 0002 0446     		mov	r4, r0
 1234 0004 0D46     		mov	r5, r1
 1235 0006 1646     		mov	r6, r2
1157:..\..\..\u8g2\u8g2\csrc/u8x8_d_st7565.c ****   /* call common procedure first and handle messages there */
1158:..\..\..\u8g2\u8g2\csrc/u8x8_d_st7565.c ****   if ( u8x8_d_st7565_common(u8x8, msg, arg_int, arg_ptr) == 0 )
 1236              		.loc 1 1158 0
 1237 0008 FFF7FEFF 		bl	u8x8_d_st7565_common
 1238              	.LVL125:
 1239 000c 10BB     		cbnz	r0, .L136
1159:..\..\..\u8g2\u8g2\csrc/u8x8_d_st7565.c ****   {
1160:..\..\..\u8g2\u8g2\csrc/u8x8_d_st7565.c ****     /* msg not handled, then try here */
1161:..\..\..\u8g2\u8g2\csrc/u8x8_d_st7565.c ****     switch(msg)
 1240              		.loc 1 1161 0
 1241 000e 0A2D     		cmp	r5, #10
 1242 0010 08D0     		beq	.L132
 1243 0012 0D2D     		cmp	r5, #13
 1244 0014 0ED0     		beq	.L133
 1245 0016 092D     		cmp	r5, #9
 1246 0018 1DD1     		bne	.L131
1162:..\..\..\u8g2\u8g2\csrc/u8x8_d_st7565.c ****     {
1163:..\..\..\u8g2\u8g2\csrc/u8x8_d_st7565.c ****       case U8X8_MSG_DISPLAY_SETUP_MEMORY:
1164:..\..\..\u8g2\u8g2\csrc/u8x8_d_st7565.c **** 	/* reuse the LM6059 data structure... this display seems to have similar shifts and offsets */
1165:..\..\..\u8g2\u8g2\csrc/u8x8_d_st7565.c **** 	u8x8_d_helper_display_setup_memory(u8x8, &u8x8_st7565_lm6059_display_info);
 1247              		.loc 1 1165 0
 1248 001a 0F49     		ldr	r1, .L138
 1249 001c 2046     		mov	r0, r4
 1250 001e FFF7FEFF 		bl	u8x8_d_helper_display_setup_memory
 1251              	.LVL126:
 1252 0022 17E0     		b	.L136
 1253              	.L132:
1166:..\..\..\u8g2\u8g2\csrc/u8x8_d_st7565.c **** 	break;
1167:..\..\..\u8g2\u8g2\csrc/u8x8_d_st7565.c ****       case U8X8_MSG_DISPLAY_INIT:
1168:..\..\..\u8g2\u8g2\csrc/u8x8_d_st7565.c **** 	u8x8_d_helper_display_init(u8x8);
 1254              		.loc 1 1168 0
 1255 0024 2046     		mov	r0, r4
 1256 0026 FFF7FEFF 		bl	u8x8_d_helper_display_init
 1257              	.LVL127:
1169:..\..\..\u8g2\u8g2\csrc/u8x8_d_st7565.c ****       
1170:..\..\..\u8g2\u8g2\csrc/u8x8_d_st7565.c **** 	//u8x8_cad_SendSequence(u8x8, u8x8_d_st7565_lm6059_init_seq);
1171:..\..\..\u8g2\u8g2\csrc/u8x8_d_st7565.c **** 	u8x8_cad_SendSequence(u8x8, u8x8_d_nt7534_tg12864r_init_seq);
 1258              		.loc 1 1171 0
 1259 002a 0C49     		ldr	r1, .L138+4
 1260 002c 2046     		mov	r0, r4
 1261 002e FFF7FEFF 		bl	u8x8_cad_SendSequence
 1262              	.LVL128:
 1263 0032 0FE0     		b	.L136
 1264              	.L133:
1172:..\..\..\u8g2\u8g2\csrc/u8x8_d_st7565.c **** 	break;
1173:..\..\..\u8g2\u8g2\csrc/u8x8_d_st7565.c ****       case U8X8_MSG_DISPLAY_SET_FLIP_MODE:
1174:..\..\..\u8g2\u8g2\csrc/u8x8_d_st7565.c **** 	if ( arg_int == 0 )
 1265              		.loc 1 1174 0
 1266 0034 36B9     		cbnz	r6, .L135
ARM GAS  C:\Users\jesse\AppData\Local\Temp\cc9dv931.s 			page 44


1175:..\..\..\u8g2\u8g2\csrc/u8x8_d_st7565.c **** 	{
1176:..\..\..\u8g2\u8g2\csrc/u8x8_d_st7565.c **** 	  u8x8_cad_SendSequence(u8x8, u8x8_d_st7565_flip1_seq);
 1267              		.loc 1 1176 0
 1268 0036 0A49     		ldr	r1, .L138+8
 1269 0038 2046     		mov	r0, r4
 1270 003a FFF7FEFF 		bl	u8x8_cad_SendSequence
 1271              	.LVL129:
1177:..\..\..\u8g2\u8g2\csrc/u8x8_d_st7565.c **** 	  u8x8->x_offset = u8x8->display_info->default_x_offset;
 1272              		.loc 1 1177 0
 1273 003e 2368     		ldr	r3, [r4]
 1274 0040 9B7C     		ldrb	r3, [r3, #18]	@ zero_extendqisi2
 1275 0042 05E0     		b	.L137
 1276              	.L135:
1178:..\..\..\u8g2\u8g2\csrc/u8x8_d_st7565.c **** 	}
1179:..\..\..\u8g2\u8g2\csrc/u8x8_d_st7565.c **** 	else
1180:..\..\..\u8g2\u8g2\csrc/u8x8_d_st7565.c **** 	{
1181:..\..\..\u8g2\u8g2\csrc/u8x8_d_st7565.c **** 	  u8x8_cad_SendSequence(u8x8, u8x8_d_st7565_flip0_seq);
 1277              		.loc 1 1181 0
 1278 0044 0749     		ldr	r1, .L138+12
 1279 0046 2046     		mov	r0, r4
 1280 0048 FFF7FEFF 		bl	u8x8_cad_SendSequence
 1281              	.LVL130:
1182:..\..\..\u8g2\u8g2\csrc/u8x8_d_st7565.c **** 	  u8x8->x_offset = u8x8->display_info->flipmode_x_offset;
 1282              		.loc 1 1182 0
 1283 004c 2368     		ldr	r3, [r4]
 1284 004e DB7C     		ldrb	r3, [r3, #19]	@ zero_extendqisi2
 1285              	.L137:
 1286 0050 84F82230 		strb	r3, [r4, #34]
 1287              	.L136:
1183:..\..\..\u8g2\u8g2\csrc/u8x8_d_st7565.c **** 	}	
1184:..\..\..\u8g2\u8g2\csrc/u8x8_d_st7565.c **** 	break;
1185:..\..\..\u8g2\u8g2\csrc/u8x8_d_st7565.c ****       default:
1186:..\..\..\u8g2\u8g2\csrc/u8x8_d_st7565.c **** 	return 0;		/* msg unknown */
1187:..\..\..\u8g2\u8g2\csrc/u8x8_d_st7565.c ****     }
1188:..\..\..\u8g2\u8g2\csrc/u8x8_d_st7565.c ****   }
1189:..\..\..\u8g2\u8g2\csrc/u8x8_d_st7565.c ****   return 1;
 1288              		.loc 1 1189 0
 1289 0054 0120     		movs	r0, #1
 1290              	.L131:
1190:..\..\..\u8g2\u8g2\csrc/u8x8_d_st7565.c **** }
 1291              		.loc 1 1190 0
 1292 0056 70BD     		pop	{r4, r5, r6, pc}
 1293              	.LVL131:
 1294              	.L139:
 1295              		.align	2
 1296              	.L138:
 1297 0058 54010000 		.word	.LANCHOR0+340
 1298 005c 3E020000 		.word	.LANCHOR0+574
 1299 0060 50000000 		.word	.LANCHOR0+80
 1300 0064 49000000 		.word	.LANCHOR0+73
 1301              		.cfi_endproc
 1302              	.LFE13:
 1303              		.size	u8x8_d_nt7534_tg12864r, .-u8x8_d_nt7534_tg12864r
 1304              		.section	.text.u8x8_d_st7565_ea_dogm132,"ax",%progbits
 1305              		.align	1
 1306              		.global	u8x8_d_st7565_ea_dogm132
 1307              		.thumb
ARM GAS  C:\Users\jesse\AppData\Local\Temp\cc9dv931.s 			page 45


 1308              		.thumb_func
 1309              		.type	u8x8_d_st7565_ea_dogm132, %function
 1310              	u8x8_d_st7565_ea_dogm132:
 1311              	.LFB14:
1191:..\..\..\u8g2\u8g2\csrc/u8x8_d_st7565.c **** 
1192:..\..\..\u8g2\u8g2\csrc/u8x8_d_st7565.c **** 
1193:..\..\..\u8g2\u8g2\csrc/u8x8_d_st7565.c **** /*================================================*/
1194:..\..\..\u8g2\u8g2\csrc/u8x8_d_st7565.c **** /* EA DOGM132 */
1195:..\..\..\u8g2\u8g2\csrc/u8x8_d_st7565.c **** 
1196:..\..\..\u8g2\u8g2\csrc/u8x8_d_st7565.c **** static const u8x8_display_info_t u8x8_st7565_dogm132_display_info =
1197:..\..\..\u8g2\u8g2\csrc/u8x8_d_st7565.c **** {
1198:..\..\..\u8g2\u8g2\csrc/u8x8_d_st7565.c ****   /* chip_enable_level = */ 0,
1199:..\..\..\u8g2\u8g2\csrc/u8x8_d_st7565.c ****   /* chip_disable_level = */ 1,
1200:..\..\..\u8g2\u8g2\csrc/u8x8_d_st7565.c ****   
1201:..\..\..\u8g2\u8g2\csrc/u8x8_d_st7565.c ****   /* post_chip_enable_wait_ns = */ 150,	/* st7565 datasheet, table 26, tcsh */
1202:..\..\..\u8g2\u8g2\csrc/u8x8_d_st7565.c ****   /* pre_chip_disable_wait_ns = */ 50,	/* st7565 datasheet, table 26, tcss */
1203:..\..\..\u8g2\u8g2\csrc/u8x8_d_st7565.c ****   /* reset_pulse_width_ms = */ 1, 
1204:..\..\..\u8g2\u8g2\csrc/u8x8_d_st7565.c ****   /* post_reset_wait_ms = */ 1, 
1205:..\..\..\u8g2\u8g2\csrc/u8x8_d_st7565.c ****   /* sda_setup_time_ns = */ 50,		/* st7565 datasheet, table 26, tsds */
1206:..\..\..\u8g2\u8g2\csrc/u8x8_d_st7565.c ****   /* sck_pulse_width_ns = */ 120,	/* half of cycle time (100ns according to datasheet), AVR: below 
1207:..\..\..\u8g2\u8g2\csrc/u8x8_d_st7565.c ****   /* sck_clock_hz = */ 4000000UL,	/* since Arduino 1.6.0, the SPI bus speed in Hz. Should be  10000
1208:..\..\..\u8g2\u8g2\csrc/u8x8_d_st7565.c ****   /* spi_mode = */ 0,		/* active high, rising edge */
1209:..\..\..\u8g2\u8g2\csrc/u8x8_d_st7565.c ****   /* i2c_bus_clock_100kHz = */ 4,
1210:..\..\..\u8g2\u8g2\csrc/u8x8_d_st7565.c ****   /* data_setup_time_ns = */ 40,	/* st7565 datasheet, table 24, tds8 */
1211:..\..\..\u8g2\u8g2\csrc/u8x8_d_st7565.c ****   /* write_pulse_width_ns = */ 80,	/* st7565 datasheet, table 24, tcclw */
1212:..\..\..\u8g2\u8g2\csrc/u8x8_d_st7565.c ****   /* tile_width = */ 17,		/* width of 16*8=136 pixel */
1213:..\..\..\u8g2\u8g2\csrc/u8x8_d_st7565.c ****   /* tile_hight = */ 4,
1214:..\..\..\u8g2\u8g2\csrc/u8x8_d_st7565.c ****   /* default_x_offset = */ 0,
1215:..\..\..\u8g2\u8g2\csrc/u8x8_d_st7565.c ****   /* flipmode_x_offset = */ 0,
1216:..\..\..\u8g2\u8g2\csrc/u8x8_d_st7565.c ****   /* pixel_width = */ 132,
1217:..\..\..\u8g2\u8g2\csrc/u8x8_d_st7565.c ****   /* pixel_height = */ 32
1218:..\..\..\u8g2\u8g2\csrc/u8x8_d_st7565.c **** };
1219:..\..\..\u8g2\u8g2\csrc/u8x8_d_st7565.c **** 
1220:..\..\..\u8g2\u8g2\csrc/u8x8_d_st7565.c **** 
1221:..\..\..\u8g2\u8g2\csrc/u8x8_d_st7565.c **** static const uint8_t u8x8_d_st7565_dogm132_init_seq[] = {
1222:..\..\..\u8g2\u8g2\csrc/u8x8_d_st7565.c ****     
1223:..\..\..\u8g2\u8g2\csrc/u8x8_d_st7565.c ****   U8X8_START_TRANSFER(),             	/* enable chip, delay is part of the transfer start */
1224:..\..\..\u8g2\u8g2\csrc/u8x8_d_st7565.c ****   
1225:..\..\..\u8g2\u8g2\csrc/u8x8_d_st7565.c ****   U8X8_C(0x0e2),            			/* soft reset */
1226:..\..\..\u8g2\u8g2\csrc/u8x8_d_st7565.c ****   U8X8_C(0x0ae),		                /* display off */
1227:..\..\..\u8g2\u8g2\csrc/u8x8_d_st7565.c ****   U8X8_C(0x040),		                /* set display start line to 0 */
1228:..\..\..\u8g2\u8g2\csrc/u8x8_d_st7565.c ****   
1229:..\..\..\u8g2\u8g2\csrc/u8x8_d_st7565.c ****   U8X8_C(0x0a1),		                /* ADC set to reverse */
1230:..\..\..\u8g2\u8g2\csrc/u8x8_d_st7565.c ****   U8X8_C(0x0c0),		                /* common output mode */
1231:..\..\..\u8g2\u8g2\csrc/u8x8_d_st7565.c ****   // Flipmode
1232:..\..\..\u8g2\u8g2\csrc/u8x8_d_st7565.c ****   //U8X8_C(0x0a0),		                /* ADC set to reverse */
1233:..\..\..\u8g2\u8g2\csrc/u8x8_d_st7565.c ****   //U8X8_C(0x0c8),		                /* common output mode */
1234:..\..\..\u8g2\u8g2\csrc/u8x8_d_st7565.c ****   
1235:..\..\..\u8g2\u8g2\csrc/u8x8_d_st7565.c ****   U8X8_C(0x0a6),		                /* display normal, bit val 0: LCD pixel off. */
1236:..\..\..\u8g2\u8g2\csrc/u8x8_d_st7565.c ****   U8X8_C(0x0a2),		                /* LCD bias 1/9 */
1237:..\..\..\u8g2\u8g2\csrc/u8x8_d_st7565.c ****   U8X8_C(0x02f),		                /* all power  control circuits on */
1238:..\..\..\u8g2\u8g2\csrc/u8x8_d_st7565.c ****   U8X8_CA(0x0f8, 0x000),		/* set booster ratio to 4x */
1239:..\..\..\u8g2\u8g2\csrc/u8x8_d_st7565.c ****   U8X8_C(0x023),		                /* set V0 voltage resistor ratio to large*/
1240:..\..\..\u8g2\u8g2\csrc/u8x8_d_st7565.c ****   U8X8_CA(0x081, 0x01f),		/* set contrast, contrast value EA DOGM132 */
1241:..\..\..\u8g2\u8g2\csrc/u8x8_d_st7565.c ****   
1242:..\..\..\u8g2\u8g2\csrc/u8x8_d_st7565.c ****   U8X8_C(0x0ae),		                /* display off */
1243:..\..\..\u8g2\u8g2\csrc/u8x8_d_st7565.c ****   U8X8_C(0x0a5),		                /* enter powersafe: all pixel on, issue 142 */
ARM GAS  C:\Users\jesse\AppData\Local\Temp\cc9dv931.s 			page 46


1244:..\..\..\u8g2\u8g2\csrc/u8x8_d_st7565.c ****   
1245:..\..\..\u8g2\u8g2\csrc/u8x8_d_st7565.c ****   U8X8_END_TRANSFER(),             	/* disable chip */
1246:..\..\..\u8g2\u8g2\csrc/u8x8_d_st7565.c ****   U8X8_END()             			/* end of sequence */
1247:..\..\..\u8g2\u8g2\csrc/u8x8_d_st7565.c **** };
1248:..\..\..\u8g2\u8g2\csrc/u8x8_d_st7565.c **** 
1249:..\..\..\u8g2\u8g2\csrc/u8x8_d_st7565.c **** uint8_t u8x8_d_st7565_ea_dogm132(u8x8_t *u8x8, uint8_t msg, uint8_t arg_int, void *arg_ptr)
1250:..\..\..\u8g2\u8g2\csrc/u8x8_d_st7565.c **** {
 1312              		.loc 1 1250 0
 1313              		.cfi_startproc
 1314              		@ args = 0, pretend = 0, frame = 0
 1315              		@ frame_needed = 0, uses_anonymous_args = 0
 1316              	.LVL132:
 1317 0000 70B5     		push	{r4, r5, r6, lr}
 1318              		.cfi_def_cfa_offset 16
 1319              		.cfi_offset 4, -16
 1320              		.cfi_offset 5, -12
 1321              		.cfi_offset 6, -8
 1322              		.cfi_offset 14, -4
 1323              		.loc 1 1250 0
 1324 0002 0446     		mov	r4, r0
 1325 0004 0D46     		mov	r5, r1
 1326 0006 1646     		mov	r6, r2
1251:..\..\..\u8g2\u8g2\csrc/u8x8_d_st7565.c ****   /* call common procedure first and handle messages there */
1252:..\..\..\u8g2\u8g2\csrc/u8x8_d_st7565.c ****   if ( u8x8_d_st7565_common(u8x8, msg, arg_int, arg_ptr) == 0 )
 1327              		.loc 1 1252 0
 1328 0008 FFF7FEFF 		bl	u8x8_d_st7565_common
 1329              	.LVL133:
 1330 000c 10BB     		cbnz	r0, .L146
1253:..\..\..\u8g2\u8g2\csrc/u8x8_d_st7565.c ****   {
1254:..\..\..\u8g2\u8g2\csrc/u8x8_d_st7565.c ****     /* msg not handled, then try here */
1255:..\..\..\u8g2\u8g2\csrc/u8x8_d_st7565.c ****     switch(msg)
 1331              		.loc 1 1255 0
 1332 000e 0A2D     		cmp	r5, #10
 1333 0010 08D0     		beq	.L142
 1334 0012 0D2D     		cmp	r5, #13
 1335 0014 0ED0     		beq	.L143
 1336 0016 092D     		cmp	r5, #9
 1337 0018 1DD1     		bne	.L141
1256:..\..\..\u8g2\u8g2\csrc/u8x8_d_st7565.c ****     {
1257:..\..\..\u8g2\u8g2\csrc/u8x8_d_st7565.c ****       case U8X8_MSG_DISPLAY_SETUP_MEMORY:
1258:..\..\..\u8g2\u8g2\csrc/u8x8_d_st7565.c **** 	u8x8_d_helper_display_setup_memory(u8x8, &u8x8_st7565_dogm132_display_info);
 1338              		.loc 1 1258 0
 1339 001a 0F49     		ldr	r1, .L148
 1340 001c 2046     		mov	r0, r4
 1341 001e FFF7FEFF 		bl	u8x8_d_helper_display_setup_memory
 1342              	.LVL134:
 1343 0022 17E0     		b	.L146
 1344              	.L142:
1259:..\..\..\u8g2\u8g2\csrc/u8x8_d_st7565.c **** 	break;
1260:..\..\..\u8g2\u8g2\csrc/u8x8_d_st7565.c ****       case U8X8_MSG_DISPLAY_INIT:
1261:..\..\..\u8g2\u8g2\csrc/u8x8_d_st7565.c **** 	u8x8_d_helper_display_init(u8x8);
 1345              		.loc 1 1261 0
 1346 0024 2046     		mov	r0, r4
 1347 0026 FFF7FEFF 		bl	u8x8_d_helper_display_init
 1348              	.LVL135:
1262:..\..\..\u8g2\u8g2\csrc/u8x8_d_st7565.c **** 	u8x8_cad_SendSequence(u8x8, u8x8_d_st7565_dogm132_init_seq);
 1349              		.loc 1 1262 0
ARM GAS  C:\Users\jesse\AppData\Local\Temp\cc9dv931.s 			page 47


 1350 002a 0C49     		ldr	r1, .L148+4
 1351 002c 2046     		mov	r0, r4
 1352 002e FFF7FEFF 		bl	u8x8_cad_SendSequence
 1353              	.LVL136:
 1354 0032 0FE0     		b	.L146
 1355              	.L143:
1263:..\..\..\u8g2\u8g2\csrc/u8x8_d_st7565.c **** 	break;
1264:..\..\..\u8g2\u8g2\csrc/u8x8_d_st7565.c ****       case U8X8_MSG_DISPLAY_SET_FLIP_MODE:
1265:..\..\..\u8g2\u8g2\csrc/u8x8_d_st7565.c **** 	if ( arg_int == 0 )
 1356              		.loc 1 1265 0
 1357 0034 36B9     		cbnz	r6, .L145
1266:..\..\..\u8g2\u8g2\csrc/u8x8_d_st7565.c **** 	{
1267:..\..\..\u8g2\u8g2\csrc/u8x8_d_st7565.c **** 	  u8x8_cad_SendSequence(u8x8, u8x8_d_st7565_flip0_seq);
 1358              		.loc 1 1267 0
 1359 0036 0A49     		ldr	r1, .L148+8
 1360 0038 2046     		mov	r0, r4
 1361 003a FFF7FEFF 		bl	u8x8_cad_SendSequence
 1362              	.LVL137:
1268:..\..\..\u8g2\u8g2\csrc/u8x8_d_st7565.c **** 	  u8x8->x_offset = u8x8->display_info->default_x_offset;
 1363              		.loc 1 1268 0
 1364 003e 2368     		ldr	r3, [r4]
 1365 0040 9B7C     		ldrb	r3, [r3, #18]	@ zero_extendqisi2
 1366 0042 05E0     		b	.L147
 1367              	.L145:
1269:..\..\..\u8g2\u8g2\csrc/u8x8_d_st7565.c **** 	}
1270:..\..\..\u8g2\u8g2\csrc/u8x8_d_st7565.c **** 	else
1271:..\..\..\u8g2\u8g2\csrc/u8x8_d_st7565.c **** 	{
1272:..\..\..\u8g2\u8g2\csrc/u8x8_d_st7565.c **** 	  u8x8_cad_SendSequence(u8x8, u8x8_d_st7565_flip1_seq);
 1368              		.loc 1 1272 0
 1369 0044 0749     		ldr	r1, .L148+12
 1370 0046 2046     		mov	r0, r4
 1371 0048 FFF7FEFF 		bl	u8x8_cad_SendSequence
 1372              	.LVL138:
1273:..\..\..\u8g2\u8g2\csrc/u8x8_d_st7565.c **** 	  u8x8->x_offset = u8x8->display_info->flipmode_x_offset;
 1373              		.loc 1 1273 0
 1374 004c 2368     		ldr	r3, [r4]
 1375 004e DB7C     		ldrb	r3, [r3, #19]	@ zero_extendqisi2
 1376              	.L147:
 1377 0050 84F82230 		strb	r3, [r4, #34]
 1378              	.L146:
1274:..\..\..\u8g2\u8g2\csrc/u8x8_d_st7565.c **** 	}	
1275:..\..\..\u8g2\u8g2\csrc/u8x8_d_st7565.c **** 	break;
1276:..\..\..\u8g2\u8g2\csrc/u8x8_d_st7565.c ****       default:
1277:..\..\..\u8g2\u8g2\csrc/u8x8_d_st7565.c **** 	return 0;		/* msg unknown */
1278:..\..\..\u8g2\u8g2\csrc/u8x8_d_st7565.c ****     }
1279:..\..\..\u8g2\u8g2\csrc/u8x8_d_st7565.c ****   }
1280:..\..\..\u8g2\u8g2\csrc/u8x8_d_st7565.c ****   return 1;
 1379              		.loc 1 1280 0
 1380 0054 0120     		movs	r0, #1
 1381              	.L141:
1281:..\..\..\u8g2\u8g2\csrc/u8x8_d_st7565.c **** }
 1382              		.loc 1 1281 0
 1383 0056 70BD     		pop	{r4, r5, r6, pc}
 1384              	.LVL139:
 1385              	.L149:
 1386              		.align	2
 1387              	.L148:
ARM GAS  C:\Users\jesse\AppData\Local\Temp\cc9dv931.s 			page 48


 1388 0058 5C020000 		.word	.LANCHOR0+604
 1389 005c 74020000 		.word	.LANCHOR0+628
 1390 0060 49000000 		.word	.LANCHOR0+73
 1391 0064 50000000 		.word	.LANCHOR0+80
 1392              		.cfi_endproc
 1393              	.LFE14:
 1394              		.size	u8x8_d_st7565_ea_dogm132, .-u8x8_d_st7565_ea_dogm132
 1395              		.section	.rodata
 1396              		.align	2
 1397              		.set	.LANCHOR0,. + 0
 1398              		.type	u8x8_d_st7565_powersave0_seq, %object
 1399              		.size	u8x8_d_st7565_powersave0_seq, 7
 1400              	u8x8_d_st7565_powersave0_seq:
 1401 0000 18       		.byte	24
 1402 0001 15       		.byte	21
 1403 0002 A4       		.byte	-92
 1404 0003 15       		.byte	21
 1405 0004 AF       		.byte	-81
 1406 0005 19       		.byte	25
 1407 0006 FF       		.byte	-1
 1408              		.type	u8x8_d_st7565_powersave1_seq, %object
 1409              		.size	u8x8_d_st7565_powersave1_seq, 7
 1410              	u8x8_d_st7565_powersave1_seq:
 1411 0007 18       		.byte	24
 1412 0008 15       		.byte	21
 1413 0009 AE       		.byte	-82
 1414 000a 15       		.byte	21
 1415 000b A5       		.byte	-91
 1416 000c 19       		.byte	25
 1417 000d FF       		.byte	-1
 1418 000e 0000     		.space	2
 1419              		.type	u8x8_st7565_128x64_display_info, %object
 1420              		.size	u8x8_st7565_128x64_display_info, 24
 1421              	u8x8_st7565_128x64_display_info:
 1422 0010 00       		.byte	0
 1423 0011 01       		.byte	1
 1424 0012 96       		.byte	-106
 1425 0013 32       		.byte	50
 1426 0014 01       		.byte	1
 1427 0015 01       		.byte	1
 1428 0016 32       		.byte	50
 1429 0017 78       		.byte	120
 1430 0018 00093D00 		.word	4000000
 1431 001c 00       		.byte	0
 1432 001d 04       		.byte	4
 1433 001e 28       		.byte	40
 1434 001f 50       		.byte	80
 1435 0020 10       		.byte	16
 1436 0021 08       		.byte	8
 1437 0022 00       		.byte	0
 1438 0023 04       		.byte	4
 1439 0024 8000     		.short	128
 1440 0026 4000     		.short	64
 1441              		.type	u8x8_d_st7565_dogm128_init_seq, %object
 1442              		.size	u8x8_d_st7565_dogm128_init_seq, 33
 1443              	u8x8_d_st7565_dogm128_init_seq:
 1444 0028 18       		.byte	24
ARM GAS  C:\Users\jesse\AppData\Local\Temp\cc9dv931.s 			page 49


 1445 0029 15       		.byte	21
 1446 002a E2       		.byte	-30
 1447 002b 15       		.byte	21
 1448 002c AE       		.byte	-82
 1449 002d 15       		.byte	21
 1450 002e 40       		.byte	64
 1451 002f 15       		.byte	21
 1452 0030 A1       		.byte	-95
 1453 0031 15       		.byte	21
 1454 0032 C0       		.byte	-64
 1455 0033 15       		.byte	21
 1456 0034 A6       		.byte	-90
 1457 0035 15       		.byte	21
 1458 0036 A2       		.byte	-94
 1459 0037 15       		.byte	21
 1460 0038 2F       		.byte	47
 1461 0039 15       		.byte	21
 1462 003a F8       		.byte	-8
 1463 003b 16       		.byte	22
 1464 003c 00       		.byte	0
 1465 003d 15       		.byte	21
 1466 003e 27       		.byte	39
 1467 003f 15       		.byte	21
 1468 0040 81       		.byte	-127
 1469 0041 16       		.byte	22
 1470 0042 18       		.byte	24
 1471 0043 15       		.byte	21
 1472 0044 AE       		.byte	-82
 1473 0045 15       		.byte	21
 1474 0046 A5       		.byte	-91
 1475 0047 19       		.byte	25
 1476 0048 FF       		.byte	-1
 1477              		.type	u8x8_d_st7565_flip0_seq, %object
 1478              		.size	u8x8_d_st7565_flip0_seq, 7
 1479              	u8x8_d_st7565_flip0_seq:
 1480 0049 18       		.byte	24
 1481 004a 15       		.byte	21
 1482 004b A1       		.byte	-95
 1483 004c 15       		.byte	21
 1484 004d C0       		.byte	-64
 1485 004e 19       		.byte	25
 1486 004f FF       		.byte	-1
 1487              		.type	u8x8_d_st7565_flip1_seq, %object
 1488              		.size	u8x8_d_st7565_flip1_seq, 7
 1489              	u8x8_d_st7565_flip1_seq:
 1490 0050 18       		.byte	24
 1491 0051 15       		.byte	21
 1492 0052 A0       		.byte	-96
 1493 0053 15       		.byte	21
 1494 0054 C8       		.byte	-56
 1495 0055 19       		.byte	25
 1496 0056 FF       		.byte	-1
 1497              		.type	u8x8_d_st7565_lm6063_init_seq, %object
 1498              		.size	u8x8_d_st7565_lm6063_init_seq, 33
 1499              	u8x8_d_st7565_lm6063_init_seq:
 1500 0057 18       		.byte	24
 1501 0058 15       		.byte	21
ARM GAS  C:\Users\jesse\AppData\Local\Temp\cc9dv931.s 			page 50


 1502 0059 E2       		.byte	-30
 1503 005a 15       		.byte	21
 1504 005b AE       		.byte	-82
 1505 005c 15       		.byte	21
 1506 005d 40       		.byte	64
 1507 005e 15       		.byte	21
 1508 005f A1       		.byte	-95
 1509 0060 15       		.byte	21
 1510 0061 C0       		.byte	-64
 1511 0062 15       		.byte	21
 1512 0063 A6       		.byte	-90
 1513 0064 15       		.byte	21
 1514 0065 A2       		.byte	-94
 1515 0066 15       		.byte	21
 1516 0067 2F       		.byte	47
 1517 0068 15       		.byte	21
 1518 0069 F8       		.byte	-8
 1519 006a 16       		.byte	22
 1520 006b 00       		.byte	0
 1521 006c 15       		.byte	21
 1522 006d 27       		.byte	39
 1523 006e 15       		.byte	21
 1524 006f 81       		.byte	-127
 1525 0070 16       		.byte	22
 1526 0071 0C       		.byte	12
 1527 0072 15       		.byte	21
 1528 0073 AE       		.byte	-82
 1529 0074 15       		.byte	21
 1530 0075 A5       		.byte	-91
 1531 0076 19       		.byte	25
 1532 0077 FF       		.byte	-1
 1533              		.type	u8x8_st7565_64128n_display_info, %object
 1534              		.size	u8x8_st7565_64128n_display_info, 24
 1535              	u8x8_st7565_64128n_display_info:
 1536 0078 00       		.byte	0
 1537 0079 01       		.byte	1
 1538 007a 96       		.byte	-106
 1539 007b 32       		.byte	50
 1540 007c 01       		.byte	1
 1541 007d 01       		.byte	1
 1542 007e 32       		.byte	50
 1543 007f 78       		.byte	120
 1544 0080 00093D00 		.word	4000000
 1545 0084 00       		.byte	0
 1546 0085 04       		.byte	4
 1547 0086 28       		.byte	40
 1548 0087 50       		.byte	80
 1549 0088 10       		.byte	16
 1550 0089 08       		.byte	8
 1551 008a 04       		.byte	4
 1552 008b 00       		.byte	0
 1553 008c 8000     		.short	128
 1554 008e 4000     		.short	64
 1555              		.type	u8x8_d_st7565_64128n_init_seq, %object
 1556              		.size	u8x8_d_st7565_64128n_init_seq, 29
 1557              	u8x8_d_st7565_64128n_init_seq:
 1558 0090 18       		.byte	24
ARM GAS  C:\Users\jesse\AppData\Local\Temp\cc9dv931.s 			page 51


 1559 0091 15       		.byte	21
 1560 0092 E2       		.byte	-30
 1561 0093 15       		.byte	21
 1562 0094 A2       		.byte	-94
 1563 0095 15       		.byte	21
 1564 0096 A1       		.byte	-95
 1565 0097 15       		.byte	21
 1566 0098 C0       		.byte	-64
 1567 0099 15       		.byte	21
 1568 009a 40       		.byte	64
 1569 009b 15       		.byte	21
 1570 009c 2C       		.byte	44
 1571 009d 15       		.byte	21
 1572 009e 2E       		.byte	46
 1573 009f 15       		.byte	21
 1574 00a0 2F       		.byte	47
 1575 00a1 15       		.byte	21
 1576 00a2 10       		.byte	16
 1577 00a3 15       		.byte	21
 1578 00a4 A6       		.byte	-90
 1579 00a5 15       		.byte	21
 1580 00a6 81       		.byte	-127
 1581 00a7 15       		.byte	21
 1582 00a8 1E       		.byte	30
 1583 00a9 15       		.byte	21
 1584 00aa AE       		.byte	-82
 1585 00ab 19       		.byte	25
 1586 00ac FF       		.byte	-1
 1587              		.type	u8x8_d_st7565_zolen_128x64_init_seq, %object
 1588              		.size	u8x8_d_st7565_zolen_128x64_init_seq, 33
 1589              	u8x8_d_st7565_zolen_128x64_init_seq:
 1590 00ad 18       		.byte	24
 1591 00ae 15       		.byte	21
 1592 00af E2       		.byte	-30
 1593 00b0 15       		.byte	21
 1594 00b1 AE       		.byte	-82
 1595 00b2 15       		.byte	21
 1596 00b3 40       		.byte	64
 1597 00b4 15       		.byte	21
 1598 00b5 A1       		.byte	-95
 1599 00b6 15       		.byte	21
 1600 00b7 C8       		.byte	-56
 1601 00b8 15       		.byte	21
 1602 00b9 A6       		.byte	-90
 1603 00ba 15       		.byte	21
 1604 00bb A2       		.byte	-94
 1605 00bc 15       		.byte	21
 1606 00bd 2F       		.byte	47
 1607 00be 15       		.byte	21
 1608 00bf F8       		.byte	-8
 1609 00c0 16       		.byte	22
 1610 00c1 00       		.byte	0
 1611 00c2 15       		.byte	21
 1612 00c3 27       		.byte	39
 1613 00c4 15       		.byte	21
 1614 00c5 81       		.byte	-127
 1615 00c6 16       		.byte	22
ARM GAS  C:\Users\jesse\AppData\Local\Temp\cc9dv931.s 			page 52


 1616 00c7 07       		.byte	7
 1617 00c8 15       		.byte	21
 1618 00c9 AE       		.byte	-82
 1619 00ca 15       		.byte	21
 1620 00cb A5       		.byte	-91
 1621 00cc 19       		.byte	25
 1622 00cd FF       		.byte	-1
 1623              		.type	u8x8_d_st7565_zflip0_seq, %object
 1624              		.size	u8x8_d_st7565_zflip0_seq, 7
 1625              	u8x8_d_st7565_zflip0_seq:
 1626 00ce 18       		.byte	24
 1627 00cf 15       		.byte	21
 1628 00d0 A1       		.byte	-95
 1629 00d1 15       		.byte	21
 1630 00d2 C8       		.byte	-56
 1631 00d3 19       		.byte	25
 1632 00d4 FF       		.byte	-1
 1633              		.type	u8x8_d_st7565_zflip1_seq, %object
 1634              		.size	u8x8_d_st7565_zflip1_seq, 7
 1635              	u8x8_d_st7565_zflip1_seq:
 1636 00d5 18       		.byte	24
 1637 00d6 15       		.byte	21
 1638 00d7 A0       		.byte	-96
 1639 00d8 15       		.byte	21
 1640 00d9 C0       		.byte	-64
 1641 00da 19       		.byte	25
 1642 00db FF       		.byte	-1
 1643              		.type	u8x8_st7565_128x32_display_info, %object
 1644              		.size	u8x8_st7565_128x32_display_info, 24
 1645              	u8x8_st7565_128x32_display_info:
 1646 00dc 00       		.byte	0
 1647 00dd 01       		.byte	1
 1648 00de 96       		.byte	-106
 1649 00df 32       		.byte	50
 1650 00e0 01       		.byte	1
 1651 00e1 01       		.byte	1
 1652 00e2 32       		.byte	50
 1653 00e3 78       		.byte	120
 1654 00e4 00093D00 		.word	4000000
 1655 00e8 00       		.byte	0
 1656 00e9 04       		.byte	4
 1657 00ea 28       		.byte	40
 1658 00eb 50       		.byte	80
 1659 00ec 10       		.byte	16
 1660 00ed 04       		.byte	4
 1661 00ee 04       		.byte	4
 1662 00ef 00       		.byte	0
 1663 00f0 8000     		.short	128
 1664 00f2 2000     		.short	32
 1665              		.type	u8x8_d_st7565_nhd_c12832_init_seq, %object
 1666              		.size	u8x8_d_st7565_nhd_c12832_init_seq, 33
 1667              	u8x8_d_st7565_nhd_c12832_init_seq:
 1668 00f4 18       		.byte	24
 1669 00f5 15       		.byte	21
 1670 00f6 E2       		.byte	-30
 1671 00f7 15       		.byte	21
 1672 00f8 AE       		.byte	-82
ARM GAS  C:\Users\jesse\AppData\Local\Temp\cc9dv931.s 			page 53


 1673 00f9 15       		.byte	21
 1674 00fa 40       		.byte	64
 1675 00fb 15       		.byte	21
 1676 00fc A1       		.byte	-95
 1677 00fd 15       		.byte	21
 1678 00fe C0       		.byte	-64
 1679 00ff 15       		.byte	21
 1680 0100 A6       		.byte	-90
 1681 0101 15       		.byte	21
 1682 0102 A2       		.byte	-94
 1683 0103 15       		.byte	21
 1684 0104 2F       		.byte	47
 1685 0105 15       		.byte	21
 1686 0106 F8       		.byte	-8
 1687 0107 16       		.byte	22
 1688 0108 00       		.byte	0
 1689 0109 15       		.byte	21
 1690 010a 23       		.byte	35
 1691 010b 15       		.byte	21
 1692 010c 81       		.byte	-127
 1693 010d 16       		.byte	22
 1694 010e 0A       		.byte	10
 1695 010f 15       		.byte	21
 1696 0110 AE       		.byte	-82
 1697 0111 15       		.byte	21
 1698 0112 A5       		.byte	-91
 1699 0113 19       		.byte	25
 1700 0114 FF       		.byte	-1
 1701 0115 000000   		.space	3
 1702              		.type	u8x8_st7565_nhd_c12864_display_info, %object
 1703              		.size	u8x8_st7565_nhd_c12864_display_info, 24
 1704              	u8x8_st7565_nhd_c12864_display_info:
 1705 0118 00       		.byte	0
 1706 0119 01       		.byte	1
 1707 011a 96       		.byte	-106
 1708 011b 32       		.byte	50
 1709 011c 01       		.byte	1
 1710 011d 01       		.byte	1
 1711 011e 32       		.byte	50
 1712 011f 78       		.byte	120
 1713 0120 00093D00 		.word	4000000
 1714 0124 00       		.byte	0
 1715 0125 04       		.byte	4
 1716 0126 28       		.byte	40
 1717 0127 50       		.byte	80
 1718 0128 10       		.byte	16
 1719 0129 08       		.byte	8
 1720 012a 04       		.byte	4
 1721 012b 00       		.byte	0
 1722 012c 8000     		.short	128
 1723 012e 4000     		.short	64
 1724              		.type	u8x8_d_st7565_nhd_c12864_init_seq, %object
 1725              		.size	u8x8_d_st7565_nhd_c12864_init_seq, 33
 1726              	u8x8_d_st7565_nhd_c12864_init_seq:
 1727 0130 18       		.byte	24
 1728 0131 15       		.byte	21
 1729 0132 E2       		.byte	-30
ARM GAS  C:\Users\jesse\AppData\Local\Temp\cc9dv931.s 			page 54


 1730 0133 15       		.byte	21
 1731 0134 AE       		.byte	-82
 1732 0135 15       		.byte	21
 1733 0136 40       		.byte	64
 1734 0137 15       		.byte	21
 1735 0138 A1       		.byte	-95
 1736 0139 15       		.byte	21
 1737 013a C0       		.byte	-64
 1738 013b 15       		.byte	21
 1739 013c A6       		.byte	-90
 1740 013d 15       		.byte	21
 1741 013e A2       		.byte	-94
 1742 013f 15       		.byte	21
 1743 0140 2F       		.byte	47
 1744 0141 15       		.byte	21
 1745 0142 F8       		.byte	-8
 1746 0143 16       		.byte	22
 1747 0144 00       		.byte	0
 1748 0145 15       		.byte	21
 1749 0146 25       		.byte	37
 1750 0147 15       		.byte	21
 1751 0148 81       		.byte	-127
 1752 0149 16       		.byte	22
 1753 014a AA       		.byte	-86
 1754 014b 15       		.byte	21
 1755 014c AE       		.byte	-82
 1756 014d 15       		.byte	21
 1757 014e A5       		.byte	-91
 1758 014f 19       		.byte	25
 1759 0150 FF       		.byte	-1
 1760 0151 000000   		.space	3
 1761              		.type	u8x8_st7565_lm6059_display_info, %object
 1762              		.size	u8x8_st7565_lm6059_display_info, 24
 1763              	u8x8_st7565_lm6059_display_info:
 1764 0154 00       		.byte	0
 1765 0155 01       		.byte	1
 1766 0156 96       		.byte	-106
 1767 0157 32       		.byte	50
 1768 0158 01       		.byte	1
 1769 0159 01       		.byte	1
 1770 015a 32       		.byte	50
 1771 015b 78       		.byte	120
 1772 015c 00093D00 		.word	4000000
 1773 0160 00       		.byte	0
 1774 0161 04       		.byte	4
 1775 0162 28       		.byte	40
 1776 0163 50       		.byte	80
 1777 0164 10       		.byte	16
 1778 0165 08       		.byte	8
 1779 0166 01       		.byte	1
 1780 0167 03       		.byte	3
 1781 0168 8000     		.short	128
 1782 016a 4000     		.short	64
 1783              		.type	u8x8_d_st7565_lm6059_init_seq, %object
 1784              		.size	u8x8_d_st7565_lm6059_init_seq, 33
 1785              	u8x8_d_st7565_lm6059_init_seq:
 1786 016c 18       		.byte	24
ARM GAS  C:\Users\jesse\AppData\Local\Temp\cc9dv931.s 			page 55


 1787 016d 15       		.byte	21
 1788 016e E2       		.byte	-30
 1789 016f 15       		.byte	21
 1790 0170 AE       		.byte	-82
 1791 0171 15       		.byte	21
 1792 0172 60       		.byte	96
 1793 0173 15       		.byte	21
 1794 0174 A0       		.byte	-96
 1795 0175 15       		.byte	21
 1796 0176 C8       		.byte	-56
 1797 0177 15       		.byte	21
 1798 0178 A6       		.byte	-90
 1799 0179 15       		.byte	21
 1800 017a A3       		.byte	-93
 1801 017b 15       		.byte	21
 1802 017c 2F       		.byte	47
 1803 017d 15       		.byte	21
 1804 017e F8       		.byte	-8
 1805 017f 16       		.byte	22
 1806 0180 00       		.byte	0
 1807 0181 15       		.byte	21
 1808 0182 27       		.byte	39
 1809 0183 15       		.byte	21
 1810 0184 81       		.byte	-127
 1811 0185 16       		.byte	22
 1812 0186 18       		.byte	24
 1813 0187 15       		.byte	21
 1814 0188 AE       		.byte	-82
 1815 0189 15       		.byte	21
 1816 018a A5       		.byte	-91
 1817 018b 19       		.byte	25
 1818 018c FF       		.byte	-1
 1819              		.type	u8x8_d_st7565_ks0713_init_seq, %object
 1820              		.size	u8x8_d_st7565_ks0713_init_seq, 25
 1821              	u8x8_d_st7565_ks0713_init_seq:
 1822 018d 18       		.byte	24
 1823 018e 15       		.byte	21
 1824 018f AE       		.byte	-82
 1825 0190 15       		.byte	21
 1826 0191 E2       		.byte	-30
 1827 0192 15       		.byte	21
 1828 0193 A3       		.byte	-93
 1829 0194 15       		.byte	21
 1830 0195 A0       		.byte	-96
 1831 0196 15       		.byte	21
 1832 0197 C0       		.byte	-64
 1833 0198 15       		.byte	21
 1834 0199 2F       		.byte	47
 1835 019a 15       		.byte	21
 1836 019b 26       		.byte	38
 1837 019c 15       		.byte	21
 1838 019d A6       		.byte	-90
 1839 019e 15       		.byte	21
 1840 019f 81       		.byte	-127
 1841 01a0 16       		.byte	22
 1842 01a1 10       		.byte	16
 1843 01a2 15       		.byte	21
ARM GAS  C:\Users\jesse\AppData\Local\Temp\cc9dv931.s 			page 56


 1844 01a3 AF       		.byte	-81
 1845 01a4 19       		.byte	25
 1846 01a5 FF       		.byte	-1
 1847 01a6 0000     		.space	2
 1848              		.type	u8x8_st7565_lx12864_display_info, %object
 1849              		.size	u8x8_st7565_lx12864_display_info, 24
 1850              	u8x8_st7565_lx12864_display_info:
 1851 01a8 00       		.byte	0
 1852 01a9 01       		.byte	1
 1853 01aa 96       		.byte	-106
 1854 01ab 32       		.byte	50
 1855 01ac 01       		.byte	1
 1856 01ad 01       		.byte	1
 1857 01ae 32       		.byte	50
 1858 01af 78       		.byte	120
 1859 01b0 00093D00 		.word	4000000
 1860 01b4 00       		.byte	0
 1861 01b5 04       		.byte	4
 1862 01b6 28       		.byte	40
 1863 01b7 50       		.byte	80
 1864 01b8 10       		.byte	16
 1865 01b9 08       		.byte	8
 1866 01ba 01       		.byte	1
 1867 01bb 03       		.byte	3
 1868 01bc 8000     		.short	128
 1869 01be 4000     		.short	64
 1870              		.type	u8x8_d_st7565_lx12864_init_seq, %object
 1871              		.size	u8x8_d_st7565_lx12864_init_seq, 33
 1872              	u8x8_d_st7565_lx12864_init_seq:
 1873 01c0 18       		.byte	24
 1874 01c1 15       		.byte	21
 1875 01c2 E2       		.byte	-30
 1876 01c3 15       		.byte	21
 1877 01c4 AE       		.byte	-82
 1878 01c5 15       		.byte	21
 1879 01c6 60       		.byte	96
 1880 01c7 15       		.byte	21
 1881 01c8 A0       		.byte	-96
 1882 01c9 15       		.byte	21
 1883 01ca C8       		.byte	-56
 1884 01cb 15       		.byte	21
 1885 01cc A6       		.byte	-90
 1886 01cd 15       		.byte	21
 1887 01ce A2       		.byte	-94
 1888 01cf 15       		.byte	21
 1889 01d0 2F       		.byte	47
 1890 01d1 15       		.byte	21
 1891 01d2 F8       		.byte	-8
 1892 01d3 16       		.byte	22
 1893 01d4 00       		.byte	0
 1894 01d5 15       		.byte	21
 1895 01d6 27       		.byte	39
 1896 01d7 15       		.byte	21
 1897 01d8 81       		.byte	-127
 1898 01d9 16       		.byte	22
 1899 01da 08       		.byte	8
 1900 01db 15       		.byte	21
ARM GAS  C:\Users\jesse\AppData\Local\Temp\cc9dv931.s 			page 57


 1901 01dc AE       		.byte	-82
 1902 01dd 15       		.byte	21
 1903 01de A5       		.byte	-91
 1904 01df 19       		.byte	25
 1905 01e0 FF       		.byte	-1
 1906 01e1 000000   		.space	3
 1907              		.type	u8x8_st7565_erc12864_display_info, %object
 1908              		.size	u8x8_st7565_erc12864_display_info, 24
 1909              	u8x8_st7565_erc12864_display_info:
 1910 01e4 00       		.byte	0
 1911 01e5 01       		.byte	1
 1912 01e6 96       		.byte	-106
 1913 01e7 32       		.byte	50
 1914 01e8 01       		.byte	1
 1915 01e9 01       		.byte	1
 1916 01ea 32       		.byte	50
 1917 01eb 78       		.byte	120
 1918 01ec 00093D00 		.word	4000000
 1919 01f0 00       		.byte	0
 1920 01f1 04       		.byte	4
 1921 01f2 28       		.byte	40
 1922 01f3 50       		.byte	80
 1923 01f4 10       		.byte	16
 1924 01f5 08       		.byte	8
 1925 01f6 00       		.byte	0
 1926 01f7 04       		.byte	4
 1927 01f8 8000     		.short	128
 1928 01fa 4000     		.short	64
 1929              		.type	u8x8_d_st7565_erc12864_init_seq, %object
 1930              		.size	u8x8_d_st7565_erc12864_init_seq, 33
 1931              	u8x8_d_st7565_erc12864_init_seq:
 1932 01fc 18       		.byte	24
 1933 01fd 15       		.byte	21
 1934 01fe E2       		.byte	-30
 1935 01ff 15       		.byte	21
 1936 0200 AE       		.byte	-82
 1937 0201 15       		.byte	21
 1938 0202 40       		.byte	64
 1939 0203 15       		.byte	21
 1940 0204 A0       		.byte	-96
 1941 0205 15       		.byte	21
 1942 0206 C8       		.byte	-56
 1943 0207 15       		.byte	21
 1944 0208 A6       		.byte	-90
 1945 0209 15       		.byte	21
 1946 020a A3       		.byte	-93
 1947 020b 15       		.byte	21
 1948 020c 2F       		.byte	47
 1949 020d 15       		.byte	21
 1950 020e F8       		.byte	-8
 1951 020f 16       		.byte	22
 1952 0210 00       		.byte	0
 1953 0211 15       		.byte	21
 1954 0212 27       		.byte	39
 1955 0213 15       		.byte	21
 1956 0214 81       		.byte	-127
 1957 0215 16       		.byte	22
ARM GAS  C:\Users\jesse\AppData\Local\Temp\cc9dv931.s 			page 58


 1958 0216 18       		.byte	24
 1959 0217 15       		.byte	21
 1960 0218 AE       		.byte	-82
 1961 0219 15       		.byte	21
 1962 021a A5       		.byte	-91
 1963 021b 19       		.byte	25
 1964 021c FF       		.byte	-1
 1965              		.type	u8x8_d_st7565_erc12864_alt_init_seq, %object
 1966              		.size	u8x8_d_st7565_erc12864_alt_init_seq, 33
 1967              	u8x8_d_st7565_erc12864_alt_init_seq:
 1968 021d 18       		.byte	24
 1969 021e 15       		.byte	21
 1970 021f E2       		.byte	-30
 1971 0220 15       		.byte	21
 1972 0221 AE       		.byte	-82
 1973 0222 15       		.byte	21
 1974 0223 40       		.byte	64
 1975 0224 15       		.byte	21
 1976 0225 A0       		.byte	-96
 1977 0226 15       		.byte	21
 1978 0227 C8       		.byte	-56
 1979 0228 15       		.byte	21
 1980 0229 A6       		.byte	-90
 1981 022a 15       		.byte	21
 1982 022b A2       		.byte	-94
 1983 022c 15       		.byte	21
 1984 022d 2F       		.byte	47
 1985 022e 15       		.byte	21
 1986 022f F8       		.byte	-8
 1987 0230 16       		.byte	22
 1988 0231 00       		.byte	0
 1989 0232 15       		.byte	21
 1990 0233 27       		.byte	39
 1991 0234 15       		.byte	21
 1992 0235 81       		.byte	-127
 1993 0236 16       		.byte	22
 1994 0237 05       		.byte	5
 1995 0238 15       		.byte	21
 1996 0239 AE       		.byte	-82
 1997 023a 15       		.byte	21
 1998 023b A5       		.byte	-91
 1999 023c 19       		.byte	25
 2000 023d FF       		.byte	-1
 2001              		.type	u8x8_d_nt7534_tg12864r_init_seq, %object
 2002              		.size	u8x8_d_nt7534_tg12864r_init_seq, 29
 2003              	u8x8_d_nt7534_tg12864r_init_seq:
 2004 023e 18       		.byte	24
 2005 023f 15       		.byte	21
 2006 0240 E2       		.byte	-30
 2007 0241 15       		.byte	21
 2008 0242 AE       		.byte	-82
 2009 0243 15       		.byte	21
 2010 0244 60       		.byte	96
 2011 0245 15       		.byte	21
 2012 0246 A0       		.byte	-96
 2013 0247 15       		.byte	21
 2014 0248 C8       		.byte	-56
ARM GAS  C:\Users\jesse\AppData\Local\Temp\cc9dv931.s 			page 59


 2015 0249 15       		.byte	21
 2016 024a A6       		.byte	-90
 2017 024b 15       		.byte	21
 2018 024c A3       		.byte	-93
 2019 024d 15       		.byte	21
 2020 024e 2F       		.byte	47
 2021 024f 15       		.byte	21
 2022 0250 27       		.byte	39
 2023 0251 15       		.byte	21
 2024 0252 81       		.byte	-127
 2025 0253 16       		.byte	22
 2026 0254 09       		.byte	9
 2027 0255 15       		.byte	21
 2028 0256 AE       		.byte	-82
 2029 0257 15       		.byte	21
 2030 0258 A5       		.byte	-91
 2031 0259 19       		.byte	25
 2032 025a FF       		.byte	-1
 2033 025b 00       		.space	1
 2034              		.type	u8x8_st7565_dogm132_display_info, %object
 2035              		.size	u8x8_st7565_dogm132_display_info, 24
 2036              	u8x8_st7565_dogm132_display_info:
 2037 025c 00       		.byte	0
 2038 025d 01       		.byte	1
 2039 025e 96       		.byte	-106
 2040 025f 32       		.byte	50
 2041 0260 01       		.byte	1
 2042 0261 01       		.byte	1
 2043 0262 32       		.byte	50
 2044 0263 78       		.byte	120
 2045 0264 00093D00 		.word	4000000
 2046 0268 00       		.byte	0
 2047 0269 04       		.byte	4
 2048 026a 28       		.byte	40
 2049 026b 50       		.byte	80
 2050 026c 11       		.byte	17
 2051 026d 04       		.byte	4
 2052 026e 00       		.byte	0
 2053 026f 00       		.byte	0
 2054 0270 8400     		.short	132
 2055 0272 2000     		.short	32
 2056              		.type	u8x8_d_st7565_dogm132_init_seq, %object
 2057              		.size	u8x8_d_st7565_dogm132_init_seq, 33
 2058              	u8x8_d_st7565_dogm132_init_seq:
 2059 0274 18       		.byte	24
 2060 0275 15       		.byte	21
 2061 0276 E2       		.byte	-30
 2062 0277 15       		.byte	21
 2063 0278 AE       		.byte	-82
 2064 0279 15       		.byte	21
 2065 027a 40       		.byte	64
 2066 027b 15       		.byte	21
 2067 027c A1       		.byte	-95
 2068 027d 15       		.byte	21
 2069 027e C0       		.byte	-64
 2070 027f 15       		.byte	21
 2071 0280 A6       		.byte	-90
ARM GAS  C:\Users\jesse\AppData\Local\Temp\cc9dv931.s 			page 60


 2072 0281 15       		.byte	21
 2073 0282 A2       		.byte	-94
 2074 0283 15       		.byte	21
 2075 0284 2F       		.byte	47
 2076 0285 15       		.byte	21
 2077 0286 F8       		.byte	-8
 2078 0287 16       		.byte	22
 2079 0288 00       		.byte	0
 2080 0289 15       		.byte	21
 2081 028a 23       		.byte	35
 2082 028b 15       		.byte	21
 2083 028c 81       		.byte	-127
 2084 028d 16       		.byte	22
 2085 028e 1F       		.byte	31
 2086 028f 15       		.byte	21
 2087 0290 AE       		.byte	-82
 2088 0291 15       		.byte	21
 2089 0292 A5       		.byte	-91
 2090 0293 19       		.byte	25
 2091 0294 FF       		.byte	-1
 2092              		.text
 2093              	.Letext0:
 2094              		.file 2 "c:\\program files (x86)\\cypress\\psoc creator\\4.4\\psoc creator\\import\\gnu\\arm\\5.4.
 2095              		.file 3 "c:\\program files (x86)\\cypress\\psoc creator\\4.4\\psoc creator\\import\\gnu\\arm\\5.4.
 2096              		.file 4 "..\\..\\..\\u8g2\\u8g2\\csrc\\u8x8.h"