ARM GAS  C:\Users\jesse\AppData\Local\Temp\cc6zNusR.s 			page 1


   1              		.syntax unified
   2              		.cpu cortex-m3
   3              		.fpu softvfp
   4              		.eabi_attribute 20, 1
   5              		.eabi_attribute 21, 1
   6              		.eabi_attribute 23, 3
   7              		.eabi_attribute 24, 1
   8              		.eabi_attribute 25, 1
   9              		.eabi_attribute 26, 1
  10              		.eabi_attribute 30, 4
  11              		.eabi_attribute 34, 1
  12              		.eabi_attribute 18, 4
  13              		.thumb
  14              		.syntax unified
  15              		.file	"u8x8_d_st75256.c"
  16              		.text
  17              	.Ltext0:
  18              		.cfi_sections	.debug_frame
  19              		.section	.text.u8x8_d_st75256_256x128_generic,"ax",%progbits
  20              		.align	1
  21              		.thumb
  22              		.thumb_func
  23              		.type	u8x8_d_st75256_256x128_generic, %function
  24              	u8x8_d_st75256_256x128_generic:
  25              	.LFB0:
  26              		.file 1 "..\\..\\..\\u8g2\\u8g2\\csrc\\u8x8_d_st75256.c"
   1:..\..\..\u8g2\u8g2\csrc/u8x8_d_st75256.c **** /*
   2:..\..\..\u8g2\u8g2\csrc/u8x8_d_st75256.c **** 
   3:..\..\..\u8g2\u8g2\csrc/u8x8_d_st75256.c ****   u8x8_d_st75256.c
   4:..\..\..\u8g2\u8g2\csrc/u8x8_d_st75256.c **** 
   5:..\..\..\u8g2\u8g2\csrc/u8x8_d_st75256.c ****   Universal 8bit Graphics Library (https://github.com/olikraus/u8g2/)
   6:..\..\..\u8g2\u8g2\csrc/u8x8_d_st75256.c **** 
   7:..\..\..\u8g2\u8g2\csrc/u8x8_d_st75256.c ****   Copyright (c) 2017, olikraus@gmail.com
   8:..\..\..\u8g2\u8g2\csrc/u8x8_d_st75256.c ****   All rights reserved.
   9:..\..\..\u8g2\u8g2\csrc/u8x8_d_st75256.c **** 
  10:..\..\..\u8g2\u8g2\csrc/u8x8_d_st75256.c ****   Redistribution and use in source and binary forms, with or without modification, 
  11:..\..\..\u8g2\u8g2\csrc/u8x8_d_st75256.c ****   are permitted provided that the following conditions are met:
  12:..\..\..\u8g2\u8g2\csrc/u8x8_d_st75256.c **** 
  13:..\..\..\u8g2\u8g2\csrc/u8x8_d_st75256.c ****   * Redistributions of source code must retain the above copyright notice, this list 
  14:..\..\..\u8g2\u8g2\csrc/u8x8_d_st75256.c ****     of conditions and the following disclaimer.
  15:..\..\..\u8g2\u8g2\csrc/u8x8_d_st75256.c ****     
  16:..\..\..\u8g2\u8g2\csrc/u8x8_d_st75256.c ****   * Redistributions in binary form must reproduce the above copyright notice, this 
  17:..\..\..\u8g2\u8g2\csrc/u8x8_d_st75256.c ****     list of conditions and the following disclaimer in the documentation and/or other 
  18:..\..\..\u8g2\u8g2\csrc/u8x8_d_st75256.c ****     materials provided with the distribution.
  19:..\..\..\u8g2\u8g2\csrc/u8x8_d_st75256.c **** 
  20:..\..\..\u8g2\u8g2\csrc/u8x8_d_st75256.c ****   THIS SOFTWARE IS PROVIDED BY THE COPYRIGHT HOLDERS AND 
  21:..\..\..\u8g2\u8g2\csrc/u8x8_d_st75256.c ****   CONTRIBUTORS "AS IS" AND ANY EXPRESS OR IMPLIED WARRANTIES, 
  22:..\..\..\u8g2\u8g2\csrc/u8x8_d_st75256.c ****   INCLUDING, BUT NOT LIMITED TO, THE IMPLIED WARRANTIES OF 
  23:..\..\..\u8g2\u8g2\csrc/u8x8_d_st75256.c ****   MERCHANTABILITY AND FITNESS FOR A PARTICULAR PURPOSE ARE 
  24:..\..\..\u8g2\u8g2\csrc/u8x8_d_st75256.c ****   DISCLAIMED. IN NO EVENT SHALL THE COPYRIGHT HOLDER OR 
  25:..\..\..\u8g2\u8g2\csrc/u8x8_d_st75256.c ****   CONTRIBUTORS BE LIABLE FOR ANY DIRECT, INDIRECT, INCIDENTAL, 
  26:..\..\..\u8g2\u8g2\csrc/u8x8_d_st75256.c ****   SPECIAL, EXEMPLARY, OR CONSEQUENTIAL DAMAGES (INCLUDING, BUT 
  27:..\..\..\u8g2\u8g2\csrc/u8x8_d_st75256.c ****   NOT LIMITED TO, PROCUREMENT OF SUBSTITUTE GOODS OR SERVICES; 
  28:..\..\..\u8g2\u8g2\csrc/u8x8_d_st75256.c ****   LOSS OF USE, DATA, OR PROFITS; OR BUSINESS INTERRUPTION) HOWEVER 
  29:..\..\..\u8g2\u8g2\csrc/u8x8_d_st75256.c ****   CAUSED AND ON ANY THEORY OF LIABILITY, WHETHER IN CONTRACT, 
  30:..\..\..\u8g2\u8g2\csrc/u8x8_d_st75256.c ****   STRICT LIABILITY, OR TORT (INCLUDING NEGLIGENCE OR OTHERWISE) 
  31:..\..\..\u8g2\u8g2\csrc/u8x8_d_st75256.c ****   ARISING IN ANY WAY OUT OF THE USE OF THIS SOFTWARE, EVEN IF 
ARM GAS  C:\Users\jesse\AppData\Local\Temp\cc6zNusR.s 			page 2


  32:..\..\..\u8g2\u8g2\csrc/u8x8_d_st75256.c ****   ADVISED OF THE POSSIBILITY OF SUCH DAMAGE.  
  33:..\..\..\u8g2\u8g2\csrc/u8x8_d_st75256.c **** 
  34:..\..\..\u8g2\u8g2\csrc/u8x8_d_st75256.c ****   0x030	ext 00
  35:..\..\..\u8g2\u8g2\csrc/u8x8_d_st75256.c ****   0x031	ext 01
  36:..\..\..\u8g2\u8g2\csrc/u8x8_d_st75256.c ****   0x038	ext 10
  37:..\..\..\u8g2\u8g2\csrc/u8x8_d_st75256.c ****   0x039	ext 11
  38:..\..\..\u8g2\u8g2\csrc/u8x8_d_st75256.c ****   
  39:..\..\..\u8g2\u8g2\csrc/u8x8_d_st75256.c ****   cad 011
  40:..\..\..\u8g2\u8g2\csrc/u8x8_d_st75256.c ****   
  41:..\..\..\u8g2\u8g2\csrc/u8x8_d_st75256.c ****   
  42:..\..\..\u8g2\u8g2\csrc/u8x8_d_st75256.c ****   code examples:
  43:..\..\..\u8g2\u8g2\csrc/u8x8_d_st75256.c ****   http://www.it610.com/article/2601023.htm
  44:..\..\..\u8g2\u8g2\csrc/u8x8_d_st75256.c ****   
  45:..\..\..\u8g2\u8g2\csrc/u8x8_d_st75256.c ****   normal mode:
  46:..\..\..\u8g2\u8g2\csrc/u8x8_d_st75256.c **** 	0x00c	bit format
  47:..\..\..\u8g2\u8g2\csrc/u8x8_d_st75256.c ****   U8X8_CA( 0xbc, 0x00 ),	data scan dir 
  48:..\..\..\u8g2\u8g2\csrc/u8x8_d_st75256.c ****   U8X8_A( 0xa6 ),				
  49:..\..\..\u8g2\u8g2\csrc/u8x8_d_st75256.c ****   y: 0 offset
  50:..\..\..\u8g2\u8g2\csrc/u8x8_d_st75256.c ****   
  51:..\..\..\u8g2\u8g2\csrc/u8x8_d_st75256.c ****   flip mode:
  52:..\..\..\u8g2\u8g2\csrc/u8x8_d_st75256.c **** 	0x008	bit format
  53:..\..\..\u8g2\u8g2\csrc/u8x8_d_st75256.c ****   U8X8_CA( 0xbc, 0x03 ),	data scan dir 
  54:..\..\..\u8g2\u8g2\csrc/u8x8_d_st75256.c ****   U8X8_A( 0xa6 ),				
  55:..\..\..\u8g2\u8g2\csrc/u8x8_d_st75256.c ****   y: 5 offset
  56:..\..\..\u8g2\u8g2\csrc/u8x8_d_st75256.c **** 	
  57:..\..\..\u8g2\u8g2\csrc/u8x8_d_st75256.c ****   
  58:..\..\..\u8g2\u8g2\csrc/u8x8_d_st75256.c **** */
  59:..\..\..\u8g2\u8g2\csrc/u8x8_d_st75256.c **** 
  60:..\..\..\u8g2\u8g2\csrc/u8x8_d_st75256.c **** 
  61:..\..\..\u8g2\u8g2\csrc/u8x8_d_st75256.c **** #include "u8x8.h"
  62:..\..\..\u8g2\u8g2\csrc/u8x8_d_st75256.c **** 
  63:..\..\..\u8g2\u8g2\csrc/u8x8_d_st75256.c **** 
  64:..\..\..\u8g2\u8g2\csrc/u8x8_d_st75256.c **** /* not a real power down for the st75256... just a display off */
  65:..\..\..\u8g2\u8g2\csrc/u8x8_d_st75256.c **** static const uint8_t u8x8_d_st75256_256x128_powersave0_seq[] = {
  66:..\..\..\u8g2\u8g2\csrc/u8x8_d_st75256.c ****   U8X8_START_TRANSFER(),             	/* enable chip, delay is part of the transfer start */
  67:..\..\..\u8g2\u8g2\csrc/u8x8_d_st75256.c ****   U8X8_C( 0x030 ),				/* select 00 commands */  
  68:..\..\..\u8g2\u8g2\csrc/u8x8_d_st75256.c ****   U8X8_C( 0x94 ),				/* sleep out */
  69:..\..\..\u8g2\u8g2\csrc/u8x8_d_st75256.c ****   U8X8_DLY(10),
  70:..\..\..\u8g2\u8g2\csrc/u8x8_d_st75256.c ****   U8X8_C( 0xaf ),				/* display on */
  71:..\..\..\u8g2\u8g2\csrc/u8x8_d_st75256.c ****   U8X8_END_TRANSFER(),             	/* disable chip */
  72:..\..\..\u8g2\u8g2\csrc/u8x8_d_st75256.c ****   U8X8_END()             			/* end of sequence */
  73:..\..\..\u8g2\u8g2\csrc/u8x8_d_st75256.c **** };
  74:..\..\..\u8g2\u8g2\csrc/u8x8_d_st75256.c **** 
  75:..\..\..\u8g2\u8g2\csrc/u8x8_d_st75256.c **** static const uint8_t u8x8_d_st75256_256x128_powersave1_seq[] = {
  76:..\..\..\u8g2\u8g2\csrc/u8x8_d_st75256.c ****   U8X8_START_TRANSFER(),             	/* enable chip, delay is part of the transfer start */
  77:..\..\..\u8g2\u8g2\csrc/u8x8_d_st75256.c ****   U8X8_C( 0x030 ),				/* select 00 commands */
  78:..\..\..\u8g2\u8g2\csrc/u8x8_d_st75256.c ****   U8X8_C( 0xae ),				/* display off */
  79:..\..\..\u8g2\u8g2\csrc/u8x8_d_st75256.c ****   U8X8_C( 0x95 ),				/* sleep in */
  80:..\..\..\u8g2\u8g2\csrc/u8x8_d_st75256.c ****   U8X8_END_TRANSFER(),             	/* disable chip */
  81:..\..\..\u8g2\u8g2\csrc/u8x8_d_st75256.c ****   U8X8_END()             			/* end of sequence */
  82:..\..\..\u8g2\u8g2\csrc/u8x8_d_st75256.c **** };
  83:..\..\..\u8g2\u8g2\csrc/u8x8_d_st75256.c **** 
  84:..\..\..\u8g2\u8g2\csrc/u8x8_d_st75256.c **** static const uint8_t u8x8_d_st75256_jlx256128_flip0_seq[] = {
  85:..\..\..\u8g2\u8g2\csrc/u8x8_d_st75256.c ****   U8X8_START_TRANSFER(),             	/* enable chip, delay is part of the transfer start */
  86:..\..\..\u8g2\u8g2\csrc/u8x8_d_st75256.c ****   U8X8_C( 0x030 ),				/* select 00 commands */
  87:..\..\..\u8g2\u8g2\csrc/u8x8_d_st75256.c ****   U8X8_CA( 0xbc, 0x00 ),			/* data scan dir */
  88:..\..\..\u8g2\u8g2\csrc/u8x8_d_st75256.c ****   U8X8_A( 0xa6 ),				/* ??? */
ARM GAS  C:\Users\jesse\AppData\Local\Temp\cc6zNusR.s 			page 3


  89:..\..\..\u8g2\u8g2\csrc/u8x8_d_st75256.c **** 
  90:..\..\..\u8g2\u8g2\csrc/u8x8_d_st75256.c ****   //U8X8_C( 0x030 ),				/* select 00 commands */
  91:..\..\..\u8g2\u8g2\csrc/u8x8_d_st75256.c ****   U8X8_C( 0x00c ),				/* data format LSB top */
  92:..\..\..\u8g2\u8g2\csrc/u8x8_d_st75256.c ****   U8X8_END_TRANSFER(),             	/* disable chip */
  93:..\..\..\u8g2\u8g2\csrc/u8x8_d_st75256.c ****   U8X8_END()             			/* end of sequence */
  94:..\..\..\u8g2\u8g2\csrc/u8x8_d_st75256.c **** };
  95:..\..\..\u8g2\u8g2\csrc/u8x8_d_st75256.c **** 
  96:..\..\..\u8g2\u8g2\csrc/u8x8_d_st75256.c **** static const uint8_t u8x8_d_st75256_jlx256128_flip1_seq[] = {
  97:..\..\..\u8g2\u8g2\csrc/u8x8_d_st75256.c ****   U8X8_START_TRANSFER(),             	/* enable chip, delay is part of the transfer start */
  98:..\..\..\u8g2\u8g2\csrc/u8x8_d_st75256.c ****   U8X8_C( 0x030 ),				/* select 00 commands */
  99:..\..\..\u8g2\u8g2\csrc/u8x8_d_st75256.c ****   U8X8_CA( 0xbc, 0x03 ),			/* data scan dir */
 100:..\..\..\u8g2\u8g2\csrc/u8x8_d_st75256.c ****   U8X8_A( 0xa6 ),				/* ??? */
 101:..\..\..\u8g2\u8g2\csrc/u8x8_d_st75256.c **** 
 102:..\..\..\u8g2\u8g2\csrc/u8x8_d_st75256.c ****   //U8X8_C( 0x030 ),				/* select 00 commands */
 103:..\..\..\u8g2\u8g2\csrc/u8x8_d_st75256.c ****   U8X8_C( 0x008 ),				/* data format MSB top */
 104:..\..\..\u8g2\u8g2\csrc/u8x8_d_st75256.c ****   U8X8_END_TRANSFER(),             	/* disable chip */
 105:..\..\..\u8g2\u8g2\csrc/u8x8_d_st75256.c ****   U8X8_END()             			/* end of sequence */
 106:..\..\..\u8g2\u8g2\csrc/u8x8_d_st75256.c **** };
 107:..\..\..\u8g2\u8g2\csrc/u8x8_d_st75256.c **** 
 108:..\..\..\u8g2\u8g2\csrc/u8x8_d_st75256.c **** static const uint8_t u8x8_d_st75256_jlx172104_flip0_seq[] = {
 109:..\..\..\u8g2\u8g2\csrc/u8x8_d_st75256.c ****   U8X8_START_TRANSFER(),             	/* enable chip, delay is part of the transfer start */
 110:..\..\..\u8g2\u8g2\csrc/u8x8_d_st75256.c ****   U8X8_C( 0x030 ),				/* select 00 commands */
 111:..\..\..\u8g2\u8g2\csrc/u8x8_d_st75256.c ****   U8X8_CA( 0xbc, 0x02 ),			/* data scan dir */
 112:..\..\..\u8g2\u8g2\csrc/u8x8_d_st75256.c ****   U8X8_A( 0xa6 ),				/* ??? */
 113:..\..\..\u8g2\u8g2\csrc/u8x8_d_st75256.c **** 
 114:..\..\..\u8g2\u8g2\csrc/u8x8_d_st75256.c ****   //U8X8_C( 0x030 ),				/* select 00 commands */
 115:..\..\..\u8g2\u8g2\csrc/u8x8_d_st75256.c ****   U8X8_C( 0x00c ),				/* data format LSB top */
 116:..\..\..\u8g2\u8g2\csrc/u8x8_d_st75256.c ****   U8X8_END_TRANSFER(),             	/* disable chip */
 117:..\..\..\u8g2\u8g2\csrc/u8x8_d_st75256.c ****   U8X8_END()             			/* end of sequence */
 118:..\..\..\u8g2\u8g2\csrc/u8x8_d_st75256.c **** };
 119:..\..\..\u8g2\u8g2\csrc/u8x8_d_st75256.c **** 
 120:..\..\..\u8g2\u8g2\csrc/u8x8_d_st75256.c **** static const uint8_t u8x8_d_st75256_jlx172104_flip1_seq[] = {
 121:..\..\..\u8g2\u8g2\csrc/u8x8_d_st75256.c ****   U8X8_START_TRANSFER(),             	/* enable chip, delay is part of the transfer start */
 122:..\..\..\u8g2\u8g2\csrc/u8x8_d_st75256.c ****   U8X8_C( 0x030 ),				/* select 00 commands */
 123:..\..\..\u8g2\u8g2\csrc/u8x8_d_st75256.c ****   U8X8_CA( 0xbc, 0x01 ),			/* data scan dir */
 124:..\..\..\u8g2\u8g2\csrc/u8x8_d_st75256.c ****   U8X8_A( 0xa6 ),				/* ??? */
 125:..\..\..\u8g2\u8g2\csrc/u8x8_d_st75256.c **** 
 126:..\..\..\u8g2\u8g2\csrc/u8x8_d_st75256.c ****   //U8X8_C( 0x030 ),				/* select 00 commands */
 127:..\..\..\u8g2\u8g2\csrc/u8x8_d_st75256.c ****   U8X8_C( 0x008 ),				/* data format MSB top */
 128:..\..\..\u8g2\u8g2\csrc/u8x8_d_st75256.c ****   U8X8_END_TRANSFER(),             	/* disable chip */
 129:..\..\..\u8g2\u8g2\csrc/u8x8_d_st75256.c ****   U8X8_END()             			/* end of sequence */
 130:..\..\..\u8g2\u8g2\csrc/u8x8_d_st75256.c **** };
 131:..\..\..\u8g2\u8g2\csrc/u8x8_d_st75256.c **** 
 132:..\..\..\u8g2\u8g2\csrc/u8x8_d_st75256.c **** static const uint8_t u8x8_d_st75256_jlx256160_flip0_seq[] = {
 133:..\..\..\u8g2\u8g2\csrc/u8x8_d_st75256.c ****   U8X8_START_TRANSFER(),             	/* enable chip, delay is part of the transfer start */
 134:..\..\..\u8g2\u8g2\csrc/u8x8_d_st75256.c ****   U8X8_C( 0x030 ),				/* select 00 commands */
 135:..\..\..\u8g2\u8g2\csrc/u8x8_d_st75256.c ****   U8X8_CA( 0xbc, 0x00 ),			/* data scan dir */
 136:..\..\..\u8g2\u8g2\csrc/u8x8_d_st75256.c ****   U8X8_A( 0xa6 ),				/* ??? */
 137:..\..\..\u8g2\u8g2\csrc/u8x8_d_st75256.c **** 
 138:..\..\..\u8g2\u8g2\csrc/u8x8_d_st75256.c ****   //U8X8_C( 0x030 ),				/* select 00 commands */
 139:..\..\..\u8g2\u8g2\csrc/u8x8_d_st75256.c ****   U8X8_C( 0x00c ),				/* data format LSB top */
 140:..\..\..\u8g2\u8g2\csrc/u8x8_d_st75256.c ****   U8X8_END_TRANSFER(),             	/* disable chip */
 141:..\..\..\u8g2\u8g2\csrc/u8x8_d_st75256.c ****   U8X8_END()             			/* end of sequence */
 142:..\..\..\u8g2\u8g2\csrc/u8x8_d_st75256.c **** };
 143:..\..\..\u8g2\u8g2\csrc/u8x8_d_st75256.c **** 
 144:..\..\..\u8g2\u8g2\csrc/u8x8_d_st75256.c **** static const uint8_t u8x8_d_st75256_jlx256160_flip1_seq[] = {
 145:..\..\..\u8g2\u8g2\csrc/u8x8_d_st75256.c ****   U8X8_START_TRANSFER(),             	/* enable chip, delay is part of the transfer start */
ARM GAS  C:\Users\jesse\AppData\Local\Temp\cc6zNusR.s 			page 4


 146:..\..\..\u8g2\u8g2\csrc/u8x8_d_st75256.c ****   U8X8_C( 0x030 ),				/* select 00 commands */
 147:..\..\..\u8g2\u8g2\csrc/u8x8_d_st75256.c ****   U8X8_CA( 0xbc, 0x03 ),			/* data scan dir */
 148:..\..\..\u8g2\u8g2\csrc/u8x8_d_st75256.c ****   U8X8_A( 0xa6 ),				/* ??? */
 149:..\..\..\u8g2\u8g2\csrc/u8x8_d_st75256.c **** 
 150:..\..\..\u8g2\u8g2\csrc/u8x8_d_st75256.c ****   //U8X8_C( 0x030 ),				/* select 00 commands */
 151:..\..\..\u8g2\u8g2\csrc/u8x8_d_st75256.c ****   U8X8_C( 0x008 ),				/* data format MSB top */
 152:..\..\..\u8g2\u8g2\csrc/u8x8_d_st75256.c ****   U8X8_END_TRANSFER(),             	/* disable chip */
 153:..\..\..\u8g2\u8g2\csrc/u8x8_d_st75256.c ****   U8X8_END()             			/* end of sequence */
 154:..\..\..\u8g2\u8g2\csrc/u8x8_d_st75256.c **** };
 155:..\..\..\u8g2\u8g2\csrc/u8x8_d_st75256.c **** 
 156:..\..\..\u8g2\u8g2\csrc/u8x8_d_st75256.c **** 
 157:..\..\..\u8g2\u8g2\csrc/u8x8_d_st75256.c **** static uint8_t u8x8_d_st75256_256x128_generic(u8x8_t *u8x8, uint8_t msg, uint8_t arg_int, void *arg
 158:..\..\..\u8g2\u8g2\csrc/u8x8_d_st75256.c **** {
  27              		.loc 1 158 0
  28              		.cfi_startproc
  29              		@ args = 0, pretend = 0, frame = 0
  30              		@ frame_needed = 0, uses_anonymous_args = 0
  31              	.LVL0:
 159:..\..\..\u8g2\u8g2\csrc/u8x8_d_st75256.c ****   uint8_t x, c;
 160:..\..\..\u8g2\u8g2\csrc/u8x8_d_st75256.c ****   uint8_t *ptr;
 161:..\..\..\u8g2\u8g2\csrc/u8x8_d_st75256.c ****   switch(msg)
  32              		.loc 1 161 0
  33 0000 0E29     		cmp	r1, #14
 158:..\..\..\u8g2\u8g2\csrc/u8x8_d_st75256.c ****   uint8_t x, c;
  34              		.loc 1 158 0
  35 0002 2DE9F041 		push	{r4, r5, r6, r7, r8, lr}
  36              		.cfi_def_cfa_offset 24
  37              		.cfi_offset 4, -24
  38              		.cfi_offset 5, -20
  39              		.cfi_offset 6, -16
  40              		.cfi_offset 7, -12
  41              		.cfi_offset 8, -8
  42              		.cfi_offset 14, -4
 158:..\..\..\u8g2\u8g2\csrc/u8x8_d_st75256.c ****   uint8_t x, c;
  43              		.loc 1 158 0
  44 0006 0446     		mov	r4, r0
  45 0008 1546     		mov	r5, r2
  46 000a 9846     		mov	r8, r3
  47              		.loc 1 161 0
  48 000c 0AD0     		beq	.L3
  49 000e 0F29     		cmp	r1, #15
  50 0010 22D0     		beq	.L4
  51 0012 0B29     		cmp	r1, #11
  52 0014 65D1     		bne	.L11
 162:..\..\..\u8g2\u8g2\csrc/u8x8_d_st75256.c ****   {
 163:..\..\..\u8g2\u8g2\csrc/u8x8_d_st75256.c ****     /* handled by the calling function
 164:..\..\..\u8g2\u8g2\csrc/u8x8_d_st75256.c ****     case U8X8_MSG_DISPLAY_SETUP_MEMORY:
 165:..\..\..\u8g2\u8g2\csrc/u8x8_d_st75256.c ****       u8x8_d_helper_display_setup_memory(u8x8, &u8x8_st75256_256x128_display_info);
 166:..\..\..\u8g2\u8g2\csrc/u8x8_d_st75256.c ****       break;
 167:..\..\..\u8g2\u8g2\csrc/u8x8_d_st75256.c ****     */
 168:..\..\..\u8g2\u8g2\csrc/u8x8_d_st75256.c ****     /* handled by the calling function
 169:..\..\..\u8g2\u8g2\csrc/u8x8_d_st75256.c ****     case U8X8_MSG_DISPLAY_INIT:
 170:..\..\..\u8g2\u8g2\csrc/u8x8_d_st75256.c ****       u8x8_d_helper_display_init(u8x8);
 171:..\..\..\u8g2\u8g2\csrc/u8x8_d_st75256.c ****       u8x8_cad_SendSequence(u8x8, u8x8_d_st75256_256x128_init_seq);    
 172:..\..\..\u8g2\u8g2\csrc/u8x8_d_st75256.c ****       break;
 173:..\..\..\u8g2\u8g2\csrc/u8x8_d_st75256.c ****     */
 174:..\..\..\u8g2\u8g2\csrc/u8x8_d_st75256.c ****     case U8X8_MSG_DISPLAY_SET_POWER_SAVE:
ARM GAS  C:\Users\jesse\AppData\Local\Temp\cc6zNusR.s 			page 5


 175:..\..\..\u8g2\u8g2\csrc/u8x8_d_st75256.c ****       if ( arg_int == 0 )
  53              		.loc 1 175 0
  54 0016 0AB9     		cbnz	r2, .L6
 176:..\..\..\u8g2\u8g2\csrc/u8x8_d_st75256.c ****         u8x8_cad_SendSequence(u8x8, u8x8_d_st75256_256x128_powersave0_seq);
  55              		.loc 1 176 0
  56 0018 3349     		ldr	r1, .L16
  57              	.LVL1:
  58 001a 00E0     		b	.L14
  59              	.LVL2:
  60              	.L6:
 177:..\..\..\u8g2\u8g2\csrc/u8x8_d_st75256.c ****       else
 178:..\..\..\u8g2\u8g2\csrc/u8x8_d_st75256.c ****         u8x8_cad_SendSequence(u8x8, u8x8_d_st75256_256x128_powersave1_seq);
  61              		.loc 1 178 0
  62 001c 3349     		ldr	r1, .L16+4
  63              	.LVL3:
  64              	.L14:
  65 001e FFF7FEFF 		bl	u8x8_cad_SendSequence
  66              	.LVL4:
  67 0022 16E0     		b	.L12
  68              	.LVL5:
  69              	.L3:
 179:..\..\..\u8g2\u8g2\csrc/u8x8_d_st75256.c **** 
 180:..\..\..\u8g2\u8g2\csrc/u8x8_d_st75256.c ****       break;
 181:..\..\..\u8g2\u8g2\csrc/u8x8_d_st75256.c **** #ifdef U8X8_WITH_SET_CONTRAST
 182:..\..\..\u8g2\u8g2\csrc/u8x8_d_st75256.c ****     case U8X8_MSG_DISPLAY_SET_CONTRAST:
 183:..\..\..\u8g2\u8g2\csrc/u8x8_d_st75256.c **** 
 184:..\..\..\u8g2\u8g2\csrc/u8x8_d_st75256.c ****       u8x8_cad_StartTransfer(u8x8);
  70              		.loc 1 184 0
  71 0024 FFF7FEFF 		bl	u8x8_cad_StartTransfer
  72              	.LVL6:
 185:..\..\..\u8g2\u8g2\csrc/u8x8_d_st75256.c ****       
 186:..\..\..\u8g2\u8g2\csrc/u8x8_d_st75256.c ****       u8x8_cad_SendCmd(u8x8, 0x030 );
  73              		.loc 1 186 0
  74 0028 3021     		movs	r1, #48
  75 002a 2046     		mov	r0, r4
  76 002c FFF7FEFF 		bl	u8x8_cad_SendCmd
  77              	.LVL7:
 187:..\..\..\u8g2\u8g2\csrc/u8x8_d_st75256.c ****       u8x8_cad_SendCmd(u8x8, 0x081 );  /* there are 9 bit for the volume control */
  78              		.loc 1 187 0
  79 0030 8121     		movs	r1, #129
  80 0032 2046     		mov	r0, r4
  81 0034 FFF7FEFF 		bl	u8x8_cad_SendCmd
  82              	.LVL8:
 188:..\..\..\u8g2\u8g2\csrc/u8x8_d_st75256.c ****       u8x8_cad_SendArg(u8x8, (arg_int & 0x1f)<<1 );	/* lower 6 bit */
  83              		.loc 1 188 0
  84 0038 6900     		lsls	r1, r5, #1
  85 003a 01F03E01 		and	r1, r1, #62
  86 003e 2046     		mov	r0, r4
  87 0040 FFF7FEFF 		bl	u8x8_cad_SendArg
  88              	.LVL9:
 189:..\..\..\u8g2\u8g2\csrc/u8x8_d_st75256.c ****       u8x8_cad_SendArg(u8x8, (arg_int>>5));		/* upper 3 bit */
  89              		.loc 1 189 0
  90 0044 6909     		lsrs	r1, r5, #5
  91 0046 2046     		mov	r0, r4
  92 0048 FFF7FEFF 		bl	u8x8_cad_SendArg
  93              	.LVL10:
  94              	.L13:
ARM GAS  C:\Users\jesse\AppData\Local\Temp\cc6zNusR.s 			page 6


 190:..\..\..\u8g2\u8g2\csrc/u8x8_d_st75256.c ****       
 191:..\..\..\u8g2\u8g2\csrc/u8x8_d_st75256.c ****       u8x8_cad_EndTransfer(u8x8);
  95              		.loc 1 191 0
  96 004c 2046     		mov	r0, r4
  97 004e FFF7FEFF 		bl	u8x8_cad_EndTransfer
  98              	.LVL11:
  99              	.L12:
 192:..\..\..\u8g2\u8g2\csrc/u8x8_d_st75256.c ****       break;
 193:..\..\..\u8g2\u8g2\csrc/u8x8_d_st75256.c **** #endif
 194:..\..\..\u8g2\u8g2\csrc/u8x8_d_st75256.c ****     case U8X8_MSG_DISPLAY_DRAW_TILE:
 195:..\..\..\u8g2\u8g2\csrc/u8x8_d_st75256.c ****       
 196:..\..\..\u8g2\u8g2\csrc/u8x8_d_st75256.c ****       u8x8_cad_StartTransfer(u8x8);
 197:..\..\..\u8g2\u8g2\csrc/u8x8_d_st75256.c ****       x = ((u8x8_tile_t *)arg_ptr)->x_pos;    
 198:..\..\..\u8g2\u8g2\csrc/u8x8_d_st75256.c ****       x *= 8;
 199:..\..\..\u8g2\u8g2\csrc/u8x8_d_st75256.c ****       
 200:..\..\..\u8g2\u8g2\csrc/u8x8_d_st75256.c ****       u8x8_cad_SendCmd(u8x8, 0x030 );	/* select command set */
 201:..\..\..\u8g2\u8g2\csrc/u8x8_d_st75256.c ****       u8x8_cad_SendCmd(u8x8, 0x075 );	/* row */
 202:..\..\..\u8g2\u8g2\csrc/u8x8_d_st75256.c ****       u8x8_cad_SendArg(u8x8, u8x8->x_offset + (((u8x8_tile_t *)arg_ptr)->y_pos));	/* x offset is us
 203:..\..\..\u8g2\u8g2\csrc/u8x8_d_st75256.c ****       u8x8_cad_SendArg(u8x8, 0x04f);
 204:..\..\..\u8g2\u8g2\csrc/u8x8_d_st75256.c ****       //u8x8_cad_SendArg(u8x8, (((u8x8_tile_t *)arg_ptr)->y_pos));
 205:..\..\..\u8g2\u8g2\csrc/u8x8_d_st75256.c ****       u8x8_cad_SendCmd(u8x8, 0x015 );	/* col */
 206:..\..\..\u8g2\u8g2\csrc/u8x8_d_st75256.c ****       u8x8_cad_SendArg(u8x8, x);
 207:..\..\..\u8g2\u8g2\csrc/u8x8_d_st75256.c ****       u8x8_cad_SendArg(u8x8, 255);
 208:..\..\..\u8g2\u8g2\csrc/u8x8_d_st75256.c ****       u8x8_cad_SendCmd(u8x8, 0x05c );	
 209:..\..\..\u8g2\u8g2\csrc/u8x8_d_st75256.c ****           
 210:..\..\..\u8g2\u8g2\csrc/u8x8_d_st75256.c ****       do
 211:..\..\..\u8g2\u8g2\csrc/u8x8_d_st75256.c ****       {
 212:..\..\..\u8g2\u8g2\csrc/u8x8_d_st75256.c ****         c = ((u8x8_tile_t *)arg_ptr)->cnt;
 213:..\..\..\u8g2\u8g2\csrc/u8x8_d_st75256.c ****         ptr = ((u8x8_tile_t *)arg_ptr)->tile_ptr;
 214:..\..\..\u8g2\u8g2\csrc/u8x8_d_st75256.c ****         /* SendData can not handle more than 255 bytes, treat c > 31 correctly  */
 215:..\..\..\u8g2\u8g2\csrc/u8x8_d_st75256.c ****         if ( c > 31 )
 216:..\..\..\u8g2\u8g2\csrc/u8x8_d_st75256.c ****         {
 217:..\..\..\u8g2\u8g2\csrc/u8x8_d_st75256.c ****           u8x8_cad_SendData(u8x8, 248, ptr); 	/* 31*8=248 */
 218:..\..\..\u8g2\u8g2\csrc/u8x8_d_st75256.c ****           ptr+=248;
 219:..\..\..\u8g2\u8g2\csrc/u8x8_d_st75256.c ****           c -= 31;
 220:..\..\..\u8g2\u8g2\csrc/u8x8_d_st75256.c ****         }
 221:..\..\..\u8g2\u8g2\csrc/u8x8_d_st75256.c ****         
 222:..\..\..\u8g2\u8g2\csrc/u8x8_d_st75256.c ****         u8x8_cad_SendData(u8x8, c*8, ptr); 	
 223:..\..\..\u8g2\u8g2\csrc/u8x8_d_st75256.c ****         arg_int--;
 224:..\..\..\u8g2\u8g2\csrc/u8x8_d_st75256.c ****       } while( arg_int > 0 );
 225:..\..\..\u8g2\u8g2\csrc/u8x8_d_st75256.c ****       
 226:..\..\..\u8g2\u8g2\csrc/u8x8_d_st75256.c ****       u8x8_cad_EndTransfer(u8x8);
 227:..\..\..\u8g2\u8g2\csrc/u8x8_d_st75256.c ****       break;
 228:..\..\..\u8g2\u8g2\csrc/u8x8_d_st75256.c ****     default:
 229:..\..\..\u8g2\u8g2\csrc/u8x8_d_st75256.c ****       return 0;
 230:..\..\..\u8g2\u8g2\csrc/u8x8_d_st75256.c ****   }
 231:..\..\..\u8g2\u8g2\csrc/u8x8_d_st75256.c ****   return 1;
 100              		.loc 1 231 0
 101 0052 0120     		movs	r0, #1
 192:..\..\..\u8g2\u8g2\csrc/u8x8_d_st75256.c ****       break;
 102              		.loc 1 192 0
 103 0054 BDE8F081 		pop	{r4, r5, r6, r7, r8, pc}
 104              	.LVL12:
 105              	.L4:
 196:..\..\..\u8g2\u8g2\csrc/u8x8_d_st75256.c ****       x = ((u8x8_tile_t *)arg_ptr)->x_pos;    
 106              		.loc 1 196 0
 107 0058 FFF7FEFF 		bl	u8x8_cad_StartTransfer
ARM GAS  C:\Users\jesse\AppData\Local\Temp\cc6zNusR.s 			page 7


 108              	.LVL13:
 200:..\..\..\u8g2\u8g2\csrc/u8x8_d_st75256.c ****       u8x8_cad_SendCmd(u8x8, 0x075 );	/* row */
 109              		.loc 1 200 0
 110 005c 3021     		movs	r1, #48
 111 005e 2046     		mov	r0, r4
 197:..\..\..\u8g2\u8g2\csrc/u8x8_d_st75256.c ****       x *= 8;
 112              		.loc 1 197 0
 113 0060 98F80560 		ldrb	r6, [r8, #5]	@ zero_extendqisi2
 114              	.LVL14:
 200:..\..\..\u8g2\u8g2\csrc/u8x8_d_st75256.c ****       u8x8_cad_SendCmd(u8x8, 0x075 );	/* row */
 115              		.loc 1 200 0
 116 0064 FFF7FEFF 		bl	u8x8_cad_SendCmd
 117              	.LVL15:
 201:..\..\..\u8g2\u8g2\csrc/u8x8_d_st75256.c ****       u8x8_cad_SendArg(u8x8, u8x8->x_offset + (((u8x8_tile_t *)arg_ptr)->y_pos));	/* x offset is us
 118              		.loc 1 201 0
 119 0068 7521     		movs	r1, #117
 120 006a 2046     		mov	r0, r4
 121 006c FFF7FEFF 		bl	u8x8_cad_SendCmd
 122              	.LVL16:
 202:..\..\..\u8g2\u8g2\csrc/u8x8_d_st75256.c ****       u8x8_cad_SendArg(u8x8, 0x04f);
 123              		.loc 1 202 0
 124 0070 98F80630 		ldrb	r3, [r8, #6]	@ zero_extendqisi2
 125 0074 94F82210 		ldrb	r1, [r4, #34]	@ zero_extendqisi2
 126 0078 2046     		mov	r0, r4
 127 007a 1944     		add	r1, r1, r3
 128 007c C9B2     		uxtb	r1, r1
 129 007e FFF7FEFF 		bl	u8x8_cad_SendArg
 130              	.LVL17:
 203:..\..\..\u8g2\u8g2\csrc/u8x8_d_st75256.c ****       //u8x8_cad_SendArg(u8x8, (((u8x8_tile_t *)arg_ptr)->y_pos));
 131              		.loc 1 203 0
 132 0082 4F21     		movs	r1, #79
 133 0084 2046     		mov	r0, r4
 134 0086 FFF7FEFF 		bl	u8x8_cad_SendArg
 135              	.LVL18:
 205:..\..\..\u8g2\u8g2\csrc/u8x8_d_st75256.c ****       u8x8_cad_SendArg(u8x8, x);
 136              		.loc 1 205 0
 137 008a 1521     		movs	r1, #21
 138 008c 2046     		mov	r0, r4
 139 008e FFF7FEFF 		bl	u8x8_cad_SendCmd
 140              	.LVL19:
 206:..\..\..\u8g2\u8g2\csrc/u8x8_d_st75256.c ****       u8x8_cad_SendArg(u8x8, 255);
 141              		.loc 1 206 0
 142 0092 F100     		lsls	r1, r6, #3
 143 0094 01F0F801 		and	r1, r1, #248
 144 0098 2046     		mov	r0, r4
 145 009a FFF7FEFF 		bl	u8x8_cad_SendArg
 146              	.LVL20:
 207:..\..\..\u8g2\u8g2\csrc/u8x8_d_st75256.c ****       u8x8_cad_SendCmd(u8x8, 0x05c );	
 147              		.loc 1 207 0
 148 009e FF21     		movs	r1, #255
 149 00a0 2046     		mov	r0, r4
 150 00a2 FFF7FEFF 		bl	u8x8_cad_SendArg
 151              	.LVL21:
 208:..\..\..\u8g2\u8g2\csrc/u8x8_d_st75256.c ****           
 152              		.loc 1 208 0
 153 00a6 5C21     		movs	r1, #92
 154 00a8 2046     		mov	r0, r4
ARM GAS  C:\Users\jesse\AppData\Local\Temp\cc6zNusR.s 			page 8


 155 00aa FFF7FEFF 		bl	u8x8_cad_SendCmd
 156              	.LVL22:
 157              	.L8:
 212:..\..\..\u8g2\u8g2\csrc/u8x8_d_st75256.c ****         ptr = ((u8x8_tile_t *)arg_ptr)->tile_ptr;
 158              		.loc 1 212 0
 159 00ae 98F80460 		ldrb	r6, [r8, #4]	@ zero_extendqisi2
 160              	.LVL23:
 213:..\..\..\u8g2\u8g2\csrc/u8x8_d_st75256.c ****         /* SendData can not handle more than 255 bytes, treat c > 31 correctly  */
 161              		.loc 1 213 0
 162 00b2 D8F80070 		ldr	r7, [r8]
 163              	.LVL24:
 215:..\..\..\u8g2\u8g2\csrc/u8x8_d_st75256.c ****         {
 164              		.loc 1 215 0
 165 00b6 1F2E     		cmp	r6, #31
 166 00b8 07D9     		bls	.L7
 217:..\..\..\u8g2\u8g2\csrc/u8x8_d_st75256.c ****           ptr+=248;
 167              		.loc 1 217 0
 168 00ba 3A46     		mov	r2, r7
 169 00bc F821     		movs	r1, #248
 170 00be 2046     		mov	r0, r4
 171 00c0 FFF7FEFF 		bl	u8x8_cad_SendData
 172              	.LVL25:
 219:..\..\..\u8g2\u8g2\csrc/u8x8_d_st75256.c ****         }
 173              		.loc 1 219 0
 174 00c4 1F3E     		subs	r6, r6, #31
 175              	.LVL26:
 218:..\..\..\u8g2\u8g2\csrc/u8x8_d_st75256.c ****           c -= 31;
 176              		.loc 1 218 0
 177 00c6 F837     		adds	r7, r7, #248
 178              	.LVL27:
 219:..\..\..\u8g2\u8g2\csrc/u8x8_d_st75256.c ****         }
 179              		.loc 1 219 0
 180 00c8 F6B2     		uxtb	r6, r6
 181              	.LVL28:
 182              	.L7:
 222:..\..\..\u8g2\u8g2\csrc/u8x8_d_st75256.c ****         arg_int--;
 183              		.loc 1 222 0
 184 00ca F100     		lsls	r1, r6, #3
 185 00cc 3A46     		mov	r2, r7
 186 00ce 01F0F801 		and	r1, r1, #248
 187 00d2 2046     		mov	r0, r4
 223:..\..\..\u8g2\u8g2\csrc/u8x8_d_st75256.c ****       } while( arg_int > 0 );
 188              		.loc 1 223 0
 189 00d4 013D     		subs	r5, r5, #1
 190              	.LVL29:
 222:..\..\..\u8g2\u8g2\csrc/u8x8_d_st75256.c ****         arg_int--;
 191              		.loc 1 222 0
 192 00d6 FFF7FEFF 		bl	u8x8_cad_SendData
 193              	.LVL30:
 224:..\..\..\u8g2\u8g2\csrc/u8x8_d_st75256.c ****       
 194              		.loc 1 224 0
 195 00da 15F0FF05 		ands	r5, r5, #255
 196              	.LVL31:
 197 00de E6D1     		bne	.L8
 198 00e0 B4E7     		b	.L13
 199              	.LVL32:
 200              	.L11:
ARM GAS  C:\Users\jesse\AppData\Local\Temp\cc6zNusR.s 			page 9


 229:..\..\..\u8g2\u8g2\csrc/u8x8_d_st75256.c ****   }
 201              		.loc 1 229 0
 202 00e2 0020     		movs	r0, #0
 203              	.LVL33:
 232:..\..\..\u8g2\u8g2\csrc/u8x8_d_st75256.c **** }
 204              		.loc 1 232 0
 205 00e4 BDE8F081 		pop	{r4, r5, r6, r7, r8, pc}
 206              	.LVL34:
 207              	.L17:
 208              		.align	2
 209              	.L16:
 210 00e8 00000000 		.word	.LANCHOR0
 211 00ec 0B000000 		.word	.LANCHOR0+11
 212              		.cfi_endproc
 213              	.LFE0:
 214              		.size	u8x8_d_st75256_256x128_generic, .-u8x8_d_st75256_256x128_generic
 215              		.section	.text.u8x8_d_st75256_jlx256128,"ax",%progbits
 216              		.align	1
 217              		.global	u8x8_d_st75256_jlx256128
 218              		.thumb
 219              		.thumb_func
 220              		.type	u8x8_d_st75256_jlx256128, %function
 221              	u8x8_d_st75256_jlx256128:
 222              	.LFB1:
 233:..\..\..\u8g2\u8g2\csrc/u8x8_d_st75256.c **** 
 234:..\..\..\u8g2\u8g2\csrc/u8x8_d_st75256.c **** /*=============================================*/
 235:..\..\..\u8g2\u8g2\csrc/u8x8_d_st75256.c **** /* JLX256128 */
 236:..\..\..\u8g2\u8g2\csrc/u8x8_d_st75256.c **** 
 237:..\..\..\u8g2\u8g2\csrc/u8x8_d_st75256.c **** static const u8x8_display_info_t u8x8_st75256_256x128_display_info =
 238:..\..\..\u8g2\u8g2\csrc/u8x8_d_st75256.c **** {
 239:..\..\..\u8g2\u8g2\csrc/u8x8_d_st75256.c ****   /* chip_enable_level = */ 0,
 240:..\..\..\u8g2\u8g2\csrc/u8x8_d_st75256.c ****   /* chip_disable_level = */ 1,
 241:..\..\..\u8g2\u8g2\csrc/u8x8_d_st75256.c ****   
 242:..\..\..\u8g2\u8g2\csrc/u8x8_d_st75256.c ****   /* post_chip_enable_wait_ns = */ 20,
 243:..\..\..\u8g2\u8g2\csrc/u8x8_d_st75256.c ****   /* pre_chip_disable_wait_ns = */ 20,
 244:..\..\..\u8g2\u8g2\csrc/u8x8_d_st75256.c ****   /* reset_pulse_width_ms = */ 5, 	
 245:..\..\..\u8g2\u8g2\csrc/u8x8_d_st75256.c ****   /* post_reset_wait_ms = */ 5, 		/**/
 246:..\..\..\u8g2\u8g2\csrc/u8x8_d_st75256.c ****   /* sda_setup_time_ns = */ 20,		/* */
 247:..\..\..\u8g2\u8g2\csrc/u8x8_d_st75256.c ****   /* sck_pulse_width_ns = */ 40,	/*  */
 248:..\..\..\u8g2\u8g2\csrc/u8x8_d_st75256.c ****   /* sck_clock_hz = */ 4000000UL,	/* since Arduino 1.6.0, the SPI bus speed in Hz. Should be  10000
 249:..\..\..\u8g2\u8g2\csrc/u8x8_d_st75256.c ****   /* spi_mode = */ 0,		/* active high, rising edge */
 250:..\..\..\u8g2\u8g2\csrc/u8x8_d_st75256.c ****   /* i2c_bus_clock_100kHz = */ 4,	/* 400KHz */
 251:..\..\..\u8g2\u8g2\csrc/u8x8_d_st75256.c ****   /* data_setup_time_ns = */ 15,
 252:..\..\..\u8g2\u8g2\csrc/u8x8_d_st75256.c ****   /* write_pulse_width_ns = */ 70,	
 253:..\..\..\u8g2\u8g2\csrc/u8x8_d_st75256.c ****   /* tile_width = */ 32,
 254:..\..\..\u8g2\u8g2\csrc/u8x8_d_st75256.c ****   /* tile_hight = */ 16,
 255:..\..\..\u8g2\u8g2\csrc/u8x8_d_st75256.c ****   /* default_x_offset = */ 0,	/* must be 0, because this is checked also for normal mode */
 256:..\..\..\u8g2\u8g2\csrc/u8x8_d_st75256.c ****   /* flipmode_x_offset = */ 5,		/* used as y offset */
 257:..\..\..\u8g2\u8g2\csrc/u8x8_d_st75256.c ****   /* pixel_width = */ 256,
 258:..\..\..\u8g2\u8g2\csrc/u8x8_d_st75256.c ****   /* pixel_height = */ 128
 259:..\..\..\u8g2\u8g2\csrc/u8x8_d_st75256.c **** };
 260:..\..\..\u8g2\u8g2\csrc/u8x8_d_st75256.c **** 
 261:..\..\..\u8g2\u8g2\csrc/u8x8_d_st75256.c **** 
 262:..\..\..\u8g2\u8g2\csrc/u8x8_d_st75256.c **** static const uint8_t u8x8_d_st75256_256x128_init_seq[] = {
 263:..\..\..\u8g2\u8g2\csrc/u8x8_d_st75256.c ****   U8X8_START_TRANSFER(),             	/* enable chip, delay is part of the transfer start */
 264:..\..\..\u8g2\u8g2\csrc/u8x8_d_st75256.c ****   
 265:..\..\..\u8g2\u8g2\csrc/u8x8_d_st75256.c ****   U8X8_DLY(20),
ARM GAS  C:\Users\jesse\AppData\Local\Temp\cc6zNusR.s 			page 10


 266:..\..\..\u8g2\u8g2\csrc/u8x8_d_st75256.c **** 
 267:..\..\..\u8g2\u8g2\csrc/u8x8_d_st75256.c ****   U8X8_C( 0x030 ),				/* select 00 commands */
 268:..\..\..\u8g2\u8g2\csrc/u8x8_d_st75256.c ****   U8X8_C( 0x094 ),				/* sleep out */
 269:..\..\..\u8g2\u8g2\csrc/u8x8_d_st75256.c **** 
 270:..\..\..\u8g2\u8g2\csrc/u8x8_d_st75256.c ****   //U8X8_C( 0x030 ),				/* select 00 commands */
 271:..\..\..\u8g2\u8g2\csrc/u8x8_d_st75256.c ****   U8X8_C( 0x0ae ),				/* display off */
 272:..\..\..\u8g2\u8g2\csrc/u8x8_d_st75256.c **** 
 273:..\..\..\u8g2\u8g2\csrc/u8x8_d_st75256.c ****   U8X8_C( 0x031 ),				/* select 01 commands */
 274:..\..\..\u8g2\u8g2\csrc/u8x8_d_st75256.c ****   U8X8_CA( 0x0d7, 0x09f ),		/* disable auto read */  
 275:..\..\..\u8g2\u8g2\csrc/u8x8_d_st75256.c **** 
 276:..\..\..\u8g2\u8g2\csrc/u8x8_d_st75256.c ****   //U8X8_C( 0x031 ),				/* select 01 commands */
 277:..\..\..\u8g2\u8g2\csrc/u8x8_d_st75256.c ****   U8X8_C( 0x032 ),				/* analog circuit set */
 278:..\..\..\u8g2\u8g2\csrc/u8x8_d_st75256.c ****   U8X8_A( 0x000 ),				/* code example: OSC Frequency adjustment */
 279:..\..\..\u8g2\u8g2\csrc/u8x8_d_st75256.c ****   U8X8_A( 0x001 ),				/* Frequency on booster capacitors 1 = 6KHz? */
 280:..\..\..\u8g2\u8g2\csrc/u8x8_d_st75256.c ****   U8X8_A( 0x000 ),				/* Bias: 1: 1/13, 2: 1/12, 3: 1/11, 4:1/10, 5:1/9 */
 281:..\..\..\u8g2\u8g2\csrc/u8x8_d_st75256.c ****     
 282:..\..\..\u8g2\u8g2\csrc/u8x8_d_st75256.c ****   //U8X8_C( 0x031 ),				/* select 01 commands */
 283:..\..\..\u8g2\u8g2\csrc/u8x8_d_st75256.c ****   U8X8_C( 0x020 ),				/* gray levels */
 284:..\..\..\u8g2\u8g2\csrc/u8x8_d_st75256.c ****   U8X8_A( 0x01 ),
 285:..\..\..\u8g2\u8g2\csrc/u8x8_d_st75256.c ****   U8X8_A( 0x03 ),
 286:..\..\..\u8g2\u8g2\csrc/u8x8_d_st75256.c ****   U8X8_A( 0x05 ),
 287:..\..\..\u8g2\u8g2\csrc/u8x8_d_st75256.c ****   U8X8_A( 0x07 ),
 288:..\..\..\u8g2\u8g2\csrc/u8x8_d_st75256.c ****   U8X8_A( 0x09),
 289:..\..\..\u8g2\u8g2\csrc/u8x8_d_st75256.c ****   U8X8_A( 0x0b ),
 290:..\..\..\u8g2\u8g2\csrc/u8x8_d_st75256.c ****   U8X8_A( 0x0d ),
 291:..\..\..\u8g2\u8g2\csrc/u8x8_d_st75256.c ****   U8X8_A( 0x10 ),
 292:..\..\..\u8g2\u8g2\csrc/u8x8_d_st75256.c ****   U8X8_A( 0x11 ),
 293:..\..\..\u8g2\u8g2\csrc/u8x8_d_st75256.c ****   U8X8_A( 0x13 ),
 294:..\..\..\u8g2\u8g2\csrc/u8x8_d_st75256.c ****   U8X8_A( 0x15 ),
 295:..\..\..\u8g2\u8g2\csrc/u8x8_d_st75256.c ****   U8X8_A( 0x17 ),
 296:..\..\..\u8g2\u8g2\csrc/u8x8_d_st75256.c ****   U8X8_A( 0x19 ),
 297:..\..\..\u8g2\u8g2\csrc/u8x8_d_st75256.c ****   U8X8_A( 0x1b ),
 298:..\..\..\u8g2\u8g2\csrc/u8x8_d_st75256.c ****   U8X8_A( 0x1d ),
 299:..\..\..\u8g2\u8g2\csrc/u8x8_d_st75256.c ****   U8X8_A( 0x1f ),
 300:..\..\..\u8g2\u8g2\csrc/u8x8_d_st75256.c ****  
 301:..\..\..\u8g2\u8g2\csrc/u8x8_d_st75256.c ****   
 302:..\..\..\u8g2\u8g2\csrc/u8x8_d_st75256.c ****   U8X8_C( 0x030 ),				/* select 00 commands */
 303:..\..\..\u8g2\u8g2\csrc/u8x8_d_st75256.c ****   U8X8_CAA(0x75, 0, 0x4f),		/* row range */
 304:..\..\..\u8g2\u8g2\csrc/u8x8_d_st75256.c ****   U8X8_CAA(0x15, 0, 255),		/* col range */
 305:..\..\..\u8g2\u8g2\csrc/u8x8_d_st75256.c ****   
 306:..\..\..\u8g2\u8g2\csrc/u8x8_d_st75256.c ****   //U8X8_C( 0x030 ),				/* select 00 commands */
 307:..\..\..\u8g2\u8g2\csrc/u8x8_d_st75256.c ****   U8X8_CA( 0xbc, 0x00 ),			/* data scan dir */
 308:..\..\..\u8g2\u8g2\csrc/u8x8_d_st75256.c ****   U8X8_A( 0xa6 ),				/* ??? */
 309:..\..\..\u8g2\u8g2\csrc/u8x8_d_st75256.c **** 
 310:..\..\..\u8g2\u8g2\csrc/u8x8_d_st75256.c ****   //U8X8_C( 0x030 ),				/* select 00 commands */
 311:..\..\..\u8g2\u8g2\csrc/u8x8_d_st75256.c ****   U8X8_C( 0x00c ),				/* data format LSB top */
 312:..\..\..\u8g2\u8g2\csrc/u8x8_d_st75256.c **** 
 313:..\..\..\u8g2\u8g2\csrc/u8x8_d_st75256.c ****   //U8X8_C( 0x030 ),				/* select 00 commands */ 
 314:..\..\..\u8g2\u8g2\csrc/u8x8_d_st75256.c ****   U8X8_C( 0xca ),				/* display control, 3 args follow  */
 315:..\..\..\u8g2\u8g2\csrc/u8x8_d_st75256.c ****   U8X8_A( 0x00 ),				/* 0x00: no clock division, 0x04: devide clock */
 316:..\..\..\u8g2\u8g2\csrc/u8x8_d_st75256.c ****   U8X8_A( 0x7f ),				/* 1/160 duty value from the DS example code */
 317:..\..\..\u8g2\u8g2\csrc/u8x8_d_st75256.c ****   U8X8_A( 0x20 ),				/* nline off */ 
 318:..\..\..\u8g2\u8g2\csrc/u8x8_d_st75256.c **** 
 319:..\..\..\u8g2\u8g2\csrc/u8x8_d_st75256.c ****   //U8X8_C( 0x030 ),				/* select 00 commands */ 
 320:..\..\..\u8g2\u8g2\csrc/u8x8_d_st75256.c ****   U8X8_CA( 0x0f0, 0x010 ),		/* monochrome mode  = 0x010*/
 321:..\..\..\u8g2\u8g2\csrc/u8x8_d_st75256.c **** 
 322:..\..\..\u8g2\u8g2\csrc/u8x8_d_st75256.c ****   //U8X8_C( 0x030 ),				/* select 00 commands */
ARM GAS  C:\Users\jesse\AppData\Local\Temp\cc6zNusR.s 			page 11


 323:..\..\..\u8g2\u8g2\csrc/u8x8_d_st75256.c ****   U8X8_CAA( 0x81, 0x36, 0x05 ),	/* Volume control */
 324:..\..\..\u8g2\u8g2\csrc/u8x8_d_st75256.c **** 
 325:..\..\..\u8g2\u8g2\csrc/u8x8_d_st75256.c ****   //U8X8_C( 0x030 ),				/* select 00 commands */
 326:..\..\..\u8g2\u8g2\csrc/u8x8_d_st75256.c ****   U8X8_CA( 0x020, 0x00b ),		/* Power control: Regulator, follower & booster on */
 327:..\..\..\u8g2\u8g2\csrc/u8x8_d_st75256.c ****   U8X8_DLY(100),
 328:..\..\..\u8g2\u8g2\csrc/u8x8_d_st75256.c **** 
 329:..\..\..\u8g2\u8g2\csrc/u8x8_d_st75256.c ****   U8X8_END_TRANSFER(),             	/* disable chip */
 330:..\..\..\u8g2\u8g2\csrc/u8x8_d_st75256.c ****   U8X8_END()             			/* end of sequence */
 331:..\..\..\u8g2\u8g2\csrc/u8x8_d_st75256.c **** };
 332:..\..\..\u8g2\u8g2\csrc/u8x8_d_st75256.c **** 
 333:..\..\..\u8g2\u8g2\csrc/u8x8_d_st75256.c **** 
 334:..\..\..\u8g2\u8g2\csrc/u8x8_d_st75256.c **** uint8_t u8x8_d_st75256_jlx256128(u8x8_t *u8x8, uint8_t msg, uint8_t arg_int, void *arg_ptr)
 335:..\..\..\u8g2\u8g2\csrc/u8x8_d_st75256.c **** {
 223              		.loc 1 335 0
 224              		.cfi_startproc
 225              		@ args = 0, pretend = 0, frame = 0
 226              		@ frame_needed = 0, uses_anonymous_args = 0
 227              	.LVL35:
 228 0000 70B5     		push	{r4, r5, r6, lr}
 229              		.cfi_def_cfa_offset 16
 230              		.cfi_offset 4, -16
 231              		.cfi_offset 5, -12
 232              		.cfi_offset 6, -8
 233              		.cfi_offset 14, -4
 234              		.loc 1 335 0
 235 0002 0446     		mov	r4, r0
 236 0004 0D46     		mov	r5, r1
 237 0006 1646     		mov	r6, r2
 336:..\..\..\u8g2\u8g2\csrc/u8x8_d_st75256.c ****   if ( u8x8_d_st75256_256x128_generic(u8x8, msg, arg_int, arg_ptr) != 0 )
 238              		.loc 1 336 0
 239 0008 FFF7FEFF 		bl	u8x8_d_st75256_256x128_generic
 240              	.LVL36:
 241 000c 10BB     		cbnz	r0, .L23
 337:..\..\..\u8g2\u8g2\csrc/u8x8_d_st75256.c ****     return 1;
 338:..\..\..\u8g2\u8g2\csrc/u8x8_d_st75256.c ****   if ( msg == U8X8_MSG_DISPLAY_SETUP_MEMORY )
 242              		.loc 1 338 0
 243 000e 092D     		cmp	r5, #9
 244 0010 04D1     		bne	.L20
 339:..\..\..\u8g2\u8g2\csrc/u8x8_d_st75256.c ****   {
 340:..\..\..\u8g2\u8g2\csrc/u8x8_d_st75256.c ****     //u8x8_SetI2CAddress(u8x8, 0x078);		/* lowest I2C adr of the ST75256 */
 341:..\..\..\u8g2\u8g2\csrc/u8x8_d_st75256.c ****     u8x8_d_helper_display_setup_memory(u8x8, &u8x8_st75256_256x128_display_info);
 245              		.loc 1 341 0
 246 0012 1149     		ldr	r1, .L25
 247 0014 2046     		mov	r0, r4
 248 0016 FFF7FEFF 		bl	u8x8_d_helper_display_setup_memory
 249              	.LVL37:
 250 001a 1BE0     		b	.L23
 251              	.L20:
 342:..\..\..\u8g2\u8g2\csrc/u8x8_d_st75256.c ****     return 1;
 343:..\..\..\u8g2\u8g2\csrc/u8x8_d_st75256.c ****   }
 344:..\..\..\u8g2\u8g2\csrc/u8x8_d_st75256.c ****   else if ( msg == U8X8_MSG_DISPLAY_INIT )
 252              		.loc 1 344 0
 253 001c 0A2D     		cmp	r5, #10
 254 001e 07D1     		bne	.L21
 345:..\..\..\u8g2\u8g2\csrc/u8x8_d_st75256.c ****   {
 346:..\..\..\u8g2\u8g2\csrc/u8x8_d_st75256.c ****     u8x8_d_helper_display_init(u8x8);
 255              		.loc 1 346 0
ARM GAS  C:\Users\jesse\AppData\Local\Temp\cc6zNusR.s 			page 12


 256 0020 2046     		mov	r0, r4
 257 0022 FFF7FEFF 		bl	u8x8_d_helper_display_init
 258              	.LVL38:
 347:..\..\..\u8g2\u8g2\csrc/u8x8_d_st75256.c ****     u8x8_cad_SendSequence(u8x8, u8x8_d_st75256_256x128_init_seq);    
 259              		.loc 1 347 0
 260 0026 0D49     		ldr	r1, .L25+4
 261 0028 2046     		mov	r0, r4
 262 002a FFF7FEFF 		bl	u8x8_cad_SendSequence
 263              	.LVL39:
 264 002e 11E0     		b	.L23
 265              	.L21:
 348:..\..\..\u8g2\u8g2\csrc/u8x8_d_st75256.c ****     return 1;
 349:..\..\..\u8g2\u8g2\csrc/u8x8_d_st75256.c ****   }
 350:..\..\..\u8g2\u8g2\csrc/u8x8_d_st75256.c ****   else if  ( msg == U8X8_MSG_DISPLAY_SET_FLIP_MODE )
 266              		.loc 1 350 0
 267 0030 0D2D     		cmp	r5, #13
 268 0032 10D1     		bne	.L19
 351:..\..\..\u8g2\u8g2\csrc/u8x8_d_st75256.c ****   {
 352:..\..\..\u8g2\u8g2\csrc/u8x8_d_st75256.c ****     if ( arg_int == 0 )
 269              		.loc 1 352 0
 270 0034 36B9     		cbnz	r6, .L22
 353:..\..\..\u8g2\u8g2\csrc/u8x8_d_st75256.c ****     {
 354:..\..\..\u8g2\u8g2\csrc/u8x8_d_st75256.c ****       u8x8_cad_SendSequence(u8x8, u8x8_d_st75256_jlx256128_flip0_seq);
 271              		.loc 1 354 0
 272 0036 0A49     		ldr	r1, .L25+8
 273 0038 2046     		mov	r0, r4
 274 003a FFF7FEFF 		bl	u8x8_cad_SendSequence
 275              	.LVL40:
 355:..\..\..\u8g2\u8g2\csrc/u8x8_d_st75256.c ****       u8x8->x_offset = u8x8->display_info->default_x_offset;
 276              		.loc 1 355 0
 277 003e 2368     		ldr	r3, [r4]
 278 0040 9B7C     		ldrb	r3, [r3, #18]	@ zero_extendqisi2
 279 0042 05E0     		b	.L24
 280              	.L22:
 356:..\..\..\u8g2\u8g2\csrc/u8x8_d_st75256.c ****     }
 357:..\..\..\u8g2\u8g2\csrc/u8x8_d_st75256.c ****     else
 358:..\..\..\u8g2\u8g2\csrc/u8x8_d_st75256.c ****     {
 359:..\..\..\u8g2\u8g2\csrc/u8x8_d_st75256.c ****       u8x8_cad_SendSequence(u8x8, u8x8_d_st75256_jlx256128_flip1_seq);
 281              		.loc 1 359 0
 282 0044 0749     		ldr	r1, .L25+12
 283 0046 2046     		mov	r0, r4
 284 0048 FFF7FEFF 		bl	u8x8_cad_SendSequence
 285              	.LVL41:
 360:..\..\..\u8g2\u8g2\csrc/u8x8_d_st75256.c ****       u8x8->x_offset = u8x8->display_info->flipmode_x_offset;
 286              		.loc 1 360 0
 287 004c 2368     		ldr	r3, [r4]
 288 004e DB7C     		ldrb	r3, [r3, #19]	@ zero_extendqisi2
 289              	.L24:
 290 0050 84F82230 		strb	r3, [r4, #34]
 291              	.L23:
 337:..\..\..\u8g2\u8g2\csrc/u8x8_d_st75256.c ****   if ( msg == U8X8_MSG_DISPLAY_SETUP_MEMORY )
 292              		.loc 1 337 0
 293 0054 0120     		movs	r0, #1
 294              	.L19:
 361:..\..\..\u8g2\u8g2\csrc/u8x8_d_st75256.c ****     }
 362:..\..\..\u8g2\u8g2\csrc/u8x8_d_st75256.c ****     return 1;
 363:..\..\..\u8g2\u8g2\csrc/u8x8_d_st75256.c ****   }
ARM GAS  C:\Users\jesse\AppData\Local\Temp\cc6zNusR.s 			page 13


 364:..\..\..\u8g2\u8g2\csrc/u8x8_d_st75256.c ****   return 0;
 365:..\..\..\u8g2\u8g2\csrc/u8x8_d_st75256.c **** }
 295              		.loc 1 365 0
 296 0056 70BD     		pop	{r4, r5, r6, pc}
 297              	.LVL42:
 298              	.L26:
 299              		.align	2
 300              	.L25:
 301 0058 14000000 		.word	.LANCHOR0+20
 302 005c 2C000000 		.word	.LANCHOR0+44
 303 0060 95000000 		.word	.LANCHOR0+149
 304 0064 A2000000 		.word	.LANCHOR0+162
 305              		.cfi_endproc
 306              	.LFE1:
 307              		.size	u8x8_d_st75256_jlx256128, .-u8x8_d_st75256_jlx256128
 308              		.section	.text.u8x8_d_st75256_wo256x128,"ax",%progbits
 309              		.align	1
 310              		.global	u8x8_d_st75256_wo256x128
 311              		.thumb
 312              		.thumb_func
 313              		.type	u8x8_d_st75256_wo256x128, %function
 314              	u8x8_d_st75256_wo256x128:
 315              	.LFB2:
 366:..\..\..\u8g2\u8g2\csrc/u8x8_d_st75256.c **** 
 367:..\..\..\u8g2\u8g2\csrc/u8x8_d_st75256.c **** 
 368:..\..\..\u8g2\u8g2\csrc/u8x8_d_st75256.c **** 
 369:..\..\..\u8g2\u8g2\csrc/u8x8_d_st75256.c **** /*=============================================*/
 370:..\..\..\u8g2\u8g2\csrc/u8x8_d_st75256.c **** /* WO256X128, https://github.com/olikraus/u8g2/issues/891  */
 371:..\..\..\u8g2\u8g2\csrc/u8x8_d_st75256.c **** 
 372:..\..\..\u8g2\u8g2\csrc/u8x8_d_st75256.c **** static const u8x8_display_info_t u8x8_st75256_wo256x128_display_info =
 373:..\..\..\u8g2\u8g2\csrc/u8x8_d_st75256.c **** {
 374:..\..\..\u8g2\u8g2\csrc/u8x8_d_st75256.c ****   /* chip_enable_level = */ 0,
 375:..\..\..\u8g2\u8g2\csrc/u8x8_d_st75256.c ****   /* chip_disable_level = */ 1,
 376:..\..\..\u8g2\u8g2\csrc/u8x8_d_st75256.c ****   
 377:..\..\..\u8g2\u8g2\csrc/u8x8_d_st75256.c ****   /* post_chip_enable_wait_ns = */ 20,
 378:..\..\..\u8g2\u8g2\csrc/u8x8_d_st75256.c ****   /* pre_chip_disable_wait_ns = */ 20,
 379:..\..\..\u8g2\u8g2\csrc/u8x8_d_st75256.c ****   /* reset_pulse_width_ms = */ 5, 	
 380:..\..\..\u8g2\u8g2\csrc/u8x8_d_st75256.c ****   /* post_reset_wait_ms = */ 5, 		/**/
 381:..\..\..\u8g2\u8g2\csrc/u8x8_d_st75256.c ****   /* sda_setup_time_ns = */ 20,		/* */
 382:..\..\..\u8g2\u8g2\csrc/u8x8_d_st75256.c ****   /* sck_pulse_width_ns = */ 40,	/*  */
 383:..\..\..\u8g2\u8g2\csrc/u8x8_d_st75256.c ****   /* sck_clock_hz = */ 4000000UL,	/* since Arduino 1.6.0, the SPI bus speed in Hz. Should be  10000
 384:..\..\..\u8g2\u8g2\csrc/u8x8_d_st75256.c ****   /* spi_mode = */ 0,		/* active high, rising edge */
 385:..\..\..\u8g2\u8g2\csrc/u8x8_d_st75256.c ****   /* i2c_bus_clock_100kHz = */ 4,	/* 400KHz */
 386:..\..\..\u8g2\u8g2\csrc/u8x8_d_st75256.c ****   /* data_setup_time_ns = */ 15,
 387:..\..\..\u8g2\u8g2\csrc/u8x8_d_st75256.c ****   /* write_pulse_width_ns = */ 70,	
 388:..\..\..\u8g2\u8g2\csrc/u8x8_d_st75256.c ****   /* tile_width = */ 32,
 389:..\..\..\u8g2\u8g2\csrc/u8x8_d_st75256.c ****   /* tile_hight = */ 16,
 390:..\..\..\u8g2\u8g2\csrc/u8x8_d_st75256.c ****   /* default_x_offset = */ 5,	/* must be 0, because this is checked also for normal mode */
 391:..\..\..\u8g2\u8g2\csrc/u8x8_d_st75256.c ****   /* flipmode_x_offset = */ 0,		/* used as y offset */
 392:..\..\..\u8g2\u8g2\csrc/u8x8_d_st75256.c ****   /* pixel_width = */ 256,
 393:..\..\..\u8g2\u8g2\csrc/u8x8_d_st75256.c ****   /* pixel_height = */ 128
 394:..\..\..\u8g2\u8g2\csrc/u8x8_d_st75256.c **** };
 395:..\..\..\u8g2\u8g2\csrc/u8x8_d_st75256.c **** 
 396:..\..\..\u8g2\u8g2\csrc/u8x8_d_st75256.c **** 
 397:..\..\..\u8g2\u8g2\csrc/u8x8_d_st75256.c **** static const uint8_t u8x8_d_st75256_wo256x128_init_seq[] = {
 398:..\..\..\u8g2\u8g2\csrc/u8x8_d_st75256.c ****   U8X8_START_TRANSFER(),             	/* enable chip, delay is part of the transfer start */
 399:..\..\..\u8g2\u8g2\csrc/u8x8_d_st75256.c ****   
ARM GAS  C:\Users\jesse\AppData\Local\Temp\cc6zNusR.s 			page 14


 400:..\..\..\u8g2\u8g2\csrc/u8x8_d_st75256.c ****   U8X8_DLY(20),
 401:..\..\..\u8g2\u8g2\csrc/u8x8_d_st75256.c **** 
 402:..\..\..\u8g2\u8g2\csrc/u8x8_d_st75256.c ****   U8X8_C( 0x030 ),				/* select 00 commands */
 403:..\..\..\u8g2\u8g2\csrc/u8x8_d_st75256.c ****   U8X8_C( 0x094 ),				/* sleep out */
 404:..\..\..\u8g2\u8g2\csrc/u8x8_d_st75256.c **** 
 405:..\..\..\u8g2\u8g2\csrc/u8x8_d_st75256.c ****   //U8X8_C( 0x030 ),				/* select 00 commands */
 406:..\..\..\u8g2\u8g2\csrc/u8x8_d_st75256.c ****   U8X8_C( 0x0ae ),				/* display off */
 407:..\..\..\u8g2\u8g2\csrc/u8x8_d_st75256.c **** 
 408:..\..\..\u8g2\u8g2\csrc/u8x8_d_st75256.c ****   U8X8_C( 0x031 ),				/* select 01 commands */
 409:..\..\..\u8g2\u8g2\csrc/u8x8_d_st75256.c ****   U8X8_CA( 0x0d7, 0x09f ),		/* disable auto read */  
 410:..\..\..\u8g2\u8g2\csrc/u8x8_d_st75256.c **** 
 411:..\..\..\u8g2\u8g2\csrc/u8x8_d_st75256.c ****   //U8X8_C( 0x031 ),				/* select 01 commands */
 412:..\..\..\u8g2\u8g2\csrc/u8x8_d_st75256.c ****   U8X8_C( 0x032 ),				/* analog circuit set */
 413:..\..\..\u8g2\u8g2\csrc/u8x8_d_st75256.c ****   U8X8_A( 0x000 ),				/* code example: OSC Frequency adjustment */
 414:..\..\..\u8g2\u8g2\csrc/u8x8_d_st75256.c ****   U8X8_A( 0x001 ),				/* Frequency on booster capacitors 1 = 6KHz? */
 415:..\..\..\u8g2\u8g2\csrc/u8x8_d_st75256.c ****   U8X8_A( 0x000 ),				/* Bias: 1: 1/13, 2: 1/12, 3: 1/11, 4:1/10, 5:1/9 */
 416:..\..\..\u8g2\u8g2\csrc/u8x8_d_st75256.c ****     
 417:..\..\..\u8g2\u8g2\csrc/u8x8_d_st75256.c ****   //U8X8_C( 0x031 ),				/* select 01 commands */
 418:..\..\..\u8g2\u8g2\csrc/u8x8_d_st75256.c ****   U8X8_C( 0x020 ),				/* gray levels */
 419:..\..\..\u8g2\u8g2\csrc/u8x8_d_st75256.c ****   U8X8_A( 0x01 ),
 420:..\..\..\u8g2\u8g2\csrc/u8x8_d_st75256.c ****   U8X8_A( 0x03 ),
 421:..\..\..\u8g2\u8g2\csrc/u8x8_d_st75256.c ****   U8X8_A( 0x05 ),
 422:..\..\..\u8g2\u8g2\csrc/u8x8_d_st75256.c ****   U8X8_A( 0x07 ),
 423:..\..\..\u8g2\u8g2\csrc/u8x8_d_st75256.c ****   U8X8_A( 0x09),
 424:..\..\..\u8g2\u8g2\csrc/u8x8_d_st75256.c ****   U8X8_A( 0x0b ),
 425:..\..\..\u8g2\u8g2\csrc/u8x8_d_st75256.c ****   U8X8_A( 0x0d ),
 426:..\..\..\u8g2\u8g2\csrc/u8x8_d_st75256.c ****   U8X8_A( 0x10 ),
 427:..\..\..\u8g2\u8g2\csrc/u8x8_d_st75256.c ****   U8X8_A( 0x11 ),
 428:..\..\..\u8g2\u8g2\csrc/u8x8_d_st75256.c ****   U8X8_A( 0x13 ),
 429:..\..\..\u8g2\u8g2\csrc/u8x8_d_st75256.c ****   U8X8_A( 0x15 ),
 430:..\..\..\u8g2\u8g2\csrc/u8x8_d_st75256.c ****   U8X8_A( 0x17 ),
 431:..\..\..\u8g2\u8g2\csrc/u8x8_d_st75256.c ****   U8X8_A( 0x19 ),
 432:..\..\..\u8g2\u8g2\csrc/u8x8_d_st75256.c ****   U8X8_A( 0x1b ),
 433:..\..\..\u8g2\u8g2\csrc/u8x8_d_st75256.c ****   U8X8_A( 0x1d ),
 434:..\..\..\u8g2\u8g2\csrc/u8x8_d_st75256.c ****   U8X8_A( 0x1f ),
 435:..\..\..\u8g2\u8g2\csrc/u8x8_d_st75256.c ****  
 436:..\..\..\u8g2\u8g2\csrc/u8x8_d_st75256.c ****   
 437:..\..\..\u8g2\u8g2\csrc/u8x8_d_st75256.c ****   U8X8_C( 0x030 ),				/* select 00 commands */
 438:..\..\..\u8g2\u8g2\csrc/u8x8_d_st75256.c ****   U8X8_CAA(0x75, 0, 0x4f),		/* row range */
 439:..\..\..\u8g2\u8g2\csrc/u8x8_d_st75256.c ****   U8X8_CAA(0x15, 0, 255),		/* col range */
 440:..\..\..\u8g2\u8g2\csrc/u8x8_d_st75256.c ****   
 441:..\..\..\u8g2\u8g2\csrc/u8x8_d_st75256.c ****   //U8X8_C( 0x030 ),				/* select 00 commands */
 442:..\..\..\u8g2\u8g2\csrc/u8x8_d_st75256.c ****   U8X8_CA( 0xbc, 0x01 ),			/* data scan dir */
 443:..\..\..\u8g2\u8g2\csrc/u8x8_d_st75256.c ****   U8X8_A( 0xa6 ),				/* ??? */
 444:..\..\..\u8g2\u8g2\csrc/u8x8_d_st75256.c **** 
 445:..\..\..\u8g2\u8g2\csrc/u8x8_d_st75256.c ****   //U8X8_C( 0x030 ),				/* select 00 commands */
 446:..\..\..\u8g2\u8g2\csrc/u8x8_d_st75256.c ****   U8X8_C( 0x008 ),				/* data format LSB top */
 447:..\..\..\u8g2\u8g2\csrc/u8x8_d_st75256.c **** 
 448:..\..\..\u8g2\u8g2\csrc/u8x8_d_st75256.c ****   //U8X8_C( 0x030 ),				/* select 00 commands */ 
 449:..\..\..\u8g2\u8g2\csrc/u8x8_d_st75256.c ****   U8X8_C( 0xca ),				/* display control, 3 args follow  */
 450:..\..\..\u8g2\u8g2\csrc/u8x8_d_st75256.c ****   U8X8_A( 0x00 ),				/* 0x00: no clock division, 0x04: devide clock */
 451:..\..\..\u8g2\u8g2\csrc/u8x8_d_st75256.c ****   U8X8_A( 0x7f ),				/* 1/160 duty value from the DS example code */
 452:..\..\..\u8g2\u8g2\csrc/u8x8_d_st75256.c ****   U8X8_A( 0x20 ),				/* nline off */ 
 453:..\..\..\u8g2\u8g2\csrc/u8x8_d_st75256.c **** 
 454:..\..\..\u8g2\u8g2\csrc/u8x8_d_st75256.c ****   //U8X8_C( 0x030 ),				/* select 00 commands */ 
 455:..\..\..\u8g2\u8g2\csrc/u8x8_d_st75256.c ****   U8X8_CA( 0x0f0, 0x010 ),		/* monochrome mode  = 0x010*/
 456:..\..\..\u8g2\u8g2\csrc/u8x8_d_st75256.c **** 
ARM GAS  C:\Users\jesse\AppData\Local\Temp\cc6zNusR.s 			page 15


 457:..\..\..\u8g2\u8g2\csrc/u8x8_d_st75256.c ****   //U8X8_C( 0x030 ),				/* select 00 commands */
 458:..\..\..\u8g2\u8g2\csrc/u8x8_d_st75256.c ****   U8X8_CAA( 0x81, 0x36, 0x05 ),	/* Volume control */
 459:..\..\..\u8g2\u8g2\csrc/u8x8_d_st75256.c **** 
 460:..\..\..\u8g2\u8g2\csrc/u8x8_d_st75256.c ****   //U8X8_C( 0x030 ),				/* select 00 commands */
 461:..\..\..\u8g2\u8g2\csrc/u8x8_d_st75256.c ****   U8X8_CA( 0x020, 0x00b ),		/* Power control: Regulator, follower & booster on */
 462:..\..\..\u8g2\u8g2\csrc/u8x8_d_st75256.c ****   U8X8_DLY(100),
 463:..\..\..\u8g2\u8g2\csrc/u8x8_d_st75256.c **** 
 464:..\..\..\u8g2\u8g2\csrc/u8x8_d_st75256.c ****   U8X8_END_TRANSFER(),             	/* disable chip */
 465:..\..\..\u8g2\u8g2\csrc/u8x8_d_st75256.c ****   U8X8_END()             			/* end of sequence */
 466:..\..\..\u8g2\u8g2\csrc/u8x8_d_st75256.c **** };
 467:..\..\..\u8g2\u8g2\csrc/u8x8_d_st75256.c **** 
 468:..\..\..\u8g2\u8g2\csrc/u8x8_d_st75256.c **** 
 469:..\..\..\u8g2\u8g2\csrc/u8x8_d_st75256.c **** uint8_t u8x8_d_st75256_wo256x128(u8x8_t *u8x8, uint8_t msg, uint8_t arg_int, void *arg_ptr)
 470:..\..\..\u8g2\u8g2\csrc/u8x8_d_st75256.c **** {
 316              		.loc 1 470 0
 317              		.cfi_startproc
 318              		@ args = 0, pretend = 0, frame = 0
 319              		@ frame_needed = 0, uses_anonymous_args = 0
 320              	.LVL43:
 321 0000 70B5     		push	{r4, r5, r6, lr}
 322              		.cfi_def_cfa_offset 16
 323              		.cfi_offset 4, -16
 324              		.cfi_offset 5, -12
 325              		.cfi_offset 6, -8
 326              		.cfi_offset 14, -4
 327              		.loc 1 470 0
 328 0002 0446     		mov	r4, r0
 329 0004 0D46     		mov	r5, r1
 330 0006 1646     		mov	r6, r2
 471:..\..\..\u8g2\u8g2\csrc/u8x8_d_st75256.c ****   if ( u8x8_d_st75256_256x128_generic(u8x8, msg, arg_int, arg_ptr) != 0 )
 331              		.loc 1 471 0
 332 0008 FFF7FEFF 		bl	u8x8_d_st75256_256x128_generic
 333              	.LVL44:
 334 000c 10BB     		cbnz	r0, .L32
 472:..\..\..\u8g2\u8g2\csrc/u8x8_d_st75256.c ****     return 1;
 473:..\..\..\u8g2\u8g2\csrc/u8x8_d_st75256.c ****   if ( msg == U8X8_MSG_DISPLAY_SETUP_MEMORY )
 335              		.loc 1 473 0
 336 000e 092D     		cmp	r5, #9
 337 0010 04D1     		bne	.L29
 474:..\..\..\u8g2\u8g2\csrc/u8x8_d_st75256.c ****   {
 475:..\..\..\u8g2\u8g2\csrc/u8x8_d_st75256.c ****     //u8x8_SetI2CAddress(u8x8, 0x078);		/* lowest I2C adr of the ST75256 */
 476:..\..\..\u8g2\u8g2\csrc/u8x8_d_st75256.c ****     u8x8_d_helper_display_setup_memory(u8x8, &u8x8_st75256_wo256x128_display_info);
 338              		.loc 1 476 0
 339 0012 1149     		ldr	r1, .L34
 340 0014 2046     		mov	r0, r4
 341 0016 FFF7FEFF 		bl	u8x8_d_helper_display_setup_memory
 342              	.LVL45:
 343 001a 1BE0     		b	.L32
 344              	.L29:
 477:..\..\..\u8g2\u8g2\csrc/u8x8_d_st75256.c ****     return 1;
 478:..\..\..\u8g2\u8g2\csrc/u8x8_d_st75256.c ****   }
 479:..\..\..\u8g2\u8g2\csrc/u8x8_d_st75256.c ****   else if ( msg == U8X8_MSG_DISPLAY_INIT )
 345              		.loc 1 479 0
 346 001c 0A2D     		cmp	r5, #10
 347 001e 07D1     		bne	.L30
 480:..\..\..\u8g2\u8g2\csrc/u8x8_d_st75256.c ****   {
 481:..\..\..\u8g2\u8g2\csrc/u8x8_d_st75256.c ****     u8x8_d_helper_display_init(u8x8);
ARM GAS  C:\Users\jesse\AppData\Local\Temp\cc6zNusR.s 			page 16


 348              		.loc 1 481 0
 349 0020 2046     		mov	r0, r4
 350 0022 FFF7FEFF 		bl	u8x8_d_helper_display_init
 351              	.LVL46:
 482:..\..\..\u8g2\u8g2\csrc/u8x8_d_st75256.c ****     u8x8_cad_SendSequence(u8x8, u8x8_d_st75256_wo256x128_init_seq);    
 352              		.loc 1 482 0
 353 0026 0D49     		ldr	r1, .L34+4
 354 0028 2046     		mov	r0, r4
 355 002a FFF7FEFF 		bl	u8x8_cad_SendSequence
 356              	.LVL47:
 357 002e 11E0     		b	.L32
 358              	.L30:
 483:..\..\..\u8g2\u8g2\csrc/u8x8_d_st75256.c ****     return 1;
 484:..\..\..\u8g2\u8g2\csrc/u8x8_d_st75256.c ****   }
 485:..\..\..\u8g2\u8g2\csrc/u8x8_d_st75256.c ****   else if  ( msg == U8X8_MSG_DISPLAY_SET_FLIP_MODE )
 359              		.loc 1 485 0
 360 0030 0D2D     		cmp	r5, #13
 361 0032 10D1     		bne	.L28
 486:..\..\..\u8g2\u8g2\csrc/u8x8_d_st75256.c ****   {
 487:..\..\..\u8g2\u8g2\csrc/u8x8_d_st75256.c ****     if ( arg_int == 0 )
 362              		.loc 1 487 0
 363 0034 36B9     		cbnz	r6, .L31
 488:..\..\..\u8g2\u8g2\csrc/u8x8_d_st75256.c ****     {
 489:..\..\..\u8g2\u8g2\csrc/u8x8_d_st75256.c ****       u8x8_cad_SendSequence(u8x8, u8x8_d_st75256_jlx172104_flip1_seq);	// this matches the init seq
 364              		.loc 1 489 0
 365 0036 0A49     		ldr	r1, .L34+8
 366 0038 2046     		mov	r0, r4
 367 003a FFF7FEFF 		bl	u8x8_cad_SendSequence
 368              	.LVL48:
 490:..\..\..\u8g2\u8g2\csrc/u8x8_d_st75256.c ****       u8x8->x_offset = u8x8->display_info->default_x_offset;
 369              		.loc 1 490 0
 370 003e 2368     		ldr	r3, [r4]
 371 0040 9B7C     		ldrb	r3, [r3, #18]	@ zero_extendqisi2
 372 0042 05E0     		b	.L33
 373              	.L31:
 491:..\..\..\u8g2\u8g2\csrc/u8x8_d_st75256.c ****     }
 492:..\..\..\u8g2\u8g2\csrc/u8x8_d_st75256.c ****     else
 493:..\..\..\u8g2\u8g2\csrc/u8x8_d_st75256.c ****     {
 494:..\..\..\u8g2\u8g2\csrc/u8x8_d_st75256.c ****       u8x8_cad_SendSequence(u8x8, u8x8_d_st75256_jlx172104_flip0_seq);
 374              		.loc 1 494 0
 375 0044 0749     		ldr	r1, .L34+12
 376 0046 2046     		mov	r0, r4
 377 0048 FFF7FEFF 		bl	u8x8_cad_SendSequence
 378              	.LVL49:
 495:..\..\..\u8g2\u8g2\csrc/u8x8_d_st75256.c ****       u8x8->x_offset = u8x8->display_info->flipmode_x_offset;
 379              		.loc 1 495 0
 380 004c 2368     		ldr	r3, [r4]
 381 004e DB7C     		ldrb	r3, [r3, #19]	@ zero_extendqisi2
 382              	.L33:
 383 0050 84F82230 		strb	r3, [r4, #34]
 384              	.L32:
 472:..\..\..\u8g2\u8g2\csrc/u8x8_d_st75256.c ****   if ( msg == U8X8_MSG_DISPLAY_SETUP_MEMORY )
 385              		.loc 1 472 0
 386 0054 0120     		movs	r0, #1
 387              	.L28:
 496:..\..\..\u8g2\u8g2\csrc/u8x8_d_st75256.c ****     }
 497:..\..\..\u8g2\u8g2\csrc/u8x8_d_st75256.c ****     return 1;
ARM GAS  C:\Users\jesse\AppData\Local\Temp\cc6zNusR.s 			page 17


 498:..\..\..\u8g2\u8g2\csrc/u8x8_d_st75256.c ****   }
 499:..\..\..\u8g2\u8g2\csrc/u8x8_d_st75256.c ****   return 0;
 500:..\..\..\u8g2\u8g2\csrc/u8x8_d_st75256.c **** }
 388              		.loc 1 500 0
 389 0056 70BD     		pop	{r4, r5, r6, pc}
 390              	.LVL50:
 391              	.L35:
 392              		.align	2
 393              	.L34:
 394 0058 B0000000 		.word	.LANCHOR0+176
 395 005c C8000000 		.word	.LANCHOR0+200
 396 0060 31010000 		.word	.LANCHOR0+305
 397 0064 3E010000 		.word	.LANCHOR0+318
 398              		.cfi_endproc
 399              	.LFE2:
 400              		.size	u8x8_d_st75256_wo256x128, .-u8x8_d_st75256_wo256x128
 401              		.section	.text.u8x8_d_st75256_jlx25664,"ax",%progbits
 402              		.align	1
 403              		.global	u8x8_d_st75256_jlx25664
 404              		.thumb
 405              		.thumb_func
 406              		.type	u8x8_d_st75256_jlx25664, %function
 407              	u8x8_d_st75256_jlx25664:
 408              	.LFB3:
 501:..\..\..\u8g2\u8g2\csrc/u8x8_d_st75256.c **** 
 502:..\..\..\u8g2\u8g2\csrc/u8x8_d_st75256.c **** 
 503:..\..\..\u8g2\u8g2\csrc/u8x8_d_st75256.c **** /*=============================================*/
 504:..\..\..\u8g2\u8g2\csrc/u8x8_d_st75256.c **** /* JLX25664 */
 505:..\..\..\u8g2\u8g2\csrc/u8x8_d_st75256.c **** 
 506:..\..\..\u8g2\u8g2\csrc/u8x8_d_st75256.c **** static const u8x8_display_info_t u8x8_st75256_256x64_display_info =
 507:..\..\..\u8g2\u8g2\csrc/u8x8_d_st75256.c **** {
 508:..\..\..\u8g2\u8g2\csrc/u8x8_d_st75256.c ****   /* chip_enable_level = */ 0,
 509:..\..\..\u8g2\u8g2\csrc/u8x8_d_st75256.c ****   /* chip_disable_level = */ 1,
 510:..\..\..\u8g2\u8g2\csrc/u8x8_d_st75256.c ****   
 511:..\..\..\u8g2\u8g2\csrc/u8x8_d_st75256.c ****   /* post_chip_enable_wait_ns = */ 20,
 512:..\..\..\u8g2\u8g2\csrc/u8x8_d_st75256.c ****   /* pre_chip_disable_wait_ns = */ 20,
 513:..\..\..\u8g2\u8g2\csrc/u8x8_d_st75256.c ****   /* reset_pulse_width_ms = */ 5, 	
 514:..\..\..\u8g2\u8g2\csrc/u8x8_d_st75256.c ****   /* post_reset_wait_ms = */ 5, 		/**/
 515:..\..\..\u8g2\u8g2\csrc/u8x8_d_st75256.c ****   /* sda_setup_time_ns = */ 20,		/* */
 516:..\..\..\u8g2\u8g2\csrc/u8x8_d_st75256.c ****   /* sck_pulse_width_ns = */ 40,	/*  */
 517:..\..\..\u8g2\u8g2\csrc/u8x8_d_st75256.c ****   /* sck_clock_hz = */ 4000000UL,	/* since Arduino 1.6.0, the SPI bus speed in Hz. Should be  10000
 518:..\..\..\u8g2\u8g2\csrc/u8x8_d_st75256.c ****   /* spi_mode = */ 0,		/* active high, rising edge */
 519:..\..\..\u8g2\u8g2\csrc/u8x8_d_st75256.c ****   /* i2c_bus_clock_100kHz = */ 4,	/* 400KHz */
 520:..\..\..\u8g2\u8g2\csrc/u8x8_d_st75256.c ****   /* data_setup_time_ns = */ 15,
 521:..\..\..\u8g2\u8g2\csrc/u8x8_d_st75256.c ****   /* write_pulse_width_ns = */ 70,	
 522:..\..\..\u8g2\u8g2\csrc/u8x8_d_st75256.c ****   /* tile_width = */ 32,
 523:..\..\..\u8g2\u8g2\csrc/u8x8_d_st75256.c ****   /* tile_hight = */ 8,
 524:..\..\..\u8g2\u8g2\csrc/u8x8_d_st75256.c ****   /* default_x_offset = */ 0,	/* must be 0, because this is checked also for normal mode */
 525:..\..\..\u8g2\u8g2\csrc/u8x8_d_st75256.c ****   /* flipmode_x_offset = */ 13,		/* used as y offset */
 526:..\..\..\u8g2\u8g2\csrc/u8x8_d_st75256.c ****   /* pixel_width = */ 256,
 527:..\..\..\u8g2\u8g2\csrc/u8x8_d_st75256.c ****   /* pixel_height = */ 64
 528:..\..\..\u8g2\u8g2\csrc/u8x8_d_st75256.c **** };
 529:..\..\..\u8g2\u8g2\csrc/u8x8_d_st75256.c **** 
 530:..\..\..\u8g2\u8g2\csrc/u8x8_d_st75256.c **** 
 531:..\..\..\u8g2\u8g2\csrc/u8x8_d_st75256.c **** static const uint8_t u8x8_d_st75256_256x64_init_seq[] = {
 532:..\..\..\u8g2\u8g2\csrc/u8x8_d_st75256.c ****   U8X8_START_TRANSFER(),             	/* enable chip, delay is part of the transfer start */
 533:..\..\..\u8g2\u8g2\csrc/u8x8_d_st75256.c ****   
ARM GAS  C:\Users\jesse\AppData\Local\Temp\cc6zNusR.s 			page 18


 534:..\..\..\u8g2\u8g2\csrc/u8x8_d_st75256.c ****   U8X8_DLY(20),
 535:..\..\..\u8g2\u8g2\csrc/u8x8_d_st75256.c **** 
 536:..\..\..\u8g2\u8g2\csrc/u8x8_d_st75256.c ****   U8X8_C( 0x030 ),				/* select 00 commands */
 537:..\..\..\u8g2\u8g2\csrc/u8x8_d_st75256.c ****   U8X8_C( 0x094 ),				/* sleep out */
 538:..\..\..\u8g2\u8g2\csrc/u8x8_d_st75256.c **** 
 539:..\..\..\u8g2\u8g2\csrc/u8x8_d_st75256.c ****   //U8X8_C( 0x030 ),				/* select 00 commands */
 540:..\..\..\u8g2\u8g2\csrc/u8x8_d_st75256.c ****   U8X8_C( 0x0ae ),				/* display off */
 541:..\..\..\u8g2\u8g2\csrc/u8x8_d_st75256.c **** 
 542:..\..\..\u8g2\u8g2\csrc/u8x8_d_st75256.c ****   U8X8_C( 0x031 ),				/* select 01 commands */
 543:..\..\..\u8g2\u8g2\csrc/u8x8_d_st75256.c ****   U8X8_CA( 0x0d7, 0x09f ),		/* disable auto read */  
 544:..\..\..\u8g2\u8g2\csrc/u8x8_d_st75256.c **** 
 545:..\..\..\u8g2\u8g2\csrc/u8x8_d_st75256.c ****   //U8X8_C( 0x031 ),				/* select 01 commands */
 546:..\..\..\u8g2\u8g2\csrc/u8x8_d_st75256.c ****   U8X8_C( 0x032 ),				/* analog circuit set */
 547:..\..\..\u8g2\u8g2\csrc/u8x8_d_st75256.c ****   U8X8_A( 0x000 ),				/* code example: OSC Frequency adjustment */
 548:..\..\..\u8g2\u8g2\csrc/u8x8_d_st75256.c ****   U8X8_A( 0x001 ),				/* Frequency on booster capacitors 1 = 6KHz? */
 549:..\..\..\u8g2\u8g2\csrc/u8x8_d_st75256.c ****   U8X8_A( 0x005 ),				/* Bias: 1: 1/13, 2: 1/12, 3: 1/11, 4:1/10, 5:1/9 */
 550:..\..\..\u8g2\u8g2\csrc/u8x8_d_st75256.c ****     
 551:..\..\..\u8g2\u8g2\csrc/u8x8_d_st75256.c ****   //U8X8_C( 0x031 ),				/* select 01 commands */
 552:..\..\..\u8g2\u8g2\csrc/u8x8_d_st75256.c ****   U8X8_C( 0x020 ),				/* gray levels */
 553:..\..\..\u8g2\u8g2\csrc/u8x8_d_st75256.c ****   U8X8_A( 0x01 ),
 554:..\..\..\u8g2\u8g2\csrc/u8x8_d_st75256.c ****   U8X8_A( 0x03 ),
 555:..\..\..\u8g2\u8g2\csrc/u8x8_d_st75256.c ****   U8X8_A( 0x05 ),
 556:..\..\..\u8g2\u8g2\csrc/u8x8_d_st75256.c ****   U8X8_A( 0x07 ),
 557:..\..\..\u8g2\u8g2\csrc/u8x8_d_st75256.c ****   U8X8_A( 0x09),
 558:..\..\..\u8g2\u8g2\csrc/u8x8_d_st75256.c ****   U8X8_A( 0x0b ),
 559:..\..\..\u8g2\u8g2\csrc/u8x8_d_st75256.c ****   U8X8_A( 0x0d ),
 560:..\..\..\u8g2\u8g2\csrc/u8x8_d_st75256.c ****   U8X8_A( 0x10 ),
 561:..\..\..\u8g2\u8g2\csrc/u8x8_d_st75256.c ****   U8X8_A( 0x11 ),
 562:..\..\..\u8g2\u8g2\csrc/u8x8_d_st75256.c ****   U8X8_A( 0x13 ),
 563:..\..\..\u8g2\u8g2\csrc/u8x8_d_st75256.c ****   U8X8_A( 0x15 ),
 564:..\..\..\u8g2\u8g2\csrc/u8x8_d_st75256.c ****   U8X8_A( 0x17 ),
 565:..\..\..\u8g2\u8g2\csrc/u8x8_d_st75256.c ****   U8X8_A( 0x19 ),
 566:..\..\..\u8g2\u8g2\csrc/u8x8_d_st75256.c ****   U8X8_A( 0x1b ),
 567:..\..\..\u8g2\u8g2\csrc/u8x8_d_st75256.c ****   U8X8_A( 0x1d ),
 568:..\..\..\u8g2\u8g2\csrc/u8x8_d_st75256.c ****   U8X8_A( 0x1f ),
 569:..\..\..\u8g2\u8g2\csrc/u8x8_d_st75256.c ****  
 570:..\..\..\u8g2\u8g2\csrc/u8x8_d_st75256.c ****   
 571:..\..\..\u8g2\u8g2\csrc/u8x8_d_st75256.c ****   U8X8_C( 0x030 ),				/* select 00 commands */
 572:..\..\..\u8g2\u8g2\csrc/u8x8_d_st75256.c ****   U8X8_CAA(0x75, 0, 0x1f),		/* row range */
 573:..\..\..\u8g2\u8g2\csrc/u8x8_d_st75256.c ****   U8X8_CAA(0x15, 0, 255),		/* col range */
 574:..\..\..\u8g2\u8g2\csrc/u8x8_d_st75256.c ****   
 575:..\..\..\u8g2\u8g2\csrc/u8x8_d_st75256.c ****   //U8X8_C( 0x030 ),				/* select 00 commands */
 576:..\..\..\u8g2\u8g2\csrc/u8x8_d_st75256.c ****   U8X8_CA( 0xbc, 0x00 ),			/* data scan dir */
 577:..\..\..\u8g2\u8g2\csrc/u8x8_d_st75256.c ****   U8X8_A( 0xa6 ),				/* ??? */
 578:..\..\..\u8g2\u8g2\csrc/u8x8_d_st75256.c **** 
 579:..\..\..\u8g2\u8g2\csrc/u8x8_d_st75256.c ****   //U8X8_C( 0x030 ),				/* select 00 commands */
 580:..\..\..\u8g2\u8g2\csrc/u8x8_d_st75256.c ****   U8X8_C( 0x00c ),				/* data format LSB top */
 581:..\..\..\u8g2\u8g2\csrc/u8x8_d_st75256.c **** 
 582:..\..\..\u8g2\u8g2\csrc/u8x8_d_st75256.c ****   //U8X8_C( 0x030 ),				/* select 00 commands */ 
 583:..\..\..\u8g2\u8g2\csrc/u8x8_d_st75256.c ****   U8X8_C( 0xca ),				/* display control, 3 args follow  */
 584:..\..\..\u8g2\u8g2\csrc/u8x8_d_st75256.c ****   U8X8_A( 0x00 ),				/* 0x00: no clock division, 0x04: devide clock */
 585:..\..\..\u8g2\u8g2\csrc/u8x8_d_st75256.c ****   U8X8_A( 0x3f ),				/* 64 duty value from the DS example code */
 586:..\..\..\u8g2\u8g2\csrc/u8x8_d_st75256.c ****   U8X8_A( 0x20 ),				/* nline off */ 
 587:..\..\..\u8g2\u8g2\csrc/u8x8_d_st75256.c **** 
 588:..\..\..\u8g2\u8g2\csrc/u8x8_d_st75256.c ****   //U8X8_C( 0x030 ),				/* select 00 commands */ 
 589:..\..\..\u8g2\u8g2\csrc/u8x8_d_st75256.c ****   U8X8_CA( 0x0f0, 0x010 ),		/* monochrome mode  = 0x010*/
 590:..\..\..\u8g2\u8g2\csrc/u8x8_d_st75256.c **** 
ARM GAS  C:\Users\jesse\AppData\Local\Temp\cc6zNusR.s 			page 19


 591:..\..\..\u8g2\u8g2\csrc/u8x8_d_st75256.c ****   //U8X8_C( 0x030 ),				/* select 00 commands */
 592:..\..\..\u8g2\u8g2\csrc/u8x8_d_st75256.c ****   U8X8_CAA( 0x81, 012, 0x02 ),	/* Volume control */
 593:..\..\..\u8g2\u8g2\csrc/u8x8_d_st75256.c **** 
 594:..\..\..\u8g2\u8g2\csrc/u8x8_d_st75256.c ****   //U8X8_C( 0x030 ),				/* select 00 commands */
 595:..\..\..\u8g2\u8g2\csrc/u8x8_d_st75256.c ****   U8X8_CA( 0x020, 0x00b ),		/* Power control: Regulator, follower & booster on */
 596:..\..\..\u8g2\u8g2\csrc/u8x8_d_st75256.c ****   U8X8_DLY(100),
 597:..\..\..\u8g2\u8g2\csrc/u8x8_d_st75256.c **** 
 598:..\..\..\u8g2\u8g2\csrc/u8x8_d_st75256.c ****   U8X8_END_TRANSFER(),             	/* disable chip */
 599:..\..\..\u8g2\u8g2\csrc/u8x8_d_st75256.c ****   U8X8_END()             			/* end of sequence */
 600:..\..\..\u8g2\u8g2\csrc/u8x8_d_st75256.c **** };
 601:..\..\..\u8g2\u8g2\csrc/u8x8_d_st75256.c **** 
 602:..\..\..\u8g2\u8g2\csrc/u8x8_d_st75256.c **** 
 603:..\..\..\u8g2\u8g2\csrc/u8x8_d_st75256.c **** uint8_t u8x8_d_st75256_jlx25664(u8x8_t *u8x8, uint8_t msg, uint8_t arg_int, void *arg_ptr)
 604:..\..\..\u8g2\u8g2\csrc/u8x8_d_st75256.c **** {
 409              		.loc 1 604 0
 410              		.cfi_startproc
 411              		@ args = 0, pretend = 0, frame = 0
 412              		@ frame_needed = 0, uses_anonymous_args = 0
 413              	.LVL51:
 414 0000 70B5     		push	{r4, r5, r6, lr}
 415              		.cfi_def_cfa_offset 16
 416              		.cfi_offset 4, -16
 417              		.cfi_offset 5, -12
 418              		.cfi_offset 6, -8
 419              		.cfi_offset 14, -4
 420              		.loc 1 604 0
 421 0002 0446     		mov	r4, r0
 422 0004 0D46     		mov	r5, r1
 423 0006 1646     		mov	r6, r2
 605:..\..\..\u8g2\u8g2\csrc/u8x8_d_st75256.c ****   if ( u8x8_d_st75256_256x128_generic(u8x8, msg, arg_int, arg_ptr) != 0 )
 424              		.loc 1 605 0
 425 0008 FFF7FEFF 		bl	u8x8_d_st75256_256x128_generic
 426              	.LVL52:
 427 000c 10BB     		cbnz	r0, .L41
 606:..\..\..\u8g2\u8g2\csrc/u8x8_d_st75256.c ****     return 1;
 607:..\..\..\u8g2\u8g2\csrc/u8x8_d_st75256.c ****   if ( msg == U8X8_MSG_DISPLAY_SETUP_MEMORY )
 428              		.loc 1 607 0
 429 000e 092D     		cmp	r5, #9
 430 0010 04D1     		bne	.L38
 608:..\..\..\u8g2\u8g2\csrc/u8x8_d_st75256.c ****   {
 609:..\..\..\u8g2\u8g2\csrc/u8x8_d_st75256.c ****     //u8x8_SetI2CAddress(u8x8, 0x078);		/* lowest I2C adr of the ST75256 */
 610:..\..\..\u8g2\u8g2\csrc/u8x8_d_st75256.c ****     u8x8_d_helper_display_setup_memory(u8x8, &u8x8_st75256_256x64_display_info);
 431              		.loc 1 610 0
 432 0012 1149     		ldr	r1, .L43
 433 0014 2046     		mov	r0, r4
 434 0016 FFF7FEFF 		bl	u8x8_d_helper_display_setup_memory
 435              	.LVL53:
 436 001a 1BE0     		b	.L41
 437              	.L38:
 611:..\..\..\u8g2\u8g2\csrc/u8x8_d_st75256.c ****     return 1;
 612:..\..\..\u8g2\u8g2\csrc/u8x8_d_st75256.c ****   }
 613:..\..\..\u8g2\u8g2\csrc/u8x8_d_st75256.c ****   else if ( msg == U8X8_MSG_DISPLAY_INIT )
 438              		.loc 1 613 0
 439 001c 0A2D     		cmp	r5, #10
 440 001e 07D1     		bne	.L39
 614:..\..\..\u8g2\u8g2\csrc/u8x8_d_st75256.c ****   {
 615:..\..\..\u8g2\u8g2\csrc/u8x8_d_st75256.c ****     u8x8_d_helper_display_init(u8x8);
ARM GAS  C:\Users\jesse\AppData\Local\Temp\cc6zNusR.s 			page 20


 441              		.loc 1 615 0
 442 0020 2046     		mov	r0, r4
 443 0022 FFF7FEFF 		bl	u8x8_d_helper_display_init
 444              	.LVL54:
 616:..\..\..\u8g2\u8g2\csrc/u8x8_d_st75256.c ****     u8x8_cad_SendSequence(u8x8, u8x8_d_st75256_256x64_init_seq);    
 445              		.loc 1 616 0
 446 0026 0D49     		ldr	r1, .L43+4
 447 0028 2046     		mov	r0, r4
 448 002a FFF7FEFF 		bl	u8x8_cad_SendSequence
 449              	.LVL55:
 450 002e 11E0     		b	.L41
 451              	.L39:
 617:..\..\..\u8g2\u8g2\csrc/u8x8_d_st75256.c ****     return 1;
 618:..\..\..\u8g2\u8g2\csrc/u8x8_d_st75256.c ****   }
 619:..\..\..\u8g2\u8g2\csrc/u8x8_d_st75256.c ****   else if  ( msg == U8X8_MSG_DISPLAY_SET_FLIP_MODE )
 452              		.loc 1 619 0
 453 0030 0D2D     		cmp	r5, #13
 454 0032 10D1     		bne	.L37
 620:..\..\..\u8g2\u8g2\csrc/u8x8_d_st75256.c ****   {
 621:..\..\..\u8g2\u8g2\csrc/u8x8_d_st75256.c ****     if ( arg_int == 0 )
 455              		.loc 1 621 0
 456 0034 36B9     		cbnz	r6, .L40
 622:..\..\..\u8g2\u8g2\csrc/u8x8_d_st75256.c ****     {
 623:..\..\..\u8g2\u8g2\csrc/u8x8_d_st75256.c ****       u8x8_cad_SendSequence(u8x8, u8x8_d_st75256_jlx256128_flip0_seq);
 457              		.loc 1 623 0
 458 0036 0A49     		ldr	r1, .L43+8
 459 0038 2046     		mov	r0, r4
 460 003a FFF7FEFF 		bl	u8x8_cad_SendSequence
 461              	.LVL56:
 624:..\..\..\u8g2\u8g2\csrc/u8x8_d_st75256.c ****       u8x8->x_offset = u8x8->display_info->default_x_offset;
 462              		.loc 1 624 0
 463 003e 2368     		ldr	r3, [r4]
 464 0040 9B7C     		ldrb	r3, [r3, #18]	@ zero_extendqisi2
 465 0042 05E0     		b	.L42
 466              	.L40:
 625:..\..\..\u8g2\u8g2\csrc/u8x8_d_st75256.c ****     }
 626:..\..\..\u8g2\u8g2\csrc/u8x8_d_st75256.c ****     else
 627:..\..\..\u8g2\u8g2\csrc/u8x8_d_st75256.c ****     {
 628:..\..\..\u8g2\u8g2\csrc/u8x8_d_st75256.c ****       u8x8_cad_SendSequence(u8x8, u8x8_d_st75256_jlx256128_flip1_seq);
 467              		.loc 1 628 0
 468 0044 0749     		ldr	r1, .L43+12
 469 0046 2046     		mov	r0, r4
 470 0048 FFF7FEFF 		bl	u8x8_cad_SendSequence
 471              	.LVL57:
 629:..\..\..\u8g2\u8g2\csrc/u8x8_d_st75256.c ****       u8x8->x_offset = u8x8->display_info->flipmode_x_offset;
 472              		.loc 1 629 0
 473 004c 2368     		ldr	r3, [r4]
 474 004e DB7C     		ldrb	r3, [r3, #19]	@ zero_extendqisi2
 475              	.L42:
 476 0050 84F82230 		strb	r3, [r4, #34]
 477              	.L41:
 606:..\..\..\u8g2\u8g2\csrc/u8x8_d_st75256.c ****   if ( msg == U8X8_MSG_DISPLAY_SETUP_MEMORY )
 478              		.loc 1 606 0
 479 0054 0120     		movs	r0, #1
 480              	.L37:
 630:..\..\..\u8g2\u8g2\csrc/u8x8_d_st75256.c ****     }
 631:..\..\..\u8g2\u8g2\csrc/u8x8_d_st75256.c ****     return 1;
ARM GAS  C:\Users\jesse\AppData\Local\Temp\cc6zNusR.s 			page 21


 632:..\..\..\u8g2\u8g2\csrc/u8x8_d_st75256.c ****   }
 633:..\..\..\u8g2\u8g2\csrc/u8x8_d_st75256.c ****   return 0;
 634:..\..\..\u8g2\u8g2\csrc/u8x8_d_st75256.c **** }
 481              		.loc 1 634 0
 482 0056 70BD     		pop	{r4, r5, r6, pc}
 483              	.LVL58:
 484              	.L44:
 485              		.align	2
 486              	.L43:
 487 0058 4C010000 		.word	.LANCHOR0+332
 488 005c 64010000 		.word	.LANCHOR0+356
 489 0060 95000000 		.word	.LANCHOR0+149
 490 0064 A2000000 		.word	.LANCHOR0+162
 491              		.cfi_endproc
 492              	.LFE3:
 493              		.size	u8x8_d_st75256_jlx25664, .-u8x8_d_st75256_jlx25664
 494              		.section	.text.u8x8_d_st75256_jlx172104,"ax",%progbits
 495              		.align	1
 496              		.global	u8x8_d_st75256_jlx172104
 497              		.thumb
 498              		.thumb_func
 499              		.type	u8x8_d_st75256_jlx172104, %function
 500              	u8x8_d_st75256_jlx172104:
 501              	.LFB4:
 635:..\..\..\u8g2\u8g2\csrc/u8x8_d_st75256.c **** 
 636:..\..\..\u8g2\u8g2\csrc/u8x8_d_st75256.c **** 
 637:..\..\..\u8g2\u8g2\csrc/u8x8_d_st75256.c **** /*=============================================*/
 638:..\..\..\u8g2\u8g2\csrc/u8x8_d_st75256.c **** /* JLX172104 LCD */
 639:..\..\..\u8g2\u8g2\csrc/u8x8_d_st75256.c **** 
 640:..\..\..\u8g2\u8g2\csrc/u8x8_d_st75256.c **** static const u8x8_display_info_t u8x8_st75256_172x104_display_info =
 641:..\..\..\u8g2\u8g2\csrc/u8x8_d_st75256.c **** {
 642:..\..\..\u8g2\u8g2\csrc/u8x8_d_st75256.c ****   /* chip_enable_level = */ 0,
 643:..\..\..\u8g2\u8g2\csrc/u8x8_d_st75256.c ****   /* chip_disable_level = */ 1,
 644:..\..\..\u8g2\u8g2\csrc/u8x8_d_st75256.c ****   
 645:..\..\..\u8g2\u8g2\csrc/u8x8_d_st75256.c ****   /* post_chip_enable_wait_ns = */ 20,
 646:..\..\..\u8g2\u8g2\csrc/u8x8_d_st75256.c ****   /* pre_chip_disable_wait_ns = */ 20,
 647:..\..\..\u8g2\u8g2\csrc/u8x8_d_st75256.c ****   /* reset_pulse_width_ms = */ 5, 	
 648:..\..\..\u8g2\u8g2\csrc/u8x8_d_st75256.c ****   /* post_reset_wait_ms = */ 5, 		/**/
 649:..\..\..\u8g2\u8g2\csrc/u8x8_d_st75256.c ****   /* sda_setup_time_ns = */ 20,		/* */
 650:..\..\..\u8g2\u8g2\csrc/u8x8_d_st75256.c ****   /* sck_pulse_width_ns = */ 40,	/*  */
 651:..\..\..\u8g2\u8g2\csrc/u8x8_d_st75256.c ****   /* sck_clock_hz = */ 4000000UL,	/* since Arduino 1.6.0, the SPI bus speed in Hz. Should be  10000
 652:..\..\..\u8g2\u8g2\csrc/u8x8_d_st75256.c ****   /* spi_mode = */ 0,		/* active high, rising edge */
 653:..\..\..\u8g2\u8g2\csrc/u8x8_d_st75256.c ****   /* i2c_bus_clock_100kHz = */ 4,	/* 400KHz */
 654:..\..\..\u8g2\u8g2\csrc/u8x8_d_st75256.c ****   /* data_setup_time_ns = */ 15,
 655:..\..\..\u8g2\u8g2\csrc/u8x8_d_st75256.c ****   /* write_pulse_width_ns = */ 70,	
 656:..\..\..\u8g2\u8g2\csrc/u8x8_d_st75256.c ****   /* tile_width = */ 22,			/* 22=176 */
 657:..\..\..\u8g2\u8g2\csrc/u8x8_d_st75256.c ****   /* tile_hight = */ 13,
 658:..\..\..\u8g2\u8g2\csrc/u8x8_d_st75256.c ****   /* default_x_offset = */ 84,	/*  */
 659:..\..\..\u8g2\u8g2\csrc/u8x8_d_st75256.c ****   /* flipmode_x_offset = */ 0,		
 660:..\..\..\u8g2\u8g2\csrc/u8x8_d_st75256.c ****   /* pixel_width = */ 172,
 661:..\..\..\u8g2\u8g2\csrc/u8x8_d_st75256.c ****   /* pixel_height = */ 104
 662:..\..\..\u8g2\u8g2\csrc/u8x8_d_st75256.c **** };
 663:..\..\..\u8g2\u8g2\csrc/u8x8_d_st75256.c **** 
 664:..\..\..\u8g2\u8g2\csrc/u8x8_d_st75256.c **** static const uint8_t u8x8_d_st75256_jlx172104_init_seq[] = {
 665:..\..\..\u8g2\u8g2\csrc/u8x8_d_st75256.c ****   U8X8_START_TRANSFER(),             	/* enable chip, delay is part of the transfer start */
 666:..\..\..\u8g2\u8g2\csrc/u8x8_d_st75256.c ****   
 667:..\..\..\u8g2\u8g2\csrc/u8x8_d_st75256.c ****   U8X8_DLY(20),
ARM GAS  C:\Users\jesse\AppData\Local\Temp\cc6zNusR.s 			page 22


 668:..\..\..\u8g2\u8g2\csrc/u8x8_d_st75256.c **** 
 669:..\..\..\u8g2\u8g2\csrc/u8x8_d_st75256.c ****   U8X8_C( 0x030 ),				/* select 00 commands */
 670:..\..\..\u8g2\u8g2\csrc/u8x8_d_st75256.c ****   U8X8_C( 0x094 ),				/* sleep out */
 671:..\..\..\u8g2\u8g2\csrc/u8x8_d_st75256.c **** 
 672:..\..\..\u8g2\u8g2\csrc/u8x8_d_st75256.c ****   //U8X8_C( 0x030 ),				/* select 00 commands */
 673:..\..\..\u8g2\u8g2\csrc/u8x8_d_st75256.c ****   U8X8_C( 0x0ae ),				/* display off */
 674:..\..\..\u8g2\u8g2\csrc/u8x8_d_st75256.c **** 
 675:..\..\..\u8g2\u8g2\csrc/u8x8_d_st75256.c ****   U8X8_C( 0x031 ),				/* select 01 commands */
 676:..\..\..\u8g2\u8g2\csrc/u8x8_d_st75256.c ****   U8X8_CA( 0x0d7, 0x09f ),		/* disable auto read */  
 677:..\..\..\u8g2\u8g2\csrc/u8x8_d_st75256.c **** 
 678:..\..\..\u8g2\u8g2\csrc/u8x8_d_st75256.c ****   //U8X8_C( 0x031 ),				/* select 01 commands */
 679:..\..\..\u8g2\u8g2\csrc/u8x8_d_st75256.c ****   U8X8_C( 0x032 ),				/* analog circuit set */
 680:..\..\..\u8g2\u8g2\csrc/u8x8_d_st75256.c ****   U8X8_A( 0x000 ),				/* code example: OSC Frequency adjustment */
 681:..\..\..\u8g2\u8g2\csrc/u8x8_d_st75256.c ****   U8X8_A( 0x001 ),				/* Frequency on booster capacitors 1 = 6KHz? */
 682:..\..\..\u8g2\u8g2\csrc/u8x8_d_st75256.c ****   U8X8_A( 0x003 ),				/* Bias: 1: 1/13, 2: 1/12, 3: 1/11, 4:1/10, 5:1/9 */
 683:..\..\..\u8g2\u8g2\csrc/u8x8_d_st75256.c ****     
 684:..\..\..\u8g2\u8g2\csrc/u8x8_d_st75256.c ****   //U8X8_C( 0x031 ),				/* select 01 commands */
 685:..\..\..\u8g2\u8g2\csrc/u8x8_d_st75256.c ****   U8X8_C( 0x020 ),				/* gray levels */
 686:..\..\..\u8g2\u8g2\csrc/u8x8_d_st75256.c ****   U8X8_A( 0x01 ),
 687:..\..\..\u8g2\u8g2\csrc/u8x8_d_st75256.c ****   U8X8_A( 0x03 ),
 688:..\..\..\u8g2\u8g2\csrc/u8x8_d_st75256.c ****   U8X8_A( 0x05 ),
 689:..\..\..\u8g2\u8g2\csrc/u8x8_d_st75256.c ****   U8X8_A( 0x07 ),
 690:..\..\..\u8g2\u8g2\csrc/u8x8_d_st75256.c ****   U8X8_A( 0x09),
 691:..\..\..\u8g2\u8g2\csrc/u8x8_d_st75256.c ****   U8X8_A( 0x0b ),
 692:..\..\..\u8g2\u8g2\csrc/u8x8_d_st75256.c ****   U8X8_A( 0x0d ),
 693:..\..\..\u8g2\u8g2\csrc/u8x8_d_st75256.c ****   U8X8_A( 0x10 ),
 694:..\..\..\u8g2\u8g2\csrc/u8x8_d_st75256.c ****   U8X8_A( 0x11 ),
 695:..\..\..\u8g2\u8g2\csrc/u8x8_d_st75256.c ****   U8X8_A( 0x13 ),
 696:..\..\..\u8g2\u8g2\csrc/u8x8_d_st75256.c ****   U8X8_A( 0x15 ),
 697:..\..\..\u8g2\u8g2\csrc/u8x8_d_st75256.c ****   U8X8_A( 0x17 ),
 698:..\..\..\u8g2\u8g2\csrc/u8x8_d_st75256.c ****   U8X8_A( 0x19 ),
 699:..\..\..\u8g2\u8g2\csrc/u8x8_d_st75256.c ****   U8X8_A( 0x1b ),
 700:..\..\..\u8g2\u8g2\csrc/u8x8_d_st75256.c ****   U8X8_A( 0x1d ),
 701:..\..\..\u8g2\u8g2\csrc/u8x8_d_st75256.c ****   U8X8_A( 0x1f ),
 702:..\..\..\u8g2\u8g2\csrc/u8x8_d_st75256.c ****  
 703:..\..\..\u8g2\u8g2\csrc/u8x8_d_st75256.c ****   
 704:..\..\..\u8g2\u8g2\csrc/u8x8_d_st75256.c ****   U8X8_C( 0x030 ),				/* select 00 commands */
 705:..\..\..\u8g2\u8g2\csrc/u8x8_d_st75256.c ****   U8X8_CAA(0x75, 0, 0x4f),		/* row range */
 706:..\..\..\u8g2\u8g2\csrc/u8x8_d_st75256.c ****   U8X8_CAA(0x15, 0, 255),		/* col range */
 707:..\..\..\u8g2\u8g2\csrc/u8x8_d_st75256.c ****   
 708:..\..\..\u8g2\u8g2\csrc/u8x8_d_st75256.c ****   //U8X8_C( 0x030 ),				/* select 00 commands */
 709:..\..\..\u8g2\u8g2\csrc/u8x8_d_st75256.c ****   U8X8_CA( 0xbc, 0x02 ),			/* data scan dir */
 710:..\..\..\u8g2\u8g2\csrc/u8x8_d_st75256.c ****   U8X8_A( 0xa6 ),				/* ??? */
 711:..\..\..\u8g2\u8g2\csrc/u8x8_d_st75256.c **** 
 712:..\..\..\u8g2\u8g2\csrc/u8x8_d_st75256.c ****   //U8X8_C( 0x030 ),				/* select 00 commands */
 713:..\..\..\u8g2\u8g2\csrc/u8x8_d_st75256.c ****   U8X8_C( 0x00c ),				/* data format LSB top */
 714:..\..\..\u8g2\u8g2\csrc/u8x8_d_st75256.c **** 
 715:..\..\..\u8g2\u8g2\csrc/u8x8_d_st75256.c ****   //U8X8_C( 0x030 ),				/* select 00 commands */ 
 716:..\..\..\u8g2\u8g2\csrc/u8x8_d_st75256.c ****   U8X8_C( 0xca ),				/* display control, 3 args follow  */
 717:..\..\..\u8g2\u8g2\csrc/u8x8_d_st75256.c ****   U8X8_A( 0x00 ),				/* 0x00: no clock division, 0x04: devide clock */
 718:..\..\..\u8g2\u8g2\csrc/u8x8_d_st75256.c ****   U8X8_A( 0x9f ),				/* 1/160 duty value from the DS example code */
 719:..\..\..\u8g2\u8g2\csrc/u8x8_d_st75256.c ****   U8X8_A( 0x20 ),				/* nline off */ 
 720:..\..\..\u8g2\u8g2\csrc/u8x8_d_st75256.c **** 
 721:..\..\..\u8g2\u8g2\csrc/u8x8_d_st75256.c ****   //U8X8_C( 0x030 ),				/* select 00 commands */ 
 722:..\..\..\u8g2\u8g2\csrc/u8x8_d_st75256.c ****   U8X8_CA( 0x0f0, 0x010 ),		/* monochrome mode  = 0x010*/
 723:..\..\..\u8g2\u8g2\csrc/u8x8_d_st75256.c **** 
 724:..\..\..\u8g2\u8g2\csrc/u8x8_d_st75256.c ****   //U8X8_C( 0x030 ),				/* select 00 commands */
ARM GAS  C:\Users\jesse\AppData\Local\Temp\cc6zNusR.s 			page 23


 725:..\..\..\u8g2\u8g2\csrc/u8x8_d_st75256.c ****   U8X8_CAA( 0x81, 0x08, 0x04 ),	/* Volume control */
 726:..\..\..\u8g2\u8g2\csrc/u8x8_d_st75256.c **** 
 727:..\..\..\u8g2\u8g2\csrc/u8x8_d_st75256.c ****   //U8X8_C( 0x030 ),				/* select 00 commands */
 728:..\..\..\u8g2\u8g2\csrc/u8x8_d_st75256.c ****   U8X8_CA( 0x020, 0x00b ),		/* Power control: Regulator, follower & booster on */
 729:..\..\..\u8g2\u8g2\csrc/u8x8_d_st75256.c ****   U8X8_DLY(100),
 730:..\..\..\u8g2\u8g2\csrc/u8x8_d_st75256.c **** 
 731:..\..\..\u8g2\u8g2\csrc/u8x8_d_st75256.c ****   U8X8_END_TRANSFER(),             	/* disable chip */
 732:..\..\..\u8g2\u8g2\csrc/u8x8_d_st75256.c ****   U8X8_END()             			/* end of sequence */
 733:..\..\..\u8g2\u8g2\csrc/u8x8_d_st75256.c **** };    
 734:..\..\..\u8g2\u8g2\csrc/u8x8_d_st75256.c **** 
 735:..\..\..\u8g2\u8g2\csrc/u8x8_d_st75256.c **** 
 736:..\..\..\u8g2\u8g2\csrc/u8x8_d_st75256.c **** uint8_t u8x8_d_st75256_jlx172104(u8x8_t *u8x8, uint8_t msg, uint8_t arg_int, void *arg_ptr)
 737:..\..\..\u8g2\u8g2\csrc/u8x8_d_st75256.c **** {
 502              		.loc 1 737 0
 503              		.cfi_startproc
 504              		@ args = 0, pretend = 0, frame = 0
 505              		@ frame_needed = 0, uses_anonymous_args = 0
 506              	.LVL59:
 738:..\..\..\u8g2\u8g2\csrc/u8x8_d_st75256.c ****   uint8_t x, c;
 739:..\..\..\u8g2\u8g2\csrc/u8x8_d_st75256.c ****   uint8_t *ptr;
 740:..\..\..\u8g2\u8g2\csrc/u8x8_d_st75256.c **** 
 741:..\..\..\u8g2\u8g2\csrc/u8x8_d_st75256.c ****   switch(msg)
 507              		.loc 1 741 0
 508 0000 0939     		subs	r1, r1, #9
 509              	.LVL60:
 737:..\..\..\u8g2\u8g2\csrc/u8x8_d_st75256.c ****   uint8_t x, c;
 510              		.loc 1 737 0
 511 0002 2DE9F041 		push	{r4, r5, r6, r7, r8, lr}
 512              		.cfi_def_cfa_offset 24
 513              		.cfi_offset 4, -24
 514              		.cfi_offset 5, -20
 515              		.cfi_offset 6, -16
 516              		.cfi_offset 7, -12
 517              		.cfi_offset 8, -8
 518              		.cfi_offset 14, -4
 737:..\..\..\u8g2\u8g2\csrc/u8x8_d_st75256.c ****   uint8_t x, c;
 519              		.loc 1 737 0
 520 0006 0446     		mov	r4, r0
 521 0008 1646     		mov	r6, r2
 522 000a 1F46     		mov	r7, r3
 523              		.loc 1 741 0
 524 000c 0629     		cmp	r1, #6
 525 000e 00F28480 		bhi	.L60
 526 0012 DFE801F0 		tbb	[pc, r1]
 527              	.LVL61:
 528              	.L48:
 529 0016 49       		.byte	(.L47-.L48)/2
 530 0017 4D       		.byte	(.L49-.L48)/2
 531 0018 51       		.byte	(.L50-.L48)/2
 532 0019 82       		.byte	(.L60-.L48)/2
 533 001a 59       		.byte	(.L51-.L48)/2
 534 001b 68       		.byte	(.L52-.L48)/2
 535 001c 04       		.byte	(.L53-.L48)/2
 536 001d 00       		.p2align 1
 537              	.L53:
 742:..\..\..\u8g2\u8g2\csrc/u8x8_d_st75256.c ****   {
 743:..\..\..\u8g2\u8g2\csrc/u8x8_d_st75256.c ****             case U8X8_MSG_DISPLAY_DRAW_TILE:
ARM GAS  C:\Users\jesse\AppData\Local\Temp\cc6zNusR.s 			page 24


 744:..\..\..\u8g2\u8g2\csrc/u8x8_d_st75256.c ****               
 745:..\..\..\u8g2\u8g2\csrc/u8x8_d_st75256.c ****               u8x8_cad_StartTransfer(u8x8);
 538              		.loc 1 745 0
 539 001e FFF7FEFF 		bl	u8x8_cad_StartTransfer
 540              	.LVL62:
 746:..\..\..\u8g2\u8g2\csrc/u8x8_d_st75256.c ****               x = ((u8x8_tile_t *)arg_ptr)->x_pos;    
 747:..\..\..\u8g2\u8g2\csrc/u8x8_d_st75256.c ****               x *= 8;
 748:..\..\..\u8g2\u8g2\csrc/u8x8_d_st75256.c ****               
 749:..\..\..\u8g2\u8g2\csrc/u8x8_d_st75256.c ****               u8x8_cad_SendCmd(u8x8, 0x030 );	/* select command set */
 541              		.loc 1 749 0
 542 0022 3021     		movs	r1, #48
 543 0024 2046     		mov	r0, r4
 746:..\..\..\u8g2\u8g2\csrc/u8x8_d_st75256.c ****               x = ((u8x8_tile_t *)arg_ptr)->x_pos;    
 544              		.loc 1 746 0
 545 0026 7D79     		ldrb	r5, [r7, #5]	@ zero_extendqisi2
 546              	.LVL63:
 547              		.loc 1 749 0
 548 0028 FFF7FEFF 		bl	u8x8_cad_SendCmd
 549              	.LVL64:
 750:..\..\..\u8g2\u8g2\csrc/u8x8_d_st75256.c ****               u8x8_cad_SendCmd(u8x8, 0x075 );	/* row */
 550              		.loc 1 750 0
 551 002c 7521     		movs	r1, #117
 552 002e 2046     		mov	r0, r4
 553 0030 FFF7FEFF 		bl	u8x8_cad_SendCmd
 554              	.LVL65:
 751:..\..\..\u8g2\u8g2\csrc/u8x8_d_st75256.c **** 	      if ( u8x8->x_offset == 0 )		/* 0 means flip mode 1, then adjust y value */
 555              		.loc 1 751 0
 556 0034 94F82230 		ldrb	r3, [r4, #34]	@ zero_extendqisi2
 747:..\..\..\u8g2\u8g2\csrc/u8x8_d_st75256.c ****               
 557              		.loc 1 747 0
 558 0038 ED00     		lsls	r5, r5, #3
 559              	.LVL66:
 560 003a 5FFA85F8 		uxtb	r8, r5
 561              	.LVL67:
 562 003e B979     		ldrb	r1, [r7, #6]	@ zero_extendqisi2
 563              		.loc 1 751 0
 564 0040 0BB9     		cbnz	r3, .L54
 752:..\..\..\u8g2\u8g2\csrc/u8x8_d_st75256.c **** 		u8x8_cad_SendArg(u8x8, 8+(((u8x8_tile_t *)arg_ptr)->y_pos));
 565              		.loc 1 752 0
 566 0042 0831     		adds	r1, r1, #8
 567 0044 C9B2     		uxtb	r1, r1
 568              	.L54:
 753:..\..\..\u8g2\u8g2\csrc/u8x8_d_st75256.c **** 	      else
 754:..\..\..\u8g2\u8g2\csrc/u8x8_d_st75256.c **** 		u8x8_cad_SendArg(u8x8, (((u8x8_tile_t *)arg_ptr)->y_pos));
 569              		.loc 1 754 0
 570 0046 2046     		mov	r0, r4
 571 0048 FFF7FEFF 		bl	u8x8_cad_SendArg
 572              	.LVL68:
 755:..\..\..\u8g2\u8g2\csrc/u8x8_d_st75256.c ****               u8x8_cad_SendArg(u8x8, 0x04f);
 573              		.loc 1 755 0
 574 004c 4F21     		movs	r1, #79
 575 004e 2046     		mov	r0, r4
 576 0050 FFF7FEFF 		bl	u8x8_cad_SendArg
 577              	.LVL69:
 756:..\..\..\u8g2\u8g2\csrc/u8x8_d_st75256.c ****               //u8x8_cad_SendArg(u8x8, (((u8x8_tile_t *)arg_ptr)->y_pos));
 757:..\..\..\u8g2\u8g2\csrc/u8x8_d_st75256.c ****               u8x8_cad_SendCmd(u8x8, 0x015 );	/* col */
 578              		.loc 1 757 0
ARM GAS  C:\Users\jesse\AppData\Local\Temp\cc6zNusR.s 			page 25


 579 0054 1521     		movs	r1, #21
 580 0056 2046     		mov	r0, r4
 581 0058 FFF7FEFF 		bl	u8x8_cad_SendCmd
 582              	.LVL70:
 758:..\..\..\u8g2\u8g2\csrc/u8x8_d_st75256.c ****               u8x8_cad_SendArg(u8x8, x+u8x8->x_offset);
 583              		.loc 1 758 0
 584 005c 94F82210 		ldrb	r1, [r4, #34]	@ zero_extendqisi2
 585 0060 2046     		mov	r0, r4
 586 0062 4144     		add	r1, r1, r8
 587 0064 C9B2     		uxtb	r1, r1
 588 0066 FFF7FEFF 		bl	u8x8_cad_SendArg
 589              	.LVL71:
 759:..\..\..\u8g2\u8g2\csrc/u8x8_d_st75256.c ****               u8x8_cad_SendArg(u8x8, 255);
 590              		.loc 1 759 0
 591 006a FF21     		movs	r1, #255
 592 006c 2046     		mov	r0, r4
 593 006e FFF7FEFF 		bl	u8x8_cad_SendArg
 594              	.LVL72:
 760:..\..\..\u8g2\u8g2\csrc/u8x8_d_st75256.c ****               u8x8_cad_SendCmd(u8x8, 0x05c );	
 595              		.loc 1 760 0
 596 0072 5C21     		movs	r1, #92
 597 0074 2046     		mov	r0, r4
 598 0076 FFF7FEFF 		bl	u8x8_cad_SendCmd
 599              	.LVL73:
 600              	.L57:
 761:..\..\..\u8g2\u8g2\csrc/u8x8_d_st75256.c ****             
 762:..\..\..\u8g2\u8g2\csrc/u8x8_d_st75256.c ****               
 763:..\..\..\u8g2\u8g2\csrc/u8x8_d_st75256.c ****               /* this procedure assumes, that the overall width is 172 */
 764:..\..\..\u8g2\u8g2\csrc/u8x8_d_st75256.c ****               do
 765:..\..\..\u8g2\u8g2\csrc/u8x8_d_st75256.c ****               {
 766:..\..\..\u8g2\u8g2\csrc/u8x8_d_st75256.c ****                 c = ((u8x8_tile_t *)arg_ptr)->cnt;
 601              		.loc 1 766 0
 602 007a 3B79     		ldrb	r3, [r7, #4]	@ zero_extendqisi2
 603              	.LVL74:
 767:..\..\..\u8g2\u8g2\csrc/u8x8_d_st75256.c ****                 ptr = ((u8x8_tile_t *)arg_ptr)->tile_ptr;
 604              		.loc 1 767 0
 605 007c 3A68     		ldr	r2, [r7]
 606              	.LVL75:
 768:..\..\..\u8g2\u8g2\csrc/u8x8_d_st75256.c ****                 c *= 8;
 607              		.loc 1 768 0
 608 007e DB00     		lsls	r3, r3, #3
 609              	.LVL76:
 610 0080 DDB2     		uxtb	r5, r3
 611              	.LVL77:
 769:..\..\..\u8g2\u8g2\csrc/u8x8_d_st75256.c **** 
 770:..\..\..\u8g2\u8g2\csrc/u8x8_d_st75256.c ****                 if ( c + x > 172u )
 612              		.loc 1 770 0
 613 0082 05EB0803 		add	r3, r5, r8
 614 0086 AC2B     		cmp	r3, #172
 615              	.LVL78:
 771:..\..\..\u8g2\u8g2\csrc/u8x8_d_st75256.c ****                 {
 772:..\..\..\u8g2\u8g2\csrc/u8x8_d_st75256.c ****                         c = 172u;
 773:..\..\..\u8g2\u8g2\csrc/u8x8_d_st75256.c ****                         c -= x;
 616              		.loc 1 773 0
 617 0088 C4BF     		itt	gt
 618 008a C8F1AC03 		rsbgt	r3, r8, #172
 619 008e DDB2     		uxtbgt	r5, r3
ARM GAS  C:\Users\jesse\AppData\Local\Temp\cc6zNusR.s 			page 26


 620              	.LVL79:
 774:..\..\..\u8g2\u8g2\csrc/u8x8_d_st75256.c ****                 }
 775:..\..\..\u8g2\u8g2\csrc/u8x8_d_st75256.c ****                       
 776:..\..\..\u8g2\u8g2\csrc/u8x8_d_st75256.c ****                 u8x8_cad_SendData(u8x8, c, ptr); 	
 621              		.loc 1 776 0
 622 0090 2946     		mov	r1, r5
 623 0092 2046     		mov	r0, r4
 777:..\..\..\u8g2\u8g2\csrc/u8x8_d_st75256.c ****                 x += c;
 778:..\..\..\u8g2\u8g2\csrc/u8x8_d_st75256.c ****                 arg_int--;
 624              		.loc 1 778 0
 625 0094 013E     		subs	r6, r6, #1
 626              	.LVL80:
 776:..\..\..\u8g2\u8g2\csrc/u8x8_d_st75256.c ****                 x += c;
 627              		.loc 1 776 0
 628 0096 FFF7FEFF 		bl	u8x8_cad_SendData
 629              	.LVL81:
 777:..\..\..\u8g2\u8g2\csrc/u8x8_d_st75256.c ****                 x += c;
 630              		.loc 1 777 0
 631 009a 4544     		add	r5, r5, r8
 632              	.LVL82:
 779:..\..\..\u8g2\u8g2\csrc/u8x8_d_st75256.c ****               } while( arg_int > 0 );
 633              		.loc 1 779 0
 634 009c 16F0FF06 		ands	r6, r6, #255
 777:..\..\..\u8g2\u8g2\csrc/u8x8_d_st75256.c ****                 x += c;
 635              		.loc 1 777 0
 636 00a0 5FFA85F8 		uxtb	r8, r5
 637              	.LVL83:
 638              		.loc 1 779 0
 639 00a4 E9D1     		bne	.L57
 640 00a6 32E0     		b	.L63
 641              	.LVL84:
 642              	.L47:
 780:..\..\..\u8g2\u8g2\csrc/u8x8_d_st75256.c ****               
 781:..\..\..\u8g2\u8g2\csrc/u8x8_d_st75256.c ****               u8x8_cad_EndTransfer(u8x8);
 782:..\..\..\u8g2\u8g2\csrc/u8x8_d_st75256.c ****               return 1;
 783:..\..\..\u8g2\u8g2\csrc/u8x8_d_st75256.c ****         case U8X8_MSG_DISPLAY_SETUP_MEMORY:
 784:..\..\..\u8g2\u8g2\csrc/u8x8_d_st75256.c ****             //u8x8_SetI2CAddress(u8x8, 0x078);		/* lowest I2C adr of the ST75256 */
 785:..\..\..\u8g2\u8g2\csrc/u8x8_d_st75256.c ****             u8x8_d_helper_display_setup_memory(u8x8, &u8x8_st75256_172x104_display_info);
 643              		.loc 1 785 0
 644 00a8 1D49     		ldr	r1, .L66
 645 00aa FFF7FEFF 		bl	u8x8_d_helper_display_setup_memory
 646              	.LVL85:
 647 00ae 31E0     		b	.L62
 648              	.LVL86:
 649              	.L49:
 786:..\..\..\u8g2\u8g2\csrc/u8x8_d_st75256.c ****             return 1;
 787:..\..\..\u8g2\u8g2\csrc/u8x8_d_st75256.c ****         case U8X8_MSG_DISPLAY_INIT:
 788:..\..\..\u8g2\u8g2\csrc/u8x8_d_st75256.c ****             u8x8_d_helper_display_init(u8x8);
 650              		.loc 1 788 0
 651 00b0 FFF7FEFF 		bl	u8x8_d_helper_display_init
 652              	.LVL87:
 789:..\..\..\u8g2\u8g2\csrc/u8x8_d_st75256.c ****             u8x8_cad_SendSequence(u8x8, u8x8_d_st75256_jlx172104_init_seq);
 653              		.loc 1 789 0
 654 00b4 1B49     		ldr	r1, .L66+4
 655 00b6 03E0     		b	.L64
 656              	.LVL88:
 657              	.L50:
ARM GAS  C:\Users\jesse\AppData\Local\Temp\cc6zNusR.s 			page 27


 790:..\..\..\u8g2\u8g2\csrc/u8x8_d_st75256.c ****             return 1;
 791:..\..\..\u8g2\u8g2\csrc/u8x8_d_st75256.c ****         case U8X8_MSG_DISPLAY_SET_POWER_SAVE:
 792:..\..\..\u8g2\u8g2\csrc/u8x8_d_st75256.c ****               if ( arg_int == 0 )
 658              		.loc 1 792 0
 659 00b8 0AB9     		cbnz	r2, .L58
 793:..\..\..\u8g2\u8g2\csrc/u8x8_d_st75256.c ****                 u8x8_cad_SendSequence(u8x8, u8x8_d_st75256_256x128_powersave0_seq);
 660              		.loc 1 793 0
 661 00ba 1B49     		ldr	r1, .L66+8
 662 00bc 00E0     		b	.L64
 663              	.L58:
 794:..\..\..\u8g2\u8g2\csrc/u8x8_d_st75256.c ****               else
 795:..\..\..\u8g2\u8g2\csrc/u8x8_d_st75256.c ****                 u8x8_cad_SendSequence(u8x8, u8x8_d_st75256_256x128_powersave1_seq);
 664              		.loc 1 795 0
 665 00be 1B49     		ldr	r1, .L66+12
 666              	.LVL89:
 667              	.L64:
 668 00c0 2046     		mov	r0, r4
 669 00c2 FFF7FEFF 		bl	u8x8_cad_SendSequence
 670              	.LVL90:
 671 00c6 25E0     		b	.L62
 672              	.LVL91:
 673              	.L51:
 796:..\..\..\u8g2\u8g2\csrc/u8x8_d_st75256.c **** 
 797:..\..\..\u8g2\u8g2\csrc/u8x8_d_st75256.c ****               return 1;
 798:..\..\..\u8g2\u8g2\csrc/u8x8_d_st75256.c **** 	case U8X8_MSG_DISPLAY_SET_FLIP_MODE:
 799:..\..\..\u8g2\u8g2\csrc/u8x8_d_st75256.c **** 	    if ( arg_int == 0 )
 674              		.loc 1 799 0
 675 00c8 2AB9     		cbnz	r2, .L59
 800:..\..\..\u8g2\u8g2\csrc/u8x8_d_st75256.c **** 	    {
 801:..\..\..\u8g2\u8g2\csrc/u8x8_d_st75256.c **** 	      u8x8_cad_SendSequence(u8x8, u8x8_d_st75256_jlx172104_flip0_seq);
 676              		.loc 1 801 0
 677 00ca 1949     		ldr	r1, .L66+16
 678 00cc FFF7FEFF 		bl	u8x8_cad_SendSequence
 679              	.LVL92:
 802:..\..\..\u8g2\u8g2\csrc/u8x8_d_st75256.c **** 	      u8x8->x_offset = u8x8->display_info->default_x_offset;
 680              		.loc 1 802 0
 681 00d0 2368     		ldr	r3, [r4]
 682 00d2 9B7C     		ldrb	r3, [r3, #18]	@ zero_extendqisi2
 683 00d4 04E0     		b	.L65
 684              	.LVL93:
 685              	.L59:
 803:..\..\..\u8g2\u8g2\csrc/u8x8_d_st75256.c **** 	    }
 804:..\..\..\u8g2\u8g2\csrc/u8x8_d_st75256.c **** 	    else
 805:..\..\..\u8g2\u8g2\csrc/u8x8_d_st75256.c **** 	    {
 806:..\..\..\u8g2\u8g2\csrc/u8x8_d_st75256.c **** 	      u8x8_cad_SendSequence(u8x8, u8x8_d_st75256_jlx172104_flip1_seq); 
 686              		.loc 1 806 0
 687 00d6 1749     		ldr	r1, .L66+20
 688 00d8 FFF7FEFF 		bl	u8x8_cad_SendSequence
 689              	.LVL94:
 807:..\..\..\u8g2\u8g2\csrc/u8x8_d_st75256.c **** 	      u8x8->x_offset = u8x8->display_info->flipmode_x_offset;
 690              		.loc 1 807 0
 691 00dc 2368     		ldr	r3, [r4]
 692 00de DB7C     		ldrb	r3, [r3, #19]	@ zero_extendqisi2
 693              	.L65:
 694 00e0 84F82230 		strb	r3, [r4, #34]
 695 00e4 16E0     		b	.L62
 696              	.LVL95:
ARM GAS  C:\Users\jesse\AppData\Local\Temp\cc6zNusR.s 			page 28


 697              	.L52:
 808:..\..\..\u8g2\u8g2\csrc/u8x8_d_st75256.c **** 	    }
 809:..\..\..\u8g2\u8g2\csrc/u8x8_d_st75256.c **** 	    return 1;
 810:..\..\..\u8g2\u8g2\csrc/u8x8_d_st75256.c **** 		
 811:..\..\..\u8g2\u8g2\csrc/u8x8_d_st75256.c **** #ifdef U8X8_WITH_SET_CONTRAST
 812:..\..\..\u8g2\u8g2\csrc/u8x8_d_st75256.c ****         case U8X8_MSG_DISPLAY_SET_CONTRAST:
 813:..\..\..\u8g2\u8g2\csrc/u8x8_d_st75256.c **** 
 814:..\..\..\u8g2\u8g2\csrc/u8x8_d_st75256.c ****               u8x8_cad_StartTransfer(u8x8);
 698              		.loc 1 814 0
 699 00e6 FFF7FEFF 		bl	u8x8_cad_StartTransfer
 700              	.LVL96:
 815:..\..\..\u8g2\u8g2\csrc/u8x8_d_st75256.c ****               
 816:..\..\..\u8g2\u8g2\csrc/u8x8_d_st75256.c ****               u8x8_cad_SendCmd(u8x8, 0x030 );
 701              		.loc 1 816 0
 702 00ea 3021     		movs	r1, #48
 703 00ec 2046     		mov	r0, r4
 704 00ee FFF7FEFF 		bl	u8x8_cad_SendCmd
 705              	.LVL97:
 817:..\..\..\u8g2\u8g2\csrc/u8x8_d_st75256.c ****               u8x8_cad_SendCmd(u8x8, 0x081 );  /* there are 9 bit for the volume control */
 706              		.loc 1 817 0
 707 00f2 8121     		movs	r1, #129
 708 00f4 2046     		mov	r0, r4
 709 00f6 FFF7FEFF 		bl	u8x8_cad_SendCmd
 710              	.LVL98:
 818:..\..\..\u8g2\u8g2\csrc/u8x8_d_st75256.c ****               u8x8_cad_SendArg(u8x8, (arg_int & 0x1f)<<1 );	/* lower 6 bit */
 711              		.loc 1 818 0
 712 00fa 7100     		lsls	r1, r6, #1
 713 00fc 01F03E01 		and	r1, r1, #62
 714 0100 2046     		mov	r0, r4
 715 0102 FFF7FEFF 		bl	u8x8_cad_SendArg
 716              	.LVL99:
 819:..\..\..\u8g2\u8g2\csrc/u8x8_d_st75256.c ****               u8x8_cad_SendArg(u8x8, (arg_int>>5));		/* upper 3 bit */
 717              		.loc 1 819 0
 718 0106 7109     		lsrs	r1, r6, #5
 719 0108 2046     		mov	r0, r4
 720 010a FFF7FEFF 		bl	u8x8_cad_SendArg
 721              	.LVL100:
 722              	.L63:
 820:..\..\..\u8g2\u8g2\csrc/u8x8_d_st75256.c ****               
 821:..\..\..\u8g2\u8g2\csrc/u8x8_d_st75256.c ****               u8x8_cad_EndTransfer(u8x8);
 723              		.loc 1 821 0
 724 010e 2046     		mov	r0, r4
 725 0110 FFF7FEFF 		bl	u8x8_cad_EndTransfer
 726              	.LVL101:
 727              	.L62:
 822:..\..\..\u8g2\u8g2\csrc/u8x8_d_st75256.c ****               return 1;
 728              		.loc 1 822 0
 729 0114 0120     		movs	r0, #1
 730 0116 BDE8F081 		pop	{r4, r5, r6, r7, r8, pc}
 731              	.LVL102:
 732              	.L60:
 823:..\..\..\u8g2\u8g2\csrc/u8x8_d_st75256.c **** #endif
 824:..\..\..\u8g2\u8g2\csrc/u8x8_d_st75256.c ****   }
 825:..\..\..\u8g2\u8g2\csrc/u8x8_d_st75256.c ****   return 0;
 733              		.loc 1 825 0
 734 011a 0020     		movs	r0, #0
 735              	.LVL103:
ARM GAS  C:\Users\jesse\AppData\Local\Temp\cc6zNusR.s 			page 29


 826:..\..\..\u8g2\u8g2\csrc/u8x8_d_st75256.c **** }
 736              		.loc 1 826 0
 737 011c BDE8F081 		pop	{r4, r5, r6, r7, r8, pc}
 738              	.LVL104:
 739              	.L67:
 740              		.align	2
 741              	.L66:
 742 0120 D0010000 		.word	.LANCHOR0+464
 743 0124 E8010000 		.word	.LANCHOR0+488
 744 0128 00000000 		.word	.LANCHOR0
 745 012c 0B000000 		.word	.LANCHOR0+11
 746 0130 3E010000 		.word	.LANCHOR0+318
 747 0134 31010000 		.word	.LANCHOR0+305
 748              		.cfi_endproc
 749              	.LFE4:
 750              		.size	u8x8_d_st75256_jlx172104, .-u8x8_d_st75256_jlx172104
 751              		.section	.text.u8x8_d_st75256_jlx240160,"ax",%progbits
 752              		.align	1
 753              		.global	u8x8_d_st75256_jlx240160
 754              		.thumb
 755              		.thumb_func
 756              		.type	u8x8_d_st75256_jlx240160, %function
 757              	u8x8_d_st75256_jlx240160:
 758              	.LFB5:
 827:..\..\..\u8g2\u8g2\csrc/u8x8_d_st75256.c **** 
 828:..\..\..\u8g2\u8g2\csrc/u8x8_d_st75256.c **** /*=============================================*/
 829:..\..\..\u8g2\u8g2\csrc/u8x8_d_st75256.c **** /* JLX240160 */
 830:..\..\..\u8g2\u8g2\csrc/u8x8_d_st75256.c **** 
 831:..\..\..\u8g2\u8g2\csrc/u8x8_d_st75256.c **** static const u8x8_display_info_t u8x8_st75256_240x160_display_info =
 832:..\..\..\u8g2\u8g2\csrc/u8x8_d_st75256.c **** {
 833:..\..\..\u8g2\u8g2\csrc/u8x8_d_st75256.c ****   /* chip_enable_level = */ 0,
 834:..\..\..\u8g2\u8g2\csrc/u8x8_d_st75256.c ****   /* chip_disable_level = */ 1,
 835:..\..\..\u8g2\u8g2\csrc/u8x8_d_st75256.c ****   
 836:..\..\..\u8g2\u8g2\csrc/u8x8_d_st75256.c ****   /* post_chip_enable_wait_ns = */ 20,
 837:..\..\..\u8g2\u8g2\csrc/u8x8_d_st75256.c ****   /* pre_chip_disable_wait_ns = */ 20,
 838:..\..\..\u8g2\u8g2\csrc/u8x8_d_st75256.c ****   /* reset_pulse_width_ms = */ 5, 	
 839:..\..\..\u8g2\u8g2\csrc/u8x8_d_st75256.c ****   /* post_reset_wait_ms = */ 5, 		/**/
 840:..\..\..\u8g2\u8g2\csrc/u8x8_d_st75256.c ****   /* sda_setup_time_ns = */ 20,		/* */
 841:..\..\..\u8g2\u8g2\csrc/u8x8_d_st75256.c ****   /* sck_pulse_width_ns = */ 40,	/*  */
 842:..\..\..\u8g2\u8g2\csrc/u8x8_d_st75256.c ****   /* sck_clock_hz = */ 4000000UL,	/* since Arduino 1.6.0, the SPI bus speed in Hz. Should be  10000
 843:..\..\..\u8g2\u8g2\csrc/u8x8_d_st75256.c ****   /* spi_mode = */ 0,		/* active high, rising edge */
 844:..\..\..\u8g2\u8g2\csrc/u8x8_d_st75256.c ****   /* i2c_bus_clock_100kHz = */ 4,	/* 400KHz */
 845:..\..\..\u8g2\u8g2\csrc/u8x8_d_st75256.c ****   /* data_setup_time_ns = */ 15,
 846:..\..\..\u8g2\u8g2\csrc/u8x8_d_st75256.c ****   /* write_pulse_width_ns = */ 70,	
 847:..\..\..\u8g2\u8g2\csrc/u8x8_d_st75256.c ****   /* tile_width = */ 30,
 848:..\..\..\u8g2\u8g2\csrc/u8x8_d_st75256.c ****   /* tile_hight = */ 20,
 849:..\..\..\u8g2\u8g2\csrc/u8x8_d_st75256.c ****   /* default_x_offset = */ 16,	/*  x offset in flipmode 0 */
 850:..\..\..\u8g2\u8g2\csrc/u8x8_d_st75256.c ****   /* flipmode_x_offset = */ 0,		/* */
 851:..\..\..\u8g2\u8g2\csrc/u8x8_d_st75256.c ****   /* pixel_width = */ 240,
 852:..\..\..\u8g2\u8g2\csrc/u8x8_d_st75256.c ****   /* pixel_height = */ 160
 853:..\..\..\u8g2\u8g2\csrc/u8x8_d_st75256.c **** };
 854:..\..\..\u8g2\u8g2\csrc/u8x8_d_st75256.c **** 
 855:..\..\..\u8g2\u8g2\csrc/u8x8_d_st75256.c **** 
 856:..\..\..\u8g2\u8g2\csrc/u8x8_d_st75256.c **** static const uint8_t u8x8_d_st75256_240x160_init_seq[] = {
 857:..\..\..\u8g2\u8g2\csrc/u8x8_d_st75256.c ****   U8X8_START_TRANSFER(),             	/* enable chip, delay is part of the transfer start */
 858:..\..\..\u8g2\u8g2\csrc/u8x8_d_st75256.c ****   
 859:..\..\..\u8g2\u8g2\csrc/u8x8_d_st75256.c ****   U8X8_DLY(20),
ARM GAS  C:\Users\jesse\AppData\Local\Temp\cc6zNusR.s 			page 30


 860:..\..\..\u8g2\u8g2\csrc/u8x8_d_st75256.c **** 
 861:..\..\..\u8g2\u8g2\csrc/u8x8_d_st75256.c ****   U8X8_C( 0x030 ),				/* select 00 commands */
 862:..\..\..\u8g2\u8g2\csrc/u8x8_d_st75256.c ****   U8X8_C( 0x094 ),				/* sleep out */
 863:..\..\..\u8g2\u8g2\csrc/u8x8_d_st75256.c **** 
 864:..\..\..\u8g2\u8g2\csrc/u8x8_d_st75256.c ****   //U8X8_C( 0x030 ),				/* select 00 commands */
 865:..\..\..\u8g2\u8g2\csrc/u8x8_d_st75256.c ****   U8X8_C( 0x0ae ),				/* display off */
 866:..\..\..\u8g2\u8g2\csrc/u8x8_d_st75256.c **** 
 867:..\..\..\u8g2\u8g2\csrc/u8x8_d_st75256.c ****   U8X8_C( 0x031 ),				/* select 01 commands */
 868:..\..\..\u8g2\u8g2\csrc/u8x8_d_st75256.c ****   U8X8_CA( 0x0d7, 0x09f ),		/* disable auto read */  
 869:..\..\..\u8g2\u8g2\csrc/u8x8_d_st75256.c **** 
 870:..\..\..\u8g2\u8g2\csrc/u8x8_d_st75256.c ****   //U8X8_C( 0x031 ),				/* select 01 commands */
 871:..\..\..\u8g2\u8g2\csrc/u8x8_d_st75256.c ****   U8X8_C( 0x032 ),				/* analog circuit set */
 872:..\..\..\u8g2\u8g2\csrc/u8x8_d_st75256.c ****   U8X8_A( 0x000 ),				/* code example: OSC Frequency adjustment */
 873:..\..\..\u8g2\u8g2\csrc/u8x8_d_st75256.c ****   U8X8_A( 0x001 ),				/* Frequency on booster capacitors 1 = 6KHz? */
 874:..\..\..\u8g2\u8g2\csrc/u8x8_d_st75256.c ****   U8X8_A( 0x000 ),				/* Bias: 1: 1/13, 2: 1/12, 3: 1/11, 4:1/10, 5:1/9 */
 875:..\..\..\u8g2\u8g2\csrc/u8x8_d_st75256.c ****     
 876:..\..\..\u8g2\u8g2\csrc/u8x8_d_st75256.c ****   //U8X8_C( 0x031 ),				/* select 01 commands */
 877:..\..\..\u8g2\u8g2\csrc/u8x8_d_st75256.c ****   U8X8_C( 0x020 ),				/* gray levels */
 878:..\..\..\u8g2\u8g2\csrc/u8x8_d_st75256.c ****   U8X8_A( 0x01 ),
 879:..\..\..\u8g2\u8g2\csrc/u8x8_d_st75256.c ****   U8X8_A( 0x03 ),
 880:..\..\..\u8g2\u8g2\csrc/u8x8_d_st75256.c ****   U8X8_A( 0x05 ),
 881:..\..\..\u8g2\u8g2\csrc/u8x8_d_st75256.c ****   U8X8_A( 0x07 ),
 882:..\..\..\u8g2\u8g2\csrc/u8x8_d_st75256.c ****   U8X8_A( 0x09),
 883:..\..\..\u8g2\u8g2\csrc/u8x8_d_st75256.c ****   U8X8_A( 0x0b ),
 884:..\..\..\u8g2\u8g2\csrc/u8x8_d_st75256.c ****   U8X8_A( 0x0d ),
 885:..\..\..\u8g2\u8g2\csrc/u8x8_d_st75256.c ****   U8X8_A( 0x10 ),
 886:..\..\..\u8g2\u8g2\csrc/u8x8_d_st75256.c ****   U8X8_A( 0x11 ),
 887:..\..\..\u8g2\u8g2\csrc/u8x8_d_st75256.c ****   U8X8_A( 0x13 ),
 888:..\..\..\u8g2\u8g2\csrc/u8x8_d_st75256.c ****   U8X8_A( 0x15 ),
 889:..\..\..\u8g2\u8g2\csrc/u8x8_d_st75256.c ****   U8X8_A( 0x17 ),
 890:..\..\..\u8g2\u8g2\csrc/u8x8_d_st75256.c ****   U8X8_A( 0x19 ),
 891:..\..\..\u8g2\u8g2\csrc/u8x8_d_st75256.c ****   U8X8_A( 0x1b ),
 892:..\..\..\u8g2\u8g2\csrc/u8x8_d_st75256.c ****   U8X8_A( 0x1d ),
 893:..\..\..\u8g2\u8g2\csrc/u8x8_d_st75256.c ****   U8X8_A( 0x1f ),
 894:..\..\..\u8g2\u8g2\csrc/u8x8_d_st75256.c ****  
 895:..\..\..\u8g2\u8g2\csrc/u8x8_d_st75256.c ****   
 896:..\..\..\u8g2\u8g2\csrc/u8x8_d_st75256.c ****   U8X8_C( 0x030 ),				/* select 00 commands */
 897:..\..\..\u8g2\u8g2\csrc/u8x8_d_st75256.c ****   U8X8_CAA(0x75, 0, 0x4f),		/* row range */
 898:..\..\..\u8g2\u8g2\csrc/u8x8_d_st75256.c ****   U8X8_CAA(0x15, 0, 239),		/* col range */
 899:..\..\..\u8g2\u8g2\csrc/u8x8_d_st75256.c ****   
 900:..\..\..\u8g2\u8g2\csrc/u8x8_d_st75256.c ****   //U8X8_C( 0x030 ),				/* select 00 commands */
 901:..\..\..\u8g2\u8g2\csrc/u8x8_d_st75256.c ****   U8X8_CA( 0xbc, 0x02 ),			/* data scan dir */
 902:..\..\..\u8g2\u8g2\csrc/u8x8_d_st75256.c ****   U8X8_A( 0xa6 ),				/* ??? */
 903:..\..\..\u8g2\u8g2\csrc/u8x8_d_st75256.c **** 
 904:..\..\..\u8g2\u8g2\csrc/u8x8_d_st75256.c ****   //U8X8_C( 0x030 ),				/* select 00 commands */
 905:..\..\..\u8g2\u8g2\csrc/u8x8_d_st75256.c ****   U8X8_C( 0x00c ),				/* data format LSB top */
 906:..\..\..\u8g2\u8g2\csrc/u8x8_d_st75256.c **** 
 907:..\..\..\u8g2\u8g2\csrc/u8x8_d_st75256.c ****   //U8X8_C( 0x030 ),				/* select 00 commands */ 
 908:..\..\..\u8g2\u8g2\csrc/u8x8_d_st75256.c ****   U8X8_C( 0xca ),				/* display control, 3 args follow  */
 909:..\..\..\u8g2\u8g2\csrc/u8x8_d_st75256.c ****   U8X8_A( 0x00 ),				/* 0x00: no clock division, 0x04: devide clock */
 910:..\..\..\u8g2\u8g2\csrc/u8x8_d_st75256.c ****   U8X8_A( 159 ),				/* 1/160 duty value from the DS example code */
 911:..\..\..\u8g2\u8g2\csrc/u8x8_d_st75256.c ****   U8X8_A( 0x20 ),				/* nline off */ 
 912:..\..\..\u8g2\u8g2\csrc/u8x8_d_st75256.c **** 
 913:..\..\..\u8g2\u8g2\csrc/u8x8_d_st75256.c ****   //U8X8_C( 0x030 ),				/* select 00 commands */ 
 914:..\..\..\u8g2\u8g2\csrc/u8x8_d_st75256.c ****   U8X8_CA( 0x0f0, 0x010 ),		/* monochrome mode  = 0x010*/
 915:..\..\..\u8g2\u8g2\csrc/u8x8_d_st75256.c **** 
 916:..\..\..\u8g2\u8g2\csrc/u8x8_d_st75256.c ****   //U8X8_C( 0x030 ),				/* select 00 commands */
ARM GAS  C:\Users\jesse\AppData\Local\Temp\cc6zNusR.s 			page 31


 917:..\..\..\u8g2\u8g2\csrc/u8x8_d_st75256.c ****   U8X8_CAA( 0x81, 0x18, 0x04 ),	/* Volume control */
 918:..\..\..\u8g2\u8g2\csrc/u8x8_d_st75256.c **** 
 919:..\..\..\u8g2\u8g2\csrc/u8x8_d_st75256.c ****   //U8X8_C( 0x030 ),				/* select 00 commands */
 920:..\..\..\u8g2\u8g2\csrc/u8x8_d_st75256.c ****   U8X8_CA( 0x020, 0x00b ),		/* Power control: Regulator, follower & booster on */
 921:..\..\..\u8g2\u8g2\csrc/u8x8_d_st75256.c ****   U8X8_DLY(100),
 922:..\..\..\u8g2\u8g2\csrc/u8x8_d_st75256.c **** 
 923:..\..\..\u8g2\u8g2\csrc/u8x8_d_st75256.c ****   U8X8_END_TRANSFER(),             	/* disable chip */
 924:..\..\..\u8g2\u8g2\csrc/u8x8_d_st75256.c ****   U8X8_END()             			/* end of sequence */
 925:..\..\..\u8g2\u8g2\csrc/u8x8_d_st75256.c **** };
 926:..\..\..\u8g2\u8g2\csrc/u8x8_d_st75256.c **** 
 927:..\..\..\u8g2\u8g2\csrc/u8x8_d_st75256.c **** 
 928:..\..\..\u8g2\u8g2\csrc/u8x8_d_st75256.c **** uint8_t u8x8_d_st75256_jlx240160(u8x8_t *u8x8, uint8_t msg, uint8_t arg_int, void *arg_ptr)
 929:..\..\..\u8g2\u8g2\csrc/u8x8_d_st75256.c **** {
 759              		.loc 1 929 0
 760              		.cfi_startproc
 761              		@ args = 0, pretend = 0, frame = 0
 762              		@ frame_needed = 0, uses_anonymous_args = 0
 763              	.LVL105:
 930:..\..\..\u8g2\u8g2\csrc/u8x8_d_st75256.c ****   uint8_t x, c;
 931:..\..\..\u8g2\u8g2\csrc/u8x8_d_st75256.c ****   uint8_t *ptr;
 932:..\..\..\u8g2\u8g2\csrc/u8x8_d_st75256.c **** 
 933:..\..\..\u8g2\u8g2\csrc/u8x8_d_st75256.c ****   switch(msg)
 764              		.loc 1 933 0
 765 0000 0939     		subs	r1, r1, #9
 766              	.LVL106:
 929:..\..\..\u8g2\u8g2\csrc/u8x8_d_st75256.c ****   uint8_t x, c;
 767              		.loc 1 929 0
 768 0002 2DE9F041 		push	{r4, r5, r6, r7, r8, lr}
 769              		.cfi_def_cfa_offset 24
 770              		.cfi_offset 4, -24
 771              		.cfi_offset 5, -20
 772              		.cfi_offset 6, -16
 773              		.cfi_offset 7, -12
 774              		.cfi_offset 8, -8
 775              		.cfi_offset 14, -4
 929:..\..\..\u8g2\u8g2\csrc/u8x8_d_st75256.c ****   uint8_t x, c;
 776              		.loc 1 929 0
 777 0006 0446     		mov	r4, r0
 778 0008 1646     		mov	r6, r2
 779 000a 1F46     		mov	r7, r3
 780              		.loc 1 933 0
 781 000c 0629     		cmp	r1, #6
 782 000e 00F28480 		bhi	.L83
 783 0012 DFE801F0 		tbb	[pc, r1]
 784              	.LVL107:
 785              	.L71:
 786 0016 49       		.byte	(.L70-.L71)/2
 787 0017 4D       		.byte	(.L72-.L71)/2
 788 0018 51       		.byte	(.L73-.L71)/2
 789 0019 82       		.byte	(.L83-.L71)/2
 790 001a 59       		.byte	(.L74-.L71)/2
 791 001b 68       		.byte	(.L75-.L71)/2
 792 001c 04       		.byte	(.L76-.L71)/2
 793 001d 00       		.p2align 1
 794              	.L76:
 934:..\..\..\u8g2\u8g2\csrc/u8x8_d_st75256.c ****   {
 935:..\..\..\u8g2\u8g2\csrc/u8x8_d_st75256.c ****             case U8X8_MSG_DISPLAY_DRAW_TILE:
ARM GAS  C:\Users\jesse\AppData\Local\Temp\cc6zNusR.s 			page 32


 936:..\..\..\u8g2\u8g2\csrc/u8x8_d_st75256.c ****               
 937:..\..\..\u8g2\u8g2\csrc/u8x8_d_st75256.c ****               u8x8_cad_StartTransfer(u8x8);
 795              		.loc 1 937 0
 796 001e FFF7FEFF 		bl	u8x8_cad_StartTransfer
 797              	.LVL108:
 938:..\..\..\u8g2\u8g2\csrc/u8x8_d_st75256.c ****               x = ((u8x8_tile_t *)arg_ptr)->x_pos;    
 939:..\..\..\u8g2\u8g2\csrc/u8x8_d_st75256.c ****               x *= 8;
 940:..\..\..\u8g2\u8g2\csrc/u8x8_d_st75256.c ****               
 941:..\..\..\u8g2\u8g2\csrc/u8x8_d_st75256.c ****               u8x8_cad_SendCmd(u8x8, 0x030 );	/* select command set */
 798              		.loc 1 941 0
 799 0022 3021     		movs	r1, #48
 800 0024 2046     		mov	r0, r4
 938:..\..\..\u8g2\u8g2\csrc/u8x8_d_st75256.c ****               x = ((u8x8_tile_t *)arg_ptr)->x_pos;    
 801              		.loc 1 938 0
 802 0026 7D79     		ldrb	r5, [r7, #5]	@ zero_extendqisi2
 803              	.LVL109:
 804              		.loc 1 941 0
 805 0028 FFF7FEFF 		bl	u8x8_cad_SendCmd
 806              	.LVL110:
 942:..\..\..\u8g2\u8g2\csrc/u8x8_d_st75256.c ****               u8x8_cad_SendCmd(u8x8, 0x075 );	/* row */
 807              		.loc 1 942 0
 808 002c 7521     		movs	r1, #117
 809 002e 2046     		mov	r0, r4
 810 0030 FFF7FEFF 		bl	u8x8_cad_SendCmd
 811              	.LVL111:
 943:..\..\..\u8g2\u8g2\csrc/u8x8_d_st75256.c **** 	      if ( u8x8->x_offset == 0 )		/* 0 means flip mode 1 */
 812              		.loc 1 943 0
 813 0034 94F82230 		ldrb	r3, [r4, #34]	@ zero_extendqisi2
 939:..\..\..\u8g2\u8g2\csrc/u8x8_d_st75256.c ****               
 814              		.loc 1 939 0
 815 0038 ED00     		lsls	r5, r5, #3
 816              	.LVL112:
 817 003a 5FFA85F8 		uxtb	r8, r5
 818              	.LVL113:
 819 003e B979     		ldrb	r1, [r7, #6]	@ zero_extendqisi2
 820              		.loc 1 943 0
 821 0040 0BB9     		cbnz	r3, .L77
 944:..\..\..\u8g2\u8g2\csrc/u8x8_d_st75256.c **** 		u8x8_cad_SendArg(u8x8, 1+(((u8x8_tile_t *)arg_ptr)->y_pos));
 822              		.loc 1 944 0
 823 0042 0131     		adds	r1, r1, #1
 824 0044 C9B2     		uxtb	r1, r1
 825              	.L77:
 945:..\..\..\u8g2\u8g2\csrc/u8x8_d_st75256.c **** 	      else
 946:..\..\..\u8g2\u8g2\csrc/u8x8_d_st75256.c **** 		u8x8_cad_SendArg(u8x8, (((u8x8_tile_t *)arg_ptr)->y_pos));
 826              		.loc 1 946 0
 827 0046 2046     		mov	r0, r4
 828 0048 FFF7FEFF 		bl	u8x8_cad_SendArg
 829              	.LVL114:
 947:..\..\..\u8g2\u8g2\csrc/u8x8_d_st75256.c ****               u8x8_cad_SendArg(u8x8, 0x04f);
 830              		.loc 1 947 0
 831 004c 4F21     		movs	r1, #79
 832 004e 2046     		mov	r0, r4
 833 0050 FFF7FEFF 		bl	u8x8_cad_SendArg
 834              	.LVL115:
 948:..\..\..\u8g2\u8g2\csrc/u8x8_d_st75256.c ****               //u8x8_cad_SendArg(u8x8, (((u8x8_tile_t *)arg_ptr)->y_pos));
 949:..\..\..\u8g2\u8g2\csrc/u8x8_d_st75256.c ****               u8x8_cad_SendCmd(u8x8, 0x015 );	/* col */
 835              		.loc 1 949 0
ARM GAS  C:\Users\jesse\AppData\Local\Temp\cc6zNusR.s 			page 33


 836 0054 1521     		movs	r1, #21
 837 0056 2046     		mov	r0, r4
 838 0058 FFF7FEFF 		bl	u8x8_cad_SendCmd
 839              	.LVL116:
 950:..\..\..\u8g2\u8g2\csrc/u8x8_d_st75256.c ****               u8x8_cad_SendArg(u8x8, x+u8x8->x_offset);
 840              		.loc 1 950 0
 841 005c 94F82210 		ldrb	r1, [r4, #34]	@ zero_extendqisi2
 842 0060 2046     		mov	r0, r4
 843 0062 4144     		add	r1, r1, r8
 844 0064 C9B2     		uxtb	r1, r1
 845 0066 FFF7FEFF 		bl	u8x8_cad_SendArg
 846              	.LVL117:
 951:..\..\..\u8g2\u8g2\csrc/u8x8_d_st75256.c ****               u8x8_cad_SendArg(u8x8, 255);
 847              		.loc 1 951 0
 848 006a FF21     		movs	r1, #255
 849 006c 2046     		mov	r0, r4
 850 006e FFF7FEFF 		bl	u8x8_cad_SendArg
 851              	.LVL118:
 952:..\..\..\u8g2\u8g2\csrc/u8x8_d_st75256.c ****               u8x8_cad_SendCmd(u8x8, 0x05c );	
 852              		.loc 1 952 0
 853 0072 5C21     		movs	r1, #92
 854 0074 2046     		mov	r0, r4
 855 0076 FFF7FEFF 		bl	u8x8_cad_SendCmd
 856              	.LVL119:
 857              	.L80:
 953:..\..\..\u8g2\u8g2\csrc/u8x8_d_st75256.c ****             
 954:..\..\..\u8g2\u8g2\csrc/u8x8_d_st75256.c ****               
 955:..\..\..\u8g2\u8g2\csrc/u8x8_d_st75256.c ****               do
 956:..\..\..\u8g2\u8g2\csrc/u8x8_d_st75256.c ****               {
 957:..\..\..\u8g2\u8g2\csrc/u8x8_d_st75256.c ****                 c = ((u8x8_tile_t *)arg_ptr)->cnt;
 858              		.loc 1 957 0
 859 007a 3B79     		ldrb	r3, [r7, #4]	@ zero_extendqisi2
 860              	.LVL120:
 958:..\..\..\u8g2\u8g2\csrc/u8x8_d_st75256.c ****                 ptr = ((u8x8_tile_t *)arg_ptr)->tile_ptr;
 861              		.loc 1 958 0
 862 007c 3A68     		ldr	r2, [r7]
 863              	.LVL121:
 959:..\..\..\u8g2\u8g2\csrc/u8x8_d_st75256.c ****                 c *= 8;
 864              		.loc 1 959 0
 865 007e DB00     		lsls	r3, r3, #3
 866              	.LVL122:
 867 0080 DDB2     		uxtb	r5, r3
 868              	.LVL123:
 960:..\..\..\u8g2\u8g2\csrc/u8x8_d_st75256.c **** 
 961:..\..\..\u8g2\u8g2\csrc/u8x8_d_st75256.c ****                 if ( c + x > 240u )
 869              		.loc 1 961 0
 870 0082 05EB0803 		add	r3, r5, r8
 871 0086 F02B     		cmp	r3, #240
 872              	.LVL124:
 962:..\..\..\u8g2\u8g2\csrc/u8x8_d_st75256.c ****                 {
 963:..\..\..\u8g2\u8g2\csrc/u8x8_d_st75256.c ****                         c = 240u;
 964:..\..\..\u8g2\u8g2\csrc/u8x8_d_st75256.c ****                         c -= x;
 873              		.loc 1 964 0
 874 0088 C4BF     		itt	gt
 875 008a C8F1F003 		rsbgt	r3, r8, #240
 876 008e DDB2     		uxtbgt	r5, r3
 877              	.LVL125:
ARM GAS  C:\Users\jesse\AppData\Local\Temp\cc6zNusR.s 			page 34


 965:..\..\..\u8g2\u8g2\csrc/u8x8_d_st75256.c ****                 }
 966:..\..\..\u8g2\u8g2\csrc/u8x8_d_st75256.c ****                       
 967:..\..\..\u8g2\u8g2\csrc/u8x8_d_st75256.c ****                 u8x8_cad_SendData(u8x8, c, ptr); 	
 878              		.loc 1 967 0
 879 0090 2946     		mov	r1, r5
 880 0092 2046     		mov	r0, r4
 968:..\..\..\u8g2\u8g2\csrc/u8x8_d_st75256.c ****                 x += c;
 969:..\..\..\u8g2\u8g2\csrc/u8x8_d_st75256.c ****                 arg_int--;
 881              		.loc 1 969 0
 882 0094 013E     		subs	r6, r6, #1
 883              	.LVL126:
 967:..\..\..\u8g2\u8g2\csrc/u8x8_d_st75256.c ****                 x += c;
 884              		.loc 1 967 0
 885 0096 FFF7FEFF 		bl	u8x8_cad_SendData
 886              	.LVL127:
 968:..\..\..\u8g2\u8g2\csrc/u8x8_d_st75256.c ****                 x += c;
 887              		.loc 1 968 0
 888 009a 4544     		add	r5, r5, r8
 889              	.LVL128:
 970:..\..\..\u8g2\u8g2\csrc/u8x8_d_st75256.c ****               } while( arg_int > 0 );
 890              		.loc 1 970 0
 891 009c 16F0FF06 		ands	r6, r6, #255
 968:..\..\..\u8g2\u8g2\csrc/u8x8_d_st75256.c ****                 x += c;
 892              		.loc 1 968 0
 893 00a0 5FFA85F8 		uxtb	r8, r5
 894              	.LVL129:
 895              		.loc 1 970 0
 896 00a4 E9D1     		bne	.L80
 897 00a6 32E0     		b	.L86
 898              	.LVL130:
 899              	.L70:
 971:..\..\..\u8g2\u8g2\csrc/u8x8_d_st75256.c ****               
 972:..\..\..\u8g2\u8g2\csrc/u8x8_d_st75256.c ****               u8x8_cad_EndTransfer(u8x8);
 973:..\..\..\u8g2\u8g2\csrc/u8x8_d_st75256.c ****               return 1;
 974:..\..\..\u8g2\u8g2\csrc/u8x8_d_st75256.c ****         case U8X8_MSG_DISPLAY_SETUP_MEMORY:
 975:..\..\..\u8g2\u8g2\csrc/u8x8_d_st75256.c ****             //u8x8_SetI2CAddress(u8x8, 0x078);		/* lowest I2C adr of the ST75256 */
 976:..\..\..\u8g2\u8g2\csrc/u8x8_d_st75256.c **** 	    u8x8_d_helper_display_setup_memory(u8x8, &u8x8_st75256_240x160_display_info);
 900              		.loc 1 976 0
 901 00a8 1D49     		ldr	r1, .L89
 902 00aa FFF7FEFF 		bl	u8x8_d_helper_display_setup_memory
 903              	.LVL131:
 904 00ae 31E0     		b	.L85
 905              	.LVL132:
 906              	.L72:
 977:..\..\..\u8g2\u8g2\csrc/u8x8_d_st75256.c ****             return 1;
 978:..\..\..\u8g2\u8g2\csrc/u8x8_d_st75256.c ****         case U8X8_MSG_DISPLAY_INIT:
 979:..\..\..\u8g2\u8g2\csrc/u8x8_d_st75256.c **** 	    u8x8_d_helper_display_init(u8x8);
 907              		.loc 1 979 0
 908 00b0 FFF7FEFF 		bl	u8x8_d_helper_display_init
 909              	.LVL133:
 980:..\..\..\u8g2\u8g2\csrc/u8x8_d_st75256.c **** 	    u8x8_cad_SendSequence(u8x8, u8x8_d_st75256_240x160_init_seq);    
 910              		.loc 1 980 0
 911 00b4 1B49     		ldr	r1, .L89+4
 912 00b6 03E0     		b	.L87
 913              	.LVL134:
 914              	.L73:
 981:..\..\..\u8g2\u8g2\csrc/u8x8_d_st75256.c ****             return 1;
ARM GAS  C:\Users\jesse\AppData\Local\Temp\cc6zNusR.s 			page 35


 982:..\..\..\u8g2\u8g2\csrc/u8x8_d_st75256.c ****         case U8X8_MSG_DISPLAY_SET_POWER_SAVE:
 983:..\..\..\u8g2\u8g2\csrc/u8x8_d_st75256.c ****               if ( arg_int == 0 )
 915              		.loc 1 983 0
 916 00b8 0AB9     		cbnz	r2, .L81
 984:..\..\..\u8g2\u8g2\csrc/u8x8_d_st75256.c ****                 u8x8_cad_SendSequence(u8x8, u8x8_d_st75256_256x128_powersave0_seq);
 917              		.loc 1 984 0
 918 00ba 1B49     		ldr	r1, .L89+8
 919 00bc 00E0     		b	.L87
 920              	.L81:
 985:..\..\..\u8g2\u8g2\csrc/u8x8_d_st75256.c ****               else
 986:..\..\..\u8g2\u8g2\csrc/u8x8_d_st75256.c ****                 u8x8_cad_SendSequence(u8x8, u8x8_d_st75256_256x128_powersave1_seq);
 921              		.loc 1 986 0
 922 00be 1B49     		ldr	r1, .L89+12
 923              	.LVL135:
 924              	.L87:
 925 00c0 2046     		mov	r0, r4
 926 00c2 FFF7FEFF 		bl	u8x8_cad_SendSequence
 927              	.LVL136:
 928 00c6 25E0     		b	.L85
 929              	.LVL137:
 930              	.L74:
 987:..\..\..\u8g2\u8g2\csrc/u8x8_d_st75256.c **** 
 988:..\..\..\u8g2\u8g2\csrc/u8x8_d_st75256.c ****               return 1;
 989:..\..\..\u8g2\u8g2\csrc/u8x8_d_st75256.c **** 	case U8X8_MSG_DISPLAY_SET_FLIP_MODE:
 990:..\..\..\u8g2\u8g2\csrc/u8x8_d_st75256.c **** 	    if ( arg_int == 0 )
 931              		.loc 1 990 0
 932 00c8 2AB9     		cbnz	r2, .L82
 991:..\..\..\u8g2\u8g2\csrc/u8x8_d_st75256.c **** 	    {
 992:..\..\..\u8g2\u8g2\csrc/u8x8_d_st75256.c **** 	      u8x8_cad_SendSequence(u8x8, u8x8_d_st75256_jlx172104_flip0_seq);
 933              		.loc 1 992 0
 934 00ca 1949     		ldr	r1, .L89+16
 935 00cc FFF7FEFF 		bl	u8x8_cad_SendSequence
 936              	.LVL138:
 993:..\..\..\u8g2\u8g2\csrc/u8x8_d_st75256.c **** 	      u8x8->x_offset = u8x8->display_info->default_x_offset;
 937              		.loc 1 993 0
 938 00d0 2368     		ldr	r3, [r4]
 939 00d2 9B7C     		ldrb	r3, [r3, #18]	@ zero_extendqisi2
 940 00d4 04E0     		b	.L88
 941              	.LVL139:
 942              	.L82:
 994:..\..\..\u8g2\u8g2\csrc/u8x8_d_st75256.c **** 	    }
 995:..\..\..\u8g2\u8g2\csrc/u8x8_d_st75256.c **** 	    else
 996:..\..\..\u8g2\u8g2\csrc/u8x8_d_st75256.c **** 	    {
 997:..\..\..\u8g2\u8g2\csrc/u8x8_d_st75256.c **** 	      u8x8_cad_SendSequence(u8x8, u8x8_d_st75256_jlx172104_flip1_seq);
 943              		.loc 1 997 0
 944 00d6 1749     		ldr	r1, .L89+20
 945 00d8 FFF7FEFF 		bl	u8x8_cad_SendSequence
 946              	.LVL140:
 998:..\..\..\u8g2\u8g2\csrc/u8x8_d_st75256.c **** 	      u8x8->x_offset = u8x8->display_info->flipmode_x_offset;
 947              		.loc 1 998 0
 948 00dc 2368     		ldr	r3, [r4]
 949 00de DB7C     		ldrb	r3, [r3, #19]	@ zero_extendqisi2
 950              	.L88:
 951 00e0 84F82230 		strb	r3, [r4, #34]
 952 00e4 16E0     		b	.L85
 953              	.LVL141:
 954              	.L75:
ARM GAS  C:\Users\jesse\AppData\Local\Temp\cc6zNusR.s 			page 36


 999:..\..\..\u8g2\u8g2\csrc/u8x8_d_st75256.c **** 	    }
1000:..\..\..\u8g2\u8g2\csrc/u8x8_d_st75256.c **** 	    return 1;
1001:..\..\..\u8g2\u8g2\csrc/u8x8_d_st75256.c **** 		
1002:..\..\..\u8g2\u8g2\csrc/u8x8_d_st75256.c **** #ifdef U8X8_WITH_SET_CONTRAST
1003:..\..\..\u8g2\u8g2\csrc/u8x8_d_st75256.c ****         case U8X8_MSG_DISPLAY_SET_CONTRAST:
1004:..\..\..\u8g2\u8g2\csrc/u8x8_d_st75256.c **** 
1005:..\..\..\u8g2\u8g2\csrc/u8x8_d_st75256.c ****               u8x8_cad_StartTransfer(u8x8);
 955              		.loc 1 1005 0
 956 00e6 FFF7FEFF 		bl	u8x8_cad_StartTransfer
 957              	.LVL142:
1006:..\..\..\u8g2\u8g2\csrc/u8x8_d_st75256.c ****               
1007:..\..\..\u8g2\u8g2\csrc/u8x8_d_st75256.c ****               u8x8_cad_SendCmd(u8x8, 0x030 );
 958              		.loc 1 1007 0
 959 00ea 3021     		movs	r1, #48
 960 00ec 2046     		mov	r0, r4
 961 00ee FFF7FEFF 		bl	u8x8_cad_SendCmd
 962              	.LVL143:
1008:..\..\..\u8g2\u8g2\csrc/u8x8_d_st75256.c ****               u8x8_cad_SendCmd(u8x8, 0x081 );  /* there are 9 bit for the volume control */
 963              		.loc 1 1008 0
 964 00f2 8121     		movs	r1, #129
 965 00f4 2046     		mov	r0, r4
 966 00f6 FFF7FEFF 		bl	u8x8_cad_SendCmd
 967              	.LVL144:
1009:..\..\..\u8g2\u8g2\csrc/u8x8_d_st75256.c ****               u8x8_cad_SendArg(u8x8, (arg_int & 0x1f)<<1 );	/* lower 6 bit */
 968              		.loc 1 1009 0
 969 00fa 7100     		lsls	r1, r6, #1
 970 00fc 01F03E01 		and	r1, r1, #62
 971 0100 2046     		mov	r0, r4
 972 0102 FFF7FEFF 		bl	u8x8_cad_SendArg
 973              	.LVL145:
1010:..\..\..\u8g2\u8g2\csrc/u8x8_d_st75256.c ****               u8x8_cad_SendArg(u8x8, (arg_int>>5));		/* upper 3 bit */
 974              		.loc 1 1010 0
 975 0106 7109     		lsrs	r1, r6, #5
 976 0108 2046     		mov	r0, r4
 977 010a FFF7FEFF 		bl	u8x8_cad_SendArg
 978              	.LVL146:
 979              	.L86:
1011:..\..\..\u8g2\u8g2\csrc/u8x8_d_st75256.c ****               
1012:..\..\..\u8g2\u8g2\csrc/u8x8_d_st75256.c ****               u8x8_cad_EndTransfer(u8x8);
 980              		.loc 1 1012 0
 981 010e 2046     		mov	r0, r4
 982 0110 FFF7FEFF 		bl	u8x8_cad_EndTransfer
 983              	.LVL147:
 984              	.L85:
1013:..\..\..\u8g2\u8g2\csrc/u8x8_d_st75256.c ****               return 1;
 985              		.loc 1 1013 0
 986 0114 0120     		movs	r0, #1
 987 0116 BDE8F081 		pop	{r4, r5, r6, r7, r8, pc}
 988              	.LVL148:
 989              	.L83:
1014:..\..\..\u8g2\u8g2\csrc/u8x8_d_st75256.c **** #endif
1015:..\..\..\u8g2\u8g2\csrc/u8x8_d_st75256.c ****   }
1016:..\..\..\u8g2\u8g2\csrc/u8x8_d_st75256.c ****   return 0;
 990              		.loc 1 1016 0
 991 011a 0020     		movs	r0, #0
 992              	.LVL149:
1017:..\..\..\u8g2\u8g2\csrc/u8x8_d_st75256.c ****   
ARM GAS  C:\Users\jesse\AppData\Local\Temp\cc6zNusR.s 			page 37


1018:..\..\..\u8g2\u8g2\csrc/u8x8_d_st75256.c ****   
1019:..\..\..\u8g2\u8g2\csrc/u8x8_d_st75256.c ****   
1020:..\..\..\u8g2\u8g2\csrc/u8x8_d_st75256.c **** }
 993              		.loc 1 1020 0
 994 011c BDE8F081 		pop	{r4, r5, r6, r7, r8, pc}
 995              	.LVL150:
 996              	.L90:
 997              		.align	2
 998              	.L89:
 999 0120 54020000 		.word	.LANCHOR0+596
 1000 0124 6C020000 		.word	.LANCHOR0+620
 1001 0128 00000000 		.word	.LANCHOR0
 1002 012c 0B000000 		.word	.LANCHOR0+11
 1003 0130 3E010000 		.word	.LANCHOR0+318
 1004 0134 31010000 		.word	.LANCHOR0+305
 1005              		.cfi_endproc
 1006              	.LFE5:
 1007              		.size	u8x8_d_st75256_jlx240160, .-u8x8_d_st75256_jlx240160
 1008              		.section	.text.u8x8_d_st75256_jlx256160,"ax",%progbits
 1009              		.align	1
 1010              		.global	u8x8_d_st75256_jlx256160
 1011              		.thumb
 1012              		.thumb_func
 1013              		.type	u8x8_d_st75256_jlx256160, %function
 1014              	u8x8_d_st75256_jlx256160:
 1015              	.LFB6:
1021:..\..\..\u8g2\u8g2\csrc/u8x8_d_st75256.c **** 
1022:..\..\..\u8g2\u8g2\csrc/u8x8_d_st75256.c **** 
1023:..\..\..\u8g2\u8g2\csrc/u8x8_d_st75256.c **** /*=============================================*/
1024:..\..\..\u8g2\u8g2\csrc/u8x8_d_st75256.c **** /* JLX256160 */
1025:..\..\..\u8g2\u8g2\csrc/u8x8_d_st75256.c **** 
1026:..\..\..\u8g2\u8g2\csrc/u8x8_d_st75256.c **** static const u8x8_display_info_t u8x8_st75256_256x160_display_info =
1027:..\..\..\u8g2\u8g2\csrc/u8x8_d_st75256.c **** {
1028:..\..\..\u8g2\u8g2\csrc/u8x8_d_st75256.c ****   /* chip_enable_level = */ 0,
1029:..\..\..\u8g2\u8g2\csrc/u8x8_d_st75256.c ****   /* chip_disable_level = */ 1,
1030:..\..\..\u8g2\u8g2\csrc/u8x8_d_st75256.c ****   
1031:..\..\..\u8g2\u8g2\csrc/u8x8_d_st75256.c ****   /* post_chip_enable_wait_ns = */ 20,
1032:..\..\..\u8g2\u8g2\csrc/u8x8_d_st75256.c ****   /* pre_chip_disable_wait_ns = */ 20,
1033:..\..\..\u8g2\u8g2\csrc/u8x8_d_st75256.c ****   /* reset_pulse_width_ms = */ 5, 	
1034:..\..\..\u8g2\u8g2\csrc/u8x8_d_st75256.c ****   /* post_reset_wait_ms = */ 5, 		/**/
1035:..\..\..\u8g2\u8g2\csrc/u8x8_d_st75256.c ****   /* sda_setup_time_ns = */ 20,		/* */
1036:..\..\..\u8g2\u8g2\csrc/u8x8_d_st75256.c ****   /* sck_pulse_width_ns = */ 40,	/*  */
1037:..\..\..\u8g2\u8g2\csrc/u8x8_d_st75256.c ****   /* sck_clock_hz = */ 4000000UL,	/* since Arduino 1.6.0, the SPI bus speed in Hz. Should be  10000
1038:..\..\..\u8g2\u8g2\csrc/u8x8_d_st75256.c ****   /* spi_mode = */ 0,		/* active high, rising edge */
1039:..\..\..\u8g2\u8g2\csrc/u8x8_d_st75256.c ****   /* i2c_bus_clock_100kHz = */ 4,	/* 400KHz */
1040:..\..\..\u8g2\u8g2\csrc/u8x8_d_st75256.c ****   /* data_setup_time_ns = */ 15,
1041:..\..\..\u8g2\u8g2\csrc/u8x8_d_st75256.c ****   /* write_pulse_width_ns = */ 70,	
1042:..\..\..\u8g2\u8g2\csrc/u8x8_d_st75256.c ****   /* tile_width = */ 32,
1043:..\..\..\u8g2\u8g2\csrc/u8x8_d_st75256.c ****   /* tile_hight = */ 20,
1044:..\..\..\u8g2\u8g2\csrc/u8x8_d_st75256.c ****   /* default_x_offset = */ 0,
1045:..\..\..\u8g2\u8g2\csrc/u8x8_d_st75256.c ****   /* flipmode_x_offset = */ 1,	/* x offset is used as y offset in flipmode */
1046:..\..\..\u8g2\u8g2\csrc/u8x8_d_st75256.c ****   /* pixel_width = */ 256,
1047:..\..\..\u8g2\u8g2\csrc/u8x8_d_st75256.c ****   /* pixel_height = */ 160
1048:..\..\..\u8g2\u8g2\csrc/u8x8_d_st75256.c **** };
1049:..\..\..\u8g2\u8g2\csrc/u8x8_d_st75256.c **** 
1050:..\..\..\u8g2\u8g2\csrc/u8x8_d_st75256.c **** 
1051:..\..\..\u8g2\u8g2\csrc/u8x8_d_st75256.c **** static const uint8_t u8x8_d_st75256_256x160_init_seq[] = {
ARM GAS  C:\Users\jesse\AppData\Local\Temp\cc6zNusR.s 			page 38


1052:..\..\..\u8g2\u8g2\csrc/u8x8_d_st75256.c ****   U8X8_START_TRANSFER(),             	/* enable chip, delay is part of the transfer start */
1053:..\..\..\u8g2\u8g2\csrc/u8x8_d_st75256.c ****   
1054:..\..\..\u8g2\u8g2\csrc/u8x8_d_st75256.c ****   U8X8_DLY(20),
1055:..\..\..\u8g2\u8g2\csrc/u8x8_d_st75256.c **** 
1056:..\..\..\u8g2\u8g2\csrc/u8x8_d_st75256.c ****   U8X8_C( 0x030 ),				/* select 00 commands */
1057:..\..\..\u8g2\u8g2\csrc/u8x8_d_st75256.c ****   U8X8_C( 0x094 ),				/* sleep out */
1058:..\..\..\u8g2\u8g2\csrc/u8x8_d_st75256.c **** 
1059:..\..\..\u8g2\u8g2\csrc/u8x8_d_st75256.c ****   //U8X8_C( 0x030 ),				/* select 00 commands */
1060:..\..\..\u8g2\u8g2\csrc/u8x8_d_st75256.c ****   U8X8_C( 0x0ae ),				/* display off */
1061:..\..\..\u8g2\u8g2\csrc/u8x8_d_st75256.c **** 
1062:..\..\..\u8g2\u8g2\csrc/u8x8_d_st75256.c ****   U8X8_C( 0x031 ),				/* select 01 commands */
1063:..\..\..\u8g2\u8g2\csrc/u8x8_d_st75256.c ****   U8X8_CA( 0x0d7, 0x09f ),		/* disable auto read */  
1064:..\..\..\u8g2\u8g2\csrc/u8x8_d_st75256.c **** 
1065:..\..\..\u8g2\u8g2\csrc/u8x8_d_st75256.c ****   //U8X8_C( 0x031 ),				/* select 01 commands */
1066:..\..\..\u8g2\u8g2\csrc/u8x8_d_st75256.c ****   U8X8_C( 0x032 ),				/* analog circuit set */
1067:..\..\..\u8g2\u8g2\csrc/u8x8_d_st75256.c ****   U8X8_A( 0x000 ),				/* code example: OSC Frequency adjustment */
1068:..\..\..\u8g2\u8g2\csrc/u8x8_d_st75256.c ****   U8X8_A( 0x001 ),				/* Frequency on booster capacitors 1 = 6KHz? */
1069:..\..\..\u8g2\u8g2\csrc/u8x8_d_st75256.c ****   U8X8_A( 0x000 ),				/* Bias: 1: 1/13, 2: 1/12, 3: 1/11, 4:1/10, 5:1/9 */
1070:..\..\..\u8g2\u8g2\csrc/u8x8_d_st75256.c ****     
1071:..\..\..\u8g2\u8g2\csrc/u8x8_d_st75256.c ****   //U8X8_C( 0x031 ),				/* select 01 commands */
1072:..\..\..\u8g2\u8g2\csrc/u8x8_d_st75256.c ****   U8X8_C( 0x020 ),				/* gray levels */
1073:..\..\..\u8g2\u8g2\csrc/u8x8_d_st75256.c ****   U8X8_A( 0x01 ),
1074:..\..\..\u8g2\u8g2\csrc/u8x8_d_st75256.c ****   U8X8_A( 0x03 ),
1075:..\..\..\u8g2\u8g2\csrc/u8x8_d_st75256.c ****   U8X8_A( 0x05 ),
1076:..\..\..\u8g2\u8g2\csrc/u8x8_d_st75256.c ****   U8X8_A( 0x07 ),
1077:..\..\..\u8g2\u8g2\csrc/u8x8_d_st75256.c ****   U8X8_A( 0x09),
1078:..\..\..\u8g2\u8g2\csrc/u8x8_d_st75256.c ****   U8X8_A( 0x0b ),
1079:..\..\..\u8g2\u8g2\csrc/u8x8_d_st75256.c ****   U8X8_A( 0x0d ),
1080:..\..\..\u8g2\u8g2\csrc/u8x8_d_st75256.c ****   U8X8_A( 0x10 ),
1081:..\..\..\u8g2\u8g2\csrc/u8x8_d_st75256.c ****   U8X8_A( 0x11 ),
1082:..\..\..\u8g2\u8g2\csrc/u8x8_d_st75256.c ****   U8X8_A( 0x13 ),
1083:..\..\..\u8g2\u8g2\csrc/u8x8_d_st75256.c ****   U8X8_A( 0x15 ),
1084:..\..\..\u8g2\u8g2\csrc/u8x8_d_st75256.c ****   U8X8_A( 0x17 ),
1085:..\..\..\u8g2\u8g2\csrc/u8x8_d_st75256.c ****   U8X8_A( 0x19 ),
1086:..\..\..\u8g2\u8g2\csrc/u8x8_d_st75256.c ****   U8X8_A( 0x1b ),
1087:..\..\..\u8g2\u8g2\csrc/u8x8_d_st75256.c ****   U8X8_A( 0x1d ),
1088:..\..\..\u8g2\u8g2\csrc/u8x8_d_st75256.c ****   U8X8_A( 0x1f ),
1089:..\..\..\u8g2\u8g2\csrc/u8x8_d_st75256.c ****  
1090:..\..\..\u8g2\u8g2\csrc/u8x8_d_st75256.c ****   
1091:..\..\..\u8g2\u8g2\csrc/u8x8_d_st75256.c ****   U8X8_C( 0x030 ),				/* select 00 commands */
1092:..\..\..\u8g2\u8g2\csrc/u8x8_d_st75256.c ****   U8X8_CAA(0x75, 0, 0x28),		/* row range */
1093:..\..\..\u8g2\u8g2\csrc/u8x8_d_st75256.c ****   U8X8_CAA(0x15, 0, 0xFF),		/* col range */
1094:..\..\..\u8g2\u8g2\csrc/u8x8_d_st75256.c ****   
1095:..\..\..\u8g2\u8g2\csrc/u8x8_d_st75256.c ****   //U8X8_C( 0x030 ),				/* select 00 commands */
1096:..\..\..\u8g2\u8g2\csrc/u8x8_d_st75256.c ****   U8X8_CA( 0xbc, 0x00 ),			/* data scan dir */
1097:..\..\..\u8g2\u8g2\csrc/u8x8_d_st75256.c ****   U8X8_A( 0xa6 ),				/* ??? */
1098:..\..\..\u8g2\u8g2\csrc/u8x8_d_st75256.c **** 
1099:..\..\..\u8g2\u8g2\csrc/u8x8_d_st75256.c ****   //U8X8_C( 0x030 ),				/* select 00 commands */
1100:..\..\..\u8g2\u8g2\csrc/u8x8_d_st75256.c ****   U8X8_C( 0x00c ),				/* data format LSB top */
1101:..\..\..\u8g2\u8g2\csrc/u8x8_d_st75256.c **** 
1102:..\..\..\u8g2\u8g2\csrc/u8x8_d_st75256.c ****   //U8X8_C( 0x030 ),				/* select 00 commands */ 
1103:..\..\..\u8g2\u8g2\csrc/u8x8_d_st75256.c ****   U8X8_C( 0xca ),				/* display control, 3 args follow  */
1104:..\..\..\u8g2\u8g2\csrc/u8x8_d_st75256.c ****   U8X8_A( 0x00 ),				/* 0x00: no clock division, 0x04: devide clock */
1105:..\..\..\u8g2\u8g2\csrc/u8x8_d_st75256.c ****   U8X8_A( 159 ),				/* 1/160 duty value from the DS example code */
1106:..\..\..\u8g2\u8g2\csrc/u8x8_d_st75256.c ****   U8X8_A( 0x20 ),				/* nline off */ 
1107:..\..\..\u8g2\u8g2\csrc/u8x8_d_st75256.c **** 
1108:..\..\..\u8g2\u8g2\csrc/u8x8_d_st75256.c ****   //U8X8_C( 0x030 ),				/* select 00 commands */ 
ARM GAS  C:\Users\jesse\AppData\Local\Temp\cc6zNusR.s 			page 39


1109:..\..\..\u8g2\u8g2\csrc/u8x8_d_st75256.c ****   U8X8_CA( 0x0f0, 0x010 ),		/* monochrome mode  = 0x010*/
1110:..\..\..\u8g2\u8g2\csrc/u8x8_d_st75256.c **** 
1111:..\..\..\u8g2\u8g2\csrc/u8x8_d_st75256.c ****   //U8X8_C( 0x030 ),				/* select 00 commands */
1112:..\..\..\u8g2\u8g2\csrc/u8x8_d_st75256.c ****   U8X8_CAA( 0x81, 0x18, 0x05 ),	/* Volume control */
1113:..\..\..\u8g2\u8g2\csrc/u8x8_d_st75256.c **** 
1114:..\..\..\u8g2\u8g2\csrc/u8x8_d_st75256.c ****   //U8X8_C( 0x030 ),				/* select 00 commands */
1115:..\..\..\u8g2\u8g2\csrc/u8x8_d_st75256.c ****   U8X8_CA( 0x020, 0x00b ),		/* Power control: Regulator, follower & booster on */
1116:..\..\..\u8g2\u8g2\csrc/u8x8_d_st75256.c ****   U8X8_DLY(100),
1117:..\..\..\u8g2\u8g2\csrc/u8x8_d_st75256.c **** 
1118:..\..\..\u8g2\u8g2\csrc/u8x8_d_st75256.c ****   U8X8_END_TRANSFER(),             	/* disable chip */
1119:..\..\..\u8g2\u8g2\csrc/u8x8_d_st75256.c ****   U8X8_END()             			/* end of sequence */
1120:..\..\..\u8g2\u8g2\csrc/u8x8_d_st75256.c **** };
1121:..\..\..\u8g2\u8g2\csrc/u8x8_d_st75256.c **** 
1122:..\..\..\u8g2\u8g2\csrc/u8x8_d_st75256.c **** 
1123:..\..\..\u8g2\u8g2\csrc/u8x8_d_st75256.c **** uint8_t u8x8_d_st75256_jlx256160(u8x8_t *u8x8, uint8_t msg, uint8_t arg_int, void *arg_ptr)
1124:..\..\..\u8g2\u8g2\csrc/u8x8_d_st75256.c **** {
 1016              		.loc 1 1124 0
 1017              		.cfi_startproc
 1018              		@ args = 0, pretend = 0, frame = 0
 1019              		@ frame_needed = 0, uses_anonymous_args = 0
 1020              	.LVL151:
1125:..\..\..\u8g2\u8g2\csrc/u8x8_d_st75256.c ****   uint8_t x, c;
1126:..\..\..\u8g2\u8g2\csrc/u8x8_d_st75256.c ****   uint8_t *ptr;
1127:..\..\..\u8g2\u8g2\csrc/u8x8_d_st75256.c **** 
1128:..\..\..\u8g2\u8g2\csrc/u8x8_d_st75256.c ****   switch(msg)
 1021              		.loc 1 1128 0
 1022 0000 0939     		subs	r1, r1, #9
 1023              	.LVL152:
1124:..\..\..\u8g2\u8g2\csrc/u8x8_d_st75256.c ****   uint8_t x, c;
 1024              		.loc 1 1124 0
 1025 0002 2DE9F041 		push	{r4, r5, r6, r7, r8, lr}
 1026              		.cfi_def_cfa_offset 24
 1027              		.cfi_offset 4, -24
 1028              		.cfi_offset 5, -20
 1029              		.cfi_offset 6, -16
 1030              		.cfi_offset 7, -12
 1031              		.cfi_offset 8, -8
 1032              		.cfi_offset 14, -4
1124:..\..\..\u8g2\u8g2\csrc/u8x8_d_st75256.c ****   uint8_t x, c;
 1033              		.loc 1 1124 0
 1034 0006 0446     		mov	r4, r0
 1035 0008 1546     		mov	r5, r2
 1036 000a 9846     		mov	r8, r3
 1037              		.loc 1 1128 0
 1038 000c 0629     		cmp	r1, #6
 1039 000e 00F28980 		bhi	.L106
 1040 0012 DFE801F0 		tbb	[pc, r1]
 1041              	.LVL153:
 1042              	.L94:
 1043 0016 4E       		.byte	(.L93-.L94)/2
 1044 0017 52       		.byte	(.L95-.L94)/2
 1045 0018 56       		.byte	(.L96-.L94)/2
 1046 0019 87       		.byte	(.L106-.L94)/2
 1047 001a 5E       		.byte	(.L97-.L94)/2
 1048 001b 6D       		.byte	(.L98-.L94)/2
 1049 001c 04       		.byte	(.L99-.L94)/2
 1050 001d 00       		.p2align 1
ARM GAS  C:\Users\jesse\AppData\Local\Temp\cc6zNusR.s 			page 40


 1051              	.L99:
1129:..\..\..\u8g2\u8g2\csrc/u8x8_d_st75256.c ****   {
1130:..\..\..\u8g2\u8g2\csrc/u8x8_d_st75256.c ****             case U8X8_MSG_DISPLAY_DRAW_TILE:
1131:..\..\..\u8g2\u8g2\csrc/u8x8_d_st75256.c ****               
1132:..\..\..\u8g2\u8g2\csrc/u8x8_d_st75256.c ****               u8x8_cad_StartTransfer(u8x8);
 1052              		.loc 1 1132 0
 1053 001e FFF7FEFF 		bl	u8x8_cad_StartTransfer
 1054              	.LVL154:
1133:..\..\..\u8g2\u8g2\csrc/u8x8_d_st75256.c ****               x = ((u8x8_tile_t *)arg_ptr)->x_pos;    
1134:..\..\..\u8g2\u8g2\csrc/u8x8_d_st75256.c ****               x *= 8;
1135:..\..\..\u8g2\u8g2\csrc/u8x8_d_st75256.c ****               
1136:..\..\..\u8g2\u8g2\csrc/u8x8_d_st75256.c ****               u8x8_cad_SendCmd(u8x8, 0x030 );	/* select command set */
 1055              		.loc 1 1136 0
 1056 0022 3021     		movs	r1, #48
 1057 0024 2046     		mov	r0, r4
1133:..\..\..\u8g2\u8g2\csrc/u8x8_d_st75256.c ****               x = ((u8x8_tile_t *)arg_ptr)->x_pos;    
 1058              		.loc 1 1133 0
 1059 0026 98F80560 		ldrb	r6, [r8, #5]	@ zero_extendqisi2
 1060              	.LVL155:
 1061              		.loc 1 1136 0
 1062 002a FFF7FEFF 		bl	u8x8_cad_SendCmd
 1063              	.LVL156:
1137:..\..\..\u8g2\u8g2\csrc/u8x8_d_st75256.c ****               u8x8_cad_SendCmd(u8x8, 0x075 );	/* row */
 1064              		.loc 1 1137 0
 1065 002e 7521     		movs	r1, #117
 1066 0030 2046     		mov	r0, r4
 1067 0032 FFF7FEFF 		bl	u8x8_cad_SendCmd
 1068              	.LVL157:
1138:..\..\..\u8g2\u8g2\csrc/u8x8_d_st75256.c **** 	      if ( u8x8->x_offset == 1 )		/* 1 means flip mode 1 */
 1069              		.loc 1 1138 0
 1070 0036 94F82230 		ldrb	r3, [r4, #34]	@ zero_extendqisi2
 1071 003a 98F80610 		ldrb	r1, [r8, #6]	@ zero_extendqisi2
 1072 003e 012B     		cmp	r3, #1
1139:..\..\..\u8g2\u8g2\csrc/u8x8_d_st75256.c **** 		u8x8_cad_SendArg(u8x8, 1+(((u8x8_tile_t *)arg_ptr)->y_pos));
 1073              		.loc 1 1139 0
 1074 0040 04BF     		itt	eq
 1075 0042 0131     		addeq	r1, r1, #1
 1076 0044 C9B2     		uxtbeq	r1, r1
1140:..\..\..\u8g2\u8g2\csrc/u8x8_d_st75256.c **** 	      else
1141:..\..\..\u8g2\u8g2\csrc/u8x8_d_st75256.c **** 		u8x8_cad_SendArg(u8x8, (((u8x8_tile_t *)arg_ptr)->y_pos));
 1077              		.loc 1 1141 0
 1078 0046 2046     		mov	r0, r4
 1079 0048 FFF7FEFF 		bl	u8x8_cad_SendArg
 1080              	.LVL158:
1142:..\..\..\u8g2\u8g2\csrc/u8x8_d_st75256.c ****               u8x8_cad_SendArg(u8x8, 0x04f);
 1081              		.loc 1 1142 0
 1082 004c 4F21     		movs	r1, #79
 1083 004e 2046     		mov	r0, r4
 1084 0050 FFF7FEFF 		bl	u8x8_cad_SendArg
 1085              	.LVL159:
1143:..\..\..\u8g2\u8g2\csrc/u8x8_d_st75256.c ****               //u8x8_cad_SendArg(u8x8, (((u8x8_tile_t *)arg_ptr)->y_pos));
1144:..\..\..\u8g2\u8g2\csrc/u8x8_d_st75256.c ****               u8x8_cad_SendCmd(u8x8, 0x015 );	/* col */
 1086              		.loc 1 1144 0
 1087 0054 1521     		movs	r1, #21
 1088 0056 2046     		mov	r0, r4
 1089 0058 FFF7FEFF 		bl	u8x8_cad_SendCmd
 1090              	.LVL160:
ARM GAS  C:\Users\jesse\AppData\Local\Temp\cc6zNusR.s 			page 41


1145:..\..\..\u8g2\u8g2\csrc/u8x8_d_st75256.c ****               u8x8_cad_SendArg(u8x8, x+u8x8->display_info->default_x_offset);
 1091              		.loc 1 1145 0
 1092 005c 2368     		ldr	r3, [r4]
1134:..\..\..\u8g2\u8g2\csrc/u8x8_d_st75256.c ****               
 1093              		.loc 1 1134 0
 1094 005e F600     		lsls	r6, r6, #3
 1095              	.LVL161:
 1096              		.loc 1 1145 0
 1097 0060 997C     		ldrb	r1, [r3, #18]	@ zero_extendqisi2
1134:..\..\..\u8g2\u8g2\csrc/u8x8_d_st75256.c ****               
 1098              		.loc 1 1134 0
 1099 0062 F6B2     		uxtb	r6, r6
 1100              	.LVL162:
 1101              		.loc 1 1145 0
 1102 0064 3144     		add	r1, r1, r6
 1103 0066 C9B2     		uxtb	r1, r1
 1104 0068 2046     		mov	r0, r4
 1105 006a FFF7FEFF 		bl	u8x8_cad_SendArg
 1106              	.LVL163:
1146:..\..\..\u8g2\u8g2\csrc/u8x8_d_st75256.c ****               u8x8_cad_SendArg(u8x8, 255);
 1107              		.loc 1 1146 0
 1108 006e FF21     		movs	r1, #255
 1109 0070 2046     		mov	r0, r4
 1110 0072 FFF7FEFF 		bl	u8x8_cad_SendArg
 1111              	.LVL164:
1147:..\..\..\u8g2\u8g2\csrc/u8x8_d_st75256.c ****               u8x8_cad_SendCmd(u8x8, 0x05c );	
 1112              		.loc 1 1147 0
 1113 0076 5C21     		movs	r1, #92
 1114 0078 2046     		mov	r0, r4
 1115 007a FFF7FEFF 		bl	u8x8_cad_SendCmd
 1116              	.LVL165:
 1117              	.L103:
1148:..\..\..\u8g2\u8g2\csrc/u8x8_d_st75256.c ****             
1149:..\..\..\u8g2\u8g2\csrc/u8x8_d_st75256.c ****               
1150:..\..\..\u8g2\u8g2\csrc/u8x8_d_st75256.c ****               do
1151:..\..\..\u8g2\u8g2\csrc/u8x8_d_st75256.c ****               {
1152:..\..\..\u8g2\u8g2\csrc/u8x8_d_st75256.c ****                 c = ((u8x8_tile_t *)arg_ptr)->cnt;
 1118              		.loc 1 1152 0
 1119 007e 98F80460 		ldrb	r6, [r8, #4]	@ zero_extendqisi2
 1120              	.LVL166:
1153:..\..\..\u8g2\u8g2\csrc/u8x8_d_st75256.c ****                 ptr = ((u8x8_tile_t *)arg_ptr)->tile_ptr;
 1121              		.loc 1 1153 0
 1122 0082 D8F80070 		ldr	r7, [r8]
 1123              	.LVL167:
1154:..\..\..\u8g2\u8g2\csrc/u8x8_d_st75256.c **** 		/* SendData can not handle more than 255 bytes, treat c > 31 correctly  */
1155:..\..\..\u8g2\u8g2\csrc/u8x8_d_st75256.c **** 		if ( c > 31 )
 1124              		.loc 1 1155 0
 1125 0086 1F2E     		cmp	r6, #31
 1126 0088 07D9     		bls	.L102
1156:..\..\..\u8g2\u8g2\csrc/u8x8_d_st75256.c **** 		{
1157:..\..\..\u8g2\u8g2\csrc/u8x8_d_st75256.c **** 		  u8x8_cad_SendData(u8x8, 248, ptr); 	/* 31*8=248 */
 1127              		.loc 1 1157 0
 1128 008a 3A46     		mov	r2, r7
 1129 008c F821     		movs	r1, #248
 1130 008e 2046     		mov	r0, r4
 1131 0090 FFF7FEFF 		bl	u8x8_cad_SendData
 1132              	.LVL168:
ARM GAS  C:\Users\jesse\AppData\Local\Temp\cc6zNusR.s 			page 42


1158:..\..\..\u8g2\u8g2\csrc/u8x8_d_st75256.c **** 		  ptr+=248;
1159:..\..\..\u8g2\u8g2\csrc/u8x8_d_st75256.c **** 		  c -= 31;
 1133              		.loc 1 1159 0
 1134 0094 1F3E     		subs	r6, r6, #31
 1135              	.LVL169:
1158:..\..\..\u8g2\u8g2\csrc/u8x8_d_st75256.c **** 		  ptr+=248;
 1136              		.loc 1 1158 0
 1137 0096 F837     		adds	r7, r7, #248
 1138              	.LVL170:
 1139              		.loc 1 1159 0
 1140 0098 F6B2     		uxtb	r6, r6
 1141              	.LVL171:
 1142              	.L102:
1160:..\..\..\u8g2\u8g2\csrc/u8x8_d_st75256.c **** 		}
1161:..\..\..\u8g2\u8g2\csrc/u8x8_d_st75256.c **** 		
1162:..\..\..\u8g2\u8g2\csrc/u8x8_d_st75256.c **** 		u8x8_cad_SendData(u8x8, c*8, ptr); 	
 1143              		.loc 1 1162 0
 1144 009a F100     		lsls	r1, r6, #3
 1145 009c 3A46     		mov	r2, r7
 1146 009e 01F0F801 		and	r1, r1, #248
 1147 00a2 2046     		mov	r0, r4
1163:..\..\..\u8g2\u8g2\csrc/u8x8_d_st75256.c ****                 arg_int--;
 1148              		.loc 1 1163 0
 1149 00a4 013D     		subs	r5, r5, #1
 1150              	.LVL172:
1162:..\..\..\u8g2\u8g2\csrc/u8x8_d_st75256.c ****                 arg_int--;
 1151              		.loc 1 1162 0
 1152 00a6 FFF7FEFF 		bl	u8x8_cad_SendData
 1153              	.LVL173:
1164:..\..\..\u8g2\u8g2\csrc/u8x8_d_st75256.c ****               } while( arg_int > 0 );
 1154              		.loc 1 1164 0
 1155 00aa 15F0FF05 		ands	r5, r5, #255
 1156              	.LVL174:
 1157 00ae E6D1     		bne	.L103
 1158 00b0 32E0     		b	.L109
 1159              	.LVL175:
 1160              	.L93:
1165:..\..\..\u8g2\u8g2\csrc/u8x8_d_st75256.c ****               
1166:..\..\..\u8g2\u8g2\csrc/u8x8_d_st75256.c ****               u8x8_cad_EndTransfer(u8x8);
1167:..\..\..\u8g2\u8g2\csrc/u8x8_d_st75256.c ****               return 1;
1168:..\..\..\u8g2\u8g2\csrc/u8x8_d_st75256.c ****         case U8X8_MSG_DISPLAY_SETUP_MEMORY:
1169:..\..\..\u8g2\u8g2\csrc/u8x8_d_st75256.c ****             //u8x8_SetI2CAddress(u8x8, 0x078);		/* lowest I2C adr of the ST75256 */
1170:..\..\..\u8g2\u8g2\csrc/u8x8_d_st75256.c **** 	    u8x8_d_helper_display_setup_memory(u8x8, &u8x8_st75256_256x160_display_info);
 1161              		.loc 1 1170 0
 1162 00b2 1E49     		ldr	r1, .L112
 1163 00b4 FFF7FEFF 		bl	u8x8_d_helper_display_setup_memory
 1164              	.LVL176:
 1165 00b8 31E0     		b	.L108
 1166              	.LVL177:
 1167              	.L95:
1171:..\..\..\u8g2\u8g2\csrc/u8x8_d_st75256.c ****             return 1;
1172:..\..\..\u8g2\u8g2\csrc/u8x8_d_st75256.c ****         case U8X8_MSG_DISPLAY_INIT:
1173:..\..\..\u8g2\u8g2\csrc/u8x8_d_st75256.c **** 	    u8x8_d_helper_display_init(u8x8);
 1168              		.loc 1 1173 0
 1169 00ba FFF7FEFF 		bl	u8x8_d_helper_display_init
 1170              	.LVL178:
1174:..\..\..\u8g2\u8g2\csrc/u8x8_d_st75256.c **** 	    u8x8_cad_SendSequence(u8x8, u8x8_d_st75256_256x160_init_seq);    
ARM GAS  C:\Users\jesse\AppData\Local\Temp\cc6zNusR.s 			page 43


 1171              		.loc 1 1174 0
 1172 00be 1C49     		ldr	r1, .L112+4
 1173 00c0 03E0     		b	.L110
 1174              	.LVL179:
 1175              	.L96:
1175:..\..\..\u8g2\u8g2\csrc/u8x8_d_st75256.c ****             return 1;
1176:..\..\..\u8g2\u8g2\csrc/u8x8_d_st75256.c ****         case U8X8_MSG_DISPLAY_SET_POWER_SAVE:
1177:..\..\..\u8g2\u8g2\csrc/u8x8_d_st75256.c ****               if ( arg_int == 0 )
 1176              		.loc 1 1177 0
 1177 00c2 0AB9     		cbnz	r2, .L104
1178:..\..\..\u8g2\u8g2\csrc/u8x8_d_st75256.c ****                 u8x8_cad_SendSequence(u8x8, u8x8_d_st75256_256x128_powersave0_seq);
 1178              		.loc 1 1178 0
 1179 00c4 1B49     		ldr	r1, .L112+8
 1180 00c6 00E0     		b	.L110
 1181              	.L104:
1179:..\..\..\u8g2\u8g2\csrc/u8x8_d_st75256.c ****               else
1180:..\..\..\u8g2\u8g2\csrc/u8x8_d_st75256.c ****                 u8x8_cad_SendSequence(u8x8, u8x8_d_st75256_256x128_powersave1_seq);
 1182              		.loc 1 1180 0
 1183 00c8 1B49     		ldr	r1, .L112+12
 1184              	.LVL180:
 1185              	.L110:
 1186 00ca 2046     		mov	r0, r4
 1187 00cc FFF7FEFF 		bl	u8x8_cad_SendSequence
 1188              	.LVL181:
 1189 00d0 25E0     		b	.L108
 1190              	.LVL182:
 1191              	.L97:
1181:..\..\..\u8g2\u8g2\csrc/u8x8_d_st75256.c **** 
1182:..\..\..\u8g2\u8g2\csrc/u8x8_d_st75256.c ****               return 1;
1183:..\..\..\u8g2\u8g2\csrc/u8x8_d_st75256.c **** 	case U8X8_MSG_DISPLAY_SET_FLIP_MODE:
1184:..\..\..\u8g2\u8g2\csrc/u8x8_d_st75256.c **** 	    if ( arg_int == 0 )
 1192              		.loc 1 1184 0
 1193 00d2 2AB9     		cbnz	r2, .L105
1185:..\..\..\u8g2\u8g2\csrc/u8x8_d_st75256.c **** 	    {
1186:..\..\..\u8g2\u8g2\csrc/u8x8_d_st75256.c **** 	      u8x8_cad_SendSequence(u8x8, u8x8_d_st75256_jlx256160_flip0_seq);
 1194              		.loc 1 1186 0
 1195 00d4 1949     		ldr	r1, .L112+16
 1196 00d6 FFF7FEFF 		bl	u8x8_cad_SendSequence
 1197              	.LVL183:
1187:..\..\..\u8g2\u8g2\csrc/u8x8_d_st75256.c **** 	      u8x8->x_offset = u8x8->display_info->default_x_offset;
 1198              		.loc 1 1187 0
 1199 00da 2368     		ldr	r3, [r4]
 1200 00dc 9B7C     		ldrb	r3, [r3, #18]	@ zero_extendqisi2
 1201 00de 04E0     		b	.L111
 1202              	.LVL184:
 1203              	.L105:
1188:..\..\..\u8g2\u8g2\csrc/u8x8_d_st75256.c **** 	    }
1189:..\..\..\u8g2\u8g2\csrc/u8x8_d_st75256.c **** 	    else
1190:..\..\..\u8g2\u8g2\csrc/u8x8_d_st75256.c **** 	    {
1191:..\..\..\u8g2\u8g2\csrc/u8x8_d_st75256.c **** 	      u8x8_cad_SendSequence(u8x8, u8x8_d_st75256_jlx256160_flip1_seq);
 1204              		.loc 1 1191 0
 1205 00e0 1749     		ldr	r1, .L112+20
 1206 00e2 FFF7FEFF 		bl	u8x8_cad_SendSequence
 1207              	.LVL185:
1192:..\..\..\u8g2\u8g2\csrc/u8x8_d_st75256.c **** 	      u8x8->x_offset = u8x8->display_info->flipmode_x_offset;
 1208              		.loc 1 1192 0
 1209 00e6 2368     		ldr	r3, [r4]
ARM GAS  C:\Users\jesse\AppData\Local\Temp\cc6zNusR.s 			page 44


 1210 00e8 DB7C     		ldrb	r3, [r3, #19]	@ zero_extendqisi2
 1211              	.L111:
 1212 00ea 84F82230 		strb	r3, [r4, #34]
 1213 00ee 16E0     		b	.L108
 1214              	.LVL186:
 1215              	.L98:
1193:..\..\..\u8g2\u8g2\csrc/u8x8_d_st75256.c **** 	    }
1194:..\..\..\u8g2\u8g2\csrc/u8x8_d_st75256.c **** 	    return 1;
1195:..\..\..\u8g2\u8g2\csrc/u8x8_d_st75256.c **** 		
1196:..\..\..\u8g2\u8g2\csrc/u8x8_d_st75256.c **** #ifdef U8X8_WITH_SET_CONTRAST
1197:..\..\..\u8g2\u8g2\csrc/u8x8_d_st75256.c ****         case U8X8_MSG_DISPLAY_SET_CONTRAST:
1198:..\..\..\u8g2\u8g2\csrc/u8x8_d_st75256.c **** 
1199:..\..\..\u8g2\u8g2\csrc/u8x8_d_st75256.c ****               u8x8_cad_StartTransfer(u8x8);
 1216              		.loc 1 1199 0
 1217 00f0 FFF7FEFF 		bl	u8x8_cad_StartTransfer
 1218              	.LVL187:
1200:..\..\..\u8g2\u8g2\csrc/u8x8_d_st75256.c ****               
1201:..\..\..\u8g2\u8g2\csrc/u8x8_d_st75256.c ****               u8x8_cad_SendCmd(u8x8, 0x030 );
 1219              		.loc 1 1201 0
 1220 00f4 3021     		movs	r1, #48
 1221 00f6 2046     		mov	r0, r4
 1222 00f8 FFF7FEFF 		bl	u8x8_cad_SendCmd
 1223              	.LVL188:
1202:..\..\..\u8g2\u8g2\csrc/u8x8_d_st75256.c ****               u8x8_cad_SendCmd(u8x8, 0x081 );  /* there are 9 bit for the volume control */
 1224              		.loc 1 1202 0
 1225 00fc 8121     		movs	r1, #129
 1226 00fe 2046     		mov	r0, r4
 1227 0100 FFF7FEFF 		bl	u8x8_cad_SendCmd
 1228              	.LVL189:
1203:..\..\..\u8g2\u8g2\csrc/u8x8_d_st75256.c ****               u8x8_cad_SendArg(u8x8, (arg_int & 0x1f)<<1 );	/* lower 6 bit */
 1229              		.loc 1 1203 0
 1230 0104 6900     		lsls	r1, r5, #1
 1231 0106 01F03E01 		and	r1, r1, #62
 1232 010a 2046     		mov	r0, r4
 1233 010c FFF7FEFF 		bl	u8x8_cad_SendArg
 1234              	.LVL190:
1204:..\..\..\u8g2\u8g2\csrc/u8x8_d_st75256.c ****               u8x8_cad_SendArg(u8x8, (arg_int>>5));		/* upper 3 bit */
 1235              		.loc 1 1204 0
 1236 0110 6909     		lsrs	r1, r5, #5
 1237 0112 2046     		mov	r0, r4
 1238 0114 FFF7FEFF 		bl	u8x8_cad_SendArg
 1239              	.LVL191:
 1240              	.L109:
1205:..\..\..\u8g2\u8g2\csrc/u8x8_d_st75256.c ****               
1206:..\..\..\u8g2\u8g2\csrc/u8x8_d_st75256.c ****               u8x8_cad_EndTransfer(u8x8);
 1241              		.loc 1 1206 0
 1242 0118 2046     		mov	r0, r4
 1243 011a FFF7FEFF 		bl	u8x8_cad_EndTransfer
 1244              	.LVL192:
 1245              	.L108:
1207:..\..\..\u8g2\u8g2\csrc/u8x8_d_st75256.c ****               return 1;
 1246              		.loc 1 1207 0
 1247 011e 0120     		movs	r0, #1
 1248 0120 BDE8F081 		pop	{r4, r5, r6, r7, r8, pc}
 1249              	.LVL193:
 1250              	.L106:
1208:..\..\..\u8g2\u8g2\csrc/u8x8_d_st75256.c **** #endif
ARM GAS  C:\Users\jesse\AppData\Local\Temp\cc6zNusR.s 			page 45


1209:..\..\..\u8g2\u8g2\csrc/u8x8_d_st75256.c ****   }
1210:..\..\..\u8g2\u8g2\csrc/u8x8_d_st75256.c ****   return 0;
 1251              		.loc 1 1210 0
 1252 0124 0020     		movs	r0, #0
 1253              	.LVL194:
1211:..\..\..\u8g2\u8g2\csrc/u8x8_d_st75256.c **** }
 1254              		.loc 1 1211 0
 1255 0126 BDE8F081 		pop	{r4, r5, r6, r7, r8, pc}
 1256              	.LVL195:
 1257              	.L113:
 1258 012a 00BF     		.align	2
 1259              	.L112:
 1260 012c D8020000 		.word	.LANCHOR0+728
 1261 0130 F0020000 		.word	.LANCHOR0+752
 1262 0134 00000000 		.word	.LANCHOR0
 1263 0138 0B000000 		.word	.LANCHOR0+11
 1264 013c 59030000 		.word	.LANCHOR0+857
 1265 0140 66030000 		.word	.LANCHOR0+870
 1266              		.cfi_endproc
 1267              	.LFE6:
 1268              		.size	u8x8_d_st75256_jlx256160, .-u8x8_d_st75256_jlx256160
 1269              		.section	.text.u8x8_d_st75256_jlx256160m,"ax",%progbits
 1270              		.align	1
 1271              		.global	u8x8_d_st75256_jlx256160m
 1272              		.thumb
 1273              		.thumb_func
 1274              		.type	u8x8_d_st75256_jlx256160m, %function
 1275              	u8x8_d_st75256_jlx256160m:
 1276              	.LFB7:
1212:..\..\..\u8g2\u8g2\csrc/u8x8_d_st75256.c **** 
1213:..\..\..\u8g2\u8g2\csrc/u8x8_d_st75256.c **** 
1214:..\..\..\u8g2\u8g2\csrc/u8x8_d_st75256.c **** /*=============================================*/
1215:..\..\..\u8g2\u8g2\csrc/u8x8_d_st75256.c **** /* JLX256160 mirror version #930 */
1216:..\..\..\u8g2\u8g2\csrc/u8x8_d_st75256.c **** 
1217:..\..\..\u8g2\u8g2\csrc/u8x8_d_st75256.c **** 
1218:..\..\..\u8g2\u8g2\csrc/u8x8_d_st75256.c **** static const uint8_t u8x8_d_st75256_256x160m_init_seq[] = {
1219:..\..\..\u8g2\u8g2\csrc/u8x8_d_st75256.c ****   U8X8_START_TRANSFER(),             	/* enable chip, delay is part of the transfer start */
1220:..\..\..\u8g2\u8g2\csrc/u8x8_d_st75256.c ****   
1221:..\..\..\u8g2\u8g2\csrc/u8x8_d_st75256.c ****   U8X8_DLY(20),
1222:..\..\..\u8g2\u8g2\csrc/u8x8_d_st75256.c **** 
1223:..\..\..\u8g2\u8g2\csrc/u8x8_d_st75256.c ****   U8X8_C( 0x030 ),				/* select 00 commands */
1224:..\..\..\u8g2\u8g2\csrc/u8x8_d_st75256.c ****   U8X8_C( 0x094 ),				/* sleep out */
1225:..\..\..\u8g2\u8g2\csrc/u8x8_d_st75256.c **** 
1226:..\..\..\u8g2\u8g2\csrc/u8x8_d_st75256.c ****   //U8X8_C( 0x030 ),				/* select 00 commands */
1227:..\..\..\u8g2\u8g2\csrc/u8x8_d_st75256.c ****   U8X8_C( 0x0ae ),				/* display off */
1228:..\..\..\u8g2\u8g2\csrc/u8x8_d_st75256.c **** 
1229:..\..\..\u8g2\u8g2\csrc/u8x8_d_st75256.c ****   U8X8_C( 0x031 ),				/* select 01 commands */
1230:..\..\..\u8g2\u8g2\csrc/u8x8_d_st75256.c ****   U8X8_CA( 0x0d7, 0x09f ),		/* disable auto read */  
1231:..\..\..\u8g2\u8g2\csrc/u8x8_d_st75256.c **** 
1232:..\..\..\u8g2\u8g2\csrc/u8x8_d_st75256.c ****   //U8X8_C( 0x031 ),				/* select 01 commands */
1233:..\..\..\u8g2\u8g2\csrc/u8x8_d_st75256.c ****   U8X8_C( 0x032 ),				/* analog circuit set */
1234:..\..\..\u8g2\u8g2\csrc/u8x8_d_st75256.c ****   U8X8_A( 0x000 ),				/* code example: OSC Frequency adjustment */
1235:..\..\..\u8g2\u8g2\csrc/u8x8_d_st75256.c ****   U8X8_A( 0x001 ),				/* Frequency on booster capacitors 1 = 6KHz? */
1236:..\..\..\u8g2\u8g2\csrc/u8x8_d_st75256.c ****   U8X8_A( 0x000 ),				/* Bias: 1: 1/13, 2: 1/12, 3: 1/11, 4:1/10, 5:1/9 */
1237:..\..\..\u8g2\u8g2\csrc/u8x8_d_st75256.c ****     
1238:..\..\..\u8g2\u8g2\csrc/u8x8_d_st75256.c ****   //U8X8_C( 0x031 ),				/* select 01 commands */
1239:..\..\..\u8g2\u8g2\csrc/u8x8_d_st75256.c ****   U8X8_C( 0x020 ),				/* gray levels */
ARM GAS  C:\Users\jesse\AppData\Local\Temp\cc6zNusR.s 			page 46


1240:..\..\..\u8g2\u8g2\csrc/u8x8_d_st75256.c ****   U8X8_A( 0x01 ),
1241:..\..\..\u8g2\u8g2\csrc/u8x8_d_st75256.c ****   U8X8_A( 0x03 ),
1242:..\..\..\u8g2\u8g2\csrc/u8x8_d_st75256.c ****   U8X8_A( 0x05 ),
1243:..\..\..\u8g2\u8g2\csrc/u8x8_d_st75256.c ****   U8X8_A( 0x07 ),
1244:..\..\..\u8g2\u8g2\csrc/u8x8_d_st75256.c ****   U8X8_A( 0x09),
1245:..\..\..\u8g2\u8g2\csrc/u8x8_d_st75256.c ****   U8X8_A( 0x0b ),
1246:..\..\..\u8g2\u8g2\csrc/u8x8_d_st75256.c ****   U8X8_A( 0x0d ),
1247:..\..\..\u8g2\u8g2\csrc/u8x8_d_st75256.c ****   U8X8_A( 0x10 ),
1248:..\..\..\u8g2\u8g2\csrc/u8x8_d_st75256.c ****   U8X8_A( 0x11 ),
1249:..\..\..\u8g2\u8g2\csrc/u8x8_d_st75256.c ****   U8X8_A( 0x13 ),
1250:..\..\..\u8g2\u8g2\csrc/u8x8_d_st75256.c ****   U8X8_A( 0x15 ),
1251:..\..\..\u8g2\u8g2\csrc/u8x8_d_st75256.c ****   U8X8_A( 0x17 ),
1252:..\..\..\u8g2\u8g2\csrc/u8x8_d_st75256.c ****   U8X8_A( 0x19 ),
1253:..\..\..\u8g2\u8g2\csrc/u8x8_d_st75256.c ****   U8X8_A( 0x1b ),
1254:..\..\..\u8g2\u8g2\csrc/u8x8_d_st75256.c ****   U8X8_A( 0x1d ),
1255:..\..\..\u8g2\u8g2\csrc/u8x8_d_st75256.c ****   U8X8_A( 0x1f ),
1256:..\..\..\u8g2\u8g2\csrc/u8x8_d_st75256.c ****  
1257:..\..\..\u8g2\u8g2\csrc/u8x8_d_st75256.c ****   
1258:..\..\..\u8g2\u8g2\csrc/u8x8_d_st75256.c ****   U8X8_C( 0x030 ),				/* select 00 commands */
1259:..\..\..\u8g2\u8g2\csrc/u8x8_d_st75256.c ****   U8X8_CAA(0x75, 0, 0x28),		/* row range */
1260:..\..\..\u8g2\u8g2\csrc/u8x8_d_st75256.c ****   U8X8_CAA(0x15, 0, 0xFF),		/* col range */
1261:..\..\..\u8g2\u8g2\csrc/u8x8_d_st75256.c ****   
1262:..\..\..\u8g2\u8g2\csrc/u8x8_d_st75256.c ****   //U8X8_C( 0x030 ),				/* select 00 commands */
1263:..\..\..\u8g2\u8g2\csrc/u8x8_d_st75256.c ****   U8X8_CA( 0xbc, 0x02 ),			/* data scan dir  ( CHANGED FOR MIRROR VERSION ) */
1264:..\..\..\u8g2\u8g2\csrc/u8x8_d_st75256.c ****   U8X8_A( 0xa6 ),				/* ??? */
1265:..\..\..\u8g2\u8g2\csrc/u8x8_d_st75256.c **** 
1266:..\..\..\u8g2\u8g2\csrc/u8x8_d_st75256.c ****   //U8X8_C( 0x030 ),				/* select 00 commands */
1267:..\..\..\u8g2\u8g2\csrc/u8x8_d_st75256.c ****   U8X8_C( 0x00c ),				/* data format LSB top */
1268:..\..\..\u8g2\u8g2\csrc/u8x8_d_st75256.c **** 
1269:..\..\..\u8g2\u8g2\csrc/u8x8_d_st75256.c ****   //U8X8_C( 0x030 ),				/* select 00 commands */ 
1270:..\..\..\u8g2\u8g2\csrc/u8x8_d_st75256.c ****   U8X8_C( 0xca ),				/* display control, 3 args follow  */
1271:..\..\..\u8g2\u8g2\csrc/u8x8_d_st75256.c ****   U8X8_A( 0x00 ),				/* 0x00: no clock division, 0x04: devide clock */
1272:..\..\..\u8g2\u8g2\csrc/u8x8_d_st75256.c ****   U8X8_A( 159 ),				/* 1/160 duty value from the DS example code */
1273:..\..\..\u8g2\u8g2\csrc/u8x8_d_st75256.c ****   U8X8_A( 0x20 ),				/* nline off */ 
1274:..\..\..\u8g2\u8g2\csrc/u8x8_d_st75256.c **** 
1275:..\..\..\u8g2\u8g2\csrc/u8x8_d_st75256.c ****   //U8X8_C( 0x030 ),				/* select 00 commands */ 
1276:..\..\..\u8g2\u8g2\csrc/u8x8_d_st75256.c ****   U8X8_CA( 0x0f0, 0x010 ),		/* monochrome mode  = 0x010*/
1277:..\..\..\u8g2\u8g2\csrc/u8x8_d_st75256.c **** 
1278:..\..\..\u8g2\u8g2\csrc/u8x8_d_st75256.c ****   //U8X8_C( 0x030 ),				/* select 00 commands */
1279:..\..\..\u8g2\u8g2\csrc/u8x8_d_st75256.c ****   U8X8_CAA( 0x81, 0x18, 0x05 ),	/* Volume control */
1280:..\..\..\u8g2\u8g2\csrc/u8x8_d_st75256.c **** 
1281:..\..\..\u8g2\u8g2\csrc/u8x8_d_st75256.c ****   //U8X8_C( 0x030 ),				/* select 00 commands */
1282:..\..\..\u8g2\u8g2\csrc/u8x8_d_st75256.c ****   U8X8_CA( 0x020, 0x00b ),		/* Power control: Regulator, follower & booster on */
1283:..\..\..\u8g2\u8g2\csrc/u8x8_d_st75256.c ****   U8X8_DLY(100),
1284:..\..\..\u8g2\u8g2\csrc/u8x8_d_st75256.c **** 
1285:..\..\..\u8g2\u8g2\csrc/u8x8_d_st75256.c ****   U8X8_END_TRANSFER(),             	/* disable chip */
1286:..\..\..\u8g2\u8g2\csrc/u8x8_d_st75256.c ****   U8X8_END()             			/* end of sequence */
1287:..\..\..\u8g2\u8g2\csrc/u8x8_d_st75256.c **** };
1288:..\..\..\u8g2\u8g2\csrc/u8x8_d_st75256.c **** 
1289:..\..\..\u8g2\u8g2\csrc/u8x8_d_st75256.c **** uint8_t u8x8_d_st75256_jlx256160m(u8x8_t *u8x8, uint8_t msg, uint8_t arg_int, void *arg_ptr)
1290:..\..\..\u8g2\u8g2\csrc/u8x8_d_st75256.c **** {
 1277              		.loc 1 1290 0
 1278              		.cfi_startproc
 1279              		@ args = 0, pretend = 0, frame = 0
 1280              		@ frame_needed = 0, uses_anonymous_args = 0
 1281              	.LVL196:
1291:..\..\..\u8g2\u8g2\csrc/u8x8_d_st75256.c ****   uint8_t x, c;
ARM GAS  C:\Users\jesse\AppData\Local\Temp\cc6zNusR.s 			page 47


1292:..\..\..\u8g2\u8g2\csrc/u8x8_d_st75256.c ****   uint8_t *ptr;
1293:..\..\..\u8g2\u8g2\csrc/u8x8_d_st75256.c **** 
1294:..\..\..\u8g2\u8g2\csrc/u8x8_d_st75256.c ****   switch(msg)
 1282              		.loc 1 1294 0
 1283 0000 0939     		subs	r1, r1, #9
 1284              	.LVL197:
1290:..\..\..\u8g2\u8g2\csrc/u8x8_d_st75256.c ****   uint8_t x, c;
 1285              		.loc 1 1290 0
 1286 0002 2DE9F041 		push	{r4, r5, r6, r7, r8, lr}
 1287              		.cfi_def_cfa_offset 24
 1288              		.cfi_offset 4, -24
 1289              		.cfi_offset 5, -20
 1290              		.cfi_offset 6, -16
 1291              		.cfi_offset 7, -12
 1292              		.cfi_offset 8, -8
 1293              		.cfi_offset 14, -4
1290:..\..\..\u8g2\u8g2\csrc/u8x8_d_st75256.c ****   uint8_t x, c;
 1294              		.loc 1 1290 0
 1295 0006 0446     		mov	r4, r0
 1296 0008 1546     		mov	r5, r2
 1297 000a 9846     		mov	r8, r3
 1298              		.loc 1 1294 0
 1299 000c 0629     		cmp	r1, #6
 1300 000e 00F28980 		bhi	.L129
 1301 0012 DFE801F0 		tbb	[pc, r1]
 1302              	.LVL198:
 1303              	.L117:
 1304 0016 4E       		.byte	(.L116-.L117)/2
 1305 0017 52       		.byte	(.L118-.L117)/2
 1306 0018 56       		.byte	(.L119-.L117)/2
 1307 0019 87       		.byte	(.L129-.L117)/2
 1308 001a 5E       		.byte	(.L120-.L117)/2
 1309 001b 6D       		.byte	(.L121-.L117)/2
 1310 001c 04       		.byte	(.L122-.L117)/2
 1311 001d 00       		.p2align 1
 1312              	.L122:
1295:..\..\..\u8g2\u8g2\csrc/u8x8_d_st75256.c ****   {
1296:..\..\..\u8g2\u8g2\csrc/u8x8_d_st75256.c ****             case U8X8_MSG_DISPLAY_DRAW_TILE:
1297:..\..\..\u8g2\u8g2\csrc/u8x8_d_st75256.c ****               
1298:..\..\..\u8g2\u8g2\csrc/u8x8_d_st75256.c ****               u8x8_cad_StartTransfer(u8x8);
 1313              		.loc 1 1298 0
 1314 001e FFF7FEFF 		bl	u8x8_cad_StartTransfer
 1315              	.LVL199:
1299:..\..\..\u8g2\u8g2\csrc/u8x8_d_st75256.c ****               x = ((u8x8_tile_t *)arg_ptr)->x_pos;    
1300:..\..\..\u8g2\u8g2\csrc/u8x8_d_st75256.c ****               x *= 8;
1301:..\..\..\u8g2\u8g2\csrc/u8x8_d_st75256.c ****               
1302:..\..\..\u8g2\u8g2\csrc/u8x8_d_st75256.c ****               u8x8_cad_SendCmd(u8x8, 0x030 );	/* select command set */
 1316              		.loc 1 1302 0
 1317 0022 3021     		movs	r1, #48
 1318 0024 2046     		mov	r0, r4
1299:..\..\..\u8g2\u8g2\csrc/u8x8_d_st75256.c ****               x = ((u8x8_tile_t *)arg_ptr)->x_pos;    
 1319              		.loc 1 1299 0
 1320 0026 98F80560 		ldrb	r6, [r8, #5]	@ zero_extendqisi2
 1321              	.LVL200:
 1322              		.loc 1 1302 0
 1323 002a FFF7FEFF 		bl	u8x8_cad_SendCmd
 1324              	.LVL201:
ARM GAS  C:\Users\jesse\AppData\Local\Temp\cc6zNusR.s 			page 48


1303:..\..\..\u8g2\u8g2\csrc/u8x8_d_st75256.c ****               u8x8_cad_SendCmd(u8x8, 0x075 );	/* row */
 1325              		.loc 1 1303 0
 1326 002e 7521     		movs	r1, #117
 1327 0030 2046     		mov	r0, r4
 1328 0032 FFF7FEFF 		bl	u8x8_cad_SendCmd
 1329              	.LVL202:
1304:..\..\..\u8g2\u8g2\csrc/u8x8_d_st75256.c **** 	      if ( u8x8->x_offset == 1 )		/* 1 means flip mode 1 */
 1330              		.loc 1 1304 0
 1331 0036 94F82230 		ldrb	r3, [r4, #34]	@ zero_extendqisi2
 1332 003a 98F80610 		ldrb	r1, [r8, #6]	@ zero_extendqisi2
 1333 003e 012B     		cmp	r3, #1
1305:..\..\..\u8g2\u8g2\csrc/u8x8_d_st75256.c **** 		u8x8_cad_SendArg(u8x8, 1+(((u8x8_tile_t *)arg_ptr)->y_pos));
 1334              		.loc 1 1305 0
 1335 0040 04BF     		itt	eq
 1336 0042 0131     		addeq	r1, r1, #1
 1337 0044 C9B2     		uxtbeq	r1, r1
1306:..\..\..\u8g2\u8g2\csrc/u8x8_d_st75256.c **** 	      else
1307:..\..\..\u8g2\u8g2\csrc/u8x8_d_st75256.c **** 		u8x8_cad_SendArg(u8x8, (((u8x8_tile_t *)arg_ptr)->y_pos));
 1338              		.loc 1 1307 0
 1339 0046 2046     		mov	r0, r4
 1340 0048 FFF7FEFF 		bl	u8x8_cad_SendArg
 1341              	.LVL203:
1308:..\..\..\u8g2\u8g2\csrc/u8x8_d_st75256.c ****               u8x8_cad_SendArg(u8x8, 0x04f);
 1342              		.loc 1 1308 0
 1343 004c 4F21     		movs	r1, #79
 1344 004e 2046     		mov	r0, r4
 1345 0050 FFF7FEFF 		bl	u8x8_cad_SendArg
 1346              	.LVL204:
1309:..\..\..\u8g2\u8g2\csrc/u8x8_d_st75256.c ****               //u8x8_cad_SendArg(u8x8, (((u8x8_tile_t *)arg_ptr)->y_pos));
1310:..\..\..\u8g2\u8g2\csrc/u8x8_d_st75256.c ****               u8x8_cad_SendCmd(u8x8, 0x015 );	/* col */
 1347              		.loc 1 1310 0
 1348 0054 1521     		movs	r1, #21
 1349 0056 2046     		mov	r0, r4
 1350 0058 FFF7FEFF 		bl	u8x8_cad_SendCmd
 1351              	.LVL205:
1311:..\..\..\u8g2\u8g2\csrc/u8x8_d_st75256.c ****               u8x8_cad_SendArg(u8x8, x+u8x8->display_info->default_x_offset);
 1352              		.loc 1 1311 0
 1353 005c 2368     		ldr	r3, [r4]
1300:..\..\..\u8g2\u8g2\csrc/u8x8_d_st75256.c ****               
 1354              		.loc 1 1300 0
 1355 005e F600     		lsls	r6, r6, #3
 1356              	.LVL206:
 1357              		.loc 1 1311 0
 1358 0060 997C     		ldrb	r1, [r3, #18]	@ zero_extendqisi2
1300:..\..\..\u8g2\u8g2\csrc/u8x8_d_st75256.c ****               
 1359              		.loc 1 1300 0
 1360 0062 F6B2     		uxtb	r6, r6
 1361              	.LVL207:
 1362              		.loc 1 1311 0
 1363 0064 3144     		add	r1, r1, r6
 1364 0066 C9B2     		uxtb	r1, r1
 1365 0068 2046     		mov	r0, r4
 1366 006a FFF7FEFF 		bl	u8x8_cad_SendArg
 1367              	.LVL208:
1312:..\..\..\u8g2\u8g2\csrc/u8x8_d_st75256.c ****               u8x8_cad_SendArg(u8x8, 255);
 1368              		.loc 1 1312 0
 1369 006e FF21     		movs	r1, #255
ARM GAS  C:\Users\jesse\AppData\Local\Temp\cc6zNusR.s 			page 49


 1370 0070 2046     		mov	r0, r4
 1371 0072 FFF7FEFF 		bl	u8x8_cad_SendArg
 1372              	.LVL209:
1313:..\..\..\u8g2\u8g2\csrc/u8x8_d_st75256.c ****               u8x8_cad_SendCmd(u8x8, 0x05c );	
 1373              		.loc 1 1313 0
 1374 0076 5C21     		movs	r1, #92
 1375 0078 2046     		mov	r0, r4
 1376 007a FFF7FEFF 		bl	u8x8_cad_SendCmd
 1377              	.LVL210:
 1378              	.L126:
1314:..\..\..\u8g2\u8g2\csrc/u8x8_d_st75256.c ****             
1315:..\..\..\u8g2\u8g2\csrc/u8x8_d_st75256.c ****               
1316:..\..\..\u8g2\u8g2\csrc/u8x8_d_st75256.c ****               do
1317:..\..\..\u8g2\u8g2\csrc/u8x8_d_st75256.c ****               {
1318:..\..\..\u8g2\u8g2\csrc/u8x8_d_st75256.c ****                 c = ((u8x8_tile_t *)arg_ptr)->cnt;
 1379              		.loc 1 1318 0
 1380 007e 98F80460 		ldrb	r6, [r8, #4]	@ zero_extendqisi2
 1381              	.LVL211:
1319:..\..\..\u8g2\u8g2\csrc/u8x8_d_st75256.c ****                 ptr = ((u8x8_tile_t *)arg_ptr)->tile_ptr;
 1382              		.loc 1 1319 0
 1383 0082 D8F80070 		ldr	r7, [r8]
 1384              	.LVL212:
1320:..\..\..\u8g2\u8g2\csrc/u8x8_d_st75256.c **** 		/* SendData can not handle more than 255 bytes, treat c > 31 correctly  */
1321:..\..\..\u8g2\u8g2\csrc/u8x8_d_st75256.c **** 		if ( c > 31 )
 1385              		.loc 1 1321 0
 1386 0086 1F2E     		cmp	r6, #31
 1387 0088 07D9     		bls	.L125
1322:..\..\..\u8g2\u8g2\csrc/u8x8_d_st75256.c **** 		{
1323:..\..\..\u8g2\u8g2\csrc/u8x8_d_st75256.c **** 		  u8x8_cad_SendData(u8x8, 248, ptr); 	/* 31*8=248 */
 1388              		.loc 1 1323 0
 1389 008a 3A46     		mov	r2, r7
 1390 008c F821     		movs	r1, #248
 1391 008e 2046     		mov	r0, r4
 1392 0090 FFF7FEFF 		bl	u8x8_cad_SendData
 1393              	.LVL213:
1324:..\..\..\u8g2\u8g2\csrc/u8x8_d_st75256.c **** 		  ptr+=248;
1325:..\..\..\u8g2\u8g2\csrc/u8x8_d_st75256.c **** 		  c -= 31;
 1394              		.loc 1 1325 0
 1395 0094 1F3E     		subs	r6, r6, #31
 1396              	.LVL214:
1324:..\..\..\u8g2\u8g2\csrc/u8x8_d_st75256.c **** 		  ptr+=248;
 1397              		.loc 1 1324 0
 1398 0096 F837     		adds	r7, r7, #248
 1399              	.LVL215:
 1400              		.loc 1 1325 0
 1401 0098 F6B2     		uxtb	r6, r6
 1402              	.LVL216:
 1403              	.L125:
1326:..\..\..\u8g2\u8g2\csrc/u8x8_d_st75256.c **** 		}
1327:..\..\..\u8g2\u8g2\csrc/u8x8_d_st75256.c **** 		
1328:..\..\..\u8g2\u8g2\csrc/u8x8_d_st75256.c **** 		u8x8_cad_SendData(u8x8, c*8, ptr); 	
 1404              		.loc 1 1328 0
 1405 009a F100     		lsls	r1, r6, #3
 1406 009c 3A46     		mov	r2, r7
 1407 009e 01F0F801 		and	r1, r1, #248
 1408 00a2 2046     		mov	r0, r4
1329:..\..\..\u8g2\u8g2\csrc/u8x8_d_st75256.c ****                 arg_int--;
ARM GAS  C:\Users\jesse\AppData\Local\Temp\cc6zNusR.s 			page 50


 1409              		.loc 1 1329 0
 1410 00a4 013D     		subs	r5, r5, #1
 1411              	.LVL217:
1328:..\..\..\u8g2\u8g2\csrc/u8x8_d_st75256.c ****                 arg_int--;
 1412              		.loc 1 1328 0
 1413 00a6 FFF7FEFF 		bl	u8x8_cad_SendData
 1414              	.LVL218:
1330:..\..\..\u8g2\u8g2\csrc/u8x8_d_st75256.c ****               } while( arg_int > 0 );
 1415              		.loc 1 1330 0
 1416 00aa 15F0FF05 		ands	r5, r5, #255
 1417              	.LVL219:
 1418 00ae E6D1     		bne	.L126
 1419 00b0 32E0     		b	.L132
 1420              	.LVL220:
 1421              	.L116:
1331:..\..\..\u8g2\u8g2\csrc/u8x8_d_st75256.c ****               
1332:..\..\..\u8g2\u8g2\csrc/u8x8_d_st75256.c ****               u8x8_cad_EndTransfer(u8x8);
1333:..\..\..\u8g2\u8g2\csrc/u8x8_d_st75256.c ****               return 1;
1334:..\..\..\u8g2\u8g2\csrc/u8x8_d_st75256.c ****         case U8X8_MSG_DISPLAY_SETUP_MEMORY:
1335:..\..\..\u8g2\u8g2\csrc/u8x8_d_st75256.c ****             //u8x8_SetI2CAddress(u8x8, 0x078);		/* lowest I2C adr of the ST75256 */
1336:..\..\..\u8g2\u8g2\csrc/u8x8_d_st75256.c **** 	    u8x8_d_helper_display_setup_memory(u8x8, &u8x8_st75256_256x160_display_info);
 1422              		.loc 1 1336 0
 1423 00b2 1E49     		ldr	r1, .L135
 1424 00b4 FFF7FEFF 		bl	u8x8_d_helper_display_setup_memory
 1425              	.LVL221:
 1426 00b8 31E0     		b	.L131
 1427              	.LVL222:
 1428              	.L118:
1337:..\..\..\u8g2\u8g2\csrc/u8x8_d_st75256.c ****             return 1;
1338:..\..\..\u8g2\u8g2\csrc/u8x8_d_st75256.c ****         case U8X8_MSG_DISPLAY_INIT:
1339:..\..\..\u8g2\u8g2\csrc/u8x8_d_st75256.c **** 	    u8x8_d_helper_display_init(u8x8);
 1429              		.loc 1 1339 0
 1430 00ba FFF7FEFF 		bl	u8x8_d_helper_display_init
 1431              	.LVL223:
1340:..\..\..\u8g2\u8g2\csrc/u8x8_d_st75256.c **** 	    u8x8_cad_SendSequence(u8x8, u8x8_d_st75256_256x160m_init_seq);    
 1432              		.loc 1 1340 0
 1433 00be 1C49     		ldr	r1, .L135+4
 1434 00c0 03E0     		b	.L133
 1435              	.LVL224:
 1436              	.L119:
1341:..\..\..\u8g2\u8g2\csrc/u8x8_d_st75256.c ****             return 1;
1342:..\..\..\u8g2\u8g2\csrc/u8x8_d_st75256.c ****         case U8X8_MSG_DISPLAY_SET_POWER_SAVE:
1343:..\..\..\u8g2\u8g2\csrc/u8x8_d_st75256.c ****               if ( arg_int == 0 )
 1437              		.loc 1 1343 0
 1438 00c2 0AB9     		cbnz	r2, .L127
1344:..\..\..\u8g2\u8g2\csrc/u8x8_d_st75256.c ****                 u8x8_cad_SendSequence(u8x8, u8x8_d_st75256_256x128_powersave0_seq);
 1439              		.loc 1 1344 0
 1440 00c4 1B49     		ldr	r1, .L135+8
 1441 00c6 00E0     		b	.L133
 1442              	.L127:
1345:..\..\..\u8g2\u8g2\csrc/u8x8_d_st75256.c ****               else
1346:..\..\..\u8g2\u8g2\csrc/u8x8_d_st75256.c ****                 u8x8_cad_SendSequence(u8x8, u8x8_d_st75256_256x128_powersave1_seq);
 1443              		.loc 1 1346 0
 1444 00c8 1B49     		ldr	r1, .L135+12
 1445              	.LVL225:
 1446              	.L133:
 1447 00ca 2046     		mov	r0, r4
ARM GAS  C:\Users\jesse\AppData\Local\Temp\cc6zNusR.s 			page 51


 1448 00cc FFF7FEFF 		bl	u8x8_cad_SendSequence
 1449              	.LVL226:
 1450 00d0 25E0     		b	.L131
 1451              	.LVL227:
 1452              	.L120:
1347:..\..\..\u8g2\u8g2\csrc/u8x8_d_st75256.c **** 
1348:..\..\..\u8g2\u8g2\csrc/u8x8_d_st75256.c ****               return 1;
1349:..\..\..\u8g2\u8g2\csrc/u8x8_d_st75256.c **** 	case U8X8_MSG_DISPLAY_SET_FLIP_MODE:
1350:..\..\..\u8g2\u8g2\csrc/u8x8_d_st75256.c **** 	    if ( arg_int == 0 )
 1453              		.loc 1 1350 0
 1454 00d2 2AB9     		cbnz	r2, .L128
1351:..\..\..\u8g2\u8g2\csrc/u8x8_d_st75256.c **** 	    {
1352:..\..\..\u8g2\u8g2\csrc/u8x8_d_st75256.c **** 	      u8x8_cad_SendSequence(u8x8, u8x8_d_st75256_jlx172104_flip0_seq);
 1455              		.loc 1 1352 0
 1456 00d4 1949     		ldr	r1, .L135+16
 1457 00d6 FFF7FEFF 		bl	u8x8_cad_SendSequence
 1458              	.LVL228:
1353:..\..\..\u8g2\u8g2\csrc/u8x8_d_st75256.c **** 	      u8x8->x_offset = u8x8->display_info->default_x_offset;
 1459              		.loc 1 1353 0
 1460 00da 2368     		ldr	r3, [r4]
 1461 00dc 9B7C     		ldrb	r3, [r3, #18]	@ zero_extendqisi2
 1462 00de 04E0     		b	.L134
 1463              	.LVL229:
 1464              	.L128:
1354:..\..\..\u8g2\u8g2\csrc/u8x8_d_st75256.c **** 	    }
1355:..\..\..\u8g2\u8g2\csrc/u8x8_d_st75256.c **** 	    else
1356:..\..\..\u8g2\u8g2\csrc/u8x8_d_st75256.c **** 	    {
1357:..\..\..\u8g2\u8g2\csrc/u8x8_d_st75256.c **** 	      u8x8_cad_SendSequence(u8x8, u8x8_d_st75256_jlx172104_flip1_seq);
 1465              		.loc 1 1357 0
 1466 00e0 1749     		ldr	r1, .L135+20
 1467 00e2 FFF7FEFF 		bl	u8x8_cad_SendSequence
 1468              	.LVL230:
1358:..\..\..\u8g2\u8g2\csrc/u8x8_d_st75256.c **** 	      u8x8->x_offset = u8x8->display_info->flipmode_x_offset;
 1469              		.loc 1 1358 0
 1470 00e6 2368     		ldr	r3, [r4]
 1471 00e8 DB7C     		ldrb	r3, [r3, #19]	@ zero_extendqisi2
 1472              	.L134:
 1473 00ea 84F82230 		strb	r3, [r4, #34]
 1474 00ee 16E0     		b	.L131
 1475              	.LVL231:
 1476              	.L121:
1359:..\..\..\u8g2\u8g2\csrc/u8x8_d_st75256.c **** 	    }
1360:..\..\..\u8g2\u8g2\csrc/u8x8_d_st75256.c **** 	    return 1;
1361:..\..\..\u8g2\u8g2\csrc/u8x8_d_st75256.c **** 		
1362:..\..\..\u8g2\u8g2\csrc/u8x8_d_st75256.c **** #ifdef U8X8_WITH_SET_CONTRAST
1363:..\..\..\u8g2\u8g2\csrc/u8x8_d_st75256.c ****         case U8X8_MSG_DISPLAY_SET_CONTRAST:
1364:..\..\..\u8g2\u8g2\csrc/u8x8_d_st75256.c **** 
1365:..\..\..\u8g2\u8g2\csrc/u8x8_d_st75256.c ****               u8x8_cad_StartTransfer(u8x8);
 1477              		.loc 1 1365 0
 1478 00f0 FFF7FEFF 		bl	u8x8_cad_StartTransfer
 1479              	.LVL232:
1366:..\..\..\u8g2\u8g2\csrc/u8x8_d_st75256.c ****               
1367:..\..\..\u8g2\u8g2\csrc/u8x8_d_st75256.c ****               u8x8_cad_SendCmd(u8x8, 0x030 );
 1480              		.loc 1 1367 0
 1481 00f4 3021     		movs	r1, #48
 1482 00f6 2046     		mov	r0, r4
 1483 00f8 FFF7FEFF 		bl	u8x8_cad_SendCmd
ARM GAS  C:\Users\jesse\AppData\Local\Temp\cc6zNusR.s 			page 52


 1484              	.LVL233:
1368:..\..\..\u8g2\u8g2\csrc/u8x8_d_st75256.c ****               u8x8_cad_SendCmd(u8x8, 0x081 );  /* there are 9 bit for the volume control */
 1485              		.loc 1 1368 0
 1486 00fc 8121     		movs	r1, #129
 1487 00fe 2046     		mov	r0, r4
 1488 0100 FFF7FEFF 		bl	u8x8_cad_SendCmd
 1489              	.LVL234:
1369:..\..\..\u8g2\u8g2\csrc/u8x8_d_st75256.c ****               u8x8_cad_SendArg(u8x8, (arg_int & 0x1f)<<1 );	/* lower 6 bit */
 1490              		.loc 1 1369 0
 1491 0104 6900     		lsls	r1, r5, #1
 1492 0106 01F03E01 		and	r1, r1, #62
 1493 010a 2046     		mov	r0, r4
 1494 010c FFF7FEFF 		bl	u8x8_cad_SendArg
 1495              	.LVL235:
1370:..\..\..\u8g2\u8g2\csrc/u8x8_d_st75256.c ****               u8x8_cad_SendArg(u8x8, (arg_int>>5));		/* upper 3 bit */
 1496              		.loc 1 1370 0
 1497 0110 6909     		lsrs	r1, r5, #5
 1498 0112 2046     		mov	r0, r4
 1499 0114 FFF7FEFF 		bl	u8x8_cad_SendArg
 1500              	.LVL236:
 1501              	.L132:
1371:..\..\..\u8g2\u8g2\csrc/u8x8_d_st75256.c ****               
1372:..\..\..\u8g2\u8g2\csrc/u8x8_d_st75256.c ****               u8x8_cad_EndTransfer(u8x8);
 1502              		.loc 1 1372 0
 1503 0118 2046     		mov	r0, r4
 1504 011a FFF7FEFF 		bl	u8x8_cad_EndTransfer
 1505              	.LVL237:
 1506              	.L131:
1373:..\..\..\u8g2\u8g2\csrc/u8x8_d_st75256.c ****               return 1;
 1507              		.loc 1 1373 0
 1508 011e 0120     		movs	r0, #1
 1509 0120 BDE8F081 		pop	{r4, r5, r6, r7, r8, pc}
 1510              	.LVL238:
 1511              	.L129:
1374:..\..\..\u8g2\u8g2\csrc/u8x8_d_st75256.c **** #endif
1375:..\..\..\u8g2\u8g2\csrc/u8x8_d_st75256.c ****   }
1376:..\..\..\u8g2\u8g2\csrc/u8x8_d_st75256.c ****   return 0;
 1512              		.loc 1 1376 0
 1513 0124 0020     		movs	r0, #0
 1514              	.LVL239:
1377:..\..\..\u8g2\u8g2\csrc/u8x8_d_st75256.c **** }
 1515              		.loc 1 1377 0
 1516 0126 BDE8F081 		pop	{r4, r5, r6, r7, r8, pc}
 1517              	.LVL240:
 1518              	.L136:
 1519 012a 00BF     		.align	2
 1520              	.L135:
 1521 012c D8020000 		.word	.LANCHOR0+728
 1522 0130 73030000 		.word	.LANCHOR0+883
 1523 0134 00000000 		.word	.LANCHOR0
 1524 0138 0B000000 		.word	.LANCHOR0+11
 1525 013c 3E010000 		.word	.LANCHOR0+318
 1526 0140 31010000 		.word	.LANCHOR0+305
 1527              		.cfi_endproc
 1528              	.LFE7:
 1529              		.size	u8x8_d_st75256_jlx256160m, .-u8x8_d_st75256_jlx256160m
 1530              		.section	.text.u8x8_d_st75256_jlx256160_alt,"ax",%progbits
ARM GAS  C:\Users\jesse\AppData\Local\Temp\cc6zNusR.s 			page 53


 1531              		.align	1
 1532              		.global	u8x8_d_st75256_jlx256160_alt
 1533              		.thumb
 1534              		.thumb_func
 1535              		.type	u8x8_d_st75256_jlx256160_alt, %function
 1536              	u8x8_d_st75256_jlx256160_alt:
 1537              	.LFB8:
1378:..\..\..\u8g2\u8g2\csrc/u8x8_d_st75256.c **** 
1379:..\..\..\u8g2\u8g2\csrc/u8x8_d_st75256.c **** 
1380:..\..\..\u8g2\u8g2\csrc/u8x8_d_st75256.c **** 
1381:..\..\..\u8g2\u8g2\csrc/u8x8_d_st75256.c **** 
1382:..\..\..\u8g2\u8g2\csrc/u8x8_d_st75256.c **** /*=============================================*/
1383:..\..\..\u8g2\u8g2\csrc/u8x8_d_st75256.c **** /* JLX256160 alternative version from issue #561 */
1384:..\..\..\u8g2\u8g2\csrc/u8x8_d_st75256.c **** 
1385:..\..\..\u8g2\u8g2\csrc/u8x8_d_st75256.c **** static const u8x8_display_info_t u8x8_st75256_256x160_alt_display_info =
1386:..\..\..\u8g2\u8g2\csrc/u8x8_d_st75256.c **** {
1387:..\..\..\u8g2\u8g2\csrc/u8x8_d_st75256.c ****   /* chip_enable_level = */ 0,
1388:..\..\..\u8g2\u8g2\csrc/u8x8_d_st75256.c ****   /* chip_disable_level = */ 1,
1389:..\..\..\u8g2\u8g2\csrc/u8x8_d_st75256.c ****   
1390:..\..\..\u8g2\u8g2\csrc/u8x8_d_st75256.c ****   /* post_chip_enable_wait_ns = */ 20,
1391:..\..\..\u8g2\u8g2\csrc/u8x8_d_st75256.c ****   /* pre_chip_disable_wait_ns = */ 20,
1392:..\..\..\u8g2\u8g2\csrc/u8x8_d_st75256.c ****   /* reset_pulse_width_ms = */ 5, 	
1393:..\..\..\u8g2\u8g2\csrc/u8x8_d_st75256.c ****   /* post_reset_wait_ms = */ 5, 		/**/
1394:..\..\..\u8g2\u8g2\csrc/u8x8_d_st75256.c ****   /* sda_setup_time_ns = */ 20,		/* */
1395:..\..\..\u8g2\u8g2\csrc/u8x8_d_st75256.c ****   /* sck_pulse_width_ns = */ 40,	/*  */
1396:..\..\..\u8g2\u8g2\csrc/u8x8_d_st75256.c ****   /* sck_clock_hz = */ 4000000UL,	/* since Arduino 1.6.0, the SPI bus speed in Hz. Should be  10000
1397:..\..\..\u8g2\u8g2\csrc/u8x8_d_st75256.c ****   /* spi_mode = */ 0,		/* active high, rising edge */
1398:..\..\..\u8g2\u8g2\csrc/u8x8_d_st75256.c ****   /* i2c_bus_clock_100kHz = */ 4,	/* 400KHz */
1399:..\..\..\u8g2\u8g2\csrc/u8x8_d_st75256.c ****   /* data_setup_time_ns = */ 15,
1400:..\..\..\u8g2\u8g2\csrc/u8x8_d_st75256.c ****   /* write_pulse_width_ns = */ 70,	
1401:..\..\..\u8g2\u8g2\csrc/u8x8_d_st75256.c ****   /* tile_width = */ 32,
1402:..\..\..\u8g2\u8g2\csrc/u8x8_d_st75256.c ****   /* tile_hight = */ 20,
1403:..\..\..\u8g2\u8g2\csrc/u8x8_d_st75256.c ****   /* default_x_offset = */ 0,	/*  x offset in flipmode 0 */
1404:..\..\..\u8g2\u8g2\csrc/u8x8_d_st75256.c ****   /* flipmode_x_offset = */ 0,		/* */
1405:..\..\..\u8g2\u8g2\csrc/u8x8_d_st75256.c ****   /* pixel_width = */ 256,
1406:..\..\..\u8g2\u8g2\csrc/u8x8_d_st75256.c ****   /* pixel_height = */ 160
1407:..\..\..\u8g2\u8g2\csrc/u8x8_d_st75256.c **** };
1408:..\..\..\u8g2\u8g2\csrc/u8x8_d_st75256.c **** 
1409:..\..\..\u8g2\u8g2\csrc/u8x8_d_st75256.c **** 
1410:..\..\..\u8g2\u8g2\csrc/u8x8_d_st75256.c **** static const uint8_t u8x8_d_st75256_256x160_alt_init_seq[] = {
1411:..\..\..\u8g2\u8g2\csrc/u8x8_d_st75256.c ****   U8X8_START_TRANSFER(),             	/* enable chip, delay is part of the transfer start */
1412:..\..\..\u8g2\u8g2\csrc/u8x8_d_st75256.c ****   
1413:..\..\..\u8g2\u8g2\csrc/u8x8_d_st75256.c ****   U8X8_DLY(20),
1414:..\..\..\u8g2\u8g2\csrc/u8x8_d_st75256.c **** 
1415:..\..\..\u8g2\u8g2\csrc/u8x8_d_st75256.c ****   U8X8_C( 0x030 ),				/* select 00 commands */
1416:..\..\..\u8g2\u8g2\csrc/u8x8_d_st75256.c ****   U8X8_C( 0x094 ),				/* sleep out */
1417:..\..\..\u8g2\u8g2\csrc/u8x8_d_st75256.c **** 
1418:..\..\..\u8g2\u8g2\csrc/u8x8_d_st75256.c ****   //U8X8_C( 0x030 ),				/* select 00 commands */
1419:..\..\..\u8g2\u8g2\csrc/u8x8_d_st75256.c ****   U8X8_C( 0x0ae ),				/* display off */
1420:..\..\..\u8g2\u8g2\csrc/u8x8_d_st75256.c **** 
1421:..\..\..\u8g2\u8g2\csrc/u8x8_d_st75256.c ****   U8X8_C( 0x031 ),				/* select 01 commands */
1422:..\..\..\u8g2\u8g2\csrc/u8x8_d_st75256.c ****   U8X8_CA( 0x0d7, 0x09f ),		/* disable auto read */  
1423:..\..\..\u8g2\u8g2\csrc/u8x8_d_st75256.c **** 
1424:..\..\..\u8g2\u8g2\csrc/u8x8_d_st75256.c ****   //U8X8_C( 0x031 ),				/* select 01 commands */
1425:..\..\..\u8g2\u8g2\csrc/u8x8_d_st75256.c ****   U8X8_C( 0x032 ),				/* analog circuit set */
1426:..\..\..\u8g2\u8g2\csrc/u8x8_d_st75256.c ****   U8X8_A( 0x000 ),				/* code example: OSC Frequency adjustment */
1427:..\..\..\u8g2\u8g2\csrc/u8x8_d_st75256.c ****   U8X8_A( 0x001 ),				/* Frequency on booster capacitors 1 = 6KHz? */
ARM GAS  C:\Users\jesse\AppData\Local\Temp\cc6zNusR.s 			page 54


1428:..\..\..\u8g2\u8g2\csrc/u8x8_d_st75256.c ****   U8X8_A( 0x000 ),				/* Bias: 1: 1/13, 2: 1/12, 3: 1/11, 4:1/10, 5:1/9 */
1429:..\..\..\u8g2\u8g2\csrc/u8x8_d_st75256.c ****     
1430:..\..\..\u8g2\u8g2\csrc/u8x8_d_st75256.c ****   //U8X8_C( 0x031 ),				/* select 01 commands */
1431:..\..\..\u8g2\u8g2\csrc/u8x8_d_st75256.c ****   U8X8_C( 0x020 ),				/* gray levels */
1432:..\..\..\u8g2\u8g2\csrc/u8x8_d_st75256.c ****   U8X8_A( 0x01 ),
1433:..\..\..\u8g2\u8g2\csrc/u8x8_d_st75256.c ****   U8X8_A( 0x03 ),
1434:..\..\..\u8g2\u8g2\csrc/u8x8_d_st75256.c ****   U8X8_A( 0x05 ),
1435:..\..\..\u8g2\u8g2\csrc/u8x8_d_st75256.c ****   U8X8_A( 0x07 ),
1436:..\..\..\u8g2\u8g2\csrc/u8x8_d_st75256.c ****   U8X8_A( 0x09),
1437:..\..\..\u8g2\u8g2\csrc/u8x8_d_st75256.c ****   U8X8_A( 0x0b ),
1438:..\..\..\u8g2\u8g2\csrc/u8x8_d_st75256.c ****   U8X8_A( 0x0d ),
1439:..\..\..\u8g2\u8g2\csrc/u8x8_d_st75256.c ****   U8X8_A( 0x10 ),
1440:..\..\..\u8g2\u8g2\csrc/u8x8_d_st75256.c ****   U8X8_A( 0x11 ),
1441:..\..\..\u8g2\u8g2\csrc/u8x8_d_st75256.c ****   U8X8_A( 0x13 ),
1442:..\..\..\u8g2\u8g2\csrc/u8x8_d_st75256.c ****   U8X8_A( 0x15 ),
1443:..\..\..\u8g2\u8g2\csrc/u8x8_d_st75256.c ****   U8X8_A( 0x17 ),
1444:..\..\..\u8g2\u8g2\csrc/u8x8_d_st75256.c ****   U8X8_A( 0x19 ),
1445:..\..\..\u8g2\u8g2\csrc/u8x8_d_st75256.c ****   U8X8_A( 0x1b ),
1446:..\..\..\u8g2\u8g2\csrc/u8x8_d_st75256.c ****   U8X8_A( 0x1d ),
1447:..\..\..\u8g2\u8g2\csrc/u8x8_d_st75256.c ****   U8X8_A( 0x1f ),
1448:..\..\..\u8g2\u8g2\csrc/u8x8_d_st75256.c ****  
1449:..\..\..\u8g2\u8g2\csrc/u8x8_d_st75256.c ****   
1450:..\..\..\u8g2\u8g2\csrc/u8x8_d_st75256.c ****   U8X8_C( 0x030 ),				/* select 00 commands */
1451:..\..\..\u8g2\u8g2\csrc/u8x8_d_st75256.c ****   U8X8_CAA(0x75, 0, 0x4f),		/* row range */
1452:..\..\..\u8g2\u8g2\csrc/u8x8_d_st75256.c ****   U8X8_CAA(0x15, 0, 255),		/* col range */
1453:..\..\..\u8g2\u8g2\csrc/u8x8_d_st75256.c ****   
1454:..\..\..\u8g2\u8g2\csrc/u8x8_d_st75256.c ****   //U8X8_C( 0x030 ),				/* select 00 commands */
1455:..\..\..\u8g2\u8g2\csrc/u8x8_d_st75256.c ****   U8X8_CA( 0xbc, 0x02 ),			/* data scan dir */
1456:..\..\..\u8g2\u8g2\csrc/u8x8_d_st75256.c ****   U8X8_A( 0xa6 ),				/* ??? */
1457:..\..\..\u8g2\u8g2\csrc/u8x8_d_st75256.c **** 
1458:..\..\..\u8g2\u8g2\csrc/u8x8_d_st75256.c ****   //U8X8_C( 0x030 ),				/* select 00 commands */
1459:..\..\..\u8g2\u8g2\csrc/u8x8_d_st75256.c ****   U8X8_C( 0x00c ),				/* data format LSB top */
1460:..\..\..\u8g2\u8g2\csrc/u8x8_d_st75256.c **** 
1461:..\..\..\u8g2\u8g2\csrc/u8x8_d_st75256.c ****   //U8X8_C( 0x030 ),				/* select 00 commands */ 
1462:..\..\..\u8g2\u8g2\csrc/u8x8_d_st75256.c ****   U8X8_C( 0xca ),				/* display control, 3 args follow  */
1463:..\..\..\u8g2\u8g2\csrc/u8x8_d_st75256.c ****   U8X8_A( 0x00 ),				/* 0x00: no clock division, 0x04: devide clock */
1464:..\..\..\u8g2\u8g2\csrc/u8x8_d_st75256.c ****   U8X8_A( 159 ),				/* 1/160 duty value from the DS example code */
1465:..\..\..\u8g2\u8g2\csrc/u8x8_d_st75256.c ****   U8X8_A( 0x20 ),				/* nline off */ 
1466:..\..\..\u8g2\u8g2\csrc/u8x8_d_st75256.c **** 
1467:..\..\..\u8g2\u8g2\csrc/u8x8_d_st75256.c ****   //U8X8_C( 0x030 ),				/* select 00 commands */ 
1468:..\..\..\u8g2\u8g2\csrc/u8x8_d_st75256.c ****   U8X8_CA( 0x0f0, 0x010 ),		/* monochrome mode  = 0x010*/
1469:..\..\..\u8g2\u8g2\csrc/u8x8_d_st75256.c **** 
1470:..\..\..\u8g2\u8g2\csrc/u8x8_d_st75256.c ****   //U8X8_C( 0x030 ),				/* select 00 commands */
1471:..\..\..\u8g2\u8g2\csrc/u8x8_d_st75256.c ****   U8X8_CAA( 0x81, 0x18, 0x05 ),	/* Volume control */
1472:..\..\..\u8g2\u8g2\csrc/u8x8_d_st75256.c **** 
1473:..\..\..\u8g2\u8g2\csrc/u8x8_d_st75256.c ****   //U8X8_C( 0x030 ),				/* select 00 commands */
1474:..\..\..\u8g2\u8g2\csrc/u8x8_d_st75256.c ****   U8X8_CA( 0x020, 0x00b ),		/* Power control: Regulator, follower & booster on */
1475:..\..\..\u8g2\u8g2\csrc/u8x8_d_st75256.c ****   U8X8_DLY(100),
1476:..\..\..\u8g2\u8g2\csrc/u8x8_d_st75256.c **** 
1477:..\..\..\u8g2\u8g2\csrc/u8x8_d_st75256.c ****   U8X8_END_TRANSFER(),             	/* disable chip */
1478:..\..\..\u8g2\u8g2\csrc/u8x8_d_st75256.c ****   U8X8_END()             			/* end of sequence */
1479:..\..\..\u8g2\u8g2\csrc/u8x8_d_st75256.c **** };
1480:..\..\..\u8g2\u8g2\csrc/u8x8_d_st75256.c **** 
1481:..\..\..\u8g2\u8g2\csrc/u8x8_d_st75256.c **** 
1482:..\..\..\u8g2\u8g2\csrc/u8x8_d_st75256.c **** uint8_t u8x8_d_st75256_jlx256160_alt(u8x8_t *u8x8, uint8_t msg, uint8_t arg_int, void *arg_ptr)
1483:..\..\..\u8g2\u8g2\csrc/u8x8_d_st75256.c **** {
 1538              		.loc 1 1483 0
ARM GAS  C:\Users\jesse\AppData\Local\Temp\cc6zNusR.s 			page 55


 1539              		.cfi_startproc
 1540              		@ args = 0, pretend = 0, frame = 0
 1541              		@ frame_needed = 0, uses_anonymous_args = 0
 1542              	.LVL241:
1484:..\..\..\u8g2\u8g2\csrc/u8x8_d_st75256.c ****   uint8_t x, c;
1485:..\..\..\u8g2\u8g2\csrc/u8x8_d_st75256.c ****   uint8_t *ptr;
1486:..\..\..\u8g2\u8g2\csrc/u8x8_d_st75256.c **** 
1487:..\..\..\u8g2\u8g2\csrc/u8x8_d_st75256.c ****   switch(msg)
 1543              		.loc 1 1487 0
 1544 0000 0939     		subs	r1, r1, #9
 1545              	.LVL242:
1483:..\..\..\u8g2\u8g2\csrc/u8x8_d_st75256.c ****   uint8_t x, c;
 1546              		.loc 1 1483 0
 1547 0002 2DE9F041 		push	{r4, r5, r6, r7, r8, lr}
 1548              		.cfi_def_cfa_offset 24
 1549              		.cfi_offset 4, -24
 1550              		.cfi_offset 5, -20
 1551              		.cfi_offset 6, -16
 1552              		.cfi_offset 7, -12
 1553              		.cfi_offset 8, -8
 1554              		.cfi_offset 14, -4
1483:..\..\..\u8g2\u8g2\csrc/u8x8_d_st75256.c ****   uint8_t x, c;
 1555              		.loc 1 1483 0
 1556 0006 0446     		mov	r4, r0
 1557 0008 1546     		mov	r5, r2
 1558 000a 1F46     		mov	r7, r3
 1559              		.loc 1 1487 0
 1560 000c 0629     		cmp	r1, #6
 1561 000e 00F28680 		bhi	.L152
 1562 0012 DFE801F0 		tbb	[pc, r1]
 1563              	.LVL243:
 1564              	.L140:
 1565 0016 4B       		.byte	(.L139-.L140)/2
 1566 0017 4F       		.byte	(.L141-.L140)/2
 1567 0018 53       		.byte	(.L142-.L140)/2
 1568 0019 84       		.byte	(.L152-.L140)/2
 1569 001a 5B       		.byte	(.L143-.L140)/2
 1570 001b 6A       		.byte	(.L144-.L140)/2
 1571 001c 04       		.byte	(.L145-.L140)/2
 1572 001d 00       		.p2align 1
 1573              	.L145:
1488:..\..\..\u8g2\u8g2\csrc/u8x8_d_st75256.c ****   {
1489:..\..\..\u8g2\u8g2\csrc/u8x8_d_st75256.c ****             case U8X8_MSG_DISPLAY_DRAW_TILE:
1490:..\..\..\u8g2\u8g2\csrc/u8x8_d_st75256.c ****               
1491:..\..\..\u8g2\u8g2\csrc/u8x8_d_st75256.c ****               u8x8_cad_StartTransfer(u8x8);
 1574              		.loc 1 1491 0
 1575 001e FFF7FEFF 		bl	u8x8_cad_StartTransfer
 1576              	.LVL244:
1492:..\..\..\u8g2\u8g2\csrc/u8x8_d_st75256.c ****               x = ((u8x8_tile_t *)arg_ptr)->x_pos;    
1493:..\..\..\u8g2\u8g2\csrc/u8x8_d_st75256.c ****               x *= 8;
1494:..\..\..\u8g2\u8g2\csrc/u8x8_d_st75256.c ****               
1495:..\..\..\u8g2\u8g2\csrc/u8x8_d_st75256.c ****               u8x8_cad_SendCmd(u8x8, 0x030 );	/* select command set */
 1577              		.loc 1 1495 0
 1578 0022 3021     		movs	r1, #48
 1579 0024 2046     		mov	r0, r4
1492:..\..\..\u8g2\u8g2\csrc/u8x8_d_st75256.c ****               x = ((u8x8_tile_t *)arg_ptr)->x_pos;    
 1580              		.loc 1 1492 0
ARM GAS  C:\Users\jesse\AppData\Local\Temp\cc6zNusR.s 			page 56


 1581 0026 7E79     		ldrb	r6, [r7, #5]	@ zero_extendqisi2
 1582              	.LVL245:
 1583              		.loc 1 1495 0
 1584 0028 FFF7FEFF 		bl	u8x8_cad_SendCmd
 1585              	.LVL246:
1496:..\..\..\u8g2\u8g2\csrc/u8x8_d_st75256.c ****               u8x8_cad_SendCmd(u8x8, 0x075 );	/* row */
 1586              		.loc 1 1496 0
 1587 002c 7521     		movs	r1, #117
 1588 002e 2046     		mov	r0, r4
 1589 0030 FFF7FEFF 		bl	u8x8_cad_SendCmd
 1590              	.LVL247:
1497:..\..\..\u8g2\u8g2\csrc/u8x8_d_st75256.c **** 	      if ( u8x8->x_offset == 0 )		/* 0 means flip mode 1 */
 1591              		.loc 1 1497 0
 1592 0034 94F82230 		ldrb	r3, [r4, #34]	@ zero_extendqisi2
1493:..\..\..\u8g2\u8g2\csrc/u8x8_d_st75256.c ****               
 1593              		.loc 1 1493 0
 1594 0038 F600     		lsls	r6, r6, #3
 1595              	.LVL248:
 1596 003a F6B2     		uxtb	r6, r6
 1597              	.LVL249:
 1598 003c B979     		ldrb	r1, [r7, #6]	@ zero_extendqisi2
 1599              		.loc 1 1497 0
 1600 003e 0BB9     		cbnz	r3, .L146
1498:..\..\..\u8g2\u8g2\csrc/u8x8_d_st75256.c **** 		u8x8_cad_SendArg(u8x8, 1+(((u8x8_tile_t *)arg_ptr)->y_pos));
 1601              		.loc 1 1498 0
 1602 0040 0131     		adds	r1, r1, #1
 1603 0042 C9B2     		uxtb	r1, r1
 1604              	.L146:
1499:..\..\..\u8g2\u8g2\csrc/u8x8_d_st75256.c **** 	      else
1500:..\..\..\u8g2\u8g2\csrc/u8x8_d_st75256.c **** 		u8x8_cad_SendArg(u8x8, (((u8x8_tile_t *)arg_ptr)->y_pos));
 1605              		.loc 1 1500 0
 1606 0044 2046     		mov	r0, r4
 1607 0046 FFF7FEFF 		bl	u8x8_cad_SendArg
 1608              	.LVL250:
1501:..\..\..\u8g2\u8g2\csrc/u8x8_d_st75256.c ****               u8x8_cad_SendArg(u8x8, 0x04f);
 1609              		.loc 1 1501 0
 1610 004a 4F21     		movs	r1, #79
 1611 004c 2046     		mov	r0, r4
 1612 004e FFF7FEFF 		bl	u8x8_cad_SendArg
 1613              	.LVL251:
1502:..\..\..\u8g2\u8g2\csrc/u8x8_d_st75256.c ****               //u8x8_cad_SendArg(u8x8, (((u8x8_tile_t *)arg_ptr)->y_pos));
1503:..\..\..\u8g2\u8g2\csrc/u8x8_d_st75256.c ****               u8x8_cad_SendCmd(u8x8, 0x015 );	/* col */
 1614              		.loc 1 1503 0
 1615 0052 1521     		movs	r1, #21
 1616 0054 2046     		mov	r0, r4
 1617 0056 FFF7FEFF 		bl	u8x8_cad_SendCmd
 1618              	.LVL252:
1504:..\..\..\u8g2\u8g2\csrc/u8x8_d_st75256.c ****               u8x8_cad_SendArg(u8x8, x+u8x8->x_offset);
 1619              		.loc 1 1504 0
 1620 005a 94F82210 		ldrb	r1, [r4, #34]	@ zero_extendqisi2
 1621 005e 2046     		mov	r0, r4
 1622 0060 3144     		add	r1, r1, r6
 1623 0062 C9B2     		uxtb	r1, r1
 1624 0064 FFF7FEFF 		bl	u8x8_cad_SendArg
 1625              	.LVL253:
1505:..\..\..\u8g2\u8g2\csrc/u8x8_d_st75256.c ****               u8x8_cad_SendArg(u8x8, 255);
 1626              		.loc 1 1505 0
ARM GAS  C:\Users\jesse\AppData\Local\Temp\cc6zNusR.s 			page 57


 1627 0068 FF21     		movs	r1, #255
 1628 006a 2046     		mov	r0, r4
 1629 006c FFF7FEFF 		bl	u8x8_cad_SendArg
 1630              	.LVL254:
1506:..\..\..\u8g2\u8g2\csrc/u8x8_d_st75256.c ****               u8x8_cad_SendCmd(u8x8, 0x05c );	
 1631              		.loc 1 1506 0
 1632 0070 5C21     		movs	r1, #92
 1633 0072 2046     		mov	r0, r4
 1634 0074 FFF7FEFF 		bl	u8x8_cad_SendCmd
 1635              	.LVL255:
 1636              	.L149:
1507:..\..\..\u8g2\u8g2\csrc/u8x8_d_st75256.c ****             
1508:..\..\..\u8g2\u8g2\csrc/u8x8_d_st75256.c ****               
1509:..\..\..\u8g2\u8g2\csrc/u8x8_d_st75256.c ****               do
1510:..\..\..\u8g2\u8g2\csrc/u8x8_d_st75256.c ****               {
1511:..\..\..\u8g2\u8g2\csrc/u8x8_d_st75256.c ****                 c = ((u8x8_tile_t *)arg_ptr)->cnt;
 1637              		.loc 1 1511 0
 1638 0078 3E79     		ldrb	r6, [r7, #4]	@ zero_extendqisi2
 1639              	.LVL256:
1512:..\..\..\u8g2\u8g2\csrc/u8x8_d_st75256.c ****                 ptr = ((u8x8_tile_t *)arg_ptr)->tile_ptr;
 1640              		.loc 1 1512 0
 1641 007a D7F80080 		ldr	r8, [r7]
 1642              	.LVL257:
1513:..\..\..\u8g2\u8g2\csrc/u8x8_d_st75256.c **** 		/* SendData can not handle more than 255 bytes, treat c > 31 correctly  */
1514:..\..\..\u8g2\u8g2\csrc/u8x8_d_st75256.c **** 		if ( c > 31 )
 1643              		.loc 1 1514 0
 1644 007e 1F2E     		cmp	r6, #31
 1645 0080 08D9     		bls	.L148
1515:..\..\..\u8g2\u8g2\csrc/u8x8_d_st75256.c **** 		{
1516:..\..\..\u8g2\u8g2\csrc/u8x8_d_st75256.c **** 		  u8x8_cad_SendData(u8x8, 248, ptr); 	/* 31*8=248 */
 1646              		.loc 1 1516 0
 1647 0082 4246     		mov	r2, r8
 1648 0084 F821     		movs	r1, #248
 1649 0086 2046     		mov	r0, r4
 1650 0088 FFF7FEFF 		bl	u8x8_cad_SendData
 1651              	.LVL258:
1517:..\..\..\u8g2\u8g2\csrc/u8x8_d_st75256.c **** 		  ptr+=248;
1518:..\..\..\u8g2\u8g2\csrc/u8x8_d_st75256.c **** 		  c -= 31;
 1652              		.loc 1 1518 0
 1653 008c 1F3E     		subs	r6, r6, #31
 1654              	.LVL259:
1517:..\..\..\u8g2\u8g2\csrc/u8x8_d_st75256.c **** 		  ptr+=248;
 1655              		.loc 1 1517 0
 1656 008e 08F1F808 		add	r8, r8, #248
 1657              	.LVL260:
 1658              		.loc 1 1518 0
 1659 0092 F6B2     		uxtb	r6, r6
 1660              	.LVL261:
 1661              	.L148:
1519:..\..\..\u8g2\u8g2\csrc/u8x8_d_st75256.c **** 		}
1520:..\..\..\u8g2\u8g2\csrc/u8x8_d_st75256.c **** 		
1521:..\..\..\u8g2\u8g2\csrc/u8x8_d_st75256.c **** 		u8x8_cad_SendData(u8x8, c*8, ptr); 	
 1662              		.loc 1 1521 0
 1663 0094 F100     		lsls	r1, r6, #3
 1664 0096 4246     		mov	r2, r8
 1665 0098 01F0F801 		and	r1, r1, #248
 1666 009c 2046     		mov	r0, r4
ARM GAS  C:\Users\jesse\AppData\Local\Temp\cc6zNusR.s 			page 58


1522:..\..\..\u8g2\u8g2\csrc/u8x8_d_st75256.c ****                 arg_int--;
 1667              		.loc 1 1522 0
 1668 009e 013D     		subs	r5, r5, #1
 1669              	.LVL262:
1521:..\..\..\u8g2\u8g2\csrc/u8x8_d_st75256.c ****                 arg_int--;
 1670              		.loc 1 1521 0
 1671 00a0 FFF7FEFF 		bl	u8x8_cad_SendData
 1672              	.LVL263:
1523:..\..\..\u8g2\u8g2\csrc/u8x8_d_st75256.c ****               } while( arg_int > 0 );
 1673              		.loc 1 1523 0
 1674 00a4 15F0FF05 		ands	r5, r5, #255
 1675              	.LVL264:
 1676 00a8 E6D1     		bne	.L149
 1677 00aa 32E0     		b	.L155
 1678              	.LVL265:
 1679              	.L139:
1524:..\..\..\u8g2\u8g2\csrc/u8x8_d_st75256.c ****               
1525:..\..\..\u8g2\u8g2\csrc/u8x8_d_st75256.c ****               u8x8_cad_EndTransfer(u8x8);
1526:..\..\..\u8g2\u8g2\csrc/u8x8_d_st75256.c ****               return 1;
1527:..\..\..\u8g2\u8g2\csrc/u8x8_d_st75256.c ****         case U8X8_MSG_DISPLAY_SETUP_MEMORY:
1528:..\..\..\u8g2\u8g2\csrc/u8x8_d_st75256.c ****             //u8x8_SetI2CAddress(u8x8, 0x078);		/* lowest I2C adr of the ST75256 */
1529:..\..\..\u8g2\u8g2\csrc/u8x8_d_st75256.c **** 	    u8x8_d_helper_display_setup_memory(u8x8, &u8x8_st75256_256x160_alt_display_info);
 1680              		.loc 1 1529 0
 1681 00ac 1D49     		ldr	r1, .L158
 1682 00ae FFF7FEFF 		bl	u8x8_d_helper_display_setup_memory
 1683              	.LVL266:
 1684 00b2 31E0     		b	.L154
 1685              	.LVL267:
 1686              	.L141:
1530:..\..\..\u8g2\u8g2\csrc/u8x8_d_st75256.c ****             return 1;
1531:..\..\..\u8g2\u8g2\csrc/u8x8_d_st75256.c ****         case U8X8_MSG_DISPLAY_INIT:
1532:..\..\..\u8g2\u8g2\csrc/u8x8_d_st75256.c **** 	    u8x8_d_helper_display_init(u8x8);
 1687              		.loc 1 1532 0
 1688 00b4 FFF7FEFF 		bl	u8x8_d_helper_display_init
 1689              	.LVL268:
1533:..\..\..\u8g2\u8g2\csrc/u8x8_d_st75256.c **** 	    u8x8_cad_SendSequence(u8x8, u8x8_d_st75256_256x160_alt_init_seq);    
 1690              		.loc 1 1533 0
 1691 00b8 1B49     		ldr	r1, .L158+4
 1692 00ba 03E0     		b	.L156
 1693              	.LVL269:
 1694              	.L142:
1534:..\..\..\u8g2\u8g2\csrc/u8x8_d_st75256.c ****             return 1;
1535:..\..\..\u8g2\u8g2\csrc/u8x8_d_st75256.c ****         case U8X8_MSG_DISPLAY_SET_POWER_SAVE:
1536:..\..\..\u8g2\u8g2\csrc/u8x8_d_st75256.c ****               if ( arg_int == 0 )
 1695              		.loc 1 1536 0
 1696 00bc 0AB9     		cbnz	r2, .L150
1537:..\..\..\u8g2\u8g2\csrc/u8x8_d_st75256.c ****                 u8x8_cad_SendSequence(u8x8, u8x8_d_st75256_256x128_powersave0_seq);
 1697              		.loc 1 1537 0
 1698 00be 1B49     		ldr	r1, .L158+8
 1699 00c0 00E0     		b	.L156
 1700              	.L150:
1538:..\..\..\u8g2\u8g2\csrc/u8x8_d_st75256.c ****               else
1539:..\..\..\u8g2\u8g2\csrc/u8x8_d_st75256.c ****                 u8x8_cad_SendSequence(u8x8, u8x8_d_st75256_256x128_powersave1_seq);
 1701              		.loc 1 1539 0
 1702 00c2 1B49     		ldr	r1, .L158+12
 1703              	.LVL270:
 1704              	.L156:
ARM GAS  C:\Users\jesse\AppData\Local\Temp\cc6zNusR.s 			page 59


 1705 00c4 2046     		mov	r0, r4
 1706 00c6 FFF7FEFF 		bl	u8x8_cad_SendSequence
 1707              	.LVL271:
 1708 00ca 25E0     		b	.L154
 1709              	.LVL272:
 1710              	.L143:
1540:..\..\..\u8g2\u8g2\csrc/u8x8_d_st75256.c **** 
1541:..\..\..\u8g2\u8g2\csrc/u8x8_d_st75256.c ****               return 1;
1542:..\..\..\u8g2\u8g2\csrc/u8x8_d_st75256.c **** 	case U8X8_MSG_DISPLAY_SET_FLIP_MODE:
1543:..\..\..\u8g2\u8g2\csrc/u8x8_d_st75256.c **** 	    if ( arg_int == 0 )
 1711              		.loc 1 1543 0
 1712 00cc 2AB9     		cbnz	r2, .L151
1544:..\..\..\u8g2\u8g2\csrc/u8x8_d_st75256.c **** 	    {
1545:..\..\..\u8g2\u8g2\csrc/u8x8_d_st75256.c **** 	      u8x8_cad_SendSequence(u8x8, u8x8_d_st75256_jlx172104_flip0_seq);
 1713              		.loc 1 1545 0
 1714 00ce 1949     		ldr	r1, .L158+16
 1715 00d0 FFF7FEFF 		bl	u8x8_cad_SendSequence
 1716              	.LVL273:
1546:..\..\..\u8g2\u8g2\csrc/u8x8_d_st75256.c **** 	      u8x8->x_offset = u8x8->display_info->default_x_offset;
 1717              		.loc 1 1546 0
 1718 00d4 2368     		ldr	r3, [r4]
 1719 00d6 9B7C     		ldrb	r3, [r3, #18]	@ zero_extendqisi2
 1720 00d8 04E0     		b	.L157
 1721              	.LVL274:
 1722              	.L151:
1547:..\..\..\u8g2\u8g2\csrc/u8x8_d_st75256.c **** 	    }
1548:..\..\..\u8g2\u8g2\csrc/u8x8_d_st75256.c **** 	    else
1549:..\..\..\u8g2\u8g2\csrc/u8x8_d_st75256.c **** 	    {
1550:..\..\..\u8g2\u8g2\csrc/u8x8_d_st75256.c **** 	      u8x8_cad_SendSequence(u8x8, u8x8_d_st75256_jlx172104_flip1_seq);
 1723              		.loc 1 1550 0
 1724 00da 1749     		ldr	r1, .L158+20
 1725 00dc FFF7FEFF 		bl	u8x8_cad_SendSequence
 1726              	.LVL275:
1551:..\..\..\u8g2\u8g2\csrc/u8x8_d_st75256.c **** 	      u8x8->x_offset = u8x8->display_info->flipmode_x_offset;
 1727              		.loc 1 1551 0
 1728 00e0 2368     		ldr	r3, [r4]
 1729 00e2 DB7C     		ldrb	r3, [r3, #19]	@ zero_extendqisi2
 1730              	.L157:
 1731 00e4 84F82230 		strb	r3, [r4, #34]
 1732 00e8 16E0     		b	.L154
 1733              	.LVL276:
 1734              	.L144:
1552:..\..\..\u8g2\u8g2\csrc/u8x8_d_st75256.c **** 	    }
1553:..\..\..\u8g2\u8g2\csrc/u8x8_d_st75256.c **** 	    return 1;
1554:..\..\..\u8g2\u8g2\csrc/u8x8_d_st75256.c **** 		
1555:..\..\..\u8g2\u8g2\csrc/u8x8_d_st75256.c **** #ifdef U8X8_WITH_SET_CONTRAST
1556:..\..\..\u8g2\u8g2\csrc/u8x8_d_st75256.c ****         case U8X8_MSG_DISPLAY_SET_CONTRAST:
1557:..\..\..\u8g2\u8g2\csrc/u8x8_d_st75256.c **** 
1558:..\..\..\u8g2\u8g2\csrc/u8x8_d_st75256.c ****               u8x8_cad_StartTransfer(u8x8);
 1735              		.loc 1 1558 0
 1736 00ea FFF7FEFF 		bl	u8x8_cad_StartTransfer
 1737              	.LVL277:
1559:..\..\..\u8g2\u8g2\csrc/u8x8_d_st75256.c ****               
1560:..\..\..\u8g2\u8g2\csrc/u8x8_d_st75256.c ****               u8x8_cad_SendCmd(u8x8, 0x030 );
 1738              		.loc 1 1560 0
 1739 00ee 3021     		movs	r1, #48
 1740 00f0 2046     		mov	r0, r4
ARM GAS  C:\Users\jesse\AppData\Local\Temp\cc6zNusR.s 			page 60


 1741 00f2 FFF7FEFF 		bl	u8x8_cad_SendCmd
 1742              	.LVL278:
1561:..\..\..\u8g2\u8g2\csrc/u8x8_d_st75256.c ****               u8x8_cad_SendCmd(u8x8, 0x081 );  /* there are 9 bit for the volume control */
 1743              		.loc 1 1561 0
 1744 00f6 8121     		movs	r1, #129
 1745 00f8 2046     		mov	r0, r4
 1746 00fa FFF7FEFF 		bl	u8x8_cad_SendCmd
 1747              	.LVL279:
1562:..\..\..\u8g2\u8g2\csrc/u8x8_d_st75256.c ****               u8x8_cad_SendArg(u8x8, (arg_int & 0x1f)<<1 );	/* lower 6 bit */
 1748              		.loc 1 1562 0
 1749 00fe 6900     		lsls	r1, r5, #1
 1750 0100 01F03E01 		and	r1, r1, #62
 1751 0104 2046     		mov	r0, r4
 1752 0106 FFF7FEFF 		bl	u8x8_cad_SendArg
 1753              	.LVL280:
1563:..\..\..\u8g2\u8g2\csrc/u8x8_d_st75256.c ****               u8x8_cad_SendArg(u8x8, (arg_int>>5));		/* upper 3 bit */
 1754              		.loc 1 1563 0
 1755 010a 6909     		lsrs	r1, r5, #5
 1756 010c 2046     		mov	r0, r4
 1757 010e FFF7FEFF 		bl	u8x8_cad_SendArg
 1758              	.LVL281:
 1759              	.L155:
1564:..\..\..\u8g2\u8g2\csrc/u8x8_d_st75256.c ****               
1565:..\..\..\u8g2\u8g2\csrc/u8x8_d_st75256.c ****               u8x8_cad_EndTransfer(u8x8);
 1760              		.loc 1 1565 0
 1761 0112 2046     		mov	r0, r4
 1762 0114 FFF7FEFF 		bl	u8x8_cad_EndTransfer
 1763              	.LVL282:
 1764              	.L154:
1566:..\..\..\u8g2\u8g2\csrc/u8x8_d_st75256.c ****               return 1;
 1765              		.loc 1 1566 0
 1766 0118 0120     		movs	r0, #1
 1767 011a BDE8F081 		pop	{r4, r5, r6, r7, r8, pc}
 1768              	.LVL283:
 1769              	.L152:
1567:..\..\..\u8g2\u8g2\csrc/u8x8_d_st75256.c **** #endif
1568:..\..\..\u8g2\u8g2\csrc/u8x8_d_st75256.c ****   }
1569:..\..\..\u8g2\u8g2\csrc/u8x8_d_st75256.c ****   return 0;
 1770              		.loc 1 1569 0
 1771 011e 0020     		movs	r0, #0
 1772              	.LVL284:
1570:..\..\..\u8g2\u8g2\csrc/u8x8_d_st75256.c **** 
1571:..\..\..\u8g2\u8g2\csrc/u8x8_d_st75256.c **** } 
 1773              		.loc 1 1571 0
 1774 0120 BDE8F081 		pop	{r4, r5, r6, r7, r8, pc}
 1775              	.LVL285:
 1776              	.L159:
 1777              		.align	2
 1778              	.L158:
 1779 0124 DC030000 		.word	.LANCHOR0+988
 1780 0128 F4030000 		.word	.LANCHOR0+1012
 1781 012c 00000000 		.word	.LANCHOR0
 1782 0130 0B000000 		.word	.LANCHOR0+11
 1783 0134 3E010000 		.word	.LANCHOR0+318
 1784 0138 31010000 		.word	.LANCHOR0+305
 1785              		.cfi_endproc
 1786              	.LFE8:
ARM GAS  C:\Users\jesse\AppData\Local\Temp\cc6zNusR.s 			page 61


 1787              		.size	u8x8_d_st75256_jlx256160_alt, .-u8x8_d_st75256_jlx256160_alt
 1788              		.section	.text.u8x8_d_st75256_jlx19296,"ax",%progbits
 1789              		.align	1
 1790              		.global	u8x8_d_st75256_jlx19296
 1791              		.thumb
 1792              		.thumb_func
 1793              		.type	u8x8_d_st75256_jlx19296, %function
 1794              	u8x8_d_st75256_jlx19296:
 1795              	.LFB9:
1572:..\..\..\u8g2\u8g2\csrc/u8x8_d_st75256.c **** 
1573:..\..\..\u8g2\u8g2\csrc/u8x8_d_st75256.c **** 
1574:..\..\..\u8g2\u8g2\csrc/u8x8_d_st75256.c **** /*=============================================*/
1575:..\..\..\u8g2\u8g2\csrc/u8x8_d_st75256.c **** /* JLX19296 LCD */
1576:..\..\..\u8g2\u8g2\csrc/u8x8_d_st75256.c **** 
1577:..\..\..\u8g2\u8g2\csrc/u8x8_d_st75256.c **** static const u8x8_display_info_t u8x8_st75256_192x96_display_info =
1578:..\..\..\u8g2\u8g2\csrc/u8x8_d_st75256.c **** {
1579:..\..\..\u8g2\u8g2\csrc/u8x8_d_st75256.c ****   /* chip_enable_level = */ 0,
1580:..\..\..\u8g2\u8g2\csrc/u8x8_d_st75256.c ****   /* chip_disable_level = */ 1,
1581:..\..\..\u8g2\u8g2\csrc/u8x8_d_st75256.c ****   
1582:..\..\..\u8g2\u8g2\csrc/u8x8_d_st75256.c ****   /* post_chip_enable_wait_ns = */ 20,
1583:..\..\..\u8g2\u8g2\csrc/u8x8_d_st75256.c ****   /* pre_chip_disable_wait_ns = */ 20,
1584:..\..\..\u8g2\u8g2\csrc/u8x8_d_st75256.c ****   /* reset_pulse_width_ms = */ 5, 	
1585:..\..\..\u8g2\u8g2\csrc/u8x8_d_st75256.c ****   /* post_reset_wait_ms = */ 5, 		/**/
1586:..\..\..\u8g2\u8g2\csrc/u8x8_d_st75256.c ****   /* sda_setup_time_ns = */ 20,		/* */
1587:..\..\..\u8g2\u8g2\csrc/u8x8_d_st75256.c ****   /* sck_pulse_width_ns = */ 40,	/*  */
1588:..\..\..\u8g2\u8g2\csrc/u8x8_d_st75256.c ****   /* sck_clock_hz = */ 4000000UL,	/* since Arduino 1.6.0, the SPI bus speed in Hz. Should be  10000
1589:..\..\..\u8g2\u8g2\csrc/u8x8_d_st75256.c ****   /* spi_mode = */ 0,		/* active high, rising edge */
1590:..\..\..\u8g2\u8g2\csrc/u8x8_d_st75256.c ****   /* i2c_bus_clock_100kHz = */ 4,	/* 400KHz */
1591:..\..\..\u8g2\u8g2\csrc/u8x8_d_st75256.c ****   /* data_setup_time_ns = */ 15,
1592:..\..\..\u8g2\u8g2\csrc/u8x8_d_st75256.c ****   /* write_pulse_width_ns = */ 70,	
1593:..\..\..\u8g2\u8g2\csrc/u8x8_d_st75256.c ****   /* tile_width = */ 24,	
1594:..\..\..\u8g2\u8g2\csrc/u8x8_d_st75256.c ****   /* tile_hight = */ 12,
1595:..\..\..\u8g2\u8g2\csrc/u8x8_d_st75256.c ****   /* default_x_offset = */ 0,	/*  */
1596:..\..\..\u8g2\u8g2\csrc/u8x8_d_st75256.c ****   /* flipmode_x_offset = */ 64,
1597:..\..\..\u8g2\u8g2\csrc/u8x8_d_st75256.c ****   /* pixel_width = */ 192,
1598:..\..\..\u8g2\u8g2\csrc/u8x8_d_st75256.c ****   /* pixel_height = */ 96
1599:..\..\..\u8g2\u8g2\csrc/u8x8_d_st75256.c **** };
1600:..\..\..\u8g2\u8g2\csrc/u8x8_d_st75256.c **** 
1601:..\..\..\u8g2\u8g2\csrc/u8x8_d_st75256.c **** static const uint8_t u8x8_d_st75256_jlx19296_init_seq[] = {
1602:..\..\..\u8g2\u8g2\csrc/u8x8_d_st75256.c ****   U8X8_START_TRANSFER(),             	/* enable chip, delay is part of the transfer start */
1603:..\..\..\u8g2\u8g2\csrc/u8x8_d_st75256.c ****   
1604:..\..\..\u8g2\u8g2\csrc/u8x8_d_st75256.c ****   U8X8_DLY(20),
1605:..\..\..\u8g2\u8g2\csrc/u8x8_d_st75256.c **** 
1606:..\..\..\u8g2\u8g2\csrc/u8x8_d_st75256.c ****   U8X8_C( 0x030 ),				/* select 00 commands */
1607:..\..\..\u8g2\u8g2\csrc/u8x8_d_st75256.c ****   U8X8_C( 0x094 ),				/* sleep out */
1608:..\..\..\u8g2\u8g2\csrc/u8x8_d_st75256.c **** 
1609:..\..\..\u8g2\u8g2\csrc/u8x8_d_st75256.c ****   //U8X8_C( 0x030 ),				/* select 00 commands */
1610:..\..\..\u8g2\u8g2\csrc/u8x8_d_st75256.c ****   U8X8_C( 0x0ae ),				/* display off */
1611:..\..\..\u8g2\u8g2\csrc/u8x8_d_st75256.c **** 
1612:..\..\..\u8g2\u8g2\csrc/u8x8_d_st75256.c ****   U8X8_C( 0x031 ),				/* select 01 commands */
1613:..\..\..\u8g2\u8g2\csrc/u8x8_d_st75256.c ****   U8X8_CA( 0x0d7, 0x09f ),		/* disable auto read */  
1614:..\..\..\u8g2\u8g2\csrc/u8x8_d_st75256.c **** 
1615:..\..\..\u8g2\u8g2\csrc/u8x8_d_st75256.c ****   //U8X8_C( 0x031 ),				/* select 01 commands */
1616:..\..\..\u8g2\u8g2\csrc/u8x8_d_st75256.c ****   U8X8_C( 0x032 ),				/* analog circuit set */
1617:..\..\..\u8g2\u8g2\csrc/u8x8_d_st75256.c ****   U8X8_A( 0x000 ),				/* code example: OSC Frequency adjustment */
1618:..\..\..\u8g2\u8g2\csrc/u8x8_d_st75256.c ****   U8X8_A( 0x001 ),				/* Frequency on booster capacitors 1 = 6KHz? */
1619:..\..\..\u8g2\u8g2\csrc/u8x8_d_st75256.c ****   U8X8_A( 0x003 ),				/* Bias: 1: 1/13, 2: 1/12, 3: 1/11, 4:1/10, 5:1/9 */
ARM GAS  C:\Users\jesse\AppData\Local\Temp\cc6zNusR.s 			page 62


1620:..\..\..\u8g2\u8g2\csrc/u8x8_d_st75256.c ****     
1621:..\..\..\u8g2\u8g2\csrc/u8x8_d_st75256.c ****   //U8X8_C( 0x031 ),				/* select 01 commands */
1622:..\..\..\u8g2\u8g2\csrc/u8x8_d_st75256.c ****   U8X8_C( 0x020 ),				/* gray levels */
1623:..\..\..\u8g2\u8g2\csrc/u8x8_d_st75256.c ****   U8X8_A( 0x01 ),
1624:..\..\..\u8g2\u8g2\csrc/u8x8_d_st75256.c ****   U8X8_A( 0x03 ),
1625:..\..\..\u8g2\u8g2\csrc/u8x8_d_st75256.c ****   U8X8_A( 0x05 ),
1626:..\..\..\u8g2\u8g2\csrc/u8x8_d_st75256.c ****   U8X8_A( 0x07 ),
1627:..\..\..\u8g2\u8g2\csrc/u8x8_d_st75256.c ****   U8X8_A( 0x09),
1628:..\..\..\u8g2\u8g2\csrc/u8x8_d_st75256.c ****   U8X8_A( 0x0b ),
1629:..\..\..\u8g2\u8g2\csrc/u8x8_d_st75256.c ****   U8X8_A( 0x0d ),
1630:..\..\..\u8g2\u8g2\csrc/u8x8_d_st75256.c ****   U8X8_A( 0x10 ),
1631:..\..\..\u8g2\u8g2\csrc/u8x8_d_st75256.c ****   U8X8_A( 0x11 ),
1632:..\..\..\u8g2\u8g2\csrc/u8x8_d_st75256.c ****   U8X8_A( 0x13 ),
1633:..\..\..\u8g2\u8g2\csrc/u8x8_d_st75256.c ****   U8X8_A( 0x15 ),
1634:..\..\..\u8g2\u8g2\csrc/u8x8_d_st75256.c ****   U8X8_A( 0x17 ),
1635:..\..\..\u8g2\u8g2\csrc/u8x8_d_st75256.c ****   U8X8_A( 0x19 ),
1636:..\..\..\u8g2\u8g2\csrc/u8x8_d_st75256.c ****   U8X8_A( 0x1b ),
1637:..\..\..\u8g2\u8g2\csrc/u8x8_d_st75256.c ****   U8X8_A( 0x1d ),
1638:..\..\..\u8g2\u8g2\csrc/u8x8_d_st75256.c ****   U8X8_A( 0x1f ),
1639:..\..\..\u8g2\u8g2\csrc/u8x8_d_st75256.c ****  
1640:..\..\..\u8g2\u8g2\csrc/u8x8_d_st75256.c ****   
1641:..\..\..\u8g2\u8g2\csrc/u8x8_d_st75256.c ****   U8X8_C( 0x030 ),				/* select 00 commands */
1642:..\..\..\u8g2\u8g2\csrc/u8x8_d_st75256.c ****   U8X8_CAA(0x75, 0, 0x4f),		/* row range */
1643:..\..\..\u8g2\u8g2\csrc/u8x8_d_st75256.c ****   U8X8_CAA(0x15, 0, 255),		/* col range */
1644:..\..\..\u8g2\u8g2\csrc/u8x8_d_st75256.c ****   
1645:..\..\..\u8g2\u8g2\csrc/u8x8_d_st75256.c ****   //U8X8_C( 0x030 ),				/* select 00 commands */
1646:..\..\..\u8g2\u8g2\csrc/u8x8_d_st75256.c ****   U8X8_CA( 0xbc, 0x00 ),			/* data scan dir */
1647:..\..\..\u8g2\u8g2\csrc/u8x8_d_st75256.c ****   U8X8_A( 0xa6 ),				/* ??? */
1648:..\..\..\u8g2\u8g2\csrc/u8x8_d_st75256.c **** 
1649:..\..\..\u8g2\u8g2\csrc/u8x8_d_st75256.c ****   //U8X8_C( 0x030 ),				/* select 00 commands */
1650:..\..\..\u8g2\u8g2\csrc/u8x8_d_st75256.c ****   U8X8_C( 0x00c ),				/* data format LSB top */
1651:..\..\..\u8g2\u8g2\csrc/u8x8_d_st75256.c **** 
1652:..\..\..\u8g2\u8g2\csrc/u8x8_d_st75256.c ****   //U8X8_C( 0x030 ),				/* select 00 commands */ 
1653:..\..\..\u8g2\u8g2\csrc/u8x8_d_st75256.c ****   U8X8_C( 0xca ),				/* display control, 3 args follow  */
1654:..\..\..\u8g2\u8g2\csrc/u8x8_d_st75256.c ****   U8X8_A( 0x00 ),				/* 0x00: no clock division, 0x04: devide clock */
1655:..\..\..\u8g2\u8g2\csrc/u8x8_d_st75256.c ****   U8X8_A( 0x9f ),				/* 1/160 duty value from the DS example code */
1656:..\..\..\u8g2\u8g2\csrc/u8x8_d_st75256.c ****   U8X8_A( 0x20 ),				/* nline off */ 
1657:..\..\..\u8g2\u8g2\csrc/u8x8_d_st75256.c **** 
1658:..\..\..\u8g2\u8g2\csrc/u8x8_d_st75256.c ****   //U8X8_C( 0x030 ),				/* select 00 commands */ 
1659:..\..\..\u8g2\u8g2\csrc/u8x8_d_st75256.c ****   U8X8_CA( 0x0f0, 0x010 ),		/* monochrome mode  = 0x010*/
1660:..\..\..\u8g2\u8g2\csrc/u8x8_d_st75256.c **** 
1661:..\..\..\u8g2\u8g2\csrc/u8x8_d_st75256.c ****   //U8X8_C( 0x030 ),				/* select 00 commands */
1662:..\..\..\u8g2\u8g2\csrc/u8x8_d_st75256.c ****   U8X8_CAA( 0x81, 0x2e, 0x03 ),	/* Volume control */
1663:..\..\..\u8g2\u8g2\csrc/u8x8_d_st75256.c **** 
1664:..\..\..\u8g2\u8g2\csrc/u8x8_d_st75256.c ****   //U8X8_C( 0x030 ),				/* select 00 commands */
1665:..\..\..\u8g2\u8g2\csrc/u8x8_d_st75256.c ****   U8X8_CA( 0x020, 0x00b ),		/* Power control: Regulator, follower & booster on */
1666:..\..\..\u8g2\u8g2\csrc/u8x8_d_st75256.c ****   U8X8_DLY(100),
1667:..\..\..\u8g2\u8g2\csrc/u8x8_d_st75256.c **** 
1668:..\..\..\u8g2\u8g2\csrc/u8x8_d_st75256.c ****   U8X8_END_TRANSFER(),             	/* disable chip */
1669:..\..\..\u8g2\u8g2\csrc/u8x8_d_st75256.c ****   U8X8_END()             			/* end of sequence */
1670:..\..\..\u8g2\u8g2\csrc/u8x8_d_st75256.c **** };    
1671:..\..\..\u8g2\u8g2\csrc/u8x8_d_st75256.c **** 
1672:..\..\..\u8g2\u8g2\csrc/u8x8_d_st75256.c **** 
1673:..\..\..\u8g2\u8g2\csrc/u8x8_d_st75256.c **** uint8_t u8x8_d_st75256_jlx19296(u8x8_t *u8x8, uint8_t msg, uint8_t arg_int, void *arg_ptr)
1674:..\..\..\u8g2\u8g2\csrc/u8x8_d_st75256.c **** {
 1796              		.loc 1 1674 0
 1797              		.cfi_startproc
ARM GAS  C:\Users\jesse\AppData\Local\Temp\cc6zNusR.s 			page 63


 1798              		@ args = 0, pretend = 0, frame = 0
 1799              		@ frame_needed = 0, uses_anonymous_args = 0
 1800              	.LVL286:
1675:..\..\..\u8g2\u8g2\csrc/u8x8_d_st75256.c ****   uint8_t x, c;
1676:..\..\..\u8g2\u8g2\csrc/u8x8_d_st75256.c ****   uint8_t *ptr;
1677:..\..\..\u8g2\u8g2\csrc/u8x8_d_st75256.c **** 
1678:..\..\..\u8g2\u8g2\csrc/u8x8_d_st75256.c ****   switch(msg)
 1801              		.loc 1 1678 0
 1802 0000 0939     		subs	r1, r1, #9
 1803              	.LVL287:
1674:..\..\..\u8g2\u8g2\csrc/u8x8_d_st75256.c ****   uint8_t x, c;
 1804              		.loc 1 1674 0
 1805 0002 2DE9F041 		push	{r4, r5, r6, r7, r8, lr}
 1806              		.cfi_def_cfa_offset 24
 1807              		.cfi_offset 4, -24
 1808              		.cfi_offset 5, -20
 1809              		.cfi_offset 6, -16
 1810              		.cfi_offset 7, -12
 1811              		.cfi_offset 8, -8
 1812              		.cfi_offset 14, -4
1674:..\..\..\u8g2\u8g2\csrc/u8x8_d_st75256.c ****   uint8_t x, c;
 1813              		.loc 1 1674 0
 1814 0006 0446     		mov	r4, r0
 1815 0008 1646     		mov	r6, r2
 1816 000a 1F46     		mov	r7, r3
 1817              		.loc 1 1678 0
 1818 000c 0629     		cmp	r1, #6
 1819 000e 00F28680 		bhi	.L175
 1820 0012 DFE801F0 		tbb	[pc, r1]
 1821              	.LVL288:
 1822              	.L163:
 1823 0016 4B       		.byte	(.L162-.L163)/2
 1824 0017 4F       		.byte	(.L164-.L163)/2
 1825 0018 53       		.byte	(.L165-.L163)/2
 1826 0019 84       		.byte	(.L175-.L163)/2
 1827 001a 5B       		.byte	(.L166-.L163)/2
 1828 001b 6A       		.byte	(.L167-.L163)/2
 1829 001c 04       		.byte	(.L168-.L163)/2
 1830 001d 00       		.p2align 1
 1831              	.L168:
1679:..\..\..\u8g2\u8g2\csrc/u8x8_d_st75256.c ****   {
1680:..\..\..\u8g2\u8g2\csrc/u8x8_d_st75256.c ****             case U8X8_MSG_DISPLAY_DRAW_TILE:
1681:..\..\..\u8g2\u8g2\csrc/u8x8_d_st75256.c ****               
1682:..\..\..\u8g2\u8g2\csrc/u8x8_d_st75256.c ****               u8x8_cad_StartTransfer(u8x8);
 1832              		.loc 1 1682 0
 1833 001e FFF7FEFF 		bl	u8x8_cad_StartTransfer
 1834              	.LVL289:
1683:..\..\..\u8g2\u8g2\csrc/u8x8_d_st75256.c ****               x = ((u8x8_tile_t *)arg_ptr)->x_pos;    
1684:..\..\..\u8g2\u8g2\csrc/u8x8_d_st75256.c ****               x *= 8;
1685:..\..\..\u8g2\u8g2\csrc/u8x8_d_st75256.c ****               
1686:..\..\..\u8g2\u8g2\csrc/u8x8_d_st75256.c ****               u8x8_cad_SendCmd(u8x8, 0x030 );	/* select command set */
 1835              		.loc 1 1686 0
 1836 0022 3021     		movs	r1, #48
 1837 0024 2046     		mov	r0, r4
1683:..\..\..\u8g2\u8g2\csrc/u8x8_d_st75256.c ****               x = ((u8x8_tile_t *)arg_ptr)->x_pos;    
 1838              		.loc 1 1683 0
 1839 0026 7D79     		ldrb	r5, [r7, #5]	@ zero_extendqisi2
ARM GAS  C:\Users\jesse\AppData\Local\Temp\cc6zNusR.s 			page 64


 1840              	.LVL290:
 1841              		.loc 1 1686 0
 1842 0028 FFF7FEFF 		bl	u8x8_cad_SendCmd
 1843              	.LVL291:
1687:..\..\..\u8g2\u8g2\csrc/u8x8_d_st75256.c ****               u8x8_cad_SendCmd(u8x8, 0x075 );	/* row */
 1844              		.loc 1 1687 0
 1845 002c 7521     		movs	r1, #117
 1846 002e 2046     		mov	r0, r4
 1847 0030 FFF7FEFF 		bl	u8x8_cad_SendCmd
 1848              	.LVL292:
1688:..\..\..\u8g2\u8g2\csrc/u8x8_d_st75256.c **** 	      if ( u8x8->x_offset == 0 )		/* 0 means flip mode 1, then adjust y value */
 1849              		.loc 1 1688 0
 1850 0034 94F82230 		ldrb	r3, [r4, #34]	@ zero_extendqisi2
1684:..\..\..\u8g2\u8g2\csrc/u8x8_d_st75256.c ****               
 1851              		.loc 1 1684 0
 1852 0038 ED00     		lsls	r5, r5, #3
 1853              	.LVL293:
 1854 003a 5FFA85F8 		uxtb	r8, r5
 1855              	.LVL294:
 1856 003e B979     		ldrb	r1, [r7, #6]	@ zero_extendqisi2
 1857              		.loc 1 1688 0
 1858 0040 0BB9     		cbnz	r3, .L169
1689:..\..\..\u8g2\u8g2\csrc/u8x8_d_st75256.c **** 		u8x8_cad_SendArg(u8x8, 8+(((u8x8_tile_t *)arg_ptr)->y_pos));
 1859              		.loc 1 1689 0
 1860 0042 0831     		adds	r1, r1, #8
 1861 0044 00E0     		b	.L177
 1862              	.L169:
1690:..\..\..\u8g2\u8g2\csrc/u8x8_d_st75256.c **** 	      else
1691:..\..\..\u8g2\u8g2\csrc/u8x8_d_st75256.c **** 		u8x8_cad_SendArg(u8x8, 1+(((u8x8_tile_t *)arg_ptr)->y_pos));
 1863              		.loc 1 1691 0
 1864 0046 0131     		adds	r1, r1, #1
 1865              	.L177:
 1866 0048 C9B2     		uxtb	r1, r1
 1867 004a 2046     		mov	r0, r4
 1868 004c FFF7FEFF 		bl	u8x8_cad_SendArg
 1869              	.LVL295:
1692:..\..\..\u8g2\u8g2\csrc/u8x8_d_st75256.c ****               u8x8_cad_SendArg(u8x8, 0x04f);
 1870              		.loc 1 1692 0
 1871 0050 4F21     		movs	r1, #79
 1872 0052 2046     		mov	r0, r4
 1873 0054 FFF7FEFF 		bl	u8x8_cad_SendArg
 1874              	.LVL296:
1693:..\..\..\u8g2\u8g2\csrc/u8x8_d_st75256.c ****               //u8x8_cad_SendArg(u8x8, (((u8x8_tile_t *)arg_ptr)->y_pos));
1694:..\..\..\u8g2\u8g2\csrc/u8x8_d_st75256.c ****               u8x8_cad_SendCmd(u8x8, 0x015 );	/* col */
 1875              		.loc 1 1694 0
 1876 0058 1521     		movs	r1, #21
 1877 005a 2046     		mov	r0, r4
 1878 005c FFF7FEFF 		bl	u8x8_cad_SendCmd
 1879              	.LVL297:
1695:..\..\..\u8g2\u8g2\csrc/u8x8_d_st75256.c ****               u8x8_cad_SendArg(u8x8, x+u8x8->x_offset);
 1880              		.loc 1 1695 0
 1881 0060 94F82210 		ldrb	r1, [r4, #34]	@ zero_extendqisi2
 1882 0064 2046     		mov	r0, r4
 1883 0066 4144     		add	r1, r1, r8
 1884 0068 C9B2     		uxtb	r1, r1
 1885 006a FFF7FEFF 		bl	u8x8_cad_SendArg
 1886              	.LVL298:
ARM GAS  C:\Users\jesse\AppData\Local\Temp\cc6zNusR.s 			page 65


1696:..\..\..\u8g2\u8g2\csrc/u8x8_d_st75256.c ****               u8x8_cad_SendArg(u8x8, 255);
 1887              		.loc 1 1696 0
 1888 006e FF21     		movs	r1, #255
 1889 0070 2046     		mov	r0, r4
 1890 0072 FFF7FEFF 		bl	u8x8_cad_SendArg
 1891              	.LVL299:
1697:..\..\..\u8g2\u8g2\csrc/u8x8_d_st75256.c ****               u8x8_cad_SendCmd(u8x8, 0x05c );	
 1892              		.loc 1 1697 0
 1893 0076 5C21     		movs	r1, #92
 1894 0078 2046     		mov	r0, r4
 1895 007a FFF7FEFF 		bl	u8x8_cad_SendCmd
 1896              	.LVL300:
 1897              	.L172:
1698:..\..\..\u8g2\u8g2\csrc/u8x8_d_st75256.c ****             
1699:..\..\..\u8g2\u8g2\csrc/u8x8_d_st75256.c ****               
1700:..\..\..\u8g2\u8g2\csrc/u8x8_d_st75256.c ****               do
1701:..\..\..\u8g2\u8g2\csrc/u8x8_d_st75256.c ****               {
1702:..\..\..\u8g2\u8g2\csrc/u8x8_d_st75256.c ****                 c = ((u8x8_tile_t *)arg_ptr)->cnt;
 1898              		.loc 1 1702 0
 1899 007e 3B79     		ldrb	r3, [r7, #4]	@ zero_extendqisi2
 1900              	.LVL301:
1703:..\..\..\u8g2\u8g2\csrc/u8x8_d_st75256.c ****                 ptr = ((u8x8_tile_t *)arg_ptr)->tile_ptr;
 1901              		.loc 1 1703 0
 1902 0080 3A68     		ldr	r2, [r7]
 1903              	.LVL302:
1704:..\..\..\u8g2\u8g2\csrc/u8x8_d_st75256.c ****                 c *= 8;
 1904              		.loc 1 1704 0
 1905 0082 DB00     		lsls	r3, r3, #3
 1906              	.LVL303:
 1907 0084 DDB2     		uxtb	r5, r3
 1908              	.LVL304:
1705:..\..\..\u8g2\u8g2\csrc/u8x8_d_st75256.c **** 
1706:..\..\..\u8g2\u8g2\csrc/u8x8_d_st75256.c ****                 if ( c + x > 192u )
 1909              		.loc 1 1706 0
 1910 0086 05EB0803 		add	r3, r5, r8
 1911 008a C02B     		cmp	r3, #192
 1912              	.LVL305:
1707:..\..\..\u8g2\u8g2\csrc/u8x8_d_st75256.c ****                 {
1708:..\..\..\u8g2\u8g2\csrc/u8x8_d_st75256.c ****                         c = 192u;
1709:..\..\..\u8g2\u8g2\csrc/u8x8_d_st75256.c ****                         c -= x;
 1913              		.loc 1 1709 0
 1914 008c C4BF     		itt	gt
 1915 008e C8F1C003 		rsbgt	r3, r8, #192
 1916 0092 DDB2     		uxtbgt	r5, r3
 1917              	.LVL306:
1710:..\..\..\u8g2\u8g2\csrc/u8x8_d_st75256.c ****                 }
1711:..\..\..\u8g2\u8g2\csrc/u8x8_d_st75256.c ****                       
1712:..\..\..\u8g2\u8g2\csrc/u8x8_d_st75256.c ****                 u8x8_cad_SendData(u8x8, c, ptr); 	
 1918              		.loc 1 1712 0
 1919 0094 2946     		mov	r1, r5
 1920 0096 2046     		mov	r0, r4
1713:..\..\..\u8g2\u8g2\csrc/u8x8_d_st75256.c ****                 x += c;
1714:..\..\..\u8g2\u8g2\csrc/u8x8_d_st75256.c ****                 arg_int--;
 1921              		.loc 1 1714 0
 1922 0098 013E     		subs	r6, r6, #1
 1923              	.LVL307:
1712:..\..\..\u8g2\u8g2\csrc/u8x8_d_st75256.c ****                 x += c;
ARM GAS  C:\Users\jesse\AppData\Local\Temp\cc6zNusR.s 			page 66


 1924              		.loc 1 1712 0
 1925 009a FFF7FEFF 		bl	u8x8_cad_SendData
 1926              	.LVL308:
1713:..\..\..\u8g2\u8g2\csrc/u8x8_d_st75256.c ****                 x += c;
 1927              		.loc 1 1713 0
 1928 009e 4544     		add	r5, r5, r8
 1929              	.LVL309:
1715:..\..\..\u8g2\u8g2\csrc/u8x8_d_st75256.c ****               } while( arg_int > 0 );
 1930              		.loc 1 1715 0
 1931 00a0 16F0FF06 		ands	r6, r6, #255
1713:..\..\..\u8g2\u8g2\csrc/u8x8_d_st75256.c ****                 x += c;
 1932              		.loc 1 1713 0
 1933 00a4 5FFA85F8 		uxtb	r8, r5
 1934              	.LVL310:
 1935              		.loc 1 1715 0
 1936 00a8 E9D1     		bne	.L172
 1937 00aa 32E0     		b	.L179
 1938              	.LVL311:
 1939              	.L162:
1716:..\..\..\u8g2\u8g2\csrc/u8x8_d_st75256.c ****               
1717:..\..\..\u8g2\u8g2\csrc/u8x8_d_st75256.c ****               u8x8_cad_EndTransfer(u8x8);
1718:..\..\..\u8g2\u8g2\csrc/u8x8_d_st75256.c ****               return 1;
1719:..\..\..\u8g2\u8g2\csrc/u8x8_d_st75256.c ****         case U8X8_MSG_DISPLAY_SETUP_MEMORY:
1720:..\..\..\u8g2\u8g2\csrc/u8x8_d_st75256.c ****             //u8x8_SetI2CAddress(u8x8, 0x078);		/* lowest I2C adr of the ST75256 */
1721:..\..\..\u8g2\u8g2\csrc/u8x8_d_st75256.c ****             u8x8_d_helper_display_setup_memory(u8x8, &u8x8_st75256_192x96_display_info);
 1940              		.loc 1 1721 0
 1941 00ac 1D49     		ldr	r1, .L182
 1942 00ae FFF7FEFF 		bl	u8x8_d_helper_display_setup_memory
 1943              	.LVL312:
 1944 00b2 31E0     		b	.L178
 1945              	.LVL313:
 1946              	.L164:
1722:..\..\..\u8g2\u8g2\csrc/u8x8_d_st75256.c ****             return 1;
1723:..\..\..\u8g2\u8g2\csrc/u8x8_d_st75256.c ****         case U8X8_MSG_DISPLAY_INIT:
1724:..\..\..\u8g2\u8g2\csrc/u8x8_d_st75256.c ****             u8x8_d_helper_display_init(u8x8);
 1947              		.loc 1 1724 0
 1948 00b4 FFF7FEFF 		bl	u8x8_d_helper_display_init
 1949              	.LVL314:
1725:..\..\..\u8g2\u8g2\csrc/u8x8_d_st75256.c ****             u8x8_cad_SendSequence(u8x8, u8x8_d_st75256_jlx19296_init_seq);
 1950              		.loc 1 1725 0
 1951 00b8 1B49     		ldr	r1, .L182+4
 1952 00ba 03E0     		b	.L180
 1953              	.LVL315:
 1954              	.L165:
1726:..\..\..\u8g2\u8g2\csrc/u8x8_d_st75256.c ****             return 1;
1727:..\..\..\u8g2\u8g2\csrc/u8x8_d_st75256.c ****         case U8X8_MSG_DISPLAY_SET_POWER_SAVE:
1728:..\..\..\u8g2\u8g2\csrc/u8x8_d_st75256.c ****               if ( arg_int == 0 )
 1955              		.loc 1 1728 0
 1956 00bc 0AB9     		cbnz	r2, .L173
1729:..\..\..\u8g2\u8g2\csrc/u8x8_d_st75256.c ****                 u8x8_cad_SendSequence(u8x8, u8x8_d_st75256_256x128_powersave0_seq);
 1957              		.loc 1 1729 0
 1958 00be 1B49     		ldr	r1, .L182+8
 1959 00c0 00E0     		b	.L180
 1960              	.L173:
1730:..\..\..\u8g2\u8g2\csrc/u8x8_d_st75256.c ****               else
1731:..\..\..\u8g2\u8g2\csrc/u8x8_d_st75256.c ****                 u8x8_cad_SendSequence(u8x8, u8x8_d_st75256_256x128_powersave1_seq);
 1961              		.loc 1 1731 0
ARM GAS  C:\Users\jesse\AppData\Local\Temp\cc6zNusR.s 			page 67


 1962 00c2 1B49     		ldr	r1, .L182+12
 1963              	.LVL316:
 1964              	.L180:
 1965 00c4 2046     		mov	r0, r4
 1966 00c6 FFF7FEFF 		bl	u8x8_cad_SendSequence
 1967              	.LVL317:
 1968 00ca 25E0     		b	.L178
 1969              	.LVL318:
 1970              	.L166:
1732:..\..\..\u8g2\u8g2\csrc/u8x8_d_st75256.c **** 
1733:..\..\..\u8g2\u8g2\csrc/u8x8_d_st75256.c ****               return 1;
1734:..\..\..\u8g2\u8g2\csrc/u8x8_d_st75256.c **** 	case U8X8_MSG_DISPLAY_SET_FLIP_MODE:
1735:..\..\..\u8g2\u8g2\csrc/u8x8_d_st75256.c **** 	    if ( arg_int == 0 )
 1971              		.loc 1 1735 0
 1972 00cc 2AB9     		cbnz	r2, .L174
1736:..\..\..\u8g2\u8g2\csrc/u8x8_d_st75256.c **** 	    {
1737:..\..\..\u8g2\u8g2\csrc/u8x8_d_st75256.c **** 	      u8x8_cad_SendSequence(u8x8, u8x8_d_st75256_jlx256160_flip0_seq);
 1973              		.loc 1 1737 0
 1974 00ce 1949     		ldr	r1, .L182+16
 1975 00d0 FFF7FEFF 		bl	u8x8_cad_SendSequence
 1976              	.LVL319:
1738:..\..\..\u8g2\u8g2\csrc/u8x8_d_st75256.c **** 	      u8x8->x_offset = u8x8->display_info->default_x_offset;
 1977              		.loc 1 1738 0
 1978 00d4 2368     		ldr	r3, [r4]
 1979 00d6 9B7C     		ldrb	r3, [r3, #18]	@ zero_extendqisi2
 1980 00d8 04E0     		b	.L181
 1981              	.LVL320:
 1982              	.L174:
1739:..\..\..\u8g2\u8g2\csrc/u8x8_d_st75256.c **** 	    }
1740:..\..\..\u8g2\u8g2\csrc/u8x8_d_st75256.c **** 	    else
1741:..\..\..\u8g2\u8g2\csrc/u8x8_d_st75256.c **** 	    {
1742:..\..\..\u8g2\u8g2\csrc/u8x8_d_st75256.c **** 	      u8x8_cad_SendSequence(u8x8, u8x8_d_st75256_jlx256160_flip1_seq);
 1983              		.loc 1 1742 0
 1984 00da 1749     		ldr	r1, .L182+20
 1985 00dc FFF7FEFF 		bl	u8x8_cad_SendSequence
 1986              	.LVL321:
1743:..\..\..\u8g2\u8g2\csrc/u8x8_d_st75256.c **** 	      u8x8->x_offset = u8x8->display_info->flipmode_x_offset;
 1987              		.loc 1 1743 0
 1988 00e0 2368     		ldr	r3, [r4]
 1989 00e2 DB7C     		ldrb	r3, [r3, #19]	@ zero_extendqisi2
 1990              	.L181:
 1991 00e4 84F82230 		strb	r3, [r4, #34]
 1992 00e8 16E0     		b	.L178
 1993              	.LVL322:
 1994              	.L167:
1744:..\..\..\u8g2\u8g2\csrc/u8x8_d_st75256.c **** 	    }
1745:..\..\..\u8g2\u8g2\csrc/u8x8_d_st75256.c **** 	    return 1;
1746:..\..\..\u8g2\u8g2\csrc/u8x8_d_st75256.c **** 	    /*
1747:..\..\..\u8g2\u8g2\csrc/u8x8_d_st75256.c **** 	    if ( arg_int == 0 )
1748:..\..\..\u8g2\u8g2\csrc/u8x8_d_st75256.c **** 	    {
1749:..\..\..\u8g2\u8g2\csrc/u8x8_d_st75256.c **** 	      u8x8_cad_SendSequence(u8x8, u8x8_d_st75256_jlx172104_flip0_seq);
1750:..\..\..\u8g2\u8g2\csrc/u8x8_d_st75256.c **** 	      u8x8->x_offset = u8x8->display_info->default_x_offset;
1751:..\..\..\u8g2\u8g2\csrc/u8x8_d_st75256.c **** 	    }
1752:..\..\..\u8g2\u8g2\csrc/u8x8_d_st75256.c **** 	    else
1753:..\..\..\u8g2\u8g2\csrc/u8x8_d_st75256.c **** 	    {
1754:..\..\..\u8g2\u8g2\csrc/u8x8_d_st75256.c **** 	      u8x8_cad_SendSequence(u8x8, u8x8_d_st75256_jlx172104_flip1_seq); 
1755:..\..\..\u8g2\u8g2\csrc/u8x8_d_st75256.c **** 	      u8x8->x_offset = u8x8->display_info->flipmode_x_offset;
ARM GAS  C:\Users\jesse\AppData\Local\Temp\cc6zNusR.s 			page 68


1756:..\..\..\u8g2\u8g2\csrc/u8x8_d_st75256.c **** 	    }
1757:..\..\..\u8g2\u8g2\csrc/u8x8_d_st75256.c **** 	    return 1;
1758:..\..\..\u8g2\u8g2\csrc/u8x8_d_st75256.c **** 	    */
1759:..\..\..\u8g2\u8g2\csrc/u8x8_d_st75256.c **** 		
1760:..\..\..\u8g2\u8g2\csrc/u8x8_d_st75256.c **** #ifdef U8X8_WITH_SET_CONTRAST
1761:..\..\..\u8g2\u8g2\csrc/u8x8_d_st75256.c ****         case U8X8_MSG_DISPLAY_SET_CONTRAST:
1762:..\..\..\u8g2\u8g2\csrc/u8x8_d_st75256.c **** 
1763:..\..\..\u8g2\u8g2\csrc/u8x8_d_st75256.c ****               u8x8_cad_StartTransfer(u8x8);
 1995              		.loc 1 1763 0
 1996 00ea FFF7FEFF 		bl	u8x8_cad_StartTransfer
 1997              	.LVL323:
1764:..\..\..\u8g2\u8g2\csrc/u8x8_d_st75256.c ****               
1765:..\..\..\u8g2\u8g2\csrc/u8x8_d_st75256.c ****               u8x8_cad_SendCmd(u8x8, 0x030 );
 1998              		.loc 1 1765 0
 1999 00ee 3021     		movs	r1, #48
 2000 00f0 2046     		mov	r0, r4
 2001 00f2 FFF7FEFF 		bl	u8x8_cad_SendCmd
 2002              	.LVL324:
1766:..\..\..\u8g2\u8g2\csrc/u8x8_d_st75256.c ****               u8x8_cad_SendCmd(u8x8, 0x081 );  /* there are 9 bit for the volume control */
 2003              		.loc 1 1766 0
 2004 00f6 8121     		movs	r1, #129
 2005 00f8 2046     		mov	r0, r4
 2006 00fa FFF7FEFF 		bl	u8x8_cad_SendCmd
 2007              	.LVL325:
1767:..\..\..\u8g2\u8g2\csrc/u8x8_d_st75256.c ****               u8x8_cad_SendArg(u8x8, (arg_int & 0x1f)<<1 );	/* lower 6 bit */
 2008              		.loc 1 1767 0
 2009 00fe 7100     		lsls	r1, r6, #1
 2010 0100 01F03E01 		and	r1, r1, #62
 2011 0104 2046     		mov	r0, r4
 2012 0106 FFF7FEFF 		bl	u8x8_cad_SendArg
 2013              	.LVL326:
1768:..\..\..\u8g2\u8g2\csrc/u8x8_d_st75256.c ****               u8x8_cad_SendArg(u8x8, (arg_int>>5));		/* upper 3 bit */
 2014              		.loc 1 1768 0
 2015 010a 7109     		lsrs	r1, r6, #5
 2016 010c 2046     		mov	r0, r4
 2017 010e FFF7FEFF 		bl	u8x8_cad_SendArg
 2018              	.LVL327:
 2019              	.L179:
1769:..\..\..\u8g2\u8g2\csrc/u8x8_d_st75256.c ****               
1770:..\..\..\u8g2\u8g2\csrc/u8x8_d_st75256.c ****               u8x8_cad_EndTransfer(u8x8);
 2020              		.loc 1 1770 0
 2021 0112 2046     		mov	r0, r4
 2022 0114 FFF7FEFF 		bl	u8x8_cad_EndTransfer
 2023              	.LVL328:
 2024              	.L178:
1771:..\..\..\u8g2\u8g2\csrc/u8x8_d_st75256.c ****               return 1;
 2025              		.loc 1 1771 0
 2026 0118 0120     		movs	r0, #1
 2027 011a BDE8F081 		pop	{r4, r5, r6, r7, r8, pc}
 2028              	.LVL329:
 2029              	.L175:
1772:..\..\..\u8g2\u8g2\csrc/u8x8_d_st75256.c **** #endif
1773:..\..\..\u8g2\u8g2\csrc/u8x8_d_st75256.c ****   }
1774:..\..\..\u8g2\u8g2\csrc/u8x8_d_st75256.c ****   return 0;
 2030              		.loc 1 1774 0
 2031 011e 0020     		movs	r0, #0
 2032              	.LVL330:
ARM GAS  C:\Users\jesse\AppData\Local\Temp\cc6zNusR.s 			page 69


1775:..\..\..\u8g2\u8g2\csrc/u8x8_d_st75256.c **** }
 2033              		.loc 1 1775 0
 2034 0120 BDE8F081 		pop	{r4, r5, r6, r7, r8, pc}
 2035              	.LVL331:
 2036              	.L183:
 2037              		.align	2
 2038              	.L182:
 2039 0124 60040000 		.word	.LANCHOR0+1120
 2040 0128 78040000 		.word	.LANCHOR0+1144
 2041 012c 00000000 		.word	.LANCHOR0
 2042 0130 0B000000 		.word	.LANCHOR0+11
 2043 0134 59030000 		.word	.LANCHOR0+857
 2044 0138 66030000 		.word	.LANCHOR0+870
 2045              		.cfi_endproc
 2046              	.LFE9:
 2047              		.size	u8x8_d_st75256_jlx19296, .-u8x8_d_st75256_jlx19296
 2048              		.section	.rodata
 2049              		.align	2
 2050              		.set	.LANCHOR0,. + 0
 2051              		.type	u8x8_d_st75256_256x128_powersave0_seq, %object
 2052              		.size	u8x8_d_st75256_256x128_powersave0_seq, 11
 2053              	u8x8_d_st75256_256x128_powersave0_seq:
 2054 0000 18       		.byte	24
 2055 0001 15       		.byte	21
 2056 0002 30       		.byte	48
 2057 0003 15       		.byte	21
 2058 0004 94       		.byte	-108
 2059 0005 FE       		.byte	-2
 2060 0006 0A       		.byte	10
 2061 0007 15       		.byte	21
 2062 0008 AF       		.byte	-81
 2063 0009 19       		.byte	25
 2064 000a FF       		.byte	-1
 2065              		.type	u8x8_d_st75256_256x128_powersave1_seq, %object
 2066              		.size	u8x8_d_st75256_256x128_powersave1_seq, 9
 2067              	u8x8_d_st75256_256x128_powersave1_seq:
 2068 000b 18       		.byte	24
 2069 000c 15       		.byte	21
 2070 000d 30       		.byte	48
 2071 000e 15       		.byte	21
 2072 000f AE       		.byte	-82
 2073 0010 15       		.byte	21
 2074 0011 95       		.byte	-107
 2075 0012 19       		.byte	25
 2076 0013 FF       		.byte	-1
 2077              		.type	u8x8_st75256_256x128_display_info, %object
 2078              		.size	u8x8_st75256_256x128_display_info, 24
 2079              	u8x8_st75256_256x128_display_info:
 2080 0014 00       		.byte	0
 2081 0015 01       		.byte	1
 2082 0016 14       		.byte	20
 2083 0017 14       		.byte	20
 2084 0018 05       		.byte	5
 2085 0019 05       		.byte	5
 2086 001a 14       		.byte	20
 2087 001b 28       		.byte	40
 2088 001c 00093D00 		.word	4000000
ARM GAS  C:\Users\jesse\AppData\Local\Temp\cc6zNusR.s 			page 70


 2089 0020 00       		.byte	0
 2090 0021 04       		.byte	4
 2091 0022 0F       		.byte	15
 2092 0023 46       		.byte	70
 2093 0024 20       		.byte	32
 2094 0025 10       		.byte	16
 2095 0026 00       		.byte	0
 2096 0027 05       		.byte	5
 2097 0028 0001     		.short	256
 2098 002a 8000     		.short	128
 2099              		.type	u8x8_d_st75256_256x128_init_seq, %object
 2100              		.size	u8x8_d_st75256_256x128_init_seq, 105
 2101              	u8x8_d_st75256_256x128_init_seq:
 2102 002c 18       		.byte	24
 2103 002d FE       		.byte	-2
 2104 002e 14       		.byte	20
 2105 002f 15       		.byte	21
 2106 0030 30       		.byte	48
 2107 0031 15       		.byte	21
 2108 0032 94       		.byte	-108
 2109 0033 15       		.byte	21
 2110 0034 AE       		.byte	-82
 2111 0035 15       		.byte	21
 2112 0036 31       		.byte	49
 2113 0037 15       		.byte	21
 2114 0038 D7       		.byte	-41
 2115 0039 16       		.byte	22
 2116 003a 9F       		.byte	-97
 2117 003b 15       		.byte	21
 2118 003c 32       		.byte	50
 2119 003d 16       		.byte	22
 2120 003e 00       		.byte	0
 2121 003f 16       		.byte	22
 2122 0040 01       		.byte	1
 2123 0041 16       		.byte	22
 2124 0042 00       		.byte	0
 2125 0043 15       		.byte	21
 2126 0044 20       		.byte	32
 2127 0045 16       		.byte	22
 2128 0046 01       		.byte	1
 2129 0047 16       		.byte	22
 2130 0048 03       		.byte	3
 2131 0049 16       		.byte	22
 2132 004a 05       		.byte	5
 2133 004b 16       		.byte	22
 2134 004c 07       		.byte	7
 2135 004d 16       		.byte	22
 2136 004e 09       		.byte	9
 2137 004f 16       		.byte	22
 2138 0050 0B       		.byte	11
 2139 0051 16       		.byte	22
 2140 0052 0D       		.byte	13
 2141 0053 16       		.byte	22
 2142 0054 10       		.byte	16
 2143 0055 16       		.byte	22
 2144 0056 11       		.byte	17
 2145 0057 16       		.byte	22
ARM GAS  C:\Users\jesse\AppData\Local\Temp\cc6zNusR.s 			page 71


 2146 0058 13       		.byte	19
 2147 0059 16       		.byte	22
 2148 005a 15       		.byte	21
 2149 005b 16       		.byte	22
 2150 005c 17       		.byte	23
 2151 005d 16       		.byte	22
 2152 005e 19       		.byte	25
 2153 005f 16       		.byte	22
 2154 0060 1B       		.byte	27
 2155 0061 16       		.byte	22
 2156 0062 1D       		.byte	29
 2157 0063 16       		.byte	22
 2158 0064 1F       		.byte	31
 2159 0065 15       		.byte	21
 2160 0066 30       		.byte	48
 2161 0067 15       		.byte	21
 2162 0068 75       		.byte	117
 2163 0069 16       		.byte	22
 2164 006a 00       		.byte	0
 2165 006b 16       		.byte	22
 2166 006c 4F       		.byte	79
 2167 006d 15       		.byte	21
 2168 006e 15       		.byte	21
 2169 006f 16       		.byte	22
 2170 0070 00       		.byte	0
 2171 0071 16       		.byte	22
 2172 0072 FF       		.byte	-1
 2173 0073 15       		.byte	21
 2174 0074 BC       		.byte	-68
 2175 0075 16       		.byte	22
 2176 0076 00       		.byte	0
 2177 0077 16       		.byte	22
 2178 0078 A6       		.byte	-90
 2179 0079 15       		.byte	21
 2180 007a 0C       		.byte	12
 2181 007b 15       		.byte	21
 2182 007c CA       		.byte	-54
 2183 007d 16       		.byte	22
 2184 007e 00       		.byte	0
 2185 007f 16       		.byte	22
 2186 0080 7F       		.byte	127
 2187 0081 16       		.byte	22
 2188 0082 20       		.byte	32
 2189 0083 15       		.byte	21
 2190 0084 F0       		.byte	-16
 2191 0085 16       		.byte	22
 2192 0086 10       		.byte	16
 2193 0087 15       		.byte	21
 2194 0088 81       		.byte	-127
 2195 0089 16       		.byte	22
 2196 008a 36       		.byte	54
 2197 008b 16       		.byte	22
 2198 008c 05       		.byte	5
 2199 008d 15       		.byte	21
 2200 008e 20       		.byte	32
 2201 008f 16       		.byte	22
 2202 0090 0B       		.byte	11
ARM GAS  C:\Users\jesse\AppData\Local\Temp\cc6zNusR.s 			page 72


 2203 0091 FE       		.byte	-2
 2204 0092 64       		.byte	100
 2205 0093 19       		.byte	25
 2206 0094 FF       		.byte	-1
 2207              		.type	u8x8_d_st75256_jlx256128_flip0_seq, %object
 2208              		.size	u8x8_d_st75256_jlx256128_flip0_seq, 13
 2209              	u8x8_d_st75256_jlx256128_flip0_seq:
 2210 0095 18       		.byte	24
 2211 0096 15       		.byte	21
 2212 0097 30       		.byte	48
 2213 0098 15       		.byte	21
 2214 0099 BC       		.byte	-68
 2215 009a 16       		.byte	22
 2216 009b 00       		.byte	0
 2217 009c 16       		.byte	22
 2218 009d A6       		.byte	-90
 2219 009e 15       		.byte	21
 2220 009f 0C       		.byte	12
 2221 00a0 19       		.byte	25
 2222 00a1 FF       		.byte	-1
 2223              		.type	u8x8_d_st75256_jlx256128_flip1_seq, %object
 2224              		.size	u8x8_d_st75256_jlx256128_flip1_seq, 13
 2225              	u8x8_d_st75256_jlx256128_flip1_seq:
 2226 00a2 18       		.byte	24
 2227 00a3 15       		.byte	21
 2228 00a4 30       		.byte	48
 2229 00a5 15       		.byte	21
 2230 00a6 BC       		.byte	-68
 2231 00a7 16       		.byte	22
 2232 00a8 03       		.byte	3
 2233 00a9 16       		.byte	22
 2234 00aa A6       		.byte	-90
 2235 00ab 15       		.byte	21
 2236 00ac 08       		.byte	8
 2237 00ad 19       		.byte	25
 2238 00ae FF       		.byte	-1
 2239 00af 00       		.space	1
 2240              		.type	u8x8_st75256_wo256x128_display_info, %object
 2241              		.size	u8x8_st75256_wo256x128_display_info, 24
 2242              	u8x8_st75256_wo256x128_display_info:
 2243 00b0 00       		.byte	0
 2244 00b1 01       		.byte	1
 2245 00b2 14       		.byte	20
 2246 00b3 14       		.byte	20
 2247 00b4 05       		.byte	5
 2248 00b5 05       		.byte	5
 2249 00b6 14       		.byte	20
 2250 00b7 28       		.byte	40
 2251 00b8 00093D00 		.word	4000000
 2252 00bc 00       		.byte	0
 2253 00bd 04       		.byte	4
 2254 00be 0F       		.byte	15
 2255 00bf 46       		.byte	70
 2256 00c0 20       		.byte	32
 2257 00c1 10       		.byte	16
 2258 00c2 05       		.byte	5
 2259 00c3 00       		.byte	0
ARM GAS  C:\Users\jesse\AppData\Local\Temp\cc6zNusR.s 			page 73


 2260 00c4 0001     		.short	256
 2261 00c6 8000     		.short	128
 2262              		.type	u8x8_d_st75256_wo256x128_init_seq, %object
 2263              		.size	u8x8_d_st75256_wo256x128_init_seq, 105
 2264              	u8x8_d_st75256_wo256x128_init_seq:
 2265 00c8 18       		.byte	24
 2266 00c9 FE       		.byte	-2
 2267 00ca 14       		.byte	20
 2268 00cb 15       		.byte	21
 2269 00cc 30       		.byte	48
 2270 00cd 15       		.byte	21
 2271 00ce 94       		.byte	-108
 2272 00cf 15       		.byte	21
 2273 00d0 AE       		.byte	-82
 2274 00d1 15       		.byte	21
 2275 00d2 31       		.byte	49
 2276 00d3 15       		.byte	21
 2277 00d4 D7       		.byte	-41
 2278 00d5 16       		.byte	22
 2279 00d6 9F       		.byte	-97
 2280 00d7 15       		.byte	21
 2281 00d8 32       		.byte	50
 2282 00d9 16       		.byte	22
 2283 00da 00       		.byte	0
 2284 00db 16       		.byte	22
 2285 00dc 01       		.byte	1
 2286 00dd 16       		.byte	22
 2287 00de 00       		.byte	0
 2288 00df 15       		.byte	21
 2289 00e0 20       		.byte	32
 2290 00e1 16       		.byte	22
 2291 00e2 01       		.byte	1
 2292 00e3 16       		.byte	22
 2293 00e4 03       		.byte	3
 2294 00e5 16       		.byte	22
 2295 00e6 05       		.byte	5
 2296 00e7 16       		.byte	22
 2297 00e8 07       		.byte	7
 2298 00e9 16       		.byte	22
 2299 00ea 09       		.byte	9
 2300 00eb 16       		.byte	22
 2301 00ec 0B       		.byte	11
 2302 00ed 16       		.byte	22
 2303 00ee 0D       		.byte	13
 2304 00ef 16       		.byte	22
 2305 00f0 10       		.byte	16
 2306 00f1 16       		.byte	22
 2307 00f2 11       		.byte	17
 2308 00f3 16       		.byte	22
 2309 00f4 13       		.byte	19
 2310 00f5 16       		.byte	22
 2311 00f6 15       		.byte	21
 2312 00f7 16       		.byte	22
 2313 00f8 17       		.byte	23
 2314 00f9 16       		.byte	22
 2315 00fa 19       		.byte	25
 2316 00fb 16       		.byte	22
ARM GAS  C:\Users\jesse\AppData\Local\Temp\cc6zNusR.s 			page 74


 2317 00fc 1B       		.byte	27
 2318 00fd 16       		.byte	22
 2319 00fe 1D       		.byte	29
 2320 00ff 16       		.byte	22
 2321 0100 1F       		.byte	31
 2322 0101 15       		.byte	21
 2323 0102 30       		.byte	48
 2324 0103 15       		.byte	21
 2325 0104 75       		.byte	117
 2326 0105 16       		.byte	22
 2327 0106 00       		.byte	0
 2328 0107 16       		.byte	22
 2329 0108 4F       		.byte	79
 2330 0109 15       		.byte	21
 2331 010a 15       		.byte	21
 2332 010b 16       		.byte	22
 2333 010c 00       		.byte	0
 2334 010d 16       		.byte	22
 2335 010e FF       		.byte	-1
 2336 010f 15       		.byte	21
 2337 0110 BC       		.byte	-68
 2338 0111 16       		.byte	22
 2339 0112 01       		.byte	1
 2340 0113 16       		.byte	22
 2341 0114 A6       		.byte	-90
 2342 0115 15       		.byte	21
 2343 0116 08       		.byte	8
 2344 0117 15       		.byte	21
 2345 0118 CA       		.byte	-54
 2346 0119 16       		.byte	22
 2347 011a 00       		.byte	0
 2348 011b 16       		.byte	22
 2349 011c 7F       		.byte	127
 2350 011d 16       		.byte	22
 2351 011e 20       		.byte	32
 2352 011f 15       		.byte	21
 2353 0120 F0       		.byte	-16
 2354 0121 16       		.byte	22
 2355 0122 10       		.byte	16
 2356 0123 15       		.byte	21
 2357 0124 81       		.byte	-127
 2358 0125 16       		.byte	22
 2359 0126 36       		.byte	54
 2360 0127 16       		.byte	22
 2361 0128 05       		.byte	5
 2362 0129 15       		.byte	21
 2363 012a 20       		.byte	32
 2364 012b 16       		.byte	22
 2365 012c 0B       		.byte	11
 2366 012d FE       		.byte	-2
 2367 012e 64       		.byte	100
 2368 012f 19       		.byte	25
 2369 0130 FF       		.byte	-1
 2370              		.type	u8x8_d_st75256_jlx172104_flip1_seq, %object
 2371              		.size	u8x8_d_st75256_jlx172104_flip1_seq, 13
 2372              	u8x8_d_st75256_jlx172104_flip1_seq:
 2373 0131 18       		.byte	24
ARM GAS  C:\Users\jesse\AppData\Local\Temp\cc6zNusR.s 			page 75


 2374 0132 15       		.byte	21
 2375 0133 30       		.byte	48
 2376 0134 15       		.byte	21
 2377 0135 BC       		.byte	-68
 2378 0136 16       		.byte	22
 2379 0137 01       		.byte	1
 2380 0138 16       		.byte	22
 2381 0139 A6       		.byte	-90
 2382 013a 15       		.byte	21
 2383 013b 08       		.byte	8
 2384 013c 19       		.byte	25
 2385 013d FF       		.byte	-1
 2386              		.type	u8x8_d_st75256_jlx172104_flip0_seq, %object
 2387              		.size	u8x8_d_st75256_jlx172104_flip0_seq, 13
 2388              	u8x8_d_st75256_jlx172104_flip0_seq:
 2389 013e 18       		.byte	24
 2390 013f 15       		.byte	21
 2391 0140 30       		.byte	48
 2392 0141 15       		.byte	21
 2393 0142 BC       		.byte	-68
 2394 0143 16       		.byte	22
 2395 0144 02       		.byte	2
 2396 0145 16       		.byte	22
 2397 0146 A6       		.byte	-90
 2398 0147 15       		.byte	21
 2399 0148 0C       		.byte	12
 2400 0149 19       		.byte	25
 2401 014a FF       		.byte	-1
 2402 014b 00       		.space	1
 2403              		.type	u8x8_st75256_256x64_display_info, %object
 2404              		.size	u8x8_st75256_256x64_display_info, 24
 2405              	u8x8_st75256_256x64_display_info:
 2406 014c 00       		.byte	0
 2407 014d 01       		.byte	1
 2408 014e 14       		.byte	20
 2409 014f 14       		.byte	20
 2410 0150 05       		.byte	5
 2411 0151 05       		.byte	5
 2412 0152 14       		.byte	20
 2413 0153 28       		.byte	40
 2414 0154 00093D00 		.word	4000000
 2415 0158 00       		.byte	0
 2416 0159 04       		.byte	4
 2417 015a 0F       		.byte	15
 2418 015b 46       		.byte	70
 2419 015c 20       		.byte	32
 2420 015d 08       		.byte	8
 2421 015e 00       		.byte	0
 2422 015f 0D       		.byte	13
 2423 0160 0001     		.short	256
 2424 0162 4000     		.short	64
 2425              		.type	u8x8_d_st75256_256x64_init_seq, %object
 2426              		.size	u8x8_d_st75256_256x64_init_seq, 105
 2427              	u8x8_d_st75256_256x64_init_seq:
 2428 0164 18       		.byte	24
 2429 0165 FE       		.byte	-2
 2430 0166 14       		.byte	20
ARM GAS  C:\Users\jesse\AppData\Local\Temp\cc6zNusR.s 			page 76


 2431 0167 15       		.byte	21
 2432 0168 30       		.byte	48
 2433 0169 15       		.byte	21
 2434 016a 94       		.byte	-108
 2435 016b 15       		.byte	21
 2436 016c AE       		.byte	-82
 2437 016d 15       		.byte	21
 2438 016e 31       		.byte	49
 2439 016f 15       		.byte	21
 2440 0170 D7       		.byte	-41
 2441 0171 16       		.byte	22
 2442 0172 9F       		.byte	-97
 2443 0173 15       		.byte	21
 2444 0174 32       		.byte	50
 2445 0175 16       		.byte	22
 2446 0176 00       		.byte	0
 2447 0177 16       		.byte	22
 2448 0178 01       		.byte	1
 2449 0179 16       		.byte	22
 2450 017a 05       		.byte	5
 2451 017b 15       		.byte	21
 2452 017c 20       		.byte	32
 2453 017d 16       		.byte	22
 2454 017e 01       		.byte	1
 2455 017f 16       		.byte	22
 2456 0180 03       		.byte	3
 2457 0181 16       		.byte	22
 2458 0182 05       		.byte	5
 2459 0183 16       		.byte	22
 2460 0184 07       		.byte	7
 2461 0185 16       		.byte	22
 2462 0186 09       		.byte	9
 2463 0187 16       		.byte	22
 2464 0188 0B       		.byte	11
 2465 0189 16       		.byte	22
 2466 018a 0D       		.byte	13
 2467 018b 16       		.byte	22
 2468 018c 10       		.byte	16
 2469 018d 16       		.byte	22
 2470 018e 11       		.byte	17
 2471 018f 16       		.byte	22
 2472 0190 13       		.byte	19
 2473 0191 16       		.byte	22
 2474 0192 15       		.byte	21
 2475 0193 16       		.byte	22
 2476 0194 17       		.byte	23
 2477 0195 16       		.byte	22
 2478 0196 19       		.byte	25
 2479 0197 16       		.byte	22
 2480 0198 1B       		.byte	27
 2481 0199 16       		.byte	22
 2482 019a 1D       		.byte	29
 2483 019b 16       		.byte	22
 2484 019c 1F       		.byte	31
 2485 019d 15       		.byte	21
 2486 019e 30       		.byte	48
 2487 019f 15       		.byte	21
ARM GAS  C:\Users\jesse\AppData\Local\Temp\cc6zNusR.s 			page 77


 2488 01a0 75       		.byte	117
 2489 01a1 16       		.byte	22
 2490 01a2 00       		.byte	0
 2491 01a3 16       		.byte	22
 2492 01a4 1F       		.byte	31
 2493 01a5 15       		.byte	21
 2494 01a6 15       		.byte	21
 2495 01a7 16       		.byte	22
 2496 01a8 00       		.byte	0
 2497 01a9 16       		.byte	22
 2498 01aa FF       		.byte	-1
 2499 01ab 15       		.byte	21
 2500 01ac BC       		.byte	-68
 2501 01ad 16       		.byte	22
 2502 01ae 00       		.byte	0
 2503 01af 16       		.byte	22
 2504 01b0 A6       		.byte	-90
 2505 01b1 15       		.byte	21
 2506 01b2 0C       		.byte	12
 2507 01b3 15       		.byte	21
 2508 01b4 CA       		.byte	-54
 2509 01b5 16       		.byte	22
 2510 01b6 00       		.byte	0
 2511 01b7 16       		.byte	22
 2512 01b8 3F       		.byte	63
 2513 01b9 16       		.byte	22
 2514 01ba 20       		.byte	32
 2515 01bb 15       		.byte	21
 2516 01bc F0       		.byte	-16
 2517 01bd 16       		.byte	22
 2518 01be 10       		.byte	16
 2519 01bf 15       		.byte	21
 2520 01c0 81       		.byte	-127
 2521 01c1 16       		.byte	22
 2522 01c2 0A       		.byte	10
 2523 01c3 16       		.byte	22
 2524 01c4 02       		.byte	2
 2525 01c5 15       		.byte	21
 2526 01c6 20       		.byte	32
 2527 01c7 16       		.byte	22
 2528 01c8 0B       		.byte	11
 2529 01c9 FE       		.byte	-2
 2530 01ca 64       		.byte	100
 2531 01cb 19       		.byte	25
 2532 01cc FF       		.byte	-1
 2533 01cd 000000   		.space	3
 2534              		.type	u8x8_st75256_172x104_display_info, %object
 2535              		.size	u8x8_st75256_172x104_display_info, 24
 2536              	u8x8_st75256_172x104_display_info:
 2537 01d0 00       		.byte	0
 2538 01d1 01       		.byte	1
 2539 01d2 14       		.byte	20
 2540 01d3 14       		.byte	20
 2541 01d4 05       		.byte	5
 2542 01d5 05       		.byte	5
 2543 01d6 14       		.byte	20
 2544 01d7 28       		.byte	40
ARM GAS  C:\Users\jesse\AppData\Local\Temp\cc6zNusR.s 			page 78


 2545 01d8 00093D00 		.word	4000000
 2546 01dc 00       		.byte	0
 2547 01dd 04       		.byte	4
 2548 01de 0F       		.byte	15
 2549 01df 46       		.byte	70
 2550 01e0 16       		.byte	22
 2551 01e1 0D       		.byte	13
 2552 01e2 54       		.byte	84
 2553 01e3 00       		.byte	0
 2554 01e4 AC00     		.short	172
 2555 01e6 6800     		.short	104
 2556              		.type	u8x8_d_st75256_jlx172104_init_seq, %object
