ARM GAS  C:\Users\jesse\AppData\Local\Temp\cci5cU36.s 			page 1


   1              		.syntax unified
   2              		.cpu cortex-m3
   3              		.fpu softvfp
   4              		.eabi_attribute 20, 1
   5              		.eabi_attribute 21, 1
   6              		.eabi_attribute 23, 3
   7              		.eabi_attribute 24, 1
   8              		.eabi_attribute 25, 1
   9              		.eabi_attribute 26, 1
  10              		.eabi_attribute 30, 4
  11              		.eabi_attribute 34, 1
  12              		.eabi_attribute 18, 4
  13              		.thumb
  14              		.syntax unified
  15              		.file	"u8x8_d_ssd1320.c"
  16              		.text
  17              	.Ltext0:
  18              		.cfi_sections	.debug_frame
  19              		.section	.text.u8x8_d_ssd1320_common,"ax",%progbits
  20              		.align	1
  21              		.global	u8x8_d_ssd1320_common
  22              		.thumb
  23              		.thumb_func
  24              		.type	u8x8_d_ssd1320_common, %function
  25              	u8x8_d_ssd1320_common:
  26              	.LFB1:
  27              		.file 1 "..\\..\\..\\u8g2\\u8g2\\csrc\\u8x8_d_ssd1320.c"
   1:..\..\..\u8g2\u8g2\csrc/u8x8_d_ssd1320.c **** /*
   2:..\..\..\u8g2\u8g2\csrc/u8x8_d_ssd1320.c **** 
   3:..\..\..\u8g2\u8g2\csrc/u8x8_d_ssd1320.c ****   u8x8_d_ssd1320.c
   4:..\..\..\u8g2\u8g2\csrc/u8x8_d_ssd1320.c ****   
   5:..\..\..\u8g2\u8g2\csrc/u8x8_d_ssd1320.c ****   Universal 8bit Graphics Library (https://github.com/olikraus/u8g2/)
   6:..\..\..\u8g2\u8g2\csrc/u8x8_d_ssd1320.c **** 
   7:..\..\..\u8g2\u8g2\csrc/u8x8_d_ssd1320.c ****   Copyright (c) 2020, olikraus@gmail.com
   8:..\..\..\u8g2\u8g2\csrc/u8x8_d_ssd1320.c ****   All rights reserved.
   9:..\..\..\u8g2\u8g2\csrc/u8x8_d_ssd1320.c **** 
  10:..\..\..\u8g2\u8g2\csrc/u8x8_d_ssd1320.c ****   Redistribution and use in source and binary forms, with or without modification, 
  11:..\..\..\u8g2\u8g2\csrc/u8x8_d_ssd1320.c ****   are permitted provided that the following conditions are met:
  12:..\..\..\u8g2\u8g2\csrc/u8x8_d_ssd1320.c **** 
  13:..\..\..\u8g2\u8g2\csrc/u8x8_d_ssd1320.c ****   * Redistributions of source code must retain the above copyright notice, this list 
  14:..\..\..\u8g2\u8g2\csrc/u8x8_d_ssd1320.c ****     of conditions and the following disclaimer.
  15:..\..\..\u8g2\u8g2\csrc/u8x8_d_ssd1320.c ****     
  16:..\..\..\u8g2\u8g2\csrc/u8x8_d_ssd1320.c ****   * Redistributions in binary form must reproduce the above copyright notice, this 
  17:..\..\..\u8g2\u8g2\csrc/u8x8_d_ssd1320.c ****     list of conditions and the following disclaimer in the documentation and/or other 
  18:..\..\..\u8g2\u8g2\csrc/u8x8_d_ssd1320.c ****     materials provided with the distribution.
  19:..\..\..\u8g2\u8g2\csrc/u8x8_d_ssd1320.c **** 
  20:..\..\..\u8g2\u8g2\csrc/u8x8_d_ssd1320.c ****   THIS SOFTWARE IS PROVIDED BY THE COPYRIGHT HOLDERS AND 
  21:..\..\..\u8g2\u8g2\csrc/u8x8_d_ssd1320.c ****   CONTRIBUTORS "AS IS" AND ANY EXPRESS OR IMPLIED WARRANTIES, 
  22:..\..\..\u8g2\u8g2\csrc/u8x8_d_ssd1320.c ****   INCLUDING, BUT NOT LIMITED TO, THE IMPLIED WARRANTIES OF 
  23:..\..\..\u8g2\u8g2\csrc/u8x8_d_ssd1320.c ****   MERCHANTABILITY AND FITNESS FOR A PARTICULAR PURPOSE ARE 
  24:..\..\..\u8g2\u8g2\csrc/u8x8_d_ssd1320.c ****   DISCLAIMED. IN NO EVENT SHALL THE COPYRIGHT HOLDER OR 
  25:..\..\..\u8g2\u8g2\csrc/u8x8_d_ssd1320.c ****   CONTRIBUTORS BE LIABLE FOR ANY DIRECT, INDIRECT, INCIDENTAL, 
  26:..\..\..\u8g2\u8g2\csrc/u8x8_d_ssd1320.c ****   SPECIAL, EXEMPLARY, OR CONSEQUENTIAL DAMAGES (INCLUDING, BUT 
  27:..\..\..\u8g2\u8g2\csrc/u8x8_d_ssd1320.c ****   NOT LIMITED TO, PROCUREMENT OF SUBSTITUTE GOODS OR SERVICES; 
  28:..\..\..\u8g2\u8g2\csrc/u8x8_d_ssd1320.c ****   LOSS OF USE, DATA, OR PROFITS; OR BUSINESS INTERRUPTION) HOWEVER 
  29:..\..\..\u8g2\u8g2\csrc/u8x8_d_ssd1320.c ****   CAUSED AND ON ANY THEORY OF LIABILITY, WHETHER IN CONTRACT, 
  30:..\..\..\u8g2\u8g2\csrc/u8x8_d_ssd1320.c ****   STRICT LIABILITY, OR TORT (INCLUDING NEGLIGENCE OR OTHERWISE) 
ARM GAS  C:\Users\jesse\AppData\Local\Temp\cci5cU36.s 			page 2


  31:..\..\..\u8g2\u8g2\csrc/u8x8_d_ssd1320.c ****   ARISING IN ANY WAY OUT OF THE USE OF THIS SOFTWARE, EVEN IF 
  32:..\..\..\u8g2\u8g2\csrc/u8x8_d_ssd1320.c ****   ADVISED OF THE POSSIBILITY OF SUCH DAMAGE.  
  33:..\..\..\u8g2\u8g2\csrc/u8x8_d_ssd1320.c **** 
  34:..\..\..\u8g2\u8g2\csrc/u8x8_d_ssd1320.c **** 
  35:..\..\..\u8g2\u8g2\csrc/u8x8_d_ssd1320.c ****   https://github.com/olikraus/u8g2/issues/1351
  36:..\..\..\u8g2\u8g2\csrc/u8x8_d_ssd1320.c ****   SSD1320: 
  37:..\..\..\u8g2\u8g2\csrc/u8x8_d_ssd1320.c ****     160 x 160 dot matrix
  38:..\..\..\u8g2\u8g2\csrc/u8x8_d_ssd1320.c ****     16 gray scale
  39:..\..\..\u8g2\u8g2\csrc/u8x8_d_ssd1320.c ****   
  40:..\..\..\u8g2\u8g2\csrc/u8x8_d_ssd1320.c ****   Adapted from u8x8_d_ssd1322.c with the command set of the SSD1320 controller
  41:..\..\..\u8g2\u8g2\csrc/u8x8_d_ssd1320.c ****   "official" procedure is described here: https://github.com/olikraus/u8g2/wiki/internal
  42:..\..\..\u8g2\u8g2\csrc/u8x8_d_ssd1320.c ****   
  43:..\..\..\u8g2\u8g2\csrc/u8x8_d_ssd1320.c ****   NOTE: U8x8 does NOT work! --> not clear, needs to be checked
  44:..\..\..\u8g2\u8g2\csrc/u8x8_d_ssd1320.c ****   
  45:..\..\..\u8g2\u8g2\csrc/u8x8_d_ssd1320.c ****   
  46:..\..\..\u8g2\u8g2\csrc/u8x8_d_ssd1320.c ****   https://github.com/olikraus/u8g2/issues/1816
  47:..\..\..\u8g2\u8g2\csrc/u8x8_d_ssd1320.c ****   
  48:..\..\..\u8g2\u8g2\csrc/u8x8_d_ssd1320.c **** */
  49:..\..\..\u8g2\u8g2\csrc/u8x8_d_ssd1320.c **** 
  50:..\..\..\u8g2\u8g2\csrc/u8x8_d_ssd1320.c **** #include "u8x8.h"
  51:..\..\..\u8g2\u8g2\csrc/u8x8_d_ssd1320.c **** 
  52:..\..\..\u8g2\u8g2\csrc/u8x8_d_ssd1320.c **** static const uint8_t u8x8_d_ssd1320_cs1_160x132_nhd_powersave0_seq[] = {
  53:..\..\..\u8g2\u8g2\csrc/u8x8_d_ssd1320.c ****   U8X8_START_TRANSFER(),             	/* enable chip, delay is part of the transfer start */
  54:..\..\..\u8g2\u8g2\csrc/u8x8_d_ssd1320.c ****   U8X8_C(0x0af),		                /* ssd1320: display on */
  55:..\..\..\u8g2\u8g2\csrc/u8x8_d_ssd1320.c ****   U8X8_END_TRANSFER(),             	/* disable chip */
  56:..\..\..\u8g2\u8g2\csrc/u8x8_d_ssd1320.c ****   U8X8_END()             			/* end of sequence */
  57:..\..\..\u8g2\u8g2\csrc/u8x8_d_ssd1320.c **** };
  58:..\..\..\u8g2\u8g2\csrc/u8x8_d_ssd1320.c **** 
  59:..\..\..\u8g2\u8g2\csrc/u8x8_d_ssd1320.c **** static const uint8_t u8x8_d_ssd1320_cs1_160x132_nhd_powersave1_seq[] = {
  60:..\..\..\u8g2\u8g2\csrc/u8x8_d_ssd1320.c ****   U8X8_START_TRANSFER(),             	/* enable chip, delay is part of the transfer start */
  61:..\..\..\u8g2\u8g2\csrc/u8x8_d_ssd1320.c ****   U8X8_C(0x0ae),		                /* ssd1320: display off */
  62:..\..\..\u8g2\u8g2\csrc/u8x8_d_ssd1320.c ****   U8X8_END_TRANSFER(),             	/* disable chip */
  63:..\..\..\u8g2\u8g2\csrc/u8x8_d_ssd1320.c ****   U8X8_END()             			/* end of sequence */
  64:..\..\..\u8g2\u8g2\csrc/u8x8_d_ssd1320.c **** };
  65:..\..\..\u8g2\u8g2\csrc/u8x8_d_ssd1320.c **** 
  66:..\..\..\u8g2\u8g2\csrc/u8x8_d_ssd1320.c **** 
  67:..\..\..\u8g2\u8g2\csrc/u8x8_d_ssd1320.c **** /*
  68:..\..\..\u8g2\u8g2\csrc/u8x8_d_ssd1320.c ****   input:32
  69:..\..\..\u8g2\u8g2\csrc/u8x8_d_ssd1320.c ****     one tile (8 Bytes; 1 byte per column)
  70:..\..\..\u8g2\u8g2\csrc/u8x8_d_ssd1320.c ****   output:
  71:..\..\..\u8g2\u8g2\csrc/u8x8_d_ssd1320.c ****     Tile for SSD1320 (32 Bytes)
  72:..\..\..\u8g2\u8g2\csrc/u8x8_d_ssd1320.c **** 
  73:..\..\..\u8g2\u8g2\csrc/u8x8_d_ssd1320.c **** */
  74:..\..\..\u8g2\u8g2\csrc/u8x8_d_ssd1320.c **** 
  75:..\..\..\u8g2\u8g2\csrc/u8x8_d_ssd1320.c **** static uint8_t u8x8_ssd1320_to32_dest_buf[32];
  76:..\..\..\u8g2\u8g2\csrc/u8x8_d_ssd1320.c **** 
  77:..\..\..\u8g2\u8g2\csrc/u8x8_d_ssd1320.c **** 
  78:..\..\..\u8g2\u8g2\csrc/u8x8_d_ssd1320.c **** 
  79:..\..\..\u8g2\u8g2\csrc/u8x8_d_ssd1320.c **** static uint8_t *u8x8_ssd1320_8to32(U8X8_UNUSED u8x8_t *u8x8, uint8_t *ptr)
  80:..\..\..\u8g2\u8g2\csrc/u8x8_d_ssd1320.c **** {
  81:..\..\..\u8g2\u8g2\csrc/u8x8_d_ssd1320.c ****   uint8_t v;
  82:..\..\..\u8g2\u8g2\csrc/u8x8_d_ssd1320.c ****   uint8_t a,b;
  83:..\..\..\u8g2\u8g2\csrc/u8x8_d_ssd1320.c ****   uint8_t i, j;
  84:..\..\..\u8g2\u8g2\csrc/u8x8_d_ssd1320.c ****   uint8_t *dest;
  85:..\..\..\u8g2\u8g2\csrc/u8x8_d_ssd1320.c ****   
  86:..\..\..\u8g2\u8g2\csrc/u8x8_d_ssd1320.c ****   for( j = 0; j < 4; j++ )
  87:..\..\..\u8g2\u8g2\csrc/u8x8_d_ssd1320.c ****   {
ARM GAS  C:\Users\jesse\AppData\Local\Temp\cci5cU36.s 			page 3


  88:..\..\..\u8g2\u8g2\csrc/u8x8_d_ssd1320.c ****     dest = u8x8_ssd1320_to32_dest_buf;
  89:..\..\..\u8g2\u8g2\csrc/u8x8_d_ssd1320.c ****     dest += j;
  90:..\..\..\u8g2\u8g2\csrc/u8x8_d_ssd1320.c ****     a =*ptr;
  91:..\..\..\u8g2\u8g2\csrc/u8x8_d_ssd1320.c ****     ptr++;
  92:..\..\..\u8g2\u8g2\csrc/u8x8_d_ssd1320.c ****     b = *ptr;
  93:..\..\..\u8g2\u8g2\csrc/u8x8_d_ssd1320.c ****     ptr++;
  94:..\..\..\u8g2\u8g2\csrc/u8x8_d_ssd1320.c ****     for( i = 0; i < 8; i++ )
  95:..\..\..\u8g2\u8g2\csrc/u8x8_d_ssd1320.c ****     {
  96:..\..\..\u8g2\u8g2\csrc/u8x8_d_ssd1320.c ****       v = 0;
  97:..\..\..\u8g2\u8g2\csrc/u8x8_d_ssd1320.c ****       if ( a&1 ) v |= 0x0f;
  98:..\..\..\u8g2\u8g2\csrc/u8x8_d_ssd1320.c ****       if ( b&1 ) v |= 0xf0;
  99:..\..\..\u8g2\u8g2\csrc/u8x8_d_ssd1320.c ****       *dest = v;
 100:..\..\..\u8g2\u8g2\csrc/u8x8_d_ssd1320.c ****       dest+=4;
 101:..\..\..\u8g2\u8g2\csrc/u8x8_d_ssd1320.c ****       a >>= 1;
 102:..\..\..\u8g2\u8g2\csrc/u8x8_d_ssd1320.c ****       b >>= 1;
 103:..\..\..\u8g2\u8g2\csrc/u8x8_d_ssd1320.c ****     }
 104:..\..\..\u8g2\u8g2\csrc/u8x8_d_ssd1320.c ****   }  
 105:..\..\..\u8g2\u8g2\csrc/u8x8_d_ssd1320.c ****   return u8x8_ssd1320_to32_dest_buf;
 106:..\..\..\u8g2\u8g2\csrc/u8x8_d_ssd1320.c **** }
 107:..\..\..\u8g2\u8g2\csrc/u8x8_d_ssd1320.c **** 
 108:..\..\..\u8g2\u8g2\csrc/u8x8_d_ssd1320.c **** uint8_t u8x8_d_ssd1320_common(u8x8_t *u8x8, uint8_t msg, uint8_t arg_int, void *arg_ptr)
 109:..\..\..\u8g2\u8g2\csrc/u8x8_d_ssd1320.c **** {
  28              		.loc 1 109 0
  29              		.cfi_startproc
  30              		@ args = 0, pretend = 0, frame = 8
  31              		@ frame_needed = 0, uses_anonymous_args = 0
  32              	.LVL0:
 110:..\..\..\u8g2\u8g2\csrc/u8x8_d_ssd1320.c ****   uint8_t x; 
 111:..\..\..\u8g2\u8g2\csrc/u8x8_d_ssd1320.c ****   uint8_t y, c;
 112:..\..\..\u8g2\u8g2\csrc/u8x8_d_ssd1320.c ****   uint8_t *ptr;
 113:..\..\..\u8g2\u8g2\csrc/u8x8_d_ssd1320.c ****   switch(msg)
  33              		.loc 1 113 0
  34 0000 0E29     		cmp	r1, #14
 109:..\..\..\u8g2\u8g2\csrc/u8x8_d_ssd1320.c ****   uint8_t x; 
  35              		.loc 1 109 0
  36 0002 2DE9F74F 		push	{r0, r1, r2, r4, r5, r6, r7, r8, r9, r10, fp, lr}
  37              		.cfi_def_cfa_offset 48
  38              		.cfi_offset 4, -36
  39              		.cfi_offset 5, -32
  40              		.cfi_offset 6, -28
  41              		.cfi_offset 7, -24
  42              		.cfi_offset 8, -20
  43              		.cfi_offset 9, -16
  44              		.cfi_offset 10, -12
  45              		.cfi_offset 11, -8
  46              		.cfi_offset 14, -4
 109:..\..\..\u8g2\u8g2\csrc/u8x8_d_ssd1320.c ****   uint8_t x; 
  47              		.loc 1 109 0
  48 0006 0446     		mov	r4, r0
  49 0008 1546     		mov	r5, r2
  50 000a 9946     		mov	r9, r3
  51              		.loc 1 113 0
  52 000c 0BD0     		beq	.L3
  53 000e 0F29     		cmp	r1, #15
  54 0010 18D0     		beq	.L4
  55 0012 0B29     		cmp	r1, #11
  56 0014 40F08280 		bne	.L22
ARM GAS  C:\Users\jesse\AppData\Local\Temp\cci5cU36.s 			page 4


 114:..\..\..\u8g2\u8g2\csrc/u8x8_d_ssd1320.c ****   {
 115:..\..\..\u8g2\u8g2\csrc/u8x8_d_ssd1320.c ****     /* U8X8_MSG_DISPLAY_SETUP_MEMORY is handled by the calling function */
 116:..\..\..\u8g2\u8g2\csrc/u8x8_d_ssd1320.c ****     /*
 117:..\..\..\u8g2\u8g2\csrc/u8x8_d_ssd1320.c ****     case U8X8_MSG_DISPLAY_SETUP_MEMORY:
 118:..\..\..\u8g2\u8g2\csrc/u8x8_d_ssd1320.c ****       break;
 119:..\..\..\u8g2\u8g2\csrc/u8x8_d_ssd1320.c ****     case U8X8_MSG_DISPLAY_INIT:
 120:..\..\..\u8g2\u8g2\csrc/u8x8_d_ssd1320.c ****       u8x8_d_helper_display_init(u8x8);
 121:..\..\..\u8g2\u8g2\csrc/u8x8_d_ssd1320.c ****       u8x8_cad_SendSequence(u8x8, u8x8_d_ssd1320_256x64_init_seq);
 122:..\..\..\u8g2\u8g2\csrc/u8x8_d_ssd1320.c ****       break;
 123:..\..\..\u8g2\u8g2\csrc/u8x8_d_ssd1320.c ****     */
 124:..\..\..\u8g2\u8g2\csrc/u8x8_d_ssd1320.c ****     case U8X8_MSG_DISPLAY_SET_POWER_SAVE:
 125:..\..\..\u8g2\u8g2\csrc/u8x8_d_ssd1320.c ****       if ( arg_int == 0 )
  57              		.loc 1 125 0
  58 0018 0AB9     		cbnz	r2, .L6
 126:..\..\..\u8g2\u8g2\csrc/u8x8_d_ssd1320.c **** 	      u8x8_cad_SendSequence(u8x8, u8x8_d_ssd1320_cs1_160x132_nhd_powersave0_seq);
  59              		.loc 1 126 0
  60 001a 4249     		ldr	r1, .L27
  61              	.LVL1:
  62 001c 00E0     		b	.L25
  63              	.LVL2:
  64              	.L6:
 127:..\..\..\u8g2\u8g2\csrc/u8x8_d_ssd1320.c ****       else
 128:..\..\..\u8g2\u8g2\csrc/u8x8_d_ssd1320.c **** 	      u8x8_cad_SendSequence(u8x8, u8x8_d_ssd1320_cs1_160x132_nhd_powersave1_seq);
  65              		.loc 1 128 0
  66 001e 4249     		ldr	r1, .L27+4
  67              	.LVL3:
  68              	.L25:
  69 0020 FFF7FEFF 		bl	u8x8_cad_SendSequence
  70              	.LVL4:
  71 0024 0CE0     		b	.L23
  72              	.LVL5:
  73              	.L3:
 129:..\..\..\u8g2\u8g2\csrc/u8x8_d_ssd1320.c ****       break;
 130:..\..\..\u8g2\u8g2\csrc/u8x8_d_ssd1320.c **** 
 131:..\..\..\u8g2\u8g2\csrc/u8x8_d_ssd1320.c **** #ifdef U8X8_WITH_SET_CONTRAST
 132:..\..\..\u8g2\u8g2\csrc/u8x8_d_ssd1320.c ****     case U8X8_MSG_DISPLAY_SET_CONTRAST:
 133:..\..\..\u8g2\u8g2\csrc/u8x8_d_ssd1320.c ****       u8x8_cad_StartTransfer(u8x8);
  74              		.loc 1 133 0
  75 0026 FFF7FEFF 		bl	u8x8_cad_StartTransfer
  76              	.LVL6:
 134:..\..\..\u8g2\u8g2\csrc/u8x8_d_ssd1320.c ****       u8x8_cad_SendCmd(u8x8, 0x081 );
  77              		.loc 1 134 0
  78 002a 8121     		movs	r1, #129
  79 002c 2046     		mov	r0, r4
  80 002e FFF7FEFF 		bl	u8x8_cad_SendCmd
  81              	.LVL7:
 135:..\..\..\u8g2\u8g2\csrc/u8x8_d_ssd1320.c ****       u8x8_cad_SendArg(u8x8, arg_int );	/* ssd1320 has range from 1 to 255 */
  82              		.loc 1 135 0
  83 0032 2946     		mov	r1, r5
  84 0034 2046     		mov	r0, r4
  85 0036 FFF7FEFF 		bl	u8x8_cad_SendArg
  86              	.LVL8:
  87              	.L24:
 136:..\..\..\u8g2\u8g2\csrc/u8x8_d_ssd1320.c ****       u8x8_cad_EndTransfer(u8x8);
  88              		.loc 1 136 0
  89 003a 2046     		mov	r0, r4
  90 003c FFF7FEFF 		bl	u8x8_cad_EndTransfer
ARM GAS  C:\Users\jesse\AppData\Local\Temp\cci5cU36.s 			page 5


  91              	.LVL9:
  92              	.L23:
 137:..\..\..\u8g2\u8g2\csrc/u8x8_d_ssd1320.c ****       break;
 138:..\..\..\u8g2\u8g2\csrc/u8x8_d_ssd1320.c **** #endif
 139:..\..\..\u8g2\u8g2\csrc/u8x8_d_ssd1320.c **** 
 140:..\..\..\u8g2\u8g2\csrc/u8x8_d_ssd1320.c ****     case U8X8_MSG_DISPLAY_DRAW_TILE:
 141:..\..\..\u8g2\u8g2\csrc/u8x8_d_ssd1320.c ****       u8x8_cad_StartTransfer(u8x8);
 142:..\..\..\u8g2\u8g2\csrc/u8x8_d_ssd1320.c ****       x = ((u8x8_tile_t *)arg_ptr)->x_pos;    
 143:..\..\..\u8g2\u8g2\csrc/u8x8_d_ssd1320.c ****       y = (((u8x8_tile_t *)arg_ptr)->y_pos);
 144:..\..\..\u8g2\u8g2\csrc/u8x8_d_ssd1320.c ****       x += u8x8->x_offset;		
 145:..\..\..\u8g2\u8g2\csrc/u8x8_d_ssd1320.c ****     
 146:..\..\..\u8g2\u8g2\csrc/u8x8_d_ssd1320.c ****       y *= 8;
 147:..\..\..\u8g2\u8g2\csrc/u8x8_d_ssd1320.c ****     
 148:..\..\..\u8g2\u8g2\csrc/u8x8_d_ssd1320.c ****       
 149:..\..\..\u8g2\u8g2\csrc/u8x8_d_ssd1320.c ****       u8x8_cad_SendCmd(u8x8, 0x022 );	/* set row address, moved out of the loop (issue 302) */
 150:..\..\..\u8g2\u8g2\csrc/u8x8_d_ssd1320.c ****       u8x8_cad_SendArg(u8x8, y);
 151:..\..\..\u8g2\u8g2\csrc/u8x8_d_ssd1320.c ****       u8x8_cad_SendArg(u8x8, y+7);
 152:..\..\..\u8g2\u8g2\csrc/u8x8_d_ssd1320.c ****       
 153:..\..\..\u8g2\u8g2\csrc/u8x8_d_ssd1320.c ****       do {
 154:..\..\..\u8g2\u8g2\csrc/u8x8_d_ssd1320.c **** 	      c = ((u8x8_tile_t *)arg_ptr)->cnt;
 155:..\..\..\u8g2\u8g2\csrc/u8x8_d_ssd1320.c **** 	      ptr = ((u8x8_tile_t *)arg_ptr)->tile_ptr;
 156:..\..\..\u8g2\u8g2\csrc/u8x8_d_ssd1320.c **** 
 157:..\..\..\u8g2\u8g2\csrc/u8x8_d_ssd1320.c ****         do {
 158:..\..\..\u8g2\u8g2\csrc/u8x8_d_ssd1320.c ****           u8x8_cad_SendCmd(u8x8, 0x021 );	/* set column address */
 159:..\..\..\u8g2\u8g2\csrc/u8x8_d_ssd1320.c ****           u8x8_cad_SendArg(u8x8, x );	/* start */
 160:..\..\..\u8g2\u8g2\csrc/u8x8_d_ssd1320.c ****           u8x8_cad_SendArg(u8x8, x+3 );	/* end */
 161:..\..\..\u8g2\u8g2\csrc/u8x8_d_ssd1320.c ****           
 162:..\..\..\u8g2\u8g2\csrc/u8x8_d_ssd1320.c ****           u8x8_cad_SendData(u8x8, 32, u8x8_ssd1320_8to32(u8x8, ptr));
 163:..\..\..\u8g2\u8g2\csrc/u8x8_d_ssd1320.c ****           
 164:..\..\..\u8g2\u8g2\csrc/u8x8_d_ssd1320.c ****           ptr += 8;
 165:..\..\..\u8g2\u8g2\csrc/u8x8_d_ssd1320.c ****           x += 4;
 166:..\..\..\u8g2\u8g2\csrc/u8x8_d_ssd1320.c ****           c--;
 167:..\..\..\u8g2\u8g2\csrc/u8x8_d_ssd1320.c ****         } while( c > 0 );
 168:..\..\..\u8g2\u8g2\csrc/u8x8_d_ssd1320.c ****       
 169:..\..\..\u8g2\u8g2\csrc/u8x8_d_ssd1320.c ****       //x += 2;
 170:..\..\..\u8g2\u8g2\csrc/u8x8_d_ssd1320.c ****       arg_int--;
 171:..\..\..\u8g2\u8g2\csrc/u8x8_d_ssd1320.c ****     } while( arg_int > 0 );
 172:..\..\..\u8g2\u8g2\csrc/u8x8_d_ssd1320.c ****     
 173:..\..\..\u8g2\u8g2\csrc/u8x8_d_ssd1320.c ****     u8x8_cad_EndTransfer(u8x8);
 174:..\..\..\u8g2\u8g2\csrc/u8x8_d_ssd1320.c ****     break;
 175:..\..\..\u8g2\u8g2\csrc/u8x8_d_ssd1320.c **** 
 176:..\..\..\u8g2\u8g2\csrc/u8x8_d_ssd1320.c ****     default:
 177:..\..\..\u8g2\u8g2\csrc/u8x8_d_ssd1320.c ****       return 0;
 178:..\..\..\u8g2\u8g2\csrc/u8x8_d_ssd1320.c ****   }
 179:..\..\..\u8g2\u8g2\csrc/u8x8_d_ssd1320.c ****   return 1;
  93              		.loc 1 179 0
  94 0040 0120     		movs	r0, #1
 137:..\..\..\u8g2\u8g2\csrc/u8x8_d_ssd1320.c ****       break;
  95              		.loc 1 137 0
  96 0042 6CE0     		b	.L2
  97              	.LVL10:
  98              	.L4:
  99              	.LBB6:
 100              	.LBB7:
 141:..\..\..\u8g2\u8g2\csrc/u8x8_d_ssd1320.c ****       x = ((u8x8_tile_t *)arg_ptr)->x_pos;    
 101              		.loc 1 141 0
 102 0044 FFF7FEFF 		bl	u8x8_cad_StartTransfer
ARM GAS  C:\Users\jesse\AppData\Local\Temp\cci5cU36.s 			page 6


 103              	.LVL11:
 143:..\..\..\u8g2\u8g2\csrc/u8x8_d_ssd1320.c ****       x += u8x8->x_offset;		
 104              		.loc 1 143 0
 105 0048 99F80670 		ldrb	r7, [r9, #6]	@ zero_extendqisi2
 144:..\..\..\u8g2\u8g2\csrc/u8x8_d_ssd1320.c ****     
 106              		.loc 1 144 0
 107 004c 94F82230 		ldrb	r3, [r4, #34]	@ zero_extendqisi2
 142:..\..\..\u8g2\u8g2\csrc/u8x8_d_ssd1320.c ****       y = (((u8x8_tile_t *)arg_ptr)->y_pos);
 108              		.loc 1 142 0
 109 0050 99F80560 		ldrb	r6, [r9, #5]	@ zero_extendqisi2
 110              	.LVL12:
 146:..\..\..\u8g2\u8g2\csrc/u8x8_d_ssd1320.c ****     
 111              		.loc 1 146 0
 112 0054 FF00     		lsls	r7, r7, #3
 113              	.LVL13:
 114 0056 FFB2     		uxtb	r7, r7
 149:..\..\..\u8g2\u8g2\csrc/u8x8_d_ssd1320.c ****       u8x8_cad_SendArg(u8x8, y);
 115              		.loc 1 149 0
 116 0058 2221     		movs	r1, #34
 117 005a 2046     		mov	r0, r4
 144:..\..\..\u8g2\u8g2\csrc/u8x8_d_ssd1320.c ****     
 118              		.loc 1 144 0
 119 005c 1E44     		add	r6, r6, r3
 120              	.LVL14:
 149:..\..\..\u8g2\u8g2\csrc/u8x8_d_ssd1320.c ****       u8x8_cad_SendArg(u8x8, y);
 121              		.loc 1 149 0
 122 005e FFF7FEFF 		bl	u8x8_cad_SendCmd
 123              	.LVL15:
 150:..\..\..\u8g2\u8g2\csrc/u8x8_d_ssd1320.c ****       u8x8_cad_SendArg(u8x8, y+7);
 124              		.loc 1 150 0
 125 0062 3946     		mov	r1, r7
 126 0064 2046     		mov	r0, r4
 127 0066 FFF7FEFF 		bl	u8x8_cad_SendArg
 128              	.LVL16:
 151:..\..\..\u8g2\u8g2\csrc/u8x8_d_ssd1320.c ****       
 129              		.loc 1 151 0
 130 006a F91D     		adds	r1, r7, #7
 131 006c C9B2     		uxtb	r1, r1
 132 006e 2046     		mov	r0, r4
 144:..\..\..\u8g2\u8g2\csrc/u8x8_d_ssd1320.c ****     
 133              		.loc 1 144 0
 134 0070 F6B2     		uxtb	r6, r6
 135              	.LVL17:
 151:..\..\..\u8g2\u8g2\csrc/u8x8_d_ssd1320.c ****       
 136              		.loc 1 151 0
 137 0072 FFF7FEFF 		bl	u8x8_cad_SendArg
 138              	.LVL18:
 139              	.L12:
 155:..\..\..\u8g2\u8g2\csrc/u8x8_d_ssd1320.c **** 
 140              		.loc 1 155 0
 141 0076 3746     		mov	r7, r6
 154:..\..\..\u8g2\u8g2\csrc/u8x8_d_ssd1320.c **** 	      ptr = ((u8x8_tile_t *)arg_ptr)->tile_ptr;
 142              		.loc 1 154 0
 143 0078 99F80480 		ldrb	r8, [r9, #4]	@ zero_extendqisi2
 144              	.LVL19:
 155:..\..\..\u8g2\u8g2\csrc/u8x8_d_ssd1320.c **** 
 145              		.loc 1 155 0
ARM GAS  C:\Users\jesse\AppData\Local\Temp\cci5cU36.s 			page 7


 146 007c D9F80030 		ldr	r3, [r9]
 147              	.LVL20:
 148 0080 08F1FF32 		add	r2, r8, #-1
 149 0084 D2B2     		uxtb	r2, r2
 150 0086 03F1020A 		add	r10, r3, #2
 151 008a 03EBC203 		add	r3, r3, r2, lsl #3
 152              	.LVL21:
 153 008e 0A33     		adds	r3, r3, #10
 154 0090 0193     		str	r3, [sp, #4]
 155              	.LVL22:
 156              	.L11:
 158:..\..\..\u8g2\u8g2\csrc/u8x8_d_ssd1320.c ****           u8x8_cad_SendArg(u8x8, x );	/* start */
 157              		.loc 1 158 0
 158 0092 2121     		movs	r1, #33
 159 0094 2046     		mov	r0, r4
 160 0096 FFF7FEFF 		bl	u8x8_cad_SendCmd
 161              	.LVL23:
 159:..\..\..\u8g2\u8g2\csrc/u8x8_d_ssd1320.c ****           u8x8_cad_SendArg(u8x8, x+3 );	/* end */
 162              		.loc 1 159 0
 163 009a 3946     		mov	r1, r7
 164 009c 2046     		mov	r0, r4
 165 009e FFF7FEFF 		bl	u8x8_cad_SendArg
 166              	.LVL24:
 160:..\..\..\u8g2\u8g2\csrc/u8x8_d_ssd1320.c ****           
 167              		.loc 1 160 0
 168 00a2 F91C     		adds	r1, r7, #3
 169 00a4 C9B2     		uxtb	r1, r1
 170 00a6 2046     		mov	r0, r4
 171 00a8 FFF7FEFF 		bl	u8x8_cad_SendArg
 172              	.LVL25:
 173 00ac 5246     		mov	r2, r10
 174 00ae 0023     		movs	r3, #0
 175              	.LVL26:
 176              	.L10:
 177 00b0 1E49     		ldr	r1, .L27+8
 178              	.LBB8:
 179              	.LBB9:
  90:..\..\..\u8g2\u8g2\csrc/u8x8_d_ssd1320.c ****     ptr++;
 180              		.loc 1 90 0
 181 00b2 12F802EC 		ldrb	lr, [r2, #-2]	@ zero_extendqisi2
  92:..\..\..\u8g2\u8g2\csrc/u8x8_d_ssd1320.c ****     ptr++;
 182              		.loc 1 92 0
 183 00b6 12F8010C 		ldrb	r0, [r2, #-1]	@ zero_extendqisi2
 184 00ba 01EB030B 		add	fp, r1, r3
 185              	.LVL27:
 186 00be 0021     		movs	r1, #0
 187              	.LVL28:
 188              	.L9:
  97:..\..\..\u8g2\u8g2\csrc/u8x8_d_ssd1320.c ****       if ( b&1 ) v |= 0xf0;
 189              		.loc 1 97 0
 190 00c0 1EF0010F 		tst	lr, #1
 191 00c4 14BF     		ite	ne
 192 00c6 4FF00F0C 		movne	ip, #15
 193 00ca 4FF0000C 		moveq	ip, #0
 194              	.LVL29:
  98:..\..\..\u8g2\u8g2\csrc/u8x8_d_ssd1320.c ****       *dest = v;
 195              		.loc 1 98 0
ARM GAS  C:\Users\jesse\AppData\Local\Temp\cci5cU36.s 			page 8


 196 00ce 10F0010F 		tst	r0, #1
 197 00d2 18BF     		it	ne
 198 00d4 4CF0F00C 		orrne	ip, ip, #240
 199              	.LVL30:
  99:..\..\..\u8g2\u8g2\csrc/u8x8_d_ssd1320.c ****       dest+=4;
 200              		.loc 1 99 0
 201 00d8 0BF821C0 		strb	ip, [fp, r1, lsl #2]
 202              	.LVL31:
 203 00dc 0131     		adds	r1, r1, #1
 204              	.LVL32:
  94:..\..\..\u8g2\u8g2\csrc/u8x8_d_ssd1320.c ****     {
 205              		.loc 1 94 0
 206 00de 0829     		cmp	r1, #8
 101:..\..\..\u8g2\u8g2\csrc/u8x8_d_ssd1320.c ****       b >>= 1;
 207              		.loc 1 101 0
 208 00e0 4FEA5E0E 		lsr	lr, lr, #1
 209              	.LVL33:
 102:..\..\..\u8g2\u8g2\csrc/u8x8_d_ssd1320.c ****     }
 210              		.loc 1 102 0
 211 00e4 4FEA5000 		lsr	r0, r0, #1
 212              	.LVL34:
  94:..\..\..\u8g2\u8g2\csrc/u8x8_d_ssd1320.c ****     {
 213              		.loc 1 94 0
 214 00e8 EAD1     		bne	.L9
 215              	.LVL35:
 216 00ea 0133     		adds	r3, r3, #1
 217              	.LVL36:
  86:..\..\..\u8g2\u8g2\csrc/u8x8_d_ssd1320.c ****   {
 218              		.loc 1 86 0
 219 00ec 042B     		cmp	r3, #4
 220 00ee 02F10202 		add	r2, r2, #2
 221              	.LVL37:
 222 00f2 DDD1     		bne	.L10
 223              	.LVL38:
 224              	.LBE9:
 225              	.LBE8:
 162:..\..\..\u8g2\u8g2\csrc/u8x8_d_ssd1320.c ****           
 226              		.loc 1 162 0
 227 00f4 0D4A     		ldr	r2, .L27+8
 228 00f6 2021     		movs	r1, #32
 229 00f8 2046     		mov	r0, r4
 230 00fa FFF7FEFF 		bl	u8x8_cad_SendData
 231              	.LVL39:
 167:..\..\..\u8g2\u8g2\csrc/u8x8_d_ssd1320.c ****       
 232              		.loc 1 167 0
 233 00fe 019B     		ldr	r3, [sp, #4]
 234 0100 0AF1080A 		add	r10, r10, #8
 235              	.LVL40:
 165:..\..\..\u8g2\u8g2\csrc/u8x8_d_ssd1320.c ****           c--;
 236              		.loc 1 165 0
 237 0104 0437     		adds	r7, r7, #4
 238              	.LVL41:
 167:..\..\..\u8g2\u8g2\csrc/u8x8_d_ssd1320.c ****       
 239              		.loc 1 167 0
 240 0106 5345     		cmp	r3, r10
 165:..\..\..\u8g2\u8g2\csrc/u8x8_d_ssd1320.c ****           c--;
 241              		.loc 1 165 0
ARM GAS  C:\Users\jesse\AppData\Local\Temp\cci5cU36.s 			page 9


 242 0108 FFB2     		uxtb	r7, r7
 243              	.LVL42:
 167:..\..\..\u8g2\u8g2\csrc/u8x8_d_ssd1320.c ****       
 244              		.loc 1 167 0
 245 010a C2D1     		bne	.L11
 170:..\..\..\u8g2\u8g2\csrc/u8x8_d_ssd1320.c ****     } while( arg_int > 0 );
 246              		.loc 1 170 0
 247 010c 013D     		subs	r5, r5, #1
 248              	.LVL43:
 249 010e 06EB8806 		add	r6, r6, r8, lsl #2
 171:..\..\..\u8g2\u8g2\csrc/u8x8_d_ssd1320.c ****     
 250              		.loc 1 171 0
 251 0112 15F0FF05 		ands	r5, r5, #255
 252              	.LVL44:
 253 0116 F6B2     		uxtb	r6, r6
 254 0118 ADD1     		bne	.L12
 255 011a 8EE7     		b	.L24
 256              	.LVL45:
 257              	.L22:
 258              	.LBE7:
 259              	.LBE6:
 177:..\..\..\u8g2\u8g2\csrc/u8x8_d_ssd1320.c ****   }
 260              		.loc 1 177 0
 261 011c 0020     		movs	r0, #0
 262              	.LVL46:
 263              	.L2:
 180:..\..\..\u8g2\u8g2\csrc/u8x8_d_ssd1320.c **** }
 264              		.loc 1 180 0
 265 011e 03B0     		add	sp, sp, #12
 266              		.cfi_def_cfa_offset 36
 267              		@ sp needed
 268 0120 BDE8F08F 		pop	{r4, r5, r6, r7, r8, r9, r10, fp, pc}
 269              	.LVL47:
 270              	.L28:
 271              		.align	2
 272              	.L27:
 273 0124 00000000 		.word	.LANCHOR0
 274 0128 05000000 		.word	.LANCHOR0+5
 275 012c 00000000 		.word	.LANCHOR1
 276              		.cfi_endproc
 277              	.LFE1:
 278              		.size	u8x8_d_ssd1320_common, .-u8x8_d_ssd1320_common
 279              		.section	.text.u8x8_d_ssd1320_common_2,"ax",%progbits
 280              		.align	1
 281              		.global	u8x8_d_ssd1320_common_2
 282              		.thumb
 283              		.thumb_func
 284              		.type	u8x8_d_ssd1320_common_2, %function
 285              	u8x8_d_ssd1320_common_2:
 286              	.LFB3:
 181:..\..\..\u8g2\u8g2\csrc/u8x8_d_ssd1320.c **** 
 182:..\..\..\u8g2\u8g2\csrc/u8x8_d_ssd1320.c **** 
 183:..\..\..\u8g2\u8g2\csrc/u8x8_d_ssd1320.c **** 
 184:..\..\..\u8g2\u8g2\csrc/u8x8_d_ssd1320.c **** 
 185:..\..\..\u8g2\u8g2\csrc/u8x8_d_ssd1320.c **** static uint8_t *u8x8_ssd1320_8to32_2(U8X8_UNUSED u8x8_t *u8x8, uint8_t *ptr)
 186:..\..\..\u8g2\u8g2\csrc/u8x8_d_ssd1320.c **** {
 187:..\..\..\u8g2\u8g2\csrc/u8x8_d_ssd1320.c ****   uint8_t v;
ARM GAS  C:\Users\jesse\AppData\Local\Temp\cci5cU36.s 			page 10


 188:..\..\..\u8g2\u8g2\csrc/u8x8_d_ssd1320.c ****   uint8_t a,b;
 189:..\..\..\u8g2\u8g2\csrc/u8x8_d_ssd1320.c ****   uint8_t i, j;
 190:..\..\..\u8g2\u8g2\csrc/u8x8_d_ssd1320.c ****   uint8_t *dest;
 191:..\..\..\u8g2\u8g2\csrc/u8x8_d_ssd1320.c ****   
 192:..\..\..\u8g2\u8g2\csrc/u8x8_d_ssd1320.c ****   for( j = 0; j < 4; j++ )
 193:..\..\..\u8g2\u8g2\csrc/u8x8_d_ssd1320.c ****   {
 194:..\..\..\u8g2\u8g2\csrc/u8x8_d_ssd1320.c ****     dest = u8x8_ssd1320_to32_dest_buf;
 195:..\..\..\u8g2\u8g2\csrc/u8x8_d_ssd1320.c ****     dest += j;
 196:..\..\..\u8g2\u8g2\csrc/u8x8_d_ssd1320.c ****     a =*ptr;
 197:..\..\..\u8g2\u8g2\csrc/u8x8_d_ssd1320.c ****     ptr++;
 198:..\..\..\u8g2\u8g2\csrc/u8x8_d_ssd1320.c ****     b = *ptr;
 199:..\..\..\u8g2\u8g2\csrc/u8x8_d_ssd1320.c ****     ptr++;
 200:..\..\..\u8g2\u8g2\csrc/u8x8_d_ssd1320.c ****     for( i = 0; i < 8; i++ )
 201:..\..\..\u8g2\u8g2\csrc/u8x8_d_ssd1320.c ****     {
 202:..\..\..\u8g2\u8g2\csrc/u8x8_d_ssd1320.c ****       v = 0;
 203:..\..\..\u8g2\u8g2\csrc/u8x8_d_ssd1320.c ****       if ( a&1 ) v |= 0xf0;     // changed from 0x0f to 0xf0, https://github.com/olikraus/u8g2/issu
 204:..\..\..\u8g2\u8g2\csrc/u8x8_d_ssd1320.c ****       if ( b&1 ) v |= 0x0f;     // changed from 0xf0 to 0x0f, https://github.com/olikraus/u8g2/issu
 205:..\..\..\u8g2\u8g2\csrc/u8x8_d_ssd1320.c ****       *dest = v;
 206:..\..\..\u8g2\u8g2\csrc/u8x8_d_ssd1320.c ****       dest+=4;
 207:..\..\..\u8g2\u8g2\csrc/u8x8_d_ssd1320.c ****       a >>= 1;
 208:..\..\..\u8g2\u8g2\csrc/u8x8_d_ssd1320.c ****       b >>= 1;
 209:..\..\..\u8g2\u8g2\csrc/u8x8_d_ssd1320.c ****     }
 210:..\..\..\u8g2\u8g2\csrc/u8x8_d_ssd1320.c ****   }
 211:..\..\..\u8g2\u8g2\csrc/u8x8_d_ssd1320.c ****   return u8x8_ssd1320_to32_dest_buf;
 212:..\..\..\u8g2\u8g2\csrc/u8x8_d_ssd1320.c **** }
 213:..\..\..\u8g2\u8g2\csrc/u8x8_d_ssd1320.c **** 
 214:..\..\..\u8g2\u8g2\csrc/u8x8_d_ssd1320.c **** uint8_t u8x8_d_ssd1320_common_2(u8x8_t *u8x8, uint8_t msg, uint8_t arg_int, void *arg_ptr)
 215:..\..\..\u8g2\u8g2\csrc/u8x8_d_ssd1320.c **** {
 287              		.loc 1 215 0
 288              		.cfi_startproc
 289              		@ args = 0, pretend = 0, frame = 8
 290              		@ frame_needed = 0, uses_anonymous_args = 0
 291              	.LVL48:
 216:..\..\..\u8g2\u8g2\csrc/u8x8_d_ssd1320.c ****   uint8_t x; 
 217:..\..\..\u8g2\u8g2\csrc/u8x8_d_ssd1320.c ****   uint8_t y, c;
 218:..\..\..\u8g2\u8g2\csrc/u8x8_d_ssd1320.c ****   uint8_t *ptr;
 219:..\..\..\u8g2\u8g2\csrc/u8x8_d_ssd1320.c ****   switch(msg)
 292              		.loc 1 219 0
 293 0000 0E29     		cmp	r1, #14
 215:..\..\..\u8g2\u8g2\csrc/u8x8_d_ssd1320.c ****   uint8_t x; 
 294              		.loc 1 215 0
 295 0002 2DE9F74F 		push	{r0, r1, r2, r4, r5, r6, r7, r8, r9, r10, fp, lr}
 296              		.cfi_def_cfa_offset 48
 297              		.cfi_offset 4, -36
 298              		.cfi_offset 5, -32
 299              		.cfi_offset 6, -28
 300              		.cfi_offset 7, -24
 301              		.cfi_offset 8, -20
 302              		.cfi_offset 9, -16
 303              		.cfi_offset 10, -12
 304              		.cfi_offset 11, -8
 305              		.cfi_offset 14, -4
 215:..\..\..\u8g2\u8g2\csrc/u8x8_d_ssd1320.c ****   uint8_t x; 
 306              		.loc 1 215 0
 307 0006 0446     		mov	r4, r0
 308 0008 1546     		mov	r5, r2
 309 000a 9946     		mov	r9, r3
ARM GAS  C:\Users\jesse\AppData\Local\Temp\cci5cU36.s 			page 11


 310              		.loc 1 219 0
 311 000c 0BD0     		beq	.L31
 312 000e 0F29     		cmp	r1, #15
 313 0010 18D0     		beq	.L32
 314 0012 0B29     		cmp	r1, #11
 315 0014 40F08280 		bne	.L50
 220:..\..\..\u8g2\u8g2\csrc/u8x8_d_ssd1320.c ****   {
 221:..\..\..\u8g2\u8g2\csrc/u8x8_d_ssd1320.c ****     /* U8X8_MSG_DISPLAY_SETUP_MEMORY is handled by the calling function */
 222:..\..\..\u8g2\u8g2\csrc/u8x8_d_ssd1320.c ****     /*
 223:..\..\..\u8g2\u8g2\csrc/u8x8_d_ssd1320.c ****     case U8X8_MSG_DISPLAY_SETUP_MEMORY:
 224:..\..\..\u8g2\u8g2\csrc/u8x8_d_ssd1320.c ****       break;
 225:..\..\..\u8g2\u8g2\csrc/u8x8_d_ssd1320.c ****     case U8X8_MSG_DISPLAY_INIT:
 226:..\..\..\u8g2\u8g2\csrc/u8x8_d_ssd1320.c ****       u8x8_d_helper_display_init(u8x8);
 227:..\..\..\u8g2\u8g2\csrc/u8x8_d_ssd1320.c ****       u8x8_cad_SendSequence(u8x8, u8x8_d_ssd1320_256x64_init_seq);
 228:..\..\..\u8g2\u8g2\csrc/u8x8_d_ssd1320.c ****       break;
 229:..\..\..\u8g2\u8g2\csrc/u8x8_d_ssd1320.c ****     */
 230:..\..\..\u8g2\u8g2\csrc/u8x8_d_ssd1320.c ****     case U8X8_MSG_DISPLAY_SET_POWER_SAVE:
 231:..\..\..\u8g2\u8g2\csrc/u8x8_d_ssd1320.c ****       if ( arg_int == 0 )
 316              		.loc 1 231 0
 317 0018 0AB9     		cbnz	r2, .L34
 232:..\..\..\u8g2\u8g2\csrc/u8x8_d_ssd1320.c **** 	      u8x8_cad_SendSequence(u8x8, u8x8_d_ssd1320_cs1_160x132_nhd_powersave0_seq);
 318              		.loc 1 232 0
 319 001a 4249     		ldr	r1, .L54
 320              	.LVL49:
 321 001c 00E0     		b	.L53
 322              	.LVL50:
 323              	.L34:
 233:..\..\..\u8g2\u8g2\csrc/u8x8_d_ssd1320.c ****       else
 234:..\..\..\u8g2\u8g2\csrc/u8x8_d_ssd1320.c **** 	      u8x8_cad_SendSequence(u8x8, u8x8_d_ssd1320_cs1_160x132_nhd_powersave1_seq);
 324              		.loc 1 234 0
 325 001e 4249     		ldr	r1, .L54+4
 326              	.LVL51:
 327              	.L53:
 328 0020 FFF7FEFF 		bl	u8x8_cad_SendSequence
 329              	.LVL52:
 330 0024 0CE0     		b	.L51
 331              	.LVL53:
 332              	.L31:
 235:..\..\..\u8g2\u8g2\csrc/u8x8_d_ssd1320.c ****       break;
 236:..\..\..\u8g2\u8g2\csrc/u8x8_d_ssd1320.c **** 
 237:..\..\..\u8g2\u8g2\csrc/u8x8_d_ssd1320.c **** #ifdef U8X8_WITH_SET_CONTRAST
 238:..\..\..\u8g2\u8g2\csrc/u8x8_d_ssd1320.c ****     case U8X8_MSG_DISPLAY_SET_CONTRAST:
 239:..\..\..\u8g2\u8g2\csrc/u8x8_d_ssd1320.c ****       u8x8_cad_StartTransfer(u8x8);
 333              		.loc 1 239 0
 334 0026 FFF7FEFF 		bl	u8x8_cad_StartTransfer
 335              	.LVL54:
 240:..\..\..\u8g2\u8g2\csrc/u8x8_d_ssd1320.c ****       u8x8_cad_SendCmd(u8x8, 0x081 );
 336              		.loc 1 240 0
 337 002a 8121     		movs	r1, #129
 338 002c 2046     		mov	r0, r4
 339 002e FFF7FEFF 		bl	u8x8_cad_SendCmd
 340              	.LVL55:
 241:..\..\..\u8g2\u8g2\csrc/u8x8_d_ssd1320.c ****       u8x8_cad_SendArg(u8x8, arg_int );	/* ssd1320 has range from 1 to 255 */
 341              		.loc 1 241 0
 342 0032 2946     		mov	r1, r5
 343 0034 2046     		mov	r0, r4
 344 0036 FFF7FEFF 		bl	u8x8_cad_SendArg
ARM GAS  C:\Users\jesse\AppData\Local\Temp\cci5cU36.s 			page 12


 345              	.LVL56:
 346              	.L52:
 242:..\..\..\u8g2\u8g2\csrc/u8x8_d_ssd1320.c ****       u8x8_cad_EndTransfer(u8x8);
 347              		.loc 1 242 0
 348 003a 2046     		mov	r0, r4
 349 003c FFF7FEFF 		bl	u8x8_cad_EndTransfer
 350              	.LVL57:
 351              	.L51:
 243:..\..\..\u8g2\u8g2\csrc/u8x8_d_ssd1320.c ****       break;
 244:..\..\..\u8g2\u8g2\csrc/u8x8_d_ssd1320.c **** #endif
 245:..\..\..\u8g2\u8g2\csrc/u8x8_d_ssd1320.c **** 
 246:..\..\..\u8g2\u8g2\csrc/u8x8_d_ssd1320.c ****     case U8X8_MSG_DISPLAY_DRAW_TILE:
 247:..\..\..\u8g2\u8g2\csrc/u8x8_d_ssd1320.c ****       u8x8_cad_StartTransfer(u8x8);
 248:..\..\..\u8g2\u8g2\csrc/u8x8_d_ssd1320.c ****       x = ((u8x8_tile_t *)arg_ptr)->x_pos;    
 249:..\..\..\u8g2\u8g2\csrc/u8x8_d_ssd1320.c ****       y = (((u8x8_tile_t *)arg_ptr)->y_pos);
 250:..\..\..\u8g2\u8g2\csrc/u8x8_d_ssd1320.c ****       x += u8x8->x_offset;		
 251:..\..\..\u8g2\u8g2\csrc/u8x8_d_ssd1320.c ****     
 252:..\..\..\u8g2\u8g2\csrc/u8x8_d_ssd1320.c ****       y *= 8;
 253:..\..\..\u8g2\u8g2\csrc/u8x8_d_ssd1320.c ****     
 254:..\..\..\u8g2\u8g2\csrc/u8x8_d_ssd1320.c ****       
 255:..\..\..\u8g2\u8g2\csrc/u8x8_d_ssd1320.c ****       u8x8_cad_SendCmd(u8x8, 0x022 );	/* set row address, moved out of the loop (issue 302) */
 256:..\..\..\u8g2\u8g2\csrc/u8x8_d_ssd1320.c ****       u8x8_cad_SendArg(u8x8, y);
 257:..\..\..\u8g2\u8g2\csrc/u8x8_d_ssd1320.c ****       u8x8_cad_SendArg(u8x8, y+7);
 258:..\..\..\u8g2\u8g2\csrc/u8x8_d_ssd1320.c ****       
 259:..\..\..\u8g2\u8g2\csrc/u8x8_d_ssd1320.c ****       do {
 260:..\..\..\u8g2\u8g2\csrc/u8x8_d_ssd1320.c **** 	      c = ((u8x8_tile_t *)arg_ptr)->cnt;
 261:..\..\..\u8g2\u8g2\csrc/u8x8_d_ssd1320.c **** 	      ptr = ((u8x8_tile_t *)arg_ptr)->tile_ptr;
 262:..\..\..\u8g2\u8g2\csrc/u8x8_d_ssd1320.c **** 
 263:..\..\..\u8g2\u8g2\csrc/u8x8_d_ssd1320.c ****         do {
 264:..\..\..\u8g2\u8g2\csrc/u8x8_d_ssd1320.c ****           u8x8_cad_SendCmd(u8x8, 0x021 );	/* set column address */
 265:..\..\..\u8g2\u8g2\csrc/u8x8_d_ssd1320.c ****           u8x8_cad_SendArg(u8x8, x );	/* start */
 266:..\..\..\u8g2\u8g2\csrc/u8x8_d_ssd1320.c ****           u8x8_cad_SendArg(u8x8, x+3 );	/* end */
 267:..\..\..\u8g2\u8g2\csrc/u8x8_d_ssd1320.c ****           
 268:..\..\..\u8g2\u8g2\csrc/u8x8_d_ssd1320.c ****           u8x8_cad_SendData(u8x8, 32, u8x8_ssd1320_8to32_2(u8x8, ptr));
 269:..\..\..\u8g2\u8g2\csrc/u8x8_d_ssd1320.c ****           
 270:..\..\..\u8g2\u8g2\csrc/u8x8_d_ssd1320.c ****           ptr += 8;
 271:..\..\..\u8g2\u8g2\csrc/u8x8_d_ssd1320.c ****           x += 4;
 272:..\..\..\u8g2\u8g2\csrc/u8x8_d_ssd1320.c ****           c--;
 273:..\..\..\u8g2\u8g2\csrc/u8x8_d_ssd1320.c ****         } while( c > 0 );
 274:..\..\..\u8g2\u8g2\csrc/u8x8_d_ssd1320.c ****       
 275:..\..\..\u8g2\u8g2\csrc/u8x8_d_ssd1320.c ****       //x += 2;
 276:..\..\..\u8g2\u8g2\csrc/u8x8_d_ssd1320.c ****       arg_int--;
 277:..\..\..\u8g2\u8g2\csrc/u8x8_d_ssd1320.c ****     } while( arg_int > 0 );
 278:..\..\..\u8g2\u8g2\csrc/u8x8_d_ssd1320.c ****     
 279:..\..\..\u8g2\u8g2\csrc/u8x8_d_ssd1320.c ****     u8x8_cad_EndTransfer(u8x8);
 280:..\..\..\u8g2\u8g2\csrc/u8x8_d_ssd1320.c ****     break;
 281:..\..\..\u8g2\u8g2\csrc/u8x8_d_ssd1320.c **** 
 282:..\..\..\u8g2\u8g2\csrc/u8x8_d_ssd1320.c ****     default:
 283:..\..\..\u8g2\u8g2\csrc/u8x8_d_ssd1320.c ****       return 0;
 284:..\..\..\u8g2\u8g2\csrc/u8x8_d_ssd1320.c ****   }
 285:..\..\..\u8g2\u8g2\csrc/u8x8_d_ssd1320.c ****   return 1;
 352              		.loc 1 285 0
 353 0040 0120     		movs	r0, #1
 243:..\..\..\u8g2\u8g2\csrc/u8x8_d_ssd1320.c ****       break;
 354              		.loc 1 243 0
 355 0042 6CE0     		b	.L30
 356              	.LVL58:
ARM GAS  C:\Users\jesse\AppData\Local\Temp\cci5cU36.s 			page 13


 357              	.L32:
 358              	.LBB14:
 359              	.LBB15:
 247:..\..\..\u8g2\u8g2\csrc/u8x8_d_ssd1320.c ****       x = ((u8x8_tile_t *)arg_ptr)->x_pos;    
 360              		.loc 1 247 0
 361 0044 FFF7FEFF 		bl	u8x8_cad_StartTransfer
 362              	.LVL59:
 249:..\..\..\u8g2\u8g2\csrc/u8x8_d_ssd1320.c ****       x += u8x8->x_offset;		
 363              		.loc 1 249 0
 364 0048 99F80670 		ldrb	r7, [r9, #6]	@ zero_extendqisi2
 250:..\..\..\u8g2\u8g2\csrc/u8x8_d_ssd1320.c ****     
 365              		.loc 1 250 0
 366 004c 94F82230 		ldrb	r3, [r4, #34]	@ zero_extendqisi2
 248:..\..\..\u8g2\u8g2\csrc/u8x8_d_ssd1320.c ****       y = (((u8x8_tile_t *)arg_ptr)->y_pos);
 367              		.loc 1 248 0
 368 0050 99F80560 		ldrb	r6, [r9, #5]	@ zero_extendqisi2
 369              	.LVL60:
 252:..\..\..\u8g2\u8g2\csrc/u8x8_d_ssd1320.c ****     
 370              		.loc 1 252 0
 371 0054 FF00     		lsls	r7, r7, #3
 372              	.LVL61:
 373 0056 FFB2     		uxtb	r7, r7
 255:..\..\..\u8g2\u8g2\csrc/u8x8_d_ssd1320.c ****       u8x8_cad_SendArg(u8x8, y);
 374              		.loc 1 255 0
 375 0058 2221     		movs	r1, #34
 376 005a 2046     		mov	r0, r4
 250:..\..\..\u8g2\u8g2\csrc/u8x8_d_ssd1320.c ****     
 377              		.loc 1 250 0
 378 005c 1E44     		add	r6, r6, r3
 379              	.LVL62:
 255:..\..\..\u8g2\u8g2\csrc/u8x8_d_ssd1320.c ****       u8x8_cad_SendArg(u8x8, y);
 380              		.loc 1 255 0
 381 005e FFF7FEFF 		bl	u8x8_cad_SendCmd
 382              	.LVL63:
 256:..\..\..\u8g2\u8g2\csrc/u8x8_d_ssd1320.c ****       u8x8_cad_SendArg(u8x8, y+7);
 383              		.loc 1 256 0
 384 0062 3946     		mov	r1, r7
 385 0064 2046     		mov	r0, r4
 386 0066 FFF7FEFF 		bl	u8x8_cad_SendArg
 387              	.LVL64:
 257:..\..\..\u8g2\u8g2\csrc/u8x8_d_ssd1320.c ****       
 388              		.loc 1 257 0
 389 006a F91D     		adds	r1, r7, #7
 390 006c C9B2     		uxtb	r1, r1
 391 006e 2046     		mov	r0, r4
 250:..\..\..\u8g2\u8g2\csrc/u8x8_d_ssd1320.c ****     
 392              		.loc 1 250 0
 393 0070 F6B2     		uxtb	r6, r6
 394              	.LVL65:
 257:..\..\..\u8g2\u8g2\csrc/u8x8_d_ssd1320.c ****       
 395              		.loc 1 257 0
 396 0072 FFF7FEFF 		bl	u8x8_cad_SendArg
 397              	.LVL66:
 398              	.L40:
 261:..\..\..\u8g2\u8g2\csrc/u8x8_d_ssd1320.c **** 
 399              		.loc 1 261 0
 400 0076 3746     		mov	r7, r6
ARM GAS  C:\Users\jesse\AppData\Local\Temp\cci5cU36.s 			page 14


 260:..\..\..\u8g2\u8g2\csrc/u8x8_d_ssd1320.c **** 	      ptr = ((u8x8_tile_t *)arg_ptr)->tile_ptr;
 401              		.loc 1 260 0
 402 0078 99F80480 		ldrb	r8, [r9, #4]	@ zero_extendqisi2
 403              	.LVL67:
 261:..\..\..\u8g2\u8g2\csrc/u8x8_d_ssd1320.c **** 
 404              		.loc 1 261 0
 405 007c D9F80030 		ldr	r3, [r9]
 406              	.LVL68:
 407 0080 08F1FF32 		add	r2, r8, #-1
 408 0084 D2B2     		uxtb	r2, r2
 409 0086 03F1020A 		add	r10, r3, #2
 410 008a 03EBC203 		add	r3, r3, r2, lsl #3
 411              	.LVL69:
 412 008e 0A33     		adds	r3, r3, #10
 413 0090 0193     		str	r3, [sp, #4]
 414              	.LVL70:
 415              	.L39:
 264:..\..\..\u8g2\u8g2\csrc/u8x8_d_ssd1320.c ****           u8x8_cad_SendArg(u8x8, x );	/* start */
 416              		.loc 1 264 0
 417 0092 2121     		movs	r1, #33
 418 0094 2046     		mov	r0, r4
 419 0096 FFF7FEFF 		bl	u8x8_cad_SendCmd
 420              	.LVL71:
 265:..\..\..\u8g2\u8g2\csrc/u8x8_d_ssd1320.c ****           u8x8_cad_SendArg(u8x8, x+3 );	/* end */
 421              		.loc 1 265 0
 422 009a 3946     		mov	r1, r7
 423 009c 2046     		mov	r0, r4
 424 009e FFF7FEFF 		bl	u8x8_cad_SendArg
 425              	.LVL72:
 266:..\..\..\u8g2\u8g2\csrc/u8x8_d_ssd1320.c ****           
 426              		.loc 1 266 0
 427 00a2 F91C     		adds	r1, r7, #3
 428 00a4 C9B2     		uxtb	r1, r1
 429 00a6 2046     		mov	r0, r4
 430 00a8 FFF7FEFF 		bl	u8x8_cad_SendArg
 431              	.LVL73:
 432 00ac 5246     		mov	r2, r10
 433 00ae 0023     		movs	r3, #0
 434              	.LVL74:
 435              	.L38:
 436 00b0 1E49     		ldr	r1, .L54+8
 437              	.LBB16:
 438              	.LBB17:
 196:..\..\..\u8g2\u8g2\csrc/u8x8_d_ssd1320.c ****     ptr++;
 439              		.loc 1 196 0
 440 00b2 12F802EC 		ldrb	lr, [r2, #-2]	@ zero_extendqisi2
 198:..\..\..\u8g2\u8g2\csrc/u8x8_d_ssd1320.c ****     ptr++;
 441              		.loc 1 198 0
 442 00b6 12F8010C 		ldrb	r0, [r2, #-1]	@ zero_extendqisi2
 443 00ba 01EB030B 		add	fp, r1, r3
 444              	.LVL75:
 445 00be 0021     		movs	r1, #0
 446              	.LVL76:
 447              	.L37:
 203:..\..\..\u8g2\u8g2\csrc/u8x8_d_ssd1320.c ****       if ( b&1 ) v |= 0x0f;     // changed from 0xf0 to 0x0f, https://github.com/olikraus/u8g2/issu
 448              		.loc 1 203 0
 449 00c0 1EF0010F 		tst	lr, #1
ARM GAS  C:\Users\jesse\AppData\Local\Temp\cci5cU36.s 			page 15


 450 00c4 14BF     		ite	ne
 451 00c6 4FF0F00C 		movne	ip, #240
 452 00ca 4FF0000C 		moveq	ip, #0
 453              	.LVL77:
 204:..\..\..\u8g2\u8g2\csrc/u8x8_d_ssd1320.c ****       *dest = v;
 454              		.loc 1 204 0
 455 00ce 10F0010F 		tst	r0, #1
 456 00d2 18BF     		it	ne
 457 00d4 4CF00F0C 		orrne	ip, ip, #15
 458              	.LVL78:
 205:..\..\..\u8g2\u8g2\csrc/u8x8_d_ssd1320.c ****       dest+=4;
 459              		.loc 1 205 0
 460 00d8 0BF821C0 		strb	ip, [fp, r1, lsl #2]
 461              	.LVL79:
 462 00dc 0131     		adds	r1, r1, #1
 463              	.LVL80:
 200:..\..\..\u8g2\u8g2\csrc/u8x8_d_ssd1320.c ****     {
 464              		.loc 1 200 0
 465 00de 0829     		cmp	r1, #8
 207:..\..\..\u8g2\u8g2\csrc/u8x8_d_ssd1320.c ****       b >>= 1;
 466              		.loc 1 207 0
 467 00e0 4FEA5E0E 		lsr	lr, lr, #1
 468              	.LVL81:
 208:..\..\..\u8g2\u8g2\csrc/u8x8_d_ssd1320.c ****     }
 469              		.loc 1 208 0
 470 00e4 4FEA5000 		lsr	r0, r0, #1
 471              	.LVL82:
 200:..\..\..\u8g2\u8g2\csrc/u8x8_d_ssd1320.c ****     {
 472              		.loc 1 200 0
 473 00e8 EAD1     		bne	.L37
 474              	.LVL83:
 475 00ea 0133     		adds	r3, r3, #1
 476              	.LVL84:
 192:..\..\..\u8g2\u8g2\csrc/u8x8_d_ssd1320.c ****   {
 477              		.loc 1 192 0
 478 00ec 042B     		cmp	r3, #4
 479 00ee 02F10202 		add	r2, r2, #2
 480              	.LVL85:
 481 00f2 DDD1     		bne	.L38
 482              	.LVL86:
 483              	.LBE17:
 484              	.LBE16:
 268:..\..\..\u8g2\u8g2\csrc/u8x8_d_ssd1320.c ****           
 485              		.loc 1 268 0
 486 00f4 0D4A     		ldr	r2, .L54+8
 487 00f6 2021     		movs	r1, #32
 488 00f8 2046     		mov	r0, r4
 489 00fa FFF7FEFF 		bl	u8x8_cad_SendData
 490              	.LVL87:
 273:..\..\..\u8g2\u8g2\csrc/u8x8_d_ssd1320.c ****       
 491              		.loc 1 273 0
 492 00fe 019B     		ldr	r3, [sp, #4]
 493 0100 0AF1080A 		add	r10, r10, #8
 494              	.LVL88:
 271:..\..\..\u8g2\u8g2\csrc/u8x8_d_ssd1320.c ****           c--;
 495              		.loc 1 271 0
 496 0104 0437     		adds	r7, r7, #4
ARM GAS  C:\Users\jesse\AppData\Local\Temp\cci5cU36.s 			page 16


 497              	.LVL89:
 273:..\..\..\u8g2\u8g2\csrc/u8x8_d_ssd1320.c ****       
 498              		.loc 1 273 0
 499 0106 5345     		cmp	r3, r10
 271:..\..\..\u8g2\u8g2\csrc/u8x8_d_ssd1320.c ****           c--;
 500              		.loc 1 271 0
 501 0108 FFB2     		uxtb	r7, r7
 502              	.LVL90:
 273:..\..\..\u8g2\u8g2\csrc/u8x8_d_ssd1320.c ****       
 503              		.loc 1 273 0
 504 010a C2D1     		bne	.L39
 276:..\..\..\u8g2\u8g2\csrc/u8x8_d_ssd1320.c ****     } while( arg_int > 0 );
 505              		.loc 1 276 0
 506 010c 013D     		subs	r5, r5, #1
 507              	.LVL91:
 508 010e 06EB8806 		add	r6, r6, r8, lsl #2
 277:..\..\..\u8g2\u8g2\csrc/u8x8_d_ssd1320.c ****     
 509              		.loc 1 277 0
 510 0112 15F0FF05 		ands	r5, r5, #255
 511              	.LVL92:
 512 0116 F6B2     		uxtb	r6, r6
 513 0118 ADD1     		bne	.L40
 514 011a 8EE7     		b	.L52
 515              	.LVL93:
 516              	.L50:
 517              	.LBE15:
 518              	.LBE14:
 283:..\..\..\u8g2\u8g2\csrc/u8x8_d_ssd1320.c ****   }
 519              		.loc 1 283 0
 520 011c 0020     		movs	r0, #0
 521              	.LVL94:
 522              	.L30:
 286:..\..\..\u8g2\u8g2\csrc/u8x8_d_ssd1320.c **** }
 523              		.loc 1 286 0
 524 011e 03B0     		add	sp, sp, #12
 525              		.cfi_def_cfa_offset 36
 526              		@ sp needed
 527 0120 BDE8F08F 		pop	{r4, r5, r6, r7, r8, r9, r10, fp, pc}
 528              	.LVL95:
 529              	.L55:
 530              		.align	2
 531              	.L54:
 532 0124 00000000 		.word	.LANCHOR0
 533 0128 05000000 		.word	.LANCHOR0+5
 534 012c 00000000 		.word	.LANCHOR1
 535              		.cfi_endproc
 536              	.LFE3:
 537              		.size	u8x8_d_ssd1320_common_2, .-u8x8_d_ssd1320_common_2
 538              		.section	.text.u8x8_d_ssd1320_160x32,"ax",%progbits
 539              		.align	1
 540              		.global	u8x8_d_ssd1320_160x32
 541              		.thumb
 542              		.thumb_func
 543              		.type	u8x8_d_ssd1320_160x32, %function
 544              	u8x8_d_ssd1320_160x32:
 545              	.LFB4:
 287:..\..\..\u8g2\u8g2\csrc/u8x8_d_ssd1320.c **** 
ARM GAS  C:\Users\jesse\AppData\Local\Temp\cci5cU36.s 			page 17


 288:..\..\..\u8g2\u8g2\csrc/u8x8_d_ssd1320.c **** 
 289:..\..\..\u8g2\u8g2\csrc/u8x8_d_ssd1320.c **** /*=========================================================*/
 290:..\..\..\u8g2\u8g2\csrc/u8x8_d_ssd1320.c **** /* 160x32 */
 291:..\..\..\u8g2\u8g2\csrc/u8x8_d_ssd1320.c **** 
 292:..\..\..\u8g2\u8g2\csrc/u8x8_d_ssd1320.c **** static const uint8_t u8x8_d_ssd1320_cs1_160x32_nhd_flip0_seq[] = {
 293:..\..\..\u8g2\u8g2\csrc/u8x8_d_ssd1320.c ****   U8X8_START_TRANSFER(),             	/* enable chip, delay is part of the transfer start */
 294:..\..\..\u8g2\u8g2\csrc/u8x8_d_ssd1320.c ****   U8X8_C(0x0a0),		/* remap */
 295:..\..\..\u8g2\u8g2\csrc/u8x8_d_ssd1320.c ****   U8X8_END_TRANSFER(),             	/* disable chip */
 296:..\..\..\u8g2\u8g2\csrc/u8x8_d_ssd1320.c ****   U8X8_END()             			/* end of sequence */
 297:..\..\..\u8g2\u8g2\csrc/u8x8_d_ssd1320.c **** };
 298:..\..\..\u8g2\u8g2\csrc/u8x8_d_ssd1320.c **** 
 299:..\..\..\u8g2\u8g2\csrc/u8x8_d_ssd1320.c **** static const uint8_t u8x8_d_ssd1320_cs1_160x32_nhd_flip1_seq[] = {
 300:..\..\..\u8g2\u8g2\csrc/u8x8_d_ssd1320.c ****   U8X8_START_TRANSFER(),             	/* enable chip, delay is part of the transfer start */
 301:..\..\..\u8g2\u8g2\csrc/u8x8_d_ssd1320.c ****   U8X8_C(0x0a1),		/* remap */
 302:..\..\..\u8g2\u8g2\csrc/u8x8_d_ssd1320.c ****   U8X8_END_TRANSFER(),             	/* disable chip */
 303:..\..\..\u8g2\u8g2\csrc/u8x8_d_ssd1320.c ****   U8X8_END()             			/* end of sequence */
 304:..\..\..\u8g2\u8g2\csrc/u8x8_d_ssd1320.c **** };
 305:..\..\..\u8g2\u8g2\csrc/u8x8_d_ssd1320.c **** 
 306:..\..\..\u8g2\u8g2\csrc/u8x8_d_ssd1320.c **** static const u8x8_display_info_t u8x8_d_ssd1320_cs1_160x32_display_info =
 307:..\..\..\u8g2\u8g2\csrc/u8x8_d_ssd1320.c **** {
 308:..\..\..\u8g2\u8g2\csrc/u8x8_d_ssd1320.c ****   /* chip_enable_level = */ 0,
 309:..\..\..\u8g2\u8g2\csrc/u8x8_d_ssd1320.c ****   /* chip_disable_level = */ 1,
 310:..\..\..\u8g2\u8g2\csrc/u8x8_d_ssd1320.c ****   
 311:..\..\..\u8g2\u8g2\csrc/u8x8_d_ssd1320.c ****   /* post_chip_enable_wait_ns = */ 20,
 312:..\..\..\u8g2\u8g2\csrc/u8x8_d_ssd1320.c ****   /* pre_chip_disable_wait_ns = */ 10,
 313:..\..\..\u8g2\u8g2\csrc/u8x8_d_ssd1320.c ****   /* reset_pulse_width_ms = */ 100, 	/* ssd1320: 2 us */
 314:..\..\..\u8g2\u8g2\csrc/u8x8_d_ssd1320.c ****   /* post_reset_wait_ms = */ 100, /* far east OLEDs need much longer setup time */
 315:..\..\..\u8g2\u8g2\csrc/u8x8_d_ssd1320.c ****   /* sda_setup_time_ns = */ 50,		/* ssd1320: 15ns, but cycle time is 100ns, so use 100/2 */
 316:..\..\..\u8g2\u8g2\csrc/u8x8_d_ssd1320.c ****   /* sck_pulse_width_ns = */ 50,	/* ssd1320: 20ns, but cycle time is 100ns, so use 100/2, AVR: belo
 317:..\..\..\u8g2\u8g2\csrc/u8x8_d_ssd1320.c ****   /* sck_clock_hz = */ 10000000UL,	/* since Arduino 1.6.0, the SPI bus speed in Hz. Should be  1000
 318:..\..\..\u8g2\u8g2\csrc/u8x8_d_ssd1320.c ****   /* spi_mode = */ 0,		/* active high, rising edge */
 319:..\..\..\u8g2\u8g2\csrc/u8x8_d_ssd1320.c ****   /* i2c_bus_clock_100kHz = */ 4,
 320:..\..\..\u8g2\u8g2\csrc/u8x8_d_ssd1320.c ****   /* data_setup_time_ns = */ 10,
 321:..\..\..\u8g2\u8g2\csrc/u8x8_d_ssd1320.c ****   /* write_pulse_width_ns = */ 150,	/* ssd1320: cycle time is 300ns, so use 300/2 = 150 */
 322:..\..\..\u8g2\u8g2\csrc/u8x8_d_ssd1320.c ****   /* tile_width = */ 20,		/* 160 pixel, so we require 20 bytes for this */
 323:..\..\..\u8g2\u8g2\csrc/u8x8_d_ssd1320.c ****   /* tile_hight = */ 4,
 324:..\..\..\u8g2\u8g2\csrc/u8x8_d_ssd1320.c ****   /* default_x_offset = */ 0,	/* this is the byte offset (there are two pixel per byte with 4 bit p
 325:..\..\..\u8g2\u8g2\csrc/u8x8_d_ssd1320.c ****   /* flipmode_x_offset = */ 0,
 326:..\..\..\u8g2\u8g2\csrc/u8x8_d_ssd1320.c ****   /* pixel_width = */ 160,
 327:..\..\..\u8g2\u8g2\csrc/u8x8_d_ssd1320.c ****   /* pixel_height = */ 32
 328:..\..\..\u8g2\u8g2\csrc/u8x8_d_ssd1320.c **** };
 329:..\..\..\u8g2\u8g2\csrc/u8x8_d_ssd1320.c **** 
 330:..\..\..\u8g2\u8g2\csrc/u8x8_d_ssd1320.c **** // initialisation sequence from the Arduino Library
 331:..\..\..\u8g2\u8g2\csrc/u8x8_d_ssd1320.c **** // (see https://github.com/sparkfun/SparkFun_SSD1320_OLED_Arduino_Library)
 332:..\..\..\u8g2\u8g2\csrc/u8x8_d_ssd1320.c **** static const uint8_t u8x8_d_ssd1320_cs1_160x32_init_seq[] = {
 333:..\..\..\u8g2\u8g2\csrc/u8x8_d_ssd1320.c ****     
 334:..\..\..\u8g2\u8g2\csrc/u8x8_d_ssd1320.c ****     U8X8_DLY(1),
 335:..\..\..\u8g2\u8g2\csrc/u8x8_d_ssd1320.c ****     U8X8_START_TRANSFER(),    /* enable chip, delay is part of the transfer start */
 336:..\..\..\u8g2\u8g2\csrc/u8x8_d_ssd1320.c ****     U8X8_DLY(1),
 337:..\..\..\u8g2\u8g2\csrc/u8x8_d_ssd1320.c ****     
 338:..\..\..\u8g2\u8g2\csrc/u8x8_d_ssd1320.c ****     U8X8_C(0xae),		          /* display off */
 339:..\..\..\u8g2\u8g2\csrc/u8x8_d_ssd1320.c ****     U8X8_CA(0xd5, 0xC2),			/* set display clock divide ratio/oscillator frequency (set clock as 80 
 340:..\..\..\u8g2\u8g2\csrc/u8x8_d_ssd1320.c ****     U8X8_CA(0xa8, 0x1f),			/* multiplex ratio 1/64 Duty (0x0F~0x3F) */  
 341:..\..\..\u8g2\u8g2\csrc/u8x8_d_ssd1320.c ****     U8X8_CA(0xa2, 0x00),			/* display start line */  
 342:..\..\..\u8g2\u8g2\csrc/u8x8_d_ssd1320.c **** 
 343:..\..\..\u8g2\u8g2\csrc/u8x8_d_ssd1320.c ****     U8X8_C(0xa0),	                /* Set Segment Re-Map: column address 0 mapped to SEG0  CS1 */ 
 344:..\..\..\u8g2\u8g2\csrc/u8x8_d_ssd1320.c ****     // U8X8_C(0xa1),	                /* Set Segment Re-Map: column address 0 mapped to SEG0  CS2 */
ARM GAS  C:\Users\jesse\AppData\Local\Temp\cci5cU36.s 			page 18


 345:..\..\..\u8g2\u8g2\csrc/u8x8_d_ssd1320.c **** 
 346:..\..\..\u8g2\u8g2\csrc/u8x8_d_ssd1320.c ****     U8X8_C(0xc8),	             /* Set COM Output Scan Direction: normal mode CS1 */
 347:..\..\..\u8g2\u8g2\csrc/u8x8_d_ssd1320.c ****     // U8X8_C(0xc0),			        /* Set COM Output Scan Direction: normal mode CS2 */
 348:..\..\..\u8g2\u8g2\csrc/u8x8_d_ssd1320.c ****     
 349:..\..\..\u8g2\u8g2\csrc/u8x8_d_ssd1320.c ****     U8X8_CA(0xd3, 0x72),        /* CS1 */
 350:..\..\..\u8g2\u8g2\csrc/u8x8_d_ssd1320.c ****     // U8X8_CA(0xd3, 0x92),        /* CS2 */
 351:..\..\..\u8g2\u8g2\csrc/u8x8_d_ssd1320.c ****     
 352:..\..\..\u8g2\u8g2\csrc/u8x8_d_ssd1320.c ****     U8X8_CA(0xda, 0x12),	    /* Set SEG Pins Hardware Configuration:  */  
 353:..\..\..\u8g2\u8g2\csrc/u8x8_d_ssd1320.c ****     U8X8_CA(0x81, 0x5a),			/* contrast */  
 354:..\..\..\u8g2\u8g2\csrc/u8x8_d_ssd1320.c ****     U8X8_CA(0xd9, 0x22),			/* Set Phase Length */  
 355:..\..\..\u8g2\u8g2\csrc/u8x8_d_ssd1320.c ****     U8X8_CA(0xdb, 0x30),		  /* VCOMH Deselect Level */
 356:..\..\..\u8g2\u8g2\csrc/u8x8_d_ssd1320.c ****     U8X8_CA(0xad, 0x10),			/* Internal IREF Enable */  
 357:..\..\..\u8g2\u8g2\csrc/u8x8_d_ssd1320.c ****     U8X8_CA(0x20, 0x00),	    /* Memory Addressing Mode: Horizontal */  
 358:..\..\..\u8g2\u8g2\csrc/u8x8_d_ssd1320.c ****     U8X8_CA(0x8d, 0x01),			/* disable internal charge pump 1 */  
 359:..\..\..\u8g2\u8g2\csrc/u8x8_d_ssd1320.c ****     U8X8_CA(0xac, 0x00),			/* disable internal charge pump 2 */  
 360:..\..\..\u8g2\u8g2\csrc/u8x8_d_ssd1320.c ****     U8X8_C(0xa4),		        	/* display on */  
 361:..\..\..\u8g2\u8g2\csrc/u8x8_d_ssd1320.c ****     U8X8_C(0xa6),		          /* normal display */
 362:..\..\..\u8g2\u8g2\csrc/u8x8_d_ssd1320.c **** 
 363:..\..\..\u8g2\u8g2\csrc/u8x8_d_ssd1320.c ****     U8X8_DLY(1),					/* delay 2ms */
 364:..\..\..\u8g2\u8g2\csrc/u8x8_d_ssd1320.c **** 
 365:..\..\..\u8g2\u8g2\csrc/u8x8_d_ssd1320.c ****     U8X8_END_TRANSFER(),             	/* disable chip */
 366:..\..\..\u8g2\u8g2\csrc/u8x8_d_ssd1320.c ****     U8X8_END()             			/* end of sequence */
 367:..\..\..\u8g2\u8g2\csrc/u8x8_d_ssd1320.c **** };
 368:..\..\..\u8g2\u8g2\csrc/u8x8_d_ssd1320.c **** 
 369:..\..\..\u8g2\u8g2\csrc/u8x8_d_ssd1320.c **** 
 370:..\..\..\u8g2\u8g2\csrc/u8x8_d_ssd1320.c **** uint8_t u8x8_d_ssd1320_160x32(u8x8_t *u8x8, uint8_t msg, uint8_t arg_int, void *arg_ptr)
 371:..\..\..\u8g2\u8g2\csrc/u8x8_d_ssd1320.c **** {
 546              		.loc 1 371 0
 547              		.cfi_startproc
 548              		@ args = 0, pretend = 0, frame = 0
 549              		@ frame_needed = 0, uses_anonymous_args = 0
 550              	.LVL96:
 372:..\..\..\u8g2\u8g2\csrc/u8x8_d_ssd1320.c ****   switch(msg)
 551              		.loc 1 372 0
 552 0000 0A29     		cmp	r1, #10
 371:..\..\..\u8g2\u8g2\csrc/u8x8_d_ssd1320.c ****   switch(msg)
 553              		.loc 1 371 0
 554 0002 70B5     		push	{r4, r5, r6, lr}
 555              		.cfi_def_cfa_offset 16
 556              		.cfi_offset 4, -16
 557              		.cfi_offset 5, -12
 558              		.cfi_offset 6, -8
 559              		.cfi_offset 14, -4
 371:..\..\..\u8g2\u8g2\csrc/u8x8_d_ssd1320.c ****   switch(msg)
 560              		.loc 1 371 0
 561 0004 0446     		mov	r4, r0
 562              		.loc 1 372 0
 563 0006 07D0     		beq	.L58
 564 0008 0D29     		cmp	r1, #13
 565 000a 0CD0     		beq	.L59
 566 000c 0929     		cmp	r1, #9
 567 000e 19D1     		bne	.L63
 373:..\..\..\u8g2\u8g2\csrc/u8x8_d_ssd1320.c ****   {
 374:..\..\..\u8g2\u8g2\csrc/u8x8_d_ssd1320.c ****     case U8X8_MSG_DISPLAY_SETUP_MEMORY:
 375:..\..\..\u8g2\u8g2\csrc/u8x8_d_ssd1320.c ****         u8x8_d_helper_display_setup_memory(u8x8, &u8x8_d_ssd1320_cs1_160x32_display_info);
 568              		.loc 1 375 0
 569 0010 0F49     		ldr	r1, .L65
ARM GAS  C:\Users\jesse\AppData\Local\Temp\cci5cU36.s 			page 19


 570              	.LVL97:
 571 0012 FFF7FEFF 		bl	u8x8_d_helper_display_setup_memory
 572              	.LVL98:
 376:..\..\..\u8g2\u8g2\csrc/u8x8_d_ssd1320.c ****       break;
 573              		.loc 1 376 0
 574 0016 19E0     		b	.L61
 575              	.LVL99:
 576              	.L58:
 377:..\..\..\u8g2\u8g2\csrc/u8x8_d_ssd1320.c **** 
 378:..\..\..\u8g2\u8g2\csrc/u8x8_d_ssd1320.c ****     case U8X8_MSG_DISPLAY_INIT:
 379:..\..\..\u8g2\u8g2\csrc/u8x8_d_ssd1320.c ****         u8x8_d_helper_display_init(u8x8);
 577              		.loc 1 379 0
 578 0018 FFF7FEFF 		bl	u8x8_d_helper_display_init
 579              	.LVL100:
 380:..\..\..\u8g2\u8g2\csrc/u8x8_d_ssd1320.c ****         u8x8_cad_SendSequence(u8x8, u8x8_d_ssd1320_cs1_160x32_init_seq);
 580              		.loc 1 380 0
 581 001c 0D49     		ldr	r1, .L65+4
 582 001e 2046     		mov	r0, r4
 583 0020 FFF7FEFF 		bl	u8x8_cad_SendSequence
 584              	.LVL101:
 381:..\..\..\u8g2\u8g2\csrc/u8x8_d_ssd1320.c ****       break;
 585              		.loc 1 381 0
 586 0024 12E0     		b	.L61
 587              	.LVL102:
 588              	.L59:
 382:..\..\..\u8g2\u8g2\csrc/u8x8_d_ssd1320.c **** 
 383:..\..\..\u8g2\u8g2\csrc/u8x8_d_ssd1320.c ****     case U8X8_MSG_DISPLAY_SET_FLIP_MODE:
 384:..\..\..\u8g2\u8g2\csrc/u8x8_d_ssd1320.c ****       if ( arg_int == 0 ){
 589              		.loc 1 384 0
 590 0026 2AB9     		cbnz	r2, .L62
 385:..\..\..\u8g2\u8g2\csrc/u8x8_d_ssd1320.c ****         u8x8_cad_SendSequence(u8x8, u8x8_d_ssd1320_cs1_160x32_nhd_flip0_seq);
 591              		.loc 1 385 0
 592 0028 0B49     		ldr	r1, .L65+8
 593              	.LVL103:
 594 002a FFF7FEFF 		bl	u8x8_cad_SendSequence
 595              	.LVL104:
 386:..\..\..\u8g2\u8g2\csrc/u8x8_d_ssd1320.c ****         u8x8->x_offset = u8x8->display_info->default_x_offset;
 596              		.loc 1 386 0
 597 002e 2368     		ldr	r3, [r4]
 598 0030 9B7C     		ldrb	r3, [r3, #18]	@ zero_extendqisi2
 599 0032 04E0     		b	.L64
 600              	.LVL105:
 601              	.L62:
 387:..\..\..\u8g2\u8g2\csrc/u8x8_d_ssd1320.c ****       }
 388:..\..\..\u8g2\u8g2\csrc/u8x8_d_ssd1320.c ****       else{
 389:..\..\..\u8g2\u8g2\csrc/u8x8_d_ssd1320.c ****         u8x8_cad_SendSequence(u8x8, u8x8_d_ssd1320_cs1_160x32_nhd_flip1_seq);
 602              		.loc 1 389 0
 603 0034 0949     		ldr	r1, .L65+12
 604              	.LVL106:
 605 0036 FFF7FEFF 		bl	u8x8_cad_SendSequence
 606              	.LVL107:
 390:..\..\..\u8g2\u8g2\csrc/u8x8_d_ssd1320.c ****         u8x8->x_offset = u8x8->display_info->flipmode_x_offset;
 607              		.loc 1 390 0
 608 003a 2368     		ldr	r3, [r4]
 609 003c DB7C     		ldrb	r3, [r3, #19]	@ zero_extendqisi2
 610              	.L64:
 611 003e 84F82230 		strb	r3, [r4, #34]
ARM GAS  C:\Users\jesse\AppData\Local\Temp\cci5cU36.s 			page 20


 612 0042 03E0     		b	.L61
 613              	.LVL108:
 614              	.L63:
 391:..\..\..\u8g2\u8g2\csrc/u8x8_d_ssd1320.c ****       }
 392:..\..\..\u8g2\u8g2\csrc/u8x8_d_ssd1320.c ****       break;
 393:..\..\..\u8g2\u8g2\csrc/u8x8_d_ssd1320.c ****     
 394:..\..\..\u8g2\u8g2\csrc/u8x8_d_ssd1320.c ****     default:
 395:..\..\..\u8g2\u8g2\csrc/u8x8_d_ssd1320.c ****       return u8x8_d_ssd1320_common(u8x8, msg, arg_int, arg_ptr);
 396:..\..\..\u8g2\u8g2\csrc/u8x8_d_ssd1320.c ****   }
 397:..\..\..\u8g2\u8g2\csrc/u8x8_d_ssd1320.c ****   return 1;
 398:..\..\..\u8g2\u8g2\csrc/u8x8_d_ssd1320.c **** }
 615              		.loc 1 398 0
 616 0044 BDE87040 		pop	{r4, r5, r6, lr}
 617              		.cfi_remember_state
 618              		.cfi_restore 14
 619              		.cfi_restore 6
 620              		.cfi_restore 5
 621              		.cfi_restore 4
 622              		.cfi_def_cfa_offset 0
 395:..\..\..\u8g2\u8g2\csrc/u8x8_d_ssd1320.c ****   }
 623              		.loc 1 395 0
 624 0048 FFF7FEBF 		b	u8x8_d_ssd1320_common
 625              	.LVL109:
 626              	.L61:
 627              		.cfi_restore_state
 628              		.loc 1 398 0
 629 004c 0120     		movs	r0, #1
 630 004e 70BD     		pop	{r4, r5, r6, pc}
 631              	.LVL110:
 632              	.L66:
 633              		.align	2
 634              	.L65:
 635 0050 0C000000 		.word	.LANCHOR0+12
 636 0054 24000000 		.word	.LANCHOR0+36
 637 0058 67000000 		.word	.LANCHOR0+103
 638 005c 6C000000 		.word	.LANCHOR0+108
 639              		.cfi_endproc
 640              	.LFE4:
 641              		.size	u8x8_d_ssd1320_160x32, .-u8x8_d_ssd1320_160x32
 642              		.section	.text.u8x8_d_ssd1320_160x132,"ax",%progbits
 643              		.align	1
 644              		.global	u8x8_d_ssd1320_160x132
 645              		.thumb
 646              		.thumb_func
 647              		.type	u8x8_d_ssd1320_160x132, %function
 648              	u8x8_d_ssd1320_160x132:
 649              	.LFB5:
 399:..\..\..\u8g2\u8g2\csrc/u8x8_d_ssd1320.c **** 
 400:..\..\..\u8g2\u8g2\csrc/u8x8_d_ssd1320.c **** /*=========================================================*/
 401:..\..\..\u8g2\u8g2\csrc/u8x8_d_ssd1320.c **** /* 160x132 (actually 320x132) */
 402:..\..\..\u8g2\u8g2\csrc/u8x8_d_ssd1320.c **** 
 403:..\..\..\u8g2\u8g2\csrc/u8x8_d_ssd1320.c **** static const uint8_t u8x8_d_ssd1320_cs1_160x132_nhd_flip0_seq[] = {
 404:..\..\..\u8g2\u8g2\csrc/u8x8_d_ssd1320.c ****   U8X8_START_TRANSFER(),             	/* enable chip, delay is part of the transfer start */
 405:..\..\..\u8g2\u8g2\csrc/u8x8_d_ssd1320.c ****   U8X8_C(0x0a0),		/* remap */
 406:..\..\..\u8g2\u8g2\csrc/u8x8_d_ssd1320.c ****   U8X8_C(0xc8),	             /* Set COM Output Scan Direction: normal mode CS1 */
 407:..\..\..\u8g2\u8g2\csrc/u8x8_d_ssd1320.c ****   U8X8_CA(0xd3, 0x0e),        /* CS1 */
 408:..\..\..\u8g2\u8g2\csrc/u8x8_d_ssd1320.c ****   U8X8_END_TRANSFER(),             	/* disable chip */
ARM GAS  C:\Users\jesse\AppData\Local\Temp\cci5cU36.s 			page 21


 409:..\..\..\u8g2\u8g2\csrc/u8x8_d_ssd1320.c ****   U8X8_END()             			/* end of sequence */
 410:..\..\..\u8g2\u8g2\csrc/u8x8_d_ssd1320.c **** };
 411:..\..\..\u8g2\u8g2\csrc/u8x8_d_ssd1320.c **** 
 412:..\..\..\u8g2\u8g2\csrc/u8x8_d_ssd1320.c **** static const uint8_t u8x8_d_ssd1320_cs1_160x132_nhd_flip1_seq[] = {
 413:..\..\..\u8g2\u8g2\csrc/u8x8_d_ssd1320.c ****   U8X8_START_TRANSFER(),             	/* enable chip, delay is part of the transfer start */
 414:..\..\..\u8g2\u8g2\csrc/u8x8_d_ssd1320.c ****   U8X8_C(0x0a1),		/* remap */
 415:..\..\..\u8g2\u8g2\csrc/u8x8_d_ssd1320.c ****   U8X8_C(0xc0),	             /* Set COM Output Scan Direction: normal mode CS1 */
 416:..\..\..\u8g2\u8g2\csrc/u8x8_d_ssd1320.c ****   U8X8_CA(0xd3, 0x92),        /* CS1 */
 417:..\..\..\u8g2\u8g2\csrc/u8x8_d_ssd1320.c ****   U8X8_END_TRANSFER(),             	/* disable chip */
 418:..\..\..\u8g2\u8g2\csrc/u8x8_d_ssd1320.c ****   U8X8_END()             			/* end of sequence */
 419:..\..\..\u8g2\u8g2\csrc/u8x8_d_ssd1320.c **** };
 420:..\..\..\u8g2\u8g2\csrc/u8x8_d_ssd1320.c **** 
 421:..\..\..\u8g2\u8g2\csrc/u8x8_d_ssd1320.c **** static const u8x8_display_info_t u8x8_d_ssd1320_cs1_160x132_display_info =
 422:..\..\..\u8g2\u8g2\csrc/u8x8_d_ssd1320.c **** {
 423:..\..\..\u8g2\u8g2\csrc/u8x8_d_ssd1320.c ****   /* chip_enable_level = */ 0,
 424:..\..\..\u8g2\u8g2\csrc/u8x8_d_ssd1320.c ****   /* chip_disable_level = */ 1,
 425:..\..\..\u8g2\u8g2\csrc/u8x8_d_ssd1320.c ****   
 426:..\..\..\u8g2\u8g2\csrc/u8x8_d_ssd1320.c ****   /* post_chip_enable_wait_ns = */ 20,
 427:..\..\..\u8g2\u8g2\csrc/u8x8_d_ssd1320.c ****   /* pre_chip_disable_wait_ns = */ 10,
 428:..\..\..\u8g2\u8g2\csrc/u8x8_d_ssd1320.c ****   /* reset_pulse_width_ms = */ 100, 	/* ssd1320: 2 us */
 429:..\..\..\u8g2\u8g2\csrc/u8x8_d_ssd1320.c ****   /* post_reset_wait_ms = */ 100, /* far east OLEDs need much longer setup time */
 430:..\..\..\u8g2\u8g2\csrc/u8x8_d_ssd1320.c ****   /* sda_setup_time_ns = */ 50,		/* ssd1320: 15ns, but cycle time is 100ns, so use 100/2 */
 431:..\..\..\u8g2\u8g2\csrc/u8x8_d_ssd1320.c ****   /* sck_pulse_width_ns = */ 50,	/* ssd1320: 20ns, but cycle time is 100ns, so use 100/2, AVR: belo
 432:..\..\..\u8g2\u8g2\csrc/u8x8_d_ssd1320.c ****   /* sck_clock_hz = */ 10000000UL,	/* since Arduino 1.6.0, the SPI bus speed in Hz. Should be  1000
 433:..\..\..\u8g2\u8g2\csrc/u8x8_d_ssd1320.c ****   /* spi_mode = */ 0,		/* active high, rising edge */
 434:..\..\..\u8g2\u8g2\csrc/u8x8_d_ssd1320.c ****   /* i2c_bus_clock_100kHz = */ 4,
 435:..\..\..\u8g2\u8g2\csrc/u8x8_d_ssd1320.c ****   /* data_setup_time_ns = */ 10,
 436:..\..\..\u8g2\u8g2\csrc/u8x8_d_ssd1320.c ****   /* write_pulse_width_ns = */ 150,	/* ssd1320: cycle time is 300ns, so use 300/2 = 150 */
 437:..\..\..\u8g2\u8g2\csrc/u8x8_d_ssd1320.c ****   /* tile_width = */ 20,		/* 160 pixel, so we require 20 bytes for this */
 438:..\..\..\u8g2\u8g2\csrc/u8x8_d_ssd1320.c ****   /* tile_hight = */ 17,
 439:..\..\..\u8g2\u8g2\csrc/u8x8_d_ssd1320.c ****   /* default_x_offset = */ 0,	/* this is the byte offset (there are two pixel per byte with 4 bit p
 440:..\..\..\u8g2\u8g2\csrc/u8x8_d_ssd1320.c ****   /* flipmode_x_offset = */ 0,
 441:..\..\..\u8g2\u8g2\csrc/u8x8_d_ssd1320.c ****   /* pixel_width = */ 160,
 442:..\..\..\u8g2\u8g2\csrc/u8x8_d_ssd1320.c ****   /* pixel_height = */ 132
 443:..\..\..\u8g2\u8g2\csrc/u8x8_d_ssd1320.c **** };
 444:..\..\..\u8g2\u8g2\csrc/u8x8_d_ssd1320.c **** 
 445:..\..\..\u8g2\u8g2\csrc/u8x8_d_ssd1320.c **** 
 446:..\..\..\u8g2\u8g2\csrc/u8x8_d_ssd1320.c **** /* the following sequence will work, but requires contrast to be very high */
 447:..\..\..\u8g2\u8g2\csrc/u8x8_d_ssd1320.c **** /* added #ifdef to avoid compiler warning, issue 1802 */
 448:..\..\..\u8g2\u8g2\csrc/u8x8_d_ssd1320.c **** #ifdef NOT_USED
 449:..\..\..\u8g2\u8g2\csrc/u8x8_d_ssd1320.c **** static const uint8_t u8x8_d_ssd1320_cs1_160x132_init_seq[] = {
 450:..\..\..\u8g2\u8g2\csrc/u8x8_d_ssd1320.c ****     
 451:..\..\..\u8g2\u8g2\csrc/u8x8_d_ssd1320.c ****     U8X8_DLY(1),
 452:..\..\..\u8g2\u8g2\csrc/u8x8_d_ssd1320.c ****     U8X8_START_TRANSFER(),    /* enable chip, delay is part of the transfer start */
 453:..\..\..\u8g2\u8g2\csrc/u8x8_d_ssd1320.c ****     U8X8_DLY(1),
 454:..\..\..\u8g2\u8g2\csrc/u8x8_d_ssd1320.c ****     
 455:..\..\..\u8g2\u8g2\csrc/u8x8_d_ssd1320.c ****     U8X8_C(0xae),		          /* display off */
 456:..\..\..\u8g2\u8g2\csrc/u8x8_d_ssd1320.c ****     U8X8_CA(0xd5, 0xC2),			/* set display clock divide ratio/oscillator frequency (set clock as 80 
 457:..\..\..\u8g2\u8g2\csrc/u8x8_d_ssd1320.c ****     U8X8_CA(0xa8, 0x83),			/* multiplex ratio 1/132 Duty  */  
 458:..\..\..\u8g2\u8g2\csrc/u8x8_d_ssd1320.c ****     U8X8_CA(0xa2, 0x00),			/* display start line */  
 459:..\..\..\u8g2\u8g2\csrc/u8x8_d_ssd1320.c **** 
 460:..\..\..\u8g2\u8g2\csrc/u8x8_d_ssd1320.c ****     U8X8_C(0xa0),	                /* Set Segment Re-Map: column address 0 mapped to SEG0  CS1 */ 
 461:..\..\..\u8g2\u8g2\csrc/u8x8_d_ssd1320.c ****     // U8X8_C(0xa1),	                /* Set Segment Re-Map: column address 0 mapped to SEG0  CS2 */
 462:..\..\..\u8g2\u8g2\csrc/u8x8_d_ssd1320.c **** 
 463:..\..\..\u8g2\u8g2\csrc/u8x8_d_ssd1320.c ****     U8X8_C(0xc8),	             /* Set COM Output Scan Direction: normal mode CS1 */
 464:..\..\..\u8g2\u8g2\csrc/u8x8_d_ssd1320.c ****     // U8X8_C(0xc0),			        /* Set COM Output Scan Direction: normal mode CS2 */
 465:..\..\..\u8g2\u8g2\csrc/u8x8_d_ssd1320.c ****   
ARM GAS  C:\Users\jesse\AppData\Local\Temp\cci5cU36.s 			page 22


 466:..\..\..\u8g2\u8g2\csrc/u8x8_d_ssd1320.c ****     U8X8_CA(0xd3, 0x0e),        /* CS1 */
 467:..\..\..\u8g2\u8g2\csrc/u8x8_d_ssd1320.c ****     // U8X8_CA(0xd3, 0x92),        /* CS2 */
 468:..\..\..\u8g2\u8g2\csrc/u8x8_d_ssd1320.c ****     
 469:..\..\..\u8g2\u8g2\csrc/u8x8_d_ssd1320.c ****     U8X8_CA(0xda, 0x12),	    /* Set SEG Pins Hardware Configuration:  */  
 470:..\..\..\u8g2\u8g2\csrc/u8x8_d_ssd1320.c ****     U8X8_CA(0x81, 0x5a),			/* contrast */  
 471:..\..\..\u8g2\u8g2\csrc/u8x8_d_ssd1320.c ****     U8X8_CA(0xd9, 0x22),			/* Set Phase Length */  
 472:..\..\..\u8g2\u8g2\csrc/u8x8_d_ssd1320.c ****     U8X8_CA(0xdb, 0x30),		  /* VCOMH Deselect Level */
 473:..\..\..\u8g2\u8g2\csrc/u8x8_d_ssd1320.c ****     U8X8_CA(0xad, 0x10),			/* Internal IREF Enable */  
 474:..\..\..\u8g2\u8g2\csrc/u8x8_d_ssd1320.c ****     U8X8_CA(0x20, 0x00),	    /* Memory Addressing Mode: Horizontal */  
 475:..\..\..\u8g2\u8g2\csrc/u8x8_d_ssd1320.c ****     U8X8_CA(0x8d, 0x01),			/* disable internal charge pump 1 */  
 476:..\..\..\u8g2\u8g2\csrc/u8x8_d_ssd1320.c ****     U8X8_CA(0xac, 0x00),			/* disable internal charge pump 2 */  
 477:..\..\..\u8g2\u8g2\csrc/u8x8_d_ssd1320.c ****     U8X8_C(0xa4),		        	/* display on */  
 478:..\..\..\u8g2\u8g2\csrc/u8x8_d_ssd1320.c ****     U8X8_C(0xa6),		          /* normal display */
 479:..\..\..\u8g2\u8g2\csrc/u8x8_d_ssd1320.c **** 
 480:..\..\..\u8g2\u8g2\csrc/u8x8_d_ssd1320.c ****     U8X8_DLY(1),					/* delay 2ms */
 481:..\..\..\u8g2\u8g2\csrc/u8x8_d_ssd1320.c **** 
 482:..\..\..\u8g2\u8g2\csrc/u8x8_d_ssd1320.c ****     U8X8_END_TRANSFER(),             	/* disable chip */
 483:..\..\..\u8g2\u8g2\csrc/u8x8_d_ssd1320.c ****     U8X8_END()             			/* end of sequence */
 484:..\..\..\u8g2\u8g2\csrc/u8x8_d_ssd1320.c **** };
 485:..\..\..\u8g2\u8g2\csrc/u8x8_d_ssd1320.c **** #endif
 486:..\..\..\u8g2\u8g2\csrc/u8x8_d_ssd1320.c **** 
 487:..\..\..\u8g2\u8g2\csrc/u8x8_d_ssd1320.c **** /*
 488:..\..\..\u8g2\u8g2\csrc/u8x8_d_ssd1320.c **** OLED_WR_Byte(0xae,OLED_CMD);//Display OFF
 489:..\..\..\u8g2\u8g2\csrc/u8x8_d_ssd1320.c **** OLED_WR_Byte(0xfd,OLED_CMD);//Set Command Lock
 490:..\..\..\u8g2\u8g2\csrc/u8x8_d_ssd1320.c **** OLED_WR_Byte(0x12,OLED_CMD);
 491:..\..\..\u8g2\u8g2\csrc/u8x8_d_ssd1320.c **** OLED_WR_Byte(0x20,OLED_CMD);//Set Memory Addressing Mode
 492:..\..\..\u8g2\u8g2\csrc/u8x8_d_ssd1320.c **** OLED_WR_Byte(0x00,OLED_CMD);
 493:..\..\..\u8g2\u8g2\csrc/u8x8_d_ssd1320.c **** OLED_WR_Byte(0x25,OLED_CMD);//Set Portrait Addressing Mode
 494:..\..\..\u8g2\u8g2\csrc/u8x8_d_ssd1320.c **** OLED_WR_Byte(0x00,OLED_CMD);//Normal Addressing Mode
 495:..\..\..\u8g2\u8g2\csrc/u8x8_d_ssd1320.c **** OLED_WR_Byte(0x81,OLED_CMD);//Set Contrast Control
 496:..\..\..\u8g2\u8g2\csrc/u8x8_d_ssd1320.c **** OLED_WR_Byte(0x6b,OLED_CMD);
 497:..\..\..\u8g2\u8g2\csrc/u8x8_d_ssd1320.c **** OLED_WR_Byte1(0xa0,OLED_CMD,1);//Set Seg Remap LEFT DISPLAY
 498:..\..\..\u8g2\u8g2\csrc/u8x8_d_ssd1320.c **** OLED_WR_Byte1(0xa1,OLED_CMD,2);//Set Seg Remap RIGHT DISPLAY
 499:..\..\..\u8g2\u8g2\csrc/u8x8_d_ssd1320.c **** OLED_WR_Byte(0xa2,OLED_CMD);//Set Display Start Line
 500:..\..\..\u8g2\u8g2\csrc/u8x8_d_ssd1320.c **** OLED_WR_Byte(0x00,OLED_CMD);
 501:..\..\..\u8g2\u8g2\csrc/u8x8_d_ssd1320.c **** OLED_WR_Byte(0xa4,OLED_CMD);//Resume to RAM content display
 502:..\..\..\u8g2\u8g2\csrc/u8x8_d_ssd1320.c **** OLED_WR_Byte(0xa6,OLED_CMD);//Set Normal Display
 503:..\..\..\u8g2\u8g2\csrc/u8x8_d_ssd1320.c **** 
 504:..\..\..\u8g2\u8g2\csrc/u8x8_d_ssd1320.c **** OLED_WR_Byte(0xa8,OLED_CMD);//Set MUX Ratio
 505:..\..\..\u8g2\u8g2\csrc/u8x8_d_ssd1320.c **** OLED_WR_Byte(0x83,OLED_CMD);//1/132 duty
 506:..\..\..\u8g2\u8g2\csrc/u8x8_d_ssd1320.c **** 
 507:..\..\..\u8g2\u8g2\csrc/u8x8_d_ssd1320.c **** OLED_WR_Byte(0xad,OLED_CMD);//Select external or internal IREF
 508:..\..\..\u8g2\u8g2\csrc/u8x8_d_ssd1320.c **** OLED_WR_Byte(0x10,OLED_CMD);
 509:..\..\..\u8g2\u8g2\csrc/u8x8_d_ssd1320.c **** OLED_WR_Byte(0xbc,OLED_CMD);//Set Pre-charge voltage
 510:..\..\..\u8g2\u8g2\csrc/u8x8_d_ssd1320.c **** OLED_WR_Byte(0x1e,OLED_CMD);//
 511:..\..\..\u8g2\u8g2\csrc/u8x8_d_ssd1320.c **** OLED_WR_Byte(0xbf,OLED_CMD);//Linear LUT
 512:..\..\..\u8g2\u8g2\csrc/u8x8_d_ssd1320.c **** OLED_WR_Byte1(0xc8,OLED_CMD,1);//Set COM Output Scan Direction LEFT DISPLAY
 513:..\..\..\u8g2\u8g2\csrc/u8x8_d_ssd1320.c **** OLED_WR_Byte1(0xc0,OLED_CMD,2);//Set COM Output Scan Direction RIGHT DISPLAY
 514:..\..\..\u8g2\u8g2\csrc/u8x8_d_ssd1320.c **** OLED_WR_Byte(0xd3,OLED_CMD);//Set Display Offset
 515:..\..\..\u8g2\u8g2\csrc/u8x8_d_ssd1320.c **** OLED_WR_Byte1(0x0e,OLED_CMD,1); //LEFT DISPLAY
 516:..\..\..\u8g2\u8g2\csrc/u8x8_d_ssd1320.c **** OLED_WR_Byte1(0x92,OLED_CMD,2); // RIGHT DISPLAY
 517:..\..\..\u8g2\u8g2\csrc/u8x8_d_ssd1320.c **** OLED_WR_Byte(0xd5,OLED_CMD);//Set Display Clock Divide Ratio/Oscillator Frequency
 518:..\..\..\u8g2\u8g2\csrc/u8x8_d_ssd1320.c **** OLED_WR_Byte(0xc2,OLED_CMD);//85Hz
 519:..\..\..\u8g2\u8g2\csrc/u8x8_d_ssd1320.c **** OLED_WR_Byte(0xd9,OLED_CMD);//Set Pre-charge Period
 520:..\..\..\u8g2\u8g2\csrc/u8x8_d_ssd1320.c **** OLED_WR_Byte(0x72,OLED_CMD);//
 521:..\..\..\u8g2\u8g2\csrc/u8x8_d_ssd1320.c **** OLED_WR_Byte(0xda,OLED_CMD);//Set SEG Pins Hardware Configuration
 522:..\..\..\u8g2\u8g2\csrc/u8x8_d_ssd1320.c **** OLED_WR_Byte(0x32,OLED_CMD);
ARM GAS  C:\Users\jesse\AppData\Local\Temp\cci5cU36.s 			page 23


 523:..\..\..\u8g2\u8g2\csrc/u8x8_d_ssd1320.c **** OLED_WR_Byte(0xbd,OLED_CMD);//Set VP
 524:..\..\..\u8g2\u8g2\csrc/u8x8_d_ssd1320.c **** OLED_WR_Byte(0x03,OLED_CMD);
 525:..\..\..\u8g2\u8g2\csrc/u8x8_d_ssd1320.c **** OLED_WR_Byte(0xdb,OLED_CMD);//Set VCOMH
 526:..\..\..\u8g2\u8g2\csrc/u8x8_d_ssd1320.c **** OLED_WR_Byte(0x30,OLED_CMD);
 527:..\..\..\u8g2\u8g2\csrc/u8x8_d_ssd1320.c **** OLED_WR_Byte(0xaf,OLED_CMD);//Display on
 528:..\..\..\u8g2\u8g2\csrc/u8x8_d_ssd1320.c **** */
 529:..\..\..\u8g2\u8g2\csrc/u8x8_d_ssd1320.c **** static const uint8_t u8x8_d_ssd1320_160x132_init_seq[] = {
 530:..\..\..\u8g2\u8g2\csrc/u8x8_d_ssd1320.c ****     U8X8_DLY(1),
 531:..\..\..\u8g2\u8g2\csrc/u8x8_d_ssd1320.c ****     U8X8_START_TRANSFER(),    /* enable chip, delay is part of the transfer start */
 532:..\..\..\u8g2\u8g2\csrc/u8x8_d_ssd1320.c ****     U8X8_DLY(1),
 533:..\..\..\u8g2\u8g2\csrc/u8x8_d_ssd1320.c ****     
 534:..\..\..\u8g2\u8g2\csrc/u8x8_d_ssd1320.c ****     U8X8_C(0xae),		          /* display off */
 535:..\..\..\u8g2\u8g2\csrc/u8x8_d_ssd1320.c ****     U8X8_CA(0xd5, 0xC2),	/* set display clock divide ratio/oscillator frequency (set clock as 80 fr
 536:..\..\..\u8g2\u8g2\csrc/u8x8_d_ssd1320.c ****     U8X8_CA(0xa8, 0x83),	/* multiplex ratio 1/132 Duty  */  
 537:..\..\..\u8g2\u8g2\csrc/u8x8_d_ssd1320.c ****     U8X8_CA(0xa2, 0x00),	/* display start line */  
 538:..\..\..\u8g2\u8g2\csrc/u8x8_d_ssd1320.c **** 
 539:..\..\..\u8g2\u8g2\csrc/u8x8_d_ssd1320.c ****     U8X8_C(0xa0),	                /* Set Segment Re-Map: column address 0 mapped to SEG0  CS1 */ 
 540:..\..\..\u8g2\u8g2\csrc/u8x8_d_ssd1320.c ****     // U8X8_C(0xa1),	      	/* Set Segment Re-Map: column address 0 mapped to SEG0  CS2 */ 
 541:..\..\..\u8g2\u8g2\csrc/u8x8_d_ssd1320.c **** 
 542:..\..\..\u8g2\u8g2\csrc/u8x8_d_ssd1320.c ****     U8X8_C(0xc8),	             	/* Set COM Output Scan Direction: normal mode CS1 */
 543:..\..\..\u8g2\u8g2\csrc/u8x8_d_ssd1320.c ****     // U8X8_C(0xc0),		/* Set COM Output Scan Direction: normal mode CS2 */
 544:..\..\..\u8g2\u8g2\csrc/u8x8_d_ssd1320.c **** 
 545:..\..\..\u8g2\u8g2\csrc/u8x8_d_ssd1320.c ****     U8X8_CA(0xad, 0x10), 		/* select Iref: 0x00 external (reset default), 0x10 internal */
 546:..\..\..\u8g2\u8g2\csrc/u8x8_d_ssd1320.c ****     U8X8_CA(0xbc, 0x1e), 		/* pre-charge voltage level 0x00..0x1f, reset default: 0x1e */
 547:..\..\..\u8g2\u8g2\csrc/u8x8_d_ssd1320.c ****     U8X8_C(0xbf),		        	/* select linear LUT */  
 548:..\..\..\u8g2\u8g2\csrc/u8x8_d_ssd1320.c ****     U8X8_CA(0xd5, 0xc2), 		/* Bit 0..3: clock ratio 1, 2, 4, 8, ...256, reset=0x1, Bit 4..7: F_osc 
 549:..\..\..\u8g2\u8g2\csrc/u8x8_d_ssd1320.c ****     U8X8_CA(0xd9, 0x72),		/* Set Phase 1&2 Length, Bit 0..3: Phase 1, Bit 4..7: Phase 2, reset defa
 550:..\..\..\u8g2\u8g2\csrc/u8x8_d_ssd1320.c ****     U8X8_CA(0xbd, 0x03), 		/* from the vendor init sequence */
 551:..\..\..\u8g2\u8g2\csrc/u8x8_d_ssd1320.c ****     U8X8_CA(0xdb, 0x30),		  /* VCOMH Deselect Level */
 552:..\..\..\u8g2\u8g2\csrc/u8x8_d_ssd1320.c **** 
 553:..\..\..\u8g2\u8g2\csrc/u8x8_d_ssd1320.c ****   
 554:..\..\..\u8g2\u8g2\csrc/u8x8_d_ssd1320.c ****     U8X8_CA(0xd3, 0x0e),        /* CS1 */
 555:..\..\..\u8g2\u8g2\csrc/u8x8_d_ssd1320.c ****     // U8X8_CA(0xd3, 0x92),        /* CS2 */
 556:..\..\..\u8g2\u8g2\csrc/u8x8_d_ssd1320.c ****     
 557:..\..\..\u8g2\u8g2\csrc/u8x8_d_ssd1320.c ****     U8X8_CA(0xda, 0x12),	/* Set SEG Pins Hardware Configuration:  */  
 558:..\..\..\u8g2\u8g2\csrc/u8x8_d_ssd1320.c ****     U8X8_CA(0x81, 0x6b),			/* contrast */  
 559:..\..\..\u8g2\u8g2\csrc/u8x8_d_ssd1320.c ****     //U8X8_CA(0xd9, 0x22),			/* Set Phase Length */  
 560:..\..\..\u8g2\u8g2\csrc/u8x8_d_ssd1320.c ****     //U8X8_CA(0xdb, 0x30),		  /* VCOMH Deselect Level */
 561:..\..\..\u8g2\u8g2\csrc/u8x8_d_ssd1320.c ****     //U8X8_CA(0xad, 0x10),			/* Internal IREF Enable */  
 562:..\..\..\u8g2\u8g2\csrc/u8x8_d_ssd1320.c ****     U8X8_CA(0x20, 0x00),	    /* Memory Addressing Mode: Horizontal */  
 563:..\..\..\u8g2\u8g2\csrc/u8x8_d_ssd1320.c ****     //U8X8_CA(0x8d, 0x01),			/* unknown in SSD1320 datasheet, disable internal charge pump 1 */  
 564:..\..\..\u8g2\u8g2\csrc/u8x8_d_ssd1320.c ****     //U8X8_CA(0xac, 0x00),			/* unknown in SSD1320 datasheet, disable internal charge pump 2 */  
 565:..\..\..\u8g2\u8g2\csrc/u8x8_d_ssd1320.c ****     U8X8_C(0xa4),		        	/* display RAM on */  
 566:..\..\..\u8g2\u8g2\csrc/u8x8_d_ssd1320.c ****     U8X8_C(0xa6),		          /* normal display */
 567:..\..\..\u8g2\u8g2\csrc/u8x8_d_ssd1320.c **** 
 568:..\..\..\u8g2\u8g2\csrc/u8x8_d_ssd1320.c ****     U8X8_DLY(1),					/* delay 2ms */
 569:..\..\..\u8g2\u8g2\csrc/u8x8_d_ssd1320.c **** 
 570:..\..\..\u8g2\u8g2\csrc/u8x8_d_ssd1320.c ****     U8X8_END_TRANSFER(),             	/* disable chip */
 571:..\..\..\u8g2\u8g2\csrc/u8x8_d_ssd1320.c ****     U8X8_END()             			/* end of sequence */
 572:..\..\..\u8g2\u8g2\csrc/u8x8_d_ssd1320.c **** };
 573:..\..\..\u8g2\u8g2\csrc/u8x8_d_ssd1320.c **** 
 574:..\..\..\u8g2\u8g2\csrc/u8x8_d_ssd1320.c **** uint8_t u8x8_d_ssd1320_160x132(u8x8_t *u8x8, uint8_t msg, uint8_t arg_int, void *arg_ptr)
 575:..\..\..\u8g2\u8g2\csrc/u8x8_d_ssd1320.c **** {
 650              		.loc 1 575 0
 651              		.cfi_startproc
 652              		@ args = 0, pretend = 0, frame = 0
 653              		@ frame_needed = 0, uses_anonymous_args = 0
ARM GAS  C:\Users\jesse\AppData\Local\Temp\cci5cU36.s 			page 24


 654              	.LVL111:
 576:..\..\..\u8g2\u8g2\csrc/u8x8_d_ssd1320.c ****   switch(msg)
 655              		.loc 1 576 0
 656 0000 0A29     		cmp	r1, #10
 575:..\..\..\u8g2\u8g2\csrc/u8x8_d_ssd1320.c ****   switch(msg)
 657              		.loc 1 575 0
 658 0002 70B5     		push	{r4, r5, r6, lr}
 659              		.cfi_def_cfa_offset 16
 660              		.cfi_offset 4, -16
 661              		.cfi_offset 5, -12
 662              		.cfi_offset 6, -8
 663              		.cfi_offset 14, -4
 575:..\..\..\u8g2\u8g2\csrc/u8x8_d_ssd1320.c ****   switch(msg)
 664              		.loc 1 575 0
 665 0004 0446     		mov	r4, r0
 666              		.loc 1 576 0
 667 0006 07D0     		beq	.L69
 668 0008 0D29     		cmp	r1, #13
 669 000a 0CD0     		beq	.L70
 670 000c 0929     		cmp	r1, #9
 671 000e 19D1     		bne	.L74
 577:..\..\..\u8g2\u8g2\csrc/u8x8_d_ssd1320.c ****   {
 578:..\..\..\u8g2\u8g2\csrc/u8x8_d_ssd1320.c ****     case U8X8_MSG_DISPLAY_SETUP_MEMORY:
 579:..\..\..\u8g2\u8g2\csrc/u8x8_d_ssd1320.c ****         u8x8_d_helper_display_setup_memory(u8x8, &u8x8_d_ssd1320_cs1_160x132_display_info);
 672              		.loc 1 579 0
 673 0010 0F49     		ldr	r1, .L76
 674              	.LVL112:
 675 0012 FFF7FEFF 		bl	u8x8_d_helper_display_setup_memory
 676              	.LVL113:
 580:..\..\..\u8g2\u8g2\csrc/u8x8_d_ssd1320.c ****     
 581:..\..\..\u8g2\u8g2\csrc/u8x8_d_ssd1320.c ****       break;
 677              		.loc 1 581 0
 678 0016 19E0     		b	.L72
 679              	.LVL114:
 680              	.L69:
 582:..\..\..\u8g2\u8g2\csrc/u8x8_d_ssd1320.c **** 
 583:..\..\..\u8g2\u8g2\csrc/u8x8_d_ssd1320.c ****     case U8X8_MSG_DISPLAY_INIT:
 584:..\..\..\u8g2\u8g2\csrc/u8x8_d_ssd1320.c ****         u8x8_d_helper_display_init(u8x8);
 681              		.loc 1 584 0
 682 0018 FFF7FEFF 		bl	u8x8_d_helper_display_init
 683              	.LVL115:
 585:..\..\..\u8g2\u8g2\csrc/u8x8_d_ssd1320.c ****        // u8x8_cad_SendSequence(u8x8, u8x8_d_ssd1320_cs1_160x132_init_seq);
 586:..\..\..\u8g2\u8g2\csrc/u8x8_d_ssd1320.c ****         u8x8_cad_SendSequence(u8x8, u8x8_d_ssd1320_160x132_init_seq);
 684              		.loc 1 586 0
 685 001c 0D49     		ldr	r1, .L76+4
 686 001e 2046     		mov	r0, r4
 687 0020 FFF7FEFF 		bl	u8x8_cad_SendSequence
 688              	.LVL116:
 587:..\..\..\u8g2\u8g2\csrc/u8x8_d_ssd1320.c ****       break;
 689              		.loc 1 587 0
 690 0024 12E0     		b	.L72
 691              	.LVL117:
 692              	.L70:
 588:..\..\..\u8g2\u8g2\csrc/u8x8_d_ssd1320.c **** 
 589:..\..\..\u8g2\u8g2\csrc/u8x8_d_ssd1320.c ****     case U8X8_MSG_DISPLAY_SET_FLIP_MODE:
 590:..\..\..\u8g2\u8g2\csrc/u8x8_d_ssd1320.c ****       if ( arg_int == 0 ){
 693              		.loc 1 590 0
ARM GAS  C:\Users\jesse\AppData\Local\Temp\cci5cU36.s 			page 25


 694 0026 2AB9     		cbnz	r2, .L73
 591:..\..\..\u8g2\u8g2\csrc/u8x8_d_ssd1320.c ****         u8x8_cad_SendSequence(u8x8, u8x8_d_ssd1320_cs1_160x132_nhd_flip0_seq);
 695              		.loc 1 591 0
 696 0028 0B49     		ldr	r1, .L76+8
 697              	.LVL118:
 698 002a FFF7FEFF 		bl	u8x8_cad_SendSequence
 699              	.LVL119:
 592:..\..\..\u8g2\u8g2\csrc/u8x8_d_ssd1320.c ****         u8x8->x_offset = u8x8->display_info->default_x_offset;
 700              		.loc 1 592 0
 701 002e 2368     		ldr	r3, [r4]
 702 0030 9B7C     		ldrb	r3, [r3, #18]	@ zero_extendqisi2
 703 0032 04E0     		b	.L75
 704              	.LVL120:
 705              	.L73:
 593:..\..\..\u8g2\u8g2\csrc/u8x8_d_ssd1320.c ****       }
 594:..\..\..\u8g2\u8g2\csrc/u8x8_d_ssd1320.c ****       else{
 595:..\..\..\u8g2\u8g2\csrc/u8x8_d_ssd1320.c ****         u8x8_cad_SendSequence(u8x8, u8x8_d_ssd1320_cs1_160x132_nhd_flip1_seq);
 706              		.loc 1 595 0
 707 0034 0949     		ldr	r1, .L76+12
 708              	.LVL121:
 709 0036 FFF7FEFF 		bl	u8x8_cad_SendSequence
 710              	.LVL122:
 596:..\..\..\u8g2\u8g2\csrc/u8x8_d_ssd1320.c ****         u8x8->x_offset = u8x8->display_info->flipmode_x_offset;
 711              		.loc 1 596 0
 712 003a 2368     		ldr	r3, [r4]
 713 003c DB7C     		ldrb	r3, [r3, #19]	@ zero_extendqisi2
 714              	.L75:
 715 003e 84F82230 		strb	r3, [r4, #34]
 716 0042 03E0     		b	.L72
 717              	.LVL123:
 718              	.L74:
 597:..\..\..\u8g2\u8g2\csrc/u8x8_d_ssd1320.c ****       }
 598:..\..\..\u8g2\u8g2\csrc/u8x8_d_ssd1320.c ****       break;
 599:..\..\..\u8g2\u8g2\csrc/u8x8_d_ssd1320.c ****     
 600:..\..\..\u8g2\u8g2\csrc/u8x8_d_ssd1320.c ****     default:
 601:..\..\..\u8g2\u8g2\csrc/u8x8_d_ssd1320.c ****       return u8x8_d_ssd1320_common(u8x8, msg, arg_int, arg_ptr);
 602:..\..\..\u8g2\u8g2\csrc/u8x8_d_ssd1320.c ****   }
 603:..\..\..\u8g2\u8g2\csrc/u8x8_d_ssd1320.c ****   return 1;
 604:..\..\..\u8g2\u8g2\csrc/u8x8_d_ssd1320.c **** }
 719              		.loc 1 604 0
 720 0044 BDE87040 		pop	{r4, r5, r6, lr}
 721              		.cfi_remember_state
 722              		.cfi_restore 14
 723              		.cfi_restore 6
 724              		.cfi_restore 5
 725              		.cfi_restore 4
 726              		.cfi_def_cfa_offset 0
 601:..\..\..\u8g2\u8g2\csrc/u8x8_d_ssd1320.c ****   }
 727              		.loc 1 601 0
 728 0048 FFF7FEBF 		b	u8x8_d_ssd1320_common
 729              	.LVL124:
 730              	.L72:
 731              		.cfi_restore_state
 732              		.loc 1 604 0
 733 004c 0120     		movs	r0, #1
 734 004e 70BD     		pop	{r4, r5, r6, pc}
 735              	.LVL125:
ARM GAS  C:\Users\jesse\AppData\Local\Temp\cci5cU36.s 			page 26


 736              	.L77:
 737              		.align	2
 738              	.L76:
 739 0050 74000000 		.word	.LANCHOR0+116
 740 0054 8C000000 		.word	.LANCHOR0+140
 741 0058 D5000000 		.word	.LANCHOR0+213
 742 005c E0000000 		.word	.LANCHOR0+224
 743              		.cfi_endproc
 744              	.LFE5:
 745              		.size	u8x8_d_ssd1320_160x132, .-u8x8_d_ssd1320_160x132
 746              		.section	.text.u8x8_d_ssd1320_160x80,"ax",%progbits
 747              		.align	1
 748              		.global	u8x8_d_ssd1320_160x80
 749              		.thumb
 750              		.thumb_func
 751              		.type	u8x8_d_ssd1320_160x80, %function
 752              	u8x8_d_ssd1320_160x80:
 753              	.LFB6:
 605:..\..\..\u8g2\u8g2\csrc/u8x8_d_ssd1320.c **** 
 606:..\..\..\u8g2\u8g2\csrc/u8x8_d_ssd1320.c **** 
 607:..\..\..\u8g2\u8g2\csrc/u8x8_d_ssd1320.c **** 
 608:..\..\..\u8g2\u8g2\csrc/u8x8_d_ssd1320.c **** 
 609:..\..\..\u8g2\u8g2\csrc/u8x8_d_ssd1320.c **** /*=========================================================*/
 610:..\..\..\u8g2\u8g2\csrc/u8x8_d_ssd1320.c **** /* https://github.com/olikraus/u8g2/issues/1816 */
 611:..\..\..\u8g2\u8g2\csrc/u8x8_d_ssd1320.c **** /* 160x80, https://de.aliexpress.com/item/1005003510267760.html */
 612:..\..\..\u8g2\u8g2\csrc/u8x8_d_ssd1320.c **** 
 613:..\..\..\u8g2\u8g2\csrc/u8x8_d_ssd1320.c **** static const uint8_t u8x8_d_ssd1320_160x80_flip0_seq[] = {
 614:..\..\..\u8g2\u8g2\csrc/u8x8_d_ssd1320.c ****   U8X8_START_TRANSFER(),             	/* enable chip, delay is part of the transfer start */
 615:..\..\..\u8g2\u8g2\csrc/u8x8_d_ssd1320.c ****   U8X8_C(0x0a0),		/* remap */
 616:..\..\..\u8g2\u8g2\csrc/u8x8_d_ssd1320.c ****   U8X8_C(0xc8),	             /* Set COM Output Scan Direction: normal mode CS1 */
 617:..\..\..\u8g2\u8g2\csrc/u8x8_d_ssd1320.c ****   U8X8_CA(0xd3, 39),        /* display offset */
 618:..\..\..\u8g2\u8g2\csrc/u8x8_d_ssd1320.c ****   U8X8_END_TRANSFER(),             	/* disable chip */
 619:..\..\..\u8g2\u8g2\csrc/u8x8_d_ssd1320.c ****   U8X8_END()             			/* end of sequence */
 620:..\..\..\u8g2\u8g2\csrc/u8x8_d_ssd1320.c **** };
 621:..\..\..\u8g2\u8g2\csrc/u8x8_d_ssd1320.c **** 
 622:..\..\..\u8g2\u8g2\csrc/u8x8_d_ssd1320.c **** static const uint8_t u8x8_d_ssd1320_160x80_flip1_seq[] = {
 623:..\..\..\u8g2\u8g2\csrc/u8x8_d_ssd1320.c ****   U8X8_START_TRANSFER(),             	/* enable chip, delay is part of the transfer start */
 624:..\..\..\u8g2\u8g2\csrc/u8x8_d_ssd1320.c ****   U8X8_C(0x0a1),		/* remap */
 625:..\..\..\u8g2\u8g2\csrc/u8x8_d_ssd1320.c ****   U8X8_C(0xc0),	             /* Set COM Output Scan Direction: normal mode CS1 */
 626:..\..\..\u8g2\u8g2\csrc/u8x8_d_ssd1320.c ****   U8X8_CA(0xd3, 120),        /* display offset */
 627:..\..\..\u8g2\u8g2\csrc/u8x8_d_ssd1320.c ****   U8X8_END_TRANSFER(),             	/* disable chip */
 628:..\..\..\u8g2\u8g2\csrc/u8x8_d_ssd1320.c ****   U8X8_END()             			/* end of sequence */
 629:..\..\..\u8g2\u8g2\csrc/u8x8_d_ssd1320.c **** };
 630:..\..\..\u8g2\u8g2\csrc/u8x8_d_ssd1320.c **** 
 631:..\..\..\u8g2\u8g2\csrc/u8x8_d_ssd1320.c **** static const u8x8_display_info_t u8x8_d_ssd1320_160x80_display_info =
 632:..\..\..\u8g2\u8g2\csrc/u8x8_d_ssd1320.c **** {
 633:..\..\..\u8g2\u8g2\csrc/u8x8_d_ssd1320.c ****   /* chip_enable_level = */ 0,
 634:..\..\..\u8g2\u8g2\csrc/u8x8_d_ssd1320.c ****   /* chip_disable_level = */ 1,
 635:..\..\..\u8g2\u8g2\csrc/u8x8_d_ssd1320.c ****   
 636:..\..\..\u8g2\u8g2\csrc/u8x8_d_ssd1320.c ****   /* post_chip_enable_wait_ns = */ 20,
 637:..\..\..\u8g2\u8g2\csrc/u8x8_d_ssd1320.c ****   /* pre_chip_disable_wait_ns = */ 10,
 638:..\..\..\u8g2\u8g2\csrc/u8x8_d_ssd1320.c ****   /* reset_pulse_width_ms = */ 100, 	/* ssd1320: 2 us */
 639:..\..\..\u8g2\u8g2\csrc/u8x8_d_ssd1320.c ****   /* post_reset_wait_ms = */ 100, /* far east OLEDs need much longer setup time */
 640:..\..\..\u8g2\u8g2\csrc/u8x8_d_ssd1320.c ****   /* sda_setup_time_ns = */ 50,		/* ssd1320: 15ns, but cycle time is 100ns, so use 100/2 */
 641:..\..\..\u8g2\u8g2\csrc/u8x8_d_ssd1320.c ****   /* sck_pulse_width_ns = */ 50,	/* ssd1320: 20ns, but cycle time is 100ns, so use 100/2, AVR: belo
 642:..\..\..\u8g2\u8g2\csrc/u8x8_d_ssd1320.c ****   /* sck_clock_hz = */ 10000000UL,	/* since Arduino 1.6.0, the SPI bus speed in Hz. Should be  1000
 643:..\..\..\u8g2\u8g2\csrc/u8x8_d_ssd1320.c ****   /* spi_mode = */ 0,		/* active high, rising edge */
ARM GAS  C:\Users\jesse\AppData\Local\Temp\cci5cU36.s 			page 27


 644:..\..\..\u8g2\u8g2\csrc/u8x8_d_ssd1320.c ****   /* i2c_bus_clock_100kHz = */ 4,
 645:..\..\..\u8g2\u8g2\csrc/u8x8_d_ssd1320.c ****   /* data_setup_time_ns = */ 10,
 646:..\..\..\u8g2\u8g2\csrc/u8x8_d_ssd1320.c ****   /* write_pulse_width_ns = */ 150,	/* ssd1320: cycle time is 300ns, so use 300/2 = 150 */
 647:..\..\..\u8g2\u8g2\csrc/u8x8_d_ssd1320.c ****   /* tile_width = */ 20,		/* 160 pixel, so we require 20 bytes for this */
 648:..\..\..\u8g2\u8g2\csrc/u8x8_d_ssd1320.c ****   /* tile_hight = */ 10,
 649:..\..\..\u8g2\u8g2\csrc/u8x8_d_ssd1320.c ****   /* default_x_offset = */ 0,	/* this is the byte offset (there are two pixel per byte with 4 bit p
 650:..\..\..\u8g2\u8g2\csrc/u8x8_d_ssd1320.c ****   /* flipmode_x_offset = */ 0,
 651:..\..\..\u8g2\u8g2\csrc/u8x8_d_ssd1320.c ****   /* pixel_width = */ 160,
 652:..\..\..\u8g2\u8g2\csrc/u8x8_d_ssd1320.c ****   /* pixel_height = */ 80
 653:..\..\..\u8g2\u8g2\csrc/u8x8_d_ssd1320.c **** };
 654:..\..\..\u8g2\u8g2\csrc/u8x8_d_ssd1320.c **** 
 655:..\..\..\u8g2\u8g2\csrc/u8x8_d_ssd1320.c **** 
 656:..\..\..\u8g2\u8g2\csrc/u8x8_d_ssd1320.c **** 
 657:..\..\..\u8g2\u8g2\csrc/u8x8_d_ssd1320.c **** static const uint8_t u8x8_d_ssd1320_160x80_init_seq[] = {
 658:..\..\..\u8g2\u8g2\csrc/u8x8_d_ssd1320.c ****     U8X8_DLY(1),
 659:..\..\..\u8g2\u8g2\csrc/u8x8_d_ssd1320.c ****     U8X8_START_TRANSFER(),    /* enable chip, delay is part of the transfer start */
 660:..\..\..\u8g2\u8g2\csrc/u8x8_d_ssd1320.c ****     U8X8_DLY(1),
 661:..\..\..\u8g2\u8g2\csrc/u8x8_d_ssd1320.c ****     
 662:..\..\..\u8g2\u8g2\csrc/u8x8_d_ssd1320.c ****     U8X8_C(0xae),		          /* display off */
 663:..\..\..\u8g2\u8g2\csrc/u8x8_d_ssd1320.c ****     U8X8_CA(0xa8, 80),	/* multiplex ratio 1/80 Duty  */  
 664:..\..\..\u8g2\u8g2\csrc/u8x8_d_ssd1320.c ****     U8X8_CA(0xa2, 0),	/* display start line */  
 665:..\..\..\u8g2\u8g2\csrc/u8x8_d_ssd1320.c **** 
 666:..\..\..\u8g2\u8g2\csrc/u8x8_d_ssd1320.c ****     U8X8_C(0xa0),	                /* Set Segment Re-Map */
 667:..\..\..\u8g2\u8g2\csrc/u8x8_d_ssd1320.c ****     U8X8_C(0xc8),	             	/* Set COM Output Scan Direction: normal mode */
 668:..\..\..\u8g2\u8g2\csrc/u8x8_d_ssd1320.c **** 
 669:..\..\..\u8g2\u8g2\csrc/u8x8_d_ssd1320.c ****     U8X8_CA(0xad, 0x10), 		/* select Iref: 0x00 external (reset default), 0x10 internal */
 670:..\..\..\u8g2\u8g2\csrc/u8x8_d_ssd1320.c ****     U8X8_CA(0xbc, 0x1e), 		/* pre-charge voltage level 0x00..0x1f, reset default: 0x1e */
 671:..\..\..\u8g2\u8g2\csrc/u8x8_d_ssd1320.c ****     U8X8_C(0xbf),		        	/* select linear LUT */  
 672:..\..\..\u8g2\u8g2\csrc/u8x8_d_ssd1320.c ****     U8X8_CA(0xd5, 0xc2), 		/* Bit 0..3: clock ratio 1, 2, 4, 8, ...256, reset=0x1, Bit 4..7: F_osc 
 673:..\..\..\u8g2\u8g2\csrc/u8x8_d_ssd1320.c ****     U8X8_CA(0xd9, 0x72),		/* Set Phase 1&2 Length, Bit 0..3: Phase 1, Bit 4..7: Phase 2, reset defa
 674:..\..\..\u8g2\u8g2\csrc/u8x8_d_ssd1320.c **** 
 675:..\..\..\u8g2\u8g2\csrc/u8x8_d_ssd1320.c ****     U8X8_CA(0xd3, 39),        /* display offset */
 676:..\..\..\u8g2\u8g2\csrc/u8x8_d_ssd1320.c ****     
 677:..\..\..\u8g2\u8g2\csrc/u8x8_d_ssd1320.c ****     U8X8_CA(0xda, 0x12),	/* Set SEG Pins Hardware Configuration:  */  
 678:..\..\..\u8g2\u8g2\csrc/u8x8_d_ssd1320.c ****     U8X8_CA(0x81, 0x70),			/* contrast */  
 679:..\..\..\u8g2\u8g2\csrc/u8x8_d_ssd1320.c ****     U8X8_CA(0x20, 0x00),	    /* Memory Addressing Mode: Horizontal */  
 680:..\..\..\u8g2\u8g2\csrc/u8x8_d_ssd1320.c ****     
 681:..\..\..\u8g2\u8g2\csrc/u8x8_d_ssd1320.c ****     U8X8_C(0xa4),		        	/* display RAM on */  
 682:..\..\..\u8g2\u8g2\csrc/u8x8_d_ssd1320.c ****     U8X8_C(0xa6),		          /* normal display */
 683:..\..\..\u8g2\u8g2\csrc/u8x8_d_ssd1320.c **** 
 684:..\..\..\u8g2\u8g2\csrc/u8x8_d_ssd1320.c ****     U8X8_DLY(1),					/* delay 2ms */
 685:..\..\..\u8g2\u8g2\csrc/u8x8_d_ssd1320.c **** 
 686:..\..\..\u8g2\u8g2\csrc/u8x8_d_ssd1320.c ****     U8X8_END_TRANSFER(),             	/* disable chip */
 687:..\..\..\u8g2\u8g2\csrc/u8x8_d_ssd1320.c ****     U8X8_END()             			/* end of sequence */
 688:..\..\..\u8g2\u8g2\csrc/u8x8_d_ssd1320.c **** };
 689:..\..\..\u8g2\u8g2\csrc/u8x8_d_ssd1320.c **** 
 690:..\..\..\u8g2\u8g2\csrc/u8x8_d_ssd1320.c **** uint8_t u8x8_d_ssd1320_160x80(u8x8_t *u8x8, uint8_t msg, uint8_t arg_int, void *arg_ptr)
 691:..\..\..\u8g2\u8g2\csrc/u8x8_d_ssd1320.c **** {
 754              		.loc 1 691 0
 755              		.cfi_startproc
 756              		@ args = 0, pretend = 0, frame = 0
 757              		@ frame_needed = 0, uses_anonymous_args = 0
 758              	.LVL126:
 759 0000 70B5     		push	{r4, r5, r6, lr}
 760              		.cfi_def_cfa_offset 16
 761              		.cfi_offset 4, -16
 762              		.cfi_offset 5, -12
ARM GAS  C:\Users\jesse\AppData\Local\Temp\cci5cU36.s 			page 28


 763              		.cfi_offset 6, -8
 764              		.cfi_offset 14, -4
 765              		.loc 1 691 0
 766 0002 0446     		mov	r4, r0
 767 0004 0D46     		mov	r5, r1
 768 0006 1646     		mov	r6, r2
 692:..\..\..\u8g2\u8g2\csrc/u8x8_d_ssd1320.c ****   
 693:..\..\..\u8g2\u8g2\csrc/u8x8_d_ssd1320.c ****   if ( u8x8_d_ssd1320_common_2(u8x8, msg, arg_int, arg_ptr) != 0 )
 769              		.loc 1 693 0
 770 0008 FFF7FEFF 		bl	u8x8_d_ssd1320_common_2
 771              	.LVL127:
 772 000c 10BB     		cbnz	r0, .L79
 694:..\..\..\u8g2\u8g2\csrc/u8x8_d_ssd1320.c ****     return 1;
 695:..\..\..\u8g2\u8g2\csrc/u8x8_d_ssd1320.c **** 
 696:..\..\..\u8g2\u8g2\csrc/u8x8_d_ssd1320.c ****   switch(msg)
 773              		.loc 1 696 0
 774 000e 0A2D     		cmp	r5, #10
 775 0010 08D0     		beq	.L80
 776 0012 0D2D     		cmp	r5, #13
 777 0014 0ED0     		beq	.L81
 778 0016 092D     		cmp	r5, #9
 779 0018 1CD1     		bne	.L79
 697:..\..\..\u8g2\u8g2\csrc/u8x8_d_ssd1320.c ****   {
 698:..\..\..\u8g2\u8g2\csrc/u8x8_d_ssd1320.c ****     case U8X8_MSG_DISPLAY_SETUP_MEMORY:
 699:..\..\..\u8g2\u8g2\csrc/u8x8_d_ssd1320.c ****         u8x8_d_helper_display_setup_memory(u8x8, &u8x8_d_ssd1320_160x80_display_info);
 780              		.loc 1 699 0
 781 001a 0F49     		ldr	r1, .L85
 782 001c 2046     		mov	r0, r4
 783 001e FFF7FEFF 		bl	u8x8_d_helper_display_setup_memory
 784              	.LVL128:
 700:..\..\..\u8g2\u8g2\csrc/u8x8_d_ssd1320.c ****       break;
 785              		.loc 1 700 0
 786 0022 17E0     		b	.L79
 787              	.L80:
 701:..\..\..\u8g2\u8g2\csrc/u8x8_d_ssd1320.c **** 
 702:..\..\..\u8g2\u8g2\csrc/u8x8_d_ssd1320.c ****     case U8X8_MSG_DISPLAY_INIT:
 703:..\..\..\u8g2\u8g2\csrc/u8x8_d_ssd1320.c ****         u8x8_d_helper_display_init(u8x8);
 788              		.loc 1 703 0
 789 0024 2046     		mov	r0, r4
 790 0026 FFF7FEFF 		bl	u8x8_d_helper_display_init
 791              	.LVL129:
 704:..\..\..\u8g2\u8g2\csrc/u8x8_d_ssd1320.c ****         u8x8_cad_SendSequence(u8x8, u8x8_d_ssd1320_160x80_init_seq);
 792              		.loc 1 704 0
 793 002a 0C49     		ldr	r1, .L85+4
 794 002c 2046     		mov	r0, r4
 795 002e FFF7FEFF 		bl	u8x8_cad_SendSequence
 796              	.LVL130:
 705:..\..\..\u8g2\u8g2\csrc/u8x8_d_ssd1320.c ****       break;
 797              		.loc 1 705 0
 798 0032 0FE0     		b	.L79
 799              	.L81:
 706:..\..\..\u8g2\u8g2\csrc/u8x8_d_ssd1320.c **** 
 707:..\..\..\u8g2\u8g2\csrc/u8x8_d_ssd1320.c ****     case U8X8_MSG_DISPLAY_SET_FLIP_MODE:
 708:..\..\..\u8g2\u8g2\csrc/u8x8_d_ssd1320.c ****       if ( arg_int == 0 ){
 800              		.loc 1 708 0
 801 0034 36B9     		cbnz	r6, .L83
 709:..\..\..\u8g2\u8g2\csrc/u8x8_d_ssd1320.c ****         u8x8_cad_SendSequence(u8x8, u8x8_d_ssd1320_160x80_flip0_seq);
ARM GAS  C:\Users\jesse\AppData\Local\Temp\cci5cU36.s 			page 29


 802              		.loc 1 709 0
 803 0036 0A49     		ldr	r1, .L85+8
 804 0038 2046     		mov	r0, r4
 805 003a FFF7FEFF 		bl	u8x8_cad_SendSequence
 806              	.LVL131:
 710:..\..\..\u8g2\u8g2\csrc/u8x8_d_ssd1320.c ****         u8x8->x_offset = u8x8->display_info->default_x_offset;
 807              		.loc 1 710 0
 808 003e 2368     		ldr	r3, [r4]
 809 0040 9B7C     		ldrb	r3, [r3, #18]	@ zero_extendqisi2
 810 0042 05E0     		b	.L84
 811              	.L83:
 711:..\..\..\u8g2\u8g2\csrc/u8x8_d_ssd1320.c ****       }
 712:..\..\..\u8g2\u8g2\csrc/u8x8_d_ssd1320.c ****       else{
 713:..\..\..\u8g2\u8g2\csrc/u8x8_d_ssd1320.c ****         u8x8_cad_SendSequence(u8x8, u8x8_d_ssd1320_160x80_flip1_seq);
 812              		.loc 1 713 0
 813 0044 0749     		ldr	r1, .L85+12
 814 0046 2046     		mov	r0, r4
 815 0048 FFF7FEFF 		bl	u8x8_cad_SendSequence
 816              	.LVL132:
 714:..\..\..\u8g2\u8g2\csrc/u8x8_d_ssd1320.c ****         u8x8->x_offset = u8x8->display_info->flipmode_x_offset;
 817              		.loc 1 714 0
 818 004c 2368     		ldr	r3, [r4]
 819 004e DB7C     		ldrb	r3, [r3, #19]	@ zero_extendqisi2
 820              	.L84:
 821 0050 84F82230 		strb	r3, [r4, #34]
 822              	.L79:
 715:..\..\..\u8g2\u8g2\csrc/u8x8_d_ssd1320.c ****       }
 716:..\..\..\u8g2\u8g2\csrc/u8x8_d_ssd1320.c ****       break;
 717:..\..\..\u8g2\u8g2\csrc/u8x8_d_ssd1320.c ****     
 718:..\..\..\u8g2\u8g2\csrc/u8x8_d_ssd1320.c ****     default:
 719:..\..\..\u8g2\u8g2\csrc/u8x8_d_ssd1320.c ****       break;
 720:..\..\..\u8g2\u8g2\csrc/u8x8_d_ssd1320.c ****   }
 721:..\..\..\u8g2\u8g2\csrc/u8x8_d_ssd1320.c ****   return 1;
 722:..\..\..\u8g2\u8g2\csrc/u8x8_d_ssd1320.c **** }
 823              		.loc 1 722 0
 824 0054 0120     		movs	r0, #1
 825 0056 70BD     		pop	{r4, r5, r6, pc}
 826              	.LVL133:
 827              	.L86:
 828              		.align	2
 829              	.L85:
 830 0058 EC000000 		.word	.LANCHOR0+236
 831 005c 04010000 		.word	.LANCHOR0+260
 832 0060 41010000 		.word	.LANCHOR0+321
 833 0064 4C010000 		.word	.LANCHOR0+332
 834              		.cfi_endproc
 835              	.LFE6:
 836              		.size	u8x8_d_ssd1320_160x80, .-u8x8_d_ssd1320_160x80
 837              		.section	.rodata
 838              		.align	2
 839              		.set	.LANCHOR0,. + 0
 840              		.type	u8x8_d_ssd1320_cs1_160x132_nhd_powersave0_seq, %object
 841              		.size	u8x8_d_ssd1320_cs1_160x132_nhd_powersave0_seq, 5
 842              	u8x8_d_ssd1320_cs1_160x132_nhd_powersave0_seq:
 843 0000 18       		.byte	24
 844 0001 15       		.byte	21
 845 0002 AF       		.byte	-81
ARM GAS  C:\Users\jesse\AppData\Local\Temp\cci5cU36.s 			page 30


 846 0003 19       		.byte	25
 847 0004 FF       		.byte	-1
 848              		.type	u8x8_d_ssd1320_cs1_160x132_nhd_powersave1_seq, %object
 849              		.size	u8x8_d_ssd1320_cs1_160x132_nhd_powersave1_seq, 5
 850              	u8x8_d_ssd1320_cs1_160x132_nhd_powersave1_seq:
 851 0005 18       		.byte	24
 852 0006 15       		.byte	21
 853 0007 AE       		.byte	-82
 854 0008 19       		.byte	25
 855 0009 FF       		.byte	-1
 856 000a 0000     		.space	2
 857              		.type	u8x8_d_ssd1320_cs1_160x32_display_info, %object
 858              		.size	u8x8_d_ssd1320_cs1_160x32_display_info, 24
 859              	u8x8_d_ssd1320_cs1_160x32_display_info:
 860 000c 00       		.byte	0
 861 000d 01       		.byte	1
 862 000e 14       		.byte	20
 863 000f 0A       		.byte	10
 864 0010 64       		.byte	100
 865 0011 64       		.byte	100
 866 0012 32       		.byte	50
 867 0013 32       		.byte	50
 868 0014 80969800 		.word	10000000
 869 0018 00       		.byte	0
 870 0019 04       		.byte	4
 871 001a 0A       		.byte	10
 872 001b 96       		.byte	-106
 873 001c 14       		.byte	20
 874 001d 04       		.byte	4
 875 001e 00       		.byte	0
 876 001f 00       		.byte	0
 877 0020 A000     		.short	160
 878 0022 2000     		.short	32
 879              		.type	u8x8_d_ssd1320_cs1_160x32_init_seq, %object
 880              		.size	u8x8_d_ssd1320_cs1_160x32_init_seq, 67
 881              	u8x8_d_ssd1320_cs1_160x32_init_seq:
 882 0024 FE       		.byte	-2
 883 0025 01       		.byte	1
 884 0026 18       		.byte	24
 885 0027 FE       		.byte	-2
 886 0028 01       		.byte	1
 887 0029 15       		.byte	21
 888 002a AE       		.byte	-82
 889 002b 15       		.byte	21
 890 002c D5       		.byte	-43
 891 002d 16       		.byte	22
 892 002e C2       		.byte	-62
 893 002f 15       		.byte	21
 894 0030 A8       		.byte	-88
 895 0031 16       		.byte	22
 896 0032 1F       		.byte	31
 897 0033 15       		.byte	21
 898 0034 A2       		.byte	-94
 899 0035 16       		.byte	22
 900 0036 00       		.byte	0
 901 0037 15       		.byte	21
 902 0038 A0       		.byte	-96
ARM GAS  C:\Users\jesse\AppData\Local\Temp\cci5cU36.s 			page 31


 903 0039 15       		.byte	21
 904 003a C8       		.byte	-56
 905 003b 15       		.byte	21
 906 003c D3       		.byte	-45
 907 003d 16       		.byte	22
 908 003e 72       		.byte	114
 909 003f 15       		.byte	21
 910 0040 DA       		.byte	-38
 911 0041 16       		.byte	22
 912 0042 12       		.byte	18
 913 0043 15       		.byte	21
 914 0044 81       		.byte	-127
 915 0045 16       		.byte	22
 916 0046 5A       		.byte	90
 917 0047 15       		.byte	21
 918 0048 D9       		.byte	-39
 919 0049 16       		.byte	22
 920 004a 22       		.byte	34
 921 004b 15       		.byte	21
 922 004c DB       		.byte	-37
 923 004d 16       		.byte	22
 924 004e 30       		.byte	48
 925 004f 15       		.byte	21
 926 0050 AD       		.byte	-83
 927 0051 16       		.byte	22
 928 0052 10       		.byte	16
 929 0053 15       		.byte	21
 930 0054 20       		.byte	32
 931 0055 16       		.byte	22
 932 0056 00       		.byte	0
 933 0057 15       		.byte	21
 934 0058 8D       		.byte	-115
 935 0059 16       		.byte	22
 936 005a 01       		.byte	1
 937 005b 15       		.byte	21
 938 005c AC       		.byte	-84
 939 005d 16       		.byte	22
 940 005e 00       		.byte	0
 941 005f 15       		.byte	21
 942 0060 A4       		.byte	-92
 943 0061 15       		.byte	21
 944 0062 A6       		.byte	-90
 945 0063 FE       		.byte	-2
 946 0064 01       		.byte	1
 947 0065 19       		.byte	25
 948 0066 FF       		.byte	-1
 949              		.type	u8x8_d_ssd1320_cs1_160x32_nhd_flip0_seq, %object
 950              		.size	u8x8_d_ssd1320_cs1_160x32_nhd_flip0_seq, 5
 951              	u8x8_d_ssd1320_cs1_160x32_nhd_flip0_seq:
 952 0067 18       		.byte	24
 953 0068 15       		.byte	21
 954 0069 A0       		.byte	-96
 955 006a 19       		.byte	25
 956 006b FF       		.byte	-1
 957              		.type	u8x8_d_ssd1320_cs1_160x32_nhd_flip1_seq, %object
 958              		.size	u8x8_d_ssd1320_cs1_160x32_nhd_flip1_seq, 5
 959              	u8x8_d_ssd1320_cs1_160x32_nhd_flip1_seq:
ARM GAS  C:\Users\jesse\AppData\Local\Temp\cci5cU36.s 			page 32


 960 006c 18       		.byte	24
 961 006d 15       		.byte	21
 962 006e A1       		.byte	-95
 963 006f 19       		.byte	25
 964 0070 FF       		.byte	-1
 965 0071 000000   		.space	3
 966              		.type	u8x8_d_ssd1320_cs1_160x132_display_info, %object
 967              		.size	u8x8_d_ssd1320_cs1_160x132_display_info, 24
 968              	u8x8_d_ssd1320_cs1_160x132_display_info:
 969 0074 00       		.byte	0
 970 0075 01       		.byte	1
 971 0076 14       		.byte	20
 972 0077 0A       		.byte	10
 973 0078 64       		.byte	100
 974 0079 64       		.byte	100
 975 007a 32       		.byte	50
 976 007b 32       		.byte	50
 977 007c 80969800 		.word	10000000
 978 0080 00       		.byte	0
 979 0081 04       		.byte	4
 980 0082 0A       		.byte	10
 981 0083 96       		.byte	-106
 982 0084 14       		.byte	20
 983 0085 11       		.byte	17
 984 0086 00       		.byte	0
 985 0087 00       		.byte	0
 986 0088 A000     		.short	160
 987 008a 8400     		.short	132
 988              		.type	u8x8_d_ssd1320_160x132_init_seq, %object
 989              		.size	u8x8_d_ssd1320_160x132_init_seq, 73
 990              	u8x8_d_ssd1320_160x132_init_seq:
 991 008c FE       		.byte	-2
 992 008d 01       		.byte	1
 993 008e 18       		.byte	24
 994 008f FE       		.byte	-2
 995 0090 01       		.byte	1
 996 0091 15       		.byte	21
 997 0092 AE       		.byte	-82
 998 0093 15       		.byte	21
 999 0094 D5       		.byte	-43
 1000 0095 16       		.byte	22
 1001 0096 C2       		.byte	-62
 1002 0097 15       		.byte	21
 1003 0098 A8       		.byte	-88
 1004 0099 16       		.byte	22
 1005 009a 83       		.byte	-125
 1006 009b 15       		.byte	21
 1007 009c A2       		.byte	-94
 1008 009d 16       		.byte	22
 1009 009e 00       		.byte	0
 1010 009f 15       		.byte	21
 1011 00a0 A0       		.byte	-96
 1012 00a1 15       		.byte	21
 1013 00a2 C8       		.byte	-56
 1014 00a3 15       		.byte	21
 1015 00a4 AD       		.byte	-83
 1016 00a5 16       		.byte	22
ARM GAS  C:\Users\jesse\AppData\Local\Temp\cci5cU36.s 			page 33


 1017 00a6 10       		.byte	16
 1018 00a7 15       		.byte	21
 1019 00a8 BC       		.byte	-68
 1020 00a9 16       		.byte	22
 1021 00aa 1E       		.byte	30
 1022 00ab 15       		.byte	21
 1023 00ac BF       		.byte	-65
 1024 00ad 15       		.byte	21
 1025 00ae D5       		.byte	-43
 1026 00af 16       		.byte	22
 1027 00b0 C2       		.byte	-62
 1028 00b1 15       		.byte	21
 1029 00b2 D9       		.byte	-39
 1030 00b3 16       		.byte	22
 1031 00b4 72       		.byte	114
 1032 00b5 15       		.byte	21
 1033 00b6 BD       		.byte	-67
 1034 00b7 16       		.byte	22
 1035 00b8 03       		.byte	3
 1036 00b9 15       		.byte	21
 1037 00ba DB       		.byte	-37
 1038 00bb 16       		.byte	22
 1039 00bc 30       		.byte	48
 1040 00bd 15       		.byte	21
 1041 00be D3       		.byte	-45
 1042 00bf 16       		.byte	22
 1043 00c0 0E       		.byte	14
 1044 00c1 15       		.byte	21
 1045 00c2 DA       		.byte	-38
 1046 00c3 16       		.byte	22
 1047 00c4 12       		.byte	18
 1048 00c5 15       		.byte	21
 1049 00c6 81       		.byte	-127
 1050 00c7 16       		.byte	22
 1051 00c8 6B       		.byte	107
 1052 00c9 15       		.byte	21
 1053 00ca 20       		.byte	32
 1054 00cb 16       		.byte	22
 1055 00cc 00       		.byte	0
 1056 00cd 15       		.byte	21
 1057 00ce A4       		.byte	-92
 1058 00cf 15       		.byte	21
 1059 00d0 A6       		.byte	-90
 1060 00d1 FE       		.byte	-2
 1061 00d2 01       		.byte	1
 1062 00d3 19       		.byte	25
 1063 00d4 FF       		.byte	-1
 1064              		.type	u8x8_d_ssd1320_cs1_160x132_nhd_flip0_seq, %object
 1065              		.size	u8x8_d_ssd1320_cs1_160x132_nhd_flip0_seq, 11
 1066              	u8x8_d_ssd1320_cs1_160x132_nhd_flip0_seq:
 1067 00d5 18       		.byte	24
 1068 00d6 15       		.byte	21
 1069 00d7 A0       		.byte	-96
 1070 00d8 15       		.byte	21
 1071 00d9 C8       		.byte	-56
 1072 00da 15       		.byte	21
 1073 00db D3       		.byte	-45
ARM GAS  C:\Users\jesse\AppData\Local\Temp\cci5cU36.s 			page 34


 1074 00dc 16       		.byte	22
 1075 00dd 0E       		.byte	14
 1076 00de 19       		.byte	25
 1077 00df FF       		.byte	-1
 1078              		.type	u8x8_d_ssd1320_cs1_160x132_nhd_flip1_seq, %object
 1079              		.size	u8x8_d_ssd1320_cs1_160x132_nhd_flip1_seq, 11
 1080              	u8x8_d_ssd1320_cs1_160x132_nhd_flip1_seq:
 1081 00e0 18       		.byte	24
 1082 00e1 15       		.byte	21
 1083 00e2 A1       		.byte	-95
 1084 00e3 15       		.byte	21
 1085 00e4 C0       		.byte	-64
 1086 00e5 15       		.byte	21
 1087 00e6 D3       		.byte	-45
 1088 00e7 16       		.byte	22
 1089 00e8 92       		.byte	-110
 1090 00e9 19       		.byte	25
 1091 00ea FF       		.byte	-1
 1092 00eb 00       		.space	1
 1093              		.type	u8x8_d_ssd1320_160x80_display_info, %object
 1094              		.size	u8x8_d_ssd1320_160x80_display_info, 24
 1095              	u8x8_d_ssd1320_160x80_display_info:
 1096 00ec 00       		.byte	0
 1097 00ed 01       		.byte	1
 1098 00ee 14       		.byte	20
 1099 00ef 0A       		.byte	10
 1100 00f0 64       		.byte	100
 1101 00f1 64       		.byte	100
 1102 00f2 32       		.byte	50
 1103 00f3 32       		.byte	50
 1104 00f4 80969800 		.word	10000000
 1105 00f8 00       		.byte	0
 1106 00f9 04       		.byte	4
 1107 00fa 0A       		.byte	10
 1108 00fb 96       		.byte	-106
 1109 00fc 14       		.byte	20
 1110 00fd 0A       		.byte	10
 1111 00fe 00       		.byte	0
 1112 00ff 00       		.byte	0
 1113 0100 A000     		.short	160
 1114 0102 5000     		.short	80
 1115              		.type	u8x8_d_ssd1320_160x80_init_seq, %object
 1116              		.size	u8x8_d_ssd1320_160x80_init_seq, 61
 1117              	u8x8_d_ssd1320_160x80_init_seq:
 1118 0104 FE       		.byte	-2
 1119 0105 01       		.byte	1
 1120 0106 18       		.byte	24
 1121 0107 FE       		.byte	-2
 1122 0108 01       		.byte	1
 1123 0109 15       		.byte	21
 1124 010a AE       		.byte	-82
 1125 010b 15       		.byte	21
 1126 010c A8       		.byte	-88
 1127 010d 16       		.byte	22
 1128 010e 50       		.byte	80
 1129 010f 15       		.byte	21
 1130 0110 A2       		.byte	-94
ARM GAS  C:\Users\jesse\AppData\Local\Temp\cci5cU36.s 			page 35


 1131 0111 16       		.byte	22
 1132 0112 00       		.byte	0
 1133 0113 15       		.byte	21
 1134 0114 A0       		.byte	-96
 1135 0115 15       		.byte	21
 1136 0116 C8       		.byte	-56
 1137 0117 15       		.byte	21
 1138 0118 AD       		.byte	-83
 1139 0119 16       		.byte	22
 1140 011a 10       		.byte	16
 1141 011b 15       		.byte	21
 1142 011c BC       		.byte	-68
 1143 011d 16       		.byte	22
 1144 011e 1E       		.byte	30
 1145 011f 15       		.byte	21
 1146 0120 BF       		.byte	-65
 1147 0121 15       		.byte	21
 1148 0122 D5       		.byte	-43
 1149 0123 16       		.byte	22
 1150 0124 C2       		.byte	-62
 1151 0125 15       		.byte	21
 1152 0126 D9       		.byte	-39
 1153 0127 16       		.byte	22
 1154 0128 72       		.byte	114
 1155 0129 15       		.byte	21
 1156 012a D3       		.byte	-45
 1157 012b 16       		.byte	22
 1158 012c 27       		.byte	39
 1159 012d 15       		.byte	21
 1160 012e DA       		.byte	-38
 1161 012f 16       		.byte	22
 1162 0130 12       		.byte	18
 1163 0131 15       		.byte	21
 1164 0132 81       		.byte	-127
 1165 0133 16       		.byte	22
 1166 0134 70       		.byte	112
 1167 0135 15       		.byte	21
 1168 0136 20       		.byte	32
 1169 0137 16       		.byte	22
 1170 0138 00       		.byte	0
 1171 0139 15       		.byte	21
 1172 013a A4       		.byte	-92
 1173 013b 15       		.byte	21
 1174 013c A6       		.byte	-90
 1175 013d FE       		.byte	-2
 1176 013e 01       		.byte	1
 1177 013f 19       		.byte	25
 1178 0140 FF       		.byte	-1
 1179              		.type	u8x8_d_ssd1320_160x80_flip0_seq, %object
 1180              		.size	u8x8_d_ssd1320_160x80_flip0_seq, 11
 1181              	u8x8_d_ssd1320_160x80_flip0_seq:
 1182 0141 18       		.byte	24
 1183 0142 15       		.byte	21
 1184 0143 A0       		.byte	-96
 1185 0144 15       		.byte	21
 1186 0145 C8       		.byte	-56
 1187 0146 15       		.byte	21
ARM GAS  C:\Users\jesse\AppData\Local\Temp\cci5cU36.s 			page 36


 1188 0147 D3       		.byte	-45
 1189 0148 16       		.byte	22
 1190 0149 27       		.byte	39
 1191 014a 19       		.byte	25
 1192 014b FF       		.byte	-1
 1193              		.type	u8x8_d_ssd1320_160x80_flip1_seq, %object
 1194              		.size	u8x8_d_ssd1320_160x80_flip1_seq, 11
 1195              	u8x8_d_ssd1320_160x80_flip1_seq:
 1196 014c 18       		.byte	24
 1197 014d 15       		.byte	21
 1198 014e A1       		.byte	-95
 1199 014f 15       		.byte	21
 1200 0150 C0       		.byte	-64
 1201 0151 15       		.byte	21
 1202 0152 D3       		.byte	-45
 1203 0153 16       		.byte	22
 1204 0154 78       		.byte	120
 1205 0155 19       		.byte	25
 1206 0156 FF       		.byte	-1
 1207              		.bss
 1208              		.set	.LANCHOR1,. + 0
 1209              		.type	u8x8_ssd1320_to32_dest_buf, %object
 1210              		.size	u8x8_ssd1320_to32_dest_buf, 32
 1211              	u8x8_ssd1320_to32_dest_buf:
 1212 0000 00000000 		.space	32
 1212      00000000 
 1212      00000000 
 1212      00000000 
 1212      00000000 
 1213              		.text
 1214              	.Letext0:
 1215              		.file 2 "c:\\program files (x86)\\cypress\\psoc creator\\4.4\\psoc creator\\import\\gnu\\arm\\5.4.
 1216              		.file 3 "c:\\program files (x86)\\cypress\\psoc creator\\4.4\\psoc creator\\import\\gnu\\arm\\5.4.
 1217              		.file 4 "..\\..\\..\\u8g2\\u8g2\\csrc\\u8x8.h"