ARM GAS  C:\Users\jesse\AppData\Local\Temp\ccNu6j6T.s 			page 1


   1              		.syntax unified
   2              		.cpu cortex-m3
   3              		.fpu softvfp
   4              		.eabi_attribute 20, 1
   5              		.eabi_attribute 21, 1
   6              		.eabi_attribute 23, 3
   7              		.eabi_attribute 24, 1
   8              		.eabi_attribute 25, 1
   9              		.eabi_attribute 26, 1
  10              		.eabi_attribute 30, 4
  11              		.eabi_attribute 34, 1
  12              		.eabi_attribute 18, 4
  13              		.thumb
  14              		.syntax unified
  15              		.file	"u8x8_d_st7528.c"
  16              		.text
  17              	.Ltext0:
  18              		.cfi_sections	.debug_frame
  19              		.section	.text.u8x8_d_st7528_graylevel_init,"ax",%progbits
  20              		.align	1
  21              		.thumb
  22              		.thumb_func
  23              		.type	u8x8_d_st7528_graylevel_init, %function
  24              	u8x8_d_st7528_graylevel_init:
  25              	.LFB2:
  26              		.file 1 "..\\..\\..\\u8g2\\u8g2\\csrc\\u8x8_d_st7528.c"
   1:..\..\..\u8g2\u8g2\csrc/u8x8_d_st7528.c **** /*
   2:..\..\..\u8g2\u8g2\csrc/u8x8_d_st7528.c **** 
   3:..\..\..\u8g2\u8g2\csrc/u8x8_d_st7528.c ****   u8x8_d_st7528.c
   4:..\..\..\u8g2\u8g2\csrc/u8x8_d_st7528.c **** 
   5:..\..\..\u8g2\u8g2\csrc/u8x8_d_st7528.c ****   Universal 8bit Graphics Library (https://github.com/olikraus/u8g2/)
   6:..\..\..\u8g2\u8g2\csrc/u8x8_d_st7528.c **** 
   7:..\..\..\u8g2\u8g2\csrc/u8x8_d_st7528.c ****   Copyright (c) 2019, olikraus@gmail.com
   8:..\..\..\u8g2\u8g2\csrc/u8x8_d_st7528.c ****   All rights reserved.
   9:..\..\..\u8g2\u8g2\csrc/u8x8_d_st7528.c **** 
  10:..\..\..\u8g2\u8g2\csrc/u8x8_d_st7528.c ****   Redistribution and use in source and binary forms, with or without modification, 
  11:..\..\..\u8g2\u8g2\csrc/u8x8_d_st7528.c ****   are permitted provided that the following conditions are met:
  12:..\..\..\u8g2\u8g2\csrc/u8x8_d_st7528.c **** 
  13:..\..\..\u8g2\u8g2\csrc/u8x8_d_st7528.c ****   * Redistributions of source code must retain the above copyright notice, this list 
  14:..\..\..\u8g2\u8g2\csrc/u8x8_d_st7528.c ****     of conditions and the following disclaimer.
  15:..\..\..\u8g2\u8g2\csrc/u8x8_d_st7528.c ****     
  16:..\..\..\u8g2\u8g2\csrc/u8x8_d_st7528.c ****   * Redistributions in binary form must reproduce the above copyright notice, this 
  17:..\..\..\u8g2\u8g2\csrc/u8x8_d_st7528.c ****     list of conditions and the following disclaimer in the documentation and/or other 
  18:..\..\..\u8g2\u8g2\csrc/u8x8_d_st7528.c ****     materials provided with the distribution.
  19:..\..\..\u8g2\u8g2\csrc/u8x8_d_st7528.c **** 
  20:..\..\..\u8g2\u8g2\csrc/u8x8_d_st7528.c ****   THIS SOFTWARE IS PROVIDED BY THE COPYRIGHT HOLDERS AND 
  21:..\..\..\u8g2\u8g2\csrc/u8x8_d_st7528.c ****   CONTRIBUTORS "AS IS" AND ANY EXPRESS OR IMPLIED WARRANTIES, 
  22:..\..\..\u8g2\u8g2\csrc/u8x8_d_st7528.c ****   INCLUDING, BUT NOT LIMITED TO, THE IMPLIED WARRANTIES OF 
  23:..\..\..\u8g2\u8g2\csrc/u8x8_d_st7528.c ****   MERCHANTABILITY AND FITNESS FOR A PARTICULAR PURPOSE ARE 
  24:..\..\..\u8g2\u8g2\csrc/u8x8_d_st7528.c ****   DISCLAIMED. IN NO EVENT SHALL THE COPYRIGHT HOLDER OR 
  25:..\..\..\u8g2\u8g2\csrc/u8x8_d_st7528.c ****   CONTRIBUTORS BE LIABLE FOR ANY DIRECT, INDIRECT, INCIDENTAL, 
  26:..\..\..\u8g2\u8g2\csrc/u8x8_d_st7528.c ****   SPECIAL, EXEMPLARY, OR CONSEQUENTIAL DAMAGES (INCLUDING, BUT 
  27:..\..\..\u8g2\u8g2\csrc/u8x8_d_st7528.c ****   NOT LIMITED TO, PROCUREMENT OF SUBSTITUTE GOODS OR SERVICES; 
  28:..\..\..\u8g2\u8g2\csrc/u8x8_d_st7528.c ****   LOSS OF USE, DATA, OR PROFITS; OR BUSINESS INTERRUPTION) HOWEVER 
  29:..\..\..\u8g2\u8g2\csrc/u8x8_d_st7528.c ****   CAUSED AND ON ANY THEORY OF LIABILITY, WHETHER IN CONTRACT, 
  30:..\..\..\u8g2\u8g2\csrc/u8x8_d_st7528.c ****   STRICT LIABILITY, OR TORT (INCLUDING NEGLIGENCE OR OTHERWISE) 
  31:..\..\..\u8g2\u8g2\csrc/u8x8_d_st7528.c ****   ARISING IN ANY WAY OUT OF THE USE OF THIS SOFTWARE, EVEN IF 
ARM GAS  C:\Users\jesse\AppData\Local\Temp\ccNu6j6T.s 			page 2


  32:..\..\..\u8g2\u8g2\csrc/u8x8_d_st7528.c ****   ADVISED OF THE POSSIBILITY OF SUCH DAMAGE.  
  33:..\..\..\u8g2\u8g2\csrc/u8x8_d_st7528.c ****   
  34:..\..\..\u8g2\u8g2\csrc/u8x8_d_st7528.c ****   ST7528: 16 Graylevel Controller
  35:..\..\..\u8g2\u8g2\csrc/u8x8_d_st7528.c ****   https://github.com/olikraus/u8g2/issues/986
  36:..\..\..\u8g2\u8g2\csrc/u8x8_d_st7528.c ****   I2C Address: 0x03f (0x7e)
  37:..\..\..\u8g2\u8g2\csrc/u8x8_d_st7528.c ****   
  38:..\..\..\u8g2\u8g2\csrc/u8x8_d_st7528.c ****   
  39:..\..\..\u8g2\u8g2\csrc/u8x8_d_st7528.c ****   ERC16004
  40:..\..\..\u8g2\u8g2\csrc/u8x8_d_st7528.c ****   https://www.buydisplay.com/default/2-inch-lcd-160x64-graphic-module-serial-spi-display-st7528-bla
  41:..\..\..\u8g2\u8g2\csrc/u8x8_d_st7528.c ****   
  42:..\..\..\u8g2\u8g2\csrc/u8x8_d_st7528.c **** */
  43:..\..\..\u8g2\u8g2\csrc/u8x8_d_st7528.c **** 
  44:..\..\..\u8g2\u8g2\csrc/u8x8_d_st7528.c **** 
  45:..\..\..\u8g2\u8g2\csrc/u8x8_d_st7528.c **** #include "u8x8.h"
  46:..\..\..\u8g2\u8g2\csrc/u8x8_d_st7528.c **** 
  47:..\..\..\u8g2\u8g2\csrc/u8x8_d_st7528.c **** 
  48:..\..\..\u8g2\u8g2\csrc/u8x8_d_st7528.c **** static const uint8_t u8x8_d_st7528_powersave0_seq[] = {
  49:..\..\..\u8g2\u8g2\csrc/u8x8_d_st7528.c ****   U8X8_START_TRANSFER(),             	/* enable chip, delay is part of the transfer start */
  50:..\..\..\u8g2\u8g2\csrc/u8x8_d_st7528.c ****   U8X8_CA(0x038, 0x074),		/* ext mode 0*/
  51:..\..\..\u8g2\u8g2\csrc/u8x8_d_st7528.c ****   U8X8_C(0x0af),		                /* display on */
  52:..\..\..\u8g2\u8g2\csrc/u8x8_d_st7528.c ****   U8X8_END_TRANSFER(),             	/* disable chip */
  53:..\..\..\u8g2\u8g2\csrc/u8x8_d_st7528.c ****   U8X8_END()             			/* end of sequence */
  54:..\..\..\u8g2\u8g2\csrc/u8x8_d_st7528.c **** };
  55:..\..\..\u8g2\u8g2\csrc/u8x8_d_st7528.c **** 
  56:..\..\..\u8g2\u8g2\csrc/u8x8_d_st7528.c **** static const uint8_t u8x8_d_st7528_powersave1_seq[] = {
  57:..\..\..\u8g2\u8g2\csrc/u8x8_d_st7528.c ****   U8X8_START_TRANSFER(),             	/* enable chip, delay is part of the transfer start */
  58:..\..\..\u8g2\u8g2\csrc/u8x8_d_st7528.c ****   U8X8_CA(0x038, 0x074),		/* ext mode 0*/
  59:..\..\..\u8g2\u8g2\csrc/u8x8_d_st7528.c ****   U8X8_C(0x0ae),		                /* display off */
  60:..\..\..\u8g2\u8g2\csrc/u8x8_d_st7528.c ****   U8X8_END_TRANSFER(),             	/* disable chip */
  61:..\..\..\u8g2\u8g2\csrc/u8x8_d_st7528.c ****   U8X8_END()             			/* end of sequence */
  62:..\..\..\u8g2\u8g2\csrc/u8x8_d_st7528.c **** };
  63:..\..\..\u8g2\u8g2\csrc/u8x8_d_st7528.c **** 
  64:..\..\..\u8g2\u8g2\csrc/u8x8_d_st7528.c **** static const uint8_t u8x8_d_st7528_flip0_seq[] = {
  65:..\..\..\u8g2\u8g2\csrc/u8x8_d_st7528.c ****   U8X8_START_TRANSFER(),             	/* enable chip, delay is part of the transfer start */
  66:..\..\..\u8g2\u8g2\csrc/u8x8_d_st7528.c ****   U8X8_C(0x0a0),		                /* ADC */
  67:..\..\..\u8g2\u8g2\csrc/u8x8_d_st7528.c ****   U8X8_C(0x0c8),		                /* SHL */  
  68:..\..\..\u8g2\u8g2\csrc/u8x8_d_st7528.c ****   U8X8_END_TRANSFER(),             	/* disable chip */
  69:..\..\..\u8g2\u8g2\csrc/u8x8_d_st7528.c ****   U8X8_END()             			/* end of sequence */
  70:..\..\..\u8g2\u8g2\csrc/u8x8_d_st7528.c **** };
  71:..\..\..\u8g2\u8g2\csrc/u8x8_d_st7528.c **** 
  72:..\..\..\u8g2\u8g2\csrc/u8x8_d_st7528.c **** static const uint8_t u8x8_d_st7528_flip1_seq[] = {
  73:..\..\..\u8g2\u8g2\csrc/u8x8_d_st7528.c ****   U8X8_START_TRANSFER(),             	/* enable chip, delay is part of the transfer start */
  74:..\..\..\u8g2\u8g2\csrc/u8x8_d_st7528.c ****   U8X8_C(0x0a1),		                /* ADC */
  75:..\..\..\u8g2\u8g2\csrc/u8x8_d_st7528.c ****   U8X8_C(0x0c0),		                /* SHL */  
  76:..\..\..\u8g2\u8g2\csrc/u8x8_d_st7528.c ****   U8X8_END_TRANSFER(),             	/* disable chip */
  77:..\..\..\u8g2\u8g2\csrc/u8x8_d_st7528.c ****   U8X8_END()             			/* end of sequence */
  78:..\..\..\u8g2\u8g2\csrc/u8x8_d_st7528.c **** };
  79:..\..\..\u8g2\u8g2\csrc/u8x8_d_st7528.c **** 
  80:..\..\..\u8g2\u8g2\csrc/u8x8_d_st7528.c **** 
  81:..\..\..\u8g2\u8g2\csrc/u8x8_d_st7528.c **** /*
  82:..\..\..\u8g2\u8g2\csrc/u8x8_d_st7528.c ****   input:
  83:..\..\..\u8g2\u8g2\csrc/u8x8_d_st7528.c ****     one tile (8 Bytes)
  84:..\..\..\u8g2\u8g2\csrc/u8x8_d_st7528.c ****   output:
  85:..\..\..\u8g2\u8g2\csrc/u8x8_d_st7528.c ****     Tile for st7528 (32 Bytes)
  86:..\..\..\u8g2\u8g2\csrc/u8x8_d_st7528.c **** */
  87:..\..\..\u8g2\u8g2\csrc/u8x8_d_st7528.c **** 
  88:..\..\..\u8g2\u8g2\csrc/u8x8_d_st7528.c **** static uint8_t u8x8_st7528_8to32_dest_buf[32];
ARM GAS  C:\Users\jesse\AppData\Local\Temp\ccNu6j6T.s 			page 3


  89:..\..\..\u8g2\u8g2\csrc/u8x8_d_st7528.c **** 
  90:..\..\..\u8g2\u8g2\csrc/u8x8_d_st7528.c **** static uint8_t *u8x8_st7528_8to32(U8X8_UNUSED u8x8_t *u8x8, uint8_t *ptr)
  91:..\..\..\u8g2\u8g2\csrc/u8x8_d_st7528.c **** {
  92:..\..\..\u8g2\u8g2\csrc/u8x8_d_st7528.c ****   uint8_t j;
  93:..\..\..\u8g2\u8g2\csrc/u8x8_d_st7528.c ****   uint8_t *dest;
  94:..\..\..\u8g2\u8g2\csrc/u8x8_d_st7528.c ****   
  95:..\..\..\u8g2\u8g2\csrc/u8x8_d_st7528.c ****   dest = u8x8_st7528_8to32_dest_buf;
  96:..\..\..\u8g2\u8g2\csrc/u8x8_d_st7528.c ****   for( j = 0; j < 8; j++ )
  97:..\..\..\u8g2\u8g2\csrc/u8x8_d_st7528.c ****   {
  98:..\..\..\u8g2\u8g2\csrc/u8x8_d_st7528.c ****     *dest++ =*ptr;
  99:..\..\..\u8g2\u8g2\csrc/u8x8_d_st7528.c ****     *dest++ =*ptr;
 100:..\..\..\u8g2\u8g2\csrc/u8x8_d_st7528.c ****     *dest++ =*ptr;
 101:..\..\..\u8g2\u8g2\csrc/u8x8_d_st7528.c ****     *dest++ =*ptr;
 102:..\..\..\u8g2\u8g2\csrc/u8x8_d_st7528.c ****     ptr++;
 103:..\..\..\u8g2\u8g2\csrc/u8x8_d_st7528.c ****   }
 104:..\..\..\u8g2\u8g2\csrc/u8x8_d_st7528.c ****   return u8x8_st7528_8to32_dest_buf;
 105:..\..\..\u8g2\u8g2\csrc/u8x8_d_st7528.c **** }
 106:..\..\..\u8g2\u8g2\csrc/u8x8_d_st7528.c **** 
 107:..\..\..\u8g2\u8g2\csrc/u8x8_d_st7528.c **** 
 108:..\..\..\u8g2\u8g2\csrc/u8x8_d_st7528.c **** 
 109:..\..\..\u8g2\u8g2\csrc/u8x8_d_st7528.c **** static uint8_t u8x8_d_st7528_generic(u8x8_t *u8x8, uint8_t msg, uint8_t arg_int, void *arg_ptr)
 110:..\..\..\u8g2\u8g2\csrc/u8x8_d_st7528.c **** {
 111:..\..\..\u8g2\u8g2\csrc/u8x8_d_st7528.c ****   uint8_t x;
 112:..\..\..\u8g2\u8g2\csrc/u8x8_d_st7528.c ****   uint8_t y, c;
 113:..\..\..\u8g2\u8g2\csrc/u8x8_d_st7528.c ****   uint8_t *ptr;
 114:..\..\..\u8g2\u8g2\csrc/u8x8_d_st7528.c ****   switch(msg)
 115:..\..\..\u8g2\u8g2\csrc/u8x8_d_st7528.c ****   {
 116:..\..\..\u8g2\u8g2\csrc/u8x8_d_st7528.c ****     /* handled by the calling function
 117:..\..\..\u8g2\u8g2\csrc/u8x8_d_st7528.c ****     case U8X8_MSG_DISPLAY_SETUP_MEMORY:
 118:..\..\..\u8g2\u8g2\csrc/u8x8_d_st7528.c ****       u8x8_d_helper_display_setup_memory(u8x8, &u8x8_st7528_display_info);
 119:..\..\..\u8g2\u8g2\csrc/u8x8_d_st7528.c ****       break;
 120:..\..\..\u8g2\u8g2\csrc/u8x8_d_st7528.c ****     case U8X8_MSG_DISPLAY_INIT:
 121:..\..\..\u8g2\u8g2\csrc/u8x8_d_st7528.c ****       u8x8_d_helper_display_init(u8x8);
 122:..\..\..\u8g2\u8g2\csrc/u8x8_d_st7528.c ****       u8x8_cad_SendSequence(u8x8, u8x8_d_st7528_nhd_c160100_init_seq);    
 123:..\..\..\u8g2\u8g2\csrc/u8x8_d_st7528.c ****     */
 124:..\..\..\u8g2\u8g2\csrc/u8x8_d_st7528.c ****       break;
 125:..\..\..\u8g2\u8g2\csrc/u8x8_d_st7528.c ****     case U8X8_MSG_DISPLAY_SET_POWER_SAVE:
 126:..\..\..\u8g2\u8g2\csrc/u8x8_d_st7528.c ****       if ( arg_int == 0 )
 127:..\..\..\u8g2\u8g2\csrc/u8x8_d_st7528.c **** 	u8x8_cad_SendSequence(u8x8, u8x8_d_st7528_powersave0_seq);
 128:..\..\..\u8g2\u8g2\csrc/u8x8_d_st7528.c ****       else
 129:..\..\..\u8g2\u8g2\csrc/u8x8_d_st7528.c **** 	u8x8_cad_SendSequence(u8x8, u8x8_d_st7528_powersave1_seq);
 130:..\..\..\u8g2\u8g2\csrc/u8x8_d_st7528.c ****       break;
 131:..\..\..\u8g2\u8g2\csrc/u8x8_d_st7528.c ****     case U8X8_MSG_DISPLAY_SET_FLIP_MODE:
 132:..\..\..\u8g2\u8g2\csrc/u8x8_d_st7528.c ****       if ( arg_int == 0 )
 133:..\..\..\u8g2\u8g2\csrc/u8x8_d_st7528.c ****       {
 134:..\..\..\u8g2\u8g2\csrc/u8x8_d_st7528.c **** 	u8x8_cad_SendSequence(u8x8, u8x8_d_st7528_flip0_seq);
 135:..\..\..\u8g2\u8g2\csrc/u8x8_d_st7528.c **** 	u8x8->x_offset = u8x8->display_info->default_x_offset;
 136:..\..\..\u8g2\u8g2\csrc/u8x8_d_st7528.c ****       }
 137:..\..\..\u8g2\u8g2\csrc/u8x8_d_st7528.c ****       else
 138:..\..\..\u8g2\u8g2\csrc/u8x8_d_st7528.c ****       {
 139:..\..\..\u8g2\u8g2\csrc/u8x8_d_st7528.c **** 	u8x8_cad_SendSequence(u8x8, u8x8_d_st7528_flip1_seq);
 140:..\..\..\u8g2\u8g2\csrc/u8x8_d_st7528.c **** 	u8x8->x_offset = u8x8->display_info->flipmode_x_offset;
 141:..\..\..\u8g2\u8g2\csrc/u8x8_d_st7528.c ****       }
 142:..\..\..\u8g2\u8g2\csrc/u8x8_d_st7528.c ****       break;
 143:..\..\..\u8g2\u8g2\csrc/u8x8_d_st7528.c **** #ifdef U8X8_WITH_SET_CONTRAST
 144:..\..\..\u8g2\u8g2\csrc/u8x8_d_st7528.c ****     case U8X8_MSG_DISPLAY_SET_CONTRAST:
 145:..\..\..\u8g2\u8g2\csrc/u8x8_d_st7528.c ****       u8x8_cad_StartTransfer(u8x8);
ARM GAS  C:\Users\jesse\AppData\Local\Temp\ccNu6j6T.s 			page 4


 146:..\..\..\u8g2\u8g2\csrc/u8x8_d_st7528.c ****       u8x8_cad_SendCmd(u8x8, 0x081 );
 147:..\..\..\u8g2\u8g2\csrc/u8x8_d_st7528.c ****       u8x8_cad_SendArg(u8x8, arg_int );	/* ssd1326 has range from 0 to 255 */
 148:..\..\..\u8g2\u8g2\csrc/u8x8_d_st7528.c ****       u8x8_cad_EndTransfer(u8x8);
 149:..\..\..\u8g2\u8g2\csrc/u8x8_d_st7528.c ****       break;
 150:..\..\..\u8g2\u8g2\csrc/u8x8_d_st7528.c **** #endif
 151:..\..\..\u8g2\u8g2\csrc/u8x8_d_st7528.c ****     case U8X8_MSG_DISPLAY_DRAW_TILE:
 152:..\..\..\u8g2\u8g2\csrc/u8x8_d_st7528.c ****       u8x8_cad_StartTransfer(u8x8);
 153:..\..\..\u8g2\u8g2\csrc/u8x8_d_st7528.c ****       x = ((u8x8_tile_t *)arg_ptr)->x_pos;
 154:..\..\..\u8g2\u8g2\csrc/u8x8_d_st7528.c ****       x *= 8;  // not clear
 155:..\..\..\u8g2\u8g2\csrc/u8x8_d_st7528.c ****       
 156:..\..\..\u8g2\u8g2\csrc/u8x8_d_st7528.c ****       y = (((u8x8_tile_t *)arg_ptr)->y_pos);
 157:..\..\..\u8g2\u8g2\csrc/u8x8_d_st7528.c ****       
 158:..\..\..\u8g2\u8g2\csrc/u8x8_d_st7528.c ****     
 159:..\..\..\u8g2\u8g2\csrc/u8x8_d_st7528.c ****       
 160:..\..\..\u8g2\u8g2\csrc/u8x8_d_st7528.c ****       do
 161:..\..\..\u8g2\u8g2\csrc/u8x8_d_st7528.c ****       {
 162:..\..\..\u8g2\u8g2\csrc/u8x8_d_st7528.c **** 	c = ((u8x8_tile_t *)arg_ptr)->cnt;
 163:..\..\..\u8g2\u8g2\csrc/u8x8_d_st7528.c **** 	ptr = ((u8x8_tile_t *)arg_ptr)->tile_ptr;
 164:..\..\..\u8g2\u8g2\csrc/u8x8_d_st7528.c **** 
 165:..\..\..\u8g2\u8g2\csrc/u8x8_d_st7528.c **** 	do
 166:..\..\..\u8g2\u8g2\csrc/u8x8_d_st7528.c **** 	{
 167:..\..\..\u8g2\u8g2\csrc/u8x8_d_st7528.c ****           u8x8_cad_SendCmd(u8x8, 0xb0 | y );	/* set page address */
 168:..\..\..\u8g2\u8g2\csrc/u8x8_d_st7528.c ****           u8x8_cad_SendCmd(u8x8, 0x10| (x>>4) );	/* set col msb*/
 169:..\..\..\u8g2\u8g2\csrc/u8x8_d_st7528.c ****           u8x8_cad_SendCmd(u8x8, 0x00| (x&15) );	/* set col lsb*/
 170:..\..\..\u8g2\u8g2\csrc/u8x8_d_st7528.c ****           
 171:..\..\..\u8g2\u8g2\csrc/u8x8_d_st7528.c ****           u8x8_cad_SendData(u8x8, 32, u8x8_st7528_8to32(u8x8, ptr));
 172:..\..\..\u8g2\u8g2\csrc/u8x8_d_st7528.c ****           
 173:..\..\..\u8g2\u8g2\csrc/u8x8_d_st7528.c **** 	  ptr += 8;
 174:..\..\..\u8g2\u8g2\csrc/u8x8_d_st7528.c **** 	  x += 8;
 175:..\..\..\u8g2\u8g2\csrc/u8x8_d_st7528.c **** 	  c--;
 176:..\..\..\u8g2\u8g2\csrc/u8x8_d_st7528.c **** 	} while( c > 0 );	
 177:..\..\..\u8g2\u8g2\csrc/u8x8_d_st7528.c **** 	arg_int--;
 178:..\..\..\u8g2\u8g2\csrc/u8x8_d_st7528.c ****       } while( arg_int > 0 );
 179:..\..\..\u8g2\u8g2\csrc/u8x8_d_st7528.c ****       
 180:..\..\..\u8g2\u8g2\csrc/u8x8_d_st7528.c ****       u8x8_cad_EndTransfer(u8x8);
 181:..\..\..\u8g2\u8g2\csrc/u8x8_d_st7528.c ****       break;
 182:..\..\..\u8g2\u8g2\csrc/u8x8_d_st7528.c ****     default:
 183:..\..\..\u8g2\u8g2\csrc/u8x8_d_st7528.c ****       return 0;
 184:..\..\..\u8g2\u8g2\csrc/u8x8_d_st7528.c ****   }
 185:..\..\..\u8g2\u8g2\csrc/u8x8_d_st7528.c ****   return 1;
 186:..\..\..\u8g2\u8g2\csrc/u8x8_d_st7528.c **** }
 187:..\..\..\u8g2\u8g2\csrc/u8x8_d_st7528.c **** 
 188:..\..\..\u8g2\u8g2\csrc/u8x8_d_st7528.c **** 
 189:..\..\..\u8g2\u8g2\csrc/u8x8_d_st7528.c **** static void u8x8_d_st7528_graylevel_init(u8x8_t *u8x8, uint8_t mode0)
 190:..\..\..\u8g2\u8g2\csrc/u8x8_d_st7528.c **** {
  27              		.loc 1 190 0
  28              		.cfi_startproc
  29              		@ args = 0, pretend = 0, frame = 0
  30              		@ frame_needed = 0, uses_anonymous_args = 0
  31              	.LVL0:
  32 0000 F8B5     		push	{r3, r4, r5, r6, r7, lr}
  33              		.cfi_def_cfa_offset 24
  34              		.cfi_offset 3, -24
  35              		.cfi_offset 4, -20
  36              		.cfi_offset 5, -16
  37              		.cfi_offset 6, -12
  38              		.cfi_offset 7, -8
ARM GAS  C:\Users\jesse\AppData\Local\Temp\ccNu6j6T.s 			page 5


  39              		.cfi_offset 14, -4
  40              		.loc 1 190 0
  41 0002 0446     		mov	r4, r0
  42 0004 0E46     		mov	r6, r1
 191:..\..\..\u8g2\u8g2\csrc/u8x8_d_st7528.c ****   uint8_t i;
 192:..\..\..\u8g2\u8g2\csrc/u8x8_d_st7528.c ****   
 193:..\..\..\u8g2\u8g2\csrc/u8x8_d_st7528.c ****   u8x8_cad_StartTransfer(u8x8);
  43              		.loc 1 193 0
  44 0006 FFF7FEFF 		bl	u8x8_cad_StartTransfer
  45              	.LVL1:
 194:..\..\..\u8g2\u8g2\csrc/u8x8_d_st7528.c ****   u8x8_cad_SendCmd(u8x8, 0x38 );
  46              		.loc 1 194 0
  47 000a 3821     		movs	r1, #56
  48 000c 2046     		mov	r0, r4
  49 000e FFF7FEFF 		bl	u8x8_cad_SendCmd
  50              	.LVL2:
 195:..\..\..\u8g2\u8g2\csrc/u8x8_d_st7528.c ****   u8x8_cad_SendArg(u8x8, mode0+1 );
  51              		.loc 1 195 0
  52 0012 711C     		adds	r1, r6, #1
  53 0014 C9B2     		uxtb	r1, r1
  54 0016 2046     		mov	r0, r4
  55 0018 FFF7FEFF 		bl	u8x8_cad_SendArg
  56              	.LVL3:
  57 001c 0025     		movs	r5, #0
  58              	.LVL4:
  59              	.L2:
  60 001e EFB2     		uxtb	r7, r5
  61              	.LVL5:
 196:..\..\..\u8g2\u8g2\csrc/u8x8_d_st7528.c ****   for( i = 0; i < 64; i++ )
 197:..\..\..\u8g2\u8g2\csrc/u8x8_d_st7528.c ****   {
 198:..\..\..\u8g2\u8g2\csrc/u8x8_d_st7528.c ****           u8x8_cad_SendCmd(u8x8, i+0x080 );
  62              		.loc 1 198 0 discriminator 3
  63 0020 87F08001 		eor	r1, r7, #128
  64 0024 2046     		mov	r0, r4
  65 0026 FFF7FEFF 		bl	u8x8_cad_SendCmd
  66              	.LVL6:
  67 002a 0135     		adds	r5, r5, #1
 199:..\..\..\u8g2\u8g2\csrc/u8x8_d_st7528.c ****           u8x8_cad_SendArg(u8x8, i & 0xfc);
  68              		.loc 1 199 0 discriminator 3
  69 002c 07F0FC01 		and	r1, r7, #252
  70 0030 2046     		mov	r0, r4
  71 0032 FFF7FEFF 		bl	u8x8_cad_SendArg
  72              	.LVL7:
 196:..\..\..\u8g2\u8g2\csrc/u8x8_d_st7528.c ****   for( i = 0; i < 64; i++ )
  73              		.loc 1 196 0 discriminator 3
  74 0036 402D     		cmp	r5, #64
  75 0038 F1D1     		bne	.L2
 200:..\..\..\u8g2\u8g2\csrc/u8x8_d_st7528.c ****   }
 201:..\..\..\u8g2\u8g2\csrc/u8x8_d_st7528.c ****   u8x8_cad_SendCmd(u8x8, 0x38 );
  76              		.loc 1 201 0
  77 003a 3821     		movs	r1, #56
  78 003c 2046     		mov	r0, r4
  79 003e FFF7FEFF 		bl	u8x8_cad_SendCmd
  80              	.LVL8:
 202:..\..\..\u8g2\u8g2\csrc/u8x8_d_st7528.c ****   u8x8_cad_SendArg(u8x8, mode0 );
  81              		.loc 1 202 0
  82 0042 3146     		mov	r1, r6
ARM GAS  C:\Users\jesse\AppData\Local\Temp\ccNu6j6T.s 			page 6


  83 0044 2046     		mov	r0, r4
  84 0046 FFF7FEFF 		bl	u8x8_cad_SendArg
  85              	.LVL9:
 203:..\..\..\u8g2\u8g2\csrc/u8x8_d_st7528.c ****   u8x8_cad_EndTransfer(u8x8);
  86              		.loc 1 203 0
  87 004a 2046     		mov	r0, r4
 204:..\..\..\u8g2\u8g2\csrc/u8x8_d_st7528.c **** }
  88              		.loc 1 204 0
  89 004c BDE8F840 		pop	{r3, r4, r5, r6, r7, lr}
  90              		.cfi_restore 14
  91              		.cfi_restore 7
  92              		.cfi_restore 6
  93              		.cfi_restore 5
  94              		.cfi_restore 4
  95              		.cfi_restore 3
  96              		.cfi_def_cfa_offset 0
  97              	.LVL10:
 203:..\..\..\u8g2\u8g2\csrc/u8x8_d_st7528.c ****   u8x8_cad_EndTransfer(u8x8);
  98              		.loc 1 203 0
  99 0050 FFF7FEBF 		b	u8x8_cad_EndTransfer
 100              	.LVL11:
 101              		.cfi_endproc
 102              	.LFE2:
 103              		.size	u8x8_d_st7528_graylevel_init, .-u8x8_d_st7528_graylevel_init
 104              		.section	.text.u8x8_d_st7528_generic,"ax",%progbits
 105              		.align	1
 106              		.thumb
 107              		.thumb_func
 108              		.type	u8x8_d_st7528_generic, %function
 109              	u8x8_d_st7528_generic:
 110              	.LFB1:
 110:..\..\..\u8g2\u8g2\csrc/u8x8_d_st7528.c ****   uint8_t x;
 111              		.loc 1 110 0
 112              		.cfi_startproc
 113              		@ args = 0, pretend = 0, frame = 8
 114              		@ frame_needed = 0, uses_anonymous_args = 0
 115              	.LVL12:
 116 0000 2DE9F74F 		push	{r0, r1, r2, r4, r5, r6, r7, r8, r9, r10, fp, lr}
 117              		.cfi_def_cfa_offset 48
 118              		.cfi_offset 4, -36
 119              		.cfi_offset 5, -32
 120              		.cfi_offset 6, -28
 121              		.cfi_offset 7, -24
 122              		.cfi_offset 8, -20
 123              		.cfi_offset 9, -16
 124              		.cfi_offset 10, -12
 125              		.cfi_offset 11, -8
 126              		.cfi_offset 14, -4
 114:..\..\..\u8g2\u8g2\csrc/u8x8_d_st7528.c ****   {
 127              		.loc 1 114 0
 128 0004 0B39     		subs	r1, r1, #11
 129              	.LVL13:
 110:..\..\..\u8g2\u8g2\csrc/u8x8_d_st7528.c ****   uint8_t x;
 130              		.loc 1 110 0
 131 0006 0446     		mov	r4, r0
 132 0008 1646     		mov	r6, r2
 133 000a 9946     		mov	r9, r3
ARM GAS  C:\Users\jesse\AppData\Local\Temp\ccNu6j6T.s 			page 7


 114:..\..\..\u8g2\u8g2\csrc/u8x8_d_st7528.c ****   {
 134              		.loc 1 114 0
 135 000c 0429     		cmp	r1, #4
 136 000e 78D8     		bhi	.L17
 137 0010 DFE801F0 		tbb	[pc, r1]
 138              	.LVL14:
 139              	.L8:
 140 0014 03       		.byte	(.L7-.L8)/2
 141 0015 77       		.byte	(.L17-.L8)/2
 142 0016 0B       		.byte	(.L9-.L8)/2
 143 0017 1B       		.byte	(.L10-.L8)/2
 144 0018 26       		.byte	(.L11-.L8)/2
 145 0019 00       		.p2align 1
 146              	.L7:
 126:..\..\..\u8g2\u8g2\csrc/u8x8_d_st7528.c **** 	u8x8_cad_SendSequence(u8x8, u8x8_d_st7528_powersave0_seq);
 147              		.loc 1 126 0
 148 001a 0AB9     		cbnz	r2, .L12
 127:..\..\..\u8g2\u8g2\csrc/u8x8_d_st7528.c ****       else
 149              		.loc 1 127 0
 150 001c 3B49     		ldr	r1, .L25
 151 001e 00E0     		b	.L23
 152              	.L12:
 129:..\..\..\u8g2\u8g2\csrc/u8x8_d_st7528.c ****       break;
 153              		.loc 1 129 0
 154 0020 3B49     		ldr	r1, .L25+4
 155              	.L23:
 156 0022 2046     		mov	r0, r4
 157              	.LVL15:
 158 0024 FFF7FEFF 		bl	u8x8_cad_SendSequence
 159              	.LVL16:
 160 0028 07E0     		b	.L21
 161              	.LVL17:
 162              	.L9:
 132:..\..\..\u8g2\u8g2\csrc/u8x8_d_st7528.c ****       {
 163              		.loc 1 132 0
 164 002a 42B9     		cbnz	r2, .L13
 134:..\..\..\u8g2\u8g2\csrc/u8x8_d_st7528.c **** 	u8x8->x_offset = u8x8->display_info->default_x_offset;
 165              		.loc 1 134 0
 166 002c 3949     		ldr	r1, .L25+8
 167 002e FFF7FEFF 		bl	u8x8_cad_SendSequence
 168              	.LVL18:
 135:..\..\..\u8g2\u8g2\csrc/u8x8_d_st7528.c ****       }
 169              		.loc 1 135 0
 170 0032 2368     		ldr	r3, [r4]
 171 0034 9B7C     		ldrb	r3, [r3, #18]	@ zero_extendqisi2
 172              	.L22:
 173 0036 84F82230 		strb	r3, [r4, #34]
 174              	.LVL19:
 175              	.L21:
 185:..\..\..\u8g2\u8g2\csrc/u8x8_d_st7528.c **** }
 176              		.loc 1 185 0
 177 003a 0120     		movs	r0, #1
 178 003c 62E0     		b	.L6
 179              	.LVL20:
 180              	.L13:
 139:..\..\..\u8g2\u8g2\csrc/u8x8_d_st7528.c **** 	u8x8->x_offset = u8x8->display_info->flipmode_x_offset;
 181              		.loc 1 139 0
ARM GAS  C:\Users\jesse\AppData\Local\Temp\ccNu6j6T.s 			page 8


 182 003e 3649     		ldr	r1, .L25+12
 183 0040 FFF7FEFF 		bl	u8x8_cad_SendSequence
 184              	.LVL21:
 140:..\..\..\u8g2\u8g2\csrc/u8x8_d_st7528.c ****       }
 185              		.loc 1 140 0
 186 0044 2368     		ldr	r3, [r4]
 187 0046 DB7C     		ldrb	r3, [r3, #19]	@ zero_extendqisi2
 188 0048 F5E7     		b	.L22
 189              	.LVL22:
 190              	.L10:
 145:..\..\..\u8g2\u8g2\csrc/u8x8_d_st7528.c ****       u8x8_cad_SendCmd(u8x8, 0x081 );
 191              		.loc 1 145 0
 192 004a FFF7FEFF 		bl	u8x8_cad_StartTransfer
 193              	.LVL23:
 146:..\..\..\u8g2\u8g2\csrc/u8x8_d_st7528.c ****       u8x8_cad_SendArg(u8x8, arg_int );	/* ssd1326 has range from 0 to 255 */
 194              		.loc 1 146 0
 195 004e 8121     		movs	r1, #129
 196 0050 2046     		mov	r0, r4
 197 0052 FFF7FEFF 		bl	u8x8_cad_SendCmd
 198              	.LVL24:
 147:..\..\..\u8g2\u8g2\csrc/u8x8_d_st7528.c ****       u8x8_cad_EndTransfer(u8x8);
 199              		.loc 1 147 0
 200 0056 3146     		mov	r1, r6
 201 0058 2046     		mov	r0, r4
 202 005a FFF7FEFF 		bl	u8x8_cad_SendArg
 203              	.LVL25:
 204 005e 4CE0     		b	.L24
 205              	.LVL26:
 206              	.L11:
 152:..\..\..\u8g2\u8g2\csrc/u8x8_d_st7528.c ****       x = ((u8x8_tile_t *)arg_ptr)->x_pos;
 207              		.loc 1 152 0
 208 0060 FFF7FEFF 		bl	u8x8_cad_StartTransfer
 209              	.LVL27:
 153:..\..\..\u8g2\u8g2\csrc/u8x8_d_st7528.c ****       x *= 8;  // not clear
 210              		.loc 1 153 0
 211 0064 99F80530 		ldrb	r3, [r9, #5]	@ zero_extendqisi2
 212              	.LVL28:
 156:..\..\..\u8g2\u8g2\csrc/u8x8_d_st7528.c ****       
 213              		.loc 1 156 0
 214 0068 99F80620 		ldrb	r2, [r9, #6]	@ zero_extendqisi2
 154:..\..\..\u8g2\u8g2\csrc/u8x8_d_st7528.c ****       
 215              		.loc 1 154 0
 216 006c DB00     		lsls	r3, r3, #3
 217              	.LVL29:
 218 006e 5FFA83FB 		uxtb	fp, r3
 219              	.LVL30:
 167:..\..\..\u8g2\u8g2\csrc/u8x8_d_st7528.c ****           u8x8_cad_SendCmd(u8x8, 0x10| (x>>4) );	/* set col msb*/
 220              		.loc 1 167 0
 221 0072 42F0B003 		orr	r3, r2, #176
 222 0076 0193     		str	r3, [sp, #4]
 223              	.LVL31:
 224              	.L16:
 162:..\..\..\u8g2\u8g2\csrc/u8x8_d_st7528.c **** 	ptr = ((u8x8_tile_t *)arg_ptr)->tile_ptr;
 225              		.loc 1 162 0
 226 0078 99F80480 		ldrb	r8, [r9, #4]	@ zero_extendqisi2
 227              	.LVL32:
 163:..\..\..\u8g2\u8g2\csrc/u8x8_d_st7528.c **** 
ARM GAS  C:\Users\jesse\AppData\Local\Temp\ccNu6j6T.s 			page 9


 228              		.loc 1 163 0
 229 007c D9F80050 		ldr	r5, [r9]
 230              	.LVL33:
 162:..\..\..\u8g2\u8g2\csrc/u8x8_d_st7528.c **** 	ptr = ((u8x8_tile_t *)arg_ptr)->tile_ptr;
 231              		.loc 1 162 0
 232 0080 4746     		mov	r7, r8
 233 0082 C5EB0B03 		rsb	r3, r5, fp
 234 0086 0093     		str	r3, [sp]
 235              	.LVL34:
 236              	.L15:
 237 0088 009B     		ldr	r3, [sp]
 167:..\..\..\u8g2\u8g2\csrc/u8x8_d_st7528.c ****           u8x8_cad_SendCmd(u8x8, 0x10| (x>>4) );	/* set col msb*/
 238              		.loc 1 167 0 discriminator 1
 239 008a 0199     		ldr	r1, [sp, #4]
 240 008c 05EB030A 		add	r10, r5, r3
 241 0090 5FFA8AFA 		uxtb	r10, r10
 242              	.LVL35:
 243 0094 2046     		mov	r0, r4
 244 0096 FFF7FEFF 		bl	u8x8_cad_SendCmd
 245              	.LVL36:
 168:..\..\..\u8g2\u8g2\csrc/u8x8_d_st7528.c ****           u8x8_cad_SendCmd(u8x8, 0x00| (x&15) );	/* set col lsb*/
 246              		.loc 1 168 0 discriminator 1
 247 009a 4FEA1A11 		lsr	r1, r10, #4
 248 009e 41F01001 		orr	r1, r1, #16
 249 00a2 2046     		mov	r0, r4
 250 00a4 FFF7FEFF 		bl	u8x8_cad_SendCmd
 251              	.LVL37:
 169:..\..\..\u8g2\u8g2\csrc/u8x8_d_st7528.c ****           
 252              		.loc 1 169 0 discriminator 1
 253 00a8 0AF00F01 		and	r1, r10, #15
 254 00ac 2046     		mov	r0, r4
 255 00ae FFF7FEFF 		bl	u8x8_cad_SendCmd
 256              	.LVL38:
 257 00b2 1A4A     		ldr	r2, .L25+16
 258 00b4 05F10801 		add	r1, r5, #8
 259              	.LVL39:
 260              	.L14:
 261              	.LBB4:
 262              	.LBB5:
  98:..\..\..\u8g2\u8g2\csrc/u8x8_d_st7528.c ****     *dest++ =*ptr;
 263              		.loc 1 98 0
 264 00b8 2878     		ldrb	r0, [r5]	@ zero_extendqisi2
 265 00ba 0432     		adds	r2, r2, #4
 266              	.LVL40:
 267 00bc 02F8080C 		strb	r0, [r2, #-8]
 268              	.LVL41:
  99:..\..\..\u8g2\u8g2\csrc/u8x8_d_st7528.c ****     *dest++ =*ptr;
 269              		.loc 1 99 0
 270 00c0 2878     		ldrb	r0, [r5]	@ zero_extendqisi2
 271 00c2 02F8070C 		strb	r0, [r2, #-7]
 272              	.LVL42:
 100:..\..\..\u8g2\u8g2\csrc/u8x8_d_st7528.c ****     *dest++ =*ptr;
 273              		.loc 1 100 0
 274 00c6 2878     		ldrb	r0, [r5]	@ zero_extendqisi2
 275 00c8 02F8060C 		strb	r0, [r2, #-6]
 276              	.LVL43:
 101:..\..\..\u8g2\u8g2\csrc/u8x8_d_st7528.c ****     ptr++;
ARM GAS  C:\Users\jesse\AppData\Local\Temp\ccNu6j6T.s 			page 10


 277              		.loc 1 101 0
 278 00cc 15F8010B 		ldrb	r0, [r5], #1	@ zero_extendqisi2
 279              	.LVL44:
  96:..\..\..\u8g2\u8g2\csrc/u8x8_d_st7528.c ****   {
 280              		.loc 1 96 0
 281 00d0 8D42     		cmp	r5, r1
 101:..\..\..\u8g2\u8g2\csrc/u8x8_d_st7528.c ****     ptr++;
 282              		.loc 1 101 0
 283 00d2 02F8050C 		strb	r0, [r2, #-5]
 284              	.LVL45:
  96:..\..\..\u8g2\u8g2\csrc/u8x8_d_st7528.c ****   {
 285              		.loc 1 96 0
 286 00d6 EFD1     		bne	.L14
 287              	.LVL46:
 288              	.LBE5:
 289              	.LBE4:
 171:..\..\..\u8g2\u8g2\csrc/u8x8_d_st7528.c ****           
 290              		.loc 1 171 0
 291 00d8 114A     		ldr	r2, .L25+20
 292 00da 2021     		movs	r1, #32
 293              	.LVL47:
 294 00dc 2046     		mov	r0, r4
 175:..\..\..\u8g2\u8g2\csrc/u8x8_d_st7528.c **** 	} while( c > 0 );	
 295              		.loc 1 175 0
 296 00de 013F     		subs	r7, r7, #1
 297              	.LVL48:
 171:..\..\..\u8g2\u8g2\csrc/u8x8_d_st7528.c ****           
 298              		.loc 1 171 0
 299 00e0 FFF7FEFF 		bl	u8x8_cad_SendData
 300              	.LVL49:
 176:..\..\..\u8g2\u8g2\csrc/u8x8_d_st7528.c **** 	arg_int--;
 301              		.loc 1 176 0
 302 00e4 17F0FF07 		ands	r7, r7, #255
 303              	.LVL50:
 304 00e8 CED1     		bne	.L15
 177:..\..\..\u8g2\u8g2\csrc/u8x8_d_st7528.c ****       } while( arg_int > 0 );
 305              		.loc 1 177 0
 306 00ea 013E     		subs	r6, r6, #1
 307              	.LVL51:
 308 00ec 0BEBC803 		add	r3, fp, r8, lsl #3
 178:..\..\..\u8g2\u8g2\csrc/u8x8_d_st7528.c ****       
 309              		.loc 1 178 0
 310 00f0 16F0FF06 		ands	r6, r6, #255
 311              	.LVL52:
 312 00f4 5FFA83FB 		uxtb	fp, r3
 313 00f8 BED1     		bne	.L16
 314              	.LVL53:
 315              	.L24:
 180:..\..\..\u8g2\u8g2\csrc/u8x8_d_st7528.c ****       break;
 316              		.loc 1 180 0
 317 00fa 2046     		mov	r0, r4
 318 00fc FFF7FEFF 		bl	u8x8_cad_EndTransfer
 319              	.LVL54:
 320 0100 9BE7     		b	.L21
 321              	.LVL55:
 322              	.L17:
 183:..\..\..\u8g2\u8g2\csrc/u8x8_d_st7528.c ****   }
ARM GAS  C:\Users\jesse\AppData\Local\Temp\ccNu6j6T.s 			page 11


 323              		.loc 1 183 0
 324 0102 0020     		movs	r0, #0
 325              	.LVL56:
 326              	.L6:
 186:..\..\..\u8g2\u8g2\csrc/u8x8_d_st7528.c **** 
 327              		.loc 1 186 0
 328 0104 03B0     		add	sp, sp, #12
 329              		.cfi_def_cfa_offset 36
 330              		@ sp needed
 331 0106 BDE8F08F 		pop	{r4, r5, r6, r7, r8, r9, r10, fp, pc}
 332              	.LVL57:
 333              	.L26:
 334 010a 00BF     		.align	2
 335              	.L25:
 336 010c 00000000 		.word	.LANCHOR0
 337 0110 09000000 		.word	.LANCHOR0+9
 338 0114 12000000 		.word	.LANCHOR0+18
 339 0118 19000000 		.word	.LANCHOR0+25
 340 011c 04000000 		.word	.LANCHOR1+4
 341 0120 00000000 		.word	.LANCHOR1
 342              		.cfi_endproc
 343              	.LFE1:
 344              		.size	u8x8_d_st7528_generic, .-u8x8_d_st7528_generic
 345              		.section	.text.u8x8_d_st7528_nhd_c160100,"ax",%progbits
 346              		.align	1
 347              		.global	u8x8_d_st7528_nhd_c160100
 348              		.thumb
 349              		.thumb_func
 350              		.type	u8x8_d_st7528_nhd_c160100, %function
 351              	u8x8_d_st7528_nhd_c160100:
 352              	.LFB3:
 205:..\..\..\u8g2\u8g2\csrc/u8x8_d_st7528.c **** 
 206:..\..\..\u8g2\u8g2\csrc/u8x8_d_st7528.c **** /*===============================================================*/
 207:..\..\..\u8g2\u8g2\csrc/u8x8_d_st7528.c **** /* NHD C160100 */
 208:..\..\..\u8g2\u8g2\csrc/u8x8_d_st7528.c **** static const uint8_t u8x8_d_st7528_nhd_c160100_init_seq[] = {
 209:..\..\..\u8g2\u8g2\csrc/u8x8_d_st7528.c ****     
 210:..\..\..\u8g2\u8g2\csrc/u8x8_d_st7528.c ****   U8X8_START_TRANSFER(),             	/* enable chip, delay is part of the transfer start */
 211:..\..\..\u8g2\u8g2\csrc/u8x8_d_st7528.c **** 
 212:..\..\..\u8g2\u8g2\csrc/u8x8_d_st7528.c ****   
 213:..\..\..\u8g2\u8g2\csrc/u8x8_d_st7528.c **** /*
 214:..\..\..\u8g2\u8g2\csrc/u8x8_d_st7528.c ****     I2C_out(0x48);//partial display duty ratio
 215:..\..\..\u8g2\u8g2\csrc/u8x8_d_st7528.c ****     I2C_out(0x64);// 1/100 duty
 216:..\..\..\u8g2\u8g2\csrc/u8x8_d_st7528.c ****     I2C_out(0xA0);//ADC select
 217:..\..\..\u8g2\u8g2\csrc/u8x8_d_st7528.c ****     I2C_out(0xC8);//SHL select
 218:..\..\..\u8g2\u8g2\csrc/u8x8_d_st7528.c ****     I2C_out(0x44);//initial Com0 register
 219:..\..\..\u8g2\u8g2\csrc/u8x8_d_st7528.c ****     I2C_out(0x00);//scan from Com0
 220:..\..\..\u8g2\u8g2\csrc/u8x8_d_st7528.c ****     I2C_out(0xAB);//OSC on
 221:..\..\..\u8g2\u8g2\csrc/u8x8_d_st7528.c ****     I2C_out(0x26);//
 222:..\..\..\u8g2\u8g2\csrc/u8x8_d_st7528.c ****     I2C_out(0x81);	//set electronic volume
 223:..\..\..\u8g2\u8g2\csrc/u8x8_d_st7528.c ****     I2C_out(0x15);//vopcode=0x1C
 224:..\..\..\u8g2\u8g2\csrc/u8x8_d_st7528.c ****     I2C_out(0x56);//set 1/11 bias
 225:..\..\..\u8g2\u8g2\csrc/u8x8_d_st7528.c ****     I2C_out(0x64);//3x
 226:..\..\..\u8g2\u8g2\csrc/u8x8_d_st7528.c ****     delay(2);
 227:..\..\..\u8g2\u8g2\csrc/u8x8_d_st7528.c ****     I2C_out(0x2C);//
 228:..\..\..\u8g2\u8g2\csrc/u8x8_d_st7528.c ****     I2C_out(0x66);//5x
 229:..\..\..\u8g2\u8g2\csrc/u8x8_d_st7528.c ****     delay(2);
 230:..\..\..\u8g2\u8g2\csrc/u8x8_d_st7528.c ****     I2C_out(0x2E);//
ARM GAS  C:\Users\jesse\AppData\Local\Temp\ccNu6j6T.s 			page 12


 231:..\..\..\u8g2\u8g2\csrc/u8x8_d_st7528.c ****     delay(2);
 232:..\..\..\u8g2\u8g2\csrc/u8x8_d_st7528.c ****     I2C_out(0x2F);//power control
 233:..\..\..\u8g2\u8g2\csrc/u8x8_d_st7528.c ****     I2C_out(0xF3);//bias save circuit
 234:..\..\..\u8g2\u8g2\csrc/u8x8_d_st7528.c ****     I2C_out(0x00);//
 235:..\..\..\u8g2\u8g2\csrc/u8x8_d_st7528.c ****     I2C_out(0x96);//frc and pwm
 236:..\..\..\u8g2\u8g2\csrc/u8x8_d_st7528.c ****     I2C_out(0x38);//external mode
 237:..\..\..\u8g2\u8g2\csrc/u8x8_d_st7528.c ****     I2C_out(0x75);//
 238:..\..\..\u8g2\u8g2\csrc/u8x8_d_st7528.c ****     I2C_out(0x97);//3frc, 45 pwm			THIS IS A MODE0 CMD, IT IS USELESS HERE
 239:..\..\..\u8g2\u8g2\csrc/u8x8_d_st7528.c ****     I2C_out(0x80);//start 16-level grayscale settings
 240:..\..\..\u8g2\u8g2\csrc/u8x8_d_st7528.c **** */
 241:..\..\..\u8g2\u8g2\csrc/u8x8_d_st7528.c ****   U8X8_CA(0x038, 0x064),		/* ext mode 0*/
 242:..\..\..\u8g2\u8g2\csrc/u8x8_d_st7528.c ****   U8X8_CA(0x048, 0x064),		/* partial display duty ratio, 1/100 duty*/
 243:..\..\..\u8g2\u8g2\csrc/u8x8_d_st7528.c ****   U8X8_C(0x0a0),		                /* ADC */
 244:..\..\..\u8g2\u8g2\csrc/u8x8_d_st7528.c ****   U8X8_C(0x0c8),		                /* SHL */
 245:..\..\..\u8g2\u8g2\csrc/u8x8_d_st7528.c ****   U8X8_CA(0x044, 0x000),		/* initial Com0 */
 246:..\..\..\u8g2\u8g2\csrc/u8x8_d_st7528.c ****   U8X8_CA(0x040, 0x000),		/* y shift, issue https://github.com/olikraus/u8g2/issues/1828 */
 247:..\..\..\u8g2\u8g2\csrc/u8x8_d_st7528.c ****   U8X8_C(0x0ab),		                /* start oscillator */
 248:..\..\..\u8g2\u8g2\csrc/u8x8_d_st7528.c ****   U8X8_C(0x026),		                /* Select the internal resistance ratio of the regulator resistor
 249:..\..\..\u8g2\u8g2\csrc/u8x8_d_st7528.c ****   U8X8_CA(0x081, 0x015),		/* volumn */
 250:..\..\..\u8g2\u8g2\csrc/u8x8_d_st7528.c ****   U8X8_C(0x056),		                /* LCD Bias */
 251:..\..\..\u8g2\u8g2\csrc/u8x8_d_st7528.c ****   U8X8_C(0x064),		                /* DC DC step up */
 252:..\..\..\u8g2\u8g2\csrc/u8x8_d_st7528.c ****   U8X8_DLY(2),
 253:..\..\..\u8g2\u8g2\csrc/u8x8_d_st7528.c ****   U8X8_C(0x02c),		                /* Power Control */
 254:..\..\..\u8g2\u8g2\csrc/u8x8_d_st7528.c ****   U8X8_C(0x066),		                /* DC DC step up */
 255:..\..\..\u8g2\u8g2\csrc/u8x8_d_st7528.c ****   U8X8_DLY(2),
 256:..\..\..\u8g2\u8g2\csrc/u8x8_d_st7528.c ****   U8X8_C(0x02e),		                /* Power Control */
 257:..\..\..\u8g2\u8g2\csrc/u8x8_d_st7528.c ****   U8X8_DLY(2),
 258:..\..\..\u8g2\u8g2\csrc/u8x8_d_st7528.c ****   U8X8_C(0x02f),		                /* Power Control */
 259:..\..\..\u8g2\u8g2\csrc/u8x8_d_st7528.c ****   U8X8_CA(0x0f3, 0x000),		/* bias power save */
 260:..\..\..\u8g2\u8g2\csrc/u8x8_d_st7528.c ****   U8X8_C(0x096),		                /* frc and pwm */
 261:..\..\..\u8g2\u8g2\csrc/u8x8_d_st7528.c **** 
 262:..\..\..\u8g2\u8g2\csrc/u8x8_d_st7528.c ****   U8X8_END_TRANSFER(),             	/* disable chip */
 263:..\..\..\u8g2\u8g2\csrc/u8x8_d_st7528.c ****   U8X8_END()             			/* end of sequence */
 264:..\..\..\u8g2\u8g2\csrc/u8x8_d_st7528.c **** };
 265:..\..\..\u8g2\u8g2\csrc/u8x8_d_st7528.c **** 
 266:..\..\..\u8g2\u8g2\csrc/u8x8_d_st7528.c **** static const u8x8_display_info_t u8x8_st7528_160x100_display_info =
 267:..\..\..\u8g2\u8g2\csrc/u8x8_d_st7528.c **** {
 268:..\..\..\u8g2\u8g2\csrc/u8x8_d_st7528.c ****   /* chip_enable_level = */ 0,
 269:..\..\..\u8g2\u8g2\csrc/u8x8_d_st7528.c ****   /* chip_disable_level = */ 1,
 270:..\..\..\u8g2\u8g2\csrc/u8x8_d_st7528.c ****   
 271:..\..\..\u8g2\u8g2\csrc/u8x8_d_st7528.c ****   /* post_chip_enable_wait_ns = */ 20,
 272:..\..\..\u8g2\u8g2\csrc/u8x8_d_st7528.c ****   /* pre_chip_disable_wait_ns = */ 20,
 273:..\..\..\u8g2\u8g2\csrc/u8x8_d_st7528.c ****   /* reset_pulse_width_ms = */ 5, 	
 274:..\..\..\u8g2\u8g2\csrc/u8x8_d_st7528.c ****   /* post_reset_wait_ms = */ 5, 		/**/
 275:..\..\..\u8g2\u8g2\csrc/u8x8_d_st7528.c ****   /* sda_setup_time_ns = */ 20,		/* st7528  */
 276:..\..\..\u8g2\u8g2\csrc/u8x8_d_st7528.c ****   /* sck_pulse_width_ns = */ 25,	/* st7528 */
 277:..\..\..\u8g2\u8g2\csrc/u8x8_d_st7528.c ****   /* sck_clock_hz = */ 8000000UL,	/* since Arduino 1.6.0, the SPI bus speed in Hz. Should be  10000
 278:..\..\..\u8g2\u8g2\csrc/u8x8_d_st7528.c ****       /* st7528 actually allows 20MHz according to the datasheet */
 279:..\..\..\u8g2\u8g2\csrc/u8x8_d_st7528.c ****   /* spi_mode = */ 0,		/* active high, rising edge */
 280:..\..\..\u8g2\u8g2\csrc/u8x8_d_st7528.c ****   /* i2c_bus_clock_100kHz = */ 4,
 281:..\..\..\u8g2\u8g2\csrc/u8x8_d_st7528.c ****   /* data_setup_time_ns = */ 40,
 282:..\..\..\u8g2\u8g2\csrc/u8x8_d_st7528.c ****   /* write_pulse_width_ns = */ 80,	/* st7528 */
 283:..\..\..\u8g2\u8g2\csrc/u8x8_d_st7528.c ****   /* tile_width = */ 20,
 284:..\..\..\u8g2\u8g2\csrc/u8x8_d_st7528.c ****   /* tile_hight = */ 13,
 285:..\..\..\u8g2\u8g2\csrc/u8x8_d_st7528.c ****   /* default_x_offset = */ 0,		/* x_offset is used as y offset for the ssd1326 */
 286:..\..\..\u8g2\u8g2\csrc/u8x8_d_st7528.c ****   /* flipmode_x_offset = */ 0,		/* x_offset is used as y offset for the ssd1326 */
 287:..\..\..\u8g2\u8g2\csrc/u8x8_d_st7528.c ****   /* pixel_width = */ 160,
ARM GAS  C:\Users\jesse\AppData\Local\Temp\ccNu6j6T.s 			page 13


 288:..\..\..\u8g2\u8g2\csrc/u8x8_d_st7528.c ****   /* pixel_height = */ 100
 289:..\..\..\u8g2\u8g2\csrc/u8x8_d_st7528.c **** };
 290:..\..\..\u8g2\u8g2\csrc/u8x8_d_st7528.c **** 
 291:..\..\..\u8g2\u8g2\csrc/u8x8_d_st7528.c **** uint8_t u8x8_d_st7528_nhd_c160100(u8x8_t *u8x8, uint8_t msg, uint8_t arg_int, void *arg_ptr)
 292:..\..\..\u8g2\u8g2\csrc/u8x8_d_st7528.c **** {
 353              		.loc 1 292 0
 354              		.cfi_startproc
 355              		@ args = 0, pretend = 0, frame = 0
 356              		@ frame_needed = 0, uses_anonymous_args = 0
 357              	.LVL58:
 293:..\..\..\u8g2\u8g2\csrc/u8x8_d_st7528.c ****     if ( msg == U8X8_MSG_DISPLAY_SETUP_MEMORY )
 358              		.loc 1 293 0
 359 0000 0929     		cmp	r1, #9
 292:..\..\..\u8g2\u8g2\csrc/u8x8_d_st7528.c ****     if ( msg == U8X8_MSG_DISPLAY_SETUP_MEMORY )
 360              		.loc 1 292 0
 361 0002 70B5     		push	{r4, r5, r6, lr}
 362              		.cfi_def_cfa_offset 16
 363              		.cfi_offset 4, -16
 364              		.cfi_offset 5, -12
 365              		.cfi_offset 6, -8
 366              		.cfi_offset 14, -4
 292:..\..\..\u8g2\u8g2\csrc/u8x8_d_st7528.c ****     if ( msg == U8X8_MSG_DISPLAY_SETUP_MEMORY )
 367              		.loc 1 292 0
 368 0004 0446     		mov	r4, r0
 369              		.loc 1 293 0
 370 0006 03D1     		bne	.L28
 294:..\..\..\u8g2\u8g2\csrc/u8x8_d_st7528.c ****     {
 295:..\..\..\u8g2\u8g2\csrc/u8x8_d_st7528.c ****       u8x8_d_helper_display_setup_memory(u8x8, &u8x8_st7528_160x100_display_info);
 371              		.loc 1 295 0
 372 0008 0B49     		ldr	r1, .L31
 373              	.LVL59:
 374 000a FFF7FEFF 		bl	u8x8_d_helper_display_setup_memory
 375              	.LVL60:
 296:..\..\..\u8g2\u8g2\csrc/u8x8_d_st7528.c ****       return 1;
 376              		.loc 1 296 0
 377 000e 10E0     		b	.L29
 378              	.LVL61:
 379              	.L28:
 297:..\..\..\u8g2\u8g2\csrc/u8x8_d_st7528.c ****     }
 298:..\..\..\u8g2\u8g2\csrc/u8x8_d_st7528.c ****     if ( msg == U8X8_MSG_DISPLAY_INIT )
 380              		.loc 1 298 0
 381 0010 0A29     		cmp	r1, #10
 382 0012 0AD1     		bne	.L30
 299:..\..\..\u8g2\u8g2\csrc/u8x8_d_st7528.c ****     {
 300:..\..\..\u8g2\u8g2\csrc/u8x8_d_st7528.c ****       u8x8_d_helper_display_init(u8x8);
 383              		.loc 1 300 0
 384 0014 FFF7FEFF 		bl	u8x8_d_helper_display_init
 385              	.LVL62:
 301:..\..\..\u8g2\u8g2\csrc/u8x8_d_st7528.c ****       u8x8_cad_SendSequence(u8x8, u8x8_d_st7528_nhd_c160100_init_seq);    
 386              		.loc 1 301 0
 387 0018 2046     		mov	r0, r4
 388 001a 0849     		ldr	r1, .L31+4
 389 001c FFF7FEFF 		bl	u8x8_cad_SendSequence
 390              	.LVL63:
 302:..\..\..\u8g2\u8g2\csrc/u8x8_d_st7528.c ****       u8x8_d_st7528_graylevel_init(u8x8, 0x074);
 391              		.loc 1 302 0
 392 0020 7421     		movs	r1, #116
ARM GAS  C:\Users\jesse\AppData\Local\Temp\ccNu6j6T.s 			page 14


 393 0022 2046     		mov	r0, r4
 394 0024 FFF7FEFF 		bl	u8x8_d_st7528_graylevel_init
 395              	.LVL64:
 303:..\..\..\u8g2\u8g2\csrc/u8x8_d_st7528.c ****       return 1;
 396              		.loc 1 303 0
 397 0028 03E0     		b	.L29
 398              	.LVL65:
 399              	.L30:
 304:..\..\..\u8g2\u8g2\csrc/u8x8_d_st7528.c ****     }    
 305:..\..\..\u8g2\u8g2\csrc/u8x8_d_st7528.c ****     return u8x8_d_st7528_generic(u8x8, msg, arg_int, arg_ptr);
 306:..\..\..\u8g2\u8g2\csrc/u8x8_d_st7528.c **** }
 400              		.loc 1 306 0
 401 002a BDE87040 		pop	{r4, r5, r6, lr}
 402              		.cfi_remember_state
 403              		.cfi_restore 14
 404              		.cfi_restore 6
 405              		.cfi_restore 5
 406              		.cfi_restore 4
 407              		.cfi_def_cfa_offset 0
 305:..\..\..\u8g2\u8g2\csrc/u8x8_d_st7528.c **** }
 408              		.loc 1 305 0
 409 002e FFF7FEBF 		b	u8x8_d_st7528_generic
 410              	.LVL66:
 411              	.L29:
 412              		.cfi_restore_state
 413              		.loc 1 306 0
 414 0032 0120     		movs	r0, #1
 415 0034 70BD     		pop	{r4, r5, r6, pc}
 416              	.LVL67:
 417              	.L32:
 418 0036 00BF     		.align	2
 419              	.L31:
 420 0038 20000000 		.word	.LANCHOR0+32
 421 003c 38000000 		.word	.LANCHOR0+56
 422              		.cfi_endproc
 423              	.LFE3:
 424              		.size	u8x8_d_st7528_nhd_c160100, .-u8x8_d_st7528_nhd_c160100
 425              		.section	.text.u8x8_d_st7528_erc16064,"ax",%progbits
 426              		.align	1
 427              		.global	u8x8_d_st7528_erc16064
 428              		.thumb
 429              		.thumb_func
 430              		.type	u8x8_d_st7528_erc16064, %function
 431              	u8x8_d_st7528_erc16064:
 432              	.LFB4:
 307:..\..\..\u8g2\u8g2\csrc/u8x8_d_st7528.c **** 
 308:..\..\..\u8g2\u8g2\csrc/u8x8_d_st7528.c **** /*===============================================================*/
 309:..\..\..\u8g2\u8g2\csrc/u8x8_d_st7528.c **** /* ERC16064, https://www.buydisplay.com/2-inch-lcd-160x64-graphic-module-serial-spi-display-st7528-
 310:..\..\..\u8g2\u8g2\csrc/u8x8_d_st7528.c **** 
 311:..\..\..\u8g2\u8g2\csrc/u8x8_d_st7528.c **** /*
 312:..\..\..\u8g2\u8g2\csrc/u8x8_d_st7528.c **** 
 313:..\..\..\u8g2\u8g2\csrc/u8x8_d_st7528.c **** #define	ModeSet				0x38
 314:..\..\..\u8g2\u8g2\csrc/u8x8_d_st7528.c **** #define	ModeSetP1			0x64	//EXT=0
 315:..\..\..\u8g2\u8g2\csrc/u8x8_d_st7528.c **** #define	ModeSetP2			0x65	//EXT=1
 316:..\..\..\u8g2\u8g2\csrc/u8x8_d_st7528.c **** 
 317:..\..\..\u8g2\u8g2\csrc/u8x8_d_st7528.c **** #define Display_on 			0xaf
 318:..\..\..\u8g2\u8g2\csrc/u8x8_d_st7528.c **** #define Display_off 		0xae
ARM GAS  C:\Users\jesse\AppData\Local\Temp\ccNu6j6T.s 			page 15


 319:..\..\..\u8g2\u8g2\csrc/u8x8_d_st7528.c **** 
 320:..\..\..\u8g2\u8g2\csrc/u8x8_d_st7528.c **** #define Regulator			0x26
 321:..\..\..\u8g2\u8g2\csrc/u8x8_d_st7528.c **** #define Contrast_level		0x81
 322:..\..\..\u8g2\u8g2\csrc/u8x8_d_st7528.c **** #define PowerControll_on1	0x2c
 323:..\..\..\u8g2\u8g2\csrc/u8x8_d_st7528.c **** #define PowerControll_on2	0x2e
 324:..\..\..\u8g2\u8g2\csrc/u8x8_d_st7528.c **** #define PowerControll_on3	0x2f
 325:..\..\..\u8g2\u8g2\csrc/u8x8_d_st7528.c **** 
 326:..\..\..\u8g2\u8g2\csrc/u8x8_d_st7528.c **** #define	LcdBias_9			0x54
 327:..\..\..\u8g2\u8g2\csrc/u8x8_d_st7528.c **** #define	InterOsc_on			0xab
 328:..\..\..\u8g2\u8g2\csrc/u8x8_d_st7528.c **** #define	EntireDisp_on		0xa5
 329:..\..\..\u8g2\u8g2\csrc/u8x8_d_st7528.c **** #define	EntireDisp_off		0xa4
 330:..\..\..\u8g2\u8g2\csrc/u8x8_d_st7528.c **** #define BoostLevel_5		0x66
 331:..\..\..\u8g2\u8g2\csrc/u8x8_d_st7528.c **** #define	Duty_set			0x48
 332:..\..\..\u8g2\u8g2\csrc/u8x8_d_st7528.c **** #define	Duty_setP			0x40
 333:..\..\..\u8g2\u8g2\csrc/u8x8_d_st7528.c **** #define Start_columnlsb		0x00
 334:..\..\..\u8g2\u8g2\csrc/u8x8_d_st7528.c **** #define Start_columnmsb		0x10
 335:..\..\..\u8g2\u8g2\csrc/u8x8_d_st7528.c **** #define Start_page			0xb0
 336:..\..\..\u8g2\u8g2\csrc/u8x8_d_st7528.c **** #define	StartLine_set		0x40
 337:..\..\..\u8g2\u8g2\csrc/u8x8_d_st7528.c **** //#define	StartLine_setP		0x00
 338:..\..\..\u8g2\u8g2\csrc/u8x8_d_st7528.c **** #define Set_Initial_COM0	0x44
 339:..\..\..\u8g2\u8g2\csrc/u8x8_d_st7528.c **** #define Set_Initial_COM0P	0x12
 340:..\..\..\u8g2\u8g2\csrc/u8x8_d_st7528.c **** 
 341:..\..\..\u8g2\u8g2\csrc/u8x8_d_st7528.c **** 
 342:..\..\..\u8g2\u8g2\csrc/u8x8_d_st7528.c **** #define Entire_Displa_ON	0xA5
 343:..\..\..\u8g2\u8g2\csrc/u8x8_d_st7528.c **** #define Entire_Displa_OFF	0xA4
 344:..\..\..\u8g2\u8g2\csrc/u8x8_d_st7528.c **** 
 345:..\..\..\u8g2\u8g2\csrc/u8x8_d_st7528.c **** #define FrcPwm_set			0x92
 346:..\..\..\u8g2\u8g2\csrc/u8x8_d_st7528.c **** #define NLineInversion_on	0x4c
 347:..\..\..\u8g2\u8g2\csrc/u8x8_d_st7528.c **** #define NLineInversion_onP	0x1f
 348:..\..\..\u8g2\u8g2\csrc/u8x8_d_st7528.c **** #define NLineInversion_off	0xe4	
 349:..\..\..\u8g2\u8g2\csrc/u8x8_d_st7528.c **** #define ReverseDisp_on		0xa7
 350:..\..\..\u8g2\u8g2\csrc/u8x8_d_st7528.c **** #define ReverseDisp_off		0xa6
 351:..\..\..\u8g2\u8g2\csrc/u8x8_d_st7528.c **** #define AdcSelect			0xa0
 352:..\..\..\u8g2\u8g2\csrc/u8x8_d_st7528.c **** #define ComScanDirection	0xc8
 353:..\..\..\u8g2\u8g2\csrc/u8x8_d_st7528.c **** 
 354:..\..\..\u8g2\u8g2\csrc/u8x8_d_st7528.c **** 	Write_command(ModeSet);		0x38, 0x64
 355:..\..\..\u8g2\u8g2\csrc/u8x8_d_st7528.c **** 	Write_command(ModeSetP1);	
 356:..\..\..\u8g2\u8g2\csrc/u8x8_d_st7528.c **** 	Write_command(InterOsc_on);	0xab
 357:..\..\..\u8g2\u8g2\csrc/u8x8_d_st7528.c **** 	Write_command(Set_Initial_COM0);	0x44, 0x12
 358:..\..\..\u8g2\u8g2\csrc/u8x8_d_st7528.c **** 	Write_command(Set_Initial_COM0P);
 359:..\..\..\u8g2\u8g2\csrc/u8x8_d_st7528.c **** 
 360:..\..\..\u8g2\u8g2\csrc/u8x8_d_st7528.c **** 	Write_command(AdcSelect);		0xa0
 361:..\..\..\u8g2\u8g2\csrc/u8x8_d_st7528.c **** 	Write_command(ComScanDirection);	0xc8
 362:..\..\..\u8g2\u8g2\csrc/u8x8_d_st7528.c **** 	Write_command(BoostLevel_5);		0x66
 363:..\..\..\u8g2\u8g2\csrc/u8x8_d_st7528.c **** 	Delay(1000);
 364:..\..\..\u8g2\u8g2\csrc/u8x8_d_st7528.c **** 	Write_command(LcdBias_9);	0x54
 365:..\..\..\u8g2\u8g2\csrc/u8x8_d_st7528.c **** 	Write_command(Duty_set);		0x48, 0x40
 366:..\..\..\u8g2\u8g2\csrc/u8x8_d_st7528.c **** 	Write_command(Duty_setP);
 367:..\..\..\u8g2\u8g2\csrc/u8x8_d_st7528.c **** 	Write_command(Regulator);	0x26
 368:..\..\..\u8g2\u8g2\csrc/u8x8_d_st7528.c **** 	Write_command(Contrast_level);		0x81, 0x0b
 369:..\..\..\u8g2\u8g2\csrc/u8x8_d_st7528.c **** 	Write_command(Contrast_levelP);
 370:..\..\..\u8g2\u8g2\csrc/u8x8_d_st7528.c **** 	Write_command(PowerControll_on1);	0x2c
 371:..\..\..\u8g2\u8g2\csrc/u8x8_d_st7528.c **** 	Delay(10000);
 372:..\..\..\u8g2\u8g2\csrc/u8x8_d_st7528.c **** 	Write_command(PowerControll_on2);	0x2e
 373:..\..\..\u8g2\u8g2\csrc/u8x8_d_st7528.c **** 	Delay(1000);
 374:..\..\..\u8g2\u8g2\csrc/u8x8_d_st7528.c **** 	Write_command(PowerControll_on3);	0x2f
 375:..\..\..\u8g2\u8g2\csrc/u8x8_d_st7528.c **** 	Delay(1000);	
ARM GAS  C:\Users\jesse\AppData\Local\Temp\ccNu6j6T.s 			page 16


 376:..\..\..\u8g2\u8g2\csrc/u8x8_d_st7528.c **** 	Write_command(FrcPwm_set);	0x92
 377:..\..\..\u8g2\u8g2\csrc/u8x8_d_st7528.c **** 
 378:..\..\..\u8g2\u8g2\csrc/u8x8_d_st7528.c **** 	Write_command(ModeSet);
 379:..\..\..\u8g2\u8g2\csrc/u8x8_d_st7528.c **** 	Write_command(ModeSetP2);
 380:..\..\..\u8g2\u8g2\csrc/u8x8_d_st7528.c **** 	for(i=0;i<64;i++)
 381:..\..\..\u8g2\u8g2\csrc/u8x8_d_st7528.c **** 		{
 382:..\..\..\u8g2\u8g2\csrc/u8x8_d_st7528.c **** 		Write_command(0x80+i);
 383:..\..\..\u8g2\u8g2\csrc/u8x8_d_st7528.c **** 		Write_command(Gray_Parameters[i]);
 384:..\..\..\u8g2\u8g2\csrc/u8x8_d_st7528.c **** 		}
 385:..\..\..\u8g2\u8g2\csrc/u8x8_d_st7528.c **** 	Write_command(ModeSet);
 386:..\..\..\u8g2\u8g2\csrc/u8x8_d_st7528.c **** 	Write_command(ModeSetP1);
 387:..\..\..\u8g2\u8g2\csrc/u8x8_d_st7528.c **** */
 388:..\..\..\u8g2\u8g2\csrc/u8x8_d_st7528.c **** 
 389:..\..\..\u8g2\u8g2\csrc/u8x8_d_st7528.c **** static const uint8_t u8x8_d_st7528_erc16064_init_seq[] = {    
 390:..\..\..\u8g2\u8g2\csrc/u8x8_d_st7528.c ****   U8X8_START_TRANSFER(),             	/* enable chip, delay is part of the transfer start */
 391:..\..\..\u8g2\u8g2\csrc/u8x8_d_st7528.c ****   U8X8_CA(0x038, 0x064),		/* ext mode 0*/
 392:..\..\..\u8g2\u8g2\csrc/u8x8_d_st7528.c ****   U8X8_C(0x0ab),		                /* start oscillator */
 393:..\..\..\u8g2\u8g2\csrc/u8x8_d_st7528.c ****   U8X8_CA(0x044, 0x012),		/* initial Com0 */
 394:..\..\..\u8g2\u8g2\csrc/u8x8_d_st7528.c ****   U8X8_C(0x0a0),		                /* ADC */
 395:..\..\..\u8g2\u8g2\csrc/u8x8_d_st7528.c ****   U8X8_C(0x0c8),		                /* SHL */  
 396:..\..\..\u8g2\u8g2\csrc/u8x8_d_st7528.c ****   U8X8_C(0x066),		                /* boost level, ERC16064: 0x066 */
 397:..\..\..\u8g2\u8g2\csrc/u8x8_d_st7528.c ****   U8X8_DLY(1),
 398:..\..\..\u8g2\u8g2\csrc/u8x8_d_st7528.c ****   U8X8_C(0x054),		                /* LCD Bias, ERC16064: 0x054 */
 399:..\..\..\u8g2\u8g2\csrc/u8x8_d_st7528.c ****   U8X8_CA(0x048, 0x040),		/* partial display duty ratio */  
 400:..\..\..\u8g2\u8g2\csrc/u8x8_d_st7528.c ****   U8X8_C(0x026),		                /* Select the internal resistance ratio of the regulator resistor
 401:..\..\..\u8g2\u8g2\csrc/u8x8_d_st7528.c ****   U8X8_CA(0x081, 0x00b),		/* contrast,  ERC16064: 0x00b */
 402:..\..\..\u8g2\u8g2\csrc/u8x8_d_st7528.c ****   
 403:..\..\..\u8g2\u8g2\csrc/u8x8_d_st7528.c ****   U8X8_C(0x02c),		                /* Power Control */
 404:..\..\..\u8g2\u8g2\csrc/u8x8_d_st7528.c ****   U8X8_DLY(2),
 405:..\..\..\u8g2\u8g2\csrc/u8x8_d_st7528.c ****   U8X8_C(0x02e),		                /* Power Control */
 406:..\..\..\u8g2\u8g2\csrc/u8x8_d_st7528.c ****   U8X8_DLY(2),
 407:..\..\..\u8g2\u8g2\csrc/u8x8_d_st7528.c ****   U8X8_C(0x02f),		                /* Power Control */
 408:..\..\..\u8g2\u8g2\csrc/u8x8_d_st7528.c ****   U8X8_DLY(2),
 409:..\..\..\u8g2\u8g2\csrc/u8x8_d_st7528.c ****   U8X8_C(0x092),		                /* frc and pwm, ERC160624: 0x092 */
 410:..\..\..\u8g2\u8g2\csrc/u8x8_d_st7528.c **** 
 411:..\..\..\u8g2\u8g2\csrc/u8x8_d_st7528.c ****   
 412:..\..\..\u8g2\u8g2\csrc/u8x8_d_st7528.c **** 
 413:..\..\..\u8g2\u8g2\csrc/u8x8_d_st7528.c ****   U8X8_END_TRANSFER(),             	/* disable chip */
 414:..\..\..\u8g2\u8g2\csrc/u8x8_d_st7528.c ****   U8X8_END()             			/* end of sequence */
 415:..\..\..\u8g2\u8g2\csrc/u8x8_d_st7528.c **** };
 416:..\..\..\u8g2\u8g2\csrc/u8x8_d_st7528.c **** 
 417:..\..\..\u8g2\u8g2\csrc/u8x8_d_st7528.c **** 
 418:..\..\..\u8g2\u8g2\csrc/u8x8_d_st7528.c **** static const u8x8_display_info_t u8x8_st7528_erc16064_display_info =
 419:..\..\..\u8g2\u8g2\csrc/u8x8_d_st7528.c **** {
 420:..\..\..\u8g2\u8g2\csrc/u8x8_d_st7528.c ****   /* chip_enable_level = */ 0,
 421:..\..\..\u8g2\u8g2\csrc/u8x8_d_st7528.c ****   /* chip_disable_level = */ 1,
 422:..\..\..\u8g2\u8g2\csrc/u8x8_d_st7528.c ****   
 423:..\..\..\u8g2\u8g2\csrc/u8x8_d_st7528.c ****   /* post_chip_enable_wait_ns = */ 20,
 424:..\..\..\u8g2\u8g2\csrc/u8x8_d_st7528.c ****   /* pre_chip_disable_wait_ns = */ 20,
 425:..\..\..\u8g2\u8g2\csrc/u8x8_d_st7528.c ****   /* reset_pulse_width_ms = */ 5, 	
 426:..\..\..\u8g2\u8g2\csrc/u8x8_d_st7528.c ****   /* post_reset_wait_ms = */ 5, 		/**/
 427:..\..\..\u8g2\u8g2\csrc/u8x8_d_st7528.c ****   /* sda_setup_time_ns = */ 20,		/* st7528  */
 428:..\..\..\u8g2\u8g2\csrc/u8x8_d_st7528.c ****   /* sck_pulse_width_ns = */ 25,	/* st7528 */
 429:..\..\..\u8g2\u8g2\csrc/u8x8_d_st7528.c ****   /* sck_clock_hz = */ 8000000UL,	/* since Arduino 1.6.0, the SPI bus speed in Hz. Should be  10000
 430:..\..\..\u8g2\u8g2\csrc/u8x8_d_st7528.c ****       /* st7528 actually allows 20MHz according to the datasheet */
 431:..\..\..\u8g2\u8g2\csrc/u8x8_d_st7528.c ****   /* spi_mode = */ 0,		/* active high, rising edge */
 432:..\..\..\u8g2\u8g2\csrc/u8x8_d_st7528.c ****   /* i2c_bus_clock_100kHz = */ 4,
ARM GAS  C:\Users\jesse\AppData\Local\Temp\ccNu6j6T.s 			page 17


 433:..\..\..\u8g2\u8g2\csrc/u8x8_d_st7528.c ****   /* data_setup_time_ns = */ 40,
 434:..\..\..\u8g2\u8g2\csrc/u8x8_d_st7528.c ****   /* write_pulse_width_ns = */ 80,	/* st7528 */
 435:..\..\..\u8g2\u8g2\csrc/u8x8_d_st7528.c ****   /* tile_width = */ 20,
 436:..\..\..\u8g2\u8g2\csrc/u8x8_d_st7528.c ****   /* tile_hight = */ 8,
 437:..\..\..\u8g2\u8g2\csrc/u8x8_d_st7528.c ****   /* default_x_offset = */ 0,		/* x_offset is used as y offset for the ssd1326 */
 438:..\..\..\u8g2\u8g2\csrc/u8x8_d_st7528.c ****   /* flipmode_x_offset = */ 0,		/* x_offset is used as y offset for the ssd1326 */
 439:..\..\..\u8g2\u8g2\csrc/u8x8_d_st7528.c ****   /* pixel_width = */ 160,
 440:..\..\..\u8g2\u8g2\csrc/u8x8_d_st7528.c ****   /* pixel_height = */ 64
 441:..\..\..\u8g2\u8g2\csrc/u8x8_d_st7528.c **** };
 442:..\..\..\u8g2\u8g2\csrc/u8x8_d_st7528.c **** 
 443:..\..\..\u8g2\u8g2\csrc/u8x8_d_st7528.c **** 
 444:..\..\..\u8g2\u8g2\csrc/u8x8_d_st7528.c **** uint8_t u8x8_d_st7528_erc16064(u8x8_t *u8x8, uint8_t msg, uint8_t arg_int, void *arg_ptr)
 445:..\..\..\u8g2\u8g2\csrc/u8x8_d_st7528.c **** {
 433              		.loc 1 445 0
 434              		.cfi_startproc
 435              		@ args = 0, pretend = 0, frame = 0
 436              		@ frame_needed = 0, uses_anonymous_args = 0
 437              	.LVL68:
 446:..\..\..\u8g2\u8g2\csrc/u8x8_d_st7528.c ****     if ( msg == U8X8_MSG_DISPLAY_SETUP_MEMORY )
 438              		.loc 1 446 0
 439 0000 0929     		cmp	r1, #9
 445:..\..\..\u8g2\u8g2\csrc/u8x8_d_st7528.c ****     if ( msg == U8X8_MSG_DISPLAY_SETUP_MEMORY )
 440              		.loc 1 445 0
 441 0002 70B5     		push	{r4, r5, r6, lr}
 442              		.cfi_def_cfa_offset 16
 443              		.cfi_offset 4, -16
 444              		.cfi_offset 5, -12
 445              		.cfi_offset 6, -8
 446              		.cfi_offset 14, -4
 445:..\..\..\u8g2\u8g2\csrc/u8x8_d_st7528.c ****     if ( msg == U8X8_MSG_DISPLAY_SETUP_MEMORY )
 447              		.loc 1 445 0
 448 0004 0446     		mov	r4, r0
 449              		.loc 1 446 0
 450 0006 03D1     		bne	.L34
 447:..\..\..\u8g2\u8g2\csrc/u8x8_d_st7528.c ****     {
 448:..\..\..\u8g2\u8g2\csrc/u8x8_d_st7528.c ****       u8x8_d_helper_display_setup_memory(u8x8, &u8x8_st7528_erc16064_display_info);
 451              		.loc 1 448 0
 452 0008 0B49     		ldr	r1, .L37
 453              	.LVL69:
 454 000a FFF7FEFF 		bl	u8x8_d_helper_display_setup_memory
 455              	.LVL70:
 449:..\..\..\u8g2\u8g2\csrc/u8x8_d_st7528.c ****       return 1;
 456              		.loc 1 449 0
 457 000e 10E0     		b	.L35
 458              	.LVL71:
 459              	.L34:
 450:..\..\..\u8g2\u8g2\csrc/u8x8_d_st7528.c ****     }
 451:..\..\..\u8g2\u8g2\csrc/u8x8_d_st7528.c ****     if ( msg == U8X8_MSG_DISPLAY_INIT )
 460              		.loc 1 451 0
 461 0010 0A29     		cmp	r1, #10
 462 0012 0AD1     		bne	.L36
 452:..\..\..\u8g2\u8g2\csrc/u8x8_d_st7528.c ****     {
 453:..\..\..\u8g2\u8g2\csrc/u8x8_d_st7528.c ****       u8x8_d_helper_display_init(u8x8);
 463              		.loc 1 453 0
 464 0014 FFF7FEFF 		bl	u8x8_d_helper_display_init
 465              	.LVL72:
 454:..\..\..\u8g2\u8g2\csrc/u8x8_d_st7528.c ****       u8x8_cad_SendSequence(u8x8, u8x8_d_st7528_erc16064_init_seq);    
ARM GAS  C:\Users\jesse\AppData\Local\Temp\ccNu6j6T.s 			page 18


 466              		.loc 1 454 0
 467 0018 2046     		mov	r0, r4
 468 001a 0849     		ldr	r1, .L37+4
 469 001c FFF7FEFF 		bl	u8x8_cad_SendSequence
 470              	.LVL73:
 455:..\..\..\u8g2\u8g2\csrc/u8x8_d_st7528.c ****       u8x8_d_st7528_graylevel_init(u8x8, 0x064);
 471              		.loc 1 455 0
 472 0020 6421     		movs	r1, #100
 473 0022 2046     		mov	r0, r4
 474 0024 FFF7FEFF 		bl	u8x8_d_st7528_graylevel_init
 475              	.LVL74:
 456:..\..\..\u8g2\u8g2\csrc/u8x8_d_st7528.c ****       return 1;
 476              		.loc 1 456 0
 477 0028 03E0     		b	.L35
 478              	.LVL75:
 479              	.L36:
 457:..\..\..\u8g2\u8g2\csrc/u8x8_d_st7528.c ****     }    
 458:..\..\..\u8g2\u8g2\csrc/u8x8_d_st7528.c ****     return u8x8_d_st7528_generic(u8x8, msg, arg_int, arg_ptr);
 459:..\..\..\u8g2\u8g2\csrc/u8x8_d_st7528.c **** }
 480              		.loc 1 459 0
 481 002a BDE87040 		pop	{r4, r5, r6, lr}
 482              		.cfi_remember_state
 483              		.cfi_restore 14
 484              		.cfi_restore 6
 485              		.cfi_restore 5
 486              		.cfi_restore 4
 487              		.cfi_def_cfa_offset 0
 458:..\..\..\u8g2\u8g2\csrc/u8x8_d_st7528.c **** }
 488              		.loc 1 458 0
 489 002e FFF7FEBF 		b	u8x8_d_st7528_generic
 490              	.LVL76:
 491              	.L35:
 492              		.cfi_restore_state
 493              		.loc 1 459 0
 494 0032 0120     		movs	r0, #1
 495 0034 70BD     		pop	{r4, r5, r6, pc}
 496              	.LVL77:
 497              	.L38:
 498 0036 00BF     		.align	2
 499              	.L37:
 500 0038 70000000 		.word	.LANCHOR0+112
 501 003c 88000000 		.word	.LANCHOR0+136
 502              		.cfi_endproc
 503              	.LFE4:
 504              		.size	u8x8_d_st7528_erc16064, .-u8x8_d_st7528_erc16064
 505              		.section	.rodata
 506              		.align	2
 507              		.set	.LANCHOR0,. + 0
 508              		.type	u8x8_d_st7528_powersave0_seq, %object
 509              		.size	u8x8_d_st7528_powersave0_seq, 9
 510              	u8x8_d_st7528_powersave0_seq:
 511 0000 18       		.byte	24
 512 0001 15       		.byte	21
 513 0002 38       		.byte	56
 514 0003 16       		.byte	22
 515 0004 74       		.byte	116
 516 0005 15       		.byte	21
ARM GAS  C:\Users\jesse\AppData\Local\Temp\ccNu6j6T.s 			page 19


 517 0006 AF       		.byte	-81
 518 0007 19       		.byte	25
 519 0008 FF       		.byte	-1
 520              		.type	u8x8_d_st7528_powersave1_seq, %object
 521              		.size	u8x8_d_st7528_powersave1_seq, 9
 522              	u8x8_d_st7528_powersave1_seq:
 523 0009 18       		.byte	24
 524 000a 15       		.byte	21
 525 000b 38       		.byte	56
 526 000c 16       		.byte	22
 527 000d 74       		.byte	116
 528 000e 15       		.byte	21
 529 000f AE       		.byte	-82
 530 0010 19       		.byte	25
 531 0011 FF       		.byte	-1
 532              		.type	u8x8_d_st7528_flip0_seq, %object
 533              		.size	u8x8_d_st7528_flip0_seq, 7
 534              	u8x8_d_st7528_flip0_seq:
 535 0012 18       		.byte	24
 536 0013 15       		.byte	21
 537 0014 A0       		.byte	-96
 538 0015 15       		.byte	21
 539 0016 C8       		.byte	-56
 540 0017 19       		.byte	25
 541 0018 FF       		.byte	-1
 542              		.type	u8x8_d_st7528_flip1_seq, %object
 543              		.size	u8x8_d_st7528_flip1_seq, 7
 544              	u8x8_d_st7528_flip1_seq:
 545 0019 18       		.byte	24
 546 001a 15       		.byte	21
 547 001b A1       		.byte	-95
 548 001c 15       		.byte	21
 549 001d C0       		.byte	-64
 550 001e 19       		.byte	25
 551 001f FF       		.byte	-1
 552              		.type	u8x8_st7528_160x100_display_info, %object
 553              		.size	u8x8_st7528_160x100_display_info, 24
 554              	u8x8_st7528_160x100_display_info:
 555 0020 00       		.byte	0
 556 0021 01       		.byte	1
 557 0022 14       		.byte	20
 558 0023 14       		.byte	20
 559 0024 05       		.byte	5
 560 0025 05       		.byte	5
 561 0026 14       		.byte	20
 562 0027 19       		.byte	25
 563 0028 00127A00 		.word	8000000
 564 002c 00       		.byte	0
 565 002d 04       		.byte	4
 566 002e 28       		.byte	40
 567 002f 50       		.byte	80
 568 0030 14       		.byte	20
 569 0031 0D       		.byte	13
 570 0032 00       		.byte	0
 571 0033 00       		.byte	0
 572 0034 A000     		.short	160
 573 0036 6400     		.short	100
ARM GAS  C:\Users\jesse\AppData\Local\Temp\ccNu6j6T.s 			page 20


 574              		.type	u8x8_d_st7528_nhd_c160100_init_seq, %object
 575              		.size	u8x8_d_st7528_nhd_c160100_init_seq, 55
 576              	u8x8_d_st7528_nhd_c160100_init_seq:
 577 0038 18       		.byte	24
 578 0039 15       		.byte	21
 579 003a 38       		.byte	56
 580 003b 16       		.byte	22
 581 003c 64       		.byte	100
 582 003d 15       		.byte	21
 583 003e 48       		.byte	72
 584 003f 16       		.byte	22
 585 0040 64       		.byte	100
 586 0041 15       		.byte	21
 587 0042 A0       		.byte	-96
 588 0043 15       		.byte	21
 589 0044 C8       		.byte	-56
 590 0045 15       		.byte	21
 591 0046 44       		.byte	68
 592 0047 16       		.byte	22
 593 0048 00       		.byte	0
 594 0049 15       		.byte	21
 595 004a 40       		.byte	64
 596 004b 16       		.byte	22
 597 004c 00       		.byte	0
 598 004d 15       		.byte	21
 599 004e AB       		.byte	-85
 600 004f 15       		.byte	21
 601 0050 26       		.byte	38
 602 0051 15       		.byte	21
 603 0052 81       		.byte	-127
 604 0053 16       		.byte	22
 605 0054 15       		.byte	21
 606 0055 15       		.byte	21
 607 0056 56       		.byte	86
 608 0057 15       		.byte	21
 609 0058 64       		.byte	100
 610 0059 FE       		.byte	-2
 611 005a 02       		.byte	2
 612 005b 15       		.byte	21
 613 005c 2C       		.byte	44
 614 005d 15       		.byte	21
 615 005e 66       		.byte	102
 616 005f FE       		.byte	-2
 617 0060 02       		.byte	2
 618 0061 15       		.byte	21
 619 0062 2E       		.byte	46
 620 0063 FE       		.byte	-2
 621 0064 02       		.byte	2
 622 0065 15       		.byte	21
 623 0066 2F       		.byte	47
 624 0067 15       		.byte	21
 625 0068 F3       		.byte	-13
 626 0069 16       		.byte	22
 627 006a 00       		.byte	0
 628 006b 15       		.byte	21
 629 006c 96       		.byte	-106
 630 006d 19       		.byte	25
ARM GAS  C:\Users\jesse\AppData\Local\Temp\ccNu6j6T.s 			page 21


 631 006e FF       		.byte	-1
 632 006f 00       		.space	1
 633              		.type	u8x8_st7528_erc16064_display_info, %object
 634              		.size	u8x8_st7528_erc16064_display_info, 24
 635              	u8x8_st7528_erc16064_display_info:
 636 0070 00       		.byte	0
 637 0071 01       		.byte	1
 638 0072 14       		.byte	20
 639 0073 14       		.byte	20
 640 0074 05       		.byte	5
 641 0075 05       		.byte	5
 642 0076 14       		.byte	20
 643 0077 19       		.byte	25
 644 0078 00127A00 		.word	8000000
 645 007c 00       		.byte	0
 646 007d 04       		.byte	4
 647 007e 28       		.byte	40
 648 007f 50       		.byte	80
 649 0080 14       		.byte	20
 650 0081 08       		.byte	8
 651 0082 00       		.byte	0
 652 0083 00       		.byte	0
 653 0084 A000     		.short	160
 654 0086 4000     		.short	64
 655              		.type	u8x8_d_st7528_erc16064_init_seq, %object
 656              		.size	u8x8_d_st7528_erc16064_init_seq, 47
 657              	u8x8_d_st7528_erc16064_init_seq:
 658 0088 18       		.byte	24
 659 0089 15       		.byte	21
 660 008a 38       		.byte	56
 661 008b 16       		.byte	22
 662 008c 64       		.byte	100
 663 008d 15       		.byte	21
 664 008e AB       		.byte	-85
 665 008f 15       		.byte	21
 666 0090 44       		.byte	68
 667 0091 16       		.byte	22
 668 0092 12       		.byte	18
 669 0093 15       		.byte	21
 670 0094 A0       		.byte	-96
 671 0095 15       		.byte	21
 672 0096 C8       		.byte	-56
 673 0097 15       		.byte	21
 674 0098 66       		.byte	102
 675 0099 FE       		.byte	-2
 676 009a 01       		.byte	1
 677 009b 15       		.byte	21
 678 009c 54       		.byte	84
 679 009d 15       		.byte	21
 680 009e 48       		.byte	72
 681 009f 16       		.byte	22
 682 00a0 40       		.byte	64
 683 00a1 15       		.byte	21
 684 00a2 26       		.byte	38
 685 00a3 15       		.byte	21
 686 00a4 81       		.byte	-127
 687 00a5 16       		.byte	22
ARM GAS  C:\Users\jesse\AppData\Local\Temp\ccNu6j6T.s 			page 22


 688 00a6 0B       		.byte	11
 689 00a7 15       		.byte	21
 690 00a8 2C       		.byte	44
 691 00a9 FE       		.byte	-2
 692 00aa 02       		.byte	2
 693 00ab 15       		.byte	21
 694 00ac 2E       		.byte	46
 695 00ad FE       		.byte	-2
 696 00ae 02       		.byte	2
 697 00af 15       		.byte	21
 698 00b0 2F       		.byte	47
 699 00b1 FE       		.byte	-2
 700 00b2 02       		.byte	2
 701 00b3 15       		.byte	21
 702 00b4 92       		.byte	-110
 703 00b5 19       		.byte	25
 704 00b6 FF       		.byte	-1
 705              		.bss
 706              		.set	.LANCHOR1,. + 0
 707              		.type	u8x8_st7528_8to32_dest_buf, %object
 708              		.size	u8x8_st7528_8to32_dest_buf, 32
 709              	u8x8_st7528_8to32_dest_buf:
 710 0000 00000000 		.space	32
 710      00000000 
 710      00000000 
 710      00000000 
 710      00000000 
 711              		.text
 712              	.Letext0:
 713              		.file 2 "c:\\program files (x86)\\cypress\\psoc creator\\4.4\\psoc creator\\import\\gnu\\arm\\5.4.
 714              		.file 3 "c:\\program files (x86)\\cypress\\psoc creator\\4.4\\psoc creator\\import\\gnu\\arm\\5.4.
 715              		.file 4 "..\\..\\..\\u8g2\\u8g2\\csrc\\u8x8.h"