ARM GAS  C:\Users\jesse\AppData\Local\Temp\cckmgY8g.s 			page 1


   1              		.syntax unified
   2              		.cpu cortex-m3
   3              		.fpu softvfp
   4              		.eabi_attribute 20, 1
   5              		.eabi_attribute 21, 1
   6              		.eabi_attribute 23, 3
   7              		.eabi_attribute 24, 1
   8              		.eabi_attribute 25, 1
   9              		.eabi_attribute 26, 1
  10              		.eabi_attribute 30, 4
  11              		.eabi_attribute 34, 1
  12              		.eabi_attribute 18, 4
  13              		.thumb
  14              		.syntax unified
  15              		.file	"u8x8_string.c"
  16              		.text
  17              	.Ltext0:
  18              		.cfi_sections	.debug_frame
  19              		.section	.text.u8x8_GetStringLineCnt,"ax",%progbits
  20              		.align	1
  21              		.global	u8x8_GetStringLineCnt
  22              		.thumb
  23              		.thumb_func
  24              		.type	u8x8_GetStringLineCnt, %function
  25              	u8x8_GetStringLineCnt:
  26              	.LFB0:
  27              		.file 1 "..\\..\\..\\u8g2\\u8g2\\csrc\\u8x8_string.c"
   1:..\..\..\u8g2\u8g2\csrc/u8x8_string.c **** /*
   2:..\..\..\u8g2\u8g2\csrc/u8x8_string.c **** 
   3:..\..\..\u8g2\u8g2\csrc/u8x8_string.c ****   u8x8_string.c
   4:..\..\..\u8g2\u8g2\csrc/u8x8_string.c ****   
   5:..\..\..\u8g2\u8g2\csrc/u8x8_string.c ****   string line procedures
   6:..\..\..\u8g2\u8g2\csrc/u8x8_string.c ****   
   7:..\..\..\u8g2\u8g2\csrc/u8x8_string.c ****   Universal 8bit Graphics Library (https://github.com/olikraus/u8g2/)
   8:..\..\..\u8g2\u8g2\csrc/u8x8_string.c **** 
   9:..\..\..\u8g2\u8g2\csrc/u8x8_string.c ****   Copyright (c) 2016, olikraus@gmail.com
  10:..\..\..\u8g2\u8g2\csrc/u8x8_string.c ****   All rights reserved.
  11:..\..\..\u8g2\u8g2\csrc/u8x8_string.c **** 
  12:..\..\..\u8g2\u8g2\csrc/u8x8_string.c ****   Redistribution and use in source and binary forms, with or without modification, 
  13:..\..\..\u8g2\u8g2\csrc/u8x8_string.c ****   are permitted provided that the following conditions are met:
  14:..\..\..\u8g2\u8g2\csrc/u8x8_string.c **** 
  15:..\..\..\u8g2\u8g2\csrc/u8x8_string.c ****   * Redistributions of source code must retain the above copyright notice, this list 
  16:..\..\..\u8g2\u8g2\csrc/u8x8_string.c ****     of conditions and the following disclaimer.
  17:..\..\..\u8g2\u8g2\csrc/u8x8_string.c ****     
  18:..\..\..\u8g2\u8g2\csrc/u8x8_string.c ****   * Redistributions in binary form must reproduce the above copyright notice, this 
  19:..\..\..\u8g2\u8g2\csrc/u8x8_string.c ****     list of conditions and the following disclaimer in the documentation and/or other 
  20:..\..\..\u8g2\u8g2\csrc/u8x8_string.c ****     materials provided with the distribution.
  21:..\..\..\u8g2\u8g2\csrc/u8x8_string.c **** 
  22:..\..\..\u8g2\u8g2\csrc/u8x8_string.c ****   THIS SOFTWARE IS PROVIDED BY THE COPYRIGHT HOLDERS AND 
  23:..\..\..\u8g2\u8g2\csrc/u8x8_string.c ****   CONTRIBUTORS "AS IS" AND ANY EXPRESS OR IMPLIED WARRANTIES, 
  24:..\..\..\u8g2\u8g2\csrc/u8x8_string.c ****   INCLUDING, BUT NOT LIMITED TO, THE IMPLIED WARRANTIES OF 
  25:..\..\..\u8g2\u8g2\csrc/u8x8_string.c ****   MERCHANTABILITY AND FITNESS FOR A PARTICULAR PURPOSE ARE 
  26:..\..\..\u8g2\u8g2\csrc/u8x8_string.c ****   DISCLAIMED. IN NO EVENT SHALL THE COPYRIGHT HOLDER OR 
  27:..\..\..\u8g2\u8g2\csrc/u8x8_string.c ****   CONTRIBUTORS BE LIABLE FOR ANY DIRECT, INDIRECT, INCIDENTAL, 
  28:..\..\..\u8g2\u8g2\csrc/u8x8_string.c ****   SPECIAL, EXEMPLARY, OR CONSEQUENTIAL DAMAGES (INCLUDING, BUT 
  29:..\..\..\u8g2\u8g2\csrc/u8x8_string.c ****   NOT LIMITED TO, PROCUREMENT OF SUBSTITUTE GOODS OR SERVICES; 
  30:..\..\..\u8g2\u8g2\csrc/u8x8_string.c ****   LOSS OF USE, DATA, OR PROFITS; OR BUSINESS INTERRUPTION) HOWEVER 
ARM GAS  C:\Users\jesse\AppData\Local\Temp\cckmgY8g.s 			page 2


  31:..\..\..\u8g2\u8g2\csrc/u8x8_string.c ****   CAUSED AND ON ANY THEORY OF LIABILITY, WHETHER IN CONTRACT, 
  32:..\..\..\u8g2\u8g2\csrc/u8x8_string.c ****   STRICT LIABILITY, OR TORT (INCLUDING NEGLIGENCE OR OTHERWISE) 
  33:..\..\..\u8g2\u8g2\csrc/u8x8_string.c ****   ARISING IN ANY WAY OUT OF THE USE OF THIS SOFTWARE, EVEN IF 
  34:..\..\..\u8g2\u8g2\csrc/u8x8_string.c ****   ADVISED OF THE POSSIBILITY OF SUCH DAMAGE.    
  35:..\..\..\u8g2\u8g2\csrc/u8x8_string.c **** 
  36:..\..\..\u8g2\u8g2\csrc/u8x8_string.c **** */
  37:..\..\..\u8g2\u8g2\csrc/u8x8_string.c **** 
  38:..\..\..\u8g2\u8g2\csrc/u8x8_string.c **** #include "u8x8.h"
  39:..\..\..\u8g2\u8g2\csrc/u8x8_string.c **** 
  40:..\..\..\u8g2\u8g2\csrc/u8x8_string.c **** uint8_t u8x8_GetStringLineCnt(const char *str)
  41:..\..\..\u8g2\u8g2\csrc/u8x8_string.c **** {
  28              		.loc 1 41 0
  29              		.cfi_startproc
  30              		@ args = 0, pretend = 0, frame = 0
  31              		@ frame_needed = 0, uses_anonymous_args = 0
  32              		@ link register save eliminated.
  33              	.LVL0:
  42:..\..\..\u8g2\u8g2\csrc/u8x8_string.c ****   char e;
  43:..\..\..\u8g2\u8g2\csrc/u8x8_string.c ****   uint8_t line_cnt = 1;
  44:..\..\..\u8g2\u8g2\csrc/u8x8_string.c ****   if ( str == NULL )
  34              		.loc 1 44 0
  35 0000 48B1     		cbz	r0, .L2
  36 0002 431E     		subs	r3, r0, #1
  37 0004 0120     		movs	r0, #1
  38              	.LVL1:
  39              	.L3:
  45:..\..\..\u8g2\u8g2\csrc/u8x8_string.c ****     return 0;
  46:..\..\..\u8g2\u8g2\csrc/u8x8_string.c ****   for(;;)
  47:..\..\..\u8g2\u8g2\csrc/u8x8_string.c ****   {
  48:..\..\..\u8g2\u8g2\csrc/u8x8_string.c ****     e = *str;
  40              		.loc 1 48 0
  41 0006 13F8012F 		ldrb	r2, [r3, #1]!	@ zero_extendqisi2
  42              	.LVL2:
  49:..\..\..\u8g2\u8g2\csrc/u8x8_string.c ****     if ( e == '\0' )
  43              		.loc 1 49 0
  44 000a 22B1     		cbz	r2, .L2
  45              	.LVL3:
  50:..\..\..\u8g2\u8g2\csrc/u8x8_string.c ****       break;
  51:..\..\..\u8g2\u8g2\csrc/u8x8_string.c ****     str++;
  52:..\..\..\u8g2\u8g2\csrc/u8x8_string.c ****     if ( e == '\n' )
  46              		.loc 1 52 0
  47 000c 0A2A     		cmp	r2, #10
  48 000e FAD1     		bne	.L3
  53:..\..\..\u8g2\u8g2\csrc/u8x8_string.c ****       line_cnt++;
  49              		.loc 1 53 0
  50 0010 0130     		adds	r0, r0, #1
  51              	.LVL4:
  52 0012 C0B2     		uxtb	r0, r0
  53              	.LVL5:
  54 0014 F7E7     		b	.L3
  55              	.LVL6:
  56              	.L2:
  54:..\..\..\u8g2\u8g2\csrc/u8x8_string.c ****   }
  55:..\..\..\u8g2\u8g2\csrc/u8x8_string.c ****   return line_cnt;
  56:..\..\..\u8g2\u8g2\csrc/u8x8_string.c **** }
  57              		.loc 1 56 0
  58 0016 7047     		bx	lr
ARM GAS  C:\Users\jesse\AppData\Local\Temp\cckmgY8g.s 			page 3


  59              		.cfi_endproc
  60              	.LFE0:
  61              		.size	u8x8_GetStringLineCnt, .-u8x8_GetStringLineCnt
  62              		.section	.text.u8x8_GetStringLineStart,"ax",%progbits
  63              		.align	1
  64              		.global	u8x8_GetStringLineStart
  65              		.thumb
  66              		.thumb_func
  67              		.type	u8x8_GetStringLineStart, %function
  68              	u8x8_GetStringLineStart:
  69              	.LFB1:
  57:..\..\..\u8g2\u8g2\csrc/u8x8_string.c **** 
  58:..\..\..\u8g2\u8g2\csrc/u8x8_string.c **** 
  59:..\..\..\u8g2\u8g2\csrc/u8x8_string.c **** /*
  60:..\..\..\u8g2\u8g2\csrc/u8x8_string.c ****     Assumes strings, separated by '\n' in "str".
  61:..\..\..\u8g2\u8g2\csrc/u8x8_string.c ****     Returns the string at index "line_idx". First strng has line_idx = 0
  62:..\..\..\u8g2\u8g2\csrc/u8x8_string.c ****     Example:
  63:..\..\..\u8g2\u8g2\csrc/u8x8_string.c ****       Returns "xyz" for line_idx = 1 with str = "abc\nxyz"
  64:..\..\..\u8g2\u8g2\csrc/u8x8_string.c ****     Support both UTF8 and normal strings.
  65:..\..\..\u8g2\u8g2\csrc/u8x8_string.c **** */
  66:..\..\..\u8g2\u8g2\csrc/u8x8_string.c **** const char *u8x8_GetStringLineStart(uint8_t line_idx, const char *str )
  67:..\..\..\u8g2\u8g2\csrc/u8x8_string.c **** {
  70              		.loc 1 67 0
  71              		.cfi_startproc
  72              		@ args = 0, pretend = 0, frame = 0
  73              		@ frame_needed = 0, uses_anonymous_args = 0
  74              		@ link register save eliminated.
  75              	.LVL7:
  68:..\..\..\u8g2\u8g2\csrc/u8x8_string.c ****   char e;
  69:..\..\..\u8g2\u8g2\csrc/u8x8_string.c ****   uint8_t line_cnt = 1;
  70:..\..\..\u8g2\u8g2\csrc/u8x8_string.c ****   
  71:..\..\..\u8g2\u8g2\csrc/u8x8_string.c ****   if ( line_idx == 0 )
  76              		.loc 1 71 0
  77 0000 60B1     		cbz	r0, .L14
  78 0002 0123     		movs	r3, #1
  79              	.LVL8:
  80              	.L10:
  81              	.LBB4:
  82              	.LBB5:
  72:..\..\..\u8g2\u8g2\csrc/u8x8_string.c ****     return str;
  73:..\..\..\u8g2\u8g2\csrc/u8x8_string.c **** 
  74:..\..\..\u8g2\u8g2\csrc/u8x8_string.c ****   for(;;)
  75:..\..\..\u8g2\u8g2\csrc/u8x8_string.c ****   {
  76:..\..\..\u8g2\u8g2\csrc/u8x8_string.c ****     e = *str;
  83              		.loc 1 76 0
  84 0004 11F8012B 		ldrb	r2, [r1], #1	@ zero_extendqisi2
  85              	.LVL9:
  77:..\..\..\u8g2\u8g2\csrc/u8x8_string.c ****     if ( e == '\0' )
  86              		.loc 1 77 0
  87 0008 32B1     		cbz	r2, .L13
  88              	.LVL10:
  78:..\..\..\u8g2\u8g2\csrc/u8x8_string.c ****       break;
  79:..\..\..\u8g2\u8g2\csrc/u8x8_string.c ****     str++;
  80:..\..\..\u8g2\u8g2\csrc/u8x8_string.c ****     if ( e == '\n' )
  89              		.loc 1 80 0
  90 000a 0A2A     		cmp	r2, #10
  91 000c FAD1     		bne	.L10
ARM GAS  C:\Users\jesse\AppData\Local\Temp\cckmgY8g.s 			page 4


  81:..\..\..\u8g2\u8g2\csrc/u8x8_string.c ****     {
  82:..\..\..\u8g2\u8g2\csrc/u8x8_string.c ****       if ( line_cnt == line_idx )
  92              		.loc 1 82 0
  93 000e 9842     		cmp	r0, r3
  94 0010 04D0     		beq	.L14
  83:..\..\..\u8g2\u8g2\csrc/u8x8_string.c **** 	return str;
  84:..\..\..\u8g2\u8g2\csrc/u8x8_string.c ****       line_cnt++;
  95              		.loc 1 84 0
  96 0012 0133     		adds	r3, r3, #1
  97              	.LVL11:
  98 0014 DBB2     		uxtb	r3, r3
  99              	.LVL12:
 100 0016 F5E7     		b	.L10
 101              	.LVL13:
 102              	.L13:
  85:..\..\..\u8g2\u8g2\csrc/u8x8_string.c ****     }
  86:..\..\..\u8g2\u8g2\csrc/u8x8_string.c ****   }
  87:..\..\..\u8g2\u8g2\csrc/u8x8_string.c ****   return NULL;	/* line not found */
 103              		.loc 1 87 0
 104 0018 1046     		mov	r0, r2
 105              	.LVL14:
 106 001a 7047     		bx	lr
 107              	.LVL15:
 108              	.L14:
  79:..\..\..\u8g2\u8g2\csrc/u8x8_string.c ****     if ( e == '\n' )
 109              		.loc 1 79 0
 110 001c 0846     		mov	r0, r1
 111              	.LVL16:
 112              	.LBE5:
 113              	.LBE4:
  88:..\..\..\u8g2\u8g2\csrc/u8x8_string.c **** }
 114              		.loc 1 88 0
 115 001e 7047     		bx	lr
 116              		.cfi_endproc
 117              	.LFE1:
 118              		.size	u8x8_GetStringLineStart, .-u8x8_GetStringLineStart
 119              		.section	.text.u8x8_CopyStringLine,"ax",%progbits
 120              		.align	1
 121              		.global	u8x8_CopyStringLine
 122              		.thumb
 123              		.thumb_func
 124              		.type	u8x8_CopyStringLine, %function
 125              	u8x8_CopyStringLine:
 126              	.LFB2:
  89:..\..\..\u8g2\u8g2\csrc/u8x8_string.c **** 
  90:..\..\..\u8g2\u8g2\csrc/u8x8_string.c **** /* copy until first '\n' or '\0' in str */
  91:..\..\..\u8g2\u8g2\csrc/u8x8_string.c **** /* Important: There is no string overflow check, ensure */
  92:..\..\..\u8g2\u8g2\csrc/u8x8_string.c **** /* that the destination buffer is large enough */
  93:..\..\..\u8g2\u8g2\csrc/u8x8_string.c **** void u8x8_CopyStringLine(char *dest, uint8_t line_idx, const char *str)
  94:..\..\..\u8g2\u8g2\csrc/u8x8_string.c **** {
 127              		.loc 1 94 0
 128              		.cfi_startproc
 129              		@ args = 0, pretend = 0, frame = 0
 130              		@ frame_needed = 0, uses_anonymous_args = 0
 131              	.LVL17:
 132 0000 10B5     		push	{r4, lr}
 133              		.cfi_def_cfa_offset 8
ARM GAS  C:\Users\jesse\AppData\Local\Temp\cckmgY8g.s 			page 5


 134              		.cfi_offset 4, -8
 135              		.cfi_offset 14, -4
 136              		.loc 1 94 0
 137 0002 0B46     		mov	r3, r1
  95:..\..\..\u8g2\u8g2\csrc/u8x8_string.c ****   if ( dest == NULL )
 138              		.loc 1 95 0
 139 0004 0446     		mov	r4, r0
 140 0006 78B1     		cbz	r0, .L15
  96:..\..\..\u8g2\u8g2\csrc/u8x8_string.c ****     return;
  97:..\..\..\u8g2\u8g2\csrc/u8x8_string.c ****   str = u8x8_GetStringLineStart( line_idx, str );
 141              		.loc 1 97 0
 142 0008 1146     		mov	r1, r2
 143              	.LVL18:
 144 000a 1846     		mov	r0, r3
 145              	.LVL19:
 146 000c FFF7FEFF 		bl	u8x8_GetStringLineStart
 147              	.LVL20:
  98:..\..\..\u8g2\u8g2\csrc/u8x8_string.c ****   if ( str != NULL )
 148              		.loc 1 98 0
 149 0010 40B1     		cbz	r0, .L17
 150 0012 0138     		subs	r0, r0, #1
 151              	.LVL21:
 152              	.L18:
  99:..\..\..\u8g2\u8g2\csrc/u8x8_string.c ****   {
 100:..\..\..\u8g2\u8g2\csrc/u8x8_string.c ****     for(;;)
 101:..\..\..\u8g2\u8g2\csrc/u8x8_string.c ****     {
 102:..\..\..\u8g2\u8g2\csrc/u8x8_string.c ****       if ( *str == '\n' || *str == '\0' )
 153              		.loc 1 102 0
 154 0014 10F8013F 		ldrb	r3, [r0, #1]!	@ zero_extendqisi2
 155 0018 0A2B     		cmp	r3, #10
 156 001a 03D0     		beq	.L17
 157              		.loc 1 102 0 is_stmt 0 discriminator 1
 158 001c 13B1     		cbz	r3, .L17
 103:..\..\..\u8g2\u8g2\csrc/u8x8_string.c **** 	break;
 104:..\..\..\u8g2\u8g2\csrc/u8x8_string.c ****       *dest = *str;
 159              		.loc 1 104 0 is_stmt 1
 160 001e 04F8013B 		strb	r3, [r4], #1
 161              	.LVL22:
 105:..\..\..\u8g2\u8g2\csrc/u8x8_string.c ****       dest++;
 106:..\..\..\u8g2\u8g2\csrc/u8x8_string.c ****       str++;
 107:..\..\..\u8g2\u8g2\csrc/u8x8_string.c ****     }
 162              		.loc 1 107 0
 163 0022 F7E7     		b	.L18
 164              	.L17:
 108:..\..\..\u8g2\u8g2\csrc/u8x8_string.c ****   }
 109:..\..\..\u8g2\u8g2\csrc/u8x8_string.c ****   *dest = '\0';
 165              		.loc 1 109 0
 166 0024 0023     		movs	r3, #0
 167 0026 2370     		strb	r3, [r4]
 168              	.L15:
 169 0028 10BD     		pop	{r4, pc}
 170              		.cfi_endproc
 171              	.LFE2:
 172              		.size	u8x8_CopyStringLine, .-u8x8_CopyStringLine
 173              		.section	.text.u8x8_DrawUTF8Line,"ax",%progbits
 174              		.align	1
 175              		.global	u8x8_DrawUTF8Line
ARM GAS  C:\Users\jesse\AppData\Local\Temp\cckmgY8g.s 			page 6


 176              		.thumb
 177              		.thumb_func
 178              		.type	u8x8_DrawUTF8Line, %function
 179              	u8x8_DrawUTF8Line:
 180              	.LFB3:
 110:..\..\..\u8g2\u8g2\csrc/u8x8_string.c **** }
 111:..\..\..\u8g2\u8g2\csrc/u8x8_string.c **** 
 112:..\..\..\u8g2\u8g2\csrc/u8x8_string.c **** /*
 113:..\..\..\u8g2\u8g2\csrc/u8x8_string.c ****   Draw a string
 114:..\..\..\u8g2\u8g2\csrc/u8x8_string.c ****   Extend the string to size "w"
 115:..\..\..\u8g2\u8g2\csrc/u8x8_string.c ****   Center the string within "w"
 116:..\..\..\u8g2\u8g2\csrc/u8x8_string.c ****   return the size of the string
 117:..\..\..\u8g2\u8g2\csrc/u8x8_string.c **** 
 118:..\..\..\u8g2\u8g2\csrc/u8x8_string.c **** */
 119:..\..\..\u8g2\u8g2\csrc/u8x8_string.c **** uint8_t u8x8_DrawUTF8Line(u8x8_t *u8x8, uint8_t x, uint8_t y, uint8_t w, const char *s)
 120:..\..\..\u8g2\u8g2\csrc/u8x8_string.c **** {
 181              		.loc 1 120 0
 182              		.cfi_startproc
 183              		@ args = 4, pretend = 0, frame = 0
 184              		@ frame_needed = 0, uses_anonymous_args = 0
 185              	.LVL23:
 186 0000 2DE9F843 		push	{r3, r4, r5, r6, r7, r8, r9, lr}
 187              		.cfi_def_cfa_offset 32
 188              		.cfi_offset 3, -32
 189              		.cfi_offset 4, -28
 190              		.cfi_offset 5, -24
 191              		.cfi_offset 6, -20
 192              		.cfi_offset 7, -16
 193              		.cfi_offset 8, -12
 194              		.cfi_offset 9, -8
 195              		.cfi_offset 14, -4
 196              		.loc 1 120 0
 197 0004 0D46     		mov	r5, r1
 121:..\..\..\u8g2\u8g2\csrc/u8x8_string.c ****   uint8_t d, lw;
 122:..\..\..\u8g2\u8g2\csrc/u8x8_string.c ****   uint8_t cx, dx;
 123:..\..\..\u8g2\u8g2\csrc/u8x8_string.c ****     
 124:..\..\..\u8g2\u8g2\csrc/u8x8_string.c ****   d = 0;
 125:..\..\..\u8g2\u8g2\csrc/u8x8_string.c ****   
 126:..\..\..\u8g2\u8g2\csrc/u8x8_string.c ****   lw = u8x8_GetUTF8Len(u8x8, s);
 198              		.loc 1 126 0
 199 0006 0899     		ldr	r1, [sp, #32]
 200              	.LVL24:
 120:..\..\..\u8g2\u8g2\csrc/u8x8_string.c ****   uint8_t d, lw;
 201              		.loc 1 120 0
 202 0008 9846     		mov	r8, r3
 203 000a 0646     		mov	r6, r0
 204 000c 1746     		mov	r7, r2
 205              		.loc 1 126 0
 206 000e FFF7FEFF 		bl	u8x8_GetUTF8Len
 207              	.LVL25:
 127:..\..\..\u8g2\u8g2\csrc/u8x8_string.c ****   if ( lw < w )
 128:..\..\..\u8g2\u8g2\csrc/u8x8_string.c ****   {
 129:..\..\..\u8g2\u8g2\csrc/u8x8_string.c ****     d = w;
 130:..\..\..\u8g2\u8g2\csrc/u8x8_string.c ****     d -=lw;
 131:..\..\..\u8g2\u8g2\csrc/u8x8_string.c ****     d /= 2;
 132:..\..\..\u8g2\u8g2\csrc/u8x8_string.c ****   }
 133:..\..\..\u8g2\u8g2\csrc/u8x8_string.c ****     
ARM GAS  C:\Users\jesse\AppData\Local\Temp\cckmgY8g.s 			page 7


 134:..\..\..\u8g2\u8g2\csrc/u8x8_string.c ****   cx = x;
 208              		.loc 1 134 0
 209 0012 2C46     		mov	r4, r5
 127:..\..\..\u8g2\u8g2\csrc/u8x8_string.c ****   if ( lw < w )
 210              		.loc 1 127 0
 211 0014 4045     		cmp	r0, r8
 212              	.LVL26:
 130:..\..\..\u8g2\u8g2\csrc/u8x8_string.c ****     d /= 2;
 213              		.loc 1 130 0
 214 0016 3ABF     		itte	cc
 215 0018 C0EB0800 		rsbcc	r0, r0, r8
 216              	.LVL27:
 131:..\..\..\u8g2\u8g2\csrc/u8x8_string.c ****   }
 217              		.loc 1 131 0
 218 001c C0F34600 		ubfxcc	r0, r0, #1, #7
 219              	.LVL28:
 124:..\..\..\u8g2\u8g2\csrc/u8x8_string.c ****   
 220              		.loc 1 124 0
 221 0020 0020     		movcs	r0, #0
 222              	.LVL29:
 135:..\..\..\u8g2\u8g2\csrc/u8x8_string.c ****   dx = cx + d;
 223              		.loc 1 135 0
 224 0022 2844     		add	r0, r0, r5
 225              	.LVL30:
 226 0024 5FFA80F9 		uxtb	r9, r0
 227              	.LVL31:
 228              	.L33:
 136:..\..\..\u8g2\u8g2\csrc/u8x8_string.c ****   while( cx < dx )
 229              		.loc 1 136 0
 230 0028 4C45     		cmp	r4, r9
 231 002a 08D2     		bcs	.L38
 137:..\..\..\u8g2\u8g2\csrc/u8x8_string.c ****   {
 138:..\..\..\u8g2\u8g2\csrc/u8x8_string.c ****     u8x8_DrawUTF8(u8x8, cx, y, " ");
 232              		.loc 1 138 0
 233 002c 2146     		mov	r1, r4
 234 002e 114B     		ldr	r3, .L40
 235 0030 3A46     		mov	r2, r7
 236 0032 3046     		mov	r0, r6
 237 0034 FFF7FEFF 		bl	u8x8_DrawUTF8
 238              	.LVL32:
 139:..\..\..\u8g2\u8g2\csrc/u8x8_string.c ****     cx++;
 239              		.loc 1 139 0
 240 0038 601C     		adds	r0, r4, #1
 241 003a C4B2     		uxtb	r4, r0
 242              	.LVL33:
 243 003c F4E7     		b	.L33
 244              	.L38:
 140:..\..\..\u8g2\u8g2\csrc/u8x8_string.c ****   }
 141:..\..\..\u8g2\u8g2\csrc/u8x8_string.c ****   cx += u8x8_DrawUTF8(u8x8, cx, y, s);
 245              		.loc 1 141 0
 246 003e 2146     		mov	r1, r4
 247 0040 089B     		ldr	r3, [sp, #32]
 248 0042 3A46     		mov	r2, r7
 249 0044 3046     		mov	r0, r6
 250 0046 FFF7FEFF 		bl	u8x8_DrawUTF8
 251              	.LVL34:
 142:..\..\..\u8g2\u8g2\csrc/u8x8_string.c ****   dx = x + w;
ARM GAS  C:\Users\jesse\AppData\Local\Temp\cckmgY8g.s 			page 8


 252              		.loc 1 142 0
 253 004a A844     		add	r8, r8, r5
 141:..\..\..\u8g2\u8g2\csrc/u8x8_string.c ****   dx = x + w;
 254              		.loc 1 141 0
 255 004c 2044     		add	r0, r0, r4
 256 004e C4B2     		uxtb	r4, r0
 257              	.LVL35:
 258              		.loc 1 142 0
 259 0050 5FFA88F8 		uxtb	r8, r8
 260              	.LVL36:
 261              	.L35:
 143:..\..\..\u8g2\u8g2\csrc/u8x8_string.c ****   while( cx < dx )
 262              		.loc 1 143 0
 263 0054 4445     		cmp	r4, r8
 264 0056 08D2     		bcs	.L39
 144:..\..\..\u8g2\u8g2\csrc/u8x8_string.c ****   {
 145:..\..\..\u8g2\u8g2\csrc/u8x8_string.c ****     u8x8_DrawUTF8(u8x8, cx, y, " ");
 265              		.loc 1 145 0
 266 0058 2146     		mov	r1, r4
 267 005a 064B     		ldr	r3, .L40
 268 005c 3A46     		mov	r2, r7
 269 005e 3046     		mov	r0, r6
 270 0060 FFF7FEFF 		bl	u8x8_DrawUTF8
 271              	.LVL37:
 146:..\..\..\u8g2\u8g2\csrc/u8x8_string.c ****     cx++;
 272              		.loc 1 146 0
 273 0064 601C     		adds	r0, r4, #1
 274 0066 C4B2     		uxtb	r4, r0
 275              	.LVL38:
 276 0068 F4E7     		b	.L35
 277              	.L39:
 278              	.LVL39:
 147:..\..\..\u8g2\u8g2\csrc/u8x8_string.c ****   }
 148:..\..\..\u8g2\u8g2\csrc/u8x8_string.c ****   cx -= x;
 149:..\..\..\u8g2\u8g2\csrc/u8x8_string.c ****   return cx;
 279              		.loc 1 149 0
 280 006a 601B     		subs	r0, r4, r5
 150:..\..\..\u8g2\u8g2\csrc/u8x8_string.c **** }
 281              		.loc 1 150 0
 282 006c C0B2     		uxtb	r0, r0
 283 006e BDE8F883 		pop	{r3, r4, r5, r6, r7, r8, r9, pc}
 284              	.LVL40:
 285              	.L41:
 286 0072 00BF     		.align	2
 287              	.L40:
 288 0074 00000000 		.word	.LC0
 289              		.cfi_endproc
 290              	.LFE3:
 291              		.size	u8x8_DrawUTF8Line, .-u8x8_DrawUTF8Line
 292              		.section	.text.u8x8_DrawUTF8Lines,"ax",%progbits
 293              		.align	1
 294              		.global	u8x8_DrawUTF8Lines
 295              		.thumb
 296              		.thumb_func
 297              		.type	u8x8_DrawUTF8Lines, %function
 298              	u8x8_DrawUTF8Lines:
 299              	.LFB4:
ARM GAS  C:\Users\jesse\AppData\Local\Temp\cckmgY8g.s 			page 9


 151:..\..\..\u8g2\u8g2\csrc/u8x8_string.c **** 
 152:..\..\..\u8g2\u8g2\csrc/u8x8_string.c **** /*
 153:..\..\..\u8g2\u8g2\csrc/u8x8_string.c ****   draw several lines at position x,y.
 154:..\..\..\u8g2\u8g2\csrc/u8x8_string.c ****   lines are stored in s and must be separated with '\n'.
 155:..\..\..\u8g2\u8g2\csrc/u8x8_string.c ****   lines can be centered with respect to "w" 
 156:..\..\..\u8g2\u8g2\csrc/u8x8_string.c ****   if s == NULL nothing is drawn and 0 is returned
 157:..\..\..\u8g2\u8g2\csrc/u8x8_string.c ****   returns the number of lines in s
 158:..\..\..\u8g2\u8g2\csrc/u8x8_string.c **** */
 159:..\..\..\u8g2\u8g2\csrc/u8x8_string.c **** uint8_t u8x8_DrawUTF8Lines(u8x8_t *u8x8, uint8_t x, uint8_t y, uint8_t w, const char *s)
 160:..\..\..\u8g2\u8g2\csrc/u8x8_string.c **** {
 300              		.loc 1 160 0
 301              		.cfi_startproc
 302              		@ args = 4, pretend = 0, frame = 0
 303              		@ frame_needed = 0, uses_anonymous_args = 0
 304              	.LVL41:
 305 0000 2DE9F347 		push	{r0, r1, r4, r5, r6, r7, r8, r9, r10, lr}
 306              		.cfi_def_cfa_offset 40
 307              		.cfi_offset 4, -32
 308              		.cfi_offset 5, -28
 309              		.cfi_offset 6, -24
 310              		.cfi_offset 7, -20
 311              		.cfi_offset 8, -16
 312              		.cfi_offset 9, -12
 313              		.cfi_offset 10, -8
 314              		.cfi_offset 14, -4
 315              		.loc 1 160 0
 316 0004 8046     		mov	r8, r0
 161:..\..\..\u8g2\u8g2\csrc/u8x8_string.c ****   uint8_t i;
 162:..\..\..\u8g2\u8g2\csrc/u8x8_string.c ****   uint8_t cnt;
 163:..\..\..\u8g2\u8g2\csrc/u8x8_string.c ****   cnt = u8x8_GetStringLineCnt(s);
 317              		.loc 1 163 0
 318 0006 0A98     		ldr	r0, [sp, #40]
 319              	.LVL42:
 160:..\..\..\u8g2\u8g2\csrc/u8x8_string.c ****   uint8_t i;
 320              		.loc 1 160 0
 321 0008 8946     		mov	r9, r1
 322 000a 1746     		mov	r7, r2
 323 000c 9A46     		mov	r10, r3
 324              		.loc 1 163 0
 325 000e FFF7FEFF 		bl	u8x8_GetStringLineCnt
 326              	.LVL43:
 327 0012 0646     		mov	r6, r0
 328              	.LVL44:
 164:..\..\..\u8g2\u8g2\csrc/u8x8_string.c ****   for( i = 0; i < cnt; i++ )
 329              		.loc 1 164 0
 330 0014 0025     		movs	r5, #0
 331              	.LVL45:
 332              	.L43:
 333 0016 E8B2     		uxtb	r0, r5
 334 0018 3C18     		adds	r4, r7, r0
 335              		.loc 1 164 0 is_stmt 0 discriminator 1
 336 001a 8642     		cmp	r6, r0
 337 001c E4B2     		uxtb	r4, r4
 338              	.LVL46:
 339 001e 0BD9     		bls	.L45
 165:..\..\..\u8g2\u8g2\csrc/u8x8_string.c ****   {
 166:..\..\..\u8g2\u8g2\csrc/u8x8_string.c ****     u8x8_DrawUTF8Line(u8x8, x, y, w, u8x8_GetStringLineStart(i, s));
ARM GAS  C:\Users\jesse\AppData\Local\Temp\cckmgY8g.s 			page 10


 340              		.loc 1 166 0 is_stmt 1 discriminator 3
 341 0020 0A99     		ldr	r1, [sp, #40]
 342 0022 FFF7FEFF 		bl	u8x8_GetStringLineStart
 343              	.LVL47:
 344 0026 5346     		mov	r3, r10
 345 0028 0090     		str	r0, [sp]
 346 002a 2246     		mov	r2, r4
 347 002c 4946     		mov	r1, r9
 348 002e 4046     		mov	r0, r8
 349 0030 FFF7FEFF 		bl	u8x8_DrawUTF8Line
 350              	.LVL48:
 351 0034 0135     		adds	r5, r5, #1
 352              	.LVL49:
 353 0036 EEE7     		b	.L43
 354              	.LVL50:
 355              	.L45:
 167:..\..\..\u8g2\u8g2\csrc/u8x8_string.c ****     y++;
 168:..\..\..\u8g2\u8g2\csrc/u8x8_string.c ****   }
 169:..\..\..\u8g2\u8g2\csrc/u8x8_string.c ****   return cnt;
 170:..\..\..\u8g2\u8g2\csrc/u8x8_string.c **** }
 356              		.loc 1 170 0
 357 0038 3046     		mov	r0, r6
 358              	.LVL51:
 359 003a 02B0     		add	sp, sp, #8
 360              		.cfi_def_cfa_offset 32
 361              		@ sp needed
 362 003c BDE8F087 		pop	{r4, r5, r6, r7, r8, r9, r10, pc}
 363              		.cfi_endproc
 364              	.LFE4:
 365              		.size	u8x8_DrawUTF8Lines, .-u8x8_DrawUTF8Lines
 366              		.section	.rodata.str1.1,"aMS",%progbits,1
 367              	.LC0:
 368 0000 2000     		.ascii	" \000"
 369              		.text
 370              	.Letext0:
 371              		.file 2 "c:\\program files (x86)\\cypress\\psoc creator\\4.4\\psoc creator\\import\\gnu\\arm\\5.4.
 372              		.file 3 "c:\\program files (x86)\\cypress\\psoc creator\\4.4\\psoc creator\\import\\gnu\\arm\\5.4.
 373              		.file 4 "..\\..\\..\\u8g2\\u8g2\\csrc\\u8x8.h"