ARM GAS  C:\Users\jesse\AppData\Local\Temp\ccv4gvbh.s 			page 1


   1              		.syntax unified
   2              		.cpu cortex-m3
   3              		.fpu softvfp
   4              		.eabi_attribute 20, 1
   5              		.eabi_attribute 21, 1
   6              		.eabi_attribute 23, 3
   7              		.eabi_attribute 24, 1
   8              		.eabi_attribute 25, 1
   9              		.eabi_attribute 26, 1
  10              		.eabi_attribute 30, 4
  11              		.eabi_attribute 34, 1
  12              		.eabi_attribute 18, 4
  13              		.thumb
  14              		.syntax unified
  15              		.file	"u8x8_d_pcd8544_84x48.c"
  16              		.text
  17              	.Ltext0:
  18              		.cfi_sections	.debug_frame
  19              		.section	.text.u8x8_d_pcd8544_84x48,"ax",%progbits
  20              		.align	1
  21              		.global	u8x8_d_pcd8544_84x48
  22              		.thumb
  23              		.thumb_func
  24              		.type	u8x8_d_pcd8544_84x48, %function
  25              	u8x8_d_pcd8544_84x48:
  26              	.LFB0:
  27              		.file 1 "..\\..\\..\\u8g2\\u8g2\\csrc\\u8x8_d_pcd8544_84x48.c"
   1:..\..\..\u8g2\u8g2\csrc/u8x8_d_pcd8544_84x48.c **** /*
   2:..\..\..\u8g2\u8g2\csrc/u8x8_d_pcd8544_84x48.c **** 
   3:..\..\..\u8g2\u8g2\csrc/u8x8_d_pcd8544_84x48.c ****   u8x8_d_pcd8544_84x48.c (so called "Nokia 5110" displays)
   4:..\..\..\u8g2\u8g2\csrc/u8x8_d_pcd8544_84x48.c ****   
   5:..\..\..\u8g2\u8g2\csrc/u8x8_d_pcd8544_84x48.c ****   Universal 8bit Graphics Library (https://github.com/olikraus/u8g2/)
   6:..\..\..\u8g2\u8g2\csrc/u8x8_d_pcd8544_84x48.c **** 
   7:..\..\..\u8g2\u8g2\csrc/u8x8_d_pcd8544_84x48.c ****   Copyright (c) 2016, olikraus@gmail.com
   8:..\..\..\u8g2\u8g2\csrc/u8x8_d_pcd8544_84x48.c ****   All rights reserved.
   9:..\..\..\u8g2\u8g2\csrc/u8x8_d_pcd8544_84x48.c **** 
  10:..\..\..\u8g2\u8g2\csrc/u8x8_d_pcd8544_84x48.c ****   Redistribution and use in source and binary forms, with or without modification, 
  11:..\..\..\u8g2\u8g2\csrc/u8x8_d_pcd8544_84x48.c ****   are permitted provided that the following conditions are met:
  12:..\..\..\u8g2\u8g2\csrc/u8x8_d_pcd8544_84x48.c **** 
  13:..\..\..\u8g2\u8g2\csrc/u8x8_d_pcd8544_84x48.c ****   * Redistributions of source code must retain the above copyright notice, this list 
  14:..\..\..\u8g2\u8g2\csrc/u8x8_d_pcd8544_84x48.c ****     of conditions and the following disclaimer.
  15:..\..\..\u8g2\u8g2\csrc/u8x8_d_pcd8544_84x48.c ****     
  16:..\..\..\u8g2\u8g2\csrc/u8x8_d_pcd8544_84x48.c ****   * Redistributions in binary form must reproduce the above copyright notice, this 
  17:..\..\..\u8g2\u8g2\csrc/u8x8_d_pcd8544_84x48.c ****     list of conditions and the following disclaimer in the documentation and/or other 
  18:..\..\..\u8g2\u8g2\csrc/u8x8_d_pcd8544_84x48.c ****     materials provided with the distribution.
  19:..\..\..\u8g2\u8g2\csrc/u8x8_d_pcd8544_84x48.c **** 
  20:..\..\..\u8g2\u8g2\csrc/u8x8_d_pcd8544_84x48.c ****   THIS SOFTWARE IS PROVIDED BY THE COPYRIGHT HOLDERS AND 
  21:..\..\..\u8g2\u8g2\csrc/u8x8_d_pcd8544_84x48.c ****   CONTRIBUTORS "AS IS" AND ANY EXPRESS OR IMPLIED WARRANTIES, 
  22:..\..\..\u8g2\u8g2\csrc/u8x8_d_pcd8544_84x48.c ****   INCLUDING, BUT NOT LIMITED TO, THE IMPLIED WARRANTIES OF 
  23:..\..\..\u8g2\u8g2\csrc/u8x8_d_pcd8544_84x48.c ****   MERCHANTABILITY AND FITNESS FOR A PARTICULAR PURPOSE ARE 
  24:..\..\..\u8g2\u8g2\csrc/u8x8_d_pcd8544_84x48.c ****   DISCLAIMED. IN NO EVENT SHALL THE COPYRIGHT HOLDER OR 
  25:..\..\..\u8g2\u8g2\csrc/u8x8_d_pcd8544_84x48.c ****   CONTRIBUTORS BE LIABLE FOR ANY DIRECT, INDIRECT, INCIDENTAL, 
  26:..\..\..\u8g2\u8g2\csrc/u8x8_d_pcd8544_84x48.c ****   SPECIAL, EXEMPLARY, OR CONSEQUENTIAL DAMAGES (INCLUDING, BUT 
  27:..\..\..\u8g2\u8g2\csrc/u8x8_d_pcd8544_84x48.c ****   NOT LIMITED TO, PROCUREMENT OF SUBSTITUTE GOODS OR SERVICES; 
  28:..\..\..\u8g2\u8g2\csrc/u8x8_d_pcd8544_84x48.c ****   LOSS OF USE, DATA, OR PROFITS; OR BUSINESS INTERRUPTION) HOWEVER 
  29:..\..\..\u8g2\u8g2\csrc/u8x8_d_pcd8544_84x48.c ****   CAUSED AND ON ANY THEORY OF LIABILITY, WHETHER IN CONTRACT, 
  30:..\..\..\u8g2\u8g2\csrc/u8x8_d_pcd8544_84x48.c ****   STRICT LIABILITY, OR TORT (INCLUDING NEGLIGENCE OR OTHERWISE) 
ARM GAS  C:\Users\jesse\AppData\Local\Temp\ccv4gvbh.s 			page 2


  31:..\..\..\u8g2\u8g2\csrc/u8x8_d_pcd8544_84x48.c ****   ARISING IN ANY WAY OUT OF THE USE OF THIS SOFTWARE, EVEN IF 
  32:..\..\..\u8g2\u8g2\csrc/u8x8_d_pcd8544_84x48.c ****   ADVISED OF THE POSSIBILITY OF SUCH DAMAGE.  
  33:..\..\..\u8g2\u8g2\csrc/u8x8_d_pcd8544_84x48.c **** 
  34:..\..\..\u8g2\u8g2\csrc/u8x8_d_pcd8544_84x48.c ****   
  35:..\..\..\u8g2\u8g2\csrc/u8x8_d_pcd8544_84x48.c **** */
  36:..\..\..\u8g2\u8g2\csrc/u8x8_d_pcd8544_84x48.c **** #include "u8x8.h"
  37:..\..\..\u8g2\u8g2\csrc/u8x8_d_pcd8544_84x48.c **** 
  38:..\..\..\u8g2\u8g2\csrc/u8x8_d_pcd8544_84x48.c **** 
  39:..\..\..\u8g2\u8g2\csrc/u8x8_d_pcd8544_84x48.c **** 
  40:..\..\..\u8g2\u8g2\csrc/u8x8_d_pcd8544_84x48.c **** 
  41:..\..\..\u8g2\u8g2\csrc/u8x8_d_pcd8544_84x48.c **** static const uint8_t u8x8_d_pcd8544_84x48_init_seq[] = {
  42:..\..\..\u8g2\u8g2\csrc/u8x8_d_pcd8544_84x48.c ****     
  43:..\..\..\u8g2\u8g2\csrc/u8x8_d_pcd8544_84x48.c ****   U8X8_START_TRANSFER(),             	/* enable chip, delay is part of the transfer start */
  44:..\..\..\u8g2\u8g2\csrc/u8x8_d_pcd8544_84x48.c ****   
  45:..\..\..\u8g2\u8g2\csrc/u8x8_d_pcd8544_84x48.c ****   U8X8_C(0x021),            			/* activate chip (PD=0), horizontal increment (V=0), enter extended 
  46:..\..\..\u8g2\u8g2\csrc/u8x8_d_pcd8544_84x48.c ****   U8X8_C(0x006),		                /* temp. control: b10 = 2  */
  47:..\..\..\u8g2\u8g2\csrc/u8x8_d_pcd8544_84x48.c ****   U8X8_C(0x013),		                /* bias system 1:48 */
  48:..\..\..\u8g2\u8g2\csrc/u8x8_d_pcd8544_84x48.c ****   U8X8_C(0x0c0),		                /* medium Vop  */
  49:..\..\..\u8g2\u8g2\csrc/u8x8_d_pcd8544_84x48.c ****   
  50:..\..\..\u8g2\u8g2\csrc/u8x8_d_pcd8544_84x48.c ****   U8X8_C(0x020),		                /* activate chip (PD=0), horizontal increment (V=0), enter normal
  51:..\..\..\u8g2\u8g2\csrc/u8x8_d_pcd8544_84x48.c ****   U8X8_C(0x008),				/* blank */
  52:..\..\..\u8g2\u8g2\csrc/u8x8_d_pcd8544_84x48.c ****   U8X8_C(0x024),		                /* power down (PD=1), horizontal increment (V=0), enter normal co
  53:..\..\..\u8g2\u8g2\csrc/u8x8_d_pcd8544_84x48.c ****     
  54:..\..\..\u8g2\u8g2\csrc/u8x8_d_pcd8544_84x48.c ****   U8X8_END_TRANSFER(),             	/* disable chip */
  55:..\..\..\u8g2\u8g2\csrc/u8x8_d_pcd8544_84x48.c ****   U8X8_END()             			/* end of sequence */
  56:..\..\..\u8g2\u8g2\csrc/u8x8_d_pcd8544_84x48.c **** };
  57:..\..\..\u8g2\u8g2\csrc/u8x8_d_pcd8544_84x48.c **** 
  58:..\..\..\u8g2\u8g2\csrc/u8x8_d_pcd8544_84x48.c **** static const uint8_t u8x8_d_pcd8544_84x48_powersave0_seq[] = {
  59:..\..\..\u8g2\u8g2\csrc/u8x8_d_pcd8544_84x48.c ****   U8X8_START_TRANSFER(),             	/* enable chip, delay is part of the transfer start */
  60:..\..\..\u8g2\u8g2\csrc/u8x8_d_pcd8544_84x48.c ****   U8X8_C(0x020),		                /* activate chip (PD=0), horizontal increment (V=0), enter normal
  61:..\..\..\u8g2\u8g2\csrc/u8x8_d_pcd8544_84x48.c ****   U8X8_C(0x00c),				/* display on */
  62:..\..\..\u8g2\u8g2\csrc/u8x8_d_pcd8544_84x48.c ****   U8X8_END_TRANSFER(),             	/* disable chip */
  63:..\..\..\u8g2\u8g2\csrc/u8x8_d_pcd8544_84x48.c ****   U8X8_END()             			/* end of sequence */
  64:..\..\..\u8g2\u8g2\csrc/u8x8_d_pcd8544_84x48.c **** };
  65:..\..\..\u8g2\u8g2\csrc/u8x8_d_pcd8544_84x48.c **** 
  66:..\..\..\u8g2\u8g2\csrc/u8x8_d_pcd8544_84x48.c **** static const uint8_t u8x8_d_pcd8544_84x48_powersave1_seq[] = {
  67:..\..\..\u8g2\u8g2\csrc/u8x8_d_pcd8544_84x48.c ****   U8X8_START_TRANSFER(),             	/* enable chip, delay is part of the transfer start */
  68:..\..\..\u8g2\u8g2\csrc/u8x8_d_pcd8544_84x48.c ****   U8X8_C(0x020),		                /* activate chip (PD=0), horizontal increment (V=0), enter normal
  69:..\..\..\u8g2\u8g2\csrc/u8x8_d_pcd8544_84x48.c ****   U8X8_C(0x008),				/* blank */
  70:..\..\..\u8g2\u8g2\csrc/u8x8_d_pcd8544_84x48.c ****   U8X8_C(0x024),		                /* power down (PD=1), horizontal increment (V=0), enter normal co
  71:..\..\..\u8g2\u8g2\csrc/u8x8_d_pcd8544_84x48.c ****   U8X8_END_TRANSFER(),             	/* disable chip */
  72:..\..\..\u8g2\u8g2\csrc/u8x8_d_pcd8544_84x48.c ****   U8X8_END()             			/* end of sequence */
  73:..\..\..\u8g2\u8g2\csrc/u8x8_d_pcd8544_84x48.c **** };
  74:..\..\..\u8g2\u8g2\csrc/u8x8_d_pcd8544_84x48.c **** 
  75:..\..\..\u8g2\u8g2\csrc/u8x8_d_pcd8544_84x48.c **** 
  76:..\..\..\u8g2\u8g2\csrc/u8x8_d_pcd8544_84x48.c **** 
  77:..\..\..\u8g2\u8g2\csrc/u8x8_d_pcd8544_84x48.c **** static const u8x8_display_info_t u8x8_pcd8544_84x48_display_info =
  78:..\..\..\u8g2\u8g2\csrc/u8x8_d_pcd8544_84x48.c **** {
  79:..\..\..\u8g2\u8g2\csrc/u8x8_d_pcd8544_84x48.c ****   /* chip_enable_level = */ 0,
  80:..\..\..\u8g2\u8g2\csrc/u8x8_d_pcd8544_84x48.c ****   /* chip_disable_level = */ 1,
  81:..\..\..\u8g2\u8g2\csrc/u8x8_d_pcd8544_84x48.c ****   
  82:..\..\..\u8g2\u8g2\csrc/u8x8_d_pcd8544_84x48.c ****   /* post_chip_enable_wait_ns = */ 5,
  83:..\..\..\u8g2\u8g2\csrc/u8x8_d_pcd8544_84x48.c ****   /* pre_chip_disable_wait_ns = */ 5,
  84:..\..\..\u8g2\u8g2\csrc/u8x8_d_pcd8544_84x48.c ****   /* reset_pulse_width_ms = */ 2, 
  85:..\..\..\u8g2\u8g2\csrc/u8x8_d_pcd8544_84x48.c ****   /* post_reset_wait_ms = */ 2, 
  86:..\..\..\u8g2\u8g2\csrc/u8x8_d_pcd8544_84x48.c ****   /* sda_setup_time_ns = */ 12,		
  87:..\..\..\u8g2\u8g2\csrc/u8x8_d_pcd8544_84x48.c ****   /* sck_pulse_width_ns = */ 75,	/* half of cycle time (100ns according to datasheet), AVR: below 7
ARM GAS  C:\Users\jesse\AppData\Local\Temp\ccv4gvbh.s 			page 3


  88:..\..\..\u8g2\u8g2\csrc/u8x8_d_pcd8544_84x48.c ****   /* sck_clock_hz = */ 4000000UL,	/* since Arduino 1.6.0, the SPI bus speed in Hz. Should be  10000
  89:..\..\..\u8g2\u8g2\csrc/u8x8_d_pcd8544_84x48.c ****   /* spi_mode = */ 0,		/* active high, rising edge */
  90:..\..\..\u8g2\u8g2\csrc/u8x8_d_pcd8544_84x48.c ****   /* i2c_bus_clock_100kHz = */ 4,
  91:..\..\..\u8g2\u8g2\csrc/u8x8_d_pcd8544_84x48.c ****   /* data_setup_time_ns = */ 30,
  92:..\..\..\u8g2\u8g2\csrc/u8x8_d_pcd8544_84x48.c ****   /* write_pulse_width_ns = */ 40,
  93:..\..\..\u8g2\u8g2\csrc/u8x8_d_pcd8544_84x48.c ****   /* tile_width = */ 11,		/* width of 11*8=88 pixel */
  94:..\..\..\u8g2\u8g2\csrc/u8x8_d_pcd8544_84x48.c ****   /* tile_hight = */ 6,
  95:..\..\..\u8g2\u8g2\csrc/u8x8_d_pcd8544_84x48.c ****   /* default_x_offset = */ 0,
  96:..\..\..\u8g2\u8g2\csrc/u8x8_d_pcd8544_84x48.c ****   /* flipmode_x_offset = */ 0,
  97:..\..\..\u8g2\u8g2\csrc/u8x8_d_pcd8544_84x48.c ****   /* pixel_width = */ 84,
  98:..\..\..\u8g2\u8g2\csrc/u8x8_d_pcd8544_84x48.c ****   /* pixel_height = */ 48
  99:..\..\..\u8g2\u8g2\csrc/u8x8_d_pcd8544_84x48.c **** };
 100:..\..\..\u8g2\u8g2\csrc/u8x8_d_pcd8544_84x48.c **** 
 101:..\..\..\u8g2\u8g2\csrc/u8x8_d_pcd8544_84x48.c **** uint8_t u8x8_d_pcd8544_84x48(u8x8_t *u8x8, uint8_t msg, uint8_t arg_int, void *arg_ptr)
 102:..\..\..\u8g2\u8g2\csrc/u8x8_d_pcd8544_84x48.c **** {
  28              		.loc 1 102 0
  29              		.cfi_startproc
  30              		@ args = 0, pretend = 0, frame = 0
  31              		@ frame_needed = 0, uses_anonymous_args = 0
  32              	.LVL0:
 103:..\..\..\u8g2\u8g2\csrc/u8x8_d_pcd8544_84x48.c ****   uint8_t x, c;
 104:..\..\..\u8g2\u8g2\csrc/u8x8_d_pcd8544_84x48.c ****   uint8_t *ptr;
 105:..\..\..\u8g2\u8g2\csrc/u8x8_d_pcd8544_84x48.c ****   switch(msg)
  33              		.loc 1 105 0
  34 0000 0939     		subs	r1, r1, #9
  35              	.LVL1:
 102:..\..\..\u8g2\u8g2\csrc/u8x8_d_pcd8544_84x48.c ****   uint8_t x, c;
  36              		.loc 1 102 0
  37 0002 2DE9F041 		push	{r4, r5, r6, r7, r8, lr}
  38              		.cfi_def_cfa_offset 24
  39              		.cfi_offset 4, -24
  40              		.cfi_offset 5, -20
  41              		.cfi_offset 6, -16
  42              		.cfi_offset 7, -12
  43              		.cfi_offset 8, -8
  44              		.cfi_offset 14, -4
 102:..\..\..\u8g2\u8g2\csrc/u8x8_d_pcd8544_84x48.c ****   uint8_t x, c;
  45              		.loc 1 102 0
  46 0006 0446     		mov	r4, r0
  47 0008 1746     		mov	r7, r2
  48 000a 1E46     		mov	r6, r3
  49              		.loc 1 105 0
  50 000c 0629     		cmp	r1, #6
  51 000e 59D8     		bhi	.L14
  52 0010 DFE801F0 		tbb	[pc, r1]
  53              	.LVL2:
  54              	.L4:
  55 0014 04       		.byte	(.L3-.L4)/2
  56 0015 08       		.byte	(.L5-.L4)/2
  57 0016 0C       		.byte	(.L6-.L4)/2
  58 0017 58       		.byte	(.L14-.L4)/2
  59 0018 58       		.byte	(.L14-.L4)/2
  60 0019 16       		.byte	(.L7-.L4)/2
  61 001a 23       		.byte	(.L8-.L4)/2
  62 001b 00       		.p2align 1
  63              	.L3:
 106:..\..\..\u8g2\u8g2\csrc/u8x8_d_pcd8544_84x48.c ****   {
ARM GAS  C:\Users\jesse\AppData\Local\Temp\ccv4gvbh.s 			page 4


 107:..\..\..\u8g2\u8g2\csrc/u8x8_d_pcd8544_84x48.c ****     case U8X8_MSG_DISPLAY_SETUP_MEMORY:
 108:..\..\..\u8g2\u8g2\csrc/u8x8_d_pcd8544_84x48.c ****       u8x8_d_helper_display_setup_memory(u8x8, &u8x8_pcd8544_84x48_display_info);
  64              		.loc 1 108 0
  65 001c 2B49     		ldr	r1, .L19
  66 001e FFF7FEFF 		bl	u8x8_d_helper_display_setup_memory
  67              	.LVL3:
  68 0022 08E0     		b	.L16
  69              	.LVL4:
  70              	.L5:
 109:..\..\..\u8g2\u8g2\csrc/u8x8_d_pcd8544_84x48.c ****       break;
 110:..\..\..\u8g2\u8g2\csrc/u8x8_d_pcd8544_84x48.c ****     case U8X8_MSG_DISPLAY_INIT:
 111:..\..\..\u8g2\u8g2\csrc/u8x8_d_pcd8544_84x48.c ****       u8x8_d_helper_display_init(u8x8);
  71              		.loc 1 111 0
  72 0024 FFF7FEFF 		bl	u8x8_d_helper_display_init
  73              	.LVL5:
 112:..\..\..\u8g2\u8g2\csrc/u8x8_d_pcd8544_84x48.c ****       u8x8_cad_SendSequence(u8x8, u8x8_d_pcd8544_84x48_init_seq);
  74              		.loc 1 112 0
  75 0028 2949     		ldr	r1, .L19+4
  76 002a 01E0     		b	.L17
  77              	.LVL6:
  78              	.L6:
 113:..\..\..\u8g2\u8g2\csrc/u8x8_d_pcd8544_84x48.c ****       break;
 114:..\..\..\u8g2\u8g2\csrc/u8x8_d_pcd8544_84x48.c ****     case U8X8_MSG_DISPLAY_SET_POWER_SAVE:
 115:..\..\..\u8g2\u8g2\csrc/u8x8_d_pcd8544_84x48.c ****       if ( arg_int == 0 )
  79              		.loc 1 115 0
  80 002c 32B9     		cbnz	r2, .L9
 116:..\..\..\u8g2\u8g2\csrc/u8x8_d_pcd8544_84x48.c **** 	u8x8_cad_SendSequence(u8x8, u8x8_d_pcd8544_84x48_powersave0_seq);
  81              		.loc 1 116 0
  82 002e 2949     		ldr	r1, .L19+8
  83              	.LVL7:
  84              	.L17:
  85 0030 2046     		mov	r0, r4
  86 0032 FFF7FEFF 		bl	u8x8_cad_SendSequence
  87              	.LVL8:
  88              	.L16:
 117:..\..\..\u8g2\u8g2\csrc/u8x8_d_pcd8544_84x48.c ****       else
 118:..\..\..\u8g2\u8g2\csrc/u8x8_d_pcd8544_84x48.c **** 	u8x8_cad_SendSequence(u8x8, u8x8_d_pcd8544_84x48_powersave1_seq);
 119:..\..\..\u8g2\u8g2\csrc/u8x8_d_pcd8544_84x48.c ****       break;
 120:..\..\..\u8g2\u8g2\csrc/u8x8_d_pcd8544_84x48.c ****     // case U8X8_MSG_DISPLAY_SET_FLIP_MODE:
 121:..\..\..\u8g2\u8g2\csrc/u8x8_d_pcd8544_84x48.c ****     // 	  break; 	NOT SUPPORTED
 122:..\..\..\u8g2\u8g2\csrc/u8x8_d_pcd8544_84x48.c ****       
 123:..\..\..\u8g2\u8g2\csrc/u8x8_d_pcd8544_84x48.c **** #ifdef U8X8_WITH_SET_CONTRAST
 124:..\..\..\u8g2\u8g2\csrc/u8x8_d_pcd8544_84x48.c ****     case U8X8_MSG_DISPLAY_SET_CONTRAST:
 125:..\..\..\u8g2\u8g2\csrc/u8x8_d_pcd8544_84x48.c ****       u8x8_cad_StartTransfer(u8x8);
 126:..\..\..\u8g2\u8g2\csrc/u8x8_d_pcd8544_84x48.c ****       u8x8_cad_SendCmd(u8x8, 0x021 ); /* command mode, extended function set */
 127:..\..\..\u8g2\u8g2\csrc/u8x8_d_pcd8544_84x48.c ****       u8x8_cad_SendCmd(u8x8, 0x080 | (arg_int >> 1) );
 128:..\..\..\u8g2\u8g2\csrc/u8x8_d_pcd8544_84x48.c ****       u8x8_cad_EndTransfer(u8x8);
 129:..\..\..\u8g2\u8g2\csrc/u8x8_d_pcd8544_84x48.c ****       break;
 130:..\..\..\u8g2\u8g2\csrc/u8x8_d_pcd8544_84x48.c **** #endif
 131:..\..\..\u8g2\u8g2\csrc/u8x8_d_pcd8544_84x48.c ****     case U8X8_MSG_DISPLAY_DRAW_TILE:
 132:..\..\..\u8g2\u8g2\csrc/u8x8_d_pcd8544_84x48.c ****       u8x8_cad_StartTransfer(u8x8);
 133:..\..\..\u8g2\u8g2\csrc/u8x8_d_pcd8544_84x48.c ****     
 134:..\..\..\u8g2\u8g2\csrc/u8x8_d_pcd8544_84x48.c ****       x = ((u8x8_tile_t *)arg_ptr)->x_pos;
 135:..\..\..\u8g2\u8g2\csrc/u8x8_d_pcd8544_84x48.c ****       x *= 8;
 136:..\..\..\u8g2\u8g2\csrc/u8x8_d_pcd8544_84x48.c ****       x += u8x8->x_offset;
 137:..\..\..\u8g2\u8g2\csrc/u8x8_d_pcd8544_84x48.c ****       u8x8_cad_SendCmd(u8x8, 0x020 ); /* activate chip (PD=0), horizontal increment (V=0), enter no
 138:..\..\..\u8g2\u8g2\csrc/u8x8_d_pcd8544_84x48.c ****       u8x8_cad_SendCmd(u8x8, 0x080 | (x) );	/* set X address */
ARM GAS  C:\Users\jesse\AppData\Local\Temp\ccv4gvbh.s 			page 5


 139:..\..\..\u8g2\u8g2\csrc/u8x8_d_pcd8544_84x48.c ****       u8x8_cad_SendCmd(u8x8, 0x040 | (((u8x8_tile_t *)arg_ptr)->y_pos) );	/* set Y address */
 140:..\..\..\u8g2\u8g2\csrc/u8x8_d_pcd8544_84x48.c ****     
 141:..\..\..\u8g2\u8g2\csrc/u8x8_d_pcd8544_84x48.c ****       ptr = ((u8x8_tile_t *)arg_ptr)->tile_ptr;
 142:..\..\..\u8g2\u8g2\csrc/u8x8_d_pcd8544_84x48.c ****       c = ((u8x8_tile_t *)arg_ptr)->cnt;
 143:..\..\..\u8g2\u8g2\csrc/u8x8_d_pcd8544_84x48.c ****       c *= 8;	
 144:..\..\..\u8g2\u8g2\csrc/u8x8_d_pcd8544_84x48.c ****       do
 145:..\..\..\u8g2\u8g2\csrc/u8x8_d_pcd8544_84x48.c ****       {
 146:..\..\..\u8g2\u8g2\csrc/u8x8_d_pcd8544_84x48.c **** 	if ( c + x > 84u )
 147:..\..\..\u8g2\u8g2\csrc/u8x8_d_pcd8544_84x48.c **** 	{
 148:..\..\..\u8g2\u8g2\csrc/u8x8_d_pcd8544_84x48.c **** 	  if ( x >= 84u )
 149:..\..\..\u8g2\u8g2\csrc/u8x8_d_pcd8544_84x48.c **** 	    break;
 150:..\..\..\u8g2\u8g2\csrc/u8x8_d_pcd8544_84x48.c **** 	  c = 84u;
 151:..\..\..\u8g2\u8g2\csrc/u8x8_d_pcd8544_84x48.c **** 	  c -= x;
 152:..\..\..\u8g2\u8g2\csrc/u8x8_d_pcd8544_84x48.c **** 	}
 153:..\..\..\u8g2\u8g2\csrc/u8x8_d_pcd8544_84x48.c **** 	u8x8_cad_SendData(u8x8, c, ptr);	/* note: SendData can not handle more than 255 bytes */
 154:..\..\..\u8g2\u8g2\csrc/u8x8_d_pcd8544_84x48.c **** 	x += c;
 155:..\..\..\u8g2\u8g2\csrc/u8x8_d_pcd8544_84x48.c **** 	arg_int--;
 156:..\..\..\u8g2\u8g2\csrc/u8x8_d_pcd8544_84x48.c ****       } while( arg_int > 0 );
 157:..\..\..\u8g2\u8g2\csrc/u8x8_d_pcd8544_84x48.c ****       
 158:..\..\..\u8g2\u8g2\csrc/u8x8_d_pcd8544_84x48.c ****       u8x8_cad_EndTransfer(u8x8);
 159:..\..\..\u8g2\u8g2\csrc/u8x8_d_pcd8544_84x48.c ****       break;
 160:..\..\..\u8g2\u8g2\csrc/u8x8_d_pcd8544_84x48.c ****     default:
 161:..\..\..\u8g2\u8g2\csrc/u8x8_d_pcd8544_84x48.c ****       return 0;
 162:..\..\..\u8g2\u8g2\csrc/u8x8_d_pcd8544_84x48.c ****   }
 163:..\..\..\u8g2\u8g2\csrc/u8x8_d_pcd8544_84x48.c ****   return 1;
  89              		.loc 1 163 0
  90 0036 0120     		movs	r0, #1
  91 0038 BDE8F081 		pop	{r4, r5, r6, r7, r8, pc}
  92              	.LVL9:
  93              	.L9:
 118:..\..\..\u8g2\u8g2\csrc/u8x8_d_pcd8544_84x48.c ****       break;
  94              		.loc 1 118 0
  95 003c 2649     		ldr	r1, .L19+12
  96 003e F7E7     		b	.L17
  97              	.L7:
 125:..\..\..\u8g2\u8g2\csrc/u8x8_d_pcd8544_84x48.c ****       u8x8_cad_SendCmd(u8x8, 0x021 ); /* command mode, extended function set */
  98              		.loc 1 125 0
  99 0040 FFF7FEFF 		bl	u8x8_cad_StartTransfer
 100              	.LVL10:
 126:..\..\..\u8g2\u8g2\csrc/u8x8_d_pcd8544_84x48.c ****       u8x8_cad_SendCmd(u8x8, 0x080 | (arg_int >> 1) );
 101              		.loc 1 126 0
 102 0044 2121     		movs	r1, #33
 103 0046 2046     		mov	r0, r4
 104 0048 FFF7FEFF 		bl	u8x8_cad_SendCmd
 105              	.LVL11:
 127:..\..\..\u8g2\u8g2\csrc/u8x8_d_pcd8544_84x48.c ****       u8x8_cad_EndTransfer(u8x8);
 106              		.loc 1 127 0
 107 004c 7908     		lsrs	r1, r7, #1
 108 004e 41F08001 		orr	r1, r1, #128
 109 0052 2046     		mov	r0, r4
 110 0054 FFF7FEFF 		bl	u8x8_cad_SendCmd
 111              	.LVL12:
 112 0058 21E0     		b	.L13
 113              	.LVL13:
 114              	.L8:
 132:..\..\..\u8g2\u8g2\csrc/u8x8_d_pcd8544_84x48.c ****     
 115              		.loc 1 132 0
ARM GAS  C:\Users\jesse\AppData\Local\Temp\ccv4gvbh.s 			page 6


 116 005a FFF7FEFF 		bl	u8x8_cad_StartTransfer
 117              	.LVL14:
 136:..\..\..\u8g2\u8g2\csrc/u8x8_d_pcd8544_84x48.c ****       u8x8_cad_SendCmd(u8x8, 0x020 ); /* activate chip (PD=0), horizontal increment (V=0), enter no
 118              		.loc 1 136 0
 119 005e 94F82230 		ldrb	r3, [r4, #34]	@ zero_extendqisi2
 134:..\..\..\u8g2\u8g2\csrc/u8x8_d_pcd8544_84x48.c ****       x *= 8;
 120              		.loc 1 134 0
 121 0062 7579     		ldrb	r5, [r6, #5]	@ zero_extendqisi2
 122              	.LVL15:
 137:..\..\..\u8g2\u8g2\csrc/u8x8_d_pcd8544_84x48.c ****       u8x8_cad_SendCmd(u8x8, 0x080 | (x) );	/* set X address */
 123              		.loc 1 137 0
 124 0064 2021     		movs	r1, #32
 136:..\..\..\u8g2\u8g2\csrc/u8x8_d_pcd8544_84x48.c ****       u8x8_cad_SendCmd(u8x8, 0x020 ); /* activate chip (PD=0), horizontal increment (V=0), enter no
 125              		.loc 1 136 0
 126 0066 03EBC505 		add	r5, r3, r5, lsl #3
 127              	.LVL16:
 128 006a 05F0FF05 		and	r5, r5, #255
 129              	.LVL17:
 137:..\..\..\u8g2\u8g2\csrc/u8x8_d_pcd8544_84x48.c ****       u8x8_cad_SendCmd(u8x8, 0x080 | (x) );	/* set X address */
 130              		.loc 1 137 0
 131 006e 2046     		mov	r0, r4
 132 0070 FFF7FEFF 		bl	u8x8_cad_SendCmd
 133              	.LVL18:
 138:..\..\..\u8g2\u8g2\csrc/u8x8_d_pcd8544_84x48.c ****       u8x8_cad_SendCmd(u8x8, 0x040 | (((u8x8_tile_t *)arg_ptr)->y_pos) );	/* set Y address */
 134              		.loc 1 138 0
 135 0074 45F08001 		orr	r1, r5, #128
 136 0078 2046     		mov	r0, r4
 137 007a FFF7FEFF 		bl	u8x8_cad_SendCmd
 138              	.LVL19:
 139:..\..\..\u8g2\u8g2\csrc/u8x8_d_pcd8544_84x48.c ****     
 139              		.loc 1 139 0
 140 007e B179     		ldrb	r1, [r6, #6]	@ zero_extendqisi2
 141 0080 2046     		mov	r0, r4
 142 0082 41F04001 		orr	r1, r1, #64
 143 0086 FFF7FEFF 		bl	u8x8_cad_SendCmd
 144              	.LVL20:
 141:..\..\..\u8g2\u8g2\csrc/u8x8_d_pcd8544_84x48.c ****       c = ((u8x8_tile_t *)arg_ptr)->cnt;
 145              		.loc 1 141 0
 146 008a D6F80080 		ldr	r8, [r6]
 147              	.LVL21:
 142:..\..\..\u8g2\u8g2\csrc/u8x8_d_pcd8544_84x48.c ****       c *= 8;	
 148              		.loc 1 142 0
 149 008e 3679     		ldrb	r6, [r6, #4]	@ zero_extendqisi2
 150              	.LVL22:
 143:..\..\..\u8g2\u8g2\csrc/u8x8_d_pcd8544_84x48.c ****       do
 151              		.loc 1 143 0
 152 0090 F600     		lsls	r6, r6, #3
 153              	.LVL23:
 154 0092 F6B2     		uxtb	r6, r6
 155              	.LVL24:
 156              	.L12:
 146:..\..\..\u8g2\u8g2\csrc/u8x8_d_pcd8544_84x48.c **** 	{
 157              		.loc 1 146 0
 158 0094 7319     		adds	r3, r6, r5
 159 0096 542B     		cmp	r3, #84
 160 0098 08DD     		ble	.L10
 148:..\..\..\u8g2\u8g2\csrc/u8x8_d_pcd8544_84x48.c **** 	    break;
ARM GAS  C:\Users\jesse\AppData\Local\Temp\ccv4gvbh.s 			page 7


 161              		.loc 1 148 0
 162 009a 532D     		cmp	r5, #83
 163 009c 03D9     		bls	.L11
 164              	.LVL25:
 165              	.L13:
 158:..\..\..\u8g2\u8g2\csrc/u8x8_d_pcd8544_84x48.c ****       break;
 166              		.loc 1 158 0
 167 009e 2046     		mov	r0, r4
 168 00a0 FFF7FEFF 		bl	u8x8_cad_EndTransfer
 169              	.LVL26:
 170 00a4 C7E7     		b	.L16
 171              	.LVL27:
 172              	.L11:
 151:..\..\..\u8g2\u8g2\csrc/u8x8_d_pcd8544_84x48.c **** 	}
 173              		.loc 1 151 0
 174 00a6 C5F15406 		rsb	r6, r5, #84
 175 00aa F6B2     		uxtb	r6, r6
 176              	.LVL28:
 177              	.L10:
 153:..\..\..\u8g2\u8g2\csrc/u8x8_d_pcd8544_84x48.c **** 	x += c;
 178              		.loc 1 153 0
 179 00ac 4246     		mov	r2, r8
 180 00ae 3146     		mov	r1, r6
 181 00b0 2046     		mov	r0, r4
 155:..\..\..\u8g2\u8g2\csrc/u8x8_d_pcd8544_84x48.c ****       } while( arg_int > 0 );
 182              		.loc 1 155 0
 183 00b2 013F     		subs	r7, r7, #1
 184              	.LVL29:
 153:..\..\..\u8g2\u8g2\csrc/u8x8_d_pcd8544_84x48.c **** 	x += c;
 185              		.loc 1 153 0
 186 00b4 FFF7FEFF 		bl	u8x8_cad_SendData
 187              	.LVL30:
 154:..\..\..\u8g2\u8g2\csrc/u8x8_d_pcd8544_84x48.c **** 	arg_int--;
 188              		.loc 1 154 0
 189 00b8 3544     		add	r5, r5, r6
 190              	.LVL31:
 156:..\..\..\u8g2\u8g2\csrc/u8x8_d_pcd8544_84x48.c ****       
 191              		.loc 1 156 0
 192 00ba 17F0FF07 		ands	r7, r7, #255
 154:..\..\..\u8g2\u8g2\csrc/u8x8_d_pcd8544_84x48.c **** 	arg_int--;
 193              		.loc 1 154 0
 194 00be EDB2     		uxtb	r5, r5
 195              	.LVL32:
 156:..\..\..\u8g2\u8g2\csrc/u8x8_d_pcd8544_84x48.c ****       
 196              		.loc 1 156 0
 197 00c0 E8D1     		bne	.L12
 198 00c2 ECE7     		b	.L13
 199              	.LVL33:
 200              	.L14:
 161:..\..\..\u8g2\u8g2\csrc/u8x8_d_pcd8544_84x48.c ****   }
 201              		.loc 1 161 0
 202 00c4 0020     		movs	r0, #0
 203              	.LVL34:
 164:..\..\..\u8g2\u8g2\csrc/u8x8_d_pcd8544_84x48.c **** }
 204              		.loc 1 164 0
 205 00c6 BDE8F081 		pop	{r4, r5, r6, r7, r8, pc}
 206              	.LVL35:
ARM GAS  C:\Users\jesse\AppData\Local\Temp\ccv4gvbh.s 			page 8


 207              	.L20:
 208 00ca 00BF     		.align	2
 209              	.L19:
 210 00cc 00000000 		.word	.LANCHOR0
 211 00d0 18000000 		.word	.LANCHOR0+24
 212 00d4 29000000 		.word	.LANCHOR0+41
 213 00d8 30000000 		.word	.LANCHOR0+48
 214              		.cfi_endproc
 215              	.LFE0:
 216              		.size	u8x8_d_pcd8544_84x48, .-u8x8_d_pcd8544_84x48
 217              		.section	.rodata
 218              		.align	2
 219              		.set	.LANCHOR0,. + 0
 220              		.type	u8x8_pcd8544_84x48_display_info, %object
 221              		.size	u8x8_pcd8544_84x48_display_info, 24
 222              	u8x8_pcd8544_84x48_display_info:
 223 0000 00       		.byte	0
 224 0001 01       		.byte	1
 225 0002 05       		.byte	5
 226 0003 05       		.byte	5
 227 0004 02       		.byte	2
 228 0005 02       		.byte	2
 229 0006 0C       		.byte	12
 230 0007 4B       		.byte	75
 231 0008 00093D00 		.word	4000000
 232 000c 00       		.byte	0
 233 000d 04       		.byte	4
 234 000e 1E       		.byte	30
 235 000f 28       		.byte	40
 236 0010 0B       		.byte	11
 237 0011 06       		.byte	6
 238 0012 00       		.byte	0
 239 0013 00       		.byte	0
 240 0014 5400     		.short	84
 241 0016 3000     		.short	48
 242              		.type	u8x8_d_pcd8544_84x48_init_seq, %object
 243              		.size	u8x8_d_pcd8544_84x48_init_seq, 17
 244              	u8x8_d_pcd8544_84x48_init_seq:
 245 0018 18       		.byte	24
 246 0019 15       		.byte	21
 247 001a 21       		.byte	33
 248 001b 15       		.byte	21
 249 001c 06       		.byte	6
 250 001d 15       		.byte	21
 251 001e 13       		.byte	19
 252 001f 15       		.byte	21
 253 0020 C0       		.byte	-64
 254 0021 15       		.byte	21
 255 0022 20       		.byte	32
 256 0023 15       		.byte	21
 257 0024 08       		.byte	8
 258 0025 15       		.byte	21
 259 0026 24       		.byte	36
 260 0027 19       		.byte	25
 261 0028 FF       		.byte	-1
 262              		.type	u8x8_d_pcd8544_84x48_powersave0_seq, %object
 263              		.size	u8x8_d_pcd8544_84x48_powersave0_seq, 7
ARM GAS  C:\Users\jesse\AppData\Local\Temp\ccv4gvbh.s 			page 9


 264              	u8x8_d_pcd8544_84x48_powersave0_seq:
 265 0029 18       		.byte	24
 266 002a 15       		.byte	21
 267 002b 20       		.byte	32
 268 002c 15       		.byte	21
 269 002d 0C       		.byte	12
 270 002e 19       		.byte	25
 271 002f FF       		.byte	-1
 272              		.type	u8x8_d_pcd8544_84x48_powersave1_seq, %object
 273              		.size	u8x8_d_pcd8544_84x48_powersave1_seq, 9
 274              	u8x8_d_pcd8544_84x48_powersave1_seq:
 275 0030 18       		.byte	24
 276 0031 15       		.byte	21
 277 0032 20       		.byte	32
 278 0033 15       		.byte	21
 279 0034 08       		.byte	8
 280 0035 15       		.byte	21
 281 0036 24       		.byte	36
 282 0037 19       		.byte	25
 283 0038 FF       		.byte	-1
 284              		.text
 285              	.Letext0:
 286              		.file 2 "c:\\program files (x86)\\cypress\\psoc creator\\4.4\\psoc creator\\import\\gnu\\arm\\5.4.
 287              		.file 3 "c:\\program files (x86)\\cypress\\psoc creator\\4.4\\psoc creator\\import\\gnu\\arm\\5.4.
 288              		.file 4 "..\\..\\..\\u8g2\\u8g2\\csrc\\u8x8.h"