ARM GAS  C:\Users\jesse\AppData\Local\Temp\ccdqic9G.s 			page 1


   1              		.syntax unified
   2              		.cpu cortex-m3
   3              		.fpu softvfp
   4              		.eabi_attribute 20, 1
   5              		.eabi_attribute 21, 1
   6              		.eabi_attribute 23, 3
   7              		.eabi_attribute 24, 1
   8              		.eabi_attribute 25, 1
   9              		.eabi_attribute 26, 1
  10              		.eabi_attribute 30, 4
  11              		.eabi_attribute 34, 1
  12              		.eabi_attribute 18, 4
  13              		.thumb
  14              		.syntax unified
  15              		.file	"u8x8_d_ssd1607_200x200.c"
  16              		.text
  17              	.Ltext0:
  18              		.cfi_sections	.debug_frame
  19              		.section	.text.u8x8_d_ssd1607_200x200_first_init,"ax",%progbits
  20              		.align	1
  21              		.thumb
  22              		.thumb_func
  23              		.type	u8x8_d_ssd1607_200x200_first_init, %function
  24              	u8x8_d_ssd1607_200x200_first_init:
  25              	.LFB0:
  26              		.file 1 "..\\..\\..\\u8g2\\u8g2\\csrc\\u8x8_d_ssd1607_200x200.c"
   1:..\..\..\u8g2\u8g2\csrc/u8x8_d_ssd1607_200x200.c **** /*
   2:..\..\..\u8g2\u8g2\csrc/u8x8_d_ssd1607_200x200.c **** 
   3:..\..\..\u8g2\u8g2\csrc/u8x8_d_ssd1607_200x200.c ****   u8x8_d_ssd1607_200x200.c
   4:..\..\..\u8g2\u8g2\csrc/u8x8_d_ssd1607_200x200.c **** 
   5:..\..\..\u8g2\u8g2\csrc/u8x8_d_ssd1607_200x200.c ****   Universal 8bit Graphics Library (https://github.com/olikraus/u8g2/)
   6:..\..\..\u8g2\u8g2\csrc/u8x8_d_ssd1607_200x200.c **** 
   7:..\..\..\u8g2\u8g2\csrc/u8x8_d_ssd1607_200x200.c ****   Copyright (c) 2016, olikraus@gmail.com
   8:..\..\..\u8g2\u8g2\csrc/u8x8_d_ssd1607_200x200.c ****   All rights reserved.
   9:..\..\..\u8g2\u8g2\csrc/u8x8_d_ssd1607_200x200.c **** 
  10:..\..\..\u8g2\u8g2\csrc/u8x8_d_ssd1607_200x200.c ****   Redistribution and use in source and binary forms, with or without modification, 
  11:..\..\..\u8g2\u8g2\csrc/u8x8_d_ssd1607_200x200.c ****   are permitted provided that the following conditions are met:
  12:..\..\..\u8g2\u8g2\csrc/u8x8_d_ssd1607_200x200.c **** 
  13:..\..\..\u8g2\u8g2\csrc/u8x8_d_ssd1607_200x200.c ****   * Redistributions of source code must retain the above copyright notice, this list 
  14:..\..\..\u8g2\u8g2\csrc/u8x8_d_ssd1607_200x200.c ****     of conditions and the following disclaimer.
  15:..\..\..\u8g2\u8g2\csrc/u8x8_d_ssd1607_200x200.c ****     
  16:..\..\..\u8g2\u8g2\csrc/u8x8_d_ssd1607_200x200.c ****   * Redistributions in binary form must reproduce the above copyright notice, this 
  17:..\..\..\u8g2\u8g2\csrc/u8x8_d_ssd1607_200x200.c ****     list of conditions and the following disclaimer in the documentation and/or other 
  18:..\..\..\u8g2\u8g2\csrc/u8x8_d_ssd1607_200x200.c ****     materials provided with the distribution.
  19:..\..\..\u8g2\u8g2\csrc/u8x8_d_ssd1607_200x200.c **** 
  20:..\..\..\u8g2\u8g2\csrc/u8x8_d_ssd1607_200x200.c ****   THIS SOFTWARE IS PROVIDED BY THE COPYRIGHT HOLDERS AND 
  21:..\..\..\u8g2\u8g2\csrc/u8x8_d_ssd1607_200x200.c ****   CONTRIBUTORS "AS IS" AND ANY EXPRESS OR IMPLIED WARRANTIES, 
  22:..\..\..\u8g2\u8g2\csrc/u8x8_d_ssd1607_200x200.c ****   INCLUDING, BUT NOT LIMITED TO, THE IMPLIED WARRANTIES OF 
  23:..\..\..\u8g2\u8g2\csrc/u8x8_d_ssd1607_200x200.c ****   MERCHANTABILITY AND FITNESS FOR A PARTICULAR PURPOSE ARE 
  24:..\..\..\u8g2\u8g2\csrc/u8x8_d_ssd1607_200x200.c ****   DISCLAIMED. IN NO EVENT SHALL THE COPYRIGHT HOLDER OR 
  25:..\..\..\u8g2\u8g2\csrc/u8x8_d_ssd1607_200x200.c ****   CONTRIBUTORS BE LIABLE FOR ANY DIRECT, INDIRECT, INCIDENTAL, 
  26:..\..\..\u8g2\u8g2\csrc/u8x8_d_ssd1607_200x200.c ****   SPECIAL, EXEMPLARY, OR CONSEQUENTIAL DAMAGES (INCLUDING, BUT 
  27:..\..\..\u8g2\u8g2\csrc/u8x8_d_ssd1607_200x200.c ****   NOT LIMITED TO, PROCUREMENT OF SUBSTITUTE GOODS OR SERVICES; 
  28:..\..\..\u8g2\u8g2\csrc/u8x8_d_ssd1607_200x200.c ****   LOSS OF USE, DATA, OR PROFITS; OR BUSINESS INTERRUPTION) HOWEVER 
  29:..\..\..\u8g2\u8g2\csrc/u8x8_d_ssd1607_200x200.c ****   CAUSED AND ON ANY THEORY OF LIABILITY, WHETHER IN CONTRACT, 
  30:..\..\..\u8g2\u8g2\csrc/u8x8_d_ssd1607_200x200.c ****   STRICT LIABILITY, OR TORT (INCLUDING NEGLIGENCE OR OTHERWISE) 
  31:..\..\..\u8g2\u8g2\csrc/u8x8_d_ssd1607_200x200.c ****   ARISING IN ANY WAY OUT OF THE USE OF THIS SOFTWARE, EVEN IF 
ARM GAS  C:\Users\jesse\AppData\Local\Temp\ccdqic9G.s 			page 2


  32:..\..\..\u8g2\u8g2\csrc/u8x8_d_ssd1607_200x200.c ****   ADVISED OF THE POSSIBILITY OF SUCH DAMAGE.  
  33:..\..\..\u8g2\u8g2\csrc/u8x8_d_ssd1607_200x200.c ****   
  34:..\..\..\u8g2\u8g2\csrc/u8x8_d_ssd1607_200x200.c ****   SSD1607: 200x300x1
  35:..\..\..\u8g2\u8g2\csrc/u8x8_d_ssd1607_200x200.c ****   
  36:..\..\..\u8g2\u8g2\csrc/u8x8_d_ssd1607_200x200.c ****   command 
  37:..\..\..\u8g2\u8g2\csrc/u8x8_d_ssd1607_200x200.c ****     0x22: assign actions
  38:..\..\..\u8g2\u8g2\csrc/u8x8_d_ssd1607_200x200.c ****     0x20: execute actions
  39:..\..\..\u8g2\u8g2\csrc/u8x8_d_ssd1607_200x200.c ****   
  40:..\..\..\u8g2\u8g2\csrc/u8x8_d_ssd1607_200x200.c ****   action for command 0x022 are (more or less guessed)
  41:..\..\..\u8g2\u8g2\csrc/u8x8_d_ssd1607_200x200.c ****     bit 7:	Enable Clock
  42:..\..\..\u8g2\u8g2\csrc/u8x8_d_ssd1607_200x200.c ****     bit 6:	Enable Charge Pump
  43:..\..\..\u8g2\u8g2\csrc/u8x8_d_ssd1607_200x200.c ****     bit 5:	Load Temparture Value (???)
  44:..\..\..\u8g2\u8g2\csrc/u8x8_d_ssd1607_200x200.c ****     bit 4:	Load LUT (???)
  45:..\..\..\u8g2\u8g2\csrc/u8x8_d_ssd1607_200x200.c ****     bit 3:	Initial Display (???)
  46:..\..\..\u8g2\u8g2\csrc/u8x8_d_ssd1607_200x200.c ****     bit 2:	Pattern Display --> Requires about 945ms with the LUT from below
  47:..\..\..\u8g2\u8g2\csrc/u8x8_d_ssd1607_200x200.c ****     bit 1:	Disable Charge Pump
  48:..\..\..\u8g2\u8g2\csrc/u8x8_d_ssd1607_200x200.c ****     bit 0:	Disable Clock
  49:..\..\..\u8g2\u8g2\csrc/u8x8_d_ssd1607_200x200.c ****     
  50:..\..\..\u8g2\u8g2\csrc/u8x8_d_ssd1607_200x200.c ****     Disable Charge Pump and Clock require about 267ms
  51:..\..\..\u8g2\u8g2\csrc/u8x8_d_ssd1607_200x200.c ****     Enable Charge Pump and Clock require about 10ms
  52:..\..\..\u8g2\u8g2\csrc/u8x8_d_ssd1607_200x200.c **** 
  53:..\..\..\u8g2\u8g2\csrc/u8x8_d_ssd1607_200x200.c ****   Notes:
  54:..\..\..\u8g2\u8g2\csrc/u8x8_d_ssd1607_200x200.c ****     - Introduced a refresh display message, which copies RAM to display
  55:..\..\..\u8g2\u8g2\csrc/u8x8_d_ssd1607_200x200.c ****     - Charge pump and clock are only enabled for the transfer RAM to display
  56:..\..\..\u8g2\u8g2\csrc/u8x8_d_ssd1607_200x200.c ****     - U8x8 will not really work because of the two buffers in the SSD1606, however U8g2 should be o
  57:..\..\..\u8g2\u8g2\csrc/u8x8_d_ssd1607_200x200.c **** 
  58:..\..\..\u8g2\u8g2\csrc/u8x8_d_ssd1607_200x200.c **** */
  59:..\..\..\u8g2\u8g2\csrc/u8x8_d_ssd1607_200x200.c **** 
  60:..\..\..\u8g2\u8g2\csrc/u8x8_d_ssd1607_200x200.c **** 
  61:..\..\..\u8g2\u8g2\csrc/u8x8_d_ssd1607_200x200.c **** #include "u8x8.h"
  62:..\..\..\u8g2\u8g2\csrc/u8x8_d_ssd1607_200x200.c **** 
  63:..\..\..\u8g2\u8g2\csrc/u8x8_d_ssd1607_200x200.c **** /*=================================================*/
  64:..\..\..\u8g2\u8g2\csrc/u8x8_d_ssd1607_200x200.c **** 
  65:..\..\..\u8g2\u8g2\csrc/u8x8_d_ssd1607_200x200.c **** static const u8x8_display_info_t u8x8_ssd1607_200x200_display_info =
  66:..\..\..\u8g2\u8g2\csrc/u8x8_d_ssd1607_200x200.c **** {
  67:..\..\..\u8g2\u8g2\csrc/u8x8_d_ssd1607_200x200.c ****   /* chip_enable_level = */ 0,
  68:..\..\..\u8g2\u8g2\csrc/u8x8_d_ssd1607_200x200.c ****   /* chip_disable_level = */ 1,
  69:..\..\..\u8g2\u8g2\csrc/u8x8_d_ssd1607_200x200.c ****   
  70:..\..\..\u8g2\u8g2\csrc/u8x8_d_ssd1607_200x200.c ****   /* values from SSD1606 */
  71:..\..\..\u8g2\u8g2\csrc/u8x8_d_ssd1607_200x200.c ****   /* post_chip_enable_wait_ns = */ 120,
  72:..\..\..\u8g2\u8g2\csrc/u8x8_d_ssd1607_200x200.c ****   /* pre_chip_disable_wait_ns = */ 60,
  73:..\..\..\u8g2\u8g2\csrc/u8x8_d_ssd1607_200x200.c ****   /* reset_pulse_width_ms = */ 100, 	
  74:..\..\..\u8g2\u8g2\csrc/u8x8_d_ssd1607_200x200.c ****   /* post_reset_wait_ms = */ 100, 
  75:..\..\..\u8g2\u8g2\csrc/u8x8_d_ssd1607_200x200.c ****   /* sda_setup_time_ns = */ 50,		/* SSD1606: */
  76:..\..\..\u8g2\u8g2\csrc/u8x8_d_ssd1607_200x200.c ****   /* sck_pulse_width_ns = */ 100,	/* SSD1606: 100ns */
  77:..\..\..\u8g2\u8g2\csrc/u8x8_d_ssd1607_200x200.c ****   /* sck_clock_hz = */ 4000000UL,	/* since Arduino 1.6.0, the SPI bus speed in Hz. Should be  10000
  78:..\..\..\u8g2\u8g2\csrc/u8x8_d_ssd1607_200x200.c ****   /* spi_mode = */ 0,		/* active high, rising edge */
  79:..\..\..\u8g2\u8g2\csrc/u8x8_d_ssd1607_200x200.c ****   /* i2c_bus_clock_100kHz = */ 4,
  80:..\..\..\u8g2\u8g2\csrc/u8x8_d_ssd1607_200x200.c ****   /* data_setup_time_ns = */ 40,
  81:..\..\..\u8g2\u8g2\csrc/u8x8_d_ssd1607_200x200.c ****   /* write_pulse_width_ns = */ 150,	
  82:..\..\..\u8g2\u8g2\csrc/u8x8_d_ssd1607_200x200.c ****   /* tile_width = */ 25,		/* 25*8 = 200 */
  83:..\..\..\u8g2\u8g2\csrc/u8x8_d_ssd1607_200x200.c ****   /* tile_hight = */ 25,		
  84:..\..\..\u8g2\u8g2\csrc/u8x8_d_ssd1607_200x200.c ****   /* default_x_offset = */ 0,
  85:..\..\..\u8g2\u8g2\csrc/u8x8_d_ssd1607_200x200.c ****   /* flipmode_x_offset = */ 0,
  86:..\..\..\u8g2\u8g2\csrc/u8x8_d_ssd1607_200x200.c ****   /* pixel_width = */ 200,
  87:..\..\..\u8g2\u8g2\csrc/u8x8_d_ssd1607_200x200.c ****   /* pixel_height = */ 200		
  88:..\..\..\u8g2\u8g2\csrc/u8x8_d_ssd1607_200x200.c **** };
ARM GAS  C:\Users\jesse\AppData\Local\Temp\ccdqic9G.s 			page 3


  89:..\..\..\u8g2\u8g2\csrc/u8x8_d_ssd1607_200x200.c **** 
  90:..\..\..\u8g2\u8g2\csrc/u8x8_d_ssd1607_200x200.c **** 
  91:..\..\..\u8g2\u8g2\csrc/u8x8_d_ssd1607_200x200.c **** static const uint8_t u8x8_d_ssd1607_200x200_powersave0_seq[] = {
  92:..\..\..\u8g2\u8g2\csrc/u8x8_d_ssd1607_200x200.c ****   U8X8_START_TRANSFER(),             	/* enable chip, delay is part of the transfer start */
  93:..\..\..\u8g2\u8g2\csrc/u8x8_d_ssd1607_200x200.c ****   U8X8_CA(0x22, 0xc0),			/* enable clock and charge pump */
  94:..\..\..\u8g2\u8g2\csrc/u8x8_d_ssd1607_200x200.c ****   U8X8_C(0x20),				/* execute sequence */  
  95:..\..\..\u8g2\u8g2\csrc/u8x8_d_ssd1607_200x200.c ****   U8X8_DLY(200),				/* according to my measures it may take up to 150ms */
  96:..\..\..\u8g2\u8g2\csrc/u8x8_d_ssd1607_200x200.c ****   U8X8_DLY(100),				/* but it might take longer */
  97:..\..\..\u8g2\u8g2\csrc/u8x8_d_ssd1607_200x200.c ****   U8X8_END_TRANSFER(),             	/* disable chip */
  98:..\..\..\u8g2\u8g2\csrc/u8x8_d_ssd1607_200x200.c ****   U8X8_END()             			/* end of sequence */
  99:..\..\..\u8g2\u8g2\csrc/u8x8_d_ssd1607_200x200.c **** };
 100:..\..\..\u8g2\u8g2\csrc/u8x8_d_ssd1607_200x200.c **** 
 101:..\..\..\u8g2\u8g2\csrc/u8x8_d_ssd1607_200x200.c **** static const uint8_t u8x8_d_ssd1607_200x200_powersave1_seq[] = {
 102:..\..\..\u8g2\u8g2\csrc/u8x8_d_ssd1607_200x200.c ****   U8X8_START_TRANSFER(),             	/* enable chip, delay is part of the transfer start */  
 103:..\..\..\u8g2\u8g2\csrc/u8x8_d_ssd1607_200x200.c ****   /* disable clock and charge pump only, deep sleep is not entered, because we will loose RAM conte
 104:..\..\..\u8g2\u8g2\csrc/u8x8_d_ssd1607_200x200.c ****   U8X8_CA(0x22, 0x02),			/* only disable charge pump, HW reset seems to be required if the clock is
 105:..\..\..\u8g2\u8g2\csrc/u8x8_d_ssd1607_200x200.c ****   U8X8_C(0x20),				/* execute sequence */  
 106:..\..\..\u8g2\u8g2\csrc/u8x8_d_ssd1607_200x200.c ****   U8X8_DLY(20),
 107:..\..\..\u8g2\u8g2\csrc/u8x8_d_ssd1607_200x200.c ****   U8X8_END_TRANSFER(),             	/* disable chip */
 108:..\..\..\u8g2\u8g2\csrc/u8x8_d_ssd1607_200x200.c ****   U8X8_END()             			/* end of sequence */
 109:..\..\..\u8g2\u8g2\csrc/u8x8_d_ssd1607_200x200.c **** };
 110:..\..\..\u8g2\u8g2\csrc/u8x8_d_ssd1607_200x200.c **** 
 111:..\..\..\u8g2\u8g2\csrc/u8x8_d_ssd1607_200x200.c **** 
 112:..\..\..\u8g2\u8g2\csrc/u8x8_d_ssd1607_200x200.c **** static const uint8_t u8x8_d_ssd1607_200x200_exec_1000dly_seq[] = {
 113:..\..\..\u8g2\u8g2\csrc/u8x8_d_ssd1607_200x200.c ****   // assumes, that the start transfer has happend
 114:..\..\..\u8g2\u8g2\csrc/u8x8_d_ssd1607_200x200.c ****   U8X8_CA(0x22, 0x04),	/* display update seq. option: pattern display */
 115:..\..\..\u8g2\u8g2\csrc/u8x8_d_ssd1607_200x200.c ****   U8X8_C(0x20),	/* execute sequence */
 116:..\..\..\u8g2\u8g2\csrc/u8x8_d_ssd1607_200x200.c ****   U8X8_DLY(250),
 117:..\..\..\u8g2\u8g2\csrc/u8x8_d_ssd1607_200x200.c ****   U8X8_DLY(250),
 118:..\..\..\u8g2\u8g2\csrc/u8x8_d_ssd1607_200x200.c ****   U8X8_DLY(250),
 119:..\..\..\u8g2\u8g2\csrc/u8x8_d_ssd1607_200x200.c ****   U8X8_DLY(250),
 120:..\..\..\u8g2\u8g2\csrc/u8x8_d_ssd1607_200x200.c ****   U8X8_END_TRANSFER(),             	/* disable chip */
 121:..\..\..\u8g2\u8g2\csrc/u8x8_d_ssd1607_200x200.c ****   U8X8_END()             			/* end of sequence */
 122:..\..\..\u8g2\u8g2\csrc/u8x8_d_ssd1607_200x200.c **** };
 123:..\..\..\u8g2\u8g2\csrc/u8x8_d_ssd1607_200x200.c **** 
 124:..\..\..\u8g2\u8g2\csrc/u8x8_d_ssd1607_200x200.c **** 
 125:..\..\..\u8g2\u8g2\csrc/u8x8_d_ssd1607_200x200.c **** static void u8x8_d_ssd1607_200x200_first_init(u8x8_t *u8x8)
 126:..\..\..\u8g2\u8g2\csrc/u8x8_d_ssd1607_200x200.c **** {
  27              		.loc 1 126 0
  28              		.cfi_startproc
  29              		@ args = 0, pretend = 0, frame = 0
  30              		@ frame_needed = 0, uses_anonymous_args = 0
  31              	.LVL0:
  32 0000 10B5     		push	{r4, lr}
  33              		.cfi_def_cfa_offset 8
  34              		.cfi_offset 4, -8
  35              		.cfi_offset 14, -4
  36              		.loc 1 126 0
  37 0002 0446     		mov	r4, r0
 127:..\..\..\u8g2\u8g2\csrc/u8x8_d_ssd1607_200x200.c ****       u8x8_ClearDisplay(u8x8);
  38              		.loc 1 127 0
  39 0004 FFF7FEFF 		bl	u8x8_ClearDisplay
  40              	.LVL1:
 128:..\..\..\u8g2\u8g2\csrc/u8x8_d_ssd1607_200x200.c ****   
 129:..\..\..\u8g2\u8g2\csrc/u8x8_d_ssd1607_200x200.c ****       u8x8_cad_StartTransfer(u8x8);
  41              		.loc 1 129 0
  42 0008 2046     		mov	r0, r4
ARM GAS  C:\Users\jesse\AppData\Local\Temp\ccdqic9G.s 			page 4


  43 000a FFF7FEFF 		bl	u8x8_cad_StartTransfer
  44              	.LVL2:
 130:..\..\..\u8g2\u8g2\csrc/u8x8_d_ssd1607_200x200.c ****       u8x8_cad_SendCmd(u8x8, 0x032);		// program update sequence
  45              		.loc 1 130 0
  46 000e 3221     		movs	r1, #50
  47 0010 2046     		mov	r0, r4
  48 0012 FFF7FEFF 		bl	u8x8_cad_SendCmd
  49              	.LVL3:
 131:..\..\..\u8g2\u8g2\csrc/u8x8_d_ssd1607_200x200.c ****       u8x8_cad_SendMultipleArg(u8x8, 8, 0x055);		// all black
  50              		.loc 1 131 0
  51 0016 5522     		movs	r2, #85
  52 0018 0821     		movs	r1, #8
  53 001a 2046     		mov	r0, r4
  54 001c FFF7FEFF 		bl	u8x8_cad_SendMultipleArg
  55              	.LVL4:
 132:..\..\..\u8g2\u8g2\csrc/u8x8_d_ssd1607_200x200.c ****       u8x8_cad_SendMultipleArg(u8x8, 12, 0x0aa);		// all white
  56              		.loc 1 132 0
  57 0020 AA22     		movs	r2, #170
  58 0022 0C21     		movs	r1, #12
  59 0024 2046     		mov	r0, r4
  60 0026 FFF7FEFF 		bl	u8x8_cad_SendMultipleArg
  61              	.LVL5:
 133:..\..\..\u8g2\u8g2\csrc/u8x8_d_ssd1607_200x200.c ****       u8x8_cad_SendMultipleArg(u8x8, 10, 0x022);		// 830ms
  62              		.loc 1 133 0
  63 002a 0A21     		movs	r1, #10
  64 002c 2046     		mov	r0, r4
  65 002e 2222     		movs	r2, #34
  66 0030 FFF7FEFF 		bl	u8x8_cad_SendMultipleArg
  67              	.LVL6:
 134:..\..\..\u8g2\u8g2\csrc/u8x8_d_ssd1607_200x200.c ****       u8x8_cad_SendSequence(u8x8, u8x8_d_ssd1607_200x200_exec_1000dly_seq);
  68              		.loc 1 134 0
  69 0034 2046     		mov	r0, r4
 135:..\..\..\u8g2\u8g2\csrc/u8x8_d_ssd1607_200x200.c ****   
 136:..\..\..\u8g2\u8g2\csrc/u8x8_d_ssd1607_200x200.c **** }
  70              		.loc 1 136 0
  71 0036 BDE81040 		pop	{r4, lr}
  72              		.cfi_restore 14
  73              		.cfi_restore 4
  74              		.cfi_def_cfa_offset 0
  75              	.LVL7:
 134:..\..\..\u8g2\u8g2\csrc/u8x8_d_ssd1607_200x200.c ****       u8x8_cad_SendSequence(u8x8, u8x8_d_ssd1607_200x200_exec_1000dly_seq);
  76              		.loc 1 134 0
  77 003a 0149     		ldr	r1, .L2
  78 003c FFF7FEBF 		b	u8x8_cad_SendSequence
  79              	.LVL8:
  80              	.L3:
  81              		.align	2
  82              	.L2:
  83 0040 00000000 		.word	.LANCHOR0
  84              		.cfi_endproc
  85              	.LFE0:
  86              		.size	u8x8_d_ssd1607_200x200_first_init, .-u8x8_d_ssd1607_200x200_first_init
  87              		.section	.text.u8x8_d_ssd1607_draw_tile,"ax",%progbits
  88              		.align	1
  89              		.thumb
  90              		.thumb_func
  91              		.type	u8x8_d_ssd1607_draw_tile, %function
ARM GAS  C:\Users\jesse\AppData\Local\Temp\ccdqic9G.s 			page 5


  92              	u8x8_d_ssd1607_draw_tile:
  93              	.LFB2:
 137:..\..\..\u8g2\u8g2\csrc/u8x8_d_ssd1607_200x200.c **** 
 138:..\..\..\u8g2\u8g2\csrc/u8x8_d_ssd1607_200x200.c **** static uint8_t *u8x8_convert_tile_for_ssd1607(uint8_t *t)
 139:..\..\..\u8g2\u8g2\csrc/u8x8_d_ssd1607_200x200.c **** {
 140:..\..\..\u8g2\u8g2\csrc/u8x8_d_ssd1607_200x200.c ****   uint8_t i;
 141:..\..\..\u8g2\u8g2\csrc/u8x8_d_ssd1607_200x200.c ****   static uint8_t buf[8];
 142:..\..\..\u8g2\u8g2\csrc/u8x8_d_ssd1607_200x200.c ****   uint8_t *pbuf = buf;
 143:..\..\..\u8g2\u8g2\csrc/u8x8_d_ssd1607_200x200.c **** 
 144:..\..\..\u8g2\u8g2\csrc/u8x8_d_ssd1607_200x200.c ****   for( i = 0; i < 8; i++ )
 145:..\..\..\u8g2\u8g2\csrc/u8x8_d_ssd1607_200x200.c ****   {
 146:..\..\..\u8g2\u8g2\csrc/u8x8_d_ssd1607_200x200.c ****     *pbuf++ = ~(*t++);
 147:..\..\..\u8g2\u8g2\csrc/u8x8_d_ssd1607_200x200.c ****   }
 148:..\..\..\u8g2\u8g2\csrc/u8x8_d_ssd1607_200x200.c ****   return buf;
 149:..\..\..\u8g2\u8g2\csrc/u8x8_d_ssd1607_200x200.c **** }
 150:..\..\..\u8g2\u8g2\csrc/u8x8_d_ssd1607_200x200.c **** 
 151:..\..\..\u8g2\u8g2\csrc/u8x8_d_ssd1607_200x200.c **** static void u8x8_d_ssd1607_draw_tile(u8x8_t *u8x8, uint8_t arg_int, void *arg_ptr) U8X8_NOINLINE;
 152:..\..\..\u8g2\u8g2\csrc/u8x8_d_ssd1607_200x200.c **** static void u8x8_d_ssd1607_draw_tile(u8x8_t *u8x8, uint8_t arg_int, void *arg_ptr)
 153:..\..\..\u8g2\u8g2\csrc/u8x8_d_ssd1607_200x200.c **** {
  94              		.loc 1 153 0
  95              		.cfi_startproc
  96              		@ args = 0, pretend = 0, frame = 0
  97              		@ frame_needed = 0, uses_anonymous_args = 0
  98              	.LVL9:
  99 0000 2DE9F843 		push	{r3, r4, r5, r6, r7, r8, r9, lr}
 100              		.cfi_def_cfa_offset 32
 101              		.cfi_offset 3, -32
 102              		.cfi_offset 4, -28
 103              		.cfi_offset 5, -24
 104              		.cfi_offset 6, -20
 105              		.cfi_offset 7, -16
 106              		.cfi_offset 8, -12
 107              		.cfi_offset 9, -8
 108              		.cfi_offset 14, -4
 109              		.loc 1 153 0
 110 0004 0446     		mov	r4, r0
 111 0006 9046     		mov	r8, r2
 112 0008 0F46     		mov	r7, r1
 154:..\..\..\u8g2\u8g2\csrc/u8x8_d_ssd1607_200x200.c ****   uint16_t x;
 155:..\..\..\u8g2\u8g2\csrc/u8x8_d_ssd1607_200x200.c ****   uint8_t c, page;
 156:..\..\..\u8g2\u8g2\csrc/u8x8_d_ssd1607_200x200.c ****   uint8_t *ptr;
 157:..\..\..\u8g2\u8g2\csrc/u8x8_d_ssd1607_200x200.c ****   u8x8_cad_StartTransfer(u8x8);
 113              		.loc 1 157 0
 114 000a FFF7FEFF 		bl	u8x8_cad_StartTransfer
 115              	.LVL10:
 158:..\..\..\u8g2\u8g2\csrc/u8x8_d_ssd1607_200x200.c **** 
 159:..\..\..\u8g2\u8g2\csrc/u8x8_d_ssd1607_200x200.c ****   page = u8x8->display_info->tile_height;
 116              		.loc 1 159 0
 117 000e 2368     		ldr	r3, [r4]
 160:..\..\..\u8g2\u8g2\csrc/u8x8_d_ssd1607_200x200.c ****   page --;
 161:..\..\..\u8g2\u8g2\csrc/u8x8_d_ssd1607_200x200.c ****   page -= (((u8x8_tile_t *)arg_ptr)->y_pos);
 162:..\..\..\u8g2\u8g2\csrc/u8x8_d_ssd1607_200x200.c ****   
 163:..\..\..\u8g2\u8g2\csrc/u8x8_d_ssd1607_200x200.c ****   x = ((u8x8_tile_t *)arg_ptr)->x_pos;
 118              		.loc 1 163 0
 119 0010 98F80560 		ldrb	r6, [r8, #5]	@ zero_extendqisi2
 159:..\..\..\u8g2\u8g2\csrc/u8x8_d_ssd1607_200x200.c ****   page --;
 120              		.loc 1 159 0
ARM GAS  C:\Users\jesse\AppData\Local\Temp\ccdqic9G.s 			page 6


 121 0014 5D7C     		ldrb	r5, [r3, #17]	@ zero_extendqisi2
 122              	.LVL11:
 161:..\..\..\u8g2\u8g2\csrc/u8x8_d_ssd1607_200x200.c ****   
 123              		.loc 1 161 0
 124 0016 98F80630 		ldrb	r3, [r8, #6]	@ zero_extendqisi2
 160:..\..\..\u8g2\u8g2\csrc/u8x8_d_ssd1607_200x200.c ****   page --;
 125              		.loc 1 160 0
 126 001a 013D     		subs	r5, r5, #1
 127              	.LVL12:
 161:..\..\..\u8g2\u8g2\csrc/u8x8_d_ssd1607_200x200.c ****   
 128              		.loc 1 161 0
 129 001c ED1A     		subs	r5, r5, r3
 130              	.LVL13:
 164:..\..\..\u8g2\u8g2\csrc/u8x8_d_ssd1607_200x200.c ****   x *= 8;
 165:..\..\..\u8g2\u8g2\csrc/u8x8_d_ssd1607_200x200.c ****   x += u8x8->x_offset;
 131              		.loc 1 165 0
 132 001e 94F82230 		ldrb	r3, [r4, #34]	@ zero_extendqisi2
 166:..\..\..\u8g2\u8g2\csrc/u8x8_d_ssd1607_200x200.c ****   
 167:..\..\..\u8g2\u8g2\csrc/u8x8_d_ssd1607_200x200.c ****   
 168:..\..\..\u8g2\u8g2\csrc/u8x8_d_ssd1607_200x200.c **** 
 169:..\..\..\u8g2\u8g2\csrc/u8x8_d_ssd1607_200x200.c ****   u8x8_cad_SendCmd(u8x8, 0x045 );	/* window start column */
 133              		.loc 1 169 0
 134 0022 4521     		movs	r1, #69
 165:..\..\..\u8g2\u8g2\csrc/u8x8_d_ssd1607_200x200.c ****   
 135              		.loc 1 165 0
 136 0024 03EBC606 		add	r6, r3, r6, lsl #3
 170:..\..\..\u8g2\u8g2\csrc/u8x8_d_ssd1607_200x200.c ****   u8x8_cad_SendArg(u8x8, x&255);
 137              		.loc 1 170 0
 138 0028 5FFA86F9 		uxtb	r9, r6
 169:..\..\..\u8g2\u8g2\csrc/u8x8_d_ssd1607_200x200.c ****   u8x8_cad_SendArg(u8x8, x&255);
 139              		.loc 1 169 0
 140 002c 2046     		mov	r0, r4
 141 002e FFF7FEFF 		bl	u8x8_cad_SendCmd
 142              	.LVL14:
 171:..\..\..\u8g2\u8g2\csrc/u8x8_d_ssd1607_200x200.c ****   u8x8_cad_SendArg(u8x8, x>>8);
 143              		.loc 1 171 0
 144 0032 C6F30726 		ubfx	r6, r6, #8, #8
 170:..\..\..\u8g2\u8g2\csrc/u8x8_d_ssd1607_200x200.c ****   u8x8_cad_SendArg(u8x8, x&255);
 145              		.loc 1 170 0
 146 0036 4946     		mov	r1, r9
 147 0038 2046     		mov	r0, r4
 148 003a FFF7FEFF 		bl	u8x8_cad_SendArg
 149              	.LVL15:
 150              		.loc 1 171 0
 151 003e 3146     		mov	r1, r6
 152 0040 2046     		mov	r0, r4
 153 0042 FFF7FEFF 		bl	u8x8_cad_SendArg
 154              	.LVL16:
 172:..\..\..\u8g2\u8g2\csrc/u8x8_d_ssd1607_200x200.c ****   u8x8_cad_SendArg(u8x8, 199);		/* end of display */
 155              		.loc 1 172 0
 156 0046 C721     		movs	r1, #199
 157 0048 2046     		mov	r0, r4
 158 004a FFF7FEFF 		bl	u8x8_cad_SendArg
 159              	.LVL17:
 173:..\..\..\u8g2\u8g2\csrc/u8x8_d_ssd1607_200x200.c ****   u8x8_cad_SendArg(u8x8, 0);
 160              		.loc 1 173 0
 161 004e 0021     		movs	r1, #0
ARM GAS  C:\Users\jesse\AppData\Local\Temp\ccdqic9G.s 			page 7


 162 0050 2046     		mov	r0, r4
 161:..\..\..\u8g2\u8g2\csrc/u8x8_d_ssd1607_200x200.c ****   
 163              		.loc 1 161 0
 164 0052 05F0FF05 		and	r5, r5, #255
 165              	.LVL18:
 166              		.loc 1 173 0
 167 0056 FFF7FEFF 		bl	u8x8_cad_SendArg
 168              	.LVL19:
 174:..\..\..\u8g2\u8g2\csrc/u8x8_d_ssd1607_200x200.c **** 
 175:..\..\..\u8g2\u8g2\csrc/u8x8_d_ssd1607_200x200.c ****   u8x8_cad_SendCmd(u8x8, 0x044 );	/* window end page */
 169              		.loc 1 175 0
 170 005a 4421     		movs	r1, #68
 171 005c 2046     		mov	r0, r4
 172 005e FFF7FEFF 		bl	u8x8_cad_SendCmd
 173              	.LVL20:
 176:..\..\..\u8g2\u8g2\csrc/u8x8_d_ssd1607_200x200.c ****   u8x8_cad_SendArg(u8x8, page);
 174              		.loc 1 176 0
 175 0062 2946     		mov	r1, r5
 176 0064 2046     		mov	r0, r4
 177 0066 FFF7FEFF 		bl	u8x8_cad_SendArg
 178              	.LVL21:
 177:..\..\..\u8g2\u8g2\csrc/u8x8_d_ssd1607_200x200.c ****   u8x8_cad_SendArg(u8x8, page);
 179              		.loc 1 177 0
 180 006a 2946     		mov	r1, r5
 181 006c 2046     		mov	r0, r4
 182 006e FFF7FEFF 		bl	u8x8_cad_SendArg
 183              	.LVL22:
 178:..\..\..\u8g2\u8g2\csrc/u8x8_d_ssd1607_200x200.c **** 
 179:..\..\..\u8g2\u8g2\csrc/u8x8_d_ssd1607_200x200.c ****   u8x8_cad_SendCmd(u8x8, 0x04f );	/* window column */
 184              		.loc 1 179 0
 185 0072 4F21     		movs	r1, #79
 186 0074 2046     		mov	r0, r4
 187 0076 FFF7FEFF 		bl	u8x8_cad_SendCmd
 188              	.LVL23:
 180:..\..\..\u8g2\u8g2\csrc/u8x8_d_ssd1607_200x200.c ****   u8x8_cad_SendArg(u8x8, x&255);
 189              		.loc 1 180 0
 190 007a 4946     		mov	r1, r9
 191 007c 2046     		mov	r0, r4
 192 007e FFF7FEFF 		bl	u8x8_cad_SendArg
 193              	.LVL24:
 181:..\..\..\u8g2\u8g2\csrc/u8x8_d_ssd1607_200x200.c ****   u8x8_cad_SendArg(u8x8, x>>8);
 194              		.loc 1 181 0
 195 0082 3146     		mov	r1, r6
 196 0084 2046     		mov	r0, r4
 197 0086 FFF7FEFF 		bl	u8x8_cad_SendArg
 198              	.LVL25:
 182:..\..\..\u8g2\u8g2\csrc/u8x8_d_ssd1607_200x200.c **** 
 183:..\..\..\u8g2\u8g2\csrc/u8x8_d_ssd1607_200x200.c ****   u8x8_cad_SendCmd(u8x8, 0x04e );	/* window row */
 199              		.loc 1 183 0
 200 008a 4E21     		movs	r1, #78
 201 008c 2046     		mov	r0, r4
 202 008e FFF7FEFF 		bl	u8x8_cad_SendCmd
 203              	.LVL26:
 184:..\..\..\u8g2\u8g2\csrc/u8x8_d_ssd1607_200x200.c ****   u8x8_cad_SendArg(u8x8, page);
 204              		.loc 1 184 0
 205 0092 2946     		mov	r1, r5
 206 0094 2046     		mov	r0, r4
ARM GAS  C:\Users\jesse\AppData\Local\Temp\ccdqic9G.s 			page 8


 207 0096 FFF7FEFF 		bl	u8x8_cad_SendArg
 208              	.LVL27:
 185:..\..\..\u8g2\u8g2\csrc/u8x8_d_ssd1607_200x200.c **** 
 186:..\..\..\u8g2\u8g2\csrc/u8x8_d_ssd1607_200x200.c ****   u8x8_cad_SendCmd(u8x8, 0x024 );
 209              		.loc 1 186 0
 210 009a 2421     		movs	r1, #36
 211 009c 2046     		mov	r0, r4
 212 009e FFF7FEFF 		bl	u8x8_cad_SendCmd
 213              	.LVL28:
 214              	.L7:
 187:..\..\..\u8g2\u8g2\csrc/u8x8_d_ssd1607_200x200.c ****   
 188:..\..\..\u8g2\u8g2\csrc/u8x8_d_ssd1607_200x200.c ****   do
 189:..\..\..\u8g2\u8g2\csrc/u8x8_d_ssd1607_200x200.c ****   {
 190:..\..\..\u8g2\u8g2\csrc/u8x8_d_ssd1607_200x200.c ****     c = ((u8x8_tile_t *)arg_ptr)->cnt;
 215              		.loc 1 190 0
 216 00a2 98F80450 		ldrb	r5, [r8, #4]	@ zero_extendqisi2
 217              	.LVL29:
 191:..\..\..\u8g2\u8g2\csrc/u8x8_d_ssd1607_200x200.c ****     ptr = ((u8x8_tile_t *)arg_ptr)->tile_ptr;
 218              		.loc 1 191 0
 219 00a6 D8F80030 		ldr	r3, [r8]
 220              	.LVL30:
 221              	.L6:
 222 00aa 0E49     		ldr	r1, .L12
 223 00ac 03F10806 		add	r6, r3, #8
 224              	.LVL31:
 225              	.L5:
 226              	.LBB4:
 227              	.LBB5:
 146:..\..\..\u8g2\u8g2\csrc/u8x8_d_ssd1607_200x200.c ****   }
 228              		.loc 1 146 0
 229 00b0 13F8012B 		ldrb	r2, [r3], #1	@ zero_extendqisi2
 230              	.LVL32:
 231 00b4 D243     		mvns	r2, r2
 144:..\..\..\u8g2\u8g2\csrc/u8x8_d_ssd1607_200x200.c ****   {
 232              		.loc 1 144 0
 233 00b6 9E42     		cmp	r6, r3
 146:..\..\..\u8g2\u8g2\csrc/u8x8_d_ssd1607_200x200.c ****   }
 234              		.loc 1 146 0
 235 00b8 01F8012F 		strb	r2, [r1, #1]!
 236              	.LVL33:
 144:..\..\..\u8g2\u8g2\csrc/u8x8_d_ssd1607_200x200.c ****   {
 237              		.loc 1 144 0
 238 00bc F8D1     		bne	.L5
 239              	.LVL34:
 240              	.LBE5:
 241              	.LBE4:
 192:..\..\..\u8g2\u8g2\csrc/u8x8_d_ssd1607_200x200.c ****     do
 193:..\..\..\u8g2\u8g2\csrc/u8x8_d_ssd1607_200x200.c ****     {
 194:..\..\..\u8g2\u8g2\csrc/u8x8_d_ssd1607_200x200.c ****       u8x8_cad_SendData(u8x8, 8, u8x8_convert_tile_for_ssd1607(ptr));
 242              		.loc 1 194 0
 243 00be 0A4A     		ldr	r2, .L12+4
 244 00c0 0821     		movs	r1, #8
 245 00c2 2046     		mov	r0, r4
 195:..\..\..\u8g2\u8g2\csrc/u8x8_d_ssd1607_200x200.c ****       ptr += 8;
 196:..\..\..\u8g2\u8g2\csrc/u8x8_d_ssd1607_200x200.c ****       x += 8;
 197:..\..\..\u8g2\u8g2\csrc/u8x8_d_ssd1607_200x200.c ****       c--;
 246              		.loc 1 197 0
ARM GAS  C:\Users\jesse\AppData\Local\Temp\ccdqic9G.s 			page 9


 247 00c4 013D     		subs	r5, r5, #1
 248              	.LVL35:
 194:..\..\..\u8g2\u8g2\csrc/u8x8_d_ssd1607_200x200.c ****       ptr += 8;
 249              		.loc 1 194 0
 250 00c6 FFF7FEFF 		bl	u8x8_cad_SendData
 251              	.LVL36:
 198:..\..\..\u8g2\u8g2\csrc/u8x8_d_ssd1607_200x200.c ****     } while( c > 0 );
 252              		.loc 1 198 0
 253 00ca 15F0FF05 		ands	r5, r5, #255
 254              	.LVL37:
 255 00ce 3346     		mov	r3, r6
 256 00d0 EBD1     		bne	.L6
 257              	.LVL38:
 199:..\..\..\u8g2\u8g2\csrc/u8x8_d_ssd1607_200x200.c ****     
 200:..\..\..\u8g2\u8g2\csrc/u8x8_d_ssd1607_200x200.c ****     arg_int--;
 258              		.loc 1 200 0
 259 00d2 013F     		subs	r7, r7, #1
 260              	.LVL39:
 201:..\..\..\u8g2\u8g2\csrc/u8x8_d_ssd1607_200x200.c ****   } while( arg_int > 0 );
 261              		.loc 1 201 0
 262 00d4 17F0FF07 		ands	r7, r7, #255
 263              	.LVL40:
 264 00d8 E3D1     		bne	.L7
 202:..\..\..\u8g2\u8g2\csrc/u8x8_d_ssd1607_200x200.c ****   
 203:..\..\..\u8g2\u8g2\csrc/u8x8_d_ssd1607_200x200.c ****   u8x8_cad_EndTransfer(u8x8);
 265              		.loc 1 203 0
 266 00da 2046     		mov	r0, r4
 204:..\..\..\u8g2\u8g2\csrc/u8x8_d_ssd1607_200x200.c **** }
 267              		.loc 1 204 0
 268 00dc BDE8F843 		pop	{r3, r4, r5, r6, r7, r8, r9, lr}
 269              		.cfi_restore 14
 270              		.cfi_restore 9
 271              		.cfi_restore 8
 272              		.cfi_restore 7
 273              		.cfi_restore 6
 274              		.cfi_restore 5
 275              		.cfi_restore 4
 276              		.cfi_restore 3
 277              		.cfi_def_cfa_offset 0
 278              	.LVL41:
 203:..\..\..\u8g2\u8g2\csrc/u8x8_d_ssd1607_200x200.c **** }
 279              		.loc 1 203 0
 280 00e0 FFF7FEBF 		b	u8x8_cad_EndTransfer
 281              	.LVL42:
 282              	.L13:
 283              		.align	2
 284              	.L12:
 285 00e4 FFFFFFFF 		.word	.LANCHOR1-1
 286 00e8 00000000 		.word	.LANCHOR1
 287              		.cfi_endproc
 288              	.LFE2:
 289              		.size	u8x8_d_ssd1607_draw_tile, .-u8x8_d_ssd1607_draw_tile
 290              		.section	.text.u8x8_d_ssd1607_200x200,"ax",%progbits
 291              		.align	1
 292              		.global	u8x8_d_ssd1607_200x200
 293              		.thumb
 294              		.thumb_func
ARM GAS  C:\Users\jesse\AppData\Local\Temp\ccdqic9G.s 			page 10


 295              		.type	u8x8_d_ssd1607_200x200, %function
 296              	u8x8_d_ssd1607_200x200:
 297              	.LFB3:
 205:..\..\..\u8g2\u8g2\csrc/u8x8_d_ssd1607_200x200.c **** 
 206:..\..\..\u8g2\u8g2\csrc/u8x8_d_ssd1607_200x200.c **** 
 207:..\..\..\u8g2\u8g2\csrc/u8x8_d_ssd1607_200x200.c **** 
 208:..\..\..\u8g2\u8g2\csrc/u8x8_d_ssd1607_200x200.c **** /*=================================================*/
 209:..\..\..\u8g2\u8g2\csrc/u8x8_d_ssd1607_200x200.c **** 
 210:..\..\..\u8g2\u8g2\csrc/u8x8_d_ssd1607_200x200.c **** 
 211:..\..\..\u8g2\u8g2\csrc/u8x8_d_ssd1607_200x200.c **** #define L(a,b,c,d) (((a)<<6)|((b)<<4)|((c)<<2)|(d))
 212:..\..\..\u8g2\u8g2\csrc/u8x8_d_ssd1607_200x200.c **** 
 213:..\..\..\u8g2\u8g2\csrc/u8x8_d_ssd1607_200x200.c **** 
 214:..\..\..\u8g2\u8g2\csrc/u8x8_d_ssd1607_200x200.c **** /* https://github.com/embeddedadventures/SSD1607/blob/master/SSD1607.cpp */
 215:..\..\..\u8g2\u8g2\csrc/u8x8_d_ssd1607_200x200.c **** static const uint8_t u8x8_d_ssd1607_200x200_init_seq[] = {    
 216:..\..\..\u8g2\u8g2\csrc/u8x8_d_ssd1607_200x200.c ****   U8X8_START_TRANSFER(),             	/* enable chip, delay is part of the transfer start */
 217:..\..\..\u8g2\u8g2\csrc/u8x8_d_ssd1607_200x200.c **** 
 218:..\..\..\u8g2\u8g2\csrc/u8x8_d_ssd1607_200x200.c ****   //U8X8_CA(0x10, 0x00),	/* Deep Sleep mode Control: Disable */
 219:..\..\..\u8g2\u8g2\csrc/u8x8_d_ssd1607_200x200.c ****   U8X8_C(0x01),
 220:..\..\..\u8g2\u8g2\csrc/u8x8_d_ssd1607_200x200.c ****   U8X8_A(199),U8X8_A(0),U8X8_A(0),
 221:..\..\..\u8g2\u8g2\csrc/u8x8_d_ssd1607_200x200.c ****   
 222:..\..\..\u8g2\u8g2\csrc/u8x8_d_ssd1607_200x200.c ****   
 223:..\..\..\u8g2\u8g2\csrc/u8x8_d_ssd1607_200x200.c ****   U8X8_CA(0x03, 0x00), 	/* Gate Driving voltage: 15V (lowest value)*/
 224:..\..\..\u8g2\u8g2\csrc/u8x8_d_ssd1607_200x200.c ****   U8X8_CA(0x04, 0x0a), 	/* Source Driving voltage: 15V (mid value and POR)*/
 225:..\..\..\u8g2\u8g2\csrc/u8x8_d_ssd1607_200x200.c ****   
 226:..\..\..\u8g2\u8g2\csrc/u8x8_d_ssd1607_200x200.c ****   U8X8_CA(0x0f, 0x00),		/* scan start ? */
 227:..\..\..\u8g2\u8g2\csrc/u8x8_d_ssd1607_200x200.c ****   
 228:..\..\..\u8g2\u8g2\csrc/u8x8_d_ssd1607_200x200.c ****   U8X8_CA(0xf0, 0x1f),	/* set booster feedback to internal */
 229:..\..\..\u8g2\u8g2\csrc/u8x8_d_ssd1607_200x200.c **** 
 230:..\..\..\u8g2\u8g2\csrc/u8x8_d_ssd1607_200x200.c ****   U8X8_CA(0x2c, 0xa8),	/* write vcom value*/
 231:..\..\..\u8g2\u8g2\csrc/u8x8_d_ssd1607_200x200.c ****   U8X8_CA(0x3a, 0x1a),	/* dummy lines */
 232:..\..\..\u8g2\u8g2\csrc/u8x8_d_ssd1607_200x200.c ****   U8X8_CA(0x3b, 0x08),	/* gate time */
 233:..\..\..\u8g2\u8g2\csrc/u8x8_d_ssd1607_200x200.c ****   U8X8_CA(0x3c, 0x33),	/* select boarder waveform */
 234:..\..\..\u8g2\u8g2\csrc/u8x8_d_ssd1607_200x200.c ****   
 235:..\..\..\u8g2\u8g2\csrc/u8x8_d_ssd1607_200x200.c ****   U8X8_CA(0x11, 0x03),		/* cursor increment mode */
 236:..\..\..\u8g2\u8g2\csrc/u8x8_d_ssd1607_200x200.c ****   U8X8_CAA(0x44, 0, 24),	/* RAM x start & end, each byte has 8 pixel, 25*4=200 */
 237:..\..\..\u8g2\u8g2\csrc/u8x8_d_ssd1607_200x200.c ****   U8X8_CAAAA(0x45, 0, 0, 299&255, 299>>8),	/* RAM y start & end, 0..299 */
 238:..\..\..\u8g2\u8g2\csrc/u8x8_d_ssd1607_200x200.c ****   
 239:..\..\..\u8g2\u8g2\csrc/u8x8_d_ssd1607_200x200.c ****   U8X8_END_TRANSFER(),             	/* disable chip */
 240:..\..\..\u8g2\u8g2\csrc/u8x8_d_ssd1607_200x200.c ****   U8X8_END()             			/* end of sequence */
 241:..\..\..\u8g2\u8g2\csrc/u8x8_d_ssd1607_200x200.c **** };
 242:..\..\..\u8g2\u8g2\csrc/u8x8_d_ssd1607_200x200.c **** 
 243:..\..\..\u8g2\u8g2\csrc/u8x8_d_ssd1607_200x200.c **** static const uint8_t u8x8_d_ssd1607_to_display_seq[] = {
 244:..\..\..\u8g2\u8g2\csrc/u8x8_d_ssd1607_200x200.c ****   U8X8_START_TRANSFER(),             	/* enable chip, delay is part of the transfer start */
 245:..\..\..\u8g2\u8g2\csrc/u8x8_d_ssd1607_200x200.c **** 
 246:..\..\..\u8g2\u8g2\csrc/u8x8_d_ssd1607_200x200.c ****   U8X8_C(0x32),	/* write LUT register*/
 247:..\..\..\u8g2\u8g2\csrc/u8x8_d_ssd1607_200x200.c **** 
 248:..\..\..\u8g2\u8g2\csrc/u8x8_d_ssd1607_200x200.c ****   
 249:..\..\..\u8g2\u8g2\csrc/u8x8_d_ssd1607_200x200.c ****   /* according to the command table, the lut has 240 bits (=30 bytes * 8 bits) */
 250:..\..\..\u8g2\u8g2\csrc/u8x8_d_ssd1607_200x200.c ****   
 251:..\..\..\u8g2\u8g2\csrc/u8x8_d_ssd1607_200x200.c ****   /* Waveform part of the LUT (20 bytes) */
 252:..\..\..\u8g2\u8g2\csrc/u8x8_d_ssd1607_200x200.c ****   /* bit 7/6: 1 - 1 transition */
 253:..\..\..\u8g2\u8g2\csrc/u8x8_d_ssd1607_200x200.c ****   /* bit 5/4: 1 - 0 transition */
 254:..\..\..\u8g2\u8g2\csrc/u8x8_d_ssd1607_200x200.c ****   /* bit 3/2: 0 - 1 transition */
 255:..\..\..\u8g2\u8g2\csrc/u8x8_d_ssd1607_200x200.c ****   /* bit 1/0: 0 - 0 transition */
 256:..\..\..\u8g2\u8g2\csrc/u8x8_d_ssd1607_200x200.c ****   /* 	00 – VSS */
 257:..\..\..\u8g2\u8g2\csrc/u8x8_d_ssd1607_200x200.c ****   /* 	01 – VSH */
 258:..\..\..\u8g2\u8g2\csrc/u8x8_d_ssd1607_200x200.c ****   /* 	10 – VSL */
ARM GAS  C:\Users\jesse\AppData\Local\Temp\ccdqic9G.s 			page 11


 259:..\..\..\u8g2\u8g2\csrc/u8x8_d_ssd1607_200x200.c ****   /* 	11 – NA */
 260:..\..\..\u8g2\u8g2\csrc/u8x8_d_ssd1607_200x200.c ****   
 261:..\..\..\u8g2\u8g2\csrc/u8x8_d_ssd1607_200x200.c ****   /* original values */
 262:..\..\..\u8g2\u8g2\csrc/u8x8_d_ssd1607_200x200.c ****   /*
 263:..\..\..\u8g2\u8g2\csrc/u8x8_d_ssd1607_200x200.c ****   U8X8_A(0x02),
 264:..\..\..\u8g2\u8g2\csrc/u8x8_d_ssd1607_200x200.c ****   U8X8_A(0x02),
 265:..\..\..\u8g2\u8g2\csrc/u8x8_d_ssd1607_200x200.c ****   U8X8_A(0x01),
 266:..\..\..\u8g2\u8g2\csrc/u8x8_d_ssd1607_200x200.c ****   U8X8_A(0x11),
 267:..\..\..\u8g2\u8g2\csrc/u8x8_d_ssd1607_200x200.c ****   U8X8_A(0x12),
 268:..\..\..\u8g2\u8g2\csrc/u8x8_d_ssd1607_200x200.c ****   U8X8_A(0x12),
 269:..\..\..\u8g2\u8g2\csrc/u8x8_d_ssd1607_200x200.c ****   U8X8_A(0x22),
 270:..\..\..\u8g2\u8g2\csrc/u8x8_d_ssd1607_200x200.c ****   U8X8_A(0x22),
 271:..\..\..\u8g2\u8g2\csrc/u8x8_d_ssd1607_200x200.c ****   U8X8_A(0x66),
 272:..\..\..\u8g2\u8g2\csrc/u8x8_d_ssd1607_200x200.c ****   U8X8_A(0x69),
 273:..\..\..\u8g2\u8g2\csrc/u8x8_d_ssd1607_200x200.c ****   U8X8_A(0x69),
 274:..\..\..\u8g2\u8g2\csrc/u8x8_d_ssd1607_200x200.c ****   U8X8_A(0x59),
 275:..\..\..\u8g2\u8g2\csrc/u8x8_d_ssd1607_200x200.c ****   U8X8_A(0x58),
 276:..\..\..\u8g2\u8g2\csrc/u8x8_d_ssd1607_200x200.c ****   U8X8_A(0x99),
 277:..\..\..\u8g2\u8g2\csrc/u8x8_d_ssd1607_200x200.c ****   U8X8_A(0x99),
 278:..\..\..\u8g2\u8g2\csrc/u8x8_d_ssd1607_200x200.c ****   U8X8_A(0x88),
 279:..\..\..\u8g2\u8g2\csrc/u8x8_d_ssd1607_200x200.c ****   U8X8_A(0x00),
 280:..\..\..\u8g2\u8g2\csrc/u8x8_d_ssd1607_200x200.c ****   U8X8_A(0x00),
 281:..\..\..\u8g2\u8g2\csrc/u8x8_d_ssd1607_200x200.c ****   U8X8_A(0x00),
 282:..\..\..\u8g2\u8g2\csrc/u8x8_d_ssd1607_200x200.c ****   U8X8_A(0x00),
 283:..\..\..\u8g2\u8g2\csrc/u8x8_d_ssd1607_200x200.c ****   */
 284:..\..\..\u8g2\u8g2\csrc/u8x8_d_ssd1607_200x200.c ****   
 285:..\..\..\u8g2\u8g2\csrc/u8x8_d_ssd1607_200x200.c ****   /* original values, L-macro */
 286:..\..\..\u8g2\u8g2\csrc/u8x8_d_ssd1607_200x200.c ****   U8X8_A(L(0,0,0,2)), // 0x02
 287:..\..\..\u8g2\u8g2\csrc/u8x8_d_ssd1607_200x200.c ****   U8X8_A(L(0,0,0,2)), // 0x02
 288:..\..\..\u8g2\u8g2\csrc/u8x8_d_ssd1607_200x200.c ****   U8X8_A(L(0,0,0,1)), // 0x01
 289:..\..\..\u8g2\u8g2\csrc/u8x8_d_ssd1607_200x200.c ****   U8X8_A(L(0,1,0,1)), // 0x11
 290:..\..\..\u8g2\u8g2\csrc/u8x8_d_ssd1607_200x200.c ****   U8X8_A(L(0,1,0,2)), // 0x12
 291:..\..\..\u8g2\u8g2\csrc/u8x8_d_ssd1607_200x200.c ****   U8X8_A(L(0,1,0,2)), // 0x12
 292:..\..\..\u8g2\u8g2\csrc/u8x8_d_ssd1607_200x200.c ****   U8X8_A(L(0,2,0,2)), // 0x22
 293:..\..\..\u8g2\u8g2\csrc/u8x8_d_ssd1607_200x200.c ****   U8X8_A(L(0,2,0,2)), // 0x22
 294:..\..\..\u8g2\u8g2\csrc/u8x8_d_ssd1607_200x200.c ****   U8X8_A(L(1,2,1,2)), // 0x66
 295:..\..\..\u8g2\u8g2\csrc/u8x8_d_ssd1607_200x200.c ****   U8X8_A(L(1,2,2,1)), // 0x69
 296:..\..\..\u8g2\u8g2\csrc/u8x8_d_ssd1607_200x200.c ****   U8X8_A(L(1,2,2,1)), // 0x69
 297:..\..\..\u8g2\u8g2\csrc/u8x8_d_ssd1607_200x200.c ****   U8X8_A(L(1,1,2,1)), // 0x59
 298:..\..\..\u8g2\u8g2\csrc/u8x8_d_ssd1607_200x200.c ****   U8X8_A(L(1,1,2,0)), // 0x58
 299:..\..\..\u8g2\u8g2\csrc/u8x8_d_ssd1607_200x200.c ****   U8X8_A(L(2,1,2,1)), // 0x99
 300:..\..\..\u8g2\u8g2\csrc/u8x8_d_ssd1607_200x200.c ****   U8X8_A(L(2,1,2,1)), // 0x99
 301:..\..\..\u8g2\u8g2\csrc/u8x8_d_ssd1607_200x200.c ****   U8X8_A(L(2,0,2,0)), // 0x88
 302:..\..\..\u8g2\u8g2\csrc/u8x8_d_ssd1607_200x200.c ****   U8X8_A(L(0,0,0,0)), // 0x00
 303:..\..\..\u8g2\u8g2\csrc/u8x8_d_ssd1607_200x200.c ****   U8X8_A(L(0,0,0,0)), // 0x00
 304:..\..\..\u8g2\u8g2\csrc/u8x8_d_ssd1607_200x200.c ****   U8X8_A(L(0,0,0,0)), // 0x00
 305:..\..\..\u8g2\u8g2\csrc/u8x8_d_ssd1607_200x200.c ****   U8X8_A(L(0,0,0,0)), // 0x00
 306:..\..\..\u8g2\u8g2\csrc/u8x8_d_ssd1607_200x200.c **** 
 307:..\..\..\u8g2\u8g2\csrc/u8x8_d_ssd1607_200x200.c **** 
 308:..\..\..\u8g2\u8g2\csrc/u8x8_d_ssd1607_200x200.c ****   /* orginal values without 0-0 and 1-1 transition */
 309:..\..\..\u8g2\u8g2\csrc/u8x8_d_ssd1607_200x200.c ****   /*
 310:..\..\..\u8g2\u8g2\csrc/u8x8_d_ssd1607_200x200.c ****   U8X8_A(L(3,0,0,3)), // 0x02
 311:..\..\..\u8g2\u8g2\csrc/u8x8_d_ssd1607_200x200.c ****   U8X8_A(L(3,0,0,3)), // 0x02
 312:..\..\..\u8g2\u8g2\csrc/u8x8_d_ssd1607_200x200.c ****   U8X8_A(L(3,0,0,3)), // 0x01
 313:..\..\..\u8g2\u8g2\csrc/u8x8_d_ssd1607_200x200.c ****   U8X8_A(L(3,1,0,3)), // 0x11
 314:..\..\..\u8g2\u8g2\csrc/u8x8_d_ssd1607_200x200.c ****   U8X8_A(L(3,1,0,3)), // 0x12
 315:..\..\..\u8g2\u8g2\csrc/u8x8_d_ssd1607_200x200.c ****   U8X8_A(L(3,1,0,3)), // 0x12
ARM GAS  C:\Users\jesse\AppData\Local\Temp\ccdqic9G.s 			page 12


 316:..\..\..\u8g2\u8g2\csrc/u8x8_d_ssd1607_200x200.c ****   U8X8_A(L(3,2,0,3)), // 0x22
 317:..\..\..\u8g2\u8g2\csrc/u8x8_d_ssd1607_200x200.c ****   U8X8_A(L(3,2,0,3)), // 0x22
 318:..\..\..\u8g2\u8g2\csrc/u8x8_d_ssd1607_200x200.c ****   U8X8_A(L(3,2,1,3)), // 0x66
 319:..\..\..\u8g2\u8g2\csrc/u8x8_d_ssd1607_200x200.c ****   U8X8_A(L(3,2,2,3)), // 0x69
 320:..\..\..\u8g2\u8g2\csrc/u8x8_d_ssd1607_200x200.c ****   U8X8_A(L(3,2,2,3)), // 0x69
 321:..\..\..\u8g2\u8g2\csrc/u8x8_d_ssd1607_200x200.c ****   U8X8_A(L(3,1,2,3)), // 0x59
 322:..\..\..\u8g2\u8g2\csrc/u8x8_d_ssd1607_200x200.c ****   U8X8_A(L(3,1,2,3)), // 0x58
 323:..\..\..\u8g2\u8g2\csrc/u8x8_d_ssd1607_200x200.c ****   U8X8_A(L(3,1,2,3)), // 0x99
 324:..\..\..\u8g2\u8g2\csrc/u8x8_d_ssd1607_200x200.c ****   U8X8_A(L(3,1,2,3)), // 0x99
 325:..\..\..\u8g2\u8g2\csrc/u8x8_d_ssd1607_200x200.c ****   U8X8_A(L(3,0,2,3)), // 0x88
 326:..\..\..\u8g2\u8g2\csrc/u8x8_d_ssd1607_200x200.c ****   U8X8_A(L(3,0,0,3)), // 0x00
 327:..\..\..\u8g2\u8g2\csrc/u8x8_d_ssd1607_200x200.c ****   U8X8_A(L(3,0,0,3)), // 0x00
 328:..\..\..\u8g2\u8g2\csrc/u8x8_d_ssd1607_200x200.c ****   U8X8_A(L(3,0,0,3)), // 0x00
 329:..\..\..\u8g2\u8g2\csrc/u8x8_d_ssd1607_200x200.c ****   U8X8_A(L(3,0,0,3)), // 0x00
 330:..\..\..\u8g2\u8g2\csrc/u8x8_d_ssd1607_200x200.c ****   */
 331:..\..\..\u8g2\u8g2\csrc/u8x8_d_ssd1607_200x200.c ****   
 332:..\..\..\u8g2\u8g2\csrc/u8x8_d_ssd1607_200x200.c ****   
 333:..\..\..\u8g2\u8g2\csrc/u8x8_d_ssd1607_200x200.c ****   /* Timing part of the LUT, 20 Phases with 4 bit each: 10 bytes */
 334:..\..\..\u8g2\u8g2\csrc/u8x8_d_ssd1607_200x200.c ****   U8X8_A(0xF8),
 335:..\..\..\u8g2\u8g2\csrc/u8x8_d_ssd1607_200x200.c ****   U8X8_A(0xB4),
 336:..\..\..\u8g2\u8g2\csrc/u8x8_d_ssd1607_200x200.c ****   U8X8_A(0x13),
 337:..\..\..\u8g2\u8g2\csrc/u8x8_d_ssd1607_200x200.c ****   U8X8_A(0x51),
 338:..\..\..\u8g2\u8g2\csrc/u8x8_d_ssd1607_200x200.c ****   U8X8_A(0x35),
 339:..\..\..\u8g2\u8g2\csrc/u8x8_d_ssd1607_200x200.c ****   U8X8_A(0x51),
 340:..\..\..\u8g2\u8g2\csrc/u8x8_d_ssd1607_200x200.c ****   U8X8_A(0x51),
 341:..\..\..\u8g2\u8g2\csrc/u8x8_d_ssd1607_200x200.c ****   U8X8_A(0x19),
 342:..\..\..\u8g2\u8g2\csrc/u8x8_d_ssd1607_200x200.c ****   U8X8_A(0x01),
 343:..\..\..\u8g2\u8g2\csrc/u8x8_d_ssd1607_200x200.c ****   U8X8_A(0x00),
 344:..\..\..\u8g2\u8g2\csrc/u8x8_d_ssd1607_200x200.c ****   
 345:..\..\..\u8g2\u8g2\csrc/u8x8_d_ssd1607_200x200.c ****   
 346:..\..\..\u8g2\u8g2\csrc/u8x8_d_ssd1607_200x200.c ****   U8X8_CA(0x22, 0x04),	/* display update seq. option: clk -> CP -> LUT -> initial display -> patter
 347:..\..\..\u8g2\u8g2\csrc/u8x8_d_ssd1607_200x200.c ****   U8X8_C(0x20),	/* execute sequence */
 348:..\..\..\u8g2\u8g2\csrc/u8x8_d_ssd1607_200x200.c ****   U8X8_DLY(250),	/* the sequence above requires about 1200ms for the 200x200 display*/
 349:..\..\..\u8g2\u8g2\csrc/u8x8_d_ssd1607_200x200.c ****   U8X8_DLY(250),
 350:..\..\..\u8g2\u8g2\csrc/u8x8_d_ssd1607_200x200.c ****   U8X8_DLY(250),
 351:..\..\..\u8g2\u8g2\csrc/u8x8_d_ssd1607_200x200.c ****   U8X8_DLY(250),
 352:..\..\..\u8g2\u8g2\csrc/u8x8_d_ssd1607_200x200.c ****   U8X8_DLY(250),
 353:..\..\..\u8g2\u8g2\csrc/u8x8_d_ssd1607_200x200.c ****   U8X8_DLY(250),
 354:..\..\..\u8g2\u8g2\csrc/u8x8_d_ssd1607_200x200.c ****   U8X8_DLY(250),
 355:..\..\..\u8g2\u8g2\csrc/u8x8_d_ssd1607_200x200.c ****   
 356:..\..\..\u8g2\u8g2\csrc/u8x8_d_ssd1607_200x200.c ****   U8X8_END_TRANSFER(),             	/* disable chip */
 357:..\..\..\u8g2\u8g2\csrc/u8x8_d_ssd1607_200x200.c ****   U8X8_END()             			/* end of sequence */
 358:..\..\..\u8g2\u8g2\csrc/u8x8_d_ssd1607_200x200.c **** };
 359:..\..\..\u8g2\u8g2\csrc/u8x8_d_ssd1607_200x200.c **** 
 360:..\..\..\u8g2\u8g2\csrc/u8x8_d_ssd1607_200x200.c **** 
 361:..\..\..\u8g2\u8g2\csrc/u8x8_d_ssd1607_200x200.c **** uint8_t u8x8_d_ssd1607_200x200(u8x8_t *u8x8, uint8_t msg, uint8_t arg_int, void *arg_ptr)
 362:..\..\..\u8g2\u8g2\csrc/u8x8_d_ssd1607_200x200.c **** {
 298              		.loc 1 362 0
 299              		.cfi_startproc
 300              		@ args = 0, pretend = 0, frame = 0
 301              		@ frame_needed = 0, uses_anonymous_args = 0
 302              	.LVL43:
 363:..\..\..\u8g2\u8g2\csrc/u8x8_d_ssd1607_200x200.c ****   switch(msg)
 303              		.loc 1 363 0
 304 0000 0939     		subs	r1, r1, #9
 305              	.LVL44:
 362:..\..\..\u8g2\u8g2\csrc/u8x8_d_ssd1607_200x200.c ****   switch(msg)
ARM GAS  C:\Users\jesse\AppData\Local\Temp\ccdqic9G.s 			page 13


 306              		.loc 1 362 0
 307 0002 10B5     		push	{r4, lr}
 308              		.cfi_def_cfa_offset 8
 309              		.cfi_offset 4, -8
 310              		.cfi_offset 14, -4
 362:..\..\..\u8g2\u8g2\csrc/u8x8_d_ssd1607_200x200.c ****   switch(msg)
 311              		.loc 1 362 0
 312 0004 0446     		mov	r4, r0
 313 0006 1046     		mov	r0, r2
 314              	.LVL45:
 315              		.loc 1 363 0
 316 0008 0729     		cmp	r1, #7
 317 000a 2AD8     		bhi	.L24
 318 000c DFE801F0 		tbb	[pc, r1]
 319              	.LVL46:
 320              	.L17:
 321 0010 04       		.byte	(.L16-.L17)/2
 322 0011 09       		.byte	(.L18-.L17)/2
 323 0012 19       		.byte	(.L19-.L17)/2
 324 0013 29       		.byte	(.L24-.L17)/2
 325 0014 17       		.byte	(.L25-.L17)/2
 326 0015 29       		.byte	(.L24-.L17)/2
 327 0016 1E       		.byte	(.L21-.L17)/2
 328 0017 24       		.byte	(.L22-.L17)/2
 329              		.p2align 1
 330              	.L16:
 364:..\..\..\u8g2\u8g2\csrc/u8x8_d_ssd1607_200x200.c ****   {
 365:..\..\..\u8g2\u8g2\csrc/u8x8_d_ssd1607_200x200.c ****     case U8X8_MSG_DISPLAY_SETUP_MEMORY:
 366:..\..\..\u8g2\u8g2\csrc/u8x8_d_ssd1607_200x200.c ****       u8x8_d_helper_display_setup_memory(u8x8, &u8x8_ssd1607_200x200_display_info);
 331              		.loc 1 366 0
 332 0018 1349     		ldr	r1, .L27
 333 001a 2046     		mov	r0, r4
 334 001c FFF7FEFF 		bl	u8x8_d_helper_display_setup_memory
 335              	.LVL47:
 336 0020 0DE0     		b	.L25
 337              	.LVL48:
 338              	.L18:
 367:..\..\..\u8g2\u8g2\csrc/u8x8_d_ssd1607_200x200.c ****       break;
 368:..\..\..\u8g2\u8g2\csrc/u8x8_d_ssd1607_200x200.c ****     case U8X8_MSG_DISPLAY_INIT:
 369:..\..\..\u8g2\u8g2\csrc/u8x8_d_ssd1607_200x200.c ****       u8x8_d_helper_display_init(u8x8);
 339              		.loc 1 369 0
 340 0022 2046     		mov	r0, r4
 341 0024 FFF7FEFF 		bl	u8x8_d_helper_display_init
 342              	.LVL49:
 370:..\..\..\u8g2\u8g2\csrc/u8x8_d_ssd1607_200x200.c ****       u8x8_cad_SendSequence(u8x8, u8x8_d_ssd1607_200x200_init_seq);    
 343              		.loc 1 370 0
 344 0028 1049     		ldr	r1, .L27+4
 345 002a 2046     		mov	r0, r4
 346 002c FFF7FEFF 		bl	u8x8_cad_SendSequence
 347              	.LVL50:
 371:..\..\..\u8g2\u8g2\csrc/u8x8_d_ssd1607_200x200.c ****       u8x8_cad_SendSequence(u8x8, u8x8_d_ssd1607_200x200_powersave0_seq);
 348              		.loc 1 371 0
 349 0030 2046     		mov	r0, r4
 350 0032 0F49     		ldr	r1, .L27+8
 351 0034 FFF7FEFF 		bl	u8x8_cad_SendSequence
 352              	.LVL51:
 372:..\..\..\u8g2\u8g2\csrc/u8x8_d_ssd1607_200x200.c ****       u8x8_d_ssd1607_200x200_first_init(u8x8);
ARM GAS  C:\Users\jesse\AppData\Local\Temp\ccdqic9G.s 			page 14


 353              		.loc 1 372 0
 354 0038 2046     		mov	r0, r4
 355 003a FFF7FEFF 		bl	u8x8_d_ssd1607_200x200_first_init
 356              	.LVL52:
 357              	.L25:
 373:..\..\..\u8g2\u8g2\csrc/u8x8_d_ssd1607_200x200.c ****       break;
 374:..\..\..\u8g2\u8g2\csrc/u8x8_d_ssd1607_200x200.c ****     case U8X8_MSG_DISPLAY_SET_POWER_SAVE:
 375:..\..\..\u8g2\u8g2\csrc/u8x8_d_ssd1607_200x200.c ****       if ( arg_int == 0 )
 376:..\..\..\u8g2\u8g2\csrc/u8x8_d_ssd1607_200x200.c **** 	u8x8_cad_SendSequence(u8x8, u8x8_d_ssd1607_200x200_powersave0_seq);
 377:..\..\..\u8g2\u8g2\csrc/u8x8_d_ssd1607_200x200.c ****       else
 378:..\..\..\u8g2\u8g2\csrc/u8x8_d_ssd1607_200x200.c **** 	u8x8_cad_SendSequence(u8x8, u8x8_d_ssd1607_200x200_powersave1_seq);
 379:..\..\..\u8g2\u8g2\csrc/u8x8_d_ssd1607_200x200.c ****       break;
 380:..\..\..\u8g2\u8g2\csrc/u8x8_d_ssd1607_200x200.c ****     case U8X8_MSG_DISPLAY_SET_FLIP_MODE:
 381:..\..\..\u8g2\u8g2\csrc/u8x8_d_ssd1607_200x200.c ****       break;
 382:..\..\..\u8g2\u8g2\csrc/u8x8_d_ssd1607_200x200.c ****     case U8X8_MSG_DISPLAY_DRAW_TILE:
 383:..\..\..\u8g2\u8g2\csrc/u8x8_d_ssd1607_200x200.c ****       u8x8_d_ssd1607_draw_tile(u8x8, arg_int, arg_ptr);
 384:..\..\..\u8g2\u8g2\csrc/u8x8_d_ssd1607_200x200.c ****       break;
 385:..\..\..\u8g2\u8g2\csrc/u8x8_d_ssd1607_200x200.c ****     case U8X8_MSG_DISPLAY_REFRESH:
 386:..\..\..\u8g2\u8g2\csrc/u8x8_d_ssd1607_200x200.c ****       u8x8_cad_SendSequence(u8x8, u8x8_d_ssd1607_to_display_seq);
 387:..\..\..\u8g2\u8g2\csrc/u8x8_d_ssd1607_200x200.c ****       break;
 388:..\..\..\u8g2\u8g2\csrc/u8x8_d_ssd1607_200x200.c ****     default:
 389:..\..\..\u8g2\u8g2\csrc/u8x8_d_ssd1607_200x200.c ****       return 0;
 390:..\..\..\u8g2\u8g2\csrc/u8x8_d_ssd1607_200x200.c ****   }
 391:..\..\..\u8g2\u8g2\csrc/u8x8_d_ssd1607_200x200.c ****   return 1;
 358              		.loc 1 391 0
 359 003e 0120     		movs	r0, #1
 373:..\..\..\u8g2\u8g2\csrc/u8x8_d_ssd1607_200x200.c ****       break;
 360              		.loc 1 373 0
 361 0040 10BD     		pop	{r4, pc}
 362              	.LVL53:
 363              	.L19:
 375:..\..\..\u8g2\u8g2\csrc/u8x8_d_ssd1607_200x200.c **** 	u8x8_cad_SendSequence(u8x8, u8x8_d_ssd1607_200x200_powersave0_seq);
 364              		.loc 1 375 0
 365 0042 08B9     		cbnz	r0, .L23
 376:..\..\..\u8g2\u8g2\csrc/u8x8_d_ssd1607_200x200.c ****       else
 366              		.loc 1 376 0
 367 0044 0A49     		ldr	r1, .L27+8
 368 0046 08E0     		b	.L26
 369              	.L23:
 378:..\..\..\u8g2\u8g2\csrc/u8x8_d_ssd1607_200x200.c ****       break;
 370              		.loc 1 378 0
 371 0048 0A49     		ldr	r1, .L27+12
 372 004a 06E0     		b	.L26
 373              	.L21:
 383:..\..\..\u8g2\u8g2\csrc/u8x8_d_ssd1607_200x200.c ****       break;
 374              		.loc 1 383 0
 375 004c 0146     		mov	r1, r0
 376 004e 1A46     		mov	r2, r3
 377 0050 2046     		mov	r0, r4
 378 0052 FFF7FEFF 		bl	u8x8_d_ssd1607_draw_tile
 379              	.LVL54:
 380 0056 F2E7     		b	.L25
 381              	.LVL55:
 382              	.L22:
 386:..\..\..\u8g2\u8g2\csrc/u8x8_d_ssd1607_200x200.c ****       break;
 383              		.loc 1 386 0
 384 0058 0749     		ldr	r1, .L27+16
ARM GAS  C:\Users\jesse\AppData\Local\Temp\ccdqic9G.s 			page 15


 385              	.L26:
 386 005a 2046     		mov	r0, r4
 387 005c FFF7FEFF 		bl	u8x8_cad_SendSequence
 388              	.LVL56:
 389 0060 EDE7     		b	.L25
 390              	.LVL57:
 391              	.L24:
 389:..\..\..\u8g2\u8g2\csrc/u8x8_d_ssd1607_200x200.c ****   }
 392              		.loc 1 389 0
 393 0062 0020     		movs	r0, #0
 392:..\..\..\u8g2\u8g2\csrc/u8x8_d_ssd1607_200x200.c **** }
 394              		.loc 1 392 0
 395 0064 10BD     		pop	{r4, pc}
 396              	.LVL58:
 397              	.L28:
 398 0066 00BF     		.align	2
 399              	.L27:
 400 0068 10000000 		.word	.LANCHOR0+16
 401 006c 28000000 		.word	.LANCHOR0+40
 402 0070 67000000 		.word	.LANCHOR0+103
 403 0074 74000000 		.word	.LANCHOR0+116
 404 0078 7F000000 		.word	.LANCHOR0+127
 405              		.cfi_endproc
 406              	.LFE3:
 407              		.size	u8x8_d_ssd1607_200x200, .-u8x8_d_ssd1607_200x200
 408              		.section	.text.u8x8_d_ssd1607_v2_200x200,"ax",%progbits
 409              		.align	1
 410              		.global	u8x8_d_ssd1607_v2_200x200
 411              		.thumb
 412              		.thumb_func
 413              		.type	u8x8_d_ssd1607_v2_200x200, %function
 414              	u8x8_d_ssd1607_v2_200x200:
 415              	.LFB4:
 393:..\..\..\u8g2\u8g2\csrc/u8x8_d_ssd1607_200x200.c **** 
 394:..\..\..\u8g2\u8g2\csrc/u8x8_d_ssd1607_200x200.c **** 
 395:..\..\..\u8g2\u8g2\csrc/u8x8_d_ssd1607_200x200.c **** /*=================================================*/
 396:..\..\..\u8g2\u8g2\csrc/u8x8_d_ssd1607_200x200.c **** /* there is no improvement possible... so i consider the v2 version as obsolete */
 397:..\..\..\u8g2\u8g2\csrc/u8x8_d_ssd1607_200x200.c **** 
 398:..\..\..\u8g2\u8g2\csrc/u8x8_d_ssd1607_200x200.c **** 
 399:..\..\..\u8g2\u8g2\csrc/u8x8_d_ssd1607_200x200.c **** static const uint8_t u8x8_d_ssd1607_v2_to_display_seq[] = {
 400:..\..\..\u8g2\u8g2\csrc/u8x8_d_ssd1607_200x200.c ****   U8X8_START_TRANSFER(),             	/* enable chip, delay is part of the transfer start */
 401:..\..\..\u8g2\u8g2\csrc/u8x8_d_ssd1607_200x200.c **** 
 402:..\..\..\u8g2\u8g2\csrc/u8x8_d_ssd1607_200x200.c ****   /*
 403:..\..\..\u8g2\u8g2\csrc/u8x8_d_ssd1607_200x200.c **** 0xaa, 0x09, 0x09, 0x19, 0x19, 
 404:..\..\..\u8g2\u8g2\csrc/u8x8_d_ssd1607_200x200.c **** 0x11, 0x11, 0x11, 0x11, 0x00, 
 405:..\..\..\u8g2\u8g2\csrc/u8x8_d_ssd1607_200x200.c **** 0x00, 0x00, 0x00, 0x00, 0x00, 
 406:..\..\..\u8g2\u8g2\csrc/u8x8_d_ssd1607_200x200.c **** 0x00, 0x00, 0x00, 0x00, 0x00, 
 407:..\..\..\u8g2\u8g2\csrc/u8x8_d_ssd1607_200x200.c **** 
 408:..\..\..\u8g2\u8g2\csrc/u8x8_d_ssd1607_200x200.c **** 0x75, 0x77, 0x77, 0x77, 0x07, 
 409:..\..\..\u8g2\u8g2\csrc/u8x8_d_ssd1607_200x200.c **** 0x00, 0x00, 0x00, 0x00, 0x00
 410:..\..\..\u8g2\u8g2\csrc/u8x8_d_ssd1607_200x200.c **** measured 1240 ms with IL3830 196x128
 411:..\..\..\u8g2\u8g2\csrc/u8x8_d_ssd1607_200x200.c ****   
 412:..\..\..\u8g2\u8g2\csrc/u8x8_d_ssd1607_200x200.c ****   
 413:..\..\..\u8g2\u8g2\csrc/u8x8_d_ssd1607_200x200.c **** 0x02, 0x02, 0x01, 0x11, 0x12, 
 414:..\..\..\u8g2\u8g2\csrc/u8x8_d_ssd1607_200x200.c **** 0x12, 0x12, 0x22, 0x22, 0x66, 
 415:..\..\..\u8g2\u8g2\csrc/u8x8_d_ssd1607_200x200.c **** 0x69, 0x59, 0x58, 0x99, 0x99, 
 416:..\..\..\u8g2\u8g2\csrc/u8x8_d_ssd1607_200x200.c **** 0x88, 0x00, 0x00, 0x00, 0x00, 
ARM GAS  C:\Users\jesse\AppData\Local\Temp\ccdqic9G.s 			page 16


 417:..\..\..\u8g2\u8g2\csrc/u8x8_d_ssd1607_200x200.c **** 
 418:..\..\..\u8g2\u8g2\csrc/u8x8_d_ssd1607_200x200.c **** 0xf8, 0xb4, 0x13, 0x51, 0x35, 
 419:..\..\..\u8g2\u8g2\csrc/u8x8_d_ssd1607_200x200.c **** 0x51, 0x51, 0xe9, 0x04, 0x00
 420:..\..\..\u8g2\u8g2\csrc/u8x8_d_ssd1607_200x200.c ****   
 421:..\..\..\u8g2\u8g2\csrc/u8x8_d_ssd1607_200x200.c **** */
 422:..\..\..\u8g2\u8g2\csrc/u8x8_d_ssd1607_200x200.c **** 
 423:..\..\..\u8g2\u8g2\csrc/u8x8_d_ssd1607_200x200.c ****   U8X8_C(0x32),	/* write LUT register*/
 424:..\..\..\u8g2\u8g2\csrc/u8x8_d_ssd1607_200x200.c **** 
 425:..\..\..\u8g2\u8g2\csrc/u8x8_d_ssd1607_200x200.c ****   /* https://github.com/olikraus/u8g2/issues/347 */
 426:..\..\..\u8g2\u8g2\csrc/u8x8_d_ssd1607_200x200.c ****   U8X8_A(0x02),
 427:..\..\..\u8g2\u8g2\csrc/u8x8_d_ssd1607_200x200.c ****   U8X8_A(0x02),
 428:..\..\..\u8g2\u8g2\csrc/u8x8_d_ssd1607_200x200.c ****   U8X8_A(0x01),
 429:..\..\..\u8g2\u8g2\csrc/u8x8_d_ssd1607_200x200.c ****   U8X8_A(0x11),
 430:..\..\..\u8g2\u8g2\csrc/u8x8_d_ssd1607_200x200.c ****   U8X8_A(0x12),
 431:..\..\..\u8g2\u8g2\csrc/u8x8_d_ssd1607_200x200.c ****   U8X8_A(0x12),
 432:..\..\..\u8g2\u8g2\csrc/u8x8_d_ssd1607_200x200.c ****   U8X8_A(0x22),
 433:..\..\..\u8g2\u8g2\csrc/u8x8_d_ssd1607_200x200.c ****   U8X8_A(0x22),
 434:..\..\..\u8g2\u8g2\csrc/u8x8_d_ssd1607_200x200.c ****   U8X8_A(0x66),
 435:..\..\..\u8g2\u8g2\csrc/u8x8_d_ssd1607_200x200.c ****   U8X8_A(0x69),
 436:..\..\..\u8g2\u8g2\csrc/u8x8_d_ssd1607_200x200.c ****   U8X8_A(0x69),
 437:..\..\..\u8g2\u8g2\csrc/u8x8_d_ssd1607_200x200.c ****   U8X8_A(0x59),
 438:..\..\..\u8g2\u8g2\csrc/u8x8_d_ssd1607_200x200.c ****   U8X8_A(0x58),
 439:..\..\..\u8g2\u8g2\csrc/u8x8_d_ssd1607_200x200.c ****   U8X8_A(0x99),
 440:..\..\..\u8g2\u8g2\csrc/u8x8_d_ssd1607_200x200.c ****   U8X8_A(0x99),
 441:..\..\..\u8g2\u8g2\csrc/u8x8_d_ssd1607_200x200.c ****   
 442:..\..\..\u8g2\u8g2\csrc/u8x8_d_ssd1607_200x200.c ****   U8X8_A(0x88),
 443:..\..\..\u8g2\u8g2\csrc/u8x8_d_ssd1607_200x200.c ****   U8X8_A(0x00),
 444:..\..\..\u8g2\u8g2\csrc/u8x8_d_ssd1607_200x200.c ****   U8X8_A(0x00),
 445:..\..\..\u8g2\u8g2\csrc/u8x8_d_ssd1607_200x200.c ****   U8X8_A(0x00),
 446:..\..\..\u8g2\u8g2\csrc/u8x8_d_ssd1607_200x200.c ****   U8X8_A(0x00),
 447:..\..\..\u8g2\u8g2\csrc/u8x8_d_ssd1607_200x200.c ****   
 448:..\..\..\u8g2\u8g2\csrc/u8x8_d_ssd1607_200x200.c ****   /* Timing part of the LUT, 20 Phases with 4 bit each: 10 bytes */
 449:..\..\..\u8g2\u8g2\csrc/u8x8_d_ssd1607_200x200.c ****   U8X8_A(0xF8),
 450:..\..\..\u8g2\u8g2\csrc/u8x8_d_ssd1607_200x200.c ****   U8X8_A(0xB4),
 451:..\..\..\u8g2\u8g2\csrc/u8x8_d_ssd1607_200x200.c ****   U8X8_A(0x13),
 452:..\..\..\u8g2\u8g2\csrc/u8x8_d_ssd1607_200x200.c ****   U8X8_A(0x51),
 453:..\..\..\u8g2\u8g2\csrc/u8x8_d_ssd1607_200x200.c ****   U8X8_A(0x35),
 454:..\..\..\u8g2\u8g2\csrc/u8x8_d_ssd1607_200x200.c ****   
 455:..\..\..\u8g2\u8g2\csrc/u8x8_d_ssd1607_200x200.c ****   U8X8_A(0x51),
 456:..\..\..\u8g2\u8g2\csrc/u8x8_d_ssd1607_200x200.c ****   U8X8_A(0x51),
 457:..\..\..\u8g2\u8g2\csrc/u8x8_d_ssd1607_200x200.c ****   U8X8_A(0xe9),
 458:..\..\..\u8g2\u8g2\csrc/u8x8_d_ssd1607_200x200.c ****   U8X8_A(0x04),
 459:..\..\..\u8g2\u8g2\csrc/u8x8_d_ssd1607_200x200.c ****   U8X8_A(0x00),
 460:..\..\..\u8g2\u8g2\csrc/u8x8_d_ssd1607_200x200.c ****   
 461:..\..\..\u8g2\u8g2\csrc/u8x8_d_ssd1607_200x200.c ****   U8X8_CA(0x22, 0x04),	/* display update seq. option: clk -> CP -> LUT -> initial display -> patter
 462:..\..\..\u8g2\u8g2\csrc/u8x8_d_ssd1607_200x200.c ****   U8X8_C(0x20),	/* execute sequence */
 463:..\..\..\u8g2\u8g2\csrc/u8x8_d_ssd1607_200x200.c ****   
 464:..\..\..\u8g2\u8g2\csrc/u8x8_d_ssd1607_200x200.c ****   U8X8_DLY(250),	/* delay for 1500ms. The current sequence takes 1300ms */
 465:..\..\..\u8g2\u8g2\csrc/u8x8_d_ssd1607_200x200.c ****   U8X8_DLY(250),
 466:..\..\..\u8g2\u8g2\csrc/u8x8_d_ssd1607_200x200.c ****   U8X8_DLY(250),
 467:..\..\..\u8g2\u8g2\csrc/u8x8_d_ssd1607_200x200.c ****   U8X8_DLY(250),
 468:..\..\..\u8g2\u8g2\csrc/u8x8_d_ssd1607_200x200.c ****   
 469:..\..\..\u8g2\u8g2\csrc/u8x8_d_ssd1607_200x200.c ****   U8X8_DLY(250),
 470:..\..\..\u8g2\u8g2\csrc/u8x8_d_ssd1607_200x200.c ****   U8X8_DLY(250),
 471:..\..\..\u8g2\u8g2\csrc/u8x8_d_ssd1607_200x200.c ****   
 472:..\..\..\u8g2\u8g2\csrc/u8x8_d_ssd1607_200x200.c ****   
 473:..\..\..\u8g2\u8g2\csrc/u8x8_d_ssd1607_200x200.c ****   U8X8_END_TRANSFER(),             	/* disable chip */
ARM GAS  C:\Users\jesse\AppData\Local\Temp\ccdqic9G.s 			page 17


 474:..\..\..\u8g2\u8g2\csrc/u8x8_d_ssd1607_200x200.c ****   U8X8_END()             			/* end of sequence */
 475:..\..\..\u8g2\u8g2\csrc/u8x8_d_ssd1607_200x200.c **** };
 476:..\..\..\u8g2\u8g2\csrc/u8x8_d_ssd1607_200x200.c **** 
 477:..\..\..\u8g2\u8g2\csrc/u8x8_d_ssd1607_200x200.c **** 
 478:..\..\..\u8g2\u8g2\csrc/u8x8_d_ssd1607_200x200.c **** uint8_t u8x8_d_ssd1607_v2_200x200(u8x8_t *u8x8, uint8_t msg, uint8_t arg_int, void *arg_ptr)
 479:..\..\..\u8g2\u8g2\csrc/u8x8_d_ssd1607_200x200.c **** {
 416              		.loc 1 479 0
 417              		.cfi_startproc
 418              		@ args = 0, pretend = 0, frame = 0
 419              		@ frame_needed = 0, uses_anonymous_args = 0
 420              	.LVL59:
 480:..\..\..\u8g2\u8g2\csrc/u8x8_d_ssd1607_200x200.c ****   switch(msg)
 421              		.loc 1 480 0
 422 0000 0939     		subs	r1, r1, #9
 423              	.LVL60:
 479:..\..\..\u8g2\u8g2\csrc/u8x8_d_ssd1607_200x200.c ****   switch(msg)
 424              		.loc 1 479 0
 425 0002 10B5     		push	{r4, lr}
 426              		.cfi_def_cfa_offset 8
 427              		.cfi_offset 4, -8
 428              		.cfi_offset 14, -4
 479:..\..\..\u8g2\u8g2\csrc/u8x8_d_ssd1607_200x200.c ****   switch(msg)
 429              		.loc 1 479 0
 430 0004 0446     		mov	r4, r0
 431 0006 1046     		mov	r0, r2
 432              	.LVL61:
 433              		.loc 1 480 0
 434 0008 0729     		cmp	r1, #7
 435 000a 2AD8     		bhi	.L39
 436 000c DFE801F0 		tbb	[pc, r1]
 437              	.LVL62:
 438              	.L32:
 439 0010 04       		.byte	(.L31-.L32)/2
 440 0011 09       		.byte	(.L33-.L32)/2
 441 0012 19       		.byte	(.L34-.L32)/2
 442 0013 29       		.byte	(.L39-.L32)/2
 443 0014 17       		.byte	(.L40-.L32)/2
 444 0015 29       		.byte	(.L39-.L32)/2
 445 0016 1E       		.byte	(.L36-.L32)/2
 446 0017 24       		.byte	(.L37-.L32)/2
 447              		.p2align 1
 448              	.L31:
 481:..\..\..\u8g2\u8g2\csrc/u8x8_d_ssd1607_200x200.c ****   {
 482:..\..\..\u8g2\u8g2\csrc/u8x8_d_ssd1607_200x200.c ****     case U8X8_MSG_DISPLAY_SETUP_MEMORY:
 483:..\..\..\u8g2\u8g2\csrc/u8x8_d_ssd1607_200x200.c ****       u8x8_d_helper_display_setup_memory(u8x8, &u8x8_ssd1607_200x200_display_info);
 449              		.loc 1 483 0
 450 0018 1349     		ldr	r1, .L42
 451 001a 2046     		mov	r0, r4
 452 001c FFF7FEFF 		bl	u8x8_d_helper_display_setup_memory
 453              	.LVL63:
 454 0020 0DE0     		b	.L40
 455              	.LVL64:
 456              	.L33:
 484:..\..\..\u8g2\u8g2\csrc/u8x8_d_ssd1607_200x200.c ****       break;
 485:..\..\..\u8g2\u8g2\csrc/u8x8_d_ssd1607_200x200.c ****     case U8X8_MSG_DISPLAY_INIT:
 486:..\..\..\u8g2\u8g2\csrc/u8x8_d_ssd1607_200x200.c ****       u8x8_d_helper_display_init(u8x8);
 457              		.loc 1 486 0
ARM GAS  C:\Users\jesse\AppData\Local\Temp\ccdqic9G.s 			page 18


 458 0022 2046     		mov	r0, r4
 459 0024 FFF7FEFF 		bl	u8x8_d_helper_display_init
 460              	.LVL65:
 487:..\..\..\u8g2\u8g2\csrc/u8x8_d_ssd1607_200x200.c ****       u8x8_cad_SendSequence(u8x8, u8x8_d_ssd1607_200x200_init_seq);    
 461              		.loc 1 487 0
 462 0028 1049     		ldr	r1, .L42+4
 463 002a 2046     		mov	r0, r4
 464 002c FFF7FEFF 		bl	u8x8_cad_SendSequence
 465              	.LVL66:
 488:..\..\..\u8g2\u8g2\csrc/u8x8_d_ssd1607_200x200.c ****       u8x8_cad_SendSequence(u8x8, u8x8_d_ssd1607_200x200_powersave0_seq);
 466              		.loc 1 488 0
 467 0030 2046     		mov	r0, r4
 468 0032 0F49     		ldr	r1, .L42+8
 469 0034 FFF7FEFF 		bl	u8x8_cad_SendSequence
 470              	.LVL67:
 489:..\..\..\u8g2\u8g2\csrc/u8x8_d_ssd1607_200x200.c ****       u8x8_d_ssd1607_200x200_first_init(u8x8);
 471              		.loc 1 489 0
 472 0038 2046     		mov	r0, r4
 473 003a FFF7FEFF 		bl	u8x8_d_ssd1607_200x200_first_init
 474              	.LVL68:
 475              	.L40:
 490:..\..\..\u8g2\u8g2\csrc/u8x8_d_ssd1607_200x200.c ****       break;
 491:..\..\..\u8g2\u8g2\csrc/u8x8_d_ssd1607_200x200.c ****     case U8X8_MSG_DISPLAY_SET_POWER_SAVE:
 492:..\..\..\u8g2\u8g2\csrc/u8x8_d_ssd1607_200x200.c ****       if ( arg_int == 0 )
 493:..\..\..\u8g2\u8g2\csrc/u8x8_d_ssd1607_200x200.c **** 	u8x8_cad_SendSequence(u8x8, u8x8_d_ssd1607_200x200_powersave0_seq);
 494:..\..\..\u8g2\u8g2\csrc/u8x8_d_ssd1607_200x200.c ****       else
 495:..\..\..\u8g2\u8g2\csrc/u8x8_d_ssd1607_200x200.c **** 	u8x8_cad_SendSequence(u8x8, u8x8_d_ssd1607_200x200_powersave1_seq);
 496:..\..\..\u8g2\u8g2\csrc/u8x8_d_ssd1607_200x200.c ****       break;
 497:..\..\..\u8g2\u8g2\csrc/u8x8_d_ssd1607_200x200.c ****     case U8X8_MSG_DISPLAY_SET_FLIP_MODE:
 498:..\..\..\u8g2\u8g2\csrc/u8x8_d_ssd1607_200x200.c ****       break;
 499:..\..\..\u8g2\u8g2\csrc/u8x8_d_ssd1607_200x200.c ****     case U8X8_MSG_DISPLAY_DRAW_TILE:
 500:..\..\..\u8g2\u8g2\csrc/u8x8_d_ssd1607_200x200.c ****       u8x8_d_ssd1607_draw_tile(u8x8, arg_int, arg_ptr);
 501:..\..\..\u8g2\u8g2\csrc/u8x8_d_ssd1607_200x200.c ****       break;
 502:..\..\..\u8g2\u8g2\csrc/u8x8_d_ssd1607_200x200.c ****     case U8X8_MSG_DISPLAY_REFRESH:
 503:..\..\..\u8g2\u8g2\csrc/u8x8_d_ssd1607_200x200.c ****       u8x8_cad_SendSequence(u8x8, u8x8_d_ssd1607_v2_to_display_seq);
 504:..\..\..\u8g2\u8g2\csrc/u8x8_d_ssd1607_200x200.c ****       break;
 505:..\..\..\u8g2\u8g2\csrc/u8x8_d_ssd1607_200x200.c ****     default:
 506:..\..\..\u8g2\u8g2\csrc/u8x8_d_ssd1607_200x200.c ****       return 0;
 507:..\..\..\u8g2\u8g2\csrc/u8x8_d_ssd1607_200x200.c ****   }
 508:..\..\..\u8g2\u8g2\csrc/u8x8_d_ssd1607_200x200.c ****   return 1;
 476              		.loc 1 508 0
 477 003e 0120     		movs	r0, #1
 490:..\..\..\u8g2\u8g2\csrc/u8x8_d_ssd1607_200x200.c ****       break;
 478              		.loc 1 490 0
 479 0040 10BD     		pop	{r4, pc}
 480              	.LVL69:
 481              	.L34:
 492:..\..\..\u8g2\u8g2\csrc/u8x8_d_ssd1607_200x200.c **** 	u8x8_cad_SendSequence(u8x8, u8x8_d_ssd1607_200x200_powersave0_seq);
 482              		.loc 1 492 0
 483 0042 08B9     		cbnz	r0, .L38
 493:..\..\..\u8g2\u8g2\csrc/u8x8_d_ssd1607_200x200.c ****       else
 484              		.loc 1 493 0
 485 0044 0A49     		ldr	r1, .L42+8
 486 0046 08E0     		b	.L41
 487              	.L38:
 495:..\..\..\u8g2\u8g2\csrc/u8x8_d_ssd1607_200x200.c ****       break;
 488              		.loc 1 495 0
ARM GAS  C:\Users\jesse\AppData\Local\Temp\ccdqic9G.s 			page 19


 489 0048 0A49     		ldr	r1, .L42+12
 490 004a 06E0     		b	.L41
 491              	.L36:
 500:..\..\..\u8g2\u8g2\csrc/u8x8_d_ssd1607_200x200.c ****       break;
 492              		.loc 1 500 0
 493 004c 0146     		mov	r1, r0
 494 004e 1A46     		mov	r2, r3
 495 0050 2046     		mov	r0, r4
 496 0052 FFF7FEFF 		bl	u8x8_d_ssd1607_draw_tile
 497              	.LVL70:
 498 0056 F2E7     		b	.L40
 499              	.LVL71:
 500              	.L37:
 503:..\..\..\u8g2\u8g2\csrc/u8x8_d_ssd1607_200x200.c ****       break;
 501              		.loc 1 503 0
 502 0058 0749     		ldr	r1, .L42+16
 503              	.L41:
 504 005a 2046     		mov	r0, r4
 505 005c FFF7FEFF 		bl	u8x8_cad_SendSequence
 506              	.LVL72:
 507 0060 EDE7     		b	.L40
 508              	.LVL73:
 509              	.L39:
 506:..\..\..\u8g2\u8g2\csrc/u8x8_d_ssd1607_200x200.c ****   }
 510              		.loc 1 506 0
 511 0062 0020     		movs	r0, #0
 509:..\..\..\u8g2\u8g2\csrc/u8x8_d_ssd1607_200x200.c **** }
 512              		.loc 1 509 0
 513 0064 10BD     		pop	{r4, pc}
 514              	.LVL74:
 515              	.L43:
 516 0066 00BF     		.align	2
 517              	.L42:
 518 0068 10000000 		.word	.LANCHOR0+16
 519 006c 28000000 		.word	.LANCHOR0+40
 520 0070 67000000 		.word	.LANCHOR0+103
 521 0074 74000000 		.word	.LANCHOR0+116
 522 0078 D4000000 		.word	.LANCHOR0+212
 523              		.cfi_endproc
 524              	.LFE4:
 525              		.size	u8x8_d_ssd1607_v2_200x200, .-u8x8_d_ssd1607_v2_200x200
 526              		.section	.text.u8x8_d_ssd1607_gd_200x200,"ax",%progbits
 527              		.align	1
 528              		.global	u8x8_d_ssd1607_gd_200x200
 529              		.thumb
 530              		.thumb_func
 531              		.type	u8x8_d_ssd1607_gd_200x200, %function
 532              	u8x8_d_ssd1607_gd_200x200:
 533              	.LFB5:
 510:..\..\..\u8g2\u8g2\csrc/u8x8_d_ssd1607_200x200.c **** 
 511:..\..\..\u8g2\u8g2\csrc/u8x8_d_ssd1607_200x200.c **** 
 512:..\..\..\u8g2\u8g2\csrc/u8x8_d_ssd1607_200x200.c **** /*=================================================*/
 513:..\..\..\u8g2\u8g2\csrc/u8x8_d_ssd1607_200x200.c **** /* GDEP015OC1 */
 514:..\..\..\u8g2\u8g2\csrc/u8x8_d_ssd1607_200x200.c **** /* https://github.com/olikraus/u8g2/issues/454 */
 515:..\..\..\u8g2\u8g2\csrc/u8x8_d_ssd1607_200x200.c **** 
 516:..\..\..\u8g2\u8g2\csrc/u8x8_d_ssd1607_200x200.c **** 
 517:..\..\..\u8g2\u8g2\csrc/u8x8_d_ssd1607_200x200.c **** static const uint8_t u8x8_d_ssd1607_gd_to_display_seq[] = {
ARM GAS  C:\Users\jesse\AppData\Local\Temp\ccdqic9G.s 			page 20


 518:..\..\..\u8g2\u8g2\csrc/u8x8_d_ssd1607_200x200.c ****   U8X8_START_TRANSFER(),             	/* enable chip, delay is part of the transfer start */
 519:..\..\..\u8g2\u8g2\csrc/u8x8_d_ssd1607_200x200.c **** 
 520:..\..\..\u8g2\u8g2\csrc/u8x8_d_ssd1607_200x200.c ****   /*
 521:..\..\..\u8g2\u8g2\csrc/u8x8_d_ssd1607_200x200.c **** 0xaa, 0x09, 0x09, 0x19, 0x19, 
 522:..\..\..\u8g2\u8g2\csrc/u8x8_d_ssd1607_200x200.c **** 0x11, 0x11, 0x11, 0x11, 0x00, 
 523:..\..\..\u8g2\u8g2\csrc/u8x8_d_ssd1607_200x200.c **** 0x00, 0x00, 0x00, 0x00, 0x00, 
 524:..\..\..\u8g2\u8g2\csrc/u8x8_d_ssd1607_200x200.c **** 0x00, 0x00, 0x00, 0x00, 0x00, 
 525:..\..\..\u8g2\u8g2\csrc/u8x8_d_ssd1607_200x200.c **** 
 526:..\..\..\u8g2\u8g2\csrc/u8x8_d_ssd1607_200x200.c **** 0x75, 0x77, 0x77, 0x77, 0x07, 
 527:..\..\..\u8g2\u8g2\csrc/u8x8_d_ssd1607_200x200.c **** 0x00, 0x00, 0x00, 0x00, 0x00
 528:..\..\..\u8g2\u8g2\csrc/u8x8_d_ssd1607_200x200.c **** measured 1240 ms with IL3830 196x128
 529:..\..\..\u8g2\u8g2\csrc/u8x8_d_ssd1607_200x200.c ****   
 530:..\..\..\u8g2\u8g2\csrc/u8x8_d_ssd1607_200x200.c ****   
 531:..\..\..\u8g2\u8g2\csrc/u8x8_d_ssd1607_200x200.c **** 0x02, 0x02, 0x01, 0x11, 0x12, 
 532:..\..\..\u8g2\u8g2\csrc/u8x8_d_ssd1607_200x200.c **** 0x12, 0x12, 0x22, 0x22, 0x66, 
 533:..\..\..\u8g2\u8g2\csrc/u8x8_d_ssd1607_200x200.c **** 0x69, 0x59, 0x58, 0x99, 0x99, 
 534:..\..\..\u8g2\u8g2\csrc/u8x8_d_ssd1607_200x200.c **** 0x88, 0x00, 0x00, 0x00, 0x00, 
 535:..\..\..\u8g2\u8g2\csrc/u8x8_d_ssd1607_200x200.c **** 
 536:..\..\..\u8g2\u8g2\csrc/u8x8_d_ssd1607_200x200.c **** 0xf8, 0xb4, 0x13, 0x51, 0x35, 
 537:..\..\..\u8g2\u8g2\csrc/u8x8_d_ssd1607_200x200.c **** 0x51, 0x51, 0xe9, 0x04, 0x00
 538:..\..\..\u8g2\u8g2\csrc/u8x8_d_ssd1607_200x200.c ****   
 539:..\..\..\u8g2\u8g2\csrc/u8x8_d_ssd1607_200x200.c **** */
 540:..\..\..\u8g2\u8g2\csrc/u8x8_d_ssd1607_200x200.c **** 
 541:..\..\..\u8g2\u8g2\csrc/u8x8_d_ssd1607_200x200.c ****   U8X8_C(0x32),	/* write LUT register*/
 542:..\..\..\u8g2\u8g2\csrc/u8x8_d_ssd1607_200x200.c **** 
 543:..\..\..\u8g2\u8g2\csrc/u8x8_d_ssd1607_200x200.c **** /*
 544:..\..\..\u8g2\u8g2\csrc/u8x8_d_ssd1607_200x200.c ****   U8X8_A(0x50), U8X8_A(0xAA), U8X8_A(0x55), U8X8_A(0xAA), U8X8_A(0x11), 
 545:..\..\..\u8g2\u8g2\csrc/u8x8_d_ssd1607_200x200.c ****   U8X8_A(0x00), U8X8_A(0x00), U8X8_A(0x00), U8X8_A(0x00), U8X8_A(0x00), 
 546:..\..\..\u8g2\u8g2\csrc/u8x8_d_ssd1607_200x200.c ****   U8X8_A(0x00), U8X8_A(0x00), U8X8_A(0x00), U8X8_A(0x00), U8X8_A(0x00), 
 547:..\..\..\u8g2\u8g2\csrc/u8x8_d_ssd1607_200x200.c ****   U8X8_A(0x00), U8X8_A(0x00), U8X8_A(0x00), U8X8_A(0x00), U8X8_A(0x00), 
 548:..\..\..\u8g2\u8g2\csrc/u8x8_d_ssd1607_200x200.c ****   
 549:..\..\..\u8g2\u8g2\csrc/u8x8_d_ssd1607_200x200.c ****   U8X8_A(0xFF), U8X8_A(0xFF), U8X8_A(0x1F), U8X8_A(0x00), U8X8_A(0x00), 
 550:..\..\..\u8g2\u8g2\csrc/u8x8_d_ssd1607_200x200.c ****   U8X8_A(0x00), U8X8_A(0x00), U8X8_A(0x00), U8X8_A(0x00), U8X8_A(0x00), 
 551:..\..\..\u8g2\u8g2\csrc/u8x8_d_ssd1607_200x200.c **** */
 552:..\..\..\u8g2\u8g2\csrc/u8x8_d_ssd1607_200x200.c ****   U8X8_A(0x10), U8X8_A(0x18), U8X8_A(0x18), U8X8_A(0x08), U8X8_A(0x18),   // numbers based on Waves
 553:..\..\..\u8g2\u8g2\csrc/u8x8_d_ssd1607_200x200.c ****   U8X8_A(0x18), U8X8_A(0x08), U8X8_A(0x00), U8X8_A(0x00), U8X8_A(0x00), 
 554:..\..\..\u8g2\u8g2\csrc/u8x8_d_ssd1607_200x200.c ****   U8X8_A(0x00), U8X8_A(0x00), U8X8_A(0x00), U8X8_A(0x00), U8X8_A(0x00), 
 555:..\..\..\u8g2\u8g2\csrc/u8x8_d_ssd1607_200x200.c ****   U8X8_A(0x00), U8X8_A(0x00), U8X8_A(0x00), U8X8_A(0x00), U8X8_A(0x00), 
 556:..\..\..\u8g2\u8g2\csrc/u8x8_d_ssd1607_200x200.c ****   
 557:..\..\..\u8g2\u8g2\csrc/u8x8_d_ssd1607_200x200.c ****   U8X8_A(0x13), U8X8_A(0x14), U8X8_A(0x44), U8X8_A(0x12), U8X8_A(0x00), 
 558:..\..\..\u8g2\u8g2\csrc/u8x8_d_ssd1607_200x200.c ****   U8X8_A(0x00), U8X8_A(0x00), U8X8_A(0x00), U8X8_A(0x00), U8X8_A(0x00),
 559:..\..\..\u8g2\u8g2\csrc/u8x8_d_ssd1607_200x200.c **** 
 560:..\..\..\u8g2\u8g2\csrc/u8x8_d_ssd1607_200x200.c ****   U8X8_CA(0x22, 0xc4),	/* display update seq. option: clk -> CP -> LUT -> initial display -> patter
 561:..\..\..\u8g2\u8g2\csrc/u8x8_d_ssd1607_200x200.c ****   U8X8_C(0x20),	/* execute sequence */
 562:..\..\..\u8g2\u8g2\csrc/u8x8_d_ssd1607_200x200.c ****   
 563:..\..\..\u8g2\u8g2\csrc/u8x8_d_ssd1607_200x200.c ****   U8X8_DLY(250),	/* delay for 1500ms. The current sequence takes 1300ms */
 564:..\..\..\u8g2\u8g2\csrc/u8x8_d_ssd1607_200x200.c ****   U8X8_DLY(250),
 565:..\..\..\u8g2\u8g2\csrc/u8x8_d_ssd1607_200x200.c ****   U8X8_DLY(250),
 566:..\..\..\u8g2\u8g2\csrc/u8x8_d_ssd1607_200x200.c **** //  U8X8_DLY(250),
 567:..\..\..\u8g2\u8g2\csrc/u8x8_d_ssd1607_200x200.c ****   
 568:..\..\..\u8g2\u8g2\csrc/u8x8_d_ssd1607_200x200.c **** //  U8X8_DLY(250),
 569:..\..\..\u8g2\u8g2\csrc/u8x8_d_ssd1607_200x200.c **** //  U8X8_DLY(250),
 570:..\..\..\u8g2\u8g2\csrc/u8x8_d_ssd1607_200x200.c ****   
 571:..\..\..\u8g2\u8g2\csrc/u8x8_d_ssd1607_200x200.c ****   
 572:..\..\..\u8g2\u8g2\csrc/u8x8_d_ssd1607_200x200.c ****   U8X8_END_TRANSFER(),             	/* disable chip */
 573:..\..\..\u8g2\u8g2\csrc/u8x8_d_ssd1607_200x200.c ****   U8X8_END()             			/* end of sequence */
 574:..\..\..\u8g2\u8g2\csrc/u8x8_d_ssd1607_200x200.c **** };
ARM GAS  C:\Users\jesse\AppData\Local\Temp\ccdqic9G.s 			page 21


 575:..\..\..\u8g2\u8g2\csrc/u8x8_d_ssd1607_200x200.c **** 
 576:..\..\..\u8g2\u8g2\csrc/u8x8_d_ssd1607_200x200.c **** uint8_t u8x8_d_ssd1607_gd_200x200(u8x8_t *u8x8, uint8_t msg, uint8_t arg_int, void *arg_ptr)
 577:..\..\..\u8g2\u8g2\csrc/u8x8_d_ssd1607_200x200.c **** {
 534              		.loc 1 577 0
 535              		.cfi_startproc
 536              		@ args = 0, pretend = 0, frame = 0
 537              		@ frame_needed = 0, uses_anonymous_args = 0
 538              	.LVL75:
 578:..\..\..\u8g2\u8g2\csrc/u8x8_d_ssd1607_200x200.c ****   switch(msg)
 539              		.loc 1 578 0
 540 0000 0939     		subs	r1, r1, #9
 541              	.LVL76:
 577:..\..\..\u8g2\u8g2\csrc/u8x8_d_ssd1607_200x200.c ****   switch(msg)
 542              		.loc 1 577 0
 543 0002 10B5     		push	{r4, lr}
 544              		.cfi_def_cfa_offset 8
 545              		.cfi_offset 4, -8
 546              		.cfi_offset 14, -4
 577:..\..\..\u8g2\u8g2\csrc/u8x8_d_ssd1607_200x200.c ****   switch(msg)
 547              		.loc 1 577 0
 548 0004 0446     		mov	r4, r0
 549 0006 1046     		mov	r0, r2
 550              	.LVL77:
 551              		.loc 1 578 0
 552 0008 0729     		cmp	r1, #7
 553 000a 2AD8     		bhi	.L54
 554 000c DFE801F0 		tbb	[pc, r1]
 555              	.LVL78:
 556              	.L47:
 557 0010 04       		.byte	(.L46-.L47)/2
 558 0011 09       		.byte	(.L48-.L47)/2
 559 0012 19       		.byte	(.L49-.L47)/2
 560 0013 29       		.byte	(.L54-.L47)/2
 561 0014 17       		.byte	(.L55-.L47)/2
 562 0015 29       		.byte	(.L54-.L47)/2
 563 0016 1E       		.byte	(.L51-.L47)/2
 564 0017 24       		.byte	(.L52-.L47)/2
 565              		.p2align 1
 566              	.L46:
 579:..\..\..\u8g2\u8g2\csrc/u8x8_d_ssd1607_200x200.c ****   {
 580:..\..\..\u8g2\u8g2\csrc/u8x8_d_ssd1607_200x200.c ****     case U8X8_MSG_DISPLAY_SETUP_MEMORY:
 581:..\..\..\u8g2\u8g2\csrc/u8x8_d_ssd1607_200x200.c ****       u8x8_d_helper_display_setup_memory(u8x8, &u8x8_ssd1607_200x200_display_info);
 567              		.loc 1 581 0
 568 0018 1349     		ldr	r1, .L57
 569 001a 2046     		mov	r0, r4
 570 001c FFF7FEFF 		bl	u8x8_d_helper_display_setup_memory
 571              	.LVL79:
 572 0020 0DE0     		b	.L55
 573              	.LVL80:
 574              	.L48:
 582:..\..\..\u8g2\u8g2\csrc/u8x8_d_ssd1607_200x200.c ****       break;
 583:..\..\..\u8g2\u8g2\csrc/u8x8_d_ssd1607_200x200.c ****     case U8X8_MSG_DISPLAY_INIT:
 584:..\..\..\u8g2\u8g2\csrc/u8x8_d_ssd1607_200x200.c ****       u8x8_d_helper_display_init(u8x8);
 575              		.loc 1 584 0
 576 0022 2046     		mov	r0, r4
 577 0024 FFF7FEFF 		bl	u8x8_d_helper_display_init
 578              	.LVL81:
ARM GAS  C:\Users\jesse\AppData\Local\Temp\ccdqic9G.s 			page 22


 585:..\..\..\u8g2\u8g2\csrc/u8x8_d_ssd1607_200x200.c ****       u8x8_cad_SendSequence(u8x8, u8x8_d_ssd1607_200x200_init_seq);    
 579              		.loc 1 585 0
 580 0028 1049     		ldr	r1, .L57+4
 581 002a 2046     		mov	r0, r4
 582 002c FFF7FEFF 		bl	u8x8_cad_SendSequence
 583              	.LVL82:
 586:..\..\..\u8g2\u8g2\csrc/u8x8_d_ssd1607_200x200.c ****       u8x8_cad_SendSequence(u8x8, u8x8_d_ssd1607_200x200_powersave0_seq);
 584              		.loc 1 586 0
 585 0030 2046     		mov	r0, r4
 586 0032 0F49     		ldr	r1, .L57+8
 587 0034 FFF7FEFF 		bl	u8x8_cad_SendSequence
 588              	.LVL83:
 587:..\..\..\u8g2\u8g2\csrc/u8x8_d_ssd1607_200x200.c ****       u8x8_d_ssd1607_200x200_first_init(u8x8);
 589              		.loc 1 587 0
 590 0038 2046     		mov	r0, r4
 591 003a FFF7FEFF 		bl	u8x8_d_ssd1607_200x200_first_init
 592              	.LVL84:
 593              	.L55:
 588:..\..\..\u8g2\u8g2\csrc/u8x8_d_ssd1607_200x200.c ****       break;
 589:..\..\..\u8g2\u8g2\csrc/u8x8_d_ssd1607_200x200.c ****     case U8X8_MSG_DISPLAY_SET_POWER_SAVE:
 590:..\..\..\u8g2\u8g2\csrc/u8x8_d_ssd1607_200x200.c ****       if ( arg_int == 0 )
 591:..\..\..\u8g2\u8g2\csrc/u8x8_d_ssd1607_200x200.c **** 	u8x8_cad_SendSequence(u8x8, u8x8_d_ssd1607_200x200_powersave0_seq);
 592:..\..\..\u8g2\u8g2\csrc/u8x8_d_ssd1607_200x200.c ****       else
 593:..\..\..\u8g2\u8g2\csrc/u8x8_d_ssd1607_200x200.c **** 	u8x8_cad_SendSequence(u8x8, u8x8_d_ssd1607_200x200_powersave1_seq);
 594:..\..\..\u8g2\u8g2\csrc/u8x8_d_ssd1607_200x200.c ****       break;
 595:..\..\..\u8g2\u8g2\csrc/u8x8_d_ssd1607_200x200.c ****     case U8X8_MSG_DISPLAY_SET_FLIP_MODE:
 596:..\..\..\u8g2\u8g2\csrc/u8x8_d_ssd1607_200x200.c ****       break;
 597:..\..\..\u8g2\u8g2\csrc/u8x8_d_ssd1607_200x200.c ****     case U8X8_MSG_DISPLAY_DRAW_TILE:
 598:..\..\..\u8g2\u8g2\csrc/u8x8_d_ssd1607_200x200.c ****       u8x8_d_ssd1607_draw_tile(u8x8, arg_int, arg_ptr);
 599:..\..\..\u8g2\u8g2\csrc/u8x8_d_ssd1607_200x200.c ****       break;
 600:..\..\..\u8g2\u8g2\csrc/u8x8_d_ssd1607_200x200.c ****     case U8X8_MSG_DISPLAY_REFRESH:
 601:..\..\..\u8g2\u8g2\csrc/u8x8_d_ssd1607_200x200.c ****       u8x8_cad_SendSequence(u8x8, u8x8_d_ssd1607_gd_to_display_seq);
 602:..\..\..\u8g2\u8g2\csrc/u8x8_d_ssd1607_200x200.c ****       break;
 603:..\..\..\u8g2\u8g2\csrc/u8x8_d_ssd1607_200x200.c ****     default:
 604:..\..\..\u8g2\u8g2\csrc/u8x8_d_ssd1607_200x200.c ****       return 0;
 605:..\..\..\u8g2\u8g2\csrc/u8x8_d_ssd1607_200x200.c ****   }
 606:..\..\..\u8g2\u8g2\csrc/u8x8_d_ssd1607_200x200.c ****   return 1;
 594              		.loc 1 606 0
 595 003e 0120     		movs	r0, #1
 588:..\..\..\u8g2\u8g2\csrc/u8x8_d_ssd1607_200x200.c ****       break;
 596              		.loc 1 588 0
 597 0040 10BD     		pop	{r4, pc}
 598              	.LVL85:
 599              	.L49:
 590:..\..\..\u8g2\u8g2\csrc/u8x8_d_ssd1607_200x200.c **** 	u8x8_cad_SendSequence(u8x8, u8x8_d_ssd1607_200x200_powersave0_seq);
 600              		.loc 1 590 0
 601 0042 08B9     		cbnz	r0, .L53
 591:..\..\..\u8g2\u8g2\csrc/u8x8_d_ssd1607_200x200.c ****       else
 602              		.loc 1 591 0
 603 0044 0A49     		ldr	r1, .L57+8
 604 0046 08E0     		b	.L56
 605              	.L53:
 593:..\..\..\u8g2\u8g2\csrc/u8x8_d_ssd1607_200x200.c ****       break;
 606              		.loc 1 593 0
 607 0048 0A49     		ldr	r1, .L57+12
 608 004a 06E0     		b	.L56
 609              	.L51:
ARM GAS  C:\Users\jesse\AppData\Local\Temp\ccdqic9G.s 			page 23


 598:..\..\..\u8g2\u8g2\csrc/u8x8_d_ssd1607_200x200.c ****       break;
 610              		.loc 1 598 0
 611 004c 0146     		mov	r1, r0
 612 004e 1A46     		mov	r2, r3
 613 0050 2046     		mov	r0, r4
 614 0052 FFF7FEFF 		bl	u8x8_d_ssd1607_draw_tile
 615              	.LVL86:
 616 0056 F2E7     		b	.L55
 617              	.LVL87:
 618              	.L52:
 601:..\..\..\u8g2\u8g2\csrc/u8x8_d_ssd1607_200x200.c ****       break;
 619              		.loc 1 601 0
 620 0058 0749     		ldr	r1, .L57+16
 621              	.L56:
 622 005a 2046     		mov	r0, r4
 623 005c FFF7FEFF 		bl	u8x8_cad_SendSequence
 624              	.LVL88:
 625 0060 EDE7     		b	.L55
 626              	.LVL89:
 627              	.L54:
 604:..\..\..\u8g2\u8g2\csrc/u8x8_d_ssd1607_200x200.c ****   }
 628              		.loc 1 604 0
 629 0062 0020     		movs	r0, #0
 607:..\..\..\u8g2\u8g2\csrc/u8x8_d_ssd1607_200x200.c **** }
 630              		.loc 1 607 0
 631 0064 10BD     		pop	{r4, pc}
 632              	.LVL90:
 633              	.L58:
 634 0066 00BF     		.align	2
 635              	.L57:
 636 0068 10000000 		.word	.LANCHOR0+16
 637 006c 28000000 		.word	.LANCHOR0+40
 638 0070 67000000 		.word	.LANCHOR0+103
 639 0074 74000000 		.word	.LANCHOR0+116
 640 0078 27010000 		.word	.LANCHOR0+295
 641              		.cfi_endproc
 642              	.LFE5:
 643              		.size	u8x8_d_ssd1607_gd_200x200, .-u8x8_d_ssd1607_gd_200x200
 644              		.section	.text.u8x8_d_ssd1607_ws_200x200,"ax",%progbits
 645              		.align	1
 646              		.global	u8x8_d_ssd1607_ws_200x200
 647              		.thumb
 648              		.thumb_func
 649              		.type	u8x8_d_ssd1607_ws_200x200, %function
 650              	u8x8_d_ssd1607_ws_200x200:
 651              	.LFB6:
 608:..\..\..\u8g2\u8g2\csrc/u8x8_d_ssd1607_200x200.c **** 
 609:..\..\..\u8g2\u8g2\csrc/u8x8_d_ssd1607_200x200.c **** 
 610:..\..\..\u8g2\u8g2\csrc/u8x8_d_ssd1607_200x200.c **** 
 611:..\..\..\u8g2\u8g2\csrc/u8x8_d_ssd1607_200x200.c **** /*=================================================*/
 612:..\..\..\u8g2\u8g2\csrc/u8x8_d_ssd1607_200x200.c **** 
 613:..\..\..\u8g2\u8g2\csrc/u8x8_d_ssd1607_200x200.c **** static const uint8_t u8x8_d_ssd1607_ws_to_display_seq[] = {
 614:..\..\..\u8g2\u8g2\csrc/u8x8_d_ssd1607_200x200.c ****   U8X8_START_TRANSFER(),             	/* enable chip, delay is part of the transfer start */
 615:..\..\..\u8g2\u8g2\csrc/u8x8_d_ssd1607_200x200.c **** 
 616:..\..\..\u8g2\u8g2\csrc/u8x8_d_ssd1607_200x200.c **** 
 617:..\..\..\u8g2\u8g2\csrc/u8x8_d_ssd1607_200x200.c ****   U8X8_C(0x32),	/* write LUT register*/
 618:..\..\..\u8g2\u8g2\csrc/u8x8_d_ssd1607_200x200.c **** 
ARM GAS  C:\Users\jesse\AppData\Local\Temp\ccdqic9G.s 			page 24


 619:..\..\..\u8g2\u8g2\csrc/u8x8_d_ssd1607_200x200.c ****   U8X8_A(0x10), U8X8_A(0x18), U8X8_A(0x18), U8X8_A(0x08), U8X8_A(0x18),   // numbers based on Waves
 620:..\..\..\u8g2\u8g2\csrc/u8x8_d_ssd1607_200x200.c ****   U8X8_A(0x18), U8X8_A(0x08), U8X8_A(0x00), U8X8_A(0x00), U8X8_A(0x00), 
 621:..\..\..\u8g2\u8g2\csrc/u8x8_d_ssd1607_200x200.c ****   U8X8_A(0x00), U8X8_A(0x00), U8X8_A(0x00), U8X8_A(0x00), U8X8_A(0x00), 
 622:..\..\..\u8g2\u8g2\csrc/u8x8_d_ssd1607_200x200.c ****   U8X8_A(0x00), U8X8_A(0x00), U8X8_A(0x00), U8X8_A(0x00), U8X8_A(0x00), 
 623:..\..\..\u8g2\u8g2\csrc/u8x8_d_ssd1607_200x200.c ****   
 624:..\..\..\u8g2\u8g2\csrc/u8x8_d_ssd1607_200x200.c ****   U8X8_A(0x13), U8X8_A(0x14), U8X8_A(0x44), U8X8_A(0x12), U8X8_A(0x00), 
 625:..\..\..\u8g2\u8g2\csrc/u8x8_d_ssd1607_200x200.c ****   U8X8_A(0x00), U8X8_A(0x00), U8X8_A(0x00), U8X8_A(0x00), U8X8_A(0x00),
 626:..\..\..\u8g2\u8g2\csrc/u8x8_d_ssd1607_200x200.c **** 
 627:..\..\..\u8g2\u8g2\csrc/u8x8_d_ssd1607_200x200.c ****   U8X8_CA(0x22, 0xc4),	/* display update seq. option: clk -> CP -> LUT -> initial display -> patter
 628:..\..\..\u8g2\u8g2\csrc/u8x8_d_ssd1607_200x200.c ****   U8X8_C(0x20),	/* execute sequence */
 629:..\..\..\u8g2\u8g2\csrc/u8x8_d_ssd1607_200x200.c ****   
 630:..\..\..\u8g2\u8g2\csrc/u8x8_d_ssd1607_200x200.c ****   U8X8_DLY(250),	/* delay for 1250ms.  */
 631:..\..\..\u8g2\u8g2\csrc/u8x8_d_ssd1607_200x200.c ****   U8X8_DLY(250),
 632:..\..\..\u8g2\u8g2\csrc/u8x8_d_ssd1607_200x200.c ****   U8X8_DLY(250),
 633:..\..\..\u8g2\u8g2\csrc/u8x8_d_ssd1607_200x200.c ****   U8X8_DLY(250),
 634:..\..\..\u8g2\u8g2\csrc/u8x8_d_ssd1607_200x200.c ****   U8X8_DLY(250),
 635:..\..\..\u8g2\u8g2\csrc/u8x8_d_ssd1607_200x200.c ****   
 636:..\..\..\u8g2\u8g2\csrc/u8x8_d_ssd1607_200x200.c ****   
 637:..\..\..\u8g2\u8g2\csrc/u8x8_d_ssd1607_200x200.c ****   U8X8_END_TRANSFER(),             	/* disable chip */
 638:..\..\..\u8g2\u8g2\csrc/u8x8_d_ssd1607_200x200.c ****   U8X8_END()             			/* end of sequence */
 639:..\..\..\u8g2\u8g2\csrc/u8x8_d_ssd1607_200x200.c **** };
 640:..\..\..\u8g2\u8g2\csrc/u8x8_d_ssd1607_200x200.c **** 
 641:..\..\..\u8g2\u8g2\csrc/u8x8_d_ssd1607_200x200.c **** 
 642:..\..\..\u8g2\u8g2\csrc/u8x8_d_ssd1607_200x200.c **** static const uint8_t u8x8_d_ssd1607_ws_to_refresh_seq[] = {
 643:..\..\..\u8g2\u8g2\csrc/u8x8_d_ssd1607_200x200.c ****   U8X8_START_TRANSFER(),             	/* enable chip, delay is part of the transfer start */
 644:..\..\..\u8g2\u8g2\csrc/u8x8_d_ssd1607_200x200.c **** 
 645:..\..\..\u8g2\u8g2\csrc/u8x8_d_ssd1607_200x200.c **** 
 646:..\..\..\u8g2\u8g2\csrc/u8x8_d_ssd1607_200x200.c ****   U8X8_CA(0x22, 0x04),	/* display update seq. option: clk -> CP -> LUT -> initial display -> patter
 647:..\..\..\u8g2\u8g2\csrc/u8x8_d_ssd1607_200x200.c ****   U8X8_C(0x20),	/* execute sequence */
 648:..\..\..\u8g2\u8g2\csrc/u8x8_d_ssd1607_200x200.c ****   
 649:..\..\..\u8g2\u8g2\csrc/u8x8_d_ssd1607_200x200.c **** //  U8X8_DLY(250),
 650:..\..\..\u8g2\u8g2\csrc/u8x8_d_ssd1607_200x200.c **** //  U8X8_DLY(250),
 651:..\..\..\u8g2\u8g2\csrc/u8x8_d_ssd1607_200x200.c ****   
 652:..\..\..\u8g2\u8g2\csrc/u8x8_d_ssd1607_200x200.c ****   
 653:..\..\..\u8g2\u8g2\csrc/u8x8_d_ssd1607_200x200.c ****   U8X8_END_TRANSFER(),             	/* disable chip */
 654:..\..\..\u8g2\u8g2\csrc/u8x8_d_ssd1607_200x200.c ****   U8X8_END()             			/* end of sequence */
 655:..\..\..\u8g2\u8g2\csrc/u8x8_d_ssd1607_200x200.c **** };
 656:..\..\..\u8g2\u8g2\csrc/u8x8_d_ssd1607_200x200.c **** 
 657:..\..\..\u8g2\u8g2\csrc/u8x8_d_ssd1607_200x200.c **** 
 658:..\..\..\u8g2\u8g2\csrc/u8x8_d_ssd1607_200x200.c **** /* waveshare 200x200 */
 659:..\..\..\u8g2\u8g2\csrc/u8x8_d_ssd1607_200x200.c **** static const uint8_t u8x8_d_ssd1607_ws_200x200_init_seq[] = {    
 660:..\..\..\u8g2\u8g2\csrc/u8x8_d_ssd1607_200x200.c ****   // suggested code from https://github.com/olikraus/u8g2/issues/637
 661:..\..\..\u8g2\u8g2\csrc/u8x8_d_ssd1607_200x200.c ****   
 662:..\..\..\u8g2\u8g2\csrc/u8x8_d_ssd1607_200x200.c ****   U8X8_START_TRANSFER(),             	/* enable chip, delay is part of the transfer start */
 663:..\..\..\u8g2\u8g2\csrc/u8x8_d_ssd1607_200x200.c ****  
 664:..\..\..\u8g2\u8g2\csrc/u8x8_d_ssd1607_200x200.c ****   U8X8_C(0x01), /* DRIVER_OUTPUT_CONTROL: LO(EPD_HEIGHT-1), HI(EPD_HEIGHT-1). GD = 0; SM = 0; TB = 
 665:..\..\..\u8g2\u8g2\csrc/u8x8_d_ssd1607_200x200.c ****   U8X8_A(199),U8X8_A(0),U8X8_A(0),
 666:..\..\..\u8g2\u8g2\csrc/u8x8_d_ssd1607_200x200.c ****   
 667:..\..\..\u8g2\u8g2\csrc/u8x8_d_ssd1607_200x200.c ****   U8X8_C(0x0C), /* BOOSTER_SOFT_START_CONTROL */
 668:..\..\..\u8g2\u8g2\csrc/u8x8_d_ssd1607_200x200.c ****   U8X8_A(0xd7),U8X8_A(0xd6),U8X8_A(0x9d),
 669:..\..\..\u8g2\u8g2\csrc/u8x8_d_ssd1607_200x200.c ****   
 670:..\..\..\u8g2\u8g2\csrc/u8x8_d_ssd1607_200x200.c ****   U8X8_CA(0x2c, 0xa8), /* WRITE_VCOM_REGISTER: VCOM 7C */
 671:..\..\..\u8g2\u8g2\csrc/u8x8_d_ssd1607_200x200.c ****   U8X8_CA(0x3a, 0x1a), /* SET_DUMMY_LINE_PERIOD: 4 dummy lines per gate */
 672:..\..\..\u8g2\u8g2\csrc/u8x8_d_ssd1607_200x200.c ****   U8X8_CA(0x3b, 0x08), /* SET_GATE_TIME: 2us per line */
 673:..\..\..\u8g2\u8g2\csrc/u8x8_d_ssd1607_200x200.c ****   U8X8_CA(0x11, 0x03), /* DATA_ENTRY_MODE_SETTING: X increment; Y increment */
 674:..\..\..\u8g2\u8g2\csrc/u8x8_d_ssd1607_200x200.c ****   U8X8_CAA(0x44, 0, 24), /* SET_RAM_X_ADDRESS_START_END_POSITION: LO(x >> 3), LO((w-1) >> 3) */
 675:..\..\..\u8g2\u8g2\csrc/u8x8_d_ssd1607_200x200.c ****   U8X8_CAAAA(0x45, 0, 0, 199&255, 199>>8), /* SET_RAM_Y_ADDRESS_START_END_POSITION: LO(y), HI(y), L
ARM GAS  C:\Users\jesse\AppData\Local\Temp\ccdqic9G.s 			page 25


 676:..\..\..\u8g2\u8g2\csrc/u8x8_d_ssd1607_200x200.c ****   U8X8_CA(0x4e, 0), /* LO(x >> 3) */
 677:..\..\..\u8g2\u8g2\csrc/u8x8_d_ssd1607_200x200.c ****   U8X8_CAA(0x4f, 0, 0), /* LO(y), HI(y >> 8) */
 678:..\..\..\u8g2\u8g2\csrc/u8x8_d_ssd1607_200x200.c ****   
 679:..\..\..\u8g2\u8g2\csrc/u8x8_d_ssd1607_200x200.c ****   U8X8_END_TRANSFER(),             	/* disable chip */
 680:..\..\..\u8g2\u8g2\csrc/u8x8_d_ssd1607_200x200.c ****   U8X8_END()             			/* end of sequence */  
 681:..\..\..\u8g2\u8g2\csrc/u8x8_d_ssd1607_200x200.c ****   
 682:..\..\..\u8g2\u8g2\csrc/u8x8_d_ssd1607_200x200.c **** };
 683:..\..\..\u8g2\u8g2\csrc/u8x8_d_ssd1607_200x200.c **** 
 684:..\..\..\u8g2\u8g2\csrc/u8x8_d_ssd1607_200x200.c **** 
 685:..\..\..\u8g2\u8g2\csrc/u8x8_d_ssd1607_200x200.c **** uint8_t u8x8_d_ssd1607_ws_200x200(u8x8_t *u8x8, uint8_t msg, uint8_t arg_int, void *arg_ptr)
 686:..\..\..\u8g2\u8g2\csrc/u8x8_d_ssd1607_200x200.c **** {
 652              		.loc 1 686 0
 653              		.cfi_startproc
 654              		@ args = 0, pretend = 0, frame = 0
 655              		@ frame_needed = 0, uses_anonymous_args = 0
 656              	.LVL91:
 687:..\..\..\u8g2\u8g2\csrc/u8x8_d_ssd1607_200x200.c ****   switch(msg)
 657              		.loc 1 687 0
 658 0000 0939     		subs	r1, r1, #9
 659              	.LVL92:
 686:..\..\..\u8g2\u8g2\csrc/u8x8_d_ssd1607_200x200.c ****   switch(msg)
 660              		.loc 1 686 0
 661 0002 10B5     		push	{r4, lr}
 662              		.cfi_def_cfa_offset 8
 663              		.cfi_offset 4, -8
 664              		.cfi_offset 14, -4
 686:..\..\..\u8g2\u8g2\csrc/u8x8_d_ssd1607_200x200.c ****   switch(msg)
 665              		.loc 1 686 0
 666 0004 0446     		mov	r4, r0
 667 0006 1046     		mov	r0, r2
 668              	.LVL93:
 669              		.loc 1 687 0
 670 0008 0729     		cmp	r1, #7
 671 000a 2BD8     		bhi	.L69
 672 000c DFE801F0 		tbb	[pc, r1]
 673              	.LVL94:
 674              	.L62:
 675 0010 04       		.byte	(.L61-.L62)/2
 676 0011 09       		.byte	(.L63-.L62)/2
 677 0012 1D       		.byte	(.L64-.L62)/2
 678 0013 2A       		.byte	(.L69-.L62)/2
 679 0014 1B       		.byte	(.L70-.L62)/2
 680 0015 2A       		.byte	(.L69-.L62)/2
 681 0016 22       		.byte	(.L66-.L62)/2
 682 0017 28       		.byte	(.L67-.L62)/2
 683              		.p2align 1
 684              	.L61:
 688:..\..\..\u8g2\u8g2\csrc/u8x8_d_ssd1607_200x200.c ****   {
 689:..\..\..\u8g2\u8g2\csrc/u8x8_d_ssd1607_200x200.c ****     case U8X8_MSG_DISPLAY_SETUP_MEMORY:
 690:..\..\..\u8g2\u8g2\csrc/u8x8_d_ssd1607_200x200.c ****       u8x8_d_helper_display_setup_memory(u8x8, &u8x8_ssd1607_200x200_display_info);
 685              		.loc 1 690 0
 686 0018 1349     		ldr	r1, .L72
 687 001a 2046     		mov	r0, r4
 688 001c FFF7FEFF 		bl	u8x8_d_helper_display_setup_memory
 689              	.LVL95:
 690 0020 11E0     		b	.L70
 691              	.LVL96:
ARM GAS  C:\Users\jesse\AppData\Local\Temp\ccdqic9G.s 			page 26


 692              	.L63:
 691:..\..\..\u8g2\u8g2\csrc/u8x8_d_ssd1607_200x200.c ****       break;
 692:..\..\..\u8g2\u8g2\csrc/u8x8_d_ssd1607_200x200.c ****     case U8X8_MSG_DISPLAY_INIT:
 693:..\..\..\u8g2\u8g2\csrc/u8x8_d_ssd1607_200x200.c ****       u8x8_d_helper_display_init(u8x8);
 693              		.loc 1 693 0
 694 0022 2046     		mov	r0, r4
 695 0024 FFF7FEFF 		bl	u8x8_d_helper_display_init
 696              	.LVL97:
 694:..\..\..\u8g2\u8g2\csrc/u8x8_d_ssd1607_200x200.c ****       u8x8_cad_SendSequence(u8x8, u8x8_d_ssd1607_ws_200x200_init_seq);    
 697              		.loc 1 694 0
 698 0028 1049     		ldr	r1, .L72+4
 699 002a 2046     		mov	r0, r4
 700 002c FFF7FEFF 		bl	u8x8_cad_SendSequence
 701              	.LVL98:
 695:..\..\..\u8g2\u8g2\csrc/u8x8_d_ssd1607_200x200.c ****       u8x8_cad_SendSequence(u8x8, u8x8_d_ssd1607_200x200_powersave0_seq);
 702              		.loc 1 695 0
 703 0030 0F49     		ldr	r1, .L72+8
 704 0032 2046     		mov	r0, r4
 705 0034 FFF7FEFF 		bl	u8x8_cad_SendSequence
 706              	.LVL99:
 696:..\..\..\u8g2\u8g2\csrc/u8x8_d_ssd1607_200x200.c ****       u8x8_d_ssd1607_200x200_first_init(u8x8);
 707              		.loc 1 696 0
 708 0038 2046     		mov	r0, r4
 709 003a FFF7FEFF 		bl	u8x8_d_ssd1607_200x200_first_init
 710              	.LVL100:
 697:..\..\..\u8g2\u8g2\csrc/u8x8_d_ssd1607_200x200.c ****       u8x8_cad_SendSequence(u8x8, u8x8_d_ssd1607_ws_to_display_seq);; // to setup LUT
 711              		.loc 1 697 0
 712 003e 0D49     		ldr	r1, .L72+12
 713              	.L71:
 714 0040 2046     		mov	r0, r4
 715 0042 FFF7FEFF 		bl	u8x8_cad_SendSequence
 716              	.LVL101:
 717              	.L70:
 698:..\..\..\u8g2\u8g2\csrc/u8x8_d_ssd1607_200x200.c ****       break;
 699:..\..\..\u8g2\u8g2\csrc/u8x8_d_ssd1607_200x200.c ****     case U8X8_MSG_DISPLAY_SET_POWER_SAVE:
 700:..\..\..\u8g2\u8g2\csrc/u8x8_d_ssd1607_200x200.c ****       if ( arg_int == 0 )
 701:..\..\..\u8g2\u8g2\csrc/u8x8_d_ssd1607_200x200.c **** 	u8x8_cad_SendSequence(u8x8, u8x8_d_ssd1607_200x200_powersave0_seq);
 702:..\..\..\u8g2\u8g2\csrc/u8x8_d_ssd1607_200x200.c ****       else
 703:..\..\..\u8g2\u8g2\csrc/u8x8_d_ssd1607_200x200.c **** 	u8x8_cad_SendSequence(u8x8, u8x8_d_ssd1607_200x200_powersave1_seq);
 704:..\..\..\u8g2\u8g2\csrc/u8x8_d_ssd1607_200x200.c ****       break;
 705:..\..\..\u8g2\u8g2\csrc/u8x8_d_ssd1607_200x200.c ****     case U8X8_MSG_DISPLAY_SET_FLIP_MODE:
 706:..\..\..\u8g2\u8g2\csrc/u8x8_d_ssd1607_200x200.c ****       break;
 707:..\..\..\u8g2\u8g2\csrc/u8x8_d_ssd1607_200x200.c ****     case U8X8_MSG_DISPLAY_DRAW_TILE:
 708:..\..\..\u8g2\u8g2\csrc/u8x8_d_ssd1607_200x200.c ****       u8x8_d_ssd1607_draw_tile(u8x8, arg_int, arg_ptr);
 709:..\..\..\u8g2\u8g2\csrc/u8x8_d_ssd1607_200x200.c ****       break;
 710:..\..\..\u8g2\u8g2\csrc/u8x8_d_ssd1607_200x200.c ****     case U8X8_MSG_DISPLAY_REFRESH:
 711:..\..\..\u8g2\u8g2\csrc/u8x8_d_ssd1607_200x200.c ****       u8x8_cad_SendSequence(u8x8, u8x8_d_ssd1607_ws_to_refresh_seq);
 712:..\..\..\u8g2\u8g2\csrc/u8x8_d_ssd1607_200x200.c ****       break;
 713:..\..\..\u8g2\u8g2\csrc/u8x8_d_ssd1607_200x200.c ****     default:
 714:..\..\..\u8g2\u8g2\csrc/u8x8_d_ssd1607_200x200.c ****       return 0;
 715:..\..\..\u8g2\u8g2\csrc/u8x8_d_ssd1607_200x200.c ****   }
 716:..\..\..\u8g2\u8g2\csrc/u8x8_d_ssd1607_200x200.c ****   return 1;
 718              		.loc 1 716 0
 719 0046 0120     		movs	r0, #1
 698:..\..\..\u8g2\u8g2\csrc/u8x8_d_ssd1607_200x200.c ****       break;
 720              		.loc 1 698 0
 721 0048 10BD     		pop	{r4, pc}
ARM GAS  C:\Users\jesse\AppData\Local\Temp\ccdqic9G.s 			page 27


 722              	.LVL102:
 723              	.L64:
 700:..\..\..\u8g2\u8g2\csrc/u8x8_d_ssd1607_200x200.c **** 	u8x8_cad_SendSequence(u8x8, u8x8_d_ssd1607_200x200_powersave0_seq);
 724              		.loc 1 700 0
 725 004a 08B9     		cbnz	r0, .L68
 701:..\..\..\u8g2\u8g2\csrc/u8x8_d_ssd1607_200x200.c ****       else
 726              		.loc 1 701 0
 727 004c 0849     		ldr	r1, .L72+8
 728 004e F7E7     		b	.L71
 729              	.L68:
 703:..\..\..\u8g2\u8g2\csrc/u8x8_d_ssd1607_200x200.c ****       break;
 730              		.loc 1 703 0
 731 0050 0949     		ldr	r1, .L72+16
 732 0052 F5E7     		b	.L71
 733              	.L66:
 708:..\..\..\u8g2\u8g2\csrc/u8x8_d_ssd1607_200x200.c ****       break;
 734              		.loc 1 708 0
 735 0054 0146     		mov	r1, r0
 736 0056 1A46     		mov	r2, r3
 737 0058 2046     		mov	r0, r4
 738 005a FFF7FEFF 		bl	u8x8_d_ssd1607_draw_tile
 739              	.LVL103:
 740 005e F2E7     		b	.L70
 741              	.LVL104:
 742              	.L67:
 711:..\..\..\u8g2\u8g2\csrc/u8x8_d_ssd1607_200x200.c ****       break;
 743              		.loc 1 711 0
 744 0060 0649     		ldr	r1, .L72+20
 745 0062 EDE7     		b	.L71
 746              	.L69:
 714:..\..\..\u8g2\u8g2\csrc/u8x8_d_ssd1607_200x200.c ****   }
 747              		.loc 1 714 0
 748 0064 0020     		movs	r0, #0
 717:..\..\..\u8g2\u8g2\csrc/u8x8_d_ssd1607_200x200.c **** }
 749              		.loc 1 717 0
 750 0066 10BD     		pop	{r4, pc}
 751              	.LVL105:
 752              	.L73:
 753              		.align	2
 754              	.L72:
 755 0068 10000000 		.word	.LANCHOR0+16
 756 006c 74010000 		.word	.LANCHOR0+372
 757 0070 67000000 		.word	.LANCHOR0+103
 758 0074 B1010000 		.word	.LANCHOR0+433
 759 0078 74000000 		.word	.LANCHOR0+116
 760 007c 02020000 		.word	.LANCHOR0+514
 761              		.cfi_endproc
 762              	.LFE6:
 763              		.size	u8x8_d_ssd1607_ws_200x200, .-u8x8_d_ssd1607_ws_200x200
 764              		.section	.rodata
 765              		.align	2
 766              		.set	.LANCHOR0,. + 0
 767              		.type	u8x8_d_ssd1607_200x200_exec_1000dly_seq, %object
 768              		.size	u8x8_d_ssd1607_200x200_exec_1000dly_seq, 16
 769              	u8x8_d_ssd1607_200x200_exec_1000dly_seq:
 770 0000 15       		.byte	21
 771 0001 22       		.byte	34
ARM GAS  C:\Users\jesse\AppData\Local\Temp\ccdqic9G.s 			page 28


 772 0002 16       		.byte	22
 773 0003 04       		.byte	4
 774 0004 15       		.byte	21
 775 0005 20       		.byte	32
 776 0006 FE       		.byte	-2
 777 0007 FA       		.byte	-6
 778 0008 FE       		.byte	-2
 779 0009 FA       		.byte	-6
 780 000a FE       		.byte	-2
 781 000b FA       		.byte	-6
 782 000c FE       		.byte	-2
 783 000d FA       		.byte	-6
 784 000e 19       		.byte	25
 785 000f FF       		.byte	-1
 786              		.type	u8x8_ssd1607_200x200_display_info, %object
 787              		.size	u8x8_ssd1607_200x200_display_info, 24
 788              	u8x8_ssd1607_200x200_display_info:
 789 0010 00       		.byte	0
 790 0011 01       		.byte	1
 791 0012 78       		.byte	120
 792 0013 3C       		.byte	60
 793 0014 64       		.byte	100
 794 0015 64       		.byte	100
 795 0016 32       		.byte	50
 796 0017 64       		.byte	100
 797 0018 00093D00 		.word	4000000
 798 001c 00       		.byte	0
 799 001d 04       		.byte	4
 800 001e 28       		.byte	40
 801 001f 96       		.byte	-106
 802 0020 19       		.byte	25
 803 0021 19       		.byte	25
 804 0022 00       		.byte	0
 805 0023 00       		.byte	0
 806 0024 C800     		.short	200
 807 0026 C800     		.short	200
 808              		.type	u8x8_d_ssd1607_200x200_init_seq, %object
 809              		.size	u8x8_d_ssd1607_200x200_init_seq, 63
 810              	u8x8_d_ssd1607_200x200_init_seq:
 811 0028 18       		.byte	24
 812 0029 15       		.byte	21
 813 002a 01       		.byte	1
 814 002b 16       		.byte	22
 815 002c C7       		.byte	-57
 816 002d 16       		.byte	22
 817 002e 00       		.byte	0
 818 002f 16       		.byte	22
 819 0030 00       		.byte	0
 820 0031 15       		.byte	21
 821 0032 03       		.byte	3
 822 0033 16       		.byte	22
 823 0034 00       		.byte	0
 824 0035 15       		.byte	21
 825 0036 04       		.byte	4
 826 0037 16       		.byte	22
 827 0038 0A       		.byte	10
 828 0039 15       		.byte	21
ARM GAS  C:\Users\jesse\AppData\Local\Temp\ccdqic9G.s 			page 29


 829 003a 0F       		.byte	15
 830 003b 16       		.byte	22
 831 003c 00       		.byte	0
 832 003d 15       		.byte	21
 833 003e F0       		.byte	-16
 834 003f 16       		.byte	22
 835 0040 1F       		.byte	31
 836 0041 15       		.byte	21
 837 0042 2C       		.byte	44
 838 0043 16       		.byte	22
 839 0044 A8       		.byte	-88
 840 0045 15       		.byte	21
 841 0046 3A       		.byte	58
 842 0047 16       		.byte	22
 843 0048 1A       		.byte	26
 844 0049 15       		.byte	21
 845 004a 3B       		.byte	59
 846 004b 16       		.byte	22
 847 004c 08       		.byte	8
 848 004d 15       		.byte	21
 849 004e 3C       		.byte	60
 850 004f 16       		.byte	22
 851 0050 33       		.byte	51
 852 0051 15       		.byte	21
 853 0052 11       		.byte	17
 854 0053 16       		.byte	22
 855 0054 03       		.byte	3
 856 0055 15       		.byte	21
 857 0056 44       		.byte	68
 858 0057 16       		.byte	22
 859 0058 00       		.byte	0
 860 0059 16       		.byte	22
 861 005a 18       		.byte	24
 862 005b 15       		.byte	21
 863 005c 45       		.byte	69
 864 005d 16       		.byte	22
 865 005e 00       		.byte	0
 866 005f 16       		.byte	22
 867 0060 00       		.byte	0
 868 0061 16       		.byte	22
 869 0062 2B       		.byte	43
 870 0063 16       		.byte	22
 871 0064 01       		.byte	1
 872 0065 19       		.byte	25
 873 0066 FF       		.byte	-1
 874              		.type	u8x8_d_ssd1607_200x200_powersave0_seq, %object
 875              		.size	u8x8_d_ssd1607_200x200_powersave0_seq, 13
 876              	u8x8_d_ssd1607_200x200_powersave0_seq:
 877 0067 18       		.byte	24
 878 0068 15       		.byte	21
 879 0069 22       		.byte	34
 880 006a 16       		.byte	22
 881 006b C0       		.byte	-64
 882 006c 15       		.byte	21
 883 006d 20       		.byte	32
 884 006e FE       		.byte	-2
 885 006f C8       		.byte	-56
ARM GAS  C:\Users\jesse\AppData\Local\Temp\ccdqic9G.s 			page 30


 886 0070 FE       		.byte	-2
 887 0071 64       		.byte	100
 888 0072 19       		.byte	25
 889 0073 FF       		.byte	-1
 890              		.type	u8x8_d_ssd1607_200x200_powersave1_seq, %object
 891              		.size	u8x8_d_ssd1607_200x200_powersave1_seq, 11
 892              	u8x8_d_ssd1607_200x200_powersave1_seq:
 893 0074 18       		.byte	24
 894 0075 15       		.byte	21
 895 0076 22       		.byte	34
 896 0077 16       		.byte	22
 897 0078 02       		.byte	2
 898 0079 15       		.byte	21
 899 007a 20       		.byte	32
 900 007b FE       		.byte	-2
 901 007c 14       		.byte	20
 902 007d 19       		.byte	25
 903 007e FF       		.byte	-1
 904              		.type	u8x8_d_ssd1607_to_display_seq, %object
 905              		.size	u8x8_d_ssd1607_to_display_seq, 85
 906              	u8x8_d_ssd1607_to_display_seq:
 907 007f 18       		.byte	24
 908 0080 15       		.byte	21
 909 0081 32       		.byte	50
 910 0082 16       		.byte	22
 911 0083 02       		.byte	2
 912 0084 16       		.byte	22
 913 0085 02       		.byte	2
 914 0086 16       		.byte	22
 915 0087 01       		.byte	1
 916 0088 16       		.byte	22
 917 0089 11       		.byte	17
 918 008a 16       		.byte	22
 919 008b 12       		.byte	18
 920 008c 16       		.byte	22
 921 008d 12       		.byte	18
 922 008e 16       		.byte	22
 923 008f 22       		.byte	34
 924 0090 16       		.byte	22
 925 0091 22       		.byte	34
 926 0092 16       		.byte	22
 927 0093 66       		.byte	102
 928 0094 16       		.byte	22
 929 0095 69       		.byte	105
 930 0096 16       		.byte	22
 931 0097 69       		.byte	105
 932 0098 16       		.byte	22
 933 0099 59       		.byte	89
 934 009a 16       		.byte	22
 935 009b 58       		.byte	88
 936 009c 16       		.byte	22
 937 009d 99       		.byte	-103
 938 009e 16       		.byte	22
 939 009f 99       		.byte	-103
 940 00a0 16       		.byte	22
 941 00a1 88       		.byte	-120
 942 00a2 16       		.byte	22
ARM GAS  C:\Users\jesse\AppData\Local\Temp\ccdqic9G.s 			page 31


 943 00a3 00       		.byte	0
 944 00a4 16       		.byte	22
 945 00a5 00       		.byte	0
 946 00a6 16       		.byte	22
 947 00a7 00       		.byte	0
 948 00a8 16       		.byte	22
 949 00a9 00       		.byte	0
 950 00aa 16       		.byte	22
 951 00ab F8       		.byte	-8
 952 00ac 16       		.byte	22
 953 00ad B4       		.byte	-76
 954 00ae 16       		.byte	22
 955 00af 13       		.byte	19
 956 00b0 16       		.byte	22
 957 00b1 51       		.byte	81
 958 00b2 16       		.byte	22
 959 00b3 35       		.byte	53
 960 00b4 16       		.byte	22
 961 00b5 51       		.byte	81
 962 00b6 16       		.byte	22
 963 00b7 51       		.byte	81
 964 00b8 16       		.byte	22
 965 00b9 19       		.byte	25
 966 00ba 16       		.byte	22
 967 00bb 01       		.byte	1
 968 00bc 16       		.byte	22
 969 00bd 00       		.byte	0
 970 00be 15       		.byte	21
 971 00bf 22       		.byte	34
 972 00c0 16       		.byte	22
 973 00c1 04       		.byte	4
 974 00c2 15       		.byte	21
 975 00c3 20       		.byte	32
 976 00c4 FE       		.byte	-2
 977 00c5 FA       		.byte	-6
 978 00c6 FE       		.byte	-2
 979 00c7 FA       		.byte	-6
 980 00c8 FE       		.byte	-2
 981 00c9 FA       		.byte	-6
 982 00ca FE       		.byte	-2
 983 00cb FA       		.byte	-6
 984 00cc FE       		.byte	-2
 985 00cd FA       		.byte	-6
 986 00ce FE       		.byte	-2
 987 00cf FA       		.byte	-6
 988 00d0 FE       		.byte	-2
 989 00d1 FA       		.byte	-6
 990 00d2 19       		.byte	25
 991 00d3 FF       		.byte	-1
 992              		.type	u8x8_d_ssd1607_v2_to_display_seq, %object
 993              		.size	u8x8_d_ssd1607_v2_to_display_seq, 83
 994              	u8x8_d_ssd1607_v2_to_display_seq:
 995 00d4 18       		.byte	24
 996 00d5 15       		.byte	21
 997 00d6 32       		.byte	50
 998 00d7 16       		.byte	22
 999 00d8 02       		.byte	2
ARM GAS  C:\Users\jesse\AppData\Local\Temp\ccdqic9G.s 			page 32


 1000 00d9 16       		.byte	22
 1001 00da 02       		.byte	2
 1002 00db 16       		.byte	22
 1003 00dc 01       		.byte	1
 1004 00dd 16       		.byte	22
 1005 00de 11       		.byte	17
 1006 00df 16       		.byte	22
 1007 00e0 12       		.byte	18
 1008 00e1 16       		.byte	22
 1009 00e2 12       		.byte	18
 1010 00e3 16       		.byte	22
 1011 00e4 22       		.byte	34
 1012 00e5 16       		.byte	22
 1013 00e6 22       		.byte	34
 1014 00e7 16       		.byte	22
 1015 00e8 66       		.byte	102
 1016 00e9 16       		.byte	22
 1017 00ea 69       		.byte	105
 1018 00eb 16       		.byte	22
 1019 00ec 69       		.byte	105
 1020 00ed 16       		.byte	22
 1021 00ee 59       		.byte	89
 1022 00ef 16       		.byte	22
 1023 00f0 58       		.byte	88
 1024 00f1 16       		.byte	22
 1025 00f2 99       		.byte	-103
 1026 00f3 16       		.byte	22
 1027 00f4 99       		.byte	-103
 1028 00f5 16       		.byte	22
 1029 00f6 88       		.byte	-120
 1030 00f7 16       		.byte	22
 1031 00f8 00       		.byte	0
 1032 00f9 16       		.byte	22
 1033 00fa 00       		.byte	0
 1034 00fb 16       		.byte	22
 1035 00fc 00       		.byte	0
 1036 00fd 16       		.byte	22
 1037 00fe 00       		.byte	0
 1038 00ff 16       		.byte	22
 1039 0100 F8       		.byte	-8
 1040 0101 16       		.byte	22
 1041 0102 B4       		.byte	-76
 1042 0103 16       		.byte	22
 1043 0104 13       		.byte	19
 1044 0105 16       		.byte	22
 1045 0106 51       		.byte	81
 1046 0107 16       		.byte	22
 1047 0108 35       		.byte	53
 1048 0109 16       		.byte	22
 1049 010a 51       		.byte	81
 1050 010b 16       		.byte	22
 1051 010c 51       		.byte	81
 1052 010d 16       		.byte	22
 1053 010e E9       		.byte	-23
 1054 010f 16       		.byte	22
 1055 0110 04       		.byte	4
 1056 0111 16       		.byte	22
ARM GAS  C:\Users\jesse\AppData\Local\Temp\ccdqic9G.s 			page 33


 1057 0112 00       		.byte	0
 1058 0113 15       		.byte	21
 1059 0114 22       		.byte	34
 1060 0115 16       		.byte	22
 1061 0116 04       		.byte	4
 1062 0117 15       		.byte	21
 1063 0118 20       		.byte	32
 1064 0119 FE       		.byte	-2
 1065 011a FA       		.byte	-6
 1066 011b FE       		.byte	-2
 1067 011c FA       		.byte	-6
 1068 011d FE       		.byte	-2
 1069 011e FA       		.byte	-6
 1070 011f FE       		.byte	-2
 1071 0120 FA       		.byte	-6
 1072 0121 FE       		.byte	-2
 1073 0122 FA       		.byte	-6
 1074 0123 FE       		.byte	-2
 1075 0124 FA       		.byte	-6
 1076 0125 19       		.byte	25
 1077 0126 FF       		.byte	-1
 1078              		.type	u8x8_d_ssd1607_gd_to_display_seq, %object
 1079              		.size	u8x8_d_ssd1607_gd_to_display_seq, 77
 1080              	u8x8_d_ssd1607_gd_to_display_seq:
 1081 0127 18       		.byte	24
 1082 0128 15       		.byte	21
 1083 0129 32       		.byte	50
 1084 012a 16       		.byte	22
 1085 012b 10       		.byte	16
 1086 012c 16       		.byte	22
 1087 012d 18       		.byte	24
 1088 012e 16       		.byte	22
 1089 012f 18       		.byte	24
 1090 0130 16       		.byte	22
 1091 0131 08       		.byte	8
 1092 0132 16       		.byte	22
 1093 0133 18       		.byte	24
 1094 0134 16       		.byte	22
 1095 0135 18       		.byte	24
 1096 0136 16       		.byte	22
 1097 0137 08       		.byte	8
 1098 0138 16       		.byte	22
 1099 0139 00       		.byte	0
 1100 013a 16       		.byte	22
 1101 013b 00       		.byte	0
 1102 013c 16       		.byte	22
 1103 013d 00       		.byte	0
 1104 013e 16       		.byte	22
 1105 013f 00       		.byte	0
 1106 0140 16       		.byte	22
 1107 0141 00       		.byte	0
 1108 0142 16       		.byte	22
 1109 0143 00       		.byte	0
 1110 0144 16       		.byte	22
 1111 0145 00       		.byte	0
 1112 0146 16       		.byte	22
 1113 0147 00       		.byte	0
ARM GAS  C:\Users\jesse\AppData\Local\Temp\ccdqic9G.s 			page 34


 1114 0148 16       		.byte	22
 1115 0149 00       		.byte	0
 1116 014a 16       		.byte	22
 1117 014b 00       		.byte	0
 1118 014c 16       		.byte	22
 1119 014d 00       		.byte	0
 1120 014e 16       		.byte	22
 1121 014f 00       		.byte	0
 1122 0150 16       		.byte	22
 1123 0151 00       		.byte	0
 1124 0152 16       		.byte	22
 1125 0153 13       		.byte	19
 1126 0154 16       		.byte	22
 1127 0155 14       		.byte	20
 1128 0156 16       		.byte	22
 1129 0157 44       		.byte	68
 1130 0158 16       		.byte	22
 1131 0159 12       		.byte	18
 1132 015a 16       		.byte	22
 1133 015b 00       		.byte	0
 1134 015c 16       		.byte	22
 1135 015d 00       		.byte	0
 1136 015e 16       		.byte	22
 1137 015f 00       		.byte	0
 1138 0160 16       		.byte	22
 1139 0161 00       		.byte	0
 1140 0162 16       		.byte	22
 1141 0163 00       		.byte	0
 1142 0164 16       		.byte	22
 1143 0165 00       		.byte	0
 1144 0166 15       		.byte	21
 1145 0167 22       		.byte	34
 1146 0168 16       		.byte	22
 1147 0169 C4       		.byte	-60
 1148 016a 15       		.byte	21
 1149 016b 20       		.byte	32
 1150 016c FE       		.byte	-2
 1151 016d FA       		.byte	-6
 1152 016e FE       		.byte	-2
 1153 016f FA       		.byte	-6
 1154 0170 FE       		.byte	-2
 1155 0171 FA       		.byte	-6
 1156 0172 19       		.byte	25
 1157 0173 FF       		.byte	-1
 1158              		.type	u8x8_d_ssd1607_ws_200x200_init_seq, %object
 1159              		.size	u8x8_d_ssd1607_ws_200x200_init_seq, 61
 1160              	u8x8_d_ssd1607_ws_200x200_init_seq:
 1161 0174 18       		.byte	24
 1162 0175 15       		.byte	21
 1163 0176 01       		.byte	1
 1164 0177 16       		.byte	22
 1165 0178 C7       		.byte	-57
 1166 0179 16       		.byte	22
 1167 017a 00       		.byte	0
 1168 017b 16       		.byte	22
 1169 017c 00       		.byte	0
 1170 017d 15       		.byte	21
ARM GAS  C:\Users\jesse\AppData\Local\Temp\ccdqic9G.s 			page 35


 1171 017e 0C       		.byte	12
 1172 017f 16       		.byte	22
 1173 0180 D7       		.byte	-41
 1174 0181 16       		.byte	22
 1175 0182 D6       		.byte	-42
 1176 0183 16       		.byte	22
 1177 0184 9D       		.byte	-99
 1178 0185 15       		.byte	21
 1179 0186 2C       		.byte	44
 1180 0187 16       		.byte	22
 1181 0188 A8       		.byte	-88
 1182 0189 15       		.byte	21
 1183 018a 3A       		.byte	58
 1184 018b 16       		.byte	22
 1185 018c 1A       		.byte	26
 1186 018d 15       		.byte	21
 1187 018e 3B       		.byte	59
 1188 018f 16       		.byte	22
 1189 0190 08       		.byte	8
 1190 0191 15       		.byte	21
 1191 0192 11       		.byte	17
 1192 0193 16       		.byte	22
 1193 0194 03       		.byte	3
 1194 0195 15       		.byte	21
 1195 0196 44       		.byte	68
 1196 0197 16       		.byte	22
 1197 0198 00       		.byte	0
 1198 0199 16       		.byte	22
 1199 019a 18       		.byte	24
 1200 019b 15       		.byte	21
 1201 019c 45       		.byte	69
 1202 019d 16       		.byte	22
 1203 019e 00       		.byte	0
 1204 019f 16       		.byte	22
 1205 01a0 00       		.byte	0
 1206 01a1 16       		.byte	22
 1207 01a2 C7       		.byte	-57
 1208 01a3 16       		.byte	22
 1209 01a4 00       		.byte	0
 1210 01a5 15       		.byte	21
 1211 01a6 4E       		.byte	78
 1212 01a7 16       		.byte	22
 1213 01a8 00       		.byte	0
 1214 01a9 15       		.byte	21
 1215 01aa 4F       		.byte	79
 1216 01ab 16       		.byte	22
 1217 01ac 00       		.byte	0
 1218 01ad 16       		.byte	22
 1219 01ae 00       		.byte	0
 1220 01af 19       		.byte	25
 1221 01b0 FF       		.byte	-1
 1222              		.type	u8x8_d_ssd1607_ws_to_display_seq, %object
 1223              		.size	u8x8_d_ssd1607_ws_to_display_seq, 81
 1224              	u8x8_d_ssd1607_ws_to_display_seq:
 1225 01b1 18       		.byte	24
 1226 01b2 15       		.byte	21
 1227 01b3 32       		.byte	50
ARM GAS  C:\Users\jesse\AppData\Local\Temp\ccdqic9G.s 			page 36


 1228 01b4 16       		.byte	22
 1229 01b5 10       		.byte	16
 1230 01b6 16       		.byte	22
 1231 01b7 18       		.byte	24
 1232 01b8 16       		.byte	22
 1233 01b9 18       		.byte	24
 1234 01ba 16       		.byte	22
 1235 01bb 08       		.byte	8
 1236 01bc 16       		.byte	22
 1237 01bd 18       		.byte	24
 1238 01be 16       		.byte	22
 1239 01bf 18       		.byte	24
 1240 01c0 16       		.byte	22
 1241 01c1 08       		.byte	8
 1242 01c2 16       		.byte	22
 1243 01c3 00       		.byte	0
 1244 01c4 16       		.byte	22
 1245 01c5 00       		.byte	0
 1246 01c6 16       		.byte	22
 1247 01c7 00       		.byte	0
 1248 01c8 16       		.byte	22
 1249 01c9 00       		.byte	0
 1250 01ca 16       		.byte	22
 1251 01cb 00       		.byte	0
 1252 01cc 16       		.byte	22
 1253 01cd 00       		.byte	0
 1254 01ce 16       		.byte	22
 1255 01cf 00       		.byte	0
 1256 01d0 16       		.byte	22
 1257 01d1 00       		.byte	0
 1258 01d2 16       		.byte	22
 1259 01d3 00       		.byte	0
 1260 01d4 16       		.byte	22
 1261 01d5 00       		.byte	0
 1262 01d6 16       		.byte	22
 1263 01d7 00       		.byte	0
 1264 01d8 16       		.byte	22
 1265 01d9 00       		.byte	0
 1266 01da 16       		.byte	22
 1267 01db 00       		.byte	0
 1268 01dc 16       		.byte	22
 1269 01dd 13       		.byte	19
 1270 01de 16       		.byte	22
 1271 01df 14       		.byte	20
 1272 01e0 16       		.byte	22
 1273 01e1 44       		.byte	68
 1274 01e2 16       		.byte	22
 1275 01e3 12       		.byte	18
 1276 01e4 16       		.byte	22
 1277 01e5 00       		.byte	0
 1278 01e6 16       		.byte	22
 1279 01e7 00       		.byte	0
 1280 01e8 16       		.byte	22
 1281 01e9 00       		.byte	0
 1282 01ea 16       		.byte	22
 1283 01eb 00       		.byte	0
 1284 01ec 16       		.byte	22
ARM GAS  C:\Users\jesse\AppData\Local\Temp\ccdqic9G.s 			page 37


 1285 01ed 00       		.byte	0
 1286 01ee 16       		.byte	22
 1287 01ef 00       		.byte	0
 1288 01f0 15       		.byte	21
 1289 01f1 22       		.byte	34
 1290 01f2 16       		.byte	22
 1291 01f3 C4       		.byte	-60
 1292 01f4 15       		.byte	21
 1293 01f5 20       		.byte	32
 1294 01f6 FE       		.byte	-2
 1295 01f7 FA       		.byte	-6
 1296 01f8 FE       		.byte	-2
 1297 01f9 FA       		.byte	-6
 1298 01fa FE       		.byte	-2
 1299 01fb FA       		.byte	-6
 1300 01fc FE       		.byte	-2
 1301 01fd FA       		.byte	-6
 1302 01fe FE       		.byte	-2
 1303 01ff FA       		.byte	-6
 1304 0200 19       		.byte	25
 1305 0201 FF       		.byte	-1
 1306              		.type	u8x8_d_ssd1607_ws_to_refresh_seq, %object
 1307              		.size	u8x8_d_ssd1607_ws_to_refresh_seq, 9
 1308              	u8x8_d_ssd1607_ws_to_refresh_seq:
 1309 0202 18       		.byte	24
 1310 0203 15       		.byte	21
 1311 0204 22       		.byte	34
 1312 0205 16       		.byte	22
 1313 0206 04       		.byte	4
 1314 0207 15       		.byte	21
 1315 0208 20       		.byte	32
 1316 0209 19       		.byte	25
 1317 020a FF       		.byte	-1
 1318              		.bss
 1319              		.set	.LANCHOR1,. + 0
 1320              		.type	buf.5780, %object
 1321              		.size	buf.5780, 8
 1322              	buf.5780:
 1323 0000 00000000 		.space	8
 1323      00000000 
 1324              		.text
 1325              	.Letext0:
 1326              		.file 2 "c:\\program files (x86)\\cypress\\psoc creator\\4.4\\psoc creator\\import\\gnu\\arm\\5.4.
 1327              		.file 3 "c:\\program files (x86)\\cypress\\psoc creator\\4.4\\psoc creator\\import\\gnu\\arm\\5.4.
 1328              		.file 4 "..\\..\\..\\u8g2\\u8g2\\csrc\\u8x8.h"