ARM GAS  C:\Users\jesse\AppData\Local\Temp\ccZfcrn9.s 			page 1


   1              		.syntax unified
   2              		.cpu cortex-m3
   3              		.fpu softvfp
   4              		.eabi_attribute 20, 1
   5              		.eabi_attribute 21, 1
   6              		.eabi_attribute 23, 3
   7              		.eabi_attribute 24, 1
   8              		.eabi_attribute 25, 1
   9              		.eabi_attribute 26, 1
  10              		.eabi_attribute 30, 4
  11              		.eabi_attribute 34, 1
  12              		.eabi_attribute 18, 4
  13              		.thumb
  14              		.syntax unified
  15              		.file	"u8x8_d_ssd1305.c"
  16              		.text
  17              	.Ltext0:
  18              		.cfi_sections	.debug_frame
  19              		.section	.text.u8x8_d_ssd1305_generic,"ax",%progbits
  20              		.align	1
  21              		.thumb
  22              		.thumb_func
  23              		.type	u8x8_d_ssd1305_generic, %function
  24              	u8x8_d_ssd1305_generic:
  25              	.LFB0:
  26              		.file 1 "..\\..\\..\\u8g2\\u8g2\\csrc\\u8x8_d_ssd1305.c"
   1:..\..\..\u8g2\u8g2\csrc/u8x8_d_ssd1305.c **** /*
   2:..\..\..\u8g2\u8g2\csrc/u8x8_d_ssd1305.c **** 
   3:..\..\..\u8g2\u8g2\csrc/u8x8_d_ssd1305.c ****   u8x8_d_ssd1305.c
   4:..\..\..\u8g2\u8g2\csrc/u8x8_d_ssd1305.c **** 
   5:..\..\..\u8g2\u8g2\csrc/u8x8_d_ssd1305.c ****   Universal 8bit Graphics Library (https://github.com/olikraus/u8g2/)
   6:..\..\..\u8g2\u8g2\csrc/u8x8_d_ssd1305.c **** 
   7:..\..\..\u8g2\u8g2\csrc/u8x8_d_ssd1305.c ****   Copyright (c) 2017, olikraus@gmail.com
   8:..\..\..\u8g2\u8g2\csrc/u8x8_d_ssd1305.c ****   All rights reserved.
   9:..\..\..\u8g2\u8g2\csrc/u8x8_d_ssd1305.c **** 
  10:..\..\..\u8g2\u8g2\csrc/u8x8_d_ssd1305.c ****   Redistribution and use in source and binary forms, with or without modification, 
  11:..\..\..\u8g2\u8g2\csrc/u8x8_d_ssd1305.c ****   are permitted provided that the following conditions are met:
  12:..\..\..\u8g2\u8g2\csrc/u8x8_d_ssd1305.c **** 
  13:..\..\..\u8g2\u8g2\csrc/u8x8_d_ssd1305.c ****   * Redistributions of source code must retain the above copyright notice, this list 
  14:..\..\..\u8g2\u8g2\csrc/u8x8_d_ssd1305.c ****     of conditions and the following disclaimer.
  15:..\..\..\u8g2\u8g2\csrc/u8x8_d_ssd1305.c ****     
  16:..\..\..\u8g2\u8g2\csrc/u8x8_d_ssd1305.c ****   * Redistributions in binary form must reproduce the above copyright notice, this 
  17:..\..\..\u8g2\u8g2\csrc/u8x8_d_ssd1305.c ****     list of conditions and the following disclaimer in the documentation and/or other 
  18:..\..\..\u8g2\u8g2\csrc/u8x8_d_ssd1305.c ****     materials provided with the distribution.
  19:..\..\..\u8g2\u8g2\csrc/u8x8_d_ssd1305.c **** 
  20:..\..\..\u8g2\u8g2\csrc/u8x8_d_ssd1305.c ****   THIS SOFTWARE IS PROVIDED BY THE COPYRIGHT HOLDERS AND 
  21:..\..\..\u8g2\u8g2\csrc/u8x8_d_ssd1305.c ****   CONTRIBUTORS "AS IS" AND ANY EXPRESS OR IMPLIED WARRANTIES, 
  22:..\..\..\u8g2\u8g2\csrc/u8x8_d_ssd1305.c ****   INCLUDING, BUT NOT LIMITED TO, THE IMPLIED WARRANTIES OF 
  23:..\..\..\u8g2\u8g2\csrc/u8x8_d_ssd1305.c ****   MERCHANTABILITY AND FITNESS FOR A PARTICULAR PURPOSE ARE 
  24:..\..\..\u8g2\u8g2\csrc/u8x8_d_ssd1305.c ****   DISCLAIMED. IN NO EVENT SHALL THE COPYRIGHT HOLDER OR 
  25:..\..\..\u8g2\u8g2\csrc/u8x8_d_ssd1305.c ****   CONTRIBUTORS BE LIABLE FOR ANY DIRECT, INDIRECT, INCIDENTAL, 
  26:..\..\..\u8g2\u8g2\csrc/u8x8_d_ssd1305.c ****   SPECIAL, EXEMPLARY, OR CONSEQUENTIAL DAMAGES (INCLUDING, BUT 
  27:..\..\..\u8g2\u8g2\csrc/u8x8_d_ssd1305.c ****   NOT LIMITED TO, PROCUREMENT OF SUBSTITUTE GOODS OR SERVICES; 
  28:..\..\..\u8g2\u8g2\csrc/u8x8_d_ssd1305.c ****   LOSS OF USE, DATA, OR PROFITS; OR BUSINESS INTERRUPTION) HOWEVER 
  29:..\..\..\u8g2\u8g2\csrc/u8x8_d_ssd1305.c ****   CAUSED AND ON ANY THEORY OF LIABILITY, WHETHER IN CONTRACT, 
  30:..\..\..\u8g2\u8g2\csrc/u8x8_d_ssd1305.c ****   STRICT LIABILITY, OR TORT (INCLUDING NEGLIGENCE OR OTHERWISE) 
  31:..\..\..\u8g2\u8g2\csrc/u8x8_d_ssd1305.c ****   ARISING IN ANY WAY OUT OF THE USE OF THIS SOFTWARE, EVEN IF 
ARM GAS  C:\Users\jesse\AppData\Local\Temp\ccZfcrn9.s 			page 2


  32:..\..\..\u8g2\u8g2\csrc/u8x8_d_ssd1305.c ****   ADVISED OF THE POSSIBILITY OF SUCH DAMAGE.  
  33:..\..\..\u8g2\u8g2\csrc/u8x8_d_ssd1305.c ****   
  34:..\..\..\u8g2\u8g2\csrc/u8x8_d_ssd1305.c **** */
  35:..\..\..\u8g2\u8g2\csrc/u8x8_d_ssd1305.c **** 
  36:..\..\..\u8g2\u8g2\csrc/u8x8_d_ssd1305.c **** 
  37:..\..\..\u8g2\u8g2\csrc/u8x8_d_ssd1305.c **** #include "u8x8.h"
  38:..\..\..\u8g2\u8g2\csrc/u8x8_d_ssd1305.c **** 
  39:..\..\..\u8g2\u8g2\csrc/u8x8_d_ssd1305.c **** 
  40:..\..\..\u8g2\u8g2\csrc/u8x8_d_ssd1305.c **** 
  41:..\..\..\u8g2\u8g2\csrc/u8x8_d_ssd1305.c **** 
  42:..\..\..\u8g2\u8g2\csrc/u8x8_d_ssd1305.c **** static const uint8_t u8x8_d_ssd1305_powersave0_seq[] = {
  43:..\..\..\u8g2\u8g2\csrc/u8x8_d_ssd1305.c ****   U8X8_START_TRANSFER(),             	/* enable chip, delay is part of the transfer start */
  44:..\..\..\u8g2\u8g2\csrc/u8x8_d_ssd1305.c ****   U8X8_C(0x0af),		                /* display on */
  45:..\..\..\u8g2\u8g2\csrc/u8x8_d_ssd1305.c ****   U8X8_END_TRANSFER(),             	/* disable chip */
  46:..\..\..\u8g2\u8g2\csrc/u8x8_d_ssd1305.c ****   U8X8_END()             			/* end of sequence */
  47:..\..\..\u8g2\u8g2\csrc/u8x8_d_ssd1305.c **** };
  48:..\..\..\u8g2\u8g2\csrc/u8x8_d_ssd1305.c **** 
  49:..\..\..\u8g2\u8g2\csrc/u8x8_d_ssd1305.c **** static const uint8_t u8x8_d_ssd1305_powersave1_seq[] = {
  50:..\..\..\u8g2\u8g2\csrc/u8x8_d_ssd1305.c ****   U8X8_START_TRANSFER(),             	/* enable chip, delay is part of the transfer start */
  51:..\..\..\u8g2\u8g2\csrc/u8x8_d_ssd1305.c ****   U8X8_C(0x0ae),		                /* display off */
  52:..\..\..\u8g2\u8g2\csrc/u8x8_d_ssd1305.c ****   U8X8_END_TRANSFER(),             	/* disable chip */
  53:..\..\..\u8g2\u8g2\csrc/u8x8_d_ssd1305.c ****   U8X8_END()             			/* end of sequence */
  54:..\..\..\u8g2\u8g2\csrc/u8x8_d_ssd1305.c **** };
  55:..\..\..\u8g2\u8g2\csrc/u8x8_d_ssd1305.c **** 
  56:..\..\..\u8g2\u8g2\csrc/u8x8_d_ssd1305.c **** static const uint8_t u8x8_d_ssd1305_128x32_flip0_seq[] = {
  57:..\..\..\u8g2\u8g2\csrc/u8x8_d_ssd1305.c ****   U8X8_START_TRANSFER(),             	/* enable chip, delay is part of the transfer start */
  58:..\..\..\u8g2\u8g2\csrc/u8x8_d_ssd1305.c ****   U8X8_CA(0x0d3, 32),			/* display offset to 32 */
  59:..\..\..\u8g2\u8g2\csrc/u8x8_d_ssd1305.c ****   U8X8_C(0x0a1),				/* segment remap a0/a1*/
  60:..\..\..\u8g2\u8g2\csrc/u8x8_d_ssd1305.c ****   U8X8_C(0x0c8),				/* c0: scan dir normal, c8: reverse */
  61:..\..\..\u8g2\u8g2\csrc/u8x8_d_ssd1305.c ****   U8X8_END_TRANSFER(),             	/* disable chip */
  62:..\..\..\u8g2\u8g2\csrc/u8x8_d_ssd1305.c ****   U8X8_END()             			/* end of sequence */
  63:..\..\..\u8g2\u8g2\csrc/u8x8_d_ssd1305.c **** };
  64:..\..\..\u8g2\u8g2\csrc/u8x8_d_ssd1305.c **** 
  65:..\..\..\u8g2\u8g2\csrc/u8x8_d_ssd1305.c **** static const uint8_t u8x8_d_ssd1305_128x32_flip1_seq[] = {
  66:..\..\..\u8g2\u8g2\csrc/u8x8_d_ssd1305.c ****   U8X8_START_TRANSFER(),             	/* enable chip, delay is part of the transfer start */
  67:..\..\..\u8g2\u8g2\csrc/u8x8_d_ssd1305.c ****   U8X8_CA(0x0d3, 0),			/* display offset to  */
  68:..\..\..\u8g2\u8g2\csrc/u8x8_d_ssd1305.c ****   U8X8_C(0x0a0),				/* segment remap a0/a1*/
  69:..\..\..\u8g2\u8g2\csrc/u8x8_d_ssd1305.c ****   U8X8_C(0x0c0),				/* c0: scan dir normal, c8: reverse */
  70:..\..\..\u8g2\u8g2\csrc/u8x8_d_ssd1305.c ****   U8X8_END_TRANSFER(),             	/* disable chip */
  71:..\..\..\u8g2\u8g2\csrc/u8x8_d_ssd1305.c ****   U8X8_END()             			/* end of sequence */
  72:..\..\..\u8g2\u8g2\csrc/u8x8_d_ssd1305.c **** };
  73:..\..\..\u8g2\u8g2\csrc/u8x8_d_ssd1305.c **** 
  74:..\..\..\u8g2\u8g2\csrc/u8x8_d_ssd1305.c **** 
  75:..\..\..\u8g2\u8g2\csrc/u8x8_d_ssd1305.c **** 
  76:..\..\..\u8g2\u8g2\csrc/u8x8_d_ssd1305.c **** static uint8_t u8x8_d_ssd1305_generic(u8x8_t *u8x8, uint8_t msg, uint8_t arg_int, void *arg_ptr)
  77:..\..\..\u8g2\u8g2\csrc/u8x8_d_ssd1305.c **** {
  27              		.loc 1 77 0
  28              		.cfi_startproc
  29              		@ args = 0, pretend = 0, frame = 0
  30              		@ frame_needed = 0, uses_anonymous_args = 0
  31              	.LVL0:
  78:..\..\..\u8g2\u8g2\csrc/u8x8_d_ssd1305.c ****   uint8_t x, c;
  79:..\..\..\u8g2\u8g2\csrc/u8x8_d_ssd1305.c ****   uint8_t *ptr;
  80:..\..\..\u8g2\u8g2\csrc/u8x8_d_ssd1305.c ****   switch(msg)
  32              		.loc 1 80 0
  33 0000 0E29     		cmp	r1, #14
  77:..\..\..\u8g2\u8g2\csrc/u8x8_d_ssd1305.c ****   uint8_t x, c;
ARM GAS  C:\Users\jesse\AppData\Local\Temp\ccZfcrn9.s 			page 3


  34              		.loc 1 77 0
  35 0002 F8B5     		push	{r3, r4, r5, r6, r7, lr}
  36              		.cfi_def_cfa_offset 24
  37              		.cfi_offset 3, -24
  38              		.cfi_offset 4, -20
  39              		.cfi_offset 5, -16
  40              		.cfi_offset 6, -12
  41              		.cfi_offset 7, -8
  42              		.cfi_offset 14, -4
  77:..\..\..\u8g2\u8g2\csrc/u8x8_d_ssd1305.c ****   uint8_t x, c;
  43              		.loc 1 77 0
  44 0004 0446     		mov	r4, r0
  45 0006 1546     		mov	r5, r2
  46 0008 1F46     		mov	r7, r3
  47              		.loc 1 80 0
  48 000a 37D0     		beq	.L3
  49 000c 0F29     		cmp	r1, #15
  50 000e 02D0     		beq	.L4
  51 0010 0B29     		cmp	r1, #11
  52 0012 41D1     		bne	.L10
  53 0014 2AE0     		b	.L15
  54              	.L4:
  55              	.LVL1:
  56              	.LBB4:
  57              	.LBB5:
  81:..\..\..\u8g2\u8g2\csrc/u8x8_d_ssd1305.c ****   {
  82:..\..\..\u8g2\u8g2\csrc/u8x8_d_ssd1305.c ****     case U8X8_MSG_DISPLAY_DRAW_TILE:
  83:..\..\..\u8g2\u8g2\csrc/u8x8_d_ssd1305.c ****       u8x8_cad_StartTransfer(u8x8);
  58              		.loc 1 83 0
  59 0016 FFF7FEFF 		bl	u8x8_cad_StartTransfer
  60              	.LVL2:
  84:..\..\..\u8g2\u8g2\csrc/u8x8_d_ssd1305.c ****       x = ((u8x8_tile_t *)arg_ptr)->x_pos;    
  85:..\..\..\u8g2\u8g2\csrc/u8x8_d_ssd1305.c ****       x *= 8;
  86:..\..\..\u8g2\u8g2\csrc/u8x8_d_ssd1305.c ****       x += u8x8->x_offset;
  61              		.loc 1 86 0
  62 001a 94F82230 		ldrb	r3, [r4, #34]	@ zero_extendqisi2
  84:..\..\..\u8g2\u8g2\csrc/u8x8_d_ssd1305.c ****       x = ((u8x8_tile_t *)arg_ptr)->x_pos;    
  63              		.loc 1 84 0
  64 001e 7E79     		ldrb	r6, [r7, #5]	@ zero_extendqisi2
  65              	.LVL3:
  87:..\..\..\u8g2\u8g2\csrc/u8x8_d_ssd1305.c ****     
  88:..\..\..\u8g2\u8g2\csrc/u8x8_d_ssd1305.c ****       u8x8_cad_SendCmd(u8x8, 0x040 );	/* set line offset to 0 */
  66              		.loc 1 88 0
  67 0020 4021     		movs	r1, #64
  86:..\..\..\u8g2\u8g2\csrc/u8x8_d_ssd1305.c ****     
  68              		.loc 1 86 0
  69 0022 03EBC606 		add	r6, r3, r6, lsl #3
  70              	.LVL4:
  71 0026 06F0FF06 		and	r6, r6, #255
  72              	.LVL5:
  73              		.loc 1 88 0
  74 002a 2046     		mov	r0, r4
  75 002c FFF7FEFF 		bl	u8x8_cad_SendCmd
  76              	.LVL6:
  89:..\..\..\u8g2\u8g2\csrc/u8x8_d_ssd1305.c ****     
  90:..\..\..\u8g2\u8g2\csrc/u8x8_d_ssd1305.c ****       u8x8_cad_SendCmd(u8x8, 0x010 | (x>>4) );
  77              		.loc 1 90 0
ARM GAS  C:\Users\jesse\AppData\Local\Temp\ccZfcrn9.s 			page 4


  78 0030 3109     		lsrs	r1, r6, #4
  79 0032 41F01001 		orr	r1, r1, #16
  80 0036 2046     		mov	r0, r4
  81 0038 FFF7FEFF 		bl	u8x8_cad_SendCmd
  82              	.LVL7:
  91:..\..\..\u8g2\u8g2\csrc/u8x8_d_ssd1305.c ****       u8x8_cad_SendArg(u8x8, 0x000 | ((x&15)));
  83              		.loc 1 91 0
  84 003c 06F00F01 		and	r1, r6, #15
  85 0040 2046     		mov	r0, r4
  86 0042 FFF7FEFF 		bl	u8x8_cad_SendArg
  87              	.LVL8:
  92:..\..\..\u8g2\u8g2\csrc/u8x8_d_ssd1305.c ****       u8x8_cad_SendArg(u8x8, 0x0b0 | (((u8x8_tile_t *)arg_ptr)->y_pos)   );
  88              		.loc 1 92 0
  89 0046 B979     		ldrb	r1, [r7, #6]	@ zero_extendqisi2
  90 0048 2046     		mov	r0, r4
  91 004a 41F0B001 		orr	r1, r1, #176
  92 004e FFF7FEFF 		bl	u8x8_cad_SendArg
  93              	.LVL9:
  94              	.L6:
  93:..\..\..\u8g2\u8g2\csrc/u8x8_d_ssd1305.c **** 
  94:..\..\..\u8g2\u8g2\csrc/u8x8_d_ssd1305.c ****     
  95:..\..\..\u8g2\u8g2\csrc/u8x8_d_ssd1305.c ****       do
  96:..\..\..\u8g2\u8g2\csrc/u8x8_d_ssd1305.c ****       {
  97:..\..\..\u8g2\u8g2\csrc/u8x8_d_ssd1305.c **** 	c = ((u8x8_tile_t *)arg_ptr)->cnt;
  98:..\..\..\u8g2\u8g2\csrc/u8x8_d_ssd1305.c **** 	ptr = ((u8x8_tile_t *)arg_ptr)->tile_ptr;
  99:..\..\..\u8g2\u8g2\csrc/u8x8_d_ssd1305.c **** 	u8x8_cad_SendData(u8x8, c*8, ptr); 	/* note: SendData can not handle more than 255 bytes */
  95              		.loc 1 99 0
  96 0052 3979     		ldrb	r1, [r7, #4]	@ zero_extendqisi2
  97 0054 3A68     		ldr	r2, [r7]
  98 0056 C900     		lsls	r1, r1, #3
  99 0058 01F0F801 		and	r1, r1, #248
 100 005c 2046     		mov	r0, r4
 100:..\..\..\u8g2\u8g2\csrc/u8x8_d_ssd1305.c **** 	/*
 101:..\..\..\u8g2\u8g2\csrc/u8x8_d_ssd1305.c **** 	do
 102:..\..\..\u8g2\u8g2\csrc/u8x8_d_ssd1305.c **** 	{
 103:..\..\..\u8g2\u8g2\csrc/u8x8_d_ssd1305.c **** 	  u8x8_cad_SendData(u8x8, 8, ptr);
 104:..\..\..\u8g2\u8g2\csrc/u8x8_d_ssd1305.c **** 	  ptr += 8;
 105:..\..\..\u8g2\u8g2\csrc/u8x8_d_ssd1305.c **** 	  c--;
 106:..\..\..\u8g2\u8g2\csrc/u8x8_d_ssd1305.c **** 	} while( c > 0 );
 107:..\..\..\u8g2\u8g2\csrc/u8x8_d_ssd1305.c **** 	*/
 108:..\..\..\u8g2\u8g2\csrc/u8x8_d_ssd1305.c **** 	arg_int--;
 101              		.loc 1 108 0
 102 005e 013D     		subs	r5, r5, #1
 103              	.LVL10:
  99:..\..\..\u8g2\u8g2\csrc/u8x8_d_ssd1305.c **** 	/*
 104              		.loc 1 99 0
 105 0060 FFF7FEFF 		bl	u8x8_cad_SendData
 106              	.LVL11:
 109:..\..\..\u8g2\u8g2\csrc/u8x8_d_ssd1305.c ****       } while( arg_int > 0 );
 107              		.loc 1 109 0
 108 0064 15F0FF05 		ands	r5, r5, #255
 109              	.LVL12:
 110 0068 F3D1     		bne	.L6
 111 006a 11E0     		b	.L13
 112              	.LVL13:
 113              	.L15:
 114              	.LBE5:
ARM GAS  C:\Users\jesse\AppData\Local\Temp\ccZfcrn9.s 			page 5


 115              	.LBE4:
 110:..\..\..\u8g2\u8g2\csrc/u8x8_d_ssd1305.c ****       
 111:..\..\..\u8g2\u8g2\csrc/u8x8_d_ssd1305.c ****       u8x8_cad_EndTransfer(u8x8);
 112:..\..\..\u8g2\u8g2\csrc/u8x8_d_ssd1305.c ****       break;
 113:..\..\..\u8g2\u8g2\csrc/u8x8_d_ssd1305.c ****     case U8X8_MSG_DISPLAY_SET_POWER_SAVE:
 114:..\..\..\u8g2\u8g2\csrc/u8x8_d_ssd1305.c ****       if ( arg_int == 0 )
 116              		.loc 1 114 0
 117 006c 0AB9     		cbnz	r2, .L7
 115:..\..\..\u8g2\u8g2\csrc/u8x8_d_ssd1305.c **** 	u8x8_cad_SendSequence(u8x8, u8x8_d_ssd1305_powersave0_seq);
 118              		.loc 1 115 0
 119 006e 0B49     		ldr	r1, .L16
 120              	.LVL14:
 121 0070 00E0     		b	.L11
 122              	.LVL15:
 123              	.L7:
 116:..\..\..\u8g2\u8g2\csrc/u8x8_d_ssd1305.c ****       else
 117:..\..\..\u8g2\u8g2\csrc/u8x8_d_ssd1305.c **** 	u8x8_cad_SendSequence(u8x8, u8x8_d_ssd1305_powersave1_seq);
 124              		.loc 1 117 0
 125 0072 0B49     		ldr	r1, .L16+4
 126              	.LVL16:
 127              	.L11:
 128 0074 FFF7FEFF 		bl	u8x8_cad_SendSequence
 129              	.LVL17:
 130              	.L12:
 118:..\..\..\u8g2\u8g2\csrc/u8x8_d_ssd1305.c ****       break;
 119:..\..\..\u8g2\u8g2\csrc/u8x8_d_ssd1305.c **** #ifdef U8X8_WITH_SET_CONTRAST
 120:..\..\..\u8g2\u8g2\csrc/u8x8_d_ssd1305.c ****     case U8X8_MSG_DISPLAY_SET_CONTRAST:
 121:..\..\..\u8g2\u8g2\csrc/u8x8_d_ssd1305.c ****       u8x8_cad_StartTransfer(u8x8);
 122:..\..\..\u8g2\u8g2\csrc/u8x8_d_ssd1305.c ****       u8x8_cad_SendCmd(u8x8, 0x081 );
 123:..\..\..\u8g2\u8g2\csrc/u8x8_d_ssd1305.c ****       u8x8_cad_SendArg(u8x8, arg_int );	/* ssd1305 has range from 0 to 255 */
 124:..\..\..\u8g2\u8g2\csrc/u8x8_d_ssd1305.c ****       u8x8_cad_EndTransfer(u8x8);
 125:..\..\..\u8g2\u8g2\csrc/u8x8_d_ssd1305.c ****       break;
 126:..\..\..\u8g2\u8g2\csrc/u8x8_d_ssd1305.c **** #endif
 127:..\..\..\u8g2\u8g2\csrc/u8x8_d_ssd1305.c ****     default:
 128:..\..\..\u8g2\u8g2\csrc/u8x8_d_ssd1305.c ****       return 0;
 129:..\..\..\u8g2\u8g2\csrc/u8x8_d_ssd1305.c ****   }
 130:..\..\..\u8g2\u8g2\csrc/u8x8_d_ssd1305.c ****   return 1;
 131              		.loc 1 130 0
 132 0078 0120     		movs	r0, #1
 133 007a F8BD     		pop	{r3, r4, r5, r6, r7, pc}
 134              	.LVL18:
 135              	.L3:
 121:..\..\..\u8g2\u8g2\csrc/u8x8_d_ssd1305.c ****       u8x8_cad_SendCmd(u8x8, 0x081 );
 136              		.loc 1 121 0
 137 007c FFF7FEFF 		bl	u8x8_cad_StartTransfer
 138              	.LVL19:
 122:..\..\..\u8g2\u8g2\csrc/u8x8_d_ssd1305.c ****       u8x8_cad_SendArg(u8x8, arg_int );	/* ssd1305 has range from 0 to 255 */
 139              		.loc 1 122 0
 140 0080 8121     		movs	r1, #129
 141 0082 2046     		mov	r0, r4
 142 0084 FFF7FEFF 		bl	u8x8_cad_SendCmd
 143              	.LVL20:
 123:..\..\..\u8g2\u8g2\csrc/u8x8_d_ssd1305.c ****       u8x8_cad_EndTransfer(u8x8);
 144              		.loc 1 123 0
 145 0088 2946     		mov	r1, r5
 146 008a 2046     		mov	r0, r4
 147 008c FFF7FEFF 		bl	u8x8_cad_SendArg
ARM GAS  C:\Users\jesse\AppData\Local\Temp\ccZfcrn9.s 			page 6


 148              	.LVL21:
 149              	.L13:
 124:..\..\..\u8g2\u8g2\csrc/u8x8_d_ssd1305.c ****       break;
 150              		.loc 1 124 0
 151 0090 2046     		mov	r0, r4
 152 0092 FFF7FEFF 		bl	u8x8_cad_EndTransfer
 153              	.LVL22:
 154 0096 EFE7     		b	.L12
 155              	.LVL23:
 156              	.L10:
 128:..\..\..\u8g2\u8g2\csrc/u8x8_d_ssd1305.c ****   }
 157              		.loc 1 128 0
 158 0098 0020     		movs	r0, #0
 159              	.LVL24:
 131:..\..\..\u8g2\u8g2\csrc/u8x8_d_ssd1305.c **** }
 160              		.loc 1 131 0
 161 009a F8BD     		pop	{r3, r4, r5, r6, r7, pc}
 162              	.LVL25:
 163              	.L17:
 164              		.align	2
 165              	.L16:
 166 009c 00000000 		.word	.LANCHOR0
 167 00a0 05000000 		.word	.LANCHOR0+5
 168              		.cfi_endproc
 169              	.LFE0:
 170              		.size	u8x8_d_ssd1305_generic, .-u8x8_d_ssd1305_generic
 171              		.section	.text.u8x8_d_ssd1305_128x32_noname,"ax",%progbits
 172              		.align	1
 173              		.global	u8x8_d_ssd1305_128x32_noname
 174              		.thumb
 175              		.thumb_func
 176              		.type	u8x8_d_ssd1305_128x32_noname, %function
 177              	u8x8_d_ssd1305_128x32_noname:
 178              	.LFB1:
 132:..\..\..\u8g2\u8g2\csrc/u8x8_d_ssd1305.c **** 
 133:..\..\..\u8g2\u8g2\csrc/u8x8_d_ssd1305.c **** /* timing from SSD1306 */
 134:..\..\..\u8g2\u8g2\csrc/u8x8_d_ssd1305.c **** static const u8x8_display_info_t u8x8_ssd1305_128x32_noname_display_info =
 135:..\..\..\u8g2\u8g2\csrc/u8x8_d_ssd1305.c **** {
 136:..\..\..\u8g2\u8g2\csrc/u8x8_d_ssd1305.c ****   /* chip_enable_level = */ 0,
 137:..\..\..\u8g2\u8g2\csrc/u8x8_d_ssd1305.c ****   /* chip_disable_level = */ 1,
 138:..\..\..\u8g2\u8g2\csrc/u8x8_d_ssd1305.c ****   
 139:..\..\..\u8g2\u8g2\csrc/u8x8_d_ssd1305.c ****   /* post_chip_enable_wait_ns = */ 20,
 140:..\..\..\u8g2\u8g2\csrc/u8x8_d_ssd1305.c ****   /* pre_chip_disable_wait_ns = */ 10,
 141:..\..\..\u8g2\u8g2\csrc/u8x8_d_ssd1305.c ****   /* reset_pulse_width_ms = */ 100, 	/* SSD1306: 3 us */
 142:..\..\..\u8g2\u8g2\csrc/u8x8_d_ssd1305.c ****   /* post_reset_wait_ms = */ 100, /* far east OLEDs need much longer setup time */
 143:..\..\..\u8g2\u8g2\csrc/u8x8_d_ssd1305.c ****   /* sda_setup_time_ns = */ 50,		/* SSD1306: 15ns, but cycle time is 100ns, so use 100/2 */
 144:..\..\..\u8g2\u8g2\csrc/u8x8_d_ssd1305.c ****   /* sck_pulse_width_ns = */ 50,	/* SSD1306: 20ns, but cycle time is 100ns, so use 100/2, AVR: belo
 145:..\..\..\u8g2\u8g2\csrc/u8x8_d_ssd1305.c ****   /* sck_clock_hz = */ 4000000UL,	/* since Arduino 1.6.0, the SPI bus speed in Hz. Should be  10000
 146:..\..\..\u8g2\u8g2\csrc/u8x8_d_ssd1305.c ****   /* spi_mode = */ 0,		/* active high, rising edge */
 147:..\..\..\u8g2\u8g2\csrc/u8x8_d_ssd1305.c ****   /* i2c_bus_clock_100kHz = */ 4,
 148:..\..\..\u8g2\u8g2\csrc/u8x8_d_ssd1305.c ****   /* data_setup_time_ns = */ 40,
 149:..\..\..\u8g2\u8g2\csrc/u8x8_d_ssd1305.c ****   /* write_pulse_width_ns = */ 150,	/* SSD1306: cycle time is 300ns, so use 300/2 = 150 */
 150:..\..\..\u8g2\u8g2\csrc/u8x8_d_ssd1305.c ****   /* tile_width = */ 16,
 151:..\..\..\u8g2\u8g2\csrc/u8x8_d_ssd1305.c ****   /* tile_hight = */ 4,
 152:..\..\..\u8g2\u8g2\csrc/u8x8_d_ssd1305.c ****   /* default_x_offset = */ 2,
 153:..\..\..\u8g2\u8g2\csrc/u8x8_d_ssd1305.c ****   /* flipmode_x_offset = */ 2,
 154:..\..\..\u8g2\u8g2\csrc/u8x8_d_ssd1305.c ****   /* pixel_width = */ 128,
ARM GAS  C:\Users\jesse\AppData\Local\Temp\ccZfcrn9.s 			page 7


 155:..\..\..\u8g2\u8g2\csrc/u8x8_d_ssd1305.c ****   /* pixel_height = */ 32
 156:..\..\..\u8g2\u8g2\csrc/u8x8_d_ssd1305.c **** };
 157:..\..\..\u8g2\u8g2\csrc/u8x8_d_ssd1305.c **** 
 158:..\..\..\u8g2\u8g2\csrc/u8x8_d_ssd1305.c **** 
 159:..\..\..\u8g2\u8g2\csrc/u8x8_d_ssd1305.c **** static const uint8_t u8x8_d_ssd1305_128x32_noname_init_seq[] = {
 160:..\..\..\u8g2\u8g2\csrc/u8x8_d_ssd1305.c ****     
 161:..\..\..\u8g2\u8g2\csrc/u8x8_d_ssd1305.c ****   U8X8_START_TRANSFER(),             	/* enable chip, delay is part of the transfer start */
 162:..\..\..\u8g2\u8g2\csrc/u8x8_d_ssd1305.c ****   
 163:..\..\..\u8g2\u8g2\csrc/u8x8_d_ssd1305.c ****   
 164:..\..\..\u8g2\u8g2\csrc/u8x8_d_ssd1305.c ****   U8X8_C(0x0ae),		                /* display off */
 165:..\..\..\u8g2\u8g2\csrc/u8x8_d_ssd1305.c ****   U8X8_CA(0x0d5, 0x080),		/* clock divide ratio (0x00=1) and oscillator frequency (0x8) */
 166:..\..\..\u8g2\u8g2\csrc/u8x8_d_ssd1305.c ****   U8X8_CA(0x0a8, 0x03f),		/* multiplex ratio */
 167:..\..\..\u8g2\u8g2\csrc/u8x8_d_ssd1305.c ****   U8X8_CA(0x0d3, 32),			/* display offset to 32 */
 168:..\..\..\u8g2\u8g2\csrc/u8x8_d_ssd1305.c ****   U8X8_C(0x040),		        	/* set display start line to 0 */
 169:..\..\..\u8g2\u8g2\csrc/u8x8_d_ssd1305.c ****   U8X8_CA(0x020, 0x000),		/* horizontal addressing mode */
 170:..\..\..\u8g2\u8g2\csrc/u8x8_d_ssd1305.c ****   
 171:..\..\..\u8g2\u8g2\csrc/u8x8_d_ssd1305.c ****   U8X8_C(0x0a1),				/* segment remap a0/a1*/
 172:..\..\..\u8g2\u8g2\csrc/u8x8_d_ssd1305.c ****   U8X8_C(0x0c8),				/* c0: scan dir normal, c8: reverse */
 173:..\..\..\u8g2\u8g2\csrc/u8x8_d_ssd1305.c ****   // Flipmode
 174:..\..\..\u8g2\u8g2\csrc/u8x8_d_ssd1305.c ****   // U8X8_C(0x0a0),				/* segment remap a0/a1*/
 175:..\..\..\u8g2\u8g2\csrc/u8x8_d_ssd1305.c ****   // U8X8_C(0x0c0),				/* c0: scan dir normal, c8: reverse */
 176:..\..\..\u8g2\u8g2\csrc/u8x8_d_ssd1305.c ****   
 177:..\..\..\u8g2\u8g2\csrc/u8x8_d_ssd1305.c ****   U8X8_CA(0x0da, 0x012),		/* com pin HW config, sequential com pin config (bit 4), disable left/rig
 178:..\..\..\u8g2\u8g2\csrc/u8x8_d_ssd1305.c **** 
 179:..\..\..\u8g2\u8g2\csrc/u8x8_d_ssd1305.c ****   U8X8_CA(0x081, 0x0cf), 		/* [2] set contrast control */
 180:..\..\..\u8g2\u8g2\csrc/u8x8_d_ssd1305.c ****   U8X8_CA(0x0d9, 0x0f1), 		/* [2] pre-charge period 0x022/f1*/
 181:..\..\..\u8g2\u8g2\csrc/u8x8_d_ssd1305.c ****   U8X8_CA(0x0db, 0x040), 		/* vcomh deselect level */  
 182:..\..\..\u8g2\u8g2\csrc/u8x8_d_ssd1305.c ****   // if vcomh is 0, then this will give the biggest range for contrast control issue #98
 183:..\..\..\u8g2\u8g2\csrc/u8x8_d_ssd1305.c ****   // restored the old values for the noname constructor, because vcomh=0 will not work for all OLED
 184:..\..\..\u8g2\u8g2\csrc/u8x8_d_ssd1305.c ****   
 185:..\..\..\u8g2\u8g2\csrc/u8x8_d_ssd1305.c ****   U8X8_C(0x02e),				/* Deactivate scroll */ 
 186:..\..\..\u8g2\u8g2\csrc/u8x8_d_ssd1305.c ****   U8X8_C(0x0a4),				/* output ram to display */
 187:..\..\..\u8g2\u8g2\csrc/u8x8_d_ssd1305.c ****   U8X8_C(0x0a6),				/* none inverted normal display mode */
 188:..\..\..\u8g2\u8g2\csrc/u8x8_d_ssd1305.c ****     
 189:..\..\..\u8g2\u8g2\csrc/u8x8_d_ssd1305.c ****   U8X8_END_TRANSFER(),             	/* disable chip */
 190:..\..\..\u8g2\u8g2\csrc/u8x8_d_ssd1305.c ****   U8X8_END()             			/* end of sequence */
 191:..\..\..\u8g2\u8g2\csrc/u8x8_d_ssd1305.c **** };
 192:..\..\..\u8g2\u8g2\csrc/u8x8_d_ssd1305.c **** 
 193:..\..\..\u8g2\u8g2\csrc/u8x8_d_ssd1305.c **** 
 194:..\..\..\u8g2\u8g2\csrc/u8x8_d_ssd1305.c **** uint8_t u8x8_d_ssd1305_128x32_noname(u8x8_t *u8x8, uint8_t msg, uint8_t arg_int, void *arg_ptr)
 195:..\..\..\u8g2\u8g2\csrc/u8x8_d_ssd1305.c **** {
 179              		.loc 1 195 0
 180              		.cfi_startproc
 181              		@ args = 0, pretend = 0, frame = 0
 182              		@ frame_needed = 0, uses_anonymous_args = 0
 183              	.LVL26:
 184 0000 70B5     		push	{r4, r5, r6, lr}
 185              		.cfi_def_cfa_offset 16
 186              		.cfi_offset 4, -16
 187              		.cfi_offset 5, -12
 188              		.cfi_offset 6, -8
 189              		.cfi_offset 14, -4
 190              		.loc 1 195 0
 191 0002 0446     		mov	r4, r0
 192 0004 0D46     		mov	r5, r1
 193 0006 1646     		mov	r6, r2
 196:..\..\..\u8g2\u8g2\csrc/u8x8_d_ssd1305.c ****     
ARM GAS  C:\Users\jesse\AppData\Local\Temp\ccZfcrn9.s 			page 8


 197:..\..\..\u8g2\u8g2\csrc/u8x8_d_ssd1305.c ****   if ( u8x8_d_ssd1305_generic(u8x8, msg, arg_int, arg_ptr) != 0 )
 194              		.loc 1 197 0
 195 0008 FFF7FEFF 		bl	u8x8_d_ssd1305_generic
 196              	.LVL27:
 197 000c 10BB     		cbnz	r0, .L24
 198:..\..\..\u8g2\u8g2\csrc/u8x8_d_ssd1305.c ****     return 1;
 199:..\..\..\u8g2\u8g2\csrc/u8x8_d_ssd1305.c ****   
 200:..\..\..\u8g2\u8g2\csrc/u8x8_d_ssd1305.c ****   switch(msg)
 198              		.loc 1 200 0
 199 000e 0A2D     		cmp	r5, #10
 200 0010 19D0     		beq	.L20
 201 0012 0D2D     		cmp	r5, #13
 202 0014 06D0     		beq	.L21
 203 0016 092D     		cmp	r5, #9
 204 0018 1DD1     		bne	.L19
 201:..\..\..\u8g2\u8g2\csrc/u8x8_d_ssd1305.c ****   {
 202:..\..\..\u8g2\u8g2\csrc/u8x8_d_ssd1305.c ****     case U8X8_MSG_DISPLAY_SET_FLIP_MODE:
 203:..\..\..\u8g2\u8g2\csrc/u8x8_d_ssd1305.c ****       if ( arg_int == 0 )
 204:..\..\..\u8g2\u8g2\csrc/u8x8_d_ssd1305.c ****       {
 205:..\..\..\u8g2\u8g2\csrc/u8x8_d_ssd1305.c **** 	u8x8_cad_SendSequence(u8x8, u8x8_d_ssd1305_128x32_flip0_seq);
 206:..\..\..\u8g2\u8g2\csrc/u8x8_d_ssd1305.c **** 	u8x8->x_offset = u8x8->display_info->default_x_offset;
 207:..\..\..\u8g2\u8g2\csrc/u8x8_d_ssd1305.c ****       }
 208:..\..\..\u8g2\u8g2\csrc/u8x8_d_ssd1305.c ****       else
 209:..\..\..\u8g2\u8g2\csrc/u8x8_d_ssd1305.c ****       {
 210:..\..\..\u8g2\u8g2\csrc/u8x8_d_ssd1305.c **** 	u8x8_cad_SendSequence(u8x8, u8x8_d_ssd1305_128x32_flip1_seq);
 211:..\..\..\u8g2\u8g2\csrc/u8x8_d_ssd1305.c **** 	u8x8->x_offset = u8x8->display_info->flipmode_x_offset;
 212:..\..\..\u8g2\u8g2\csrc/u8x8_d_ssd1305.c ****       }
 213:..\..\..\u8g2\u8g2\csrc/u8x8_d_ssd1305.c ****       break;
 214:..\..\..\u8g2\u8g2\csrc/u8x8_d_ssd1305.c ****     case U8X8_MSG_DISPLAY_INIT:
 215:..\..\..\u8g2\u8g2\csrc/u8x8_d_ssd1305.c ****       u8x8_d_helper_display_init(u8x8);
 216:..\..\..\u8g2\u8g2\csrc/u8x8_d_ssd1305.c ****       u8x8_cad_SendSequence(u8x8, u8x8_d_ssd1305_128x32_noname_init_seq);    
 217:..\..\..\u8g2\u8g2\csrc/u8x8_d_ssd1305.c ****       break;
 218:..\..\..\u8g2\u8g2\csrc/u8x8_d_ssd1305.c ****     case U8X8_MSG_DISPLAY_SETUP_MEMORY:
 219:..\..\..\u8g2\u8g2\csrc/u8x8_d_ssd1305.c ****       u8x8_d_helper_display_setup_memory(u8x8, &u8x8_ssd1305_128x32_noname_display_info);
 205              		.loc 1 219 0
 206 001a 0F49     		ldr	r1, .L26
 207 001c 2046     		mov	r0, r4
 208 001e FFF7FEFF 		bl	u8x8_d_helper_display_setup_memory
 209              	.LVL28:
 210 0022 17E0     		b	.L24
 211              	.L21:
 203:..\..\..\u8g2\u8g2\csrc/u8x8_d_ssd1305.c ****       {
 212              		.loc 1 203 0
 213 0024 36B9     		cbnz	r6, .L23
 205:..\..\..\u8g2\u8g2\csrc/u8x8_d_ssd1305.c **** 	u8x8->x_offset = u8x8->display_info->default_x_offset;
 214              		.loc 1 205 0
 215 0026 0D49     		ldr	r1, .L26+4
 216 0028 2046     		mov	r0, r4
 217 002a FFF7FEFF 		bl	u8x8_cad_SendSequence
 218              	.LVL29:
 206:..\..\..\u8g2\u8g2\csrc/u8x8_d_ssd1305.c ****       }
 219              		.loc 1 206 0
 220 002e 2368     		ldr	r3, [r4]
 221 0030 9B7C     		ldrb	r3, [r3, #18]	@ zero_extendqisi2
 222 0032 05E0     		b	.L25
 223              	.L23:
 210:..\..\..\u8g2\u8g2\csrc/u8x8_d_ssd1305.c **** 	u8x8->x_offset = u8x8->display_info->flipmode_x_offset;
ARM GAS  C:\Users\jesse\AppData\Local\Temp\ccZfcrn9.s 			page 9


 224              		.loc 1 210 0
 225 0034 0A49     		ldr	r1, .L26+8
 226 0036 2046     		mov	r0, r4
 227 0038 FFF7FEFF 		bl	u8x8_cad_SendSequence
 228              	.LVL30:
 211:..\..\..\u8g2\u8g2\csrc/u8x8_d_ssd1305.c ****       }
 229              		.loc 1 211 0
 230 003c 2368     		ldr	r3, [r4]
 231 003e DB7C     		ldrb	r3, [r3, #19]	@ zero_extendqisi2
 232              	.L25:
 233 0040 84F82230 		strb	r3, [r4, #34]
 234 0044 06E0     		b	.L24
 235              	.L20:
 215:..\..\..\u8g2\u8g2\csrc/u8x8_d_ssd1305.c ****       u8x8_cad_SendSequence(u8x8, u8x8_d_ssd1305_128x32_noname_init_seq);    
 236              		.loc 1 215 0
 237 0046 2046     		mov	r0, r4
 238 0048 FFF7FEFF 		bl	u8x8_d_helper_display_init
 239              	.LVL31:
 216:..\..\..\u8g2\u8g2\csrc/u8x8_d_ssd1305.c ****       break;
 240              		.loc 1 216 0
 241 004c 0549     		ldr	r1, .L26+12
 242 004e 2046     		mov	r0, r4
 243 0050 FFF7FEFF 		bl	u8x8_cad_SendSequence
 244              	.LVL32:
 245              	.L24:
 198:..\..\..\u8g2\u8g2\csrc/u8x8_d_ssd1305.c ****   
 246              		.loc 1 198 0
 247 0054 0120     		movs	r0, #1
 248              	.L19:
 220:..\..\..\u8g2\u8g2\csrc/u8x8_d_ssd1305.c ****       break;
 221:..\..\..\u8g2\u8g2\csrc/u8x8_d_ssd1305.c ****     default:
 222:..\..\..\u8g2\u8g2\csrc/u8x8_d_ssd1305.c ****       return 0;
 223:..\..\..\u8g2\u8g2\csrc/u8x8_d_ssd1305.c ****   }
 224:..\..\..\u8g2\u8g2\csrc/u8x8_d_ssd1305.c ****   return 1;
 225:..\..\..\u8g2\u8g2\csrc/u8x8_d_ssd1305.c **** }
 249              		.loc 1 225 0
 250 0056 70BD     		pop	{r4, r5, r6, pc}
 251              	.LVL33:
 252              	.L27:
 253              		.align	2
 254              	.L26:
 255 0058 54000000 		.word	.LANCHOR0+84
 256 005c 0A000000 		.word	.LANCHOR0+10
 257 0060 15000000 		.word	.LANCHOR0+21
 258 0064 20000000 		.word	.LANCHOR0+32
 259              		.cfi_endproc
 260              	.LFE1:
 261              		.size	u8x8_d_ssd1305_128x32_noname, .-u8x8_d_ssd1305_128x32_noname
 262              		.section	.text.u8x8_d_ssd1305_128x32_adafruit,"ax",%progbits
 263              		.align	1
 264              		.global	u8x8_d_ssd1305_128x32_adafruit
 265              		.thumb
 266              		.thumb_func
 267              		.type	u8x8_d_ssd1305_128x32_adafruit, %function
 268              	u8x8_d_ssd1305_128x32_adafruit:
 269              	.LFB2:
 226:..\..\..\u8g2\u8g2\csrc/u8x8_d_ssd1305.c **** 
ARM GAS  C:\Users\jesse\AppData\Local\Temp\ccZfcrn9.s 			page 10


 227:..\..\..\u8g2\u8g2\csrc/u8x8_d_ssd1305.c **** /*================================================*/
 228:..\..\..\u8g2\u8g2\csrc/u8x8_d_ssd1305.c **** /* adafruit 128x32 SSD1305 OLED, https://www.adafruit.com/product/2675 */
 229:..\..\..\u8g2\u8g2\csrc/u8x8_d_ssd1305.c **** /* issue 724 */
 230:..\..\..\u8g2\u8g2\csrc/u8x8_d_ssd1305.c **** 
 231:..\..\..\u8g2\u8g2\csrc/u8x8_d_ssd1305.c **** /* timing from SSD1306 */
 232:..\..\..\u8g2\u8g2\csrc/u8x8_d_ssd1305.c **** static const u8x8_display_info_t u8x8_ssd1305_128x32_adafruit_display_info =
 233:..\..\..\u8g2\u8g2\csrc/u8x8_d_ssd1305.c **** {
 234:..\..\..\u8g2\u8g2\csrc/u8x8_d_ssd1305.c ****   /* chip_enable_level = */ 0,
 235:..\..\..\u8g2\u8g2\csrc/u8x8_d_ssd1305.c ****   /* chip_disable_level = */ 1,
 236:..\..\..\u8g2\u8g2\csrc/u8x8_d_ssd1305.c ****   
 237:..\..\..\u8g2\u8g2\csrc/u8x8_d_ssd1305.c ****   /* post_chip_enable_wait_ns = */ 20,
 238:..\..\..\u8g2\u8g2\csrc/u8x8_d_ssd1305.c ****   /* pre_chip_disable_wait_ns = */ 10,
 239:..\..\..\u8g2\u8g2\csrc/u8x8_d_ssd1305.c ****   /* reset_pulse_width_ms = */ 100, 	/* SSD1306: 3 us */
 240:..\..\..\u8g2\u8g2\csrc/u8x8_d_ssd1305.c ****   /* post_reset_wait_ms = */ 100, /* far east OLEDs need much longer setup time */
 241:..\..\..\u8g2\u8g2\csrc/u8x8_d_ssd1305.c ****   /* sda_setup_time_ns = */ 50,		/* SSD1306: 15ns, but cycle time is 100ns, so use 100/2 */
 242:..\..\..\u8g2\u8g2\csrc/u8x8_d_ssd1305.c ****   /* sck_pulse_width_ns = */ 50,	/* SSD1306: 20ns, but cycle time is 100ns, so use 100/2, AVR: belo
 243:..\..\..\u8g2\u8g2\csrc/u8x8_d_ssd1305.c ****   /* sck_clock_hz = */ 4000000UL,	/* since Arduino 1.6.0, the SPI bus speed in Hz. Should be  10000
 244:..\..\..\u8g2\u8g2\csrc/u8x8_d_ssd1305.c ****   /* spi_mode = */ 0,		/* active high, rising edge */
 245:..\..\..\u8g2\u8g2\csrc/u8x8_d_ssd1305.c ****   /* i2c_bus_clock_100kHz = */ 4,
 246:..\..\..\u8g2\u8g2\csrc/u8x8_d_ssd1305.c ****   /* data_setup_time_ns = */ 40,
 247:..\..\..\u8g2\u8g2\csrc/u8x8_d_ssd1305.c ****   /* write_pulse_width_ns = */ 150,	/* SSD1306: cycle time is 300ns, so use 300/2 = 150 */
 248:..\..\..\u8g2\u8g2\csrc/u8x8_d_ssd1305.c ****   /* tile_width = */ 16,
 249:..\..\..\u8g2\u8g2\csrc/u8x8_d_ssd1305.c ****   /* tile_hight = */ 4,
 250:..\..\..\u8g2\u8g2\csrc/u8x8_d_ssd1305.c ****   /* default_x_offset = */ 4,
 251:..\..\..\u8g2\u8g2\csrc/u8x8_d_ssd1305.c ****   /* flipmode_x_offset = */ 0,
 252:..\..\..\u8g2\u8g2\csrc/u8x8_d_ssd1305.c ****   /* pixel_width = */ 128,
 253:..\..\..\u8g2\u8g2\csrc/u8x8_d_ssd1305.c ****   /* pixel_height = */ 32
 254:..\..\..\u8g2\u8g2\csrc/u8x8_d_ssd1305.c **** };
 255:..\..\..\u8g2\u8g2\csrc/u8x8_d_ssd1305.c **** 
 256:..\..\..\u8g2\u8g2\csrc/u8x8_d_ssd1305.c **** 
 257:..\..\..\u8g2\u8g2\csrc/u8x8_d_ssd1305.c **** uint8_t u8x8_d_ssd1305_128x32_adafruit(u8x8_t *u8x8, uint8_t msg, uint8_t arg_int, void *arg_ptr)
 258:..\..\..\u8g2\u8g2\csrc/u8x8_d_ssd1305.c **** {
 270              		.loc 1 258 0
 271              		.cfi_startproc
 272              		@ args = 0, pretend = 0, frame = 0
 273              		@ frame_needed = 0, uses_anonymous_args = 0
 274              	.LVL34:
 275 0000 70B5     		push	{r4, r5, r6, lr}
 276              		.cfi_def_cfa_offset 16
 277              		.cfi_offset 4, -16
 278              		.cfi_offset 5, -12
 279              		.cfi_offset 6, -8
 280              		.cfi_offset 14, -4
 281              		.loc 1 258 0
 282 0002 0446     		mov	r4, r0
 283 0004 0D46     		mov	r5, r1
 284 0006 1646     		mov	r6, r2
 259:..\..\..\u8g2\u8g2\csrc/u8x8_d_ssd1305.c ****     
 260:..\..\..\u8g2\u8g2\csrc/u8x8_d_ssd1305.c ****   if ( u8x8_d_ssd1305_generic(u8x8, msg, arg_int, arg_ptr) != 0 )
 285              		.loc 1 260 0
 286 0008 FFF7FEFF 		bl	u8x8_d_ssd1305_generic
 287              	.LVL35:
 288 000c 10BB     		cbnz	r0, .L34
 261:..\..\..\u8g2\u8g2\csrc/u8x8_d_ssd1305.c ****     return 1;
 262:..\..\..\u8g2\u8g2\csrc/u8x8_d_ssd1305.c ****   
 263:..\..\..\u8g2\u8g2\csrc/u8x8_d_ssd1305.c ****   switch(msg)
 289              		.loc 1 263 0
ARM GAS  C:\Users\jesse\AppData\Local\Temp\ccZfcrn9.s 			page 11


 290 000e 0A2D     		cmp	r5, #10
 291 0010 19D0     		beq	.L30
 292 0012 0D2D     		cmp	r5, #13
 293 0014 06D0     		beq	.L31
 294 0016 092D     		cmp	r5, #9
 295 0018 1DD1     		bne	.L29
 264:..\..\..\u8g2\u8g2\csrc/u8x8_d_ssd1305.c ****   {
 265:..\..\..\u8g2\u8g2\csrc/u8x8_d_ssd1305.c ****     case U8X8_MSG_DISPLAY_SET_FLIP_MODE:
 266:..\..\..\u8g2\u8g2\csrc/u8x8_d_ssd1305.c ****       if ( arg_int == 0 )
 267:..\..\..\u8g2\u8g2\csrc/u8x8_d_ssd1305.c ****       {
 268:..\..\..\u8g2\u8g2\csrc/u8x8_d_ssd1305.c **** 	u8x8_cad_SendSequence(u8x8, u8x8_d_ssd1305_128x32_flip0_seq);
 269:..\..\..\u8g2\u8g2\csrc/u8x8_d_ssd1305.c **** 	u8x8->x_offset = u8x8->display_info->default_x_offset;
 270:..\..\..\u8g2\u8g2\csrc/u8x8_d_ssd1305.c ****       }
 271:..\..\..\u8g2\u8g2\csrc/u8x8_d_ssd1305.c ****       else
 272:..\..\..\u8g2\u8g2\csrc/u8x8_d_ssd1305.c ****       {
 273:..\..\..\u8g2\u8g2\csrc/u8x8_d_ssd1305.c **** 	u8x8_cad_SendSequence(u8x8, u8x8_d_ssd1305_128x32_flip1_seq);
 274:..\..\..\u8g2\u8g2\csrc/u8x8_d_ssd1305.c **** 	u8x8->x_offset = u8x8->display_info->flipmode_x_offset;
 275:..\..\..\u8g2\u8g2\csrc/u8x8_d_ssd1305.c ****       }
 276:..\..\..\u8g2\u8g2\csrc/u8x8_d_ssd1305.c ****       break;
 277:..\..\..\u8g2\u8g2\csrc/u8x8_d_ssd1305.c ****     case U8X8_MSG_DISPLAY_INIT:
 278:..\..\..\u8g2\u8g2\csrc/u8x8_d_ssd1305.c ****       u8x8_d_helper_display_init(u8x8);
 279:..\..\..\u8g2\u8g2\csrc/u8x8_d_ssd1305.c ****       u8x8_cad_SendSequence(u8x8, u8x8_d_ssd1305_128x32_noname_init_seq);    
 280:..\..\..\u8g2\u8g2\csrc/u8x8_d_ssd1305.c ****       break;
 281:..\..\..\u8g2\u8g2\csrc/u8x8_d_ssd1305.c ****     case U8X8_MSG_DISPLAY_SETUP_MEMORY:
 282:..\..\..\u8g2\u8g2\csrc/u8x8_d_ssd1305.c ****       u8x8_d_helper_display_setup_memory(u8x8, &u8x8_ssd1305_128x32_adafruit_display_info);
 296              		.loc 1 282 0
 297 001a 0F49     		ldr	r1, .L36
 298 001c 2046     		mov	r0, r4
 299 001e FFF7FEFF 		bl	u8x8_d_helper_display_setup_memory
 300              	.LVL36:
 301 0022 17E0     		b	.L34
 302              	.L31:
 266:..\..\..\u8g2\u8g2\csrc/u8x8_d_ssd1305.c ****       {
 303              		.loc 1 266 0
 304 0024 36B9     		cbnz	r6, .L33
 268:..\..\..\u8g2\u8g2\csrc/u8x8_d_ssd1305.c **** 	u8x8->x_offset = u8x8->display_info->default_x_offset;
 305              		.loc 1 268 0
 306 0026 0D49     		ldr	r1, .L36+4
 307 0028 2046     		mov	r0, r4
 308 002a FFF7FEFF 		bl	u8x8_cad_SendSequence
 309              	.LVL37:
 269:..\..\..\u8g2\u8g2\csrc/u8x8_d_ssd1305.c ****       }
 310              		.loc 1 269 0
 311 002e 2368     		ldr	r3, [r4]
 312 0030 9B7C     		ldrb	r3, [r3, #18]	@ zero_extendqisi2
 313 0032 05E0     		b	.L35
 314              	.L33:
 273:..\..\..\u8g2\u8g2\csrc/u8x8_d_ssd1305.c **** 	u8x8->x_offset = u8x8->display_info->flipmode_x_offset;
 315              		.loc 1 273 0
 316 0034 0A49     		ldr	r1, .L36+8
 317 0036 2046     		mov	r0, r4
 318 0038 FFF7FEFF 		bl	u8x8_cad_SendSequence
 319              	.LVL38:
 274:..\..\..\u8g2\u8g2\csrc/u8x8_d_ssd1305.c ****       }
 320              		.loc 1 274 0
 321 003c 2368     		ldr	r3, [r4]
 322 003e DB7C     		ldrb	r3, [r3, #19]	@ zero_extendqisi2
ARM GAS  C:\Users\jesse\AppData\Local\Temp\ccZfcrn9.s 			page 12


 323              	.L35:
 324 0040 84F82230 		strb	r3, [r4, #34]
 325 0044 06E0     		b	.L34
 326              	.L30:
 278:..\..\..\u8g2\u8g2\csrc/u8x8_d_ssd1305.c ****       u8x8_cad_SendSequence(u8x8, u8x8_d_ssd1305_128x32_noname_init_seq);    
 327              		.loc 1 278 0
 328 0046 2046     		mov	r0, r4
 329 0048 FFF7FEFF 		bl	u8x8_d_helper_display_init
 330              	.LVL39:
 279:..\..\..\u8g2\u8g2\csrc/u8x8_d_ssd1305.c ****       break;
 331              		.loc 1 279 0
 332 004c 0549     		ldr	r1, .L36+12
 333 004e 2046     		mov	r0, r4
 334 0050 FFF7FEFF 		bl	u8x8_cad_SendSequence
 335              	.LVL40:
 336              	.L34:
 261:..\..\..\u8g2\u8g2\csrc/u8x8_d_ssd1305.c ****   
 337              		.loc 1 261 0
 338 0054 0120     		movs	r0, #1
 339              	.L29:
 283:..\..\..\u8g2\u8g2\csrc/u8x8_d_ssd1305.c ****       break;
 284:..\..\..\u8g2\u8g2\csrc/u8x8_d_ssd1305.c ****     default:
 285:..\..\..\u8g2\u8g2\csrc/u8x8_d_ssd1305.c ****       return 0;
 286:..\..\..\u8g2\u8g2\csrc/u8x8_d_ssd1305.c ****   }
 287:..\..\..\u8g2\u8g2\csrc/u8x8_d_ssd1305.c ****   return 1;
 288:..\..\..\u8g2\u8g2\csrc/u8x8_d_ssd1305.c **** }
 340              		.loc 1 288 0
 341 0056 70BD     		pop	{r4, r5, r6, pc}
 342              	.LVL41:
 343              	.L37:
 344              		.align	2
 345              	.L36:
 346 0058 6C000000 		.word	.LANCHOR0+108
 347 005c 0A000000 		.word	.LANCHOR0+10
 348 0060 15000000 		.word	.LANCHOR0+21
 349 0064 20000000 		.word	.LANCHOR0+32
 350              		.cfi_endproc
 351              	.LFE2:
 352              		.size	u8x8_d_ssd1305_128x32_adafruit, .-u8x8_d_ssd1305_128x32_adafruit
 353              		.section	.text.u8x8_d_ssd1305_128x64_adafruit,"ax",%progbits
 354              		.align	1
 355              		.global	u8x8_d_ssd1305_128x64_adafruit
 356              		.thumb
 357              		.thumb_func
 358              		.type	u8x8_d_ssd1305_128x64_adafruit, %function
 359              	u8x8_d_ssd1305_128x64_adafruit:
 360              	.LFB3:
 289:..\..\..\u8g2\u8g2\csrc/u8x8_d_ssd1305.c **** 
 290:..\..\..\u8g2\u8g2\csrc/u8x8_d_ssd1305.c **** 
 291:..\..\..\u8g2\u8g2\csrc/u8x8_d_ssd1305.c **** 
 292:..\..\..\u8g2\u8g2\csrc/u8x8_d_ssd1305.c **** 
 293:..\..\..\u8g2\u8g2\csrc/u8x8_d_ssd1305.c **** /*================================================*/
 294:..\..\..\u8g2\u8g2\csrc/u8x8_d_ssd1305.c **** /* adafruit SSD1305 OLED */
 295:..\..\..\u8g2\u8g2\csrc/u8x8_d_ssd1305.c **** 
 296:..\..\..\u8g2\u8g2\csrc/u8x8_d_ssd1305.c **** /* timing from SSD1306 */
 297:..\..\..\u8g2\u8g2\csrc/u8x8_d_ssd1305.c **** static const u8x8_display_info_t u8x8_ssd1305_128x64_adafruit_display_info =
 298:..\..\..\u8g2\u8g2\csrc/u8x8_d_ssd1305.c **** {
ARM GAS  C:\Users\jesse\AppData\Local\Temp\ccZfcrn9.s 			page 13


 299:..\..\..\u8g2\u8g2\csrc/u8x8_d_ssd1305.c ****   /* chip_enable_level = */ 0,
 300:..\..\..\u8g2\u8g2\csrc/u8x8_d_ssd1305.c ****   /* chip_disable_level = */ 1,
 301:..\..\..\u8g2\u8g2\csrc/u8x8_d_ssd1305.c ****   
 302:..\..\..\u8g2\u8g2\csrc/u8x8_d_ssd1305.c ****   /* post_chip_enable_wait_ns = */ 20,
 303:..\..\..\u8g2\u8g2\csrc/u8x8_d_ssd1305.c ****   /* pre_chip_disable_wait_ns = */ 10,
 304:..\..\..\u8g2\u8g2\csrc/u8x8_d_ssd1305.c ****   /* reset_pulse_width_ms = */ 100, 	/* SSD1306: 3 us */
 305:..\..\..\u8g2\u8g2\csrc/u8x8_d_ssd1305.c ****   /* post_reset_wait_ms = */ 100, /* far east OLEDs need much longer setup time */
 306:..\..\..\u8g2\u8g2\csrc/u8x8_d_ssd1305.c ****   /* sda_setup_time_ns = */ 50,		/* SSD1306: 15ns, but cycle time is 100ns, so use 100/2 */
 307:..\..\..\u8g2\u8g2\csrc/u8x8_d_ssd1305.c ****   /* sck_pulse_width_ns = */ 50,	/* SSD1306: 20ns, but cycle time is 100ns, so use 100/2, AVR: belo
 308:..\..\..\u8g2\u8g2\csrc/u8x8_d_ssd1305.c ****   /* sck_clock_hz = */ 4000000UL,	/* since Arduino 1.6.0, the SPI bus speed in Hz. Should be  10000
 309:..\..\..\u8g2\u8g2\csrc/u8x8_d_ssd1305.c ****   /* spi_mode = */ 0,		/* active high, rising edge */
 310:..\..\..\u8g2\u8g2\csrc/u8x8_d_ssd1305.c ****   /* i2c_bus_clock_100kHz = */ 4,
 311:..\..\..\u8g2\u8g2\csrc/u8x8_d_ssd1305.c ****   /* data_setup_time_ns = */ 40,
 312:..\..\..\u8g2\u8g2\csrc/u8x8_d_ssd1305.c ****   /* write_pulse_width_ns = */ 150,	/* SSD1306: cycle time is 300ns, so use 300/2 = 150 */
 313:..\..\..\u8g2\u8g2\csrc/u8x8_d_ssd1305.c ****   /* tile_width = */ 16,
 314:..\..\..\u8g2\u8g2\csrc/u8x8_d_ssd1305.c ****   /* tile_hight = */ 8,
 315:..\..\..\u8g2\u8g2\csrc/u8x8_d_ssd1305.c ****   /* default_x_offset = */ 2,
 316:..\..\..\u8g2\u8g2\csrc/u8x8_d_ssd1305.c ****   /* flipmode_x_offset = */ 2,
 317:..\..\..\u8g2\u8g2\csrc/u8x8_d_ssd1305.c ****   /* pixel_width = */ 128,
 318:..\..\..\u8g2\u8g2\csrc/u8x8_d_ssd1305.c ****   /* pixel_height = */ 64
 319:..\..\..\u8g2\u8g2\csrc/u8x8_d_ssd1305.c **** };
 320:..\..\..\u8g2\u8g2\csrc/u8x8_d_ssd1305.c **** 
 321:..\..\..\u8g2\u8g2\csrc/u8x8_d_ssd1305.c **** 
 322:..\..\..\u8g2\u8g2\csrc/u8x8_d_ssd1305.c **** static const uint8_t u8x8_d_ssd1305_128x64_adafruit_init_seq[] = {
 323:..\..\..\u8g2\u8g2\csrc/u8x8_d_ssd1305.c ****     
 324:..\..\..\u8g2\u8g2\csrc/u8x8_d_ssd1305.c ****   U8X8_START_TRANSFER(),             	/* enable chip, delay is part of the transfer start */
 325:..\..\..\u8g2\u8g2\csrc/u8x8_d_ssd1305.c ****   
 326:..\..\..\u8g2\u8g2\csrc/u8x8_d_ssd1305.c ****   
 327:..\..\..\u8g2\u8g2\csrc/u8x8_d_ssd1305.c ****   U8X8_C(0x0ae),		                /* display off */
 328:..\..\..\u8g2\u8g2\csrc/u8x8_d_ssd1305.c ****   U8X8_CA(0x0d5, 0x0f0),		/* clock divide ratio (0x00=1) and oscillator frequency */
 329:..\..\..\u8g2\u8g2\csrc/u8x8_d_ssd1305.c ****   U8X8_CA(0x0a8, 0x03f),		/* multiplex ratio */
 330:..\..\..\u8g2\u8g2\csrc/u8x8_d_ssd1305.c ****   U8X8_CA(0x0d3, 0x040),		/* display offset to 32 */
 331:..\..\..\u8g2\u8g2\csrc/u8x8_d_ssd1305.c ****   U8X8_C(0x040),		        	/* set display start line to 0 */
 332:..\..\..\u8g2\u8g2\csrc/u8x8_d_ssd1305.c ****   U8X8_CA(0x020, 0x000),		/* horizontal addressing mode */
 333:..\..\..\u8g2\u8g2\csrc/u8x8_d_ssd1305.c ****   
 334:..\..\..\u8g2\u8g2\csrc/u8x8_d_ssd1305.c ****   U8X8_C(0x0a1),				/* segment remap a0/a1*/
 335:..\..\..\u8g2\u8g2\csrc/u8x8_d_ssd1305.c ****   U8X8_C(0x0c8),				/* c0: scan dir normal, c8: reverse */
 336:..\..\..\u8g2\u8g2\csrc/u8x8_d_ssd1305.c ****   // Flipmode
 337:..\..\..\u8g2\u8g2\csrc/u8x8_d_ssd1305.c ****   // U8X8_C(0x0a0),				/* segment remap a0/a1*/
 338:..\..\..\u8g2\u8g2\csrc/u8x8_d_ssd1305.c ****   // U8X8_C(0x0c0),				/* c0: scan dir normal, c8: reverse */
 339:..\..\..\u8g2\u8g2\csrc/u8x8_d_ssd1305.c ****   
 340:..\..\..\u8g2\u8g2\csrc/u8x8_d_ssd1305.c ****   U8X8_CA(0x0da, 0x012),		/* com pin HW config, sequential com pin config (bit 4), disable left/rig
 341:..\..\..\u8g2\u8g2\csrc/u8x8_d_ssd1305.c **** 
 342:..\..\..\u8g2\u8g2\csrc/u8x8_d_ssd1305.c ****   U8X8_CA(0x081, 0x032), 		/* [2] set contrast control */
 343:..\..\..\u8g2\u8g2\csrc/u8x8_d_ssd1305.c ****   U8X8_CA(0x082, 0x080), 		/* set area brightness (reset=0x080) */
 344:..\..\..\u8g2\u8g2\csrc/u8x8_d_ssd1305.c ****   U8X8_CA(0x0d9, 0x0f1), 		/* [2] pre-charge period 0x022/f1*/
 345:..\..\..\u8g2\u8g2\csrc/u8x8_d_ssd1305.c ****   U8X8_CA(0x0db, 0x040), 		/* vcomh deselect level */  
 346:..\..\..\u8g2\u8g2\csrc/u8x8_d_ssd1305.c ****   // if vcomh is 0, then this will give the biggest range for contrast control issue #98
 347:..\..\..\u8g2\u8g2\csrc/u8x8_d_ssd1305.c ****   // restored the old values for the noname constructor, because vcomh=0 will not work for all OLED
 348:..\..\..\u8g2\u8g2\csrc/u8x8_d_ssd1305.c ****   
 349:..\..\..\u8g2\u8g2\csrc/u8x8_d_ssd1305.c ****   U8X8_C(0x02e),				/* Deactivate scroll */ 
 350:..\..\..\u8g2\u8g2\csrc/u8x8_d_ssd1305.c ****   U8X8_C(0x0a4),				/* output ram to display */
 351:..\..\..\u8g2\u8g2\csrc/u8x8_d_ssd1305.c ****   U8X8_C(0x0a6),				/* none inverted normal display mode */
 352:..\..\..\u8g2\u8g2\csrc/u8x8_d_ssd1305.c ****     
 353:..\..\..\u8g2\u8g2\csrc/u8x8_d_ssd1305.c ****   U8X8_END_TRANSFER(),             	/* disable chip */
 354:..\..\..\u8g2\u8g2\csrc/u8x8_d_ssd1305.c ****   U8X8_END()             			/* end of sequence */
 355:..\..\..\u8g2\u8g2\csrc/u8x8_d_ssd1305.c **** };
ARM GAS  C:\Users\jesse\AppData\Local\Temp\ccZfcrn9.s 			page 14


 356:..\..\..\u8g2\u8g2\csrc/u8x8_d_ssd1305.c **** 
 357:..\..\..\u8g2\u8g2\csrc/u8x8_d_ssd1305.c **** 
 358:..\..\..\u8g2\u8g2\csrc/u8x8_d_ssd1305.c **** uint8_t u8x8_d_ssd1305_128x64_adafruit(u8x8_t *u8x8, uint8_t msg, uint8_t arg_int, void *arg_ptr)
 359:..\..\..\u8g2\u8g2\csrc/u8x8_d_ssd1305.c **** {
 361              		.loc 1 359 0
 362              		.cfi_startproc
 363              		@ args = 0, pretend = 0, frame = 0
 364              		@ frame_needed = 0, uses_anonymous_args = 0
 365              	.LVL42:
 366 0000 70B5     		push	{r4, r5, r6, lr}
 367              		.cfi_def_cfa_offset 16
 368              		.cfi_offset 4, -16
 369              		.cfi_offset 5, -12
 370              		.cfi_offset 6, -8
 371              		.cfi_offset 14, -4
 372              		.loc 1 359 0
 373 0002 0446     		mov	r4, r0
 374 0004 0D46     		mov	r5, r1
 375 0006 1646     		mov	r6, r2
 360:..\..\..\u8g2\u8g2\csrc/u8x8_d_ssd1305.c ****     
 361:..\..\..\u8g2\u8g2\csrc/u8x8_d_ssd1305.c ****   if ( u8x8_d_ssd1305_generic(u8x8, msg, arg_int, arg_ptr) != 0 )
 376              		.loc 1 361 0
 377 0008 FFF7FEFF 		bl	u8x8_d_ssd1305_generic
 378              	.LVL43:
 379 000c 10BB     		cbnz	r0, .L44
 362:..\..\..\u8g2\u8g2\csrc/u8x8_d_ssd1305.c ****     return 1;
 363:..\..\..\u8g2\u8g2\csrc/u8x8_d_ssd1305.c ****   
 364:..\..\..\u8g2\u8g2\csrc/u8x8_d_ssd1305.c ****   switch(msg)
 380              		.loc 1 364 0
 381 000e 0A2D     		cmp	r5, #10
 382 0010 19D0     		beq	.L40
 383 0012 0D2D     		cmp	r5, #13
 384 0014 06D0     		beq	.L41
 385 0016 092D     		cmp	r5, #9
 386 0018 1DD1     		bne	.L39
 365:..\..\..\u8g2\u8g2\csrc/u8x8_d_ssd1305.c ****   {
 366:..\..\..\u8g2\u8g2\csrc/u8x8_d_ssd1305.c ****     case U8X8_MSG_DISPLAY_SET_FLIP_MODE:
 367:..\..\..\u8g2\u8g2\csrc/u8x8_d_ssd1305.c ****       if ( arg_int == 0 )
 368:..\..\..\u8g2\u8g2\csrc/u8x8_d_ssd1305.c ****       {
 369:..\..\..\u8g2\u8g2\csrc/u8x8_d_ssd1305.c **** 	u8x8_cad_SendSequence(u8x8, u8x8_d_ssd1305_128x32_flip0_seq);
 370:..\..\..\u8g2\u8g2\csrc/u8x8_d_ssd1305.c **** 	u8x8->x_offset = u8x8->display_info->default_x_offset;
 371:..\..\..\u8g2\u8g2\csrc/u8x8_d_ssd1305.c ****       }
 372:..\..\..\u8g2\u8g2\csrc/u8x8_d_ssd1305.c ****       else
 373:..\..\..\u8g2\u8g2\csrc/u8x8_d_ssd1305.c ****       {
 374:..\..\..\u8g2\u8g2\csrc/u8x8_d_ssd1305.c **** 	u8x8_cad_SendSequence(u8x8, u8x8_d_ssd1305_128x32_flip1_seq);
 375:..\..\..\u8g2\u8g2\csrc/u8x8_d_ssd1305.c **** 	u8x8->x_offset = u8x8->display_info->flipmode_x_offset;
 376:..\..\..\u8g2\u8g2\csrc/u8x8_d_ssd1305.c ****       }
 377:..\..\..\u8g2\u8g2\csrc/u8x8_d_ssd1305.c ****       break;
 378:..\..\..\u8g2\u8g2\csrc/u8x8_d_ssd1305.c ****     case U8X8_MSG_DISPLAY_INIT:
 379:..\..\..\u8g2\u8g2\csrc/u8x8_d_ssd1305.c ****       u8x8_d_helper_display_init(u8x8);
 380:..\..\..\u8g2\u8g2\csrc/u8x8_d_ssd1305.c ****       u8x8_cad_SendSequence(u8x8, u8x8_d_ssd1305_128x64_adafruit_init_seq);
 381:..\..\..\u8g2\u8g2\csrc/u8x8_d_ssd1305.c ****       break;
 382:..\..\..\u8g2\u8g2\csrc/u8x8_d_ssd1305.c ****     case U8X8_MSG_DISPLAY_SETUP_MEMORY:
 383:..\..\..\u8g2\u8g2\csrc/u8x8_d_ssd1305.c ****       u8x8_d_helper_display_setup_memory(u8x8, &u8x8_ssd1305_128x64_adafruit_display_info);
 387              		.loc 1 383 0
 388 001a 0F49     		ldr	r1, .L46
 389 001c 2046     		mov	r0, r4
ARM GAS  C:\Users\jesse\AppData\Local\Temp\ccZfcrn9.s 			page 15


 390 001e FFF7FEFF 		bl	u8x8_d_helper_display_setup_memory
 391              	.LVL44:
 392 0022 17E0     		b	.L44
 393              	.L41:
 367:..\..\..\u8g2\u8g2\csrc/u8x8_d_ssd1305.c ****       {
 394              		.loc 1 367 0
 395 0024 36B9     		cbnz	r6, .L43
 369:..\..\..\u8g2\u8g2\csrc/u8x8_d_ssd1305.c **** 	u8x8->x_offset = u8x8->display_info->default_x_offset;
 396              		.loc 1 369 0
 397 0026 0D49     		ldr	r1, .L46+4
 398 0028 2046     		mov	r0, r4
 399 002a FFF7FEFF 		bl	u8x8_cad_SendSequence
 400              	.LVL45:
 370:..\..\..\u8g2\u8g2\csrc/u8x8_d_ssd1305.c ****       }
 401              		.loc 1 370 0
 402 002e 2368     		ldr	r3, [r4]
 403 0030 9B7C     		ldrb	r3, [r3, #18]	@ zero_extendqisi2
 404 0032 05E0     		b	.L45
 405              	.L43:
 374:..\..\..\u8g2\u8g2\csrc/u8x8_d_ssd1305.c **** 	u8x8->x_offset = u8x8->display_info->flipmode_x_offset;
 406              		.loc 1 374 0
 407 0034 0A49     		ldr	r1, .L46+8
 408 0036 2046     		mov	r0, r4
 409 0038 FFF7FEFF 		bl	u8x8_cad_SendSequence
 410              	.LVL46:
 375:..\..\..\u8g2\u8g2\csrc/u8x8_d_ssd1305.c ****       }
 411              		.loc 1 375 0
 412 003c 2368     		ldr	r3, [r4]
 413 003e DB7C     		ldrb	r3, [r3, #19]	@ zero_extendqisi2
 414              	.L45:
 415 0040 84F82230 		strb	r3, [r4, #34]
 416 0044 06E0     		b	.L44
 417              	.L40:
 379:..\..\..\u8g2\u8g2\csrc/u8x8_d_ssd1305.c ****       u8x8_cad_SendSequence(u8x8, u8x8_d_ssd1305_128x64_adafruit_init_seq);
 418              		.loc 1 379 0
 419 0046 2046     		mov	r0, r4
 420 0048 FFF7FEFF 		bl	u8x8_d_helper_display_init
 421              	.LVL47:
 380:..\..\..\u8g2\u8g2\csrc/u8x8_d_ssd1305.c ****       break;
 422              		.loc 1 380 0
 423 004c 0549     		ldr	r1, .L46+12
 424 004e 2046     		mov	r0, r4
 425 0050 FFF7FEFF 		bl	u8x8_cad_SendSequence
 426              	.LVL48:
 427              	.L44:
 362:..\..\..\u8g2\u8g2\csrc/u8x8_d_ssd1305.c ****   
 428              		.loc 1 362 0
 429 0054 0120     		movs	r0, #1
 430              	.L39:
 384:..\..\..\u8g2\u8g2\csrc/u8x8_d_ssd1305.c ****       break;
 385:..\..\..\u8g2\u8g2\csrc/u8x8_d_ssd1305.c ****     default:
 386:..\..\..\u8g2\u8g2\csrc/u8x8_d_ssd1305.c ****       return 0;
 387:..\..\..\u8g2\u8g2\csrc/u8x8_d_ssd1305.c ****   }
 388:..\..\..\u8g2\u8g2\csrc/u8x8_d_ssd1305.c ****   return 1;
 389:..\..\..\u8g2\u8g2\csrc/u8x8_d_ssd1305.c **** }
 431              		.loc 1 389 0
 432 0056 70BD     		pop	{r4, r5, r6, pc}
ARM GAS  C:\Users\jesse\AppData\Local\Temp\ccZfcrn9.s 			page 16


 433              	.LVL49:
 434              	.L47:
 435              		.align	2
 436              	.L46:
 437 0058 BC000000 		.word	.LANCHOR0+188
 438 005c 0A000000 		.word	.LANCHOR0+10
 439 0060 15000000 		.word	.LANCHOR0+21
 440 0064 84000000 		.word	.LANCHOR0+132
 441              		.cfi_endproc
 442              	.LFE3:
 443              		.size	u8x8_d_ssd1305_128x64_adafruit, .-u8x8_d_ssd1305_128x64_adafruit
 444              		.section	.text.u8x8_d_ssd1305_128x64_raystar,"ax",%progbits
 445              		.align	1
 446              		.global	u8x8_d_ssd1305_128x64_raystar
 447              		.thumb
 448              		.thumb_func
 449              		.type	u8x8_d_ssd1305_128x64_raystar, %function
 450              	u8x8_d_ssd1305_128x64_raystar:
 451              	.LFB4:
 390:..\..\..\u8g2\u8g2\csrc/u8x8_d_ssd1305.c **** 
 391:..\..\..\u8g2\u8g2\csrc/u8x8_d_ssd1305.c **** 
 392:..\..\..\u8g2\u8g2\csrc/u8x8_d_ssd1305.c **** /*================================================*/
 393:..\..\..\u8g2\u8g2\csrc/u8x8_d_ssd1305.c **** /* Raystar RET012864 OLED, issue https://github.com/olikraus/u8g2/issues/1111 */
 394:..\..\..\u8g2\u8g2\csrc/u8x8_d_ssd1305.c **** 
 395:..\..\..\u8g2\u8g2\csrc/u8x8_d_ssd1305.c **** static const u8x8_display_info_t u8x8_ssd1305_128x64_raystar_display_info =
 396:..\..\..\u8g2\u8g2\csrc/u8x8_d_ssd1305.c **** {
 397:..\..\..\u8g2\u8g2\csrc/u8x8_d_ssd1305.c ****   /* chip_enable_level = */ 0,
 398:..\..\..\u8g2\u8g2\csrc/u8x8_d_ssd1305.c ****   /* chip_disable_level = */ 1,
 399:..\..\..\u8g2\u8g2\csrc/u8x8_d_ssd1305.c ****   
 400:..\..\..\u8g2\u8g2\csrc/u8x8_d_ssd1305.c ****   /* post_chip_enable_wait_ns = */ 20,
 401:..\..\..\u8g2\u8g2\csrc/u8x8_d_ssd1305.c ****   /* pre_chip_disable_wait_ns = */ 10,
 402:..\..\..\u8g2\u8g2\csrc/u8x8_d_ssd1305.c ****   /* reset_pulse_width_ms = */ 100, 	/* SSD1306: 3 us */
 403:..\..\..\u8g2\u8g2\csrc/u8x8_d_ssd1305.c ****   /* post_reset_wait_ms = */ 100, /* far east OLEDs need much longer setup time */
 404:..\..\..\u8g2\u8g2\csrc/u8x8_d_ssd1305.c ****   /* sda_setup_time_ns = */ 50,		/* SSD1306: 15ns, but cycle time is 100ns, so use 100/2 */
 405:..\..\..\u8g2\u8g2\csrc/u8x8_d_ssd1305.c ****   /* sck_pulse_width_ns = */ 50,	/* SSD1306: 20ns, but cycle time is 100ns, so use 100/2, AVR: belo
 406:..\..\..\u8g2\u8g2\csrc/u8x8_d_ssd1305.c ****   /* sck_clock_hz = */ 4000000UL,	/* since Arduino 1.6.0, the SPI bus speed in Hz. Should be  10000
 407:..\..\..\u8g2\u8g2\csrc/u8x8_d_ssd1305.c ****   /* spi_mode = */ 0,		/* active high, rising edge */
 408:..\..\..\u8g2\u8g2\csrc/u8x8_d_ssd1305.c ****   /* i2c_bus_clock_100kHz = */ 4,
 409:..\..\..\u8g2\u8g2\csrc/u8x8_d_ssd1305.c ****   /* data_setup_time_ns = */ 40,
 410:..\..\..\u8g2\u8g2\csrc/u8x8_d_ssd1305.c ****   /* write_pulse_width_ns = */ 150,	/* SSD1306: cycle time is 300ns, so use 300/2 = 150 */
 411:..\..\..\u8g2\u8g2\csrc/u8x8_d_ssd1305.c ****   /* tile_width = */ 16,
 412:..\..\..\u8g2\u8g2\csrc/u8x8_d_ssd1305.c ****   /* tile_hight = */ 8,
 413:..\..\..\u8g2\u8g2\csrc/u8x8_d_ssd1305.c ****   /* default_x_offset = */ 4,
 414:..\..\..\u8g2\u8g2\csrc/u8x8_d_ssd1305.c ****   /* flipmode_x_offset = */ 0,
 415:..\..\..\u8g2\u8g2\csrc/u8x8_d_ssd1305.c ****   /* pixel_width = */ 128,
 416:..\..\..\u8g2\u8g2\csrc/u8x8_d_ssd1305.c ****   /* pixel_height = */ 64
 417:..\..\..\u8g2\u8g2\csrc/u8x8_d_ssd1305.c **** };
 418:..\..\..\u8g2\u8g2\csrc/u8x8_d_ssd1305.c **** 
 419:..\..\..\u8g2\u8g2\csrc/u8x8_d_ssd1305.c **** uint8_t u8x8_d_ssd1305_128x64_raystar(u8x8_t *u8x8, uint8_t msg, uint8_t arg_int, void *arg_ptr)
 420:..\..\..\u8g2\u8g2\csrc/u8x8_d_ssd1305.c **** {
 452              		.loc 1 420 0
 453              		.cfi_startproc
 454              		@ args = 0, pretend = 0, frame = 0
 455              		@ frame_needed = 0, uses_anonymous_args = 0
 456              	.LVL50:
 457 0000 70B5     		push	{r4, r5, r6, lr}
 458              		.cfi_def_cfa_offset 16
ARM GAS  C:\Users\jesse\AppData\Local\Temp\ccZfcrn9.s 			page 17


 459              		.cfi_offset 4, -16
 460              		.cfi_offset 5, -12
 461              		.cfi_offset 6, -8
 462              		.cfi_offset 14, -4
 463              		.loc 1 420 0
 464 0002 0446     		mov	r4, r0
 465 0004 0D46     		mov	r5, r1
 466 0006 1646     		mov	r6, r2
 421:..\..\..\u8g2\u8g2\csrc/u8x8_d_ssd1305.c ****     
 422:..\..\..\u8g2\u8g2\csrc/u8x8_d_ssd1305.c ****   if ( u8x8_d_ssd1305_generic(u8x8, msg, arg_int, arg_ptr) != 0 )
 467              		.loc 1 422 0
 468 0008 FFF7FEFF 		bl	u8x8_d_ssd1305_generic
 469              	.LVL51:
 470 000c 10BB     		cbnz	r0, .L54
 423:..\..\..\u8g2\u8g2\csrc/u8x8_d_ssd1305.c ****     return 1;
 424:..\..\..\u8g2\u8g2\csrc/u8x8_d_ssd1305.c ****   
 425:..\..\..\u8g2\u8g2\csrc/u8x8_d_ssd1305.c ****   switch(msg)
 471              		.loc 1 425 0
 472 000e 0A2D     		cmp	r5, #10
 473 0010 19D0     		beq	.L50
 474 0012 0D2D     		cmp	r5, #13
 475 0014 06D0     		beq	.L51
 476 0016 092D     		cmp	r5, #9
 477 0018 1DD1     		bne	.L49
 426:..\..\..\u8g2\u8g2\csrc/u8x8_d_ssd1305.c ****   {
 427:..\..\..\u8g2\u8g2\csrc/u8x8_d_ssd1305.c ****     case U8X8_MSG_DISPLAY_SET_FLIP_MODE:
 428:..\..\..\u8g2\u8g2\csrc/u8x8_d_ssd1305.c ****       if ( arg_int == 0 )
 429:..\..\..\u8g2\u8g2\csrc/u8x8_d_ssd1305.c ****       {
 430:..\..\..\u8g2\u8g2\csrc/u8x8_d_ssd1305.c **** 	u8x8_cad_SendSequence(u8x8, u8x8_d_ssd1305_128x32_flip0_seq);
 431:..\..\..\u8g2\u8g2\csrc/u8x8_d_ssd1305.c **** 	u8x8->x_offset = u8x8->display_info->default_x_offset;
 432:..\..\..\u8g2\u8g2\csrc/u8x8_d_ssd1305.c ****       }
 433:..\..\..\u8g2\u8g2\csrc/u8x8_d_ssd1305.c ****       else
 434:..\..\..\u8g2\u8g2\csrc/u8x8_d_ssd1305.c ****       {
 435:..\..\..\u8g2\u8g2\csrc/u8x8_d_ssd1305.c **** 	u8x8_cad_SendSequence(u8x8, u8x8_d_ssd1305_128x32_flip1_seq);
 436:..\..\..\u8g2\u8g2\csrc/u8x8_d_ssd1305.c **** 	u8x8->x_offset = u8x8->display_info->flipmode_x_offset;
 437:..\..\..\u8g2\u8g2\csrc/u8x8_d_ssd1305.c ****       }
 438:..\..\..\u8g2\u8g2\csrc/u8x8_d_ssd1305.c ****       break;
 439:..\..\..\u8g2\u8g2\csrc/u8x8_d_ssd1305.c ****     case U8X8_MSG_DISPLAY_INIT:
 440:..\..\..\u8g2\u8g2\csrc/u8x8_d_ssd1305.c ****       u8x8_d_helper_display_init(u8x8);
 441:..\..\..\u8g2\u8g2\csrc/u8x8_d_ssd1305.c ****       u8x8_cad_SendSequence(u8x8, u8x8_d_ssd1305_128x64_adafruit_init_seq);
 442:..\..\..\u8g2\u8g2\csrc/u8x8_d_ssd1305.c ****       break;
 443:..\..\..\u8g2\u8g2\csrc/u8x8_d_ssd1305.c ****     case U8X8_MSG_DISPLAY_SETUP_MEMORY:
 444:..\..\..\u8g2\u8g2\csrc/u8x8_d_ssd1305.c ****       u8x8_d_helper_display_setup_memory(u8x8, &u8x8_ssd1305_128x64_raystar_display_info);
 478              		.loc 1 444 0
 479 001a 0F49     		ldr	r1, .L56
 480 001c 2046     		mov	r0, r4
 481 001e FFF7FEFF 		bl	u8x8_d_helper_display_setup_memory
 482              	.LVL52:
 483 0022 17E0     		b	.L54
 484              	.L51:
 428:..\..\..\u8g2\u8g2\csrc/u8x8_d_ssd1305.c ****       {
 485              		.loc 1 428 0
 486 0024 36B9     		cbnz	r6, .L53
 430:..\..\..\u8g2\u8g2\csrc/u8x8_d_ssd1305.c **** 	u8x8->x_offset = u8x8->display_info->default_x_offset;
 487              		.loc 1 430 0
 488 0026 0D49     		ldr	r1, .L56+4
 489 0028 2046     		mov	r0, r4
ARM GAS  C:\Users\jesse\AppData\Local\Temp\ccZfcrn9.s 			page 18


 490 002a FFF7FEFF 		bl	u8x8_cad_SendSequence
 491              	.LVL53:
 431:..\..\..\u8g2\u8g2\csrc/u8x8_d_ssd1305.c ****       }
 492              		.loc 1 431 0
 493 002e 2368     		ldr	r3, [r4]
 494 0030 9B7C     		ldrb	r3, [r3, #18]	@ zero_extendqisi2
 495 0032 05E0     		b	.L55
 496              	.L53:
 435:..\..\..\u8g2\u8g2\csrc/u8x8_d_ssd1305.c **** 	u8x8->x_offset = u8x8->display_info->flipmode_x_offset;
 497              		.loc 1 435 0
 498 0034 0A49     		ldr	r1, .L56+8
 499 0036 2046     		mov	r0, r4
 500 0038 FFF7FEFF 		bl	u8x8_cad_SendSequence
 501              	.LVL54:
 436:..\..\..\u8g2\u8g2\csrc/u8x8_d_ssd1305.c ****       }
 502              		.loc 1 436 0
 503 003c 2368     		ldr	r3, [r4]
 504 003e DB7C     		ldrb	r3, [r3, #19]	@ zero_extendqisi2
 505              	.L55:
 506 0040 84F82230 		strb	r3, [r4, #34]
 507 0044 06E0     		b	.L54
 508              	.L50:
 440:..\..\..\u8g2\u8g2\csrc/u8x8_d_ssd1305.c ****       u8x8_cad_SendSequence(u8x8, u8x8_d_ssd1305_128x64_adafruit_init_seq);
 509              		.loc 1 440 0
 510 0046 2046     		mov	r0, r4
 511 0048 FFF7FEFF 		bl	u8x8_d_helper_display_init
 512              	.LVL55:
 441:..\..\..\u8g2\u8g2\csrc/u8x8_d_ssd1305.c ****       break;
 513              		.loc 1 441 0
 514 004c 0549     		ldr	r1, .L56+12
 515 004e 2046     		mov	r0, r4
 516 0050 FFF7FEFF 		bl	u8x8_cad_SendSequence
 517              	.LVL56:
 518              	.L54:
 423:..\..\..\u8g2\u8g2\csrc/u8x8_d_ssd1305.c ****   
 519              		.loc 1 423 0
 520 0054 0120     		movs	r0, #1
 521              	.L49:
 445:..\..\..\u8g2\u8g2\csrc/u8x8_d_ssd1305.c ****       break;
 446:..\..\..\u8g2\u8g2\csrc/u8x8_d_ssd1305.c ****     default:
 447:..\..\..\u8g2\u8g2\csrc/u8x8_d_ssd1305.c ****       return 0;
 448:..\..\..\u8g2\u8g2\csrc/u8x8_d_ssd1305.c ****   }
 449:..\..\..\u8g2\u8g2\csrc/u8x8_d_ssd1305.c ****   return 1;
 450:..\..\..\u8g2\u8g2\csrc/u8x8_d_ssd1305.c **** }
 522              		.loc 1 450 0
 523 0056 70BD     		pop	{r4, r5, r6, pc}
 524              	.LVL57:
 525              	.L57:
 526              		.align	2
 527              	.L56:
 528 0058 D4000000 		.word	.LANCHOR0+212
 529 005c 0A000000 		.word	.LANCHOR0+10
 530 0060 15000000 		.word	.LANCHOR0+21
 531 0064 84000000 		.word	.LANCHOR0+132
 532              		.cfi_endproc
 533              	.LFE4:
 534              		.size	u8x8_d_ssd1305_128x64_raystar, .-u8x8_d_ssd1305_128x64_raystar
ARM GAS  C:\Users\jesse\AppData\Local\Temp\ccZfcrn9.s 			page 19


 535              		.section	.rodata
 536              		.align	2
 537              		.set	.LANCHOR0,. + 0
 538              		.type	u8x8_d_ssd1305_powersave0_seq, %object
 539              		.size	u8x8_d_ssd1305_powersave0_seq, 5
 540              	u8x8_d_ssd1305_powersave0_seq:
 541 0000 18       		.byte	24
 542 0001 15       		.byte	21
 543 0002 AF       		.byte	-81
 544 0003 19       		.byte	25
 545 0004 FF       		.byte	-1
 546              		.type	u8x8_d_ssd1305_powersave1_seq, %object
 547              		.size	u8x8_d_ssd1305_powersave1_seq, 5
 548              	u8x8_d_ssd1305_powersave1_seq:
 549 0005 18       		.byte	24
 550 0006 15       		.byte	21
 551 0007 AE       		.byte	-82
 552 0008 19       		.byte	25
 553 0009 FF       		.byte	-1
 554              		.type	u8x8_d_ssd1305_128x32_flip0_seq, %object
 555              		.size	u8x8_d_ssd1305_128x32_flip0_seq, 11
 556              	u8x8_d_ssd1305_128x32_flip0_seq:
 557 000a 18       		.byte	24
 558 000b 15       		.byte	21
 559 000c D3       		.byte	-45
 560 000d 16       		.byte	22
 561 000e 20       		.byte	32
 562 000f 15       		.byte	21
 563 0010 A1       		.byte	-95
 564 0011 15       		.byte	21
 565 0012 C8       		.byte	-56
 566 0013 19       		.byte	25
 567 0014 FF       		.byte	-1
 568              		.type	u8x8_d_ssd1305_128x32_flip1_seq, %object
 569              		.size	u8x8_d_ssd1305_128x32_flip1_seq, 11
 570              	u8x8_d_ssd1305_128x32_flip1_seq:
 571 0015 18       		.byte	24
 572 0016 15       		.byte	21
 573 0017 D3       		.byte	-45
 574 0018 16       		.byte	22
 575 0019 00       		.byte	0
 576 001a 15       		.byte	21
 577 001b A0       		.byte	-96
 578 001c 15       		.byte	21
 579 001d C0       		.byte	-64
 580 001e 19       		.byte	25
 581 001f FF       		.byte	-1
 582              		.type	u8x8_d_ssd1305_128x32_noname_init_seq, %object
 583              		.size	u8x8_d_ssd1305_128x32_noname_init_seq, 49
 584              	u8x8_d_ssd1305_128x32_noname_init_seq:
 585 0020 18       		.byte	24
 586 0021 15       		.byte	21
 587 0022 AE       		.byte	-82
 588 0023 15       		.byte	21
 589 0024 D5       		.byte	-43
 590 0025 16       		.byte	22
 591 0026 80       		.byte	-128
ARM GAS  C:\Users\jesse\AppData\Local\Temp\ccZfcrn9.s 			page 20


 592 0027 15       		.byte	21
 593 0028 A8       		.byte	-88
 594 0029 16       		.byte	22
 595 002a 3F       		.byte	63
 596 002b 15       		.byte	21
 597 002c D3       		.byte	-45
 598 002d 16       		.byte	22
 599 002e 20       		.byte	32
 600 002f 15       		.byte	21
 601 0030 40       		.byte	64
 602 0031 15       		.byte	21
 603 0032 20       		.byte	32
 604 0033 16       		.byte	22
 605 0034 00       		.byte	0
 606 0035 15       		.byte	21
 607 0036 A1       		.byte	-95
 608 0037 15       		.byte	21
 609 0038 C8       		.byte	-56
 610 0039 15       		.byte	21
 611 003a DA       		.byte	-38
 612 003b 16       		.byte	22
 613 003c 12       		.byte	18
 614 003d 15       		.byte	21
 615 003e 81       		.byte	-127
 616 003f 16       		.byte	22
 617 0040 CF       		.byte	-49
 618 0041 15       		.byte	21
 619 0042 D9       		.byte	-39
 620 0043 16       		.byte	22
 621 0044 F1       		.byte	-15
 622 0045 15       		.byte	21
 623 0046 DB       		.byte	-37
 624 0047 16       		.byte	22
 625 0048 40       		.byte	64
 626 0049 15       		.byte	21
 627 004a 2E       		.byte	46
 628 004b 15       		.byte	21
 629 004c A4       		.byte	-92
 630 004d 15       		.byte	21
 631 004e A6       		.byte	-90
 632 004f 19       		.byte	25
 633 0050 FF       		.byte	-1
 634 0051 000000   		.space	3
 635              		.type	u8x8_ssd1305_128x32_noname_display_info, %object
 636              		.size	u8x8_ssd1305_128x32_noname_display_info, 24
 637              	u8x8_ssd1305_128x32_noname_display_info:
 638 0054 00       		.byte	0
 639 0055 01       		.byte	1
 640 0056 14       		.byte	20
 641 0057 0A       		.byte	10
 642 0058 64       		.byte	100
 643 0059 64       		.byte	100
 644 005a 32       		.byte	50
 645 005b 32       		.byte	50
 646 005c 00093D00 		.word	4000000
 647 0060 00       		.byte	0
 648 0061 04       		.byte	4
ARM GAS  C:\Users\jesse\AppData\Local\Temp\ccZfcrn9.s 			page 21


 649 0062 28       		.byte	40
 650 0063 96       		.byte	-106
 651 0064 10       		.byte	16
 652 0065 04       		.byte	4
 653 0066 02       		.byte	2
 654 0067 02       		.byte	2
 655 0068 8000     		.short	128
 656 006a 2000     		.short	32
 657              		.type	u8x8_ssd1305_128x32_adafruit_display_info, %object
 658              		.size	u8x8_ssd1305_128x32_adafruit_display_info, 24
 659              	u8x8_ssd1305_128x32_adafruit_display_info:
 660 006c 00       		.byte	0
 661 006d 01       		.byte	1
 662 006e 14       		.byte	20
 663 006f 0A       		.byte	10
 664 0070 64       		.byte	100
 665 0071 64       		.byte	100
 666 0072 32       		.byte	50
 667 0073 32       		.byte	50
 668 0074 00093D00 		.word	4000000
 669 0078 00       		.byte	0
 670 0079 04       		.byte	4
 671 007a 28       		.byte	40
 672 007b 96       		.byte	-106
 673 007c 10       		.byte	16
 674 007d 04       		.byte	4
 675 007e 04       		.byte	4
 676 007f 00       		.byte	0
 677 0080 8000     		.short	128
 678 0082 2000     		.short	32
 679              		.type	u8x8_d_ssd1305_128x64_adafruit_init_seq, %object
 680              		.size	u8x8_d_ssd1305_128x64_adafruit_init_seq, 53
 681              	u8x8_d_ssd1305_128x64_adafruit_init_seq:
 682 0084 18       		.byte	24
 683 0085 15       		.byte	21
 684 0086 AE       		.byte	-82
 685 0087 15       		.byte	21
 686 0088 D5       		.byte	-43
 687 0089 16       		.byte	22
 688 008a F0       		.byte	-16
 689 008b 15       		.byte	21
 690 008c A8       		.byte	-88
 691 008d 16       		.byte	22
 692 008e 3F       		.byte	63
 693 008f 15       		.byte	21
 694 0090 D3       		.byte	-45
 695 0091 16       		.byte	22
 696 0092 40       		.byte	64
 697 0093 15       		.byte	21
 698 0094 40       		.byte	64
 699 0095 15       		.byte	21
 700 0096 20       		.byte	32
 701 0097 16       		.byte	22
 702 0098 00       		.byte	0
 703 0099 15       		.byte	21
 704 009a A1       		.byte	-95
 705 009b 15       		.byte	21
ARM GAS  C:\Users\jesse\AppData\Local\Temp\ccZfcrn9.s 			page 22


 706 009c C8       		.byte	-56
 707 009d 15       		.byte	21
 708 009e DA       		.byte	-38
 709 009f 16       		.byte	22
 710 00a0 12       		.byte	18
 711 00a1 15       		.byte	21
 712 00a2 81       		.byte	-127
 713 00a3 16       		.byte	22
 714 00a4 32       		.byte	50
 715 00a5 15       		.byte	21
 716 00a6 82       		.byte	-126
 717 00a7 16       		.byte	22
 718 00a8 80       		.byte	-128
 719 00a9 15       		.byte	21
 720 00aa D9       		.byte	-39
 721 00ab 16       		.byte	22
 722 00ac F1       		.byte	-15
 723 00ad 15       		.byte	21
 724 00ae DB       		.byte	-37
 725 00af 16       		.byte	22
 726 00b0 40       		.byte	64
 727 00b1 15       		.byte	21
 728 00b2 2E       		.byte	46
 729 00b3 15       		.byte	21
 730 00b4 A4       		.byte	-92
 731 00b5 15       		.byte	21
 732 00b6 A6       		.byte	-90
 733 00b7 19       		.byte	25
 734 00b8 FF       		.byte	-1
 735 00b9 000000   		.space	3
 736              		.type	u8x8_ssd1305_128x64_adafruit_display_info, %object
 737              		.size	u8x8_ssd1305_128x64_adafruit_display_info, 24
 738              	u8x8_ssd1305_128x64_adafruit_display_info:
 739 00bc 00       		.byte	0
 740 00bd 01       		.byte	1
 741 00be 14       		.byte	20
 742 00bf 0A       		.byte	10
 743 00c0 64       		.byte	100
 744 00c1 64       		.byte	100
 745 00c2 32       		.byte	50
 746 00c3 32       		.byte	50
 747 00c4 00093D00 		.word	4000000
 748 00c8 00       		.byte	0
 749 00c9 04       		.byte	4
 750 00ca 28       		.byte	40
 751 00cb 96       		.byte	-106
 752 00cc 10       		.byte	16
 753 00cd 08       		.byte	8
 754 00ce 02       		.byte	2
 755 00cf 02       		.byte	2
 756 00d0 8000     		.short	128
 757 00d2 4000     		.short	64
 758              		.type	u8x8_ssd1305_128x64_raystar_display_info, %object
 759              		.size	u8x8_ssd1305_128x64_raystar_display_info, 24
 760              	u8x8_ssd1305_128x64_raystar_display_info:
 761 00d4 00       		.byte	0
 762 00d5 01       		.byte	1
ARM GAS  C:\Users\jesse\AppData\Local\Temp\ccZfcrn9.s 			page 23


 763 00d6 14       		.byte	20
 764 00d7 0A       		.byte	10
 765 00d8 64       		.byte	100
 766 00d9 64       		.byte	100
 767 00da 32       		.byte	50
 768 00db 32       		.byte	50
 769 00dc 00093D00 		.word	4000000
 770 00e0 00       		.byte	0
 771 00e1 04       		.byte	4
 772 00e2 28       		.byte	40
 773 00e3 96       		.byte	-106
 774 00e4 10       		.byte	16
 775 00e5 08       		.byte	8
 776 00e6 04       		.byte	4
 777 00e7 00       		.byte	0
 778 00e8 8000     		.short	128
 779 00ea 4000     		.short	64
 780              		.text
 781              	.Letext0:
 782              		.file 2 "c:\\program files (x86)\\cypress\\psoc creator\\4.4\\psoc creator\\import\\gnu\\arm\\5.4.
 783              		.file 3 "c:\\program files (x86)\\cypress\\psoc creator\\4.4\\psoc creator\\import\\gnu\\arm\\5.4.
 784              		.file 4 "..\\..\\..\\u8g2\\u8g2\\csrc\\u8x8.h"