ARM GAS  C:\Users\jesse\AppData\Local\Temp\ccf2Q5M4.s 			page 1


   1              		.syntax unified
   2              		.cpu cortex-m3
   3              		.fpu softvfp
   4              		.eabi_attribute 20, 1
   5              		.eabi_attribute 21, 1
   6              		.eabi_attribute 23, 3
   7              		.eabi_attribute 24, 1
   8              		.eabi_attribute 25, 1
   9              		.eabi_attribute 26, 1
  10              		.eabi_attribute 30, 4
  11              		.eabi_attribute 34, 1
  12              		.eabi_attribute 18, 4
  13              		.thumb
  14              		.syntax unified
  15              		.file	"u8x8_d_sh1122.c"
  16              		.text
  17              	.Ltext0:
  18              		.cfi_sections	.debug_frame
  19              		.section	.text.u8x8_d_sh1122_common,"ax",%progbits
  20              		.align	1
  21              		.global	u8x8_d_sh1122_common
  22              		.thumb
  23              		.thumb_func
  24              		.type	u8x8_d_sh1122_common, %function
  25              	u8x8_d_sh1122_common:
  26              	.LFB1:
  27              		.file 1 "..\\..\\..\\u8g2\\u8g2\\csrc\\u8x8_d_sh1122.c"
   1:..\..\..\u8g2\u8g2\csrc/u8x8_d_sh1122.c **** /*
   2:..\..\..\u8g2\u8g2\csrc/u8x8_d_sh1122.c **** 
   3:..\..\..\u8g2\u8g2\csrc/u8x8_d_sh1122.c ****   u8x8_d_sh1122.c
   4:..\..\..\u8g2\u8g2\csrc/u8x8_d_sh1122.c ****   
   5:..\..\..\u8g2\u8g2\csrc/u8x8_d_sh1122.c ****   Universal 8bit Graphics Library (https://github.com/olikraus/u8g2/)
   6:..\..\..\u8g2\u8g2\csrc/u8x8_d_sh1122.c **** 
   7:..\..\..\u8g2\u8g2\csrc/u8x8_d_sh1122.c ****   Copyright (c) 2016, olikraus@gmail.com
   8:..\..\..\u8g2\u8g2\csrc/u8x8_d_sh1122.c ****   All rights reserved.
   9:..\..\..\u8g2\u8g2\csrc/u8x8_d_sh1122.c **** 
  10:..\..\..\u8g2\u8g2\csrc/u8x8_d_sh1122.c ****   Redistribution and use in source and binary forms, with or without modification, 
  11:..\..\..\u8g2\u8g2\csrc/u8x8_d_sh1122.c ****   are permitted provided that the following conditions are met:
  12:..\..\..\u8g2\u8g2\csrc/u8x8_d_sh1122.c **** 
  13:..\..\..\u8g2\u8g2\csrc/u8x8_d_sh1122.c ****   * Redistributions of source code must retain the above copyright notice, this list 
  14:..\..\..\u8g2\u8g2\csrc/u8x8_d_sh1122.c ****     of conditions and the following disclaimer.
  15:..\..\..\u8g2\u8g2\csrc/u8x8_d_sh1122.c ****     
  16:..\..\..\u8g2\u8g2\csrc/u8x8_d_sh1122.c ****   * Redistributions in binary form must reproduce the above copyright notice, this 
  17:..\..\..\u8g2\u8g2\csrc/u8x8_d_sh1122.c ****     list of conditions and the following disclaimer in the documentation and/or other 
  18:..\..\..\u8g2\u8g2\csrc/u8x8_d_sh1122.c ****     materials provided with the distribution.
  19:..\..\..\u8g2\u8g2\csrc/u8x8_d_sh1122.c **** 
  20:..\..\..\u8g2\u8g2\csrc/u8x8_d_sh1122.c ****   THIS SOFTWARE IS PROVIDED BY THE COPYRIGHT HOLDERS AND 
  21:..\..\..\u8g2\u8g2\csrc/u8x8_d_sh1122.c ****   CONTRIBUTORS "AS IS" AND ANY EXPRESS OR IMPLIED WARRANTIES, 
  22:..\..\..\u8g2\u8g2\csrc/u8x8_d_sh1122.c ****   INCLUDING, BUT NOT LIMITED TO, THE IMPLIED WARRANTIES OF 
  23:..\..\..\u8g2\u8g2\csrc/u8x8_d_sh1122.c ****   MERCHANTABILITY AND FITNESS FOR A PARTICULAR PURPOSE ARE 
  24:..\..\..\u8g2\u8g2\csrc/u8x8_d_sh1122.c ****   DISCLAIMED. IN NO EVENT SHALL THE COPYRIGHT HOLDER OR 
  25:..\..\..\u8g2\u8g2\csrc/u8x8_d_sh1122.c ****   CONTRIBUTORS BE LIABLE FOR ANY DIRECT, INDIRECT, INCIDENTAL, 
  26:..\..\..\u8g2\u8g2\csrc/u8x8_d_sh1122.c ****   SPECIAL, EXEMPLARY, OR CONSEQUENTIAL DAMAGES (INCLUDING, BUT 
  27:..\..\..\u8g2\u8g2\csrc/u8x8_d_sh1122.c ****   NOT LIMITED TO, PROCUREMENT OF SUBSTITUTE GOODS OR SERVICES; 
  28:..\..\..\u8g2\u8g2\csrc/u8x8_d_sh1122.c ****   LOSS OF USE, DATA, OR PROFITS; OR BUSINESS INTERRUPTION) HOWEVER 
  29:..\..\..\u8g2\u8g2\csrc/u8x8_d_sh1122.c ****   CAUSED AND ON ANY THEORY OF LIABILITY, WHETHER IN CONTRACT, 
  30:..\..\..\u8g2\u8g2\csrc/u8x8_d_sh1122.c ****   STRICT LIABILITY, OR TORT (INCLUDING NEGLIGENCE OR OTHERWISE) 
ARM GAS  C:\Users\jesse\AppData\Local\Temp\ccf2Q5M4.s 			page 2


  31:..\..\..\u8g2\u8g2\csrc/u8x8_d_sh1122.c ****   ARISING IN ANY WAY OUT OF THE USE OF THIS SOFTWARE, EVEN IF 
  32:..\..\..\u8g2\u8g2\csrc/u8x8_d_sh1122.c ****   ADVISED OF THE POSSIBILITY OF SUCH DAMAGE.  
  33:..\..\..\u8g2\u8g2\csrc/u8x8_d_sh1122.c **** 
  34:..\..\..\u8g2\u8g2\csrc/u8x8_d_sh1122.c **** 
  35:..\..\..\u8g2\u8g2\csrc/u8x8_d_sh1122.c ****   Copied from sh1122 mostly because of the similar RAM architecture.
  36:..\..\..\u8g2\u8g2\csrc/u8x8_d_sh1122.c ****   However: Commands are very different!
  37:..\..\..\u8g2\u8g2\csrc/u8x8_d_sh1122.c ****   
  38:..\..\..\u8g2\u8g2\csrc/u8x8_d_sh1122.c **** */
  39:..\..\..\u8g2\u8g2\csrc/u8x8_d_sh1122.c **** #include "u8x8.h"
  40:..\..\..\u8g2\u8g2\csrc/u8x8_d_sh1122.c **** 
  41:..\..\..\u8g2\u8g2\csrc/u8x8_d_sh1122.c **** 
  42:..\..\..\u8g2\u8g2\csrc/u8x8_d_sh1122.c **** 
  43:..\..\..\u8g2\u8g2\csrc/u8x8_d_sh1122.c **** 
  44:..\..\..\u8g2\u8g2\csrc/u8x8_d_sh1122.c **** static const uint8_t u8x8_d_sh1122_powersave0_seq[] = {
  45:..\..\..\u8g2\u8g2\csrc/u8x8_d_sh1122.c ****   U8X8_START_TRANSFER(),             	/* enable chip, delay is part of the transfer start */
  46:..\..\..\u8g2\u8g2\csrc/u8x8_d_sh1122.c ****   U8X8_C(0x0af),		                /* sh1122: display on */
  47:..\..\..\u8g2\u8g2\csrc/u8x8_d_sh1122.c ****   U8X8_END_TRANSFER(),             	/* disable chip */
  48:..\..\..\u8g2\u8g2\csrc/u8x8_d_sh1122.c ****   U8X8_END()             			/* end of sequence */
  49:..\..\..\u8g2\u8g2\csrc/u8x8_d_sh1122.c **** };
  50:..\..\..\u8g2\u8g2\csrc/u8x8_d_sh1122.c **** 
  51:..\..\..\u8g2\u8g2\csrc/u8x8_d_sh1122.c **** static const uint8_t u8x8_d_sh1122_powersave1_seq[] = {
  52:..\..\..\u8g2\u8g2\csrc/u8x8_d_sh1122.c ****   U8X8_START_TRANSFER(),             	/* enable chip, delay is part of the transfer start */
  53:..\..\..\u8g2\u8g2\csrc/u8x8_d_sh1122.c ****   U8X8_C(0x0ae),		                /* sh1122: display off */
  54:..\..\..\u8g2\u8g2\csrc/u8x8_d_sh1122.c ****   U8X8_END_TRANSFER(),             	/* disable chip */
  55:..\..\..\u8g2\u8g2\csrc/u8x8_d_sh1122.c ****   U8X8_END()             			/* end of sequence */
  56:..\..\..\u8g2\u8g2\csrc/u8x8_d_sh1122.c **** };
  57:..\..\..\u8g2\u8g2\csrc/u8x8_d_sh1122.c **** 
  58:..\..\..\u8g2\u8g2\csrc/u8x8_d_sh1122.c **** 
  59:..\..\..\u8g2\u8g2\csrc/u8x8_d_sh1122.c **** 
  60:..\..\..\u8g2\u8g2\csrc/u8x8_d_sh1122.c **** 
  61:..\..\..\u8g2\u8g2\csrc/u8x8_d_sh1122.c **** /*
  62:..\..\..\u8g2\u8g2\csrc/u8x8_d_sh1122.c ****   input:
  63:..\..\..\u8g2\u8g2\csrc/u8x8_d_sh1122.c ****     one tile (8 Bytes)
  64:..\..\..\u8g2\u8g2\csrc/u8x8_d_sh1122.c ****   output:
  65:..\..\..\u8g2\u8g2\csrc/u8x8_d_sh1122.c ****     Tile for SH1122 (32 Bytes)
  66:..\..\..\u8g2\u8g2\csrc/u8x8_d_sh1122.c **** */
  67:..\..\..\u8g2\u8g2\csrc/u8x8_d_sh1122.c **** 
  68:..\..\..\u8g2\u8g2\csrc/u8x8_d_sh1122.c **** /*
  69:..\..\..\u8g2\u8g2\csrc/u8x8_d_sh1122.c **** static uint8_t u8x8_sh1122_to32_dest_buf[32];
  70:..\..\..\u8g2\u8g2\csrc/u8x8_d_sh1122.c **** 
  71:..\..\..\u8g2\u8g2\csrc/u8x8_d_sh1122.c **** static uint8_t *u8x8_sh1122_8to32(U8X8_UNUSED u8x8_t *u8x8, uint8_t *ptr)
  72:..\..\..\u8g2\u8g2\csrc/u8x8_d_sh1122.c **** {
  73:..\..\..\u8g2\u8g2\csrc/u8x8_d_sh1122.c ****   uint8_t v;
  74:..\..\..\u8g2\u8g2\csrc/u8x8_d_sh1122.c ****   uint8_t a,b;
  75:..\..\..\u8g2\u8g2\csrc/u8x8_d_sh1122.c ****   uint8_t i, j;
  76:..\..\..\u8g2\u8g2\csrc/u8x8_d_sh1122.c ****   uint8_t *dest;
  77:..\..\..\u8g2\u8g2\csrc/u8x8_d_sh1122.c ****   
  78:..\..\..\u8g2\u8g2\csrc/u8x8_d_sh1122.c ****   for( j = 0; j < 4; j++ )
  79:..\..\..\u8g2\u8g2\csrc/u8x8_d_sh1122.c ****   {
  80:..\..\..\u8g2\u8g2\csrc/u8x8_d_sh1122.c ****     dest = u8x8_sh1122_to32_dest_buf;
  81:..\..\..\u8g2\u8g2\csrc/u8x8_d_sh1122.c ****     dest += j;
  82:..\..\..\u8g2\u8g2\csrc/u8x8_d_sh1122.c ****     a =*ptr;
  83:..\..\..\u8g2\u8g2\csrc/u8x8_d_sh1122.c ****     ptr++;
  84:..\..\..\u8g2\u8g2\csrc/u8x8_d_sh1122.c ****     b = *ptr;
  85:..\..\..\u8g2\u8g2\csrc/u8x8_d_sh1122.c ****     ptr++;
  86:..\..\..\u8g2\u8g2\csrc/u8x8_d_sh1122.c ****     for( i = 0; i < 8; i++ )
  87:..\..\..\u8g2\u8g2\csrc/u8x8_d_sh1122.c ****     {
ARM GAS  C:\Users\jesse\AppData\Local\Temp\ccf2Q5M4.s 			page 3


  88:..\..\..\u8g2\u8g2\csrc/u8x8_d_sh1122.c ****       v = 0;
  89:..\..\..\u8g2\u8g2\csrc/u8x8_d_sh1122.c ****       if ( a&1 ) v |= 0xf0;
  90:..\..\..\u8g2\u8g2\csrc/u8x8_d_sh1122.c ****       if ( b&1 ) v |= 0x0f;
  91:..\..\..\u8g2\u8g2\csrc/u8x8_d_sh1122.c ****       *dest = v;
  92:..\..\..\u8g2\u8g2\csrc/u8x8_d_sh1122.c ****       dest+=4;
  93:..\..\..\u8g2\u8g2\csrc/u8x8_d_sh1122.c ****       a >>= 1;
  94:..\..\..\u8g2\u8g2\csrc/u8x8_d_sh1122.c ****       b >>= 1;
  95:..\..\..\u8g2\u8g2\csrc/u8x8_d_sh1122.c ****     }
  96:..\..\..\u8g2\u8g2\csrc/u8x8_d_sh1122.c ****   }
  97:..\..\..\u8g2\u8g2\csrc/u8x8_d_sh1122.c ****   
  98:..\..\..\u8g2\u8g2\csrc/u8x8_d_sh1122.c ****   return u8x8_sh1122_to32_dest_buf;
  99:..\..\..\u8g2\u8g2\csrc/u8x8_d_sh1122.c **** }
 100:..\..\..\u8g2\u8g2\csrc/u8x8_d_sh1122.c **** */
 101:..\..\..\u8g2\u8g2\csrc/u8x8_d_sh1122.c **** 
 102:..\..\..\u8g2\u8g2\csrc/u8x8_d_sh1122.c **** 
 103:..\..\..\u8g2\u8g2\csrc/u8x8_d_sh1122.c **** static uint8_t u8x8_write_byte_to_16gr_device(u8x8_t *u8x8, uint8_t b)
 104:..\..\..\u8g2\u8g2\csrc/u8x8_d_sh1122.c **** {
 105:..\..\..\u8g2\u8g2\csrc/u8x8_d_sh1122.c ****   static uint8_t buf[4];
 106:..\..\..\u8g2\u8g2\csrc/u8x8_d_sh1122.c ****   static uint8_t map[4] = { 0, 0x00f, 0x0f0, 0x0ff };
 107:..\..\..\u8g2\u8g2\csrc/u8x8_d_sh1122.c ****   buf [3] = map[b & 3];
 108:..\..\..\u8g2\u8g2\csrc/u8x8_d_sh1122.c ****   b>>=2;
 109:..\..\..\u8g2\u8g2\csrc/u8x8_d_sh1122.c ****   buf [2] = map[b & 3];
 110:..\..\..\u8g2\u8g2\csrc/u8x8_d_sh1122.c ****   b>>=2;
 111:..\..\..\u8g2\u8g2\csrc/u8x8_d_sh1122.c ****   buf [1] = map[b & 3];
 112:..\..\..\u8g2\u8g2\csrc/u8x8_d_sh1122.c ****   b>>=2;
 113:..\..\..\u8g2\u8g2\csrc/u8x8_d_sh1122.c ****   buf [0] = map[b & 3];
 114:..\..\..\u8g2\u8g2\csrc/u8x8_d_sh1122.c ****   return u8x8_cad_SendData(u8x8, 4, buf);
 115:..\..\..\u8g2\u8g2\csrc/u8x8_d_sh1122.c **** }
 116:..\..\..\u8g2\u8g2\csrc/u8x8_d_sh1122.c **** 
 117:..\..\..\u8g2\u8g2\csrc/u8x8_d_sh1122.c **** uint8_t u8x8_d_sh1122_common(u8x8_t *u8x8, uint8_t msg, uint8_t arg_int, void *arg_ptr)
 118:..\..\..\u8g2\u8g2\csrc/u8x8_d_sh1122.c **** {
  28              		.loc 1 118 0
  29              		.cfi_startproc
  30              		@ args = 0, pretend = 0, frame = 16
  31              		@ frame_needed = 0, uses_anonymous_args = 0
  32              	.LVL0:
  33 0000 2DE9F04F 		push	{r4, r5, r6, r7, r8, r9, r10, fp, lr}
  34              		.cfi_def_cfa_offset 36
  35              		.cfi_offset 4, -36
  36              		.cfi_offset 5, -32
  37              		.cfi_offset 6, -28
  38              		.cfi_offset 7, -24
  39              		.cfi_offset 8, -20
  40              		.cfi_offset 9, -16
  41              		.cfi_offset 10, -12
  42              		.cfi_offset 11, -8
  43              		.cfi_offset 14, -4
 119:..\..\..\u8g2\u8g2\csrc/u8x8_d_sh1122.c ****   uint8_t x; 
 120:..\..\..\u8g2\u8g2\csrc/u8x8_d_sh1122.c ****   uint8_t y, c, i;
 121:..\..\..\u8g2\u8g2\csrc/u8x8_d_sh1122.c ****   uint8_t *ptr;
 122:..\..\..\u8g2\u8g2\csrc/u8x8_d_sh1122.c ****   switch(msg)
  44              		.loc 1 122 0
  45 0004 0E29     		cmp	r1, #14
 118:..\..\..\u8g2\u8g2\csrc/u8x8_d_sh1122.c ****   uint8_t x; 
  46              		.loc 1 118 0
  47 0006 85B0     		sub	sp, sp, #20
  48              		.cfi_def_cfa_offset 56
ARM GAS  C:\Users\jesse\AppData\Local\Temp\ccf2Q5M4.s 			page 4


 118:..\..\..\u8g2\u8g2\csrc/u8x8_d_sh1122.c ****   uint8_t x; 
  49              		.loc 1 118 0
  50 0008 0446     		mov	r4, r0
  51 000a 1546     		mov	r5, r2
  52 000c 1F46     		mov	r7, r3
  53              		.loc 1 122 0
  54 000e 0AD0     		beq	.L3
  55 0010 0F29     		cmp	r1, #15
  56 0012 17D0     		beq	.L4
  57 0014 0B29     		cmp	r1, #11
  58 0016 72D1     		bne	.L12
 123:..\..\..\u8g2\u8g2\csrc/u8x8_d_sh1122.c ****   {
 124:..\..\..\u8g2\u8g2\csrc/u8x8_d_sh1122.c ****     /* U8X8_MSG_DISPLAY_SETUP_MEMORY is handled by the calling function */
 125:..\..\..\u8g2\u8g2\csrc/u8x8_d_sh1122.c ****     /*
 126:..\..\..\u8g2\u8g2\csrc/u8x8_d_sh1122.c ****     case U8X8_MSG_DISPLAY_SETUP_MEMORY:
 127:..\..\..\u8g2\u8g2\csrc/u8x8_d_sh1122.c ****       break;
 128:..\..\..\u8g2\u8g2\csrc/u8x8_d_sh1122.c ****     case U8X8_MSG_DISPLAY_INIT:
 129:..\..\..\u8g2\u8g2\csrc/u8x8_d_sh1122.c ****       u8x8_d_helper_display_init(u8x8);
 130:..\..\..\u8g2\u8g2\csrc/u8x8_d_sh1122.c ****       u8x8_cad_SendSequence(u8x8, u8x8_d_sh1122_256x64_init_seq);
 131:..\..\..\u8g2\u8g2\csrc/u8x8_d_sh1122.c ****       break;
 132:..\..\..\u8g2\u8g2\csrc/u8x8_d_sh1122.c ****     */
 133:..\..\..\u8g2\u8g2\csrc/u8x8_d_sh1122.c ****     case U8X8_MSG_DISPLAY_SET_POWER_SAVE:
 134:..\..\..\u8g2\u8g2\csrc/u8x8_d_sh1122.c ****       if ( arg_int == 0 )
  59              		.loc 1 134 0
  60 0018 0AB9     		cbnz	r2, .L6
 135:..\..\..\u8g2\u8g2\csrc/u8x8_d_sh1122.c **** 	u8x8_cad_SendSequence(u8x8, u8x8_d_sh1122_powersave0_seq);
  61              		.loc 1 135 0
  62 001a 3B49     		ldr	r1, .L18
  63              	.LVL1:
  64 001c 00E0     		b	.L15
  65              	.LVL2:
  66              	.L6:
 136:..\..\..\u8g2\u8g2\csrc/u8x8_d_sh1122.c ****       else
 137:..\..\..\u8g2\u8g2\csrc/u8x8_d_sh1122.c **** 	u8x8_cad_SendSequence(u8x8, u8x8_d_sh1122_powersave1_seq);
  67              		.loc 1 137 0
  68 001e 3B49     		ldr	r1, .L18+4
  69              	.LVL3:
  70              	.L15:
  71 0020 FFF7FEFF 		bl	u8x8_cad_SendSequence
  72              	.LVL4:
  73 0024 0CE0     		b	.L13
  74              	.LVL5:
  75              	.L3:
 138:..\..\..\u8g2\u8g2\csrc/u8x8_d_sh1122.c ****       break;
 139:..\..\..\u8g2\u8g2\csrc/u8x8_d_sh1122.c **** #ifdef U8X8_WITH_SET_CONTRAST
 140:..\..\..\u8g2\u8g2\csrc/u8x8_d_sh1122.c ****     case U8X8_MSG_DISPLAY_SET_CONTRAST:
 141:..\..\..\u8g2\u8g2\csrc/u8x8_d_sh1122.c ****       u8x8_cad_StartTransfer(u8x8);
  76              		.loc 1 141 0
  77 0026 FFF7FEFF 		bl	u8x8_cad_StartTransfer
  78              	.LVL6:
 142:..\..\..\u8g2\u8g2\csrc/u8x8_d_sh1122.c ****       u8x8_cad_SendCmd(u8x8, 0x081 );
  79              		.loc 1 142 0
  80 002a 8121     		movs	r1, #129
  81 002c 2046     		mov	r0, r4
  82 002e FFF7FEFF 		bl	u8x8_cad_SendCmd
  83              	.LVL7:
 143:..\..\..\u8g2\u8g2\csrc/u8x8_d_sh1122.c ****       u8x8_cad_SendArg(u8x8, arg_int );	/* sh1122 has range from 0 to 255 */
ARM GAS  C:\Users\jesse\AppData\Local\Temp\ccf2Q5M4.s 			page 5


  84              		.loc 1 143 0
  85 0032 2946     		mov	r1, r5
  86 0034 2046     		mov	r0, r4
  87 0036 FFF7FEFF 		bl	u8x8_cad_SendArg
  88              	.LVL8:
  89              	.L14:
 144:..\..\..\u8g2\u8g2\csrc/u8x8_d_sh1122.c ****       u8x8_cad_EndTransfer(u8x8);
  90              		.loc 1 144 0
  91 003a 2046     		mov	r0, r4
  92 003c FFF7FEFF 		bl	u8x8_cad_EndTransfer
  93              	.LVL9:
  94              	.L13:
 145:..\..\..\u8g2\u8g2\csrc/u8x8_d_sh1122.c ****       break;
 146:..\..\..\u8g2\u8g2\csrc/u8x8_d_sh1122.c **** #endif
 147:..\..\..\u8g2\u8g2\csrc/u8x8_d_sh1122.c ****     case U8X8_MSG_DISPLAY_DRAW_TILE:
 148:..\..\..\u8g2\u8g2\csrc/u8x8_d_sh1122.c ****       u8x8_cad_StartTransfer(u8x8);
 149:..\..\..\u8g2\u8g2\csrc/u8x8_d_sh1122.c ****       x = ((u8x8_tile_t *)arg_ptr)->x_pos;    
 150:..\..\..\u8g2\u8g2\csrc/u8x8_d_sh1122.c ****       x *= 2;		// 4 Mar 2022: probably this needs to be 4, but this device is call with x=0 only
 151:..\..\..\u8g2\u8g2\csrc/u8x8_d_sh1122.c ****       x += u8x8->x_offset;		
 152:..\..\..\u8g2\u8g2\csrc/u8x8_d_sh1122.c ****     
 153:..\..\..\u8g2\u8g2\csrc/u8x8_d_sh1122.c ****       y = (((u8x8_tile_t *)arg_ptr)->y_pos);
 154:..\..\..\u8g2\u8g2\csrc/u8x8_d_sh1122.c ****       y *= 8;
 155:..\..\..\u8g2\u8g2\csrc/u8x8_d_sh1122.c ****           
 156:..\..\..\u8g2\u8g2\csrc/u8x8_d_sh1122.c ****       
 157:..\..\..\u8g2\u8g2\csrc/u8x8_d_sh1122.c ****       c = ((u8x8_tile_t *)arg_ptr)->cnt;	/* number of tiles */
 158:..\..\..\u8g2\u8g2\csrc/u8x8_d_sh1122.c ****       ptr = ((u8x8_tile_t *)arg_ptr)->tile_ptr;	/* data ptr to the tiles */
 159:..\..\..\u8g2\u8g2\csrc/u8x8_d_sh1122.c ****       for( i = 0; i < 8; i++ )
 160:..\..\..\u8g2\u8g2\csrc/u8x8_d_sh1122.c ****       {
 161:..\..\..\u8g2\u8g2\csrc/u8x8_d_sh1122.c **** 	u8x8_cad_SendCmd(u8x8, 0x0b0 );	/* set row address */
 162:..\..\..\u8g2\u8g2\csrc/u8x8_d_sh1122.c **** 	u8x8_cad_SendArg(u8x8, y);
 163:..\..\..\u8g2\u8g2\csrc/u8x8_d_sh1122.c **** 	u8x8_cad_SendCmd(u8x8, x & 15 );	/* lower 4 bit*/
 164:..\..\..\u8g2\u8g2\csrc/u8x8_d_sh1122.c **** 	u8x8_cad_SendCmd(u8x8, 0x010 | (x >> 4) );	/* higher 3 bit */	  
 165:..\..\..\u8g2\u8g2\csrc/u8x8_d_sh1122.c **** 	c = ((u8x8_tile_t *)arg_ptr)->cnt;	/* number of tiles */
 166:..\..\..\u8g2\u8g2\csrc/u8x8_d_sh1122.c **** 
 167:..\..\..\u8g2\u8g2\csrc/u8x8_d_sh1122.c **** 	while (  c > 0 )
 168:..\..\..\u8g2\u8g2\csrc/u8x8_d_sh1122.c **** 	{
 169:..\..\..\u8g2\u8g2\csrc/u8x8_d_sh1122.c **** 	  u8x8_write_byte_to_16gr_device(u8x8, *ptr);
 170:..\..\..\u8g2\u8g2\csrc/u8x8_d_sh1122.c **** 	  c--;
 171:..\..\..\u8g2\u8g2\csrc/u8x8_d_sh1122.c **** 	  ptr++;
 172:..\..\..\u8g2\u8g2\csrc/u8x8_d_sh1122.c **** 	}
 173:..\..\..\u8g2\u8g2\csrc/u8x8_d_sh1122.c **** 	y++;
 174:..\..\..\u8g2\u8g2\csrc/u8x8_d_sh1122.c ****       }
 175:..\..\..\u8g2\u8g2\csrc/u8x8_d_sh1122.c **** 
 176:..\..\..\u8g2\u8g2\csrc/u8x8_d_sh1122.c ****       
 177:..\..\..\u8g2\u8g2\csrc/u8x8_d_sh1122.c ****       u8x8_cad_EndTransfer(u8x8);
 178:..\..\..\u8g2\u8g2\csrc/u8x8_d_sh1122.c ****       break;
 179:..\..\..\u8g2\u8g2\csrc/u8x8_d_sh1122.c ****     default:
 180:..\..\..\u8g2\u8g2\csrc/u8x8_d_sh1122.c ****       return 0;
 181:..\..\..\u8g2\u8g2\csrc/u8x8_d_sh1122.c ****   }
 182:..\..\..\u8g2\u8g2\csrc/u8x8_d_sh1122.c ****   return 1;
  95              		.loc 1 182 0
  96 0040 0120     		movs	r0, #1
 145:..\..\..\u8g2\u8g2\csrc/u8x8_d_sh1122.c ****       break;
  97              		.loc 1 145 0
  98 0042 5DE0     		b	.L2
  99              	.LVL10:
 100              	.L4:
ARM GAS  C:\Users\jesse\AppData\Local\Temp\ccf2Q5M4.s 			page 6


 101              	.LBB6:
 102              	.LBB7:
 148:..\..\..\u8g2\u8g2\csrc/u8x8_d_sh1122.c ****       x = ((u8x8_tile_t *)arg_ptr)->x_pos;    
 103              		.loc 1 148 0
 104 0044 FFF7FEFF 		bl	u8x8_cad_StartTransfer
 105              	.LVL11:
 149:..\..\..\u8g2\u8g2\csrc/u8x8_d_sh1122.c ****       x *= 2;		// 4 Mar 2022: probably this needs to be 4, but this device is call with x=0 only
 106              		.loc 1 149 0
 107 0048 7A79     		ldrb	r2, [r7, #5]	@ zero_extendqisi2
 108              	.LVL12:
 151:..\..\..\u8g2\u8g2\csrc/u8x8_d_sh1122.c ****     
 109              		.loc 1 151 0
 110 004a 94F82230 		ldrb	r3, [r4, #34]	@ zero_extendqisi2
 158:..\..\..\u8g2\u8g2\csrc/u8x8_d_sh1122.c ****       for( i = 0; i < 8; i++ )
 111              		.loc 1 158 0
 112 004e D7F800A0 		ldr	r10, [r7]
 151:..\..\..\u8g2\u8g2\csrc/u8x8_d_sh1122.c ****     
 113              		.loc 1 151 0
 114 0052 03EB4203 		add	r3, r3, r2, lsl #1
 153:..\..\..\u8g2\u8g2\csrc/u8x8_d_sh1122.c ****       y *= 8;
 115              		.loc 1 153 0
 116 0056 BA79     		ldrb	r2, [r7, #6]	@ zero_extendqisi2
 117              	.LVL13:
 151:..\..\..\u8g2\u8g2\csrc/u8x8_d_sh1122.c ****     
 118              		.loc 1 151 0
 119 0058 03F0FF03 		and	r3, r3, #255
 120              	.LVL14:
 154:..\..\..\u8g2\u8g2\csrc/u8x8_d_sh1122.c ****           
 121              		.loc 1 154 0
 122 005c D200     		lsls	r2, r2, #3
 123              	.LVL15:
 124 005e D2B2     		uxtb	r2, r2
 125 0060 0092     		str	r2, [sp]
 126              	.LVL16:
 164:..\..\..\u8g2\u8g2\csrc/u8x8_d_sh1122.c **** 	c = ((u8x8_tile_t *)arg_ptr)->cnt;	/* number of tiles */
 127              		.loc 1 164 0
 128 0062 1A09     		lsrs	r2, r3, #4
 129 0064 42F01002 		orr	r2, r2, #16
 163:..\..\..\u8g2\u8g2\csrc/u8x8_d_sh1122.c **** 	u8x8_cad_SendCmd(u8x8, 0x010 | (x >> 4) );	/* higher 3 bit */	  
 130              		.loc 1 163 0
 131 0068 03F00F03 		and	r3, r3, #15
 132              	.LVL17:
 133              	.LBB8:
 134              	.LBB9:
 107:..\..\..\u8g2\u8g2\csrc/u8x8_d_sh1122.c ****   b>>=2;
 135              		.loc 1 107 0
 136 006c DFF8A080 		ldr	r8, .L18+8
 137              	.LBE9:
 138              	.LBE8:
 164:..\..\..\u8g2\u8g2\csrc/u8x8_d_sh1122.c **** 	c = ((u8x8_tile_t *)arg_ptr)->cnt;	/* number of tiles */
 139              		.loc 1 164 0
 140 0070 0192     		str	r2, [sp, #4]
 141 0072 0026     		movs	r6, #0
 163:..\..\..\u8g2\u8g2\csrc/u8x8_d_sh1122.c **** 	u8x8_cad_SendCmd(u8x8, 0x010 | (x >> 4) );	/* higher 3 bit */	  
 142              		.loc 1 163 0
 143 0074 0293     		str	r3, [sp, #8]
 144              	.LVL18:
ARM GAS  C:\Users\jesse\AppData\Local\Temp\ccf2Q5M4.s 			page 7


 145              	.L9:
 146 0076 009B     		ldr	r3, [sp]
 161:..\..\..\u8g2\u8g2\csrc/u8x8_d_sh1122.c **** 	u8x8_cad_SendArg(u8x8, y);
 147              		.loc 1 161 0
 148 0078 B021     		movs	r1, #176
 149 007a 9D19     		adds	r5, r3, r6
 150 007c EDB2     		uxtb	r5, r5
 151              	.LVL19:
 152 007e 2046     		mov	r0, r4
 153 0080 FFF7FEFF 		bl	u8x8_cad_SendCmd
 154              	.LVL20:
 162:..\..\..\u8g2\u8g2\csrc/u8x8_d_sh1122.c **** 	u8x8_cad_SendCmd(u8x8, x & 15 );	/* lower 4 bit*/
 155              		.loc 1 162 0
 156 0084 2946     		mov	r1, r5
 157 0086 2046     		mov	r0, r4
 158 0088 FFF7FEFF 		bl	u8x8_cad_SendArg
 159              	.LVL21:
 163:..\..\..\u8g2\u8g2\csrc/u8x8_d_sh1122.c **** 	u8x8_cad_SendCmd(u8x8, 0x010 | (x >> 4) );	/* higher 3 bit */	  
 160              		.loc 1 163 0
 161 008c 0299     		ldr	r1, [sp, #8]
 162 008e 2046     		mov	r0, r4
 163 0090 FFF7FEFF 		bl	u8x8_cad_SendCmd
 164              	.LVL22:
 164:..\..\..\u8g2\u8g2\csrc/u8x8_d_sh1122.c **** 	c = ((u8x8_tile_t *)arg_ptr)->cnt;	/* number of tiles */
 165              		.loc 1 164 0
 166 0094 0199     		ldr	r1, [sp, #4]
 167 0096 2046     		mov	r0, r4
 168 0098 FFF7FEFF 		bl	u8x8_cad_SendCmd
 169              	.LVL23:
 165:..\..\..\u8g2\u8g2\csrc/u8x8_d_sh1122.c **** 
 170              		.loc 1 165 0
 171 009c 97F804B0 		ldrb	fp, [r7, #4]	@ zero_extendqisi2
 172              	.LVL24:
 173 00a0 5346     		mov	r3, r10
 174 00a2 5D46     		mov	r5, fp
 175              	.LVL25:
 176              	.LBB13:
 177              	.LBB10:
 107:..\..\..\u8g2\u8g2\csrc/u8x8_d_sh1122.c ****   b>>=2;
 178              		.loc 1 107 0
 179 00a4 DFF86090 		ldr	r9, .L18
 180              	.LVL26:
 181              	.L7:
 182              	.LBE10:
 183              	.LBE13:
 167:..\..\..\u8g2\u8g2\csrc/u8x8_d_sh1122.c **** 	{
 184              		.loc 1 167 0
 185 00a8 25B3     		cbz	r5, .L17
 169:..\..\..\u8g2\u8g2\csrc/u8x8_d_sh1122.c **** 	  c--;
 186              		.loc 1 169 0
 187 00aa 13F8012B 		ldrb	r2, [r3], #1	@ zero_extendqisi2
 188              	.LVL27:
 189              	.LBB14:
 190              	.LBB11:
 114:..\..\..\u8g2\u8g2\csrc/u8x8_d_sh1122.c **** }
 191              		.loc 1 114 0
 192 00ae 2046     		mov	r0, r4
ARM GAS  C:\Users\jesse\AppData\Local\Temp\ccf2Q5M4.s 			page 8


 107:..\..\..\u8g2\u8g2\csrc/u8x8_d_sh1122.c ****   b>>=2;
 193              		.loc 1 107 0
 194 00b0 02F00301 		and	r1, r2, #3
 195 00b4 4944     		add	r1, r1, r9
 196 00b6 897A     		ldrb	r1, [r1, #10]	@ zero_extendqisi2
 108:..\..\..\u8g2\u8g2\csrc/u8x8_d_sh1122.c ****   buf [2] = map[b & 3];
 197              		.loc 1 108 0
 198 00b8 9208     		lsrs	r2, r2, #2
 107:..\..\..\u8g2\u8g2\csrc/u8x8_d_sh1122.c ****   b>>=2;
 199              		.loc 1 107 0
 200 00ba 88F80310 		strb	r1, [r8, #3]
 109:..\..\..\u8g2\u8g2\csrc/u8x8_d_sh1122.c ****   b>>=2;
 201              		.loc 1 109 0
 202 00be 02F00301 		and	r1, r2, #3
 203 00c2 4944     		add	r1, r1, r9
 204 00c4 897A     		ldrb	r1, [r1, #10]	@ zero_extendqisi2
 110:..\..\..\u8g2\u8g2\csrc/u8x8_d_sh1122.c ****   buf [1] = map[b & 3];
 205              		.loc 1 110 0
 206 00c6 9208     		lsrs	r2, r2, #2
 109:..\..\..\u8g2\u8g2\csrc/u8x8_d_sh1122.c ****   b>>=2;
 207              		.loc 1 109 0
 208 00c8 88F80210 		strb	r1, [r8, #2]
 111:..\..\..\u8g2\u8g2\csrc/u8x8_d_sh1122.c ****   b>>=2;
 209              		.loc 1 111 0
 210 00cc 02F00301 		and	r1, r2, #3
 211 00d0 4944     		add	r1, r1, r9
 113:..\..\..\u8g2\u8g2\csrc/u8x8_d_sh1122.c ****   return u8x8_cad_SendData(u8x8, 4, buf);
 212              		.loc 1 113 0
 213 00d2 09EB9202 		add	r2, r9, r2, lsr #2
 111:..\..\..\u8g2\u8g2\csrc/u8x8_d_sh1122.c ****   b>>=2;
 214              		.loc 1 111 0
 215 00d6 897A     		ldrb	r1, [r1, #10]	@ zero_extendqisi2
 113:..\..\..\u8g2\u8g2\csrc/u8x8_d_sh1122.c ****   return u8x8_cad_SendData(u8x8, 4, buf);
 216              		.loc 1 113 0
 217 00d8 927A     		ldrb	r2, [r2, #10]	@ zero_extendqisi2
 111:..\..\..\u8g2\u8g2\csrc/u8x8_d_sh1122.c ****   b>>=2;
 218              		.loc 1 111 0
 219 00da 88F80110 		strb	r1, [r8, #1]
 113:..\..\..\u8g2\u8g2\csrc/u8x8_d_sh1122.c ****   return u8x8_cad_SendData(u8x8, 4, buf);
 220              		.loc 1 113 0
 221 00de 88F80020 		strb	r2, [r8]
 114:..\..\..\u8g2\u8g2\csrc/u8x8_d_sh1122.c **** }
 222              		.loc 1 114 0
 223 00e2 0421     		movs	r1, #4
 224 00e4 0A4A     		ldr	r2, .L18+8
 225              	.LBE11:
 226              	.LBE14:
 170:..\..\..\u8g2\u8g2\csrc/u8x8_d_sh1122.c **** 	  ptr++;
 227              		.loc 1 170 0
 228 00e6 013D     		subs	r5, r5, #1
 229              	.LVL28:
 169:..\..\..\u8g2\u8g2\csrc/u8x8_d_sh1122.c **** 	  c--;
 230              		.loc 1 169 0
 231 00e8 0393     		str	r3, [sp, #12]
 232              	.LVL29:
 170:..\..\..\u8g2\u8g2\csrc/u8x8_d_sh1122.c **** 	  ptr++;
 233              		.loc 1 170 0
ARM GAS  C:\Users\jesse\AppData\Local\Temp\ccf2Q5M4.s 			page 9


 234 00ea EDB2     		uxtb	r5, r5
 235              	.LBB15:
 236              	.LBB12:
 114:..\..\..\u8g2\u8g2\csrc/u8x8_d_sh1122.c **** }
 237              		.loc 1 114 0
 238 00ec FFF7FEFF 		bl	u8x8_cad_SendData
 239              	.LVL30:
 240              	.LBE12:
 241              	.LBE15:
 170:..\..\..\u8g2\u8g2\csrc/u8x8_d_sh1122.c **** 	  ptr++;
 242              		.loc 1 170 0
 243 00f0 039B     		ldr	r3, [sp, #12]
 244              	.LVL31:
 245 00f2 D9E7     		b	.L7
 246              	.L17:
 247 00f4 0136     		adds	r6, r6, #1
 248              	.LVL32:
 159:..\..\..\u8g2\u8g2\csrc/u8x8_d_sh1122.c ****       {
 249              		.loc 1 159 0
 250 00f6 082E     		cmp	r6, #8
 251 00f8 DA44     		add	r10, r10, fp
 252              	.LVL33:
 253 00fa BCD1     		bne	.L9
 254 00fc 9DE7     		b	.L14
 255              	.LVL34:
 256              	.L12:
 257              	.LBE7:
 258              	.LBE6:
 180:..\..\..\u8g2\u8g2\csrc/u8x8_d_sh1122.c ****   }
 259              		.loc 1 180 0
 260 00fe 0020     		movs	r0, #0
 261              	.LVL35:
 262              	.L2:
 183:..\..\..\u8g2\u8g2\csrc/u8x8_d_sh1122.c **** }
 263              		.loc 1 183 0
 264 0100 05B0     		add	sp, sp, #20
 265              		.cfi_def_cfa_offset 36
 266              		@ sp needed
 267 0102 BDE8F08F 		pop	{r4, r5, r6, r7, r8, r9, r10, fp, pc}
 268              	.LVL36:
 269              	.L19:
 270 0106 00BF     		.align	2
 271              	.L18:
 272 0108 00000000 		.word	.LANCHOR0
 273 010c 05000000 		.word	.LANCHOR0+5
 274 0110 00000000 		.word	.LANCHOR1
 275              		.cfi_endproc
 276              	.LFE1:
 277              		.size	u8x8_d_sh1122_common, .-u8x8_d_sh1122_common
 278              		.section	.text.u8x8_d_sh1122_256x64,"ax",%progbits
 279              		.align	1
 280              		.global	u8x8_d_sh1122_256x64
 281              		.thumb
 282              		.thumb_func
 283              		.type	u8x8_d_sh1122_256x64, %function
 284              	u8x8_d_sh1122_256x64:
 285              	.LFB2:
ARM GAS  C:\Users\jesse\AppData\Local\Temp\ccf2Q5M4.s 			page 10


 184:..\..\..\u8g2\u8g2\csrc/u8x8_d_sh1122.c **** 
 185:..\..\..\u8g2\u8g2\csrc/u8x8_d_sh1122.c **** /*=========================================================*/
 186:..\..\..\u8g2\u8g2\csrc/u8x8_d_sh1122.c **** 
 187:..\..\..\u8g2\u8g2\csrc/u8x8_d_sh1122.c **** static const uint8_t u8x8_d_sh1122_256x64_flip0_seq[] = {
 188:..\..\..\u8g2\u8g2\csrc/u8x8_d_sh1122.c ****   U8X8_START_TRANSFER(),             	/* enable chip, delay is part of the transfer start */
 189:..\..\..\u8g2\u8g2\csrc/u8x8_d_sh1122.c ****   U8X8_C(0x0a1),		/* remap */
 190:..\..\..\u8g2\u8g2\csrc/u8x8_d_sh1122.c ****   U8X8_C(0x0c8),		/* remap */
 191:..\..\..\u8g2\u8g2\csrc/u8x8_d_sh1122.c ****   U8X8_C(0x060),
 192:..\..\..\u8g2\u8g2\csrc/u8x8_d_sh1122.c ****   U8X8_END_TRANSFER(),             	/* disable chip */
 193:..\..\..\u8g2\u8g2\csrc/u8x8_d_sh1122.c ****   U8X8_END()             			/* end of sequence */
 194:..\..\..\u8g2\u8g2\csrc/u8x8_d_sh1122.c **** };
 195:..\..\..\u8g2\u8g2\csrc/u8x8_d_sh1122.c **** 
 196:..\..\..\u8g2\u8g2\csrc/u8x8_d_sh1122.c **** static const uint8_t u8x8_d_sh1122_256x64_flip1_seq[] = {
 197:..\..\..\u8g2\u8g2\csrc/u8x8_d_sh1122.c ****   U8X8_START_TRANSFER(),             	/* enable chip, delay is part of the transfer start */
 198:..\..\..\u8g2\u8g2\csrc/u8x8_d_sh1122.c ****   U8X8_C(0x0a0),		/* remap */
 199:..\..\..\u8g2\u8g2\csrc/u8x8_d_sh1122.c ****   U8X8_C(0x0c0),		/* remap */
 200:..\..\..\u8g2\u8g2\csrc/u8x8_d_sh1122.c ****   U8X8_C(0x040),
 201:..\..\..\u8g2\u8g2\csrc/u8x8_d_sh1122.c ****   U8X8_END_TRANSFER(),             	/* disable chip */
 202:..\..\..\u8g2\u8g2\csrc/u8x8_d_sh1122.c ****   U8X8_END()             			/* end of sequence */
 203:..\..\..\u8g2\u8g2\csrc/u8x8_d_sh1122.c **** };
 204:..\..\..\u8g2\u8g2\csrc/u8x8_d_sh1122.c **** 
 205:..\..\..\u8g2\u8g2\csrc/u8x8_d_sh1122.c **** static const u8x8_display_info_t u8x8_sh1122_256x64_display_info =
 206:..\..\..\u8g2\u8g2\csrc/u8x8_d_sh1122.c **** {
 207:..\..\..\u8g2\u8g2\csrc/u8x8_d_sh1122.c ****   /* chip_enable_level = */ 0,
 208:..\..\..\u8g2\u8g2\csrc/u8x8_d_sh1122.c ****   /* chip_disable_level = */ 1,
 209:..\..\..\u8g2\u8g2\csrc/u8x8_d_sh1122.c ****   
 210:..\..\..\u8g2\u8g2\csrc/u8x8_d_sh1122.c ****   /* post_chip_enable_wait_ns = */ 20,
 211:..\..\..\u8g2\u8g2\csrc/u8x8_d_sh1122.c ****   /* pre_chip_disable_wait_ns = */ 10,
 212:..\..\..\u8g2\u8g2\csrc/u8x8_d_sh1122.c ****   /* reset_pulse_width_ms = */ 10, 	/* sh1122: 10 us */
 213:..\..\..\u8g2\u8g2\csrc/u8x8_d_sh1122.c ****   /* post_reset_wait_ms = */ 20, 	/* */
 214:..\..\..\u8g2\u8g2\csrc/u8x8_d_sh1122.c ****   /* sda_setup_time_ns = */ 125,		/* sh1122: cycle time is 250ns, so use 250/2 */
 215:..\..\..\u8g2\u8g2\csrc/u8x8_d_sh1122.c ****   /* sck_pulse_width_ns = */ 125,	/* sh1122: cycle time is 250ns, so use 250/2 */
 216:..\..\..\u8g2\u8g2\csrc/u8x8_d_sh1122.c ****   /* sck_clock_hz = */ 40000000UL,	/* since Arduino 1.6.0, the SPI bus speed in Hz. Should be  1000
 217:..\..\..\u8g2\u8g2\csrc/u8x8_d_sh1122.c ****   /* spi_mode = */ 0,		/* active high, rising edge */
 218:..\..\..\u8g2\u8g2\csrc/u8x8_d_sh1122.c ****   /* i2c_bus_clock_100kHz = */ 4,
 219:..\..\..\u8g2\u8g2\csrc/u8x8_d_sh1122.c ****   /* data_setup_time_ns = */ 10,
 220:..\..\..\u8g2\u8g2\csrc/u8x8_d_sh1122.c ****   /* write_pulse_width_ns = */ 150,	/* sh1122: cycle time is 300ns, so use 300/2 = 150 */
 221:..\..\..\u8g2\u8g2\csrc/u8x8_d_sh1122.c ****   /* tile_width = */ 32,		/* 256 pixel, so we require 32 bytes for this */
 222:..\..\..\u8g2\u8g2\csrc/u8x8_d_sh1122.c ****   /* tile_hight = */ 8,
 223:..\..\..\u8g2\u8g2\csrc/u8x8_d_sh1122.c ****   /* default_x_offset = */ 0,	/* this is the byte offset (there are two pixel per byte with 4 bit p
 224:..\..\..\u8g2\u8g2\csrc/u8x8_d_sh1122.c ****   /* flipmode_x_offset = */ 0,
 225:..\..\..\u8g2\u8g2\csrc/u8x8_d_sh1122.c ****   /* pixel_width = */ 256,
 226:..\..\..\u8g2\u8g2\csrc/u8x8_d_sh1122.c ****   /* pixel_height = */ 64
 227:..\..\..\u8g2\u8g2\csrc/u8x8_d_sh1122.c **** };
 228:..\..\..\u8g2\u8g2\csrc/u8x8_d_sh1122.c **** 
 229:..\..\..\u8g2\u8g2\csrc/u8x8_d_sh1122.c **** 
 230:..\..\..\u8g2\u8g2\csrc/u8x8_d_sh1122.c **** static const uint8_t u8x8_d_sh1122_256x64_init_seq[] = {
 231:..\..\..\u8g2\u8g2\csrc/u8x8_d_sh1122.c ****     
 232:..\..\..\u8g2\u8g2\csrc/u8x8_d_sh1122.c ****   U8X8_DLY(1),
 233:..\..\..\u8g2\u8g2\csrc/u8x8_d_sh1122.c ****   U8X8_START_TRANSFER(),             	/* enable chip, delay is part of the transfer start */
 234:..\..\..\u8g2\u8g2\csrc/u8x8_d_sh1122.c ****   U8X8_DLY(1),
 235:..\..\..\u8g2\u8g2\csrc/u8x8_d_sh1122.c ****   
 236:..\..\..\u8g2\u8g2\csrc/u8x8_d_sh1122.c ****   U8X8_C(0xae),		                /* display off */
 237:..\..\..\u8g2\u8g2\csrc/u8x8_d_sh1122.c ****   U8X8_C(0x40),				/* display start line */  
 238:..\..\..\u8g2\u8g2\csrc/u8x8_d_sh1122.c ****   U8X8_C(0x0a0),		/* remap */
 239:..\..\..\u8g2\u8g2\csrc/u8x8_d_sh1122.c ****   U8X8_C(0x0c0),		/* remap */
 240:..\..\..\u8g2\u8g2\csrc/u8x8_d_sh1122.c ****   U8X8_CA(0x81, 0x80),			/* set display contrast  */  
ARM GAS  C:\Users\jesse\AppData\Local\Temp\ccf2Q5M4.s 			page 11


 241:..\..\..\u8g2\u8g2\csrc/u8x8_d_sh1122.c ****   U8X8_CA(0xa8, 0x3f),			/* multiplex ratio 1/64 Duty (0x0F~0x3F) */  
 242:..\..\..\u8g2\u8g2\csrc/u8x8_d_sh1122.c ****   U8X8_CA(0xad, 0x81),			/* use buildin DC-DC with 0.6 * 500 kHz */  
 243:..\..\..\u8g2\u8g2\csrc/u8x8_d_sh1122.c ****   
 244:..\..\..\u8g2\u8g2\csrc/u8x8_d_sh1122.c ****   U8X8_CA(0xd5, 0x50),			/* set display clock divide ratio (lower 4 bit)/oscillator frequency (uppe
 245:..\..\..\u8g2\u8g2\csrc/u8x8_d_sh1122.c ****   U8X8_CA(0xd3, 0x00),			/* display offset, shift mapping ram counter */  
 246:..\..\..\u8g2\u8g2\csrc/u8x8_d_sh1122.c ****   U8X8_CA(0xd9, 0x22),			/* pre charge (lower 4 bit) and discharge(higher 4 bit) period */  
 247:..\..\..\u8g2\u8g2\csrc/u8x8_d_sh1122.c ****   U8X8_CA(0xdb, 0x35),			/* VCOM deselect level */  
 248:..\..\..\u8g2\u8g2\csrc/u8x8_d_sh1122.c ****   U8X8_CA(0xdc, 0x35),			/* Pre Charge output voltage */  
 249:..\..\..\u8g2\u8g2\csrc/u8x8_d_sh1122.c ****   U8X8_C(0x030),				/* discharge level */
 250:..\..\..\u8g2\u8g2\csrc/u8x8_d_sh1122.c **** 
 251:..\..\..\u8g2\u8g2\csrc/u8x8_d_sh1122.c ****   U8X8_DLY(1),					/* delay  */
 252:..\..\..\u8g2\u8g2\csrc/u8x8_d_sh1122.c **** 
 253:..\..\..\u8g2\u8g2\csrc/u8x8_d_sh1122.c ****   U8X8_END_TRANSFER(),             	/* disable chip */
 254:..\..\..\u8g2\u8g2\csrc/u8x8_d_sh1122.c ****   U8X8_END()             			/* end of sequence */
 255:..\..\..\u8g2\u8g2\csrc/u8x8_d_sh1122.c **** };
 256:..\..\..\u8g2\u8g2\csrc/u8x8_d_sh1122.c **** 
 257:..\..\..\u8g2\u8g2\csrc/u8x8_d_sh1122.c **** 
 258:..\..\..\u8g2\u8g2\csrc/u8x8_d_sh1122.c **** uint8_t u8x8_d_sh1122_256x64(u8x8_t *u8x8, uint8_t msg, uint8_t arg_int, void *arg_ptr)
 259:..\..\..\u8g2\u8g2\csrc/u8x8_d_sh1122.c **** {
 286              		.loc 1 259 0
 287              		.cfi_startproc
 288              		@ args = 0, pretend = 0, frame = 0
 289              		@ frame_needed = 0, uses_anonymous_args = 0
 290              	.LVL37:
 260:..\..\..\u8g2\u8g2\csrc/u8x8_d_sh1122.c ****   switch(msg)
 291              		.loc 1 260 0
 292 0000 0A29     		cmp	r1, #10
 259:..\..\..\u8g2\u8g2\csrc/u8x8_d_sh1122.c ****   switch(msg)
 293              		.loc 1 259 0
 294 0002 70B5     		push	{r4, r5, r6, lr}
 295              		.cfi_def_cfa_offset 16
 296              		.cfi_offset 4, -16
 297              		.cfi_offset 5, -12
 298              		.cfi_offset 6, -8
 299              		.cfi_offset 14, -4
 259:..\..\..\u8g2\u8g2\csrc/u8x8_d_sh1122.c ****   switch(msg)
 300              		.loc 1 259 0
 301 0004 0446     		mov	r4, r0
 302              		.loc 1 260 0
 303 0006 07D0     		beq	.L22
 304 0008 0D29     		cmp	r1, #13
 305 000a 0CD0     		beq	.L23
 306 000c 0929     		cmp	r1, #9
 307 000e 19D1     		bne	.L27
 261:..\..\..\u8g2\u8g2\csrc/u8x8_d_sh1122.c ****   {
 262:..\..\..\u8g2\u8g2\csrc/u8x8_d_sh1122.c ****     case U8X8_MSG_DISPLAY_SETUP_MEMORY:
 263:..\..\..\u8g2\u8g2\csrc/u8x8_d_sh1122.c ****       u8x8_d_helper_display_setup_memory(u8x8, &u8x8_sh1122_256x64_display_info);
 308              		.loc 1 263 0
 309 0010 0F49     		ldr	r1, .L29
 310              	.LVL38:
 311 0012 FFF7FEFF 		bl	u8x8_d_helper_display_setup_memory
 312              	.LVL39:
 264:..\..\..\u8g2\u8g2\csrc/u8x8_d_sh1122.c ****       break;
 313              		.loc 1 264 0
 314 0016 19E0     		b	.L25
 315              	.LVL40:
 316              	.L22:
ARM GAS  C:\Users\jesse\AppData\Local\Temp\ccf2Q5M4.s 			page 12


 265:..\..\..\u8g2\u8g2\csrc/u8x8_d_sh1122.c ****     case U8X8_MSG_DISPLAY_INIT:
 266:..\..\..\u8g2\u8g2\csrc/u8x8_d_sh1122.c ****       u8x8_d_helper_display_init(u8x8);
 317              		.loc 1 266 0
 318 0018 FFF7FEFF 		bl	u8x8_d_helper_display_init
 319              	.LVL41:
 267:..\..\..\u8g2\u8g2\csrc/u8x8_d_sh1122.c ****       u8x8_cad_SendSequence(u8x8, u8x8_d_sh1122_256x64_init_seq);
 320              		.loc 1 267 0
 321 001c 0D49     		ldr	r1, .L29+4
 322 001e 2046     		mov	r0, r4
 323 0020 FFF7FEFF 		bl	u8x8_cad_SendSequence
 324              	.LVL42:
 268:..\..\..\u8g2\u8g2\csrc/u8x8_d_sh1122.c ****       break;
 325              		.loc 1 268 0
 326 0024 12E0     		b	.L25
 327              	.LVL43:
 328              	.L23:
 269:..\..\..\u8g2\u8g2\csrc/u8x8_d_sh1122.c ****     case U8X8_MSG_DISPLAY_SET_FLIP_MODE:
 270:..\..\..\u8g2\u8g2\csrc/u8x8_d_sh1122.c ****       if ( arg_int == 0 )
 329              		.loc 1 270 0
 330 0026 2AB9     		cbnz	r2, .L26
 271:..\..\..\u8g2\u8g2\csrc/u8x8_d_sh1122.c ****       {
 272:..\..\..\u8g2\u8g2\csrc/u8x8_d_sh1122.c **** 	u8x8_cad_SendSequence(u8x8, u8x8_d_sh1122_256x64_flip0_seq);
 331              		.loc 1 272 0
 332 0028 0B49     		ldr	r1, .L29+8
 333              	.LVL44:
 334 002a FFF7FEFF 		bl	u8x8_cad_SendSequence
 335              	.LVL45:
 273:..\..\..\u8g2\u8g2\csrc/u8x8_d_sh1122.c **** 	u8x8->x_offset = u8x8->display_info->default_x_offset;
 336              		.loc 1 273 0
 337 002e 2368     		ldr	r3, [r4]
 338 0030 9B7C     		ldrb	r3, [r3, #18]	@ zero_extendqisi2
 339 0032 04E0     		b	.L28
 340              	.LVL46:
 341              	.L26:
 274:..\..\..\u8g2\u8g2\csrc/u8x8_d_sh1122.c ****       }
 275:..\..\..\u8g2\u8g2\csrc/u8x8_d_sh1122.c ****       else
 276:..\..\..\u8g2\u8g2\csrc/u8x8_d_sh1122.c ****       {
 277:..\..\..\u8g2\u8g2\csrc/u8x8_d_sh1122.c **** 	u8x8_cad_SendSequence(u8x8, u8x8_d_sh1122_256x64_flip1_seq);
 342              		.loc 1 277 0
 343 0034 0949     		ldr	r1, .L29+12
 344              	.LVL47:
 345 0036 FFF7FEFF 		bl	u8x8_cad_SendSequence
 346              	.LVL48:
 278:..\..\..\u8g2\u8g2\csrc/u8x8_d_sh1122.c **** 	u8x8->x_offset = u8x8->display_info->flipmode_x_offset;
 347              		.loc 1 278 0
 348 003a 2368     		ldr	r3, [r4]
 349 003c DB7C     		ldrb	r3, [r3, #19]	@ zero_extendqisi2
 350              	.L28:
 351 003e 84F82230 		strb	r3, [r4, #34]
 352 0042 03E0     		b	.L25
 353              	.LVL49:
 354              	.L27:
 279:..\..\..\u8g2\u8g2\csrc/u8x8_d_sh1122.c ****       }
 280:..\..\..\u8g2\u8g2\csrc/u8x8_d_sh1122.c ****       break;
 281:..\..\..\u8g2\u8g2\csrc/u8x8_d_sh1122.c ****     
 282:..\..\..\u8g2\u8g2\csrc/u8x8_d_sh1122.c ****     default:
 283:..\..\..\u8g2\u8g2\csrc/u8x8_d_sh1122.c ****       return u8x8_d_sh1122_common(u8x8, msg, arg_int, arg_ptr);
ARM GAS  C:\Users\jesse\AppData\Local\Temp\ccf2Q5M4.s 			page 13


 284:..\..\..\u8g2\u8g2\csrc/u8x8_d_sh1122.c ****   }
 285:..\..\..\u8g2\u8g2\csrc/u8x8_d_sh1122.c ****   return 1;
 286:..\..\..\u8g2\u8g2\csrc/u8x8_d_sh1122.c **** }
 355              		.loc 1 286 0
 356 0044 BDE87040 		pop	{r4, r5, r6, lr}
 357              		.cfi_remember_state
 358              		.cfi_restore 14
 359              		.cfi_restore 6
 360              		.cfi_restore 5
 361              		.cfi_restore 4
 362              		.cfi_def_cfa_offset 0
 283:..\..\..\u8g2\u8g2\csrc/u8x8_d_sh1122.c ****   }
 363              		.loc 1 283 0
 364 0048 FFF7FEBF 		b	u8x8_d_sh1122_common
 365              	.LVL50:
 366              	.L25:
 367              		.cfi_restore_state
 368              		.loc 1 286 0
 369 004c 0120     		movs	r0, #1
 370 004e 70BD     		pop	{r4, r5, r6, pc}
 371              	.LVL51:
 372              	.L30:
 373              		.align	2
 374              	.L29:
 375 0050 10000000 		.word	.LANCHOR0+16
 376 0054 28000000 		.word	.LANCHOR0+40
 377 0058 5B000000 		.word	.LANCHOR0+91
 378 005c 64000000 		.word	.LANCHOR0+100
 379              		.cfi_endproc
 380              	.LFE2:
 381              		.size	u8x8_d_sh1122_256x64, .-u8x8_d_sh1122_256x64
 382              		.section	.rodata
 383              		.align	2
 384              		.set	.LANCHOR0,. + 0
 385              		.type	u8x8_d_sh1122_powersave0_seq, %object
 386              		.size	u8x8_d_sh1122_powersave0_seq, 5
 387              	u8x8_d_sh1122_powersave0_seq:
 388 0000 18       		.byte	24
 389 0001 15       		.byte	21
 390 0002 AF       		.byte	-81
 391 0003 19       		.byte	25
 392 0004 FF       		.byte	-1
 393              		.type	u8x8_d_sh1122_powersave1_seq, %object
 394              		.size	u8x8_d_sh1122_powersave1_seq, 5
 395              	u8x8_d_sh1122_powersave1_seq:
 396 0005 18       		.byte	24
 397 0006 15       		.byte	21
 398 0007 AE       		.byte	-82
 399 0008 19       		.byte	25
 400 0009 FF       		.byte	-1
 401              		.type	map.5776, %object
 402              		.size	map.5776, 4
 403              	map.5776:
 404 000a 00       		.byte	0
 405 000b 0F       		.byte	15
 406 000c F0       		.byte	-16
 407 000d FF       		.byte	-1
ARM GAS  C:\Users\jesse\AppData\Local\Temp\ccf2Q5M4.s 			page 14


 408 000e 0000     		.space	2
 409              		.type	u8x8_sh1122_256x64_display_info, %object
 410              		.size	u8x8_sh1122_256x64_display_info, 24
 411              	u8x8_sh1122_256x64_display_info:
 412 0010 00       		.byte	0
 413 0011 01       		.byte	1
 414 0012 14       		.byte	20
 415 0013 0A       		.byte	10
 416 0014 0A       		.byte	10
 417 0015 14       		.byte	20
 418 0016 7D       		.byte	125
 419 0017 7D       		.byte	125
 420 0018 005A6202 		.word	40000000
 421 001c 00       		.byte	0
 422 001d 04       		.byte	4
 423 001e 0A       		.byte	10
 424 001f 96       		.byte	-106
 425 0020 20       		.byte	32
 426 0021 08       		.byte	8
 427 0022 00       		.byte	0
 428 0023 00       		.byte	0
 429 0024 0001     		.short	256
 430 0026 4000     		.short	64
 431              		.type	u8x8_d_sh1122_256x64_init_seq, %object
 432              		.size	u8x8_d_sh1122_256x64_init_seq, 51
 433              	u8x8_d_sh1122_256x64_init_seq:
 434 0028 FE       		.byte	-2
 435 0029 01       		.byte	1
 436 002a 18       		.byte	24
 437 002b FE       		.byte	-2
 438 002c 01       		.byte	1
 439 002d 15       		.byte	21
 440 002e AE       		.byte	-82
 441 002f 15       		.byte	21
 442 0030 40       		.byte	64
 443 0031 15       		.byte	21
 444 0032 A0       		.byte	-96
 445 0033 15       		.byte	21
 446 0034 C0       		.byte	-64
 447 0035 15       		.byte	21
 448 0036 81       		.byte	-127
 449 0037 16       		.byte	22
 450 0038 80       		.byte	-128
 451 0039 15       		.byte	21
 452 003a A8       		.byte	-88
 453 003b 16       		.byte	22
 454 003c 3F       		.byte	63
 455 003d 15       		.byte	21
 456 003e AD       		.byte	-83
 457 003f 16       		.byte	22
 458 0040 81       		.byte	-127
 459 0041 15       		.byte	21
 460 0042 D5       		.byte	-43
 461 0043 16       		.byte	22
 462 0044 50       		.byte	80
 463 0045 15       		.byte	21
 464 0046 D3       		.byte	-45
ARM GAS  C:\Users\jesse\AppData\Local\Temp\ccf2Q5M4.s 			page 15


 465 0047 16       		.byte	22
 466 0048 00       		.byte	0
 467 0049 15       		.byte	21
 468 004a D9       		.byte	-39
 469 004b 16       		.byte	22
 470 004c 22       		.byte	34
 471 004d 15       		.byte	21
 472 004e DB       		.byte	-37
 473 004f 16       		.byte	22
 474 0050 35       		.byte	53
 475 0051 15       		.byte	21
 476 0052 DC       		.byte	-36
 477 0053 16       		.byte	22
 478 0054 35       		.byte	53
 479 0055 15       		.byte	21
 480 0056 30       		.byte	48
 481 0057 FE       		.byte	-2
 482 0058 01       		.byte	1
 483 0059 19       		.byte	25
 484 005a FF       		.byte	-1
 485              		.type	u8x8_d_sh1122_256x64_flip0_seq, %object
 486              		.size	u8x8_d_sh1122_256x64_flip0_seq, 9
 487              	u8x8_d_sh1122_256x64_flip0_seq:
 488 005b 18       		.byte	24
 489 005c 15       		.byte	21
 490 005d A1       		.byte	-95
 491 005e 15       		.byte	21
 492 005f C8       		.byte	-56
 493 0060 15       		.byte	21
 494 0061 60       		.byte	96
 495 0062 19       		.byte	25
 496 0063 FF       		.byte	-1
 497              		.type	u8x8_d_sh1122_256x64_flip1_seq, %object
 498              		.size	u8x8_d_sh1122_256x64_flip1_seq, 9
 499              	u8x8_d_sh1122_256x64_flip1_seq:
 500 0064 18       		.byte	24
 501 0065 15       		.byte	21
 502 0066 A0       		.byte	-96
 503 0067 15       		.byte	21
 504 0068 C0       		.byte	-64
 505 0069 15       		.byte	21
 506 006a 40       		.byte	64
 507 006b 19       		.byte	25
 508 006c FF       		.byte	-1
 509              		.bss
 510              		.set	.LANCHOR1,. + 0
 511              		.type	buf.5775, %object
 512              		.size	buf.5775, 4
 513              	buf.5775:
 514 0000 00000000 		.space	4
 515              		.text
 516              	.Letext0:
 517              		.file 2 "c:\\program files (x86)\\cypress\\psoc creator\\4.4\\psoc creator\\import\\gnu\\arm\\5.4.
 518              		.file 3 "c:\\program files (x86)\\cypress\\psoc creator\\4.4\\psoc creator\\import\\gnu\\arm\\5.4.
 519              		.file 4 "..\\..\\..\\u8g2\\u8g2\\csrc\\u8x8.h"