ARM GAS  C:\Users\jesse\AppData\Local\Temp\ccABesPa.s 			page 1


   1              		.syntax unified
   2              		.cpu cortex-m3
   3              		.fpu softvfp
   4              		.eabi_attribute 20, 1
   5              		.eabi_attribute 21, 1
   6              		.eabi_attribute 23, 3
   7              		.eabi_attribute 24, 1
   8              		.eabi_attribute 25, 1
   9              		.eabi_attribute 26, 1
  10              		.eabi_attribute 30, 4
  11              		.eabi_attribute 34, 1
  12              		.eabi_attribute 18, 4
  13              		.thumb
  14              		.syntax unified
  15              		.file	"u8x8_d_st7571.c"
  16              		.text
  17              	.Ltext0:
  18              		.cfi_sections	.debug_frame
  19              		.section	.text.u8x8_d_st7571_generic,"ax",%progbits
  20              		.align	1
  21              		.thumb
  22              		.thumb_func
  23              		.type	u8x8_d_st7571_generic, %function
  24              	u8x8_d_st7571_generic:
  25              	.LFB0:
  26              		.file 1 "..\\..\\..\\u8g2\\u8g2\\csrc\\u8x8_d_st7571.c"
   1:..\..\..\u8g2\u8g2\csrc/u8x8_d_st7571.c **** /*
   2:..\..\..\u8g2\u8g2\csrc/u8x8_d_st7571.c **** 
   3:..\..\..\u8g2\u8g2\csrc/u8x8_d_st7571.c ****   u8x8_d_st7571.c
   4:..\..\..\u8g2\u8g2\csrc/u8x8_d_st7571.c **** 
   5:..\..\..\u8g2\u8g2\csrc/u8x8_d_st7571.c ****   Universal 8bit Graphics Library (https://github.com/olikraus/u8g2/)
   6:..\..\..\u8g2\u8g2\csrc/u8x8_d_st7571.c **** 
   7:..\..\..\u8g2\u8g2\csrc/u8x8_d_st7571.c ****   Copyright (c) 2020, olikraus@gmail.com
   8:..\..\..\u8g2\u8g2\csrc/u8x8_d_st7571.c ****   All rights reserved.
   9:..\..\..\u8g2\u8g2\csrc/u8x8_d_st7571.c **** 
  10:..\..\..\u8g2\u8g2\csrc/u8x8_d_st7571.c ****   Redistribution and use in source and binary forms, with or without modification, 
  11:..\..\..\u8g2\u8g2\csrc/u8x8_d_st7571.c ****   are permitted provided that the following conditions are met:
  12:..\..\..\u8g2\u8g2\csrc/u8x8_d_st7571.c **** 
  13:..\..\..\u8g2\u8g2\csrc/u8x8_d_st7571.c ****   * Redistributions of source code must retain the above copyright notice, this list 
  14:..\..\..\u8g2\u8g2\csrc/u8x8_d_st7571.c ****     of conditions and the following disclaimer.
  15:..\..\..\u8g2\u8g2\csrc/u8x8_d_st7571.c ****     
  16:..\..\..\u8g2\u8g2\csrc/u8x8_d_st7571.c ****   * Redistributions in binary form must reproduce the above copyright notice, this 
  17:..\..\..\u8g2\u8g2\csrc/u8x8_d_st7571.c ****     list of conditions and the following disclaimer in the documentation and/or other 
  18:..\..\..\u8g2\u8g2\csrc/u8x8_d_st7571.c ****     materials provided with the distribution.
  19:..\..\..\u8g2\u8g2\csrc/u8x8_d_st7571.c **** 
  20:..\..\..\u8g2\u8g2\csrc/u8x8_d_st7571.c ****   THIS SOFTWARE IS PROVIDED BY THE COPYRIGHT HOLDERS AND 
  21:..\..\..\u8g2\u8g2\csrc/u8x8_d_st7571.c ****   CONTRIBUTORS "AS IS" AND ANY EXPRESS OR IMPLIED WARRANTIES, 
  22:..\..\..\u8g2\u8g2\csrc/u8x8_d_st7571.c ****   INCLUDING, BUT NOT LIMITED TO, THE IMPLIED WARRANTIES OF 
  23:..\..\..\u8g2\u8g2\csrc/u8x8_d_st7571.c ****   MERCHANTABILITY AND FITNESS FOR A PARTICULAR PURPOSE ARE 
  24:..\..\..\u8g2\u8g2\csrc/u8x8_d_st7571.c ****   DISCLAIMED. IN NO EVENT SHALL THE COPYRIGHT HOLDER OR 
  25:..\..\..\u8g2\u8g2\csrc/u8x8_d_st7571.c ****   CONTRIBUTORS BE LIABLE FOR ANY DIRECT, INDIRECT, INCIDENTAL, 
  26:..\..\..\u8g2\u8g2\csrc/u8x8_d_st7571.c ****   SPECIAL, EXEMPLARY, OR CONSEQUENTIAL DAMAGES (INCLUDING, BUT 
  27:..\..\..\u8g2\u8g2\csrc/u8x8_d_st7571.c ****   NOT LIMITED TO, PROCUREMENT OF SUBSTITUTE GOODS OR SERVICES; 
  28:..\..\..\u8g2\u8g2\csrc/u8x8_d_st7571.c ****   LOSS OF USE, DATA, OR PROFITS; OR BUSINESS INTERRUPTION) HOWEVER 
  29:..\..\..\u8g2\u8g2\csrc/u8x8_d_st7571.c ****   CAUSED AND ON ANY THEORY OF LIABILITY, WHETHER IN CONTRACT, 
  30:..\..\..\u8g2\u8g2\csrc/u8x8_d_st7571.c ****   STRICT LIABILITY, OR TORT (INCLUDING NEGLIGENCE OR OTHERWISE) 
  31:..\..\..\u8g2\u8g2\csrc/u8x8_d_st7571.c ****   ARISING IN ANY WAY OUT OF THE USE OF THIS SOFTWARE, EVEN IF 
ARM GAS  C:\Users\jesse\AppData\Local\Temp\ccABesPa.s 			page 2


  32:..\..\..\u8g2\u8g2\csrc/u8x8_d_st7571.c ****   ADVISED OF THE POSSIBILITY OF SUCH DAMAGE.  
  33:..\..\..\u8g2\u8g2\csrc/u8x8_d_st7571.c **** 
  34:..\..\..\u8g2\u8g2\csrc/u8x8_d_st7571.c **** 
  35:..\..\..\u8g2\u8g2\csrc/u8x8_d_st7571.c ****   ST7571: 128x129 2-bit graylevel LCD
  36:..\..\..\u8g2\u8g2\csrc/u8x8_d_st7571.c ****   
  37:..\..\..\u8g2\u8g2\csrc/u8x8_d_st7571.c ****   https://github.com/olikraus/u8g2/issues/921
  38:..\..\..\u8g2\u8g2\csrc/u8x8_d_st7571.c ****   https://github.com/olikraus/u8g2/issues/1575          128x96
  39:..\..\..\u8g2\u8g2\csrc/u8x8_d_st7571.c **** 
  40:..\..\..\u8g2\u8g2\csrc/u8x8_d_st7571.c **** */
  41:..\..\..\u8g2\u8g2\csrc/u8x8_d_st7571.c **** 
  42:..\..\..\u8g2\u8g2\csrc/u8x8_d_st7571.c **** 
  43:..\..\..\u8g2\u8g2\csrc/u8x8_d_st7571.c **** #include "u8x8.h"
  44:..\..\..\u8g2\u8g2\csrc/u8x8_d_st7571.c **** 
  45:..\..\..\u8g2\u8g2\csrc/u8x8_d_st7571.c **** static const uint8_t u8x8_d_st7571_128x128_powersave0_seq[] = {
  46:..\..\..\u8g2\u8g2\csrc/u8x8_d_st7571.c ****   U8X8_START_TRANSFER(),             	/* enable chip, delay is part of the transfer start */
  47:..\..\..\u8g2\u8g2\csrc/u8x8_d_st7571.c ****   U8X8_C(0x071),		                /* exit power save mode */
  48:..\..\..\u8g2\u8g2\csrc/u8x8_d_st7571.c ****   U8X8_C(0x0a8),		                /* disable powersave mode */
  49:..\..\..\u8g2\u8g2\csrc/u8x8_d_st7571.c ****   U8X8_C(0x0af),		                /* display on */
  50:..\..\..\u8g2\u8g2\csrc/u8x8_d_st7571.c ****   U8X8_END_TRANSFER(),             	/* disable chip */
  51:..\..\..\u8g2\u8g2\csrc/u8x8_d_st7571.c ****   U8X8_END()             			/* end of sequence */
  52:..\..\..\u8g2\u8g2\csrc/u8x8_d_st7571.c **** };
  53:..\..\..\u8g2\u8g2\csrc/u8x8_d_st7571.c **** 
  54:..\..\..\u8g2\u8g2\csrc/u8x8_d_st7571.c **** static const uint8_t u8x8_d_st7571_128x128_powersave1_seq[] = {
  55:..\..\..\u8g2\u8g2\csrc/u8x8_d_st7571.c ****   U8X8_START_TRANSFER(),             	/* enable chip, delay is part of the transfer start */
  56:..\..\..\u8g2\u8g2\csrc/u8x8_d_st7571.c ****   U8X8_C(0x0ae),		                /* display off */  
  57:..\..\..\u8g2\u8g2\csrc/u8x8_d_st7571.c ****   U8X8_C(0x0a9),		                /* enter powersave mode */
  58:..\..\..\u8g2\u8g2\csrc/u8x8_d_st7571.c ****   U8X8_END_TRANSFER(),             	/* disable chip */
  59:..\..\..\u8g2\u8g2\csrc/u8x8_d_st7571.c ****   U8X8_END()             			/* end of sequence */
  60:..\..\..\u8g2\u8g2\csrc/u8x8_d_st7571.c **** };
  61:..\..\..\u8g2\u8g2\csrc/u8x8_d_st7571.c **** 
  62:..\..\..\u8g2\u8g2\csrc/u8x8_d_st7571.c **** static const uint8_t u8x8_d_st7571_128x128_flip0_seq[] = {
  63:..\..\..\u8g2\u8g2\csrc/u8x8_d_st7571.c ****   U8X8_START_TRANSFER(),             	/* enable chip, delay is part of the transfer start */
  64:..\..\..\u8g2\u8g2\csrc/u8x8_d_st7571.c ****   U8X8_C(0x0a0),				/* segment remap a0/a1*/
  65:..\..\..\u8g2\u8g2\csrc/u8x8_d_st7571.c ****   U8X8_C(0x0c8),				/* c0: scan dir normal, c8: reverse */
  66:..\..\..\u8g2\u8g2\csrc/u8x8_d_st7571.c ****   U8X8_END_TRANSFER(),             	/* disable chip */
  67:..\..\..\u8g2\u8g2\csrc/u8x8_d_st7571.c ****   U8X8_END()             			/* end of sequence */
  68:..\..\..\u8g2\u8g2\csrc/u8x8_d_st7571.c **** };
  69:..\..\..\u8g2\u8g2\csrc/u8x8_d_st7571.c **** 
  70:..\..\..\u8g2\u8g2\csrc/u8x8_d_st7571.c **** static const uint8_t u8x8_d_st7571_128x128_flip1_seq[] = {
  71:..\..\..\u8g2\u8g2\csrc/u8x8_d_st7571.c ****   U8X8_START_TRANSFER(),             	/* enable chip, delay is part of the transfer start */
  72:..\..\..\u8g2\u8g2\csrc/u8x8_d_st7571.c ****   U8X8_C(0x0a1),				/* segment remap a0/a1*/
  73:..\..\..\u8g2\u8g2\csrc/u8x8_d_st7571.c ****   U8X8_C(0x0c0),				/* c0: scan dir normal, c8: reverse */
  74:..\..\..\u8g2\u8g2\csrc/u8x8_d_st7571.c ****   U8X8_END_TRANSFER(),             	/* disable chip */
  75:..\..\..\u8g2\u8g2\csrc/u8x8_d_st7571.c ****   U8X8_END()             			/* end of sequence */
  76:..\..\..\u8g2\u8g2\csrc/u8x8_d_st7571.c **** };
  77:..\..\..\u8g2\u8g2\csrc/u8x8_d_st7571.c **** 
  78:..\..\..\u8g2\u8g2\csrc/u8x8_d_st7571.c **** 
  79:..\..\..\u8g2\u8g2\csrc/u8x8_d_st7571.c **** 
  80:..\..\..\u8g2\u8g2\csrc/u8x8_d_st7571.c **** 
  81:..\..\..\u8g2\u8g2\csrc/u8x8_d_st7571.c **** /*===================================================*/
  82:..\..\..\u8g2\u8g2\csrc/u8x8_d_st7571.c **** 
  83:..\..\..\u8g2\u8g2\csrc/u8x8_d_st7571.c **** static uint8_t u8x8_d_st7571_generic(u8x8_t *u8x8, uint8_t msg, uint8_t arg_int, void *arg_ptr)
  84:..\..\..\u8g2\u8g2\csrc/u8x8_d_st7571.c **** {
  27              		.loc 1 84 0
  28              		.cfi_startproc
  29              		@ args = 0, pretend = 0, frame = 0
  30              		@ frame_needed = 0, uses_anonymous_args = 0
ARM GAS  C:\Users\jesse\AppData\Local\Temp\ccABesPa.s 			page 3


  31              	.LVL0:
  85:..\..\..\u8g2\u8g2\csrc/u8x8_d_st7571.c ****   uint16_t x;
  86:..\..\..\u8g2\u8g2\csrc/u8x8_d_st7571.c ****   uint8_t c;
  87:..\..\..\u8g2\u8g2\csrc/u8x8_d_st7571.c ****   uint8_t *ptr;
  88:..\..\..\u8g2\u8g2\csrc/u8x8_d_st7571.c ****   switch(msg)
  32              		.loc 1 88 0
  33 0000 0B39     		subs	r1, r1, #11
  34              	.LVL1:
  84:..\..\..\u8g2\u8g2\csrc/u8x8_d_st7571.c ****   uint16_t x;
  35              		.loc 1 84 0
  36 0002 F8B5     		push	{r3, r4, r5, r6, r7, lr}
  37              		.cfi_def_cfa_offset 24
  38              		.cfi_offset 3, -24
  39              		.cfi_offset 4, -20
  40              		.cfi_offset 5, -16
  41              		.cfi_offset 6, -12
  42              		.cfi_offset 7, -8
  43              		.cfi_offset 14, -4
  84:..\..\..\u8g2\u8g2\csrc/u8x8_d_st7571.c ****   uint16_t x;
  44              		.loc 1 84 0
  45 0004 0446     		mov	r4, r0
  46 0006 1546     		mov	r5, r2
  47 0008 1E46     		mov	r6, r3
  48              		.loc 1 88 0
  49 000a 0429     		cmp	r1, #4
  50 000c 50D8     		bhi	.L11
  51 000e DFE801F0 		tbb	[pc, r1]
  52              	.LVL2:
  53              	.L4:
  54 0012 03       		.byte	(.L3-.L4)/2
  55 0013 4F       		.byte	(.L11-.L4)/2
  56 0014 0B       		.byte	(.L5-.L4)/2
  57 0015 1A       		.byte	(.L6-.L4)/2
  58 0016 29       		.byte	(.L7-.L4)/2
  59 0017 00       		.p2align 1
  60              	.L3:
  89:..\..\..\u8g2\u8g2\csrc/u8x8_d_st7571.c ****   {
  90:..\..\..\u8g2\u8g2\csrc/u8x8_d_st7571.c ****     /* handled by the calling function
  91:..\..\..\u8g2\u8g2\csrc/u8x8_d_st7571.c ****     case U8X8_MSG_DISPLAY_SETUP_MEMORY:
  92:..\..\..\u8g2\u8g2\csrc/u8x8_d_st7571.c ****       u8x8_d_helper_display_setup_memory(u8x8, &u8x8_st7571_128x128_display_info);
  93:..\..\..\u8g2\u8g2\csrc/u8x8_d_st7571.c ****       break;
  94:..\..\..\u8g2\u8g2\csrc/u8x8_d_st7571.c ****     */
  95:..\..\..\u8g2\u8g2\csrc/u8x8_d_st7571.c ****     /* handled by the calling function
  96:..\..\..\u8g2\u8g2\csrc/u8x8_d_st7571.c ****     case U8X8_MSG_DISPLAY_INIT:
  97:..\..\..\u8g2\u8g2\csrc/u8x8_d_st7571.c ****       u8x8_d_helper_display_init(u8x8);
  98:..\..\..\u8g2\u8g2\csrc/u8x8_d_st7571.c ****       u8x8_cad_SendSequence(u8x8, u8x8_d_st7571_128x128_init_seq);    
  99:..\..\..\u8g2\u8g2\csrc/u8x8_d_st7571.c ****       break;
 100:..\..\..\u8g2\u8g2\csrc/u8x8_d_st7571.c ****     */
 101:..\..\..\u8g2\u8g2\csrc/u8x8_d_st7571.c ****     case U8X8_MSG_DISPLAY_SET_POWER_SAVE:
 102:..\..\..\u8g2\u8g2\csrc/u8x8_d_st7571.c ****       if ( arg_int == 0 )
  61              		.loc 1 102 0
  62 0018 0AB9     		cbnz	r2, .L8
 103:..\..\..\u8g2\u8g2\csrc/u8x8_d_st7571.c **** 	u8x8_cad_SendSequence(u8x8, u8x8_d_st7571_128x128_powersave0_seq);
  63              		.loc 1 103 0
  64 001a 2649     		ldr	r1, .L18
  65 001c 00E0     		b	.L16
  66              	.L8:
ARM GAS  C:\Users\jesse\AppData\Local\Temp\ccABesPa.s 			page 4


 104:..\..\..\u8g2\u8g2\csrc/u8x8_d_st7571.c ****       else
 105:..\..\..\u8g2\u8g2\csrc/u8x8_d_st7571.c **** 	u8x8_cad_SendSequence(u8x8, u8x8_d_st7571_128x128_powersave1_seq);
  67              		.loc 1 105 0
  68 001e 2649     		ldr	r1, .L18+4
  69              	.L16:
  70 0020 2046     		mov	r0, r4
  71              	.LVL3:
  72 0022 FFF7FEFF 		bl	u8x8_cad_SendSequence
  73              	.LVL4:
  74 0026 1BE0     		b	.L13
  75              	.LVL5:
  76              	.L5:
 106:..\..\..\u8g2\u8g2\csrc/u8x8_d_st7571.c ****       break;
 107:..\..\..\u8g2\u8g2\csrc/u8x8_d_st7571.c ****     case U8X8_MSG_DISPLAY_SET_FLIP_MODE:
 108:..\..\..\u8g2\u8g2\csrc/u8x8_d_st7571.c ****       if ( arg_int == 0 )
  77              		.loc 1 108 0
  78 0028 2AB9     		cbnz	r2, .L9
 109:..\..\..\u8g2\u8g2\csrc/u8x8_d_st7571.c ****       {
 110:..\..\..\u8g2\u8g2\csrc/u8x8_d_st7571.c **** 	u8x8_cad_SendSequence(u8x8, u8x8_d_st7571_128x128_flip0_seq);
  79              		.loc 1 110 0
  80 002a 2449     		ldr	r1, .L18+8
  81 002c FFF7FEFF 		bl	u8x8_cad_SendSequence
  82              	.LVL6:
 111:..\..\..\u8g2\u8g2\csrc/u8x8_d_st7571.c **** 	u8x8->x_offset = u8x8->display_info->default_x_offset;
  83              		.loc 1 111 0
  84 0030 2368     		ldr	r3, [r4]
  85 0032 9B7C     		ldrb	r3, [r3, #18]	@ zero_extendqisi2
  86 0034 04E0     		b	.L15
  87              	.LVL7:
  88              	.L9:
 112:..\..\..\u8g2\u8g2\csrc/u8x8_d_st7571.c ****       }
 113:..\..\..\u8g2\u8g2\csrc/u8x8_d_st7571.c ****       else
 114:..\..\..\u8g2\u8g2\csrc/u8x8_d_st7571.c ****       {
 115:..\..\..\u8g2\u8g2\csrc/u8x8_d_st7571.c **** 	u8x8_cad_SendSequence(u8x8, u8x8_d_st7571_128x128_flip1_seq);
  89              		.loc 1 115 0
  90 0036 2249     		ldr	r1, .L18+12
  91 0038 FFF7FEFF 		bl	u8x8_cad_SendSequence
  92              	.LVL8:
 116:..\..\..\u8g2\u8g2\csrc/u8x8_d_st7571.c **** 	u8x8->x_offset = u8x8->display_info->flipmode_x_offset;
  93              		.loc 1 116 0
  94 003c 2368     		ldr	r3, [r4]
  95 003e DB7C     		ldrb	r3, [r3, #19]	@ zero_extendqisi2
  96              	.L15:
  97 0040 84F82230 		strb	r3, [r4, #34]
  98 0044 0CE0     		b	.L13
  99              	.LVL9:
 100              	.L6:
 117:..\..\..\u8g2\u8g2\csrc/u8x8_d_st7571.c ****       }
 118:..\..\..\u8g2\u8g2\csrc/u8x8_d_st7571.c ****       break;
 119:..\..\..\u8g2\u8g2\csrc/u8x8_d_st7571.c **** #ifdef U8X8_WITH_SET_CONTRAST
 120:..\..\..\u8g2\u8g2\csrc/u8x8_d_st7571.c ****     case U8X8_MSG_DISPLAY_SET_CONTRAST:
 121:..\..\..\u8g2\u8g2\csrc/u8x8_d_st7571.c ****       u8x8_cad_StartTransfer(u8x8);
 101              		.loc 1 121 0
 102 0046 FFF7FEFF 		bl	u8x8_cad_StartTransfer
 103              	.LVL10:
 122:..\..\..\u8g2\u8g2\csrc/u8x8_d_st7571.c ****       u8x8_cad_SendCmd(u8x8, 0x081 );
 104              		.loc 1 122 0
ARM GAS  C:\Users\jesse\AppData\Local\Temp\ccABesPa.s 			page 5


 105 004a 8121     		movs	r1, #129
 106 004c 2046     		mov	r0, r4
 107 004e FFF7FEFF 		bl	u8x8_cad_SendCmd
 108              	.LVL11:
 123:..\..\..\u8g2\u8g2\csrc/u8x8_d_st7571.c ****       u8x8_cad_SendArg(u8x8, arg_int>>2);			// 6 bit for the ST7571
 109              		.loc 1 123 0
 110 0052 A908     		lsrs	r1, r5, #2
 111 0054 2046     		mov	r0, r4
 112 0056 FFF7FEFF 		bl	u8x8_cad_SendArg
 113              	.LVL12:
 114              	.L14:
 124:..\..\..\u8g2\u8g2\csrc/u8x8_d_st7571.c ****       u8x8_cad_EndTransfer(u8x8);
 115              		.loc 1 124 0
 116 005a 2046     		mov	r0, r4
 117 005c FFF7FEFF 		bl	u8x8_cad_EndTransfer
 118              	.LVL13:
 119              	.L13:
 125:..\..\..\u8g2\u8g2\csrc/u8x8_d_st7571.c ****       break;
 126:..\..\..\u8g2\u8g2\csrc/u8x8_d_st7571.c **** #endif
 127:..\..\..\u8g2\u8g2\csrc/u8x8_d_st7571.c ****     case U8X8_MSG_DISPLAY_DRAW_TILE:
 128:..\..\..\u8g2\u8g2\csrc/u8x8_d_st7571.c ****       u8x8_cad_StartTransfer(u8x8);
 129:..\..\..\u8g2\u8g2\csrc/u8x8_d_st7571.c **** 
 130:..\..\..\u8g2\u8g2\csrc/u8x8_d_st7571.c **** 
 131:..\..\..\u8g2\u8g2\csrc/u8x8_d_st7571.c ****       x = ((u8x8_tile_t *)arg_ptr)->x_pos;    
 132:..\..\..\u8g2\u8g2\csrc/u8x8_d_st7571.c ****       x *= 8;
 133:..\..\..\u8g2\u8g2\csrc/u8x8_d_st7571.c ****       x += u8x8->x_offset;
 134:..\..\..\u8g2\u8g2\csrc/u8x8_d_st7571.c ****       u8x8_cad_SendCmd(u8x8, 0x010 | (x>>4) );
 135:..\..\..\u8g2\u8g2\csrc/u8x8_d_st7571.c ****       u8x8_cad_SendCmd(u8x8, 0x000 | ((x&15)));
 136:..\..\..\u8g2\u8g2\csrc/u8x8_d_st7571.c ****       u8x8_cad_SendCmd(u8x8, 0x0b0 | (((u8x8_tile_t *)arg_ptr)->y_pos));
 137:..\..\..\u8g2\u8g2\csrc/u8x8_d_st7571.c ****     
 138:..\..\..\u8g2\u8g2\csrc/u8x8_d_st7571.c **** 
 139:..\..\..\u8g2\u8g2\csrc/u8x8_d_st7571.c **** 
 140:..\..\..\u8g2\u8g2\csrc/u8x8_d_st7571.c ****       do
 141:..\..\..\u8g2\u8g2\csrc/u8x8_d_st7571.c ****       {
 142:..\..\..\u8g2\u8g2\csrc/u8x8_d_st7571.c ****         c = ((u8x8_tile_t *)arg_ptr)->cnt;
 143:..\..\..\u8g2\u8g2\csrc/u8x8_d_st7571.c ****         ptr = ((u8x8_tile_t *)arg_ptr)->tile_ptr;
 144:..\..\..\u8g2\u8g2\csrc/u8x8_d_st7571.c ****         /* SendData can not handle more than 255 bytes */
 145:..\..\..\u8g2\u8g2\csrc/u8x8_d_st7571.c **** 	/*
 146:..\..\..\u8g2\u8g2\csrc/u8x8_d_st7571.c ****         if ( c > 31 )
 147:..\..\..\u8g2\u8g2\csrc/u8x8_d_st7571.c ****         {
 148:..\..\..\u8g2\u8g2\csrc/u8x8_d_st7571.c ****           u8x8_cad_SendData(u8x8, 31*8, ptr); 
 149:..\..\..\u8g2\u8g2\csrc/u8x8_d_st7571.c ****           ptr+=31*8;
 150:..\..\..\u8g2\u8g2\csrc/u8x8_d_st7571.c ****           c -= 31;
 151:..\..\..\u8g2\u8g2\csrc/u8x8_d_st7571.c ****         }
 152:..\..\..\u8g2\u8g2\csrc/u8x8_d_st7571.c **** 	*/
 153:..\..\..\u8g2\u8g2\csrc/u8x8_d_st7571.c ****         
 154:..\..\..\u8g2\u8g2\csrc/u8x8_d_st7571.c ****         u8x8_cad_SendData(u8x8, c*8, ptr); 	
 155:..\..\..\u8g2\u8g2\csrc/u8x8_d_st7571.c ****         arg_int--;
 156:..\..\..\u8g2\u8g2\csrc/u8x8_d_st7571.c ****       } while( arg_int > 0 );
 157:..\..\..\u8g2\u8g2\csrc/u8x8_d_st7571.c **** 
 158:..\..\..\u8g2\u8g2\csrc/u8x8_d_st7571.c ****       
 159:..\..\..\u8g2\u8g2\csrc/u8x8_d_st7571.c ****       u8x8_cad_EndTransfer(u8x8);
 160:..\..\..\u8g2\u8g2\csrc/u8x8_d_st7571.c ****       break;
 161:..\..\..\u8g2\u8g2\csrc/u8x8_d_st7571.c ****     default:
 162:..\..\..\u8g2\u8g2\csrc/u8x8_d_st7571.c ****       return 0;
 163:..\..\..\u8g2\u8g2\csrc/u8x8_d_st7571.c ****   }
 164:..\..\..\u8g2\u8g2\csrc/u8x8_d_st7571.c ****   return 1;
ARM GAS  C:\Users\jesse\AppData\Local\Temp\ccABesPa.s 			page 6


 120              		.loc 1 164 0
 121 0060 0120     		movs	r0, #1
 125:..\..\..\u8g2\u8g2\csrc/u8x8_d_st7571.c ****       break;
 122              		.loc 1 125 0
 123 0062 F8BD     		pop	{r3, r4, r5, r6, r7, pc}
 124              	.LVL14:
 125              	.L7:
 128:..\..\..\u8g2\u8g2\csrc/u8x8_d_st7571.c **** 
 126              		.loc 1 128 0
 127 0064 FFF7FEFF 		bl	u8x8_cad_StartTransfer
 128              	.LVL15:
 133:..\..\..\u8g2\u8g2\csrc/u8x8_d_st7571.c ****       u8x8_cad_SendCmd(u8x8, 0x010 | (x>>4) );
 129              		.loc 1 133 0
 130 0068 94F82230 		ldrb	r3, [r4, #34]	@ zero_extendqisi2
 131:..\..\..\u8g2\u8g2\csrc/u8x8_d_st7571.c ****       x *= 8;
 131              		.loc 1 131 0
 132 006c 7779     		ldrb	r7, [r6, #5]	@ zero_extendqisi2
 133              	.LVL16:
 134:..\..\..\u8g2\u8g2\csrc/u8x8_d_st7571.c ****       u8x8_cad_SendCmd(u8x8, 0x000 | ((x&15)));
 134              		.loc 1 134 0
 135 006e 2046     		mov	r0, r4
 133:..\..\..\u8g2\u8g2\csrc/u8x8_d_st7571.c ****       u8x8_cad_SendCmd(u8x8, 0x010 | (x>>4) );
 136              		.loc 1 133 0
 137 0070 03EBC707 		add	r7, r3, r7, lsl #3
 138              	.LVL17:
 134:..\..\..\u8g2\u8g2\csrc/u8x8_d_st7571.c ****       u8x8_cad_SendCmd(u8x8, 0x000 | ((x&15)));
 139              		.loc 1 134 0
 140 0074 3909     		lsrs	r1, r7, #4
 141 0076 41F01001 		orr	r1, r1, #16
 142 007a C9B2     		uxtb	r1, r1
 143 007c FFF7FEFF 		bl	u8x8_cad_SendCmd
 144              	.LVL18:
 135:..\..\..\u8g2\u8g2\csrc/u8x8_d_st7571.c ****       u8x8_cad_SendCmd(u8x8, 0x0b0 | (((u8x8_tile_t *)arg_ptr)->y_pos));
 145              		.loc 1 135 0
 146 0080 07F00F01 		and	r1, r7, #15
 147 0084 2046     		mov	r0, r4
 148 0086 FFF7FEFF 		bl	u8x8_cad_SendCmd
 149              	.LVL19:
 136:..\..\..\u8g2\u8g2\csrc/u8x8_d_st7571.c ****     
 150              		.loc 1 136 0
 151 008a B179     		ldrb	r1, [r6, #6]	@ zero_extendqisi2
 152 008c 2046     		mov	r0, r4
 153 008e 41F0B001 		orr	r1, r1, #176
 154 0092 FFF7FEFF 		bl	u8x8_cad_SendCmd
 155              	.LVL20:
 156              	.L10:
 154:..\..\..\u8g2\u8g2\csrc/u8x8_d_st7571.c ****         arg_int--;
 157              		.loc 1 154 0 discriminator 1
 158 0096 3179     		ldrb	r1, [r6, #4]	@ zero_extendqisi2
 159 0098 3268     		ldr	r2, [r6]
 160 009a C900     		lsls	r1, r1, #3
 161 009c 01F0F801 		and	r1, r1, #248
 162 00a0 2046     		mov	r0, r4
 155:..\..\..\u8g2\u8g2\csrc/u8x8_d_st7571.c ****       } while( arg_int > 0 );
 163              		.loc 1 155 0 discriminator 1
 164 00a2 013D     		subs	r5, r5, #1
 165              	.LVL21:
ARM GAS  C:\Users\jesse\AppData\Local\Temp\ccABesPa.s 			page 7


 154:..\..\..\u8g2\u8g2\csrc/u8x8_d_st7571.c ****         arg_int--;
 166              		.loc 1 154 0 discriminator 1
 167 00a4 FFF7FEFF 		bl	u8x8_cad_SendData
 168              	.LVL22:
 156:..\..\..\u8g2\u8g2\csrc/u8x8_d_st7571.c **** 
 169              		.loc 1 156 0 discriminator 1
 170 00a8 15F0FF05 		ands	r5, r5, #255
 171              	.LVL23:
 172 00ac F3D1     		bne	.L10
 173 00ae D4E7     		b	.L14
 174              	.LVL24:
 175              	.L11:
 162:..\..\..\u8g2\u8g2\csrc/u8x8_d_st7571.c ****   }
 176              		.loc 1 162 0
 177 00b0 0020     		movs	r0, #0
 178              	.LVL25:
 165:..\..\..\u8g2\u8g2\csrc/u8x8_d_st7571.c **** }
 179              		.loc 1 165 0
 180 00b2 F8BD     		pop	{r3, r4, r5, r6, r7, pc}
 181              	.LVL26:
 182              	.L19:
 183              		.align	2
 184              	.L18:
 185 00b4 00000000 		.word	.LANCHOR0
 186 00b8 09000000 		.word	.LANCHOR0+9
 187 00bc 10000000 		.word	.LANCHOR0+16
 188 00c0 17000000 		.word	.LANCHOR0+23
 189              		.cfi_endproc
 190              	.LFE0:
 191              		.size	u8x8_d_st7571_generic, .-u8x8_d_st7571_generic
 192              		.section	.text.u8x8_d_st7571_128x128,"ax",%progbits
 193              		.align	1
 194              		.global	u8x8_d_st7571_128x128
 195              		.thumb
 196              		.thumb_func
 197              		.type	u8x8_d_st7571_128x128, %function
 198              	u8x8_d_st7571_128x128:
 199              	.LFB1:
 166:..\..\..\u8g2\u8g2\csrc/u8x8_d_st7571.c **** 
 167:..\..\..\u8g2\u8g2\csrc/u8x8_d_st7571.c **** /*===================================================*/
 168:..\..\..\u8g2\u8g2\csrc/u8x8_d_st7571.c **** 
 169:..\..\..\u8g2\u8g2\csrc/u8x8_d_st7571.c **** 
 170:..\..\..\u8g2\u8g2\csrc/u8x8_d_st7571.c **** /* QT-2832TSWUG02/ZJY-2832TSWZG02 */
 171:..\..\..\u8g2\u8g2\csrc/u8x8_d_st7571.c **** /* fixed the 0x40 and 0x48 commands, verified with FlipMode example: All ok */
 172:..\..\..\u8g2\u8g2\csrc/u8x8_d_st7571.c **** static const uint8_t u8x8_d_st7571_128x128_init_seq[] = {
 173:..\..\..\u8g2\u8g2\csrc/u8x8_d_st7571.c ****     
 174:..\..\..\u8g2\u8g2\csrc/u8x8_d_st7571.c ****   U8X8_START_TRANSFER(),             	/* enable chip, delay is part of the transfer start */
 175:..\..\..\u8g2\u8g2\csrc/u8x8_d_st7571.c **** 
 176:..\..\..\u8g2\u8g2\csrc/u8x8_d_st7571.c ****   
 177:..\..\..\u8g2\u8g2\csrc/u8x8_d_st7571.c ****   U8X8_C(0xAE), 				// Display OFF
 178:..\..\..\u8g2\u8g2\csrc/u8x8_d_st7571.c ****   U8X8_C(0x38), 				// Mode Set  
 179:..\..\..\u8g2\u8g2\csrc/u8x8_d_st7571.c ****   U8X8_C(0xB8), 				// FR=1011 (85Hz), BE[1:0]=10, level 3 booster
 180:..\..\..\u8g2\u8g2\csrc/u8x8_d_st7571.c ****   
 181:..\..\..\u8g2\u8g2\csrc/u8x8_d_st7571.c ****   
 182:..\..\..\u8g2\u8g2\csrc/u8x8_d_st7571.c ****   U8X8_C(0xA0), 				// ADC select
 183:..\..\..\u8g2\u8g2\csrc/u8x8_d_st7571.c ****   U8X8_C(0xC8), 				// SHL select
 184:..\..\..\u8g2\u8g2\csrc/u8x8_d_st7571.c ****   U8X8_CA(0x44, 0x00), 		// COM0 register  
ARM GAS  C:\Users\jesse\AppData\Local\Temp\ccABesPa.s 			page 8


 185:..\..\..\u8g2\u8g2\csrc/u8x8_d_st7571.c ****   U8X8_CA(0x40, 0x0), 		// initial display line  (0x7f... strange but ok... maybe specific for the 
 186:..\..\..\u8g2\u8g2\csrc/u8x8_d_st7571.c ****                                                         // 2 sep 2021: maybe this also wrong becaus
 187:..\..\..\u8g2\u8g2\csrc/u8x8_d_st7571.c ****                                                         // 4 Mar 2022: Changed to 0
 188:..\..\..\u8g2\u8g2\csrc/u8x8_d_st7571.c ****   
 189:..\..\..\u8g2\u8g2\csrc/u8x8_d_st7571.c ****   U8X8_C(0xAB), 				// OSC ON  
 190:..\..\..\u8g2\u8g2\csrc/u8x8_d_st7571.c ****   U8X8_C(0x25), 				// Voltage regulator
 191:..\..\..\u8g2\u8g2\csrc/u8x8_d_st7571.c ****   U8X8_CA(0x81, 0x33), 		// Volume
 192:..\..\..\u8g2\u8g2\csrc/u8x8_d_st7571.c ****   U8X8_C(0x54), 				// LCD Bias: 0x056=1/11 (1/11 according to JLX128128 datasheet), 0x054=1/9
 193:..\..\..\u8g2\u8g2\csrc/u8x8_d_st7571.c ****   U8X8_CA(0x48, 0x80), 		// Duty 1/128   // 2 Sep 2021: Should this be 00x48???  
 194:..\..\..\u8g2\u8g2\csrc/u8x8_d_st7571.c ****                                                         // 4 Mar 2022, cmd changed to 0x48, arg cha
 195:..\..\..\u8g2\u8g2\csrc/u8x8_d_st7571.c ****   
 196:..\..\..\u8g2\u8g2\csrc/u8x8_d_st7571.c ****   U8X8_C(0x2C), 				// Power Control, VC: ON, VR: OFF, VF: OFF
 197:..\..\..\u8g2\u8g2\csrc/u8x8_d_st7571.c ****   U8X8_DLY(200),
 198:..\..\..\u8g2\u8g2\csrc/u8x8_d_st7571.c ****   U8X8_C(0x2E), 				// Power Control, VC: ON, VR: ON, VF: OFF
 199:..\..\..\u8g2\u8g2\csrc/u8x8_d_st7571.c ****   U8X8_DLY(200),
 200:..\..\..\u8g2\u8g2\csrc/u8x8_d_st7571.c ****   U8X8_C(0x2F), 				// Power Control, VC: ON, VR: ON, VF: ON
 201:..\..\..\u8g2\u8g2\csrc/u8x8_d_st7571.c ****   U8X8_DLY(10),
 202:..\..\..\u8g2\u8g2\csrc/u8x8_d_st7571.c **** 
 203:..\..\..\u8g2\u8g2\csrc/u8x8_d_st7571.c ****   U8X8_C(0x7B), 				// command set 3
 204:..\..\..\u8g2\u8g2\csrc/u8x8_d_st7571.c ****   U8X8_C(0x11), 				// black white mode
 205:..\..\..\u8g2\u8g2\csrc/u8x8_d_st7571.c ****   U8X8_C(0x00), 				// exit command set 3
 206:..\..\..\u8g2\u8g2\csrc/u8x8_d_st7571.c **** 
 207:..\..\..\u8g2\u8g2\csrc/u8x8_d_st7571.c **** 
 208:..\..\..\u8g2\u8g2\csrc/u8x8_d_st7571.c ****   U8X8_C(0xA6), 				// Display Inverse OFF
 209:..\..\..\u8g2\u8g2\csrc/u8x8_d_st7571.c ****   U8X8_C(0xA4), 				// Disable Display All Pixel ON
 210:..\..\..\u8g2\u8g2\csrc/u8x8_d_st7571.c **** 
 211:..\..\..\u8g2\u8g2\csrc/u8x8_d_st7571.c ****   //U8X8_C(0xAF), 				// Display on
 212:..\..\..\u8g2\u8g2\csrc/u8x8_d_st7571.c **** 
 213:..\..\..\u8g2\u8g2\csrc/u8x8_d_st7571.c **** 
 214:..\..\..\u8g2\u8g2\csrc/u8x8_d_st7571.c ****   U8X8_END_TRANSFER(),             	/* disable chip */
 215:..\..\..\u8g2\u8g2\csrc/u8x8_d_st7571.c ****   U8X8_END()           			/* end of sequence */
 216:..\..\..\u8g2\u8g2\csrc/u8x8_d_st7571.c **** };
 217:..\..\..\u8g2\u8g2\csrc/u8x8_d_st7571.c **** 
 218:..\..\..\u8g2\u8g2\csrc/u8x8_d_st7571.c **** 
 219:..\..\..\u8g2\u8g2\csrc/u8x8_d_st7571.c **** 
 220:..\..\..\u8g2\u8g2\csrc/u8x8_d_st7571.c **** 
 221:..\..\..\u8g2\u8g2\csrc/u8x8_d_st7571.c **** static const u8x8_display_info_t u8x8_st7571_128x128_display_info =
 222:..\..\..\u8g2\u8g2\csrc/u8x8_d_st7571.c **** {
 223:..\..\..\u8g2\u8g2\csrc/u8x8_d_st7571.c ****   /* chip_enable_level = */ 0,
 224:..\..\..\u8g2\u8g2\csrc/u8x8_d_st7571.c ****   /* chip_disable_level = */ 1,
 225:..\..\..\u8g2\u8g2\csrc/u8x8_d_st7571.c ****   
 226:..\..\..\u8g2\u8g2\csrc/u8x8_d_st7571.c ****   /* post_chip_enable_wait_ns = */ 20,
 227:..\..\..\u8g2\u8g2\csrc/u8x8_d_st7571.c ****   /* pre_chip_disable_wait_ns = */ 20,
 228:..\..\..\u8g2\u8g2\csrc/u8x8_d_st7571.c ****   /* reset_pulse_width_ms = */ 5, 	
 229:..\..\..\u8g2\u8g2\csrc/u8x8_d_st7571.c ****   /* post_reset_wait_ms = */ 5, 		/**/
 230:..\..\..\u8g2\u8g2\csrc/u8x8_d_st7571.c ****   /* sda_setup_time_ns = */ 20,		/* */
 231:..\..\..\u8g2\u8g2\csrc/u8x8_d_st7571.c ****   /* sck_pulse_width_ns = */ 40,	/*  */
 232:..\..\..\u8g2\u8g2\csrc/u8x8_d_st7571.c ****   /* sck_clock_hz = */ 4000000UL,	/* since Arduino 1.6.0, the SPI bus speed in Hz. Should be  10000
 233:..\..\..\u8g2\u8g2\csrc/u8x8_d_st7571.c ****   /* spi_mode = */ 0,		/* active high, rising edge */
 234:..\..\..\u8g2\u8g2\csrc/u8x8_d_st7571.c ****   /* i2c_bus_clock_100kHz = */ 4,	/* 400KHz */
 235:..\..\..\u8g2\u8g2\csrc/u8x8_d_st7571.c ****   /* data_setup_time_ns = */ 15,
 236:..\..\..\u8g2\u8g2\csrc/u8x8_d_st7571.c ****   /* write_pulse_width_ns = */ 70,	
 237:..\..\..\u8g2\u8g2\csrc/u8x8_d_st7571.c ****   /* tile_width = */ 16,
 238:..\..\..\u8g2\u8g2\csrc/u8x8_d_st7571.c ****   /* tile_hight = */ 16,
 239:..\..\..\u8g2\u8g2\csrc/u8x8_d_st7571.c ****   /* default_x_offset = */ 0,
 240:..\..\..\u8g2\u8g2\csrc/u8x8_d_st7571.c ****   /* flipmode_x_offset = */ 0,
 241:..\..\..\u8g2\u8g2\csrc/u8x8_d_st7571.c ****   /* pixel_width = */ 128,
ARM GAS  C:\Users\jesse\AppData\Local\Temp\ccABesPa.s 			page 9


 242:..\..\..\u8g2\u8g2\csrc/u8x8_d_st7571.c ****   /* pixel_height = */ 128
 243:..\..\..\u8g2\u8g2\csrc/u8x8_d_st7571.c **** };
 244:..\..\..\u8g2\u8g2\csrc/u8x8_d_st7571.c **** 
 245:..\..\..\u8g2\u8g2\csrc/u8x8_d_st7571.c **** uint8_t u8x8_d_st7571_128x128(u8x8_t *u8x8, uint8_t msg, uint8_t arg_int, void *arg_ptr)
 246:..\..\..\u8g2\u8g2\csrc/u8x8_d_st7571.c **** {
 200              		.loc 1 246 0
 201              		.cfi_startproc
 202              		@ args = 0, pretend = 0, frame = 0
 203              		@ frame_needed = 0, uses_anonymous_args = 0
 204              	.LVL27:
 205 0000 38B5     		push	{r3, r4, r5, lr}
 206              		.cfi_def_cfa_offset 16
 207              		.cfi_offset 3, -16
 208              		.cfi_offset 4, -12
 209              		.cfi_offset 5, -8
 210              		.cfi_offset 14, -4
 211              		.loc 1 246 0
 212 0002 0446     		mov	r4, r0
 213 0004 0D46     		mov	r5, r1
 247:..\..\..\u8g2\u8g2\csrc/u8x8_d_st7571.c ****     
 248:..\..\..\u8g2\u8g2\csrc/u8x8_d_st7571.c ****   if ( u8x8_d_st7571_generic(u8x8, msg, arg_int, arg_ptr) != 0 )
 214              		.loc 1 248 0
 215 0006 FFF7FEFF 		bl	u8x8_d_st7571_generic
 216              	.LVL28:
 217 000a 78B9     		cbnz	r0, .L24
 249:..\..\..\u8g2\u8g2\csrc/u8x8_d_st7571.c ****     return 1;
 250:..\..\..\u8g2\u8g2\csrc/u8x8_d_st7571.c ****   
 251:..\..\..\u8g2\u8g2\csrc/u8x8_d_st7571.c ****   switch(msg)
 218              		.loc 1 251 0
 219 000c 092D     		cmp	r5, #9
 220 000e 09D0     		beq	.L22
 221 0010 0A2D     		cmp	r5, #10
 222 0012 0CD1     		bne	.L21
 252:..\..\..\u8g2\u8g2\csrc/u8x8_d_st7571.c ****   {
 253:..\..\..\u8g2\u8g2\csrc/u8x8_d_st7571.c ****     case U8X8_MSG_DISPLAY_INIT:
 254:..\..\..\u8g2\u8g2\csrc/u8x8_d_st7571.c ****       u8x8_d_helper_display_init(u8x8);
 223              		.loc 1 254 0
 224 0014 2046     		mov	r0, r4
 225 0016 FFF7FEFF 		bl	u8x8_d_helper_display_init
 226              	.LVL29:
 255:..\..\..\u8g2\u8g2\csrc/u8x8_d_st7571.c ****       u8x8_cad_SendSequence(u8x8, u8x8_d_st7571_128x128_init_seq); 
 227              		.loc 1 255 0
 228 001a 0549     		ldr	r1, .L25
 229 001c 2046     		mov	r0, r4
 230 001e FFF7FEFF 		bl	u8x8_cad_SendSequence
 231              	.LVL30:
 232 0022 03E0     		b	.L24
 233              	.L22:
 256:..\..\..\u8g2\u8g2\csrc/u8x8_d_st7571.c ****       break;
 257:..\..\..\u8g2\u8g2\csrc/u8x8_d_st7571.c ****     case U8X8_MSG_DISPLAY_SETUP_MEMORY:
 258:..\..\..\u8g2\u8g2\csrc/u8x8_d_st7571.c ****       u8x8_d_helper_display_setup_memory(u8x8, &u8x8_st7571_128x128_display_info);
 234              		.loc 1 258 0
 235 0024 0349     		ldr	r1, .L25+4
 236 0026 2046     		mov	r0, r4
 237 0028 FFF7FEFF 		bl	u8x8_d_helper_display_setup_memory
 238              	.LVL31:
 239              	.L24:
ARM GAS  C:\Users\jesse\AppData\Local\Temp\ccABesPa.s 			page 10


 249:..\..\..\u8g2\u8g2\csrc/u8x8_d_st7571.c ****   
 240              		.loc 1 249 0
 241 002c 0120     		movs	r0, #1
 242              	.L21:
 259:..\..\..\u8g2\u8g2\csrc/u8x8_d_st7571.c ****       break;
 260:..\..\..\u8g2\u8g2\csrc/u8x8_d_st7571.c ****     default:
 261:..\..\..\u8g2\u8g2\csrc/u8x8_d_st7571.c ****       return 0;
 262:..\..\..\u8g2\u8g2\csrc/u8x8_d_st7571.c ****   }
 263:..\..\..\u8g2\u8g2\csrc/u8x8_d_st7571.c ****   return 1;
 264:..\..\..\u8g2\u8g2\csrc/u8x8_d_st7571.c **** }
 243              		.loc 1 264 0
 244 002e 38BD     		pop	{r3, r4, r5, pc}
 245              	.LVL32:
 246              	.L26:
 247              		.align	2
 248              	.L25:
 249 0030 1E000000 		.word	.LANCHOR0+30
 250 0034 58000000 		.word	.LANCHOR0+88
 251              		.cfi_endproc
 252              	.LFE1:
 253              		.size	u8x8_d_st7571_128x128, .-u8x8_d_st7571_128x128
 254              		.section	.text.u8x8_d_st7571_128x96,"ax",%progbits
 255              		.align	1
 256              		.global	u8x8_d_st7571_128x96
 257              		.thumb
 258              		.thumb_func
 259              		.type	u8x8_d_st7571_128x96, %function
 260              	u8x8_d_st7571_128x96:
 261              	.LFB2:
 265:..\..\..\u8g2\u8g2\csrc/u8x8_d_st7571.c **** 
 266:..\..\..\u8g2\u8g2\csrc/u8x8_d_st7571.c **** 
 267:..\..\..\u8g2\u8g2\csrc/u8x8_d_st7571.c **** 
 268:..\..\..\u8g2\u8g2\csrc/u8x8_d_st7571.c **** 
 269:..\..\..\u8g2\u8g2\csrc/u8x8_d_st7571.c **** /*===================================================*/
 270:..\..\..\u8g2\u8g2\csrc/u8x8_d_st7571.c **** /*
 271:..\..\..\u8g2\u8g2\csrc/u8x8_d_st7571.c ****   https://github.com/olikraus/u8g2/issues/1575
 272:..\..\..\u8g2\u8g2\csrc/u8x8_d_st7571.c ****   http://www.jlxlcd.cn/html/zh-detail-1211.html 
 273:..\..\..\u8g2\u8g2\csrc/u8x8_d_st7571.c **** */
 274:..\..\..\u8g2\u8g2\csrc/u8x8_d_st7571.c **** static const uint8_t u8x8_d_st7571_128x96_init_seq[] = {
 275:..\..\..\u8g2\u8g2\csrc/u8x8_d_st7571.c ****     
 276:..\..\..\u8g2\u8g2\csrc/u8x8_d_st7571.c ****   U8X8_START_TRANSFER(),             	/* enable chip, delay is part of the transfer start */
 277:..\..\..\u8g2\u8g2\csrc/u8x8_d_st7571.c **** 
 278:..\..\..\u8g2\u8g2\csrc/u8x8_d_st7571.c ****   
 279:..\..\..\u8g2\u8g2\csrc/u8x8_d_st7571.c ****   U8X8_C(0xAE), 				// Display OFF
 280:..\..\..\u8g2\u8g2\csrc/u8x8_d_st7571.c ****   U8X8_C(0x38), 				// Mode Set  
 281:..\..\..\u8g2\u8g2\csrc/u8x8_d_st7571.c ****   //U8X8_C(0xB8), 				// FR=1011 (85Hz), BE[1:0]=10, level 3 booster
 282:..\..\..\u8g2\u8g2\csrc/u8x8_d_st7571.c ****   U8X8_C(0x94),                                 // 128x96: 75 Hz 
 283:..\..\..\u8g2\u8g2\csrc/u8x8_d_st7571.c ****   
 284:..\..\..\u8g2\u8g2\csrc/u8x8_d_st7571.c ****   U8X8_C(0xA0), 				// ADC select
 285:..\..\..\u8g2\u8g2\csrc/u8x8_d_st7571.c ****   U8X8_C(0xC8), 				// SHL select
 286:..\..\..\u8g2\u8g2\csrc/u8x8_d_st7571.c ****   U8X8_CA(0x44, 0x20), 		// 128x96: COM0 register  
 287:..\..\..\u8g2\u8g2\csrc/u8x8_d_st7571.c ****   U8X8_CA(0x40, 0x00), 		// 128x96 datasheet
 288:..\..\..\u8g2\u8g2\csrc/u8x8_d_st7571.c ****   
 289:..\..\..\u8g2\u8g2\csrc/u8x8_d_st7571.c ****   U8X8_C(0xAB), 				// OSC ON  
 290:..\..\..\u8g2\u8g2\csrc/u8x8_d_st7571.c ****   U8X8_C(0x27), 				// 128x96: Voltage regulator
 291:..\..\..\u8g2\u8g2\csrc/u8x8_d_st7571.c ****   U8X8_CA(0x81, 0x28), 		// 128x96: Volume
 292:..\..\..\u8g2\u8g2\csrc/u8x8_d_st7571.c ****   U8X8_C(0x57), 				// 128x96: LCD Bias: 1/12 
ARM GAS  C:\Users\jesse\AppData\Local\Temp\ccABesPa.s 			page 11


 293:..\..\..\u8g2\u8g2\csrc/u8x8_d_st7571.c ****   U8X8_CA(0x48, 0x61), 		// 128x96: Duty 1/96
 294:..\..\..\u8g2\u8g2\csrc/u8x8_d_st7571.c ****   
 295:..\..\..\u8g2\u8g2\csrc/u8x8_d_st7571.c ****   U8X8_C(0x2C), 				// Power Control, VC: ON, VR: OFF, VF: OFF
 296:..\..\..\u8g2\u8g2\csrc/u8x8_d_st7571.c ****   U8X8_DLY(200),
 297:..\..\..\u8g2\u8g2\csrc/u8x8_d_st7571.c ****   U8X8_C(0x2E), 				// Power Control, VC: ON, VR: ON, VF: OFF
 298:..\..\..\u8g2\u8g2\csrc/u8x8_d_st7571.c ****   U8X8_DLY(200),
 299:..\..\..\u8g2\u8g2\csrc/u8x8_d_st7571.c ****   U8X8_C(0x2F), 				// Power Control, VC: ON, VR: ON, VF: ON
 300:..\..\..\u8g2\u8g2\csrc/u8x8_d_st7571.c ****   U8X8_DLY(10),
 301:..\..\..\u8g2\u8g2\csrc/u8x8_d_st7571.c **** 
 302:..\..\..\u8g2\u8g2\csrc/u8x8_d_st7571.c ****   U8X8_C(0x7B), 				// command set 3
 303:..\..\..\u8g2\u8g2\csrc/u8x8_d_st7571.c ****   U8X8_C(0x11), 				// black white mode
 304:..\..\..\u8g2\u8g2\csrc/u8x8_d_st7571.c ****   U8X8_C(0x00), 				// exit command set 3
 305:..\..\..\u8g2\u8g2\csrc/u8x8_d_st7571.c **** 
 306:..\..\..\u8g2\u8g2\csrc/u8x8_d_st7571.c **** 
 307:..\..\..\u8g2\u8g2\csrc/u8x8_d_st7571.c ****   U8X8_C(0xA6), 				// Display Inverse OFF
 308:..\..\..\u8g2\u8g2\csrc/u8x8_d_st7571.c ****   U8X8_C(0xA4), 				// Disable Display All Pixel ON
 309:..\..\..\u8g2\u8g2\csrc/u8x8_d_st7571.c **** 
 310:..\..\..\u8g2\u8g2\csrc/u8x8_d_st7571.c ****   //U8X8_C(0xAF), 				// Display on
 311:..\..\..\u8g2\u8g2\csrc/u8x8_d_st7571.c **** 
 312:..\..\..\u8g2\u8g2\csrc/u8x8_d_st7571.c **** 
 313:..\..\..\u8g2\u8g2\csrc/u8x8_d_st7571.c ****   U8X8_END_TRANSFER(),             	/* disable chip */
 314:..\..\..\u8g2\u8g2\csrc/u8x8_d_st7571.c ****   U8X8_END()           			/* end of sequence */
 315:..\..\..\u8g2\u8g2\csrc/u8x8_d_st7571.c **** };
 316:..\..\..\u8g2\u8g2\csrc/u8x8_d_st7571.c **** 
 317:..\..\..\u8g2\u8g2\csrc/u8x8_d_st7571.c **** 
 318:..\..\..\u8g2\u8g2\csrc/u8x8_d_st7571.c **** 
 319:..\..\..\u8g2\u8g2\csrc/u8x8_d_st7571.c **** 
 320:..\..\..\u8g2\u8g2\csrc/u8x8_d_st7571.c **** static const u8x8_display_info_t u8x8_st7571_128x96_display_info =
 321:..\..\..\u8g2\u8g2\csrc/u8x8_d_st7571.c **** {
 322:..\..\..\u8g2\u8g2\csrc/u8x8_d_st7571.c ****   /* chip_enable_level = */ 0,
 323:..\..\..\u8g2\u8g2\csrc/u8x8_d_st7571.c ****   /* chip_disable_level = */ 1,
 324:..\..\..\u8g2\u8g2\csrc/u8x8_d_st7571.c ****   
 325:..\..\..\u8g2\u8g2\csrc/u8x8_d_st7571.c ****   /* post_chip_enable_wait_ns = */ 20,
 326:..\..\..\u8g2\u8g2\csrc/u8x8_d_st7571.c ****   /* pre_chip_disable_wait_ns = */ 20,
 327:..\..\..\u8g2\u8g2\csrc/u8x8_d_st7571.c ****   /* reset_pulse_width_ms = */ 5, 	
 328:..\..\..\u8g2\u8g2\csrc/u8x8_d_st7571.c ****   /* post_reset_wait_ms = */ 5, 		/**/
 329:..\..\..\u8g2\u8g2\csrc/u8x8_d_st7571.c ****   /* sda_setup_time_ns = */ 20,		/* */
 330:..\..\..\u8g2\u8g2\csrc/u8x8_d_st7571.c ****   /* sck_pulse_width_ns = */ 40,	/*  */
 331:..\..\..\u8g2\u8g2\csrc/u8x8_d_st7571.c ****   /* sck_clock_hz = */ 4000000UL,	/* since Arduino 1.6.0, the SPI bus speed in Hz. Should be  10000
 332:..\..\..\u8g2\u8g2\csrc/u8x8_d_st7571.c ****   /* spi_mode = */ 0,		/* active high, rising edge */
 333:..\..\..\u8g2\u8g2\csrc/u8x8_d_st7571.c ****   /* i2c_bus_clock_100kHz = */ 4,	/* 400KHz */
 334:..\..\..\u8g2\u8g2\csrc/u8x8_d_st7571.c ****   /* data_setup_time_ns = */ 15,
 335:..\..\..\u8g2\u8g2\csrc/u8x8_d_st7571.c ****   /* write_pulse_width_ns = */ 70,	
 336:..\..\..\u8g2\u8g2\csrc/u8x8_d_st7571.c ****   /* tile_width = */ 16,
 337:..\..\..\u8g2\u8g2\csrc/u8x8_d_st7571.c ****   /* tile_hight = */ 12,
 338:..\..\..\u8g2\u8g2\csrc/u8x8_d_st7571.c ****   /* default_x_offset = */ 0,
 339:..\..\..\u8g2\u8g2\csrc/u8x8_d_st7571.c ****   /* flipmode_x_offset = */ 0,
 340:..\..\..\u8g2\u8g2\csrc/u8x8_d_st7571.c ****   /* pixel_width = */ 128,
 341:..\..\..\u8g2\u8g2\csrc/u8x8_d_st7571.c ****   /* pixel_height = */ 96
 342:..\..\..\u8g2\u8g2\csrc/u8x8_d_st7571.c **** };
 343:..\..\..\u8g2\u8g2\csrc/u8x8_d_st7571.c **** 
 344:..\..\..\u8g2\u8g2\csrc/u8x8_d_st7571.c **** uint8_t u8x8_d_st7571_128x96(u8x8_t *u8x8, uint8_t msg, uint8_t arg_int, void *arg_ptr)
 345:..\..\..\u8g2\u8g2\csrc/u8x8_d_st7571.c **** {
 262              		.loc 1 345 0
 263              		.cfi_startproc
 264              		@ args = 0, pretend = 0, frame = 0
 265              		@ frame_needed = 0, uses_anonymous_args = 0
ARM GAS  C:\Users\jesse\AppData\Local\Temp\ccABesPa.s 			page 12


 266              	.LVL33:
 267 0000 38B5     		push	{r3, r4, r5, lr}
 268              		.cfi_def_cfa_offset 16
 269              		.cfi_offset 3, -16
 270              		.cfi_offset 4, -12
 271              		.cfi_offset 5, -8
 272              		.cfi_offset 14, -4
 273              		.loc 1 345 0
 274 0002 0446     		mov	r4, r0
 275 0004 0D46     		mov	r5, r1
 346:..\..\..\u8g2\u8g2\csrc/u8x8_d_st7571.c ****     
 347:..\..\..\u8g2\u8g2\csrc/u8x8_d_st7571.c ****   if ( u8x8_d_st7571_generic(u8x8, msg, arg_int, arg_ptr) != 0 )
 276              		.loc 1 347 0
 277 0006 FFF7FEFF 		bl	u8x8_d_st7571_generic
 278              	.LVL34:
 279 000a 78B9     		cbnz	r0, .L31
 348:..\..\..\u8g2\u8g2\csrc/u8x8_d_st7571.c ****     return 1;
 349:..\..\..\u8g2\u8g2\csrc/u8x8_d_st7571.c ****   
 350:..\..\..\u8g2\u8g2\csrc/u8x8_d_st7571.c ****   switch(msg)
 280              		.loc 1 350 0
 281 000c 092D     		cmp	r5, #9
 282 000e 09D0     		beq	.L29
 283 0010 0A2D     		cmp	r5, #10
 284 0012 0CD1     		bne	.L28
 351:..\..\..\u8g2\u8g2\csrc/u8x8_d_st7571.c ****   {
 352:..\..\..\u8g2\u8g2\csrc/u8x8_d_st7571.c ****     case U8X8_MSG_DISPLAY_INIT:
 353:..\..\..\u8g2\u8g2\csrc/u8x8_d_st7571.c ****       u8x8_d_helper_display_init(u8x8);
 285              		.loc 1 353 0
 286 0014 2046     		mov	r0, r4
 287 0016 FFF7FEFF 		bl	u8x8_d_helper_display_init
 288              	.LVL35:
 354:..\..\..\u8g2\u8g2\csrc/u8x8_d_st7571.c ****       u8x8_cad_SendSequence(u8x8, u8x8_d_st7571_128x96_init_seq); 
 289              		.loc 1 354 0
 290 001a 0549     		ldr	r1, .L32
 291 001c 2046     		mov	r0, r4
 292 001e FFF7FEFF 		bl	u8x8_cad_SendSequence
 293              	.LVL36:
 294 0022 03E0     		b	.L31
 295              	.L29:
 355:..\..\..\u8g2\u8g2\csrc/u8x8_d_st7571.c ****       break;
 356:..\..\..\u8g2\u8g2\csrc/u8x8_d_st7571.c ****     case U8X8_MSG_DISPLAY_SETUP_MEMORY:
 357:..\..\..\u8g2\u8g2\csrc/u8x8_d_st7571.c ****       u8x8_d_helper_display_setup_memory(u8x8, &u8x8_st7571_128x96_display_info);
 296              		.loc 1 357 0
 297 0024 0349     		ldr	r1, .L32+4
 298 0026 2046     		mov	r0, r4
 299 0028 FFF7FEFF 		bl	u8x8_d_helper_display_setup_memory
 300              	.LVL37:
 301              	.L31:
 348:..\..\..\u8g2\u8g2\csrc/u8x8_d_st7571.c ****   
 302              		.loc 1 348 0
 303 002c 0120     		movs	r0, #1
 304              	.L28:
 358:..\..\..\u8g2\u8g2\csrc/u8x8_d_st7571.c ****       break;
 359:..\..\..\u8g2\u8g2\csrc/u8x8_d_st7571.c ****     default:
 360:..\..\..\u8g2\u8g2\csrc/u8x8_d_st7571.c ****       return 0;
 361:..\..\..\u8g2\u8g2\csrc/u8x8_d_st7571.c ****   }
 362:..\..\..\u8g2\u8g2\csrc/u8x8_d_st7571.c ****   return 1;
ARM GAS  C:\Users\jesse\AppData\Local\Temp\ccABesPa.s 			page 13


 363:..\..\..\u8g2\u8g2\csrc/u8x8_d_st7571.c **** }
 305              		.loc 1 363 0
 306 002e 38BD     		pop	{r3, r4, r5, pc}
 307              	.LVL38:
 308              	.L33:
 309              		.align	2
 310              	.L32:
 311 0030 70000000 		.word	.LANCHOR0+112
 312 0034 AC000000 		.word	.LANCHOR0+172
 313              		.cfi_endproc
 314              	.LFE2:
 315              		.size	u8x8_d_st7571_128x96, .-u8x8_d_st7571_128x96
 316              		.section	.rodata
 317              		.align	2
 318              		.set	.LANCHOR0,. + 0
 319              		.type	u8x8_d_st7571_128x128_powersave0_seq, %object
 320              		.size	u8x8_d_st7571_128x128_powersave0_seq, 9
 321              	u8x8_d_st7571_128x128_powersave0_seq:
 322 0000 18       		.byte	24
 323 0001 15       		.byte	21
 324 0002 71       		.byte	113
 325 0003 15       		.byte	21
 326 0004 A8       		.byte	-88
 327 0005 15       		.byte	21
 328 0006 AF       		.byte	-81
 329 0007 19       		.byte	25
 330 0008 FF       		.byte	-1
 331              		.type	u8x8_d_st7571_128x128_powersave1_seq, %object
 332              		.size	u8x8_d_st7571_128x128_powersave1_seq, 7
 333              	u8x8_d_st7571_128x128_powersave1_seq:
 334 0009 18       		.byte	24
 335 000a 15       		.byte	21
 336 000b AE       		.byte	-82
 337 000c 15       		.byte	21
 338 000d A9       		.byte	-87
 339 000e 19       		.byte	25
 340 000f FF       		.byte	-1
 341              		.type	u8x8_d_st7571_128x128_flip0_seq, %object
 342              		.size	u8x8_d_st7571_128x128_flip0_seq, 7
 343              	u8x8_d_st7571_128x128_flip0_seq:
 344 0010 18       		.byte	24
 345 0011 15       		.byte	21
 346 0012 A0       		.byte	-96
 347 0013 15       		.byte	21
 348 0014 C8       		.byte	-56
 349 0015 19       		.byte	25
 350 0016 FF       		.byte	-1
 351              		.type	u8x8_d_st7571_128x128_flip1_seq, %object
 352              		.size	u8x8_d_st7571_128x128_flip1_seq, 7
 353              	u8x8_d_st7571_128x128_flip1_seq:
 354 0017 18       		.byte	24
 355 0018 15       		.byte	21
 356 0019 A1       		.byte	-95
 357 001a 15       		.byte	21
 358 001b C0       		.byte	-64
 359 001c 19       		.byte	25
 360 001d FF       		.byte	-1
ARM GAS  C:\Users\jesse\AppData\Local\Temp\ccABesPa.s 			page 14


 361              		.type	u8x8_d_st7571_128x128_init_seq, %object
 362              		.size	u8x8_d_st7571_128x128_init_seq, 57
 363              	u8x8_d_st7571_128x128_init_seq:
 364 001e 18       		.byte	24
 365 001f 15       		.byte	21
 366 0020 AE       		.byte	-82
 367 0021 15       		.byte	21
 368 0022 38       		.byte	56
 369 0023 15       		.byte	21
 370 0024 B8       		.byte	-72
 371 0025 15       		.byte	21
 372 0026 A0       		.byte	-96
 373 0027 15       		.byte	21
 374 0028 C8       		.byte	-56
 375 0029 15       		.byte	21
 376 002a 44       		.byte	68
 377 002b 16       		.byte	22
 378 002c 00       		.byte	0
 379 002d 15       		.byte	21
 380 002e 40       		.byte	64
 381 002f 16       		.byte	22
 382 0030 00       		.byte	0
 383 0031 15       		.byte	21
 384 0032 AB       		.byte	-85
 385 0033 15       		.byte	21
 386 0034 25       		.byte	37
 387 0035 15       		.byte	21
 388 0036 81       		.byte	-127
 389 0037 16       		.byte	22
 390 0038 33       		.byte	51
 391 0039 15       		.byte	21
 392 003a 54       		.byte	84
 393 003b 15       		.byte	21
 394 003c 48       		.byte	72
 395 003d 16       		.byte	22
 396 003e 80       		.byte	-128
 397 003f 15       		.byte	21
 398 0040 2C       		.byte	44
 399 0041 FE       		.byte	-2
 400 0042 C8       		.byte	-56
 401 0043 15       		.byte	21
 402 0044 2E       		.byte	46
 403 0045 FE       		.byte	-2
 404 0046 C8       		.byte	-56
 405 0047 15       		.byte	21
 406 0048 2F       		.byte	47
 407 0049 FE       		.byte	-2
 408 004a 0A       		.byte	10
 409 004b 15       		.byte	21
 410 004c 7B       		.byte	123
 411 004d 15       		.byte	21
 412 004e 11       		.byte	17
 413 004f 15       		.byte	21
 414 0050 00       		.byte	0
 415 0051 15       		.byte	21
 416 0052 A6       		.byte	-90
 417 0053 15       		.byte	21
ARM GAS  C:\Users\jesse\AppData\Local\Temp\ccABesPa.s 			page 15


 418 0054 A4       		.byte	-92
 419 0055 19       		.byte	25
 420 0056 FF       		.byte	-1
 421 0057 00       		.space	1
 422              		.type	u8x8_st7571_128x128_display_info, %object
 423              		.size	u8x8_st7571_128x128_display_info, 24
 424              	u8x8_st7571_128x128_display_info:
 425 0058 00       		.byte	0
 426 0059 01       		.byte	1
 427 005a 14       		.byte	20
 428 005b 14       		.byte	20
 429 005c 05       		.byte	5
 430 005d 05       		.byte	5
 431 005e 14       		.byte	20
 432 005f 28       		.byte	40
 433 0060 00093D00 		.word	4000000
 434 0064 00       		.byte	0
 435 0065 04       		.byte	4
 436 0066 0F       		.byte	15
 437 0067 46       		.byte	70
 438 0068 10       		.byte	16
 439 0069 10       		.byte	16
 440 006a 00       		.byte	0
 441 006b 00       		.byte	0
 442 006c 8000     		.short	128
 443 006e 8000     		.short	128
 444              		.type	u8x8_d_st7571_128x96_init_seq, %object
 445              		.size	u8x8_d_st7571_128x96_init_seq, 57
 446              	u8x8_d_st7571_128x96_init_seq:
 447 0070 18       		.byte	24
 448 0071 15       		.byte	21
 449 0072 AE       		.byte	-82
 450 0073 15       		.byte	21
 451 0074 38       		.byte	56
 452 0075 15       		.byte	21
 453 0076 94       		.byte	-108
 454 0077 15       		.byte	21
 455 0078 A0       		.byte	-96
 456 0079 15       		.byte	21
 457 007a C8       		.byte	-56
 458 007b 15       		.byte	21
 459 007c 44       		.byte	68
 460 007d 16       		.byte	22
 461 007e 20       		.byte	32
 462 007f 15       		.byte	21
 463 0080 40       		.byte	64
 464 0081 16       		.byte	22
 465 0082 00       		.byte	0
 466 0083 15       		.byte	21
 467 0084 AB       		.byte	-85
 468 0085 15       		.byte	21
 469 0086 27       		.byte	39
 470 0087 15       		.byte	21
 471 0088 81       		.byte	-127
 472 0089 16       		.byte	22
 473 008a 28       		.byte	40
 474 008b 15       		.byte	21
ARM GAS  C:\Users\jesse\AppData\Local\Temp\ccABesPa.s 			page 16


 475 008c 57       		.byte	87
 476 008d 15       		.byte	21
 477 008e 48       		.byte	72
 478 008f 16       		.byte	22
 479 0090 61       		.byte	97
 480 0091 15       		.byte	21
 481 0092 2C       		.byte	44
 482 0093 FE       		.byte	-2
 483 0094 C8       		.byte	-56
 484 0095 15       		.byte	21
 485 0096 2E       		.byte	46
 486 0097 FE       		.byte	-2
 487 0098 C8       		.byte	-56
 488 0099 15       		.byte	21
 489 009a 2F       		.byte	47
 490 009b FE       		.byte	-2
 491 009c 0A       		.byte	10
 492 009d 15       		.byte	21
 493 009e 7B       		.byte	123
 494 009f 15       		.byte	21
 495 00a0 11       		.byte	17
 496 00a1 15       		.byte	21
 497 00a2 00       		.byte	0
 498 00a3 15       		.byte	21
 499 00a4 A6       		.byte	-90
 500 00a5 15       		.byte	21
 501 00a6 A4       		.byte	-92
 502 00a7 19       		.byte	25
 503 00a8 FF       		.byte	-1
 504 00a9 000000   		.space	3
 505              		.type	u8x8_st7571_128x96_display_info, %object
 506              		.size	u8x8_st7571_128x96_display_info, 24
 507              	u8x8_st7571_128x96_display_info:
 508 00ac 00       		.byte	0
 509 00ad 01       		.byte	1
 510 00ae 14       		.byte	20
 511 00af 14       		.byte	20
 512 00b0 05       		.byte	5
 513 00b1 05       		.byte	5
 514 00b2 14       		.byte	20
 515 00b3 28       		.byte	40
 516 00b4 00093D00 		.word	4000000
 517 00b8 00       		.byte	0
 518 00b9 04       		.byte	4
 519 00ba 0F       		.byte	15
 520 00bb 46       		.byte	70
 521 00bc 10       		.byte	16
 522 00bd 0C       		.byte	12
 523 00be 00       		.byte	0
 524 00bf 00       		.byte	0
 525 00c0 8000     		.short	128
 526 00c2 6000     		.short	96
 527              		.text
 528              	.Letext0:
 529              		.file 2 "c:\\program files (x86)\\cypress\\psoc creator\\4.4\\psoc creator\\import\\gnu\\arm\\5.4.
 530              		.file 3 "c:\\program files (x86)\\cypress\\psoc creator\\4.4\\psoc creator\\import\\gnu\\arm\\5.4.
 531              		.file 4 "..\\..\\..\\u8g2\\u8g2\\csrc\\u8x8.h"
ARM GAS  C:\Users\jesse\AppData\Local\Temp\ccABesPa.s 			page 17

