ARM GAS  C:\Users\jesse\AppData\Local\Temp\ccua2IuJ.s 			page 1


   1              		.syntax unified
   2              		.cpu cortex-m3
   3              		.fpu softvfp
   4              		.eabi_attribute 20, 1
   5              		.eabi_attribute 21, 1
   6              		.eabi_attribute 23, 3
   7              		.eabi_attribute 24, 1
   8              		.eabi_attribute 25, 1
   9              		.eabi_attribute 26, 1
  10              		.eabi_attribute 30, 4
  11              		.eabi_attribute 34, 1
  12              		.eabi_attribute 18, 4
  13              		.thumb
  14              		.syntax unified
  15              		.file	"u8x8_d_ist3020.c"
  16              		.text
  17              	.Ltext0:
  18              		.cfi_sections	.debug_frame
  19              		.section	.text.u8x8_d_ist3020_erc19264,"ax",%progbits
  20              		.align	1
  21              		.global	u8x8_d_ist3020_erc19264
  22              		.thumb
  23              		.thumb_func
  24              		.type	u8x8_d_ist3020_erc19264, %function
  25              	u8x8_d_ist3020_erc19264:
  26              	.LFB0:
  27              		.file 1 "..\\..\\..\\u8g2\\u8g2\\csrc\\u8x8_d_ist3020.c"
   1:..\..\..\u8g2\u8g2\csrc/u8x8_d_ist3020.c **** /*
   2:..\..\..\u8g2\u8g2\csrc/u8x8_d_ist3020.c **** 
   3:..\..\..\u8g2\u8g2\csrc/u8x8_d_ist3020.c ****   u8x8_d_ist3020.c
   4:..\..\..\u8g2\u8g2\csrc/u8x8_d_ist3020.c ****   
   5:..\..\..\u8g2\u8g2\csrc/u8x8_d_ist3020.c ****   Universal 8bit Graphics Library (https://github.com/olikraus/u8g2/)
   6:..\..\..\u8g2\u8g2\csrc/u8x8_d_ist3020.c **** 
   7:..\..\..\u8g2\u8g2\csrc/u8x8_d_ist3020.c ****   Copyright (c) 2017, olikraus@gmail.com
   8:..\..\..\u8g2\u8g2\csrc/u8x8_d_ist3020.c ****   All rights reserved.
   9:..\..\..\u8g2\u8g2\csrc/u8x8_d_ist3020.c **** 
  10:..\..\..\u8g2\u8g2\csrc/u8x8_d_ist3020.c ****   Redistribution and use in source and binary forms, with or without modification, 
  11:..\..\..\u8g2\u8g2\csrc/u8x8_d_ist3020.c ****   are permitted provided that the following conditions are met:
  12:..\..\..\u8g2\u8g2\csrc/u8x8_d_ist3020.c **** 
  13:..\..\..\u8g2\u8g2\csrc/u8x8_d_ist3020.c ****   * Redistributions of source code must retain the above copyright notice, this list 
  14:..\..\..\u8g2\u8g2\csrc/u8x8_d_ist3020.c ****     of conditions and the following disclaimer.
  15:..\..\..\u8g2\u8g2\csrc/u8x8_d_ist3020.c ****     
  16:..\..\..\u8g2\u8g2\csrc/u8x8_d_ist3020.c ****   * Redistributions in binary form must reproduce the above copyright notice, this 
  17:..\..\..\u8g2\u8g2\csrc/u8x8_d_ist3020.c ****     list of conditions and the following disclaimer in the documentation and/or other 
  18:..\..\..\u8g2\u8g2\csrc/u8x8_d_ist3020.c ****     materials provided with the distribution.
  19:..\..\..\u8g2\u8g2\csrc/u8x8_d_ist3020.c **** 
  20:..\..\..\u8g2\u8g2\csrc/u8x8_d_ist3020.c ****   THIS SOFTWARE IS PROVIDED BY THE COPYRIGHT HOLDERS AND 
  21:..\..\..\u8g2\u8g2\csrc/u8x8_d_ist3020.c ****   CONTRIBUTORS "AS IS" AND ANY EXPRESS OR IMPLIED WARRANTIES, 
  22:..\..\..\u8g2\u8g2\csrc/u8x8_d_ist3020.c ****   INCLUDING, BUT NOT LIMITED TO, THE IMPLIED WARRANTIES OF 
  23:..\..\..\u8g2\u8g2\csrc/u8x8_d_ist3020.c ****   MERCHANTABILITY AND FITNESS FOR A PARTICULAR PURPOSE ARE 
  24:..\..\..\u8g2\u8g2\csrc/u8x8_d_ist3020.c ****   DISCLAIMED. IN NO EVENT SHALL THE COPYRIGHT HOLDER OR 
  25:..\..\..\u8g2\u8g2\csrc/u8x8_d_ist3020.c ****   CONTRIBUTORS BE LIABLE FOR ANY DIRECT, INDIRECT, INCIDENTAL, 
  26:..\..\..\u8g2\u8g2\csrc/u8x8_d_ist3020.c ****   SPECIAL, EXEMPLARY, OR CONSEQUENTIAL DAMAGES (INCLUDING, BUT 
  27:..\..\..\u8g2\u8g2\csrc/u8x8_d_ist3020.c ****   NOT LIMITED TO, PROCUREMENT OF SUBSTITUTE GOODS OR SERVICES; 
  28:..\..\..\u8g2\u8g2\csrc/u8x8_d_ist3020.c ****   LOSS OF USE, DATA, OR PROFITS; OR BUSINESS INTERRUPTION) HOWEVER 
  29:..\..\..\u8g2\u8g2\csrc/u8x8_d_ist3020.c ****   CAUSED AND ON ANY THEORY OF LIABILITY, WHETHER IN CONTRACT, 
  30:..\..\..\u8g2\u8g2\csrc/u8x8_d_ist3020.c ****   STRICT LIABILITY, OR TORT (INCLUDING NEGLIGENCE OR OTHERWISE) 
ARM GAS  C:\Users\jesse\AppData\Local\Temp\ccua2IuJ.s 			page 2


  31:..\..\..\u8g2\u8g2\csrc/u8x8_d_ist3020.c ****   ARISING IN ANY WAY OUT OF THE USE OF THIS SOFTWARE, EVEN IF 
  32:..\..\..\u8g2\u8g2\csrc/u8x8_d_ist3020.c ****   ADVISED OF THE POSSIBILITY OF SUCH DAMAGE.  
  33:..\..\..\u8g2\u8g2\csrc/u8x8_d_ist3020.c **** 
  34:..\..\..\u8g2\u8g2\csrc/u8x8_d_ist3020.c ****   
  35:..\..\..\u8g2\u8g2\csrc/u8x8_d_ist3020.c **** */
  36:..\..\..\u8g2\u8g2\csrc/u8x8_d_ist3020.c **** #include "u8x8.h"
  37:..\..\..\u8g2\u8g2\csrc/u8x8_d_ist3020.c **** 
  38:..\..\..\u8g2\u8g2\csrc/u8x8_d_ist3020.c **** 
  39:..\..\..\u8g2\u8g2\csrc/u8x8_d_ist3020.c **** 
  40:..\..\..\u8g2\u8g2\csrc/u8x8_d_ist3020.c **** 
  41:..\..\..\u8g2\u8g2\csrc/u8x8_d_ist3020.c **** static const uint8_t u8x8_d_ist3020_erc19264_powersave0_seq[] = {
  42:..\..\..\u8g2\u8g2\csrc/u8x8_d_ist3020.c ****   U8X8_START_TRANSFER(),             	/* enable chip, delay is part of the transfer start */
  43:..\..\..\u8g2\u8g2\csrc/u8x8_d_ist3020.c ****   U8X8_C(0x0a4),		                /* all pixel off, issue 142 */
  44:..\..\..\u8g2\u8g2\csrc/u8x8_d_ist3020.c ****   U8X8_C(0x0af),		                /* display on */
  45:..\..\..\u8g2\u8g2\csrc/u8x8_d_ist3020.c ****   U8X8_END_TRANSFER(),             	/* disable chip */
  46:..\..\..\u8g2\u8g2\csrc/u8x8_d_ist3020.c ****   U8X8_END()             			/* end of sequence */
  47:..\..\..\u8g2\u8g2\csrc/u8x8_d_ist3020.c **** };
  48:..\..\..\u8g2\u8g2\csrc/u8x8_d_ist3020.c **** 
  49:..\..\..\u8g2\u8g2\csrc/u8x8_d_ist3020.c **** static const uint8_t u8x8_d_ist3020_erc19264_powersave1_seq[] = {
  50:..\..\..\u8g2\u8g2\csrc/u8x8_d_ist3020.c ****   U8X8_START_TRANSFER(),             	/* enable chip, delay is part of the transfer start */
  51:..\..\..\u8g2\u8g2\csrc/u8x8_d_ist3020.c ****   U8X8_C(0x0ae),		                /* display off */
  52:..\..\..\u8g2\u8g2\csrc/u8x8_d_ist3020.c ****   U8X8_C(0x0a5),		                /* enter powersafe: all pixel on, issue 142 */
  53:..\..\..\u8g2\u8g2\csrc/u8x8_d_ist3020.c ****   U8X8_END_TRANSFER(),             	/* disable chip */
  54:..\..\..\u8g2\u8g2\csrc/u8x8_d_ist3020.c ****   U8X8_END()             			/* end of sequence */
  55:..\..\..\u8g2\u8g2\csrc/u8x8_d_ist3020.c **** };
  56:..\..\..\u8g2\u8g2\csrc/u8x8_d_ist3020.c **** 
  57:..\..\..\u8g2\u8g2\csrc/u8x8_d_ist3020.c **** static const uint8_t u8x8_d_ist3020_erc19264_flip0_seq[] = {
  58:..\..\..\u8g2\u8g2\csrc/u8x8_d_ist3020.c ****   U8X8_START_TRANSFER(),             	/* enable chip, delay is part of the transfer start */
  59:..\..\..\u8g2\u8g2\csrc/u8x8_d_ist3020.c ****   U8X8_C(0x0a0),				/* segment remap a0/a1*/
  60:..\..\..\u8g2\u8g2\csrc/u8x8_d_ist3020.c ****   U8X8_C(0x0c8),				/* c0: scan dir normal, c8: reverse */
  61:..\..\..\u8g2\u8g2\csrc/u8x8_d_ist3020.c ****   U8X8_END_TRANSFER(),             	/* disable chip */
  62:..\..\..\u8g2\u8g2\csrc/u8x8_d_ist3020.c ****   U8X8_END()             			/* end of sequence */
  63:..\..\..\u8g2\u8g2\csrc/u8x8_d_ist3020.c **** };
  64:..\..\..\u8g2\u8g2\csrc/u8x8_d_ist3020.c **** 
  65:..\..\..\u8g2\u8g2\csrc/u8x8_d_ist3020.c **** static const uint8_t u8x8_d_ist3020_erc19264_flip1_seq[] = {
  66:..\..\..\u8g2\u8g2\csrc/u8x8_d_ist3020.c ****   U8X8_START_TRANSFER(),             	/* enable chip, delay is part of the transfer start */
  67:..\..\..\u8g2\u8g2\csrc/u8x8_d_ist3020.c ****   U8X8_C(0x0a1),				/* segment remap a0/a1*/
  68:..\..\..\u8g2\u8g2\csrc/u8x8_d_ist3020.c ****   U8X8_C(0x0c0),				/* c0: scan dir normal, c8: reverse */
  69:..\..\..\u8g2\u8g2\csrc/u8x8_d_ist3020.c ****   U8X8_END_TRANSFER(),             	/* disable chip */
  70:..\..\..\u8g2\u8g2\csrc/u8x8_d_ist3020.c ****   U8X8_END()             			/* end of sequence */
  71:..\..\..\u8g2\u8g2\csrc/u8x8_d_ist3020.c **** };
  72:..\..\..\u8g2\u8g2\csrc/u8x8_d_ist3020.c **** 
  73:..\..\..\u8g2\u8g2\csrc/u8x8_d_ist3020.c **** 
  74:..\..\..\u8g2\u8g2\csrc/u8x8_d_ist3020.c **** static const u8x8_display_info_t u8x8_ist3020_erc19264_display_info =
  75:..\..\..\u8g2\u8g2\csrc/u8x8_d_ist3020.c **** {
  76:..\..\..\u8g2\u8g2\csrc/u8x8_d_ist3020.c ****   /* chip_enable_level = */ 0,
  77:..\..\..\u8g2\u8g2\csrc/u8x8_d_ist3020.c ****   /* chip_disable_level = */ 1,
  78:..\..\..\u8g2\u8g2\csrc/u8x8_d_ist3020.c ****   
  79:..\..\..\u8g2\u8g2\csrc/u8x8_d_ist3020.c ****   /* post_chip_enable_wait_ns = */ 150,	/* IST3020 datasheet, page 56 */
  80:..\..\..\u8g2\u8g2\csrc/u8x8_d_ist3020.c ****   /* pre_chip_disable_wait_ns = */ 150,	/* IST3020 datasheet, page 56 */
  81:..\..\..\u8g2\u8g2\csrc/u8x8_d_ist3020.c ****   /* reset_pulse_width_ms = */ 1, 
  82:..\..\..\u8g2\u8g2\csrc/u8x8_d_ist3020.c ****   /* post_reset_wait_ms = */ 1, 
  83:..\..\..\u8g2\u8g2\csrc/u8x8_d_ist3020.c ****   /* sda_setup_time_ns = */ 100,		/* IST3020 datasheet, page 56 */
  84:..\..\..\u8g2\u8g2\csrc/u8x8_d_ist3020.c ****   /* sck_pulse_width_ns = */ 100,	/* IST3020 datasheet, page 56 */
  85:..\..\..\u8g2\u8g2\csrc/u8x8_d_ist3020.c ****   /* sck_clock_hz = */ 4000000UL,	/* */
  86:..\..\..\u8g2\u8g2\csrc/u8x8_d_ist3020.c ****   /* spi_mode = */ 0,		/* active high, rising edge */
  87:..\..\..\u8g2\u8g2\csrc/u8x8_d_ist3020.c ****   /* i2c_bus_clock_100kHz = */ 4,
ARM GAS  C:\Users\jesse\AppData\Local\Temp\ccua2IuJ.s 			page 3


  88:..\..\..\u8g2\u8g2\csrc/u8x8_d_ist3020.c ****   /* data_setup_time_ns = */ 40,	/* IST3020 datasheet, page 54 */
  89:..\..\..\u8g2\u8g2\csrc/u8x8_d_ist3020.c ****   /* write_pulse_width_ns = */ 60,	/* IST3020 datasheet, page 54 */
  90:..\..\..\u8g2\u8g2\csrc/u8x8_d_ist3020.c ****   /* tile_width = */ 24,		/* width of 24*8=192 pixel */
  91:..\..\..\u8g2\u8g2\csrc/u8x8_d_ist3020.c ****   /* tile_hight = */ 8,
  92:..\..\..\u8g2\u8g2\csrc/u8x8_d_ist3020.c ****   /* default_x_offset = */ 0,
  93:..\..\..\u8g2\u8g2\csrc/u8x8_d_ist3020.c ****   /* flipmode_x_offset = */ 64,
  94:..\..\..\u8g2\u8g2\csrc/u8x8_d_ist3020.c ****   /* pixel_width = */ 192,
  95:..\..\..\u8g2\u8g2\csrc/u8x8_d_ist3020.c ****   /* pixel_height = */ 64
  96:..\..\..\u8g2\u8g2\csrc/u8x8_d_ist3020.c **** };
  97:..\..\..\u8g2\u8g2\csrc/u8x8_d_ist3020.c **** 
  98:..\..\..\u8g2\u8g2\csrc/u8x8_d_ist3020.c **** static const uint8_t u8x8_d_ist3020_erc19264_init_seq[] = {
  99:..\..\..\u8g2\u8g2\csrc/u8x8_d_ist3020.c ****     
 100:..\..\..\u8g2\u8g2\csrc/u8x8_d_ist3020.c ****   U8X8_START_TRANSFER(),             	/* enable chip, delay is part of the transfer start */
 101:..\..\..\u8g2\u8g2\csrc/u8x8_d_ist3020.c ****   
 102:..\..\..\u8g2\u8g2\csrc/u8x8_d_ist3020.c ****   U8X8_C(0x0e2),            			/* soft reset */
 103:..\..\..\u8g2\u8g2\csrc/u8x8_d_ist3020.c ****   U8X8_C(0x0ab),            			/* build in osc on, used in ER code, but not mentioned in data sheet
 104:..\..\..\u8g2\u8g2\csrc/u8x8_d_ist3020.c ****   U8X8_C(0x0ae),		                /* display off */
 105:..\..\..\u8g2\u8g2\csrc/u8x8_d_ist3020.c ****   
 106:..\..\..\u8g2\u8g2\csrc/u8x8_d_ist3020.c ****   U8X8_C(0x040),		                /* set display start line to 0 */
 107:..\..\..\u8g2\u8g2\csrc/u8x8_d_ist3020.c ****   
 108:..\..\..\u8g2\u8g2\csrc/u8x8_d_ist3020.c ****   U8X8_C(0x0a0),		                /* ADC set to reverse */
 109:..\..\..\u8g2\u8g2\csrc/u8x8_d_ist3020.c ****   U8X8_C(0x0c8),		                /* common output mode */
 110:..\..\..\u8g2\u8g2\csrc/u8x8_d_ist3020.c ****   // Flipmode
 111:..\..\..\u8g2\u8g2\csrc/u8x8_d_ist3020.c ****   //U8X8_C(0x0a0),		                /* ADC set to reverse */
 112:..\..\..\u8g2\u8g2\csrc/u8x8_d_ist3020.c ****   //U8X8_C(0x0c8),		                /* common output mode */
 113:..\..\..\u8g2\u8g2\csrc/u8x8_d_ist3020.c ****   
 114:..\..\..\u8g2\u8g2\csrc/u8x8_d_ist3020.c ****   U8X8_C(0x0a6),		                /* display normal, bit val 0: LCD pixel off. */
 115:..\..\..\u8g2\u8g2\csrc/u8x8_d_ist3020.c ****   U8X8_C(0x0a3),		                /* FIX: LCD bias 1/7, old value was 1/9 (0x0a2) */
 116:..\..\..\u8g2\u8g2\csrc/u8x8_d_ist3020.c ****   
 117:..\..\..\u8g2\u8g2\csrc/u8x8_d_ist3020.c ****   U8X8_C(0x028|4),		                /* all power  control circuits on */
 118:..\..\..\u8g2\u8g2\csrc/u8x8_d_ist3020.c ****   U8X8_DLY(50),
 119:..\..\..\u8g2\u8g2\csrc/u8x8_d_ist3020.c ****   U8X8_C(0x028|6),		                /* all power  control circuits on */
 120:..\..\..\u8g2\u8g2\csrc/u8x8_d_ist3020.c ****   U8X8_DLY(50),
 121:..\..\..\u8g2\u8g2\csrc/u8x8_d_ist3020.c ****   U8X8_C(0x028|7),		                /* all power  control circuits on */
 122:..\..\..\u8g2\u8g2\csrc/u8x8_d_ist3020.c ****   U8X8_DLY(50),
 123:..\..\..\u8g2\u8g2\csrc/u8x8_d_ist3020.c ****   
 124:..\..\..\u8g2\u8g2\csrc/u8x8_d_ist3020.c ****   U8X8_C(0x020),		                /* v0 voltage resistor ratio */
 125:..\..\..\u8g2\u8g2\csrc/u8x8_d_ist3020.c ****   U8X8_CA(0x081, 0x019),		/* set contrast, contrast value (from ER code: 45) */
 126:..\..\..\u8g2\u8g2\csrc/u8x8_d_ist3020.c ****   
 127:..\..\..\u8g2\u8g2\csrc/u8x8_d_ist3020.c ****   U8X8_C(0x0ae),		                /* display off */
 128:..\..\..\u8g2\u8g2\csrc/u8x8_d_ist3020.c ****   U8X8_C(0x0a5),		                /* enter powersafe: all pixel on, issue 142 */
 129:..\..\..\u8g2\u8g2\csrc/u8x8_d_ist3020.c ****    
 130:..\..\..\u8g2\u8g2\csrc/u8x8_d_ist3020.c ****   U8X8_END_TRANSFER(),             	/* disable chip */
 131:..\..\..\u8g2\u8g2\csrc/u8x8_d_ist3020.c ****   U8X8_END()             			/* end of sequence */
 132:..\..\..\u8g2\u8g2\csrc/u8x8_d_ist3020.c **** };
 133:..\..\..\u8g2\u8g2\csrc/u8x8_d_ist3020.c **** 
 134:..\..\..\u8g2\u8g2\csrc/u8x8_d_ist3020.c **** uint8_t u8x8_d_ist3020_erc19264(u8x8_t *u8x8, uint8_t msg, uint8_t arg_int, void *arg_ptr)
 135:..\..\..\u8g2\u8g2\csrc/u8x8_d_ist3020.c **** {
  28              		.loc 1 135 0
  29              		.cfi_startproc
  30              		@ args = 0, pretend = 0, frame = 0
  31              		@ frame_needed = 0, uses_anonymous_args = 0
  32              	.LVL0:
 136:..\..\..\u8g2\u8g2\csrc/u8x8_d_ist3020.c ****   uint8_t x, c;
 137:..\..\..\u8g2\u8g2\csrc/u8x8_d_ist3020.c ****   uint8_t *ptr;
 138:..\..\..\u8g2\u8g2\csrc/u8x8_d_ist3020.c ****   switch(msg)
  33              		.loc 1 138 0
ARM GAS  C:\Users\jesse\AppData\Local\Temp\ccua2IuJ.s 			page 4


  34 0000 0939     		subs	r1, r1, #9
  35              	.LVL1:
 135:..\..\..\u8g2\u8g2\csrc/u8x8_d_ist3020.c ****   uint8_t x, c;
  36              		.loc 1 135 0
  37 0002 F8B5     		push	{r3, r4, r5, r6, r7, lr}
  38              		.cfi_def_cfa_offset 24
  39              		.cfi_offset 3, -24
  40              		.cfi_offset 4, -20
  41              		.cfi_offset 5, -16
  42              		.cfi_offset 6, -12
  43              		.cfi_offset 7, -8
  44              		.cfi_offset 14, -4
 135:..\..\..\u8g2\u8g2\csrc/u8x8_d_ist3020.c ****   uint8_t x, c;
  45              		.loc 1 135 0
  46 0004 0446     		mov	r4, r0
  47 0006 1546     		mov	r5, r2
  48 0008 1F46     		mov	r7, r3
  49              		.loc 1 138 0
  50 000a 0629     		cmp	r1, #6
  51 000c 5BD8     		bhi	.L13
  52 000e DFE801F0 		tbb	[pc, r1]
  53              	.LVL2:
  54              	.L4:
  55 0012 04       		.byte	(.L3-.L4)/2
  56 0013 08       		.byte	(.L5-.L4)/2
  57 0014 0C       		.byte	(.L6-.L4)/2
  58 0015 5A       		.byte	(.L13-.L4)/2
  59 0016 14       		.byte	(.L7-.L4)/2
  60 0017 23       		.byte	(.L8-.L4)/2
  61 0018 32       		.byte	(.L9-.L4)/2
  62 0019 00       		.p2align 1
  63              	.L3:
 139:..\..\..\u8g2\u8g2\csrc/u8x8_d_ist3020.c ****   {
 140:..\..\..\u8g2\u8g2\csrc/u8x8_d_ist3020.c ****     case U8X8_MSG_DISPLAY_SETUP_MEMORY:
 141:..\..\..\u8g2\u8g2\csrc/u8x8_d_ist3020.c ****       u8x8_d_helper_display_setup_memory(u8x8, &u8x8_ist3020_erc19264_display_info);
  64              		.loc 1 141 0
  65 001a 2C49     		ldr	r1, .L20
  66 001c FFF7FEFF 		bl	u8x8_d_helper_display_setup_memory
  67              	.LVL3:
  68 0020 27E0     		b	.L15
  69              	.LVL4:
  70              	.L5:
 142:..\..\..\u8g2\u8g2\csrc/u8x8_d_ist3020.c ****       break;
 143:..\..\..\u8g2\u8g2\csrc/u8x8_d_ist3020.c ****     case U8X8_MSG_DISPLAY_INIT:
 144:..\..\..\u8g2\u8g2\csrc/u8x8_d_ist3020.c ****       u8x8_d_helper_display_init(u8x8);
  71              		.loc 1 144 0
  72 0022 FFF7FEFF 		bl	u8x8_d_helper_display_init
  73              	.LVL5:
 145:..\..\..\u8g2\u8g2\csrc/u8x8_d_ist3020.c ****       u8x8_cad_SendSequence(u8x8, u8x8_d_ist3020_erc19264_init_seq);
  74              		.loc 1 145 0
  75 0026 2A49     		ldr	r1, .L20+4
  76 0028 03E0     		b	.L18
  77              	.LVL6:
  78              	.L6:
 146:..\..\..\u8g2\u8g2\csrc/u8x8_d_ist3020.c ****       break;
 147:..\..\..\u8g2\u8g2\csrc/u8x8_d_ist3020.c ****     case U8X8_MSG_DISPLAY_SET_POWER_SAVE:
 148:..\..\..\u8g2\u8g2\csrc/u8x8_d_ist3020.c ****       if ( arg_int == 0 )
ARM GAS  C:\Users\jesse\AppData\Local\Temp\ccua2IuJ.s 			page 5


  79              		.loc 1 148 0
  80 002a 0AB9     		cbnz	r2, .L10
 149:..\..\..\u8g2\u8g2\csrc/u8x8_d_ist3020.c **** 	u8x8_cad_SendSequence(u8x8, u8x8_d_ist3020_erc19264_powersave0_seq);
  81              		.loc 1 149 0
  82 002c 2949     		ldr	r1, .L20+8
  83 002e 00E0     		b	.L18
  84              	.L10:
 150:..\..\..\u8g2\u8g2\csrc/u8x8_d_ist3020.c ****       else
 151:..\..\..\u8g2\u8g2\csrc/u8x8_d_ist3020.c **** 	u8x8_cad_SendSequence(u8x8, u8x8_d_ist3020_erc19264_powersave1_seq);
  85              		.loc 1 151 0
  86 0030 2949     		ldr	r1, .L20+12
  87              	.LVL7:
  88              	.L18:
  89 0032 2046     		mov	r0, r4
  90 0034 FFF7FEFF 		bl	u8x8_cad_SendSequence
  91              	.LVL8:
  92 0038 1BE0     		b	.L15
  93              	.LVL9:
  94              	.L7:
 152:..\..\..\u8g2\u8g2\csrc/u8x8_d_ist3020.c ****       break;
 153:..\..\..\u8g2\u8g2\csrc/u8x8_d_ist3020.c ****     case U8X8_MSG_DISPLAY_SET_FLIP_MODE:
 154:..\..\..\u8g2\u8g2\csrc/u8x8_d_ist3020.c ****       if ( arg_int == 0 )
  95              		.loc 1 154 0
  96 003a 2AB9     		cbnz	r2, .L11
 155:..\..\..\u8g2\u8g2\csrc/u8x8_d_ist3020.c ****       {
 156:..\..\..\u8g2\u8g2\csrc/u8x8_d_ist3020.c **** 	u8x8_cad_SendSequence(u8x8, u8x8_d_ist3020_erc19264_flip0_seq);
  97              		.loc 1 156 0
  98 003c 2749     		ldr	r1, .L20+16
  99 003e FFF7FEFF 		bl	u8x8_cad_SendSequence
 100              	.LVL10:
 157:..\..\..\u8g2\u8g2\csrc/u8x8_d_ist3020.c **** 	u8x8->x_offset = u8x8->display_info->default_x_offset;
 101              		.loc 1 157 0
 102 0042 2368     		ldr	r3, [r4]
 103 0044 9B7C     		ldrb	r3, [r3, #18]	@ zero_extendqisi2
 104 0046 04E0     		b	.L17
 105              	.LVL11:
 106              	.L11:
 158:..\..\..\u8g2\u8g2\csrc/u8x8_d_ist3020.c ****       }
 159:..\..\..\u8g2\u8g2\csrc/u8x8_d_ist3020.c ****       else
 160:..\..\..\u8g2\u8g2\csrc/u8x8_d_ist3020.c ****       {
 161:..\..\..\u8g2\u8g2\csrc/u8x8_d_ist3020.c **** 	u8x8_cad_SendSequence(u8x8, u8x8_d_ist3020_erc19264_flip1_seq);
 107              		.loc 1 161 0
 108 0048 2549     		ldr	r1, .L20+20
 109 004a FFF7FEFF 		bl	u8x8_cad_SendSequence
 110              	.LVL12:
 162:..\..\..\u8g2\u8g2\csrc/u8x8_d_ist3020.c **** 	u8x8->x_offset = u8x8->display_info->flipmode_x_offset;
 111              		.loc 1 162 0
 112 004e 2368     		ldr	r3, [r4]
 113 0050 DB7C     		ldrb	r3, [r3, #19]	@ zero_extendqisi2
 114              	.L17:
 115 0052 84F82230 		strb	r3, [r4, #34]
 116 0056 0CE0     		b	.L15
 117              	.LVL13:
 118              	.L8:
 163:..\..\..\u8g2\u8g2\csrc/u8x8_d_ist3020.c ****       }	
 164:..\..\..\u8g2\u8g2\csrc/u8x8_d_ist3020.c ****       break;
 165:..\..\..\u8g2\u8g2\csrc/u8x8_d_ist3020.c **** #ifdef U8X8_WITH_SET_CONTRAST
ARM GAS  C:\Users\jesse\AppData\Local\Temp\ccua2IuJ.s 			page 6


 166:..\..\..\u8g2\u8g2\csrc/u8x8_d_ist3020.c ****     case U8X8_MSG_DISPLAY_SET_CONTRAST:
 167:..\..\..\u8g2\u8g2\csrc/u8x8_d_ist3020.c ****       u8x8_cad_StartTransfer(u8x8);
 119              		.loc 1 167 0
 120 0058 FFF7FEFF 		bl	u8x8_cad_StartTransfer
 121              	.LVL14:
 168:..\..\..\u8g2\u8g2\csrc/u8x8_d_ist3020.c ****       u8x8_cad_SendCmd(u8x8, 0x081 );
 122              		.loc 1 168 0
 123 005c 8121     		movs	r1, #129
 124 005e 2046     		mov	r0, r4
 125 0060 FFF7FEFF 		bl	u8x8_cad_SendCmd
 126              	.LVL15:
 169:..\..\..\u8g2\u8g2\csrc/u8x8_d_ist3020.c ****       u8x8_cad_SendArg(u8x8, arg_int >> 2 );	/* st7567 has range from 0 to 63 */
 127              		.loc 1 169 0
 128 0064 A908     		lsrs	r1, r5, #2
 129 0066 2046     		mov	r0, r4
 130 0068 FFF7FEFF 		bl	u8x8_cad_SendArg
 131              	.LVL16:
 132              	.L16:
 170:..\..\..\u8g2\u8g2\csrc/u8x8_d_ist3020.c ****       u8x8_cad_EndTransfer(u8x8);
 133              		.loc 1 170 0
 134 006c 2046     		mov	r0, r4
 135 006e FFF7FEFF 		bl	u8x8_cad_EndTransfer
 136              	.LVL17:
 137              	.L15:
 171:..\..\..\u8g2\u8g2\csrc/u8x8_d_ist3020.c ****       break;
 172:..\..\..\u8g2\u8g2\csrc/u8x8_d_ist3020.c **** #endif
 173:..\..\..\u8g2\u8g2\csrc/u8x8_d_ist3020.c ****     case U8X8_MSG_DISPLAY_DRAW_TILE:
 174:..\..\..\u8g2\u8g2\csrc/u8x8_d_ist3020.c ****       u8x8_cad_StartTransfer(u8x8);
 175:..\..\..\u8g2\u8g2\csrc/u8x8_d_ist3020.c ****     
 176:..\..\..\u8g2\u8g2\csrc/u8x8_d_ist3020.c ****       x = ((u8x8_tile_t *)arg_ptr)->x_pos;
 177:..\..\..\u8g2\u8g2\csrc/u8x8_d_ist3020.c ****       x *= 8;
 178:..\..\..\u8g2\u8g2\csrc/u8x8_d_ist3020.c ****       x += u8x8->x_offset;
 179:..\..\..\u8g2\u8g2\csrc/u8x8_d_ist3020.c ****       u8x8_cad_SendCmd(u8x8, 0x010 | (x>>4) );
 180:..\..\..\u8g2\u8g2\csrc/u8x8_d_ist3020.c ****       u8x8_cad_SendCmd(u8x8, 0x000 | ((x&15)));
 181:..\..\..\u8g2\u8g2\csrc/u8x8_d_ist3020.c ****       u8x8_cad_SendCmd(u8x8, 0x0b0 | (((u8x8_tile_t *)arg_ptr)->y_pos));
 182:..\..\..\u8g2\u8g2\csrc/u8x8_d_ist3020.c ****     
 183:..\..\..\u8g2\u8g2\csrc/u8x8_d_ist3020.c ****       c = ((u8x8_tile_t *)arg_ptr)->cnt;
 184:..\..\..\u8g2\u8g2\csrc/u8x8_d_ist3020.c ****       c *= 8;
 185:..\..\..\u8g2\u8g2\csrc/u8x8_d_ist3020.c ****       ptr = ((u8x8_tile_t *)arg_ptr)->tile_ptr;
 186:..\..\..\u8g2\u8g2\csrc/u8x8_d_ist3020.c ****       do
 187:..\..\..\u8g2\u8g2\csrc/u8x8_d_ist3020.c ****       {
 188:..\..\..\u8g2\u8g2\csrc/u8x8_d_ist3020.c **** 	u8x8_cad_SendData(u8x8, c, ptr);	/* note: SendData can not handle more than 255 bytes */
 189:..\..\..\u8g2\u8g2\csrc/u8x8_d_ist3020.c **** 	arg_int--;
 190:..\..\..\u8g2\u8g2\csrc/u8x8_d_ist3020.c ****       } while( arg_int > 0 );
 191:..\..\..\u8g2\u8g2\csrc/u8x8_d_ist3020.c ****       
 192:..\..\..\u8g2\u8g2\csrc/u8x8_d_ist3020.c ****       u8x8_cad_EndTransfer(u8x8);
 193:..\..\..\u8g2\u8g2\csrc/u8x8_d_ist3020.c ****       break;
 194:..\..\..\u8g2\u8g2\csrc/u8x8_d_ist3020.c ****     default:
 195:..\..\..\u8g2\u8g2\csrc/u8x8_d_ist3020.c ****       return 0;
 196:..\..\..\u8g2\u8g2\csrc/u8x8_d_ist3020.c ****   }
 197:..\..\..\u8g2\u8g2\csrc/u8x8_d_ist3020.c ****   return 1;
 138              		.loc 1 197 0
 139 0072 0120     		movs	r0, #1
 171:..\..\..\u8g2\u8g2\csrc/u8x8_d_ist3020.c ****       break;
 140              		.loc 1 171 0
 141 0074 F8BD     		pop	{r3, r4, r5, r6, r7, pc}
 142              	.LVL18:
ARM GAS  C:\Users\jesse\AppData\Local\Temp\ccua2IuJ.s 			page 7


 143              	.L9:
 174:..\..\..\u8g2\u8g2\csrc/u8x8_d_ist3020.c ****     
 144              		.loc 1 174 0
 145 0076 FFF7FEFF 		bl	u8x8_cad_StartTransfer
 146              	.LVL19:
 178:..\..\..\u8g2\u8g2\csrc/u8x8_d_ist3020.c ****       u8x8_cad_SendCmd(u8x8, 0x010 | (x>>4) );
 147              		.loc 1 178 0
 148 007a 94F82230 		ldrb	r3, [r4, #34]	@ zero_extendqisi2
 176:..\..\..\u8g2\u8g2\csrc/u8x8_d_ist3020.c ****       x *= 8;
 149              		.loc 1 176 0
 150 007e 7E79     		ldrb	r6, [r7, #5]	@ zero_extendqisi2
 151              	.LVL20:
 179:..\..\..\u8g2\u8g2\csrc/u8x8_d_ist3020.c ****       u8x8_cad_SendCmd(u8x8, 0x000 | ((x&15)));
 152              		.loc 1 179 0
 153 0080 2046     		mov	r0, r4
 178:..\..\..\u8g2\u8g2\csrc/u8x8_d_ist3020.c ****       u8x8_cad_SendCmd(u8x8, 0x010 | (x>>4) );
 154              		.loc 1 178 0
 155 0082 03EBC606 		add	r6, r3, r6, lsl #3
 156              	.LVL21:
 157 0086 06F0FF06 		and	r6, r6, #255
 158              	.LVL22:
 179:..\..\..\u8g2\u8g2\csrc/u8x8_d_ist3020.c ****       u8x8_cad_SendCmd(u8x8, 0x000 | ((x&15)));
 159              		.loc 1 179 0
 160 008a 3109     		lsrs	r1, r6, #4
 161 008c 41F01001 		orr	r1, r1, #16
 162 0090 FFF7FEFF 		bl	u8x8_cad_SendCmd
 163              	.LVL23:
 180:..\..\..\u8g2\u8g2\csrc/u8x8_d_ist3020.c ****       u8x8_cad_SendCmd(u8x8, 0x0b0 | (((u8x8_tile_t *)arg_ptr)->y_pos));
 164              		.loc 1 180 0
 165 0094 06F00F01 		and	r1, r6, #15
 166 0098 2046     		mov	r0, r4
 167 009a FFF7FEFF 		bl	u8x8_cad_SendCmd
 168              	.LVL24:
 181:..\..\..\u8g2\u8g2\csrc/u8x8_d_ist3020.c ****     
 169              		.loc 1 181 0
 170 009e B979     		ldrb	r1, [r7, #6]	@ zero_extendqisi2
 171 00a0 2046     		mov	r0, r4
 172 00a2 41F0B001 		orr	r1, r1, #176
 173 00a6 FFF7FEFF 		bl	u8x8_cad_SendCmd
 174              	.LVL25:
 183:..\..\..\u8g2\u8g2\csrc/u8x8_d_ist3020.c ****       c *= 8;
 175              		.loc 1 183 0
 176 00aa 3E79     		ldrb	r6, [r7, #4]	@ zero_extendqisi2
 177              	.LVL26:
 185:..\..\..\u8g2\u8g2\csrc/u8x8_d_ist3020.c ****       do
 178              		.loc 1 185 0
 179 00ac 3F68     		ldr	r7, [r7]
 180              	.LVL27:
 184:..\..\..\u8g2\u8g2\csrc/u8x8_d_ist3020.c ****       ptr = ((u8x8_tile_t *)arg_ptr)->tile_ptr;
 181              		.loc 1 184 0
 182 00ae F600     		lsls	r6, r6, #3
 183              	.LVL28:
 184 00b0 F6B2     		uxtb	r6, r6
 185              	.LVL29:
 186              	.L12:
 188:..\..\..\u8g2\u8g2\csrc/u8x8_d_ist3020.c **** 	arg_int--;
 187              		.loc 1 188 0 discriminator 1
ARM GAS  C:\Users\jesse\AppData\Local\Temp\ccua2IuJ.s 			page 8


 188 00b2 3A46     		mov	r2, r7
 189 00b4 3146     		mov	r1, r6
 190 00b6 2046     		mov	r0, r4
 189:..\..\..\u8g2\u8g2\csrc/u8x8_d_ist3020.c ****       } while( arg_int > 0 );
 191              		.loc 1 189 0 discriminator 1
 192 00b8 013D     		subs	r5, r5, #1
 193              	.LVL30:
 188:..\..\..\u8g2\u8g2\csrc/u8x8_d_ist3020.c **** 	arg_int--;
 194              		.loc 1 188 0 discriminator 1
 195 00ba FFF7FEFF 		bl	u8x8_cad_SendData
 196              	.LVL31:
 190:..\..\..\u8g2\u8g2\csrc/u8x8_d_ist3020.c ****       
 197              		.loc 1 190 0 discriminator 1
 198 00be 15F0FF05 		ands	r5, r5, #255
 199              	.LVL32:
 200 00c2 F6D1     		bne	.L12
 201 00c4 D2E7     		b	.L16
 202              	.LVL33:
 203              	.L13:
 195:..\..\..\u8g2\u8g2\csrc/u8x8_d_ist3020.c ****   }
 204              		.loc 1 195 0
 205 00c6 0020     		movs	r0, #0
 206              	.LVL34:
 198:..\..\..\u8g2\u8g2\csrc/u8x8_d_ist3020.c **** }
 207              		.loc 1 198 0
 208 00c8 F8BD     		pop	{r3, r4, r5, r6, r7, pc}
 209              	.LVL35:
 210              	.L21:
 211 00ca 00BF     		.align	2
 212              	.L20:
 213 00cc 00000000 		.word	.LANCHOR0
 214 00d0 18000000 		.word	.LANCHOR0+24
 215 00d4 41000000 		.word	.LANCHOR0+65
 216 00d8 48000000 		.word	.LANCHOR0+72
 217 00dc 4F000000 		.word	.LANCHOR0+79
 218 00e0 56000000 		.word	.LANCHOR0+86
 219              		.cfi_endproc
 220              	.LFE0:
 221              		.size	u8x8_d_ist3020_erc19264, .-u8x8_d_ist3020_erc19264
 222              		.section	.rodata
 223              		.align	2
 224              		.set	.LANCHOR0,. + 0
 225              		.type	u8x8_ist3020_erc19264_display_info, %object
 226              		.size	u8x8_ist3020_erc19264_display_info, 24
 227              	u8x8_ist3020_erc19264_display_info:
 228 0000 00       		.byte	0
 229 0001 01       		.byte	1
 230 0002 96       		.byte	-106
 231 0003 96       		.byte	-106
 232 0004 01       		.byte	1
 233 0005 01       		.byte	1
 234 0006 64       		.byte	100
 235 0007 64       		.byte	100
 236 0008 00093D00 		.word	4000000
 237 000c 00       		.byte	0
 238 000d 04       		.byte	4
 239 000e 28       		.byte	40
ARM GAS  C:\Users\jesse\AppData\Local\Temp\ccua2IuJ.s 			page 9


 240 000f 3C       		.byte	60
 241 0010 18       		.byte	24
 242 0011 08       		.byte	8
 243 0012 00       		.byte	0
 244 0013 40       		.byte	64
 245 0014 C000     		.short	192
 246 0016 4000     		.short	64
 247              		.type	u8x8_d_ist3020_erc19264_init_seq, %object
 248              		.size	u8x8_d_ist3020_erc19264_init_seq, 41
 249              	u8x8_d_ist3020_erc19264_init_seq:
 250 0018 18       		.byte	24
 251 0019 15       		.byte	21
 252 001a E2       		.byte	-30
 253 001b 15       		.byte	21
 254 001c AB       		.byte	-85
 255 001d 15       		.byte	21
 256 001e AE       		.byte	-82
 257 001f 15       		.byte	21
 258 0020 40       		.byte	64
 259 0021 15       		.byte	21
 260 0022 A0       		.byte	-96
 261 0023 15       		.byte	21
 262 0024 C8       		.byte	-56
 263 0025 15       		.byte	21
 264 0026 A6       		.byte	-90
 265 0027 15       		.byte	21
 266 0028 A3       		.byte	-93
 267 0029 15       		.byte	21
 268 002a 2C       		.byte	44
 269 002b FE       		.byte	-2
 270 002c 32       		.byte	50
 271 002d 15       		.byte	21
 272 002e 2E       		.byte	46
 273 002f FE       		.byte	-2
 274 0030 32       		.byte	50
 275 0031 15       		.byte	21
 276 0032 2F       		.byte	47
 277 0033 FE       		.byte	-2
 278 0034 32       		.byte	50
 279 0035 15       		.byte	21
 280 0036 20       		.byte	32
 281 0037 15       		.byte	21
 282 0038 81       		.byte	-127
 283 0039 16       		.byte	22
 284 003a 19       		.byte	25
 285 003b 15       		.byte	21
 286 003c AE       		.byte	-82
 287 003d 15       		.byte	21
 288 003e A5       		.byte	-91
 289 003f 19       		.byte	25
 290 0040 FF       		.byte	-1
 291              		.type	u8x8_d_ist3020_erc19264_powersave0_seq, %object
 292              		.size	u8x8_d_ist3020_erc19264_powersave0_seq, 7
 293              	u8x8_d_ist3020_erc19264_powersave0_seq:
 294 0041 18       		.byte	24
 295 0042 15       		.byte	21
 296 0043 A4       		.byte	-92
ARM GAS  C:\Users\jesse\AppData\Local\Temp\ccua2IuJ.s 			page 10


 297 0044 15       		.byte	21
 298 0045 AF       		.byte	-81
 299 0046 19       		.byte	25
 300 0047 FF       		.byte	-1
 301              		.type	u8x8_d_ist3020_erc19264_powersave1_seq, %object
 302              		.size	u8x8_d_ist3020_erc19264_powersave1_seq, 7
 303              	u8x8_d_ist3020_erc19264_powersave1_seq:
 304 0048 18       		.byte	24
 305 0049 15       		.byte	21
 306 004a AE       		.byte	-82
 307 004b 15       		.byte	21
 308 004c A5       		.byte	-91
 309 004d 19       		.byte	25
 310 004e FF       		.byte	-1
 311              		.type	u8x8_d_ist3020_erc19264_flip0_seq, %object
 312              		.size	u8x8_d_ist3020_erc19264_flip0_seq, 7
 313              	u8x8_d_ist3020_erc19264_flip0_seq:
 314 004f 18       		.byte	24
 315 0050 15       		.byte	21
 316 0051 A0       		.byte	-96
 317 0052 15       		.byte	21
 318 0053 C8       		.byte	-56
 319 0054 19       		.byte	25
 320 0055 FF       		.byte	-1
 321              		.type	u8x8_d_ist3020_erc19264_flip1_seq, %object
 322              		.size	u8x8_d_ist3020_erc19264_flip1_seq, 7
 323              	u8x8_d_ist3020_erc19264_flip1_seq:
 324 0056 18       		.byte	24
 325 0057 15       		.byte	21
 326 0058 A1       		.byte	-95
 327 0059 15       		.byte	21
 328 005a C0       		.byte	-64
 329 005b 19       		.byte	25
 330 005c FF       		.byte	-1
 331              		.text
 332              	.Letext0:
 333              		.file 2 "c:\\program files (x86)\\cypress\\psoc creator\\4.4\\psoc creator\\import\\gnu\\arm\\5.4.
 334              		.file 3 "c:\\program files (x86)\\cypress\\psoc creator\\4.4\\psoc creator\\import\\gnu\\arm\\5.4.
 335              		.file 4 "..\\..\\..\\u8g2\\u8g2\\csrc\\u8x8.h"