ARM GAS  C:\Users\jesse\AppData\Local\Temp\cc6ngVGg.s 			page 1


   1              		.syntax unified
   2              		.cpu cortex-m3
   3              		.fpu softvfp
   4              		.eabi_attribute 20, 1
   5              		.eabi_attribute 21, 1
   6              		.eabi_attribute 23, 3
   7              		.eabi_attribute 24, 1
   8              		.eabi_attribute 25, 1
   9              		.eabi_attribute 26, 1
  10              		.eabi_attribute 30, 4
  11              		.eabi_attribute 34, 1
  12              		.eabi_attribute 18, 4
  13              		.thumb
  14              		.syntax unified
  15              		.file	"u8x8_d_a2printer.c"
  16              		.text
  17              	.Ltext0:
  18              		.cfi_sections	.debug_frame
  19              		.section	.text.get_delay_in_milliseconds,"ax",%progbits
  20              		.align	1
  21              		.global	get_delay_in_milliseconds
  22              		.thumb
  23              		.thumb_func
  24              		.type	get_delay_in_milliseconds, %function
  25              	get_delay_in_milliseconds:
  26              	.LFB0:
  27              		.file 1 "..\\..\\..\\u8g2\\u8g2\\csrc\\u8x8_d_a2printer.c"
   1:..\..\..\u8g2\u8g2\csrc/u8x8_d_a2printer.c **** /*
   2:..\..\..\u8g2\u8g2\csrc/u8x8_d_a2printer.c **** 
   3:..\..\..\u8g2\u8g2\csrc/u8x8_d_a2printer.c ****   u8x8_d_a2printer.c
   4:..\..\..\u8g2\u8g2\csrc/u8x8_d_a2printer.c ****   
   5:..\..\..\u8g2\u8g2\csrc/u8x8_d_a2printer.c ****   Universal 8bit Graphics Library (https://github.com/olikraus/u8g2/)
   6:..\..\..\u8g2\u8g2\csrc/u8x8_d_a2printer.c **** 
   7:..\..\..\u8g2\u8g2\csrc/u8x8_d_a2printer.c ****   Copyright (c) 2016, olikraus@gmail.com
   8:..\..\..\u8g2\u8g2\csrc/u8x8_d_a2printer.c ****   All rights reserved.
   9:..\..\..\u8g2\u8g2\csrc/u8x8_d_a2printer.c **** 
  10:..\..\..\u8g2\u8g2\csrc/u8x8_d_a2printer.c ****   Redistribution and use in source and binary forms, with or without modification, 
  11:..\..\..\u8g2\u8g2\csrc/u8x8_d_a2printer.c ****   are permitted provided that the following conditions are met:
  12:..\..\..\u8g2\u8g2\csrc/u8x8_d_a2printer.c **** 
  13:..\..\..\u8g2\u8g2\csrc/u8x8_d_a2printer.c ****   * Redistributions of source code must retain the above copyright notice, this list 
  14:..\..\..\u8g2\u8g2\csrc/u8x8_d_a2printer.c ****     of conditions and the following disclaimer.
  15:..\..\..\u8g2\u8g2\csrc/u8x8_d_a2printer.c ****     
  16:..\..\..\u8g2\u8g2\csrc/u8x8_d_a2printer.c ****   * Redistributions in binary form must reproduce the above copyright notice, this 
  17:..\..\..\u8g2\u8g2\csrc/u8x8_d_a2printer.c ****     list of conditions and the following disclaimer in the documentation and/or other 
  18:..\..\..\u8g2\u8g2\csrc/u8x8_d_a2printer.c ****     materials provided with the distribution.
  19:..\..\..\u8g2\u8g2\csrc/u8x8_d_a2printer.c **** 
  20:..\..\..\u8g2\u8g2\csrc/u8x8_d_a2printer.c ****   THIS SOFTWARE IS PROVIDED BY THE COPYRIGHT HOLDERS AND 
  21:..\..\..\u8g2\u8g2\csrc/u8x8_d_a2printer.c ****   CONTRIBUTORS "AS IS" AND ANY EXPRESS OR IMPLIED WARRANTIES, 
  22:..\..\..\u8g2\u8g2\csrc/u8x8_d_a2printer.c ****   INCLUDING, BUT NOT LIMITED TO, THE IMPLIED WARRANTIES OF 
  23:..\..\..\u8g2\u8g2\csrc/u8x8_d_a2printer.c ****   MERCHANTABILITY AND FITNESS FOR A PARTICULAR PURPOSE ARE 
  24:..\..\..\u8g2\u8g2\csrc/u8x8_d_a2printer.c ****   DISCLAIMED. IN NO EVENT SHALL THE COPYRIGHT HOLDER OR 
  25:..\..\..\u8g2\u8g2\csrc/u8x8_d_a2printer.c ****   CONTRIBUTORS BE LIABLE FOR ANY DIRECT, INDIRECT, INCIDENTAL, 
  26:..\..\..\u8g2\u8g2\csrc/u8x8_d_a2printer.c ****   SPECIAL, EXEMPLARY, OR CONSEQUENTIAL DAMAGES (INCLUDING, BUT 
  27:..\..\..\u8g2\u8g2\csrc/u8x8_d_a2printer.c ****   NOT LIMITED TO, PROCUREMENT OF SUBSTITUTE GOODS OR SERVICES; 
  28:..\..\..\u8g2\u8g2\csrc/u8x8_d_a2printer.c ****   LOSS OF USE, DATA, OR PROFITS; OR BUSINESS INTERRUPTION) HOWEVER 
  29:..\..\..\u8g2\u8g2\csrc/u8x8_d_a2printer.c ****   CAUSED AND ON ANY THEORY OF LIABILITY, WHETHER IN CONTRACT, 
  30:..\..\..\u8g2\u8g2\csrc/u8x8_d_a2printer.c ****   STRICT LIABILITY, OR TORT (INCLUDING NEGLIGENCE OR OTHERWISE) 
ARM GAS  C:\Users\jesse\AppData\Local\Temp\cc6ngVGg.s 			page 2


  31:..\..\..\u8g2\u8g2\csrc/u8x8_d_a2printer.c ****   ARISING IN ANY WAY OUT OF THE USE OF THIS SOFTWARE, EVEN IF 
  32:..\..\..\u8g2\u8g2\csrc/u8x8_d_a2printer.c ****   ADVISED OF THE POSSIBILITY OF SUCH DAMAGE.  
  33:..\..\..\u8g2\u8g2\csrc/u8x8_d_a2printer.c **** 
  34:..\..\..\u8g2\u8g2\csrc/u8x8_d_a2printer.c **** 
  35:..\..\..\u8g2\u8g2\csrc/u8x8_d_a2printer.c ****   Use DC2 bitmap command of the A2 Micro panel termal printer
  36:..\..\..\u8g2\u8g2\csrc/u8x8_d_a2printer.c ****   double stroke
  37:..\..\..\u8g2\u8g2\csrc/u8x8_d_a2printer.c ****   
  38:..\..\..\u8g2\u8g2\csrc/u8x8_d_a2printer.c ****   
  39:..\..\..\u8g2\u8g2\csrc/u8x8_d_a2printer.c **** */
  40:..\..\..\u8g2\u8g2\csrc/u8x8_d_a2printer.c **** 
  41:..\..\..\u8g2\u8g2\csrc/u8x8_d_a2printer.c **** 
  42:..\..\..\u8g2\u8g2\csrc/u8x8_d_a2printer.c **** #include "u8x8.h"
  43:..\..\..\u8g2\u8g2\csrc/u8x8_d_a2printer.c **** 
  44:..\..\..\u8g2\u8g2\csrc/u8x8_d_a2printer.c **** #define LINE_MIN_DELAY_MS 15
  45:..\..\..\u8g2\u8g2\csrc/u8x8_d_a2printer.c **** /* higher values improve quality */
  46:..\..\..\u8g2\u8g2\csrc/u8x8_d_a2printer.c **** /* however if the value is too high (>=5) then form feed does not work any more */
  47:..\..\..\u8g2\u8g2\csrc/u8x8_d_a2printer.c **** #define LINE_EXTRA_8PIXEL_DELAY_MS 3
  48:..\..\..\u8g2\u8g2\csrc/u8x8_d_a2printer.c **** /* this must be a power of two and between 1 and 8 */
  49:..\..\..\u8g2\u8g2\csrc/u8x8_d_a2printer.c **** /* best quality only with 1 */
  50:..\..\..\u8g2\u8g2\csrc/u8x8_d_a2printer.c **** #define NO_OF_LINES_TO_SEND_WITHOUT_DELAY 1
  51:..\..\..\u8g2\u8g2\csrc/u8x8_d_a2printer.c **** 
  52:..\..\..\u8g2\u8g2\csrc/u8x8_d_a2printer.c **** /* calculates the delay, based on the number of black pixel */
  53:..\..\..\u8g2\u8g2\csrc/u8x8_d_a2printer.c **** /* actually only "none-zero" bytes are calculated which is, of course not so accurate, but should b
  54:..\..\..\u8g2\u8g2\csrc/u8x8_d_a2printer.c **** uint16_t get_delay_in_milliseconds(uint8_t cnt, uint8_t *data)
  55:..\..\..\u8g2\u8g2\csrc/u8x8_d_a2printer.c **** {
  28              		.loc 1 55 0
  29              		.cfi_startproc
  30              		@ args = 0, pretend = 0, frame = 0
  31              		@ frame_needed = 0, uses_anonymous_args = 0
  32              	.LVL0:
  56:..\..\..\u8g2\u8g2\csrc/u8x8_d_a2printer.c ****   uint8_t i;
  57:..\..\..\u8g2\u8g2\csrc/u8x8_d_a2printer.c ****   uint16_t time = LINE_MIN_DELAY_MS;
  58:..\..\..\u8g2\u8g2\csrc/u8x8_d_a2printer.c ****   for ( i = 0; i < cnt; i++ )
  33              		.loc 1 58 0
  34 0000 0A46     		mov	r2, r1
  55:..\..\..\u8g2\u8g2\csrc/u8x8_d_a2printer.c ****   uint8_t i;
  35              		.loc 1 55 0
  36 0002 10B5     		push	{r4, lr}
  37              		.cfi_def_cfa_offset 8
  38              		.cfi_offset 4, -8
  39              		.cfi_offset 14, -4
  55:..\..\..\u8g2\u8g2\csrc/u8x8_d_a2printer.c ****   uint8_t i;
  40              		.loc 1 55 0
  41 0004 0446     		mov	r4, r0
  42              	.LVL1:
  57:..\..\..\u8g2\u8g2\csrc/u8x8_d_a2printer.c ****   for ( i = 0; i < cnt; i++ )
  43              		.loc 1 57 0
  44 0006 0F20     		movs	r0, #15
  45              	.LVL2:
  46              	.L2:
  47              		.loc 1 58 0 discriminator 1
  48 0008 531A     		subs	r3, r2, r1
  49 000a DBB2     		uxtb	r3, r3
  50 000c 9C42     		cmp	r4, r3
  51 000e 06D9     		bls	.L9
  59:..\..\..\u8g2\u8g2\csrc/u8x8_d_a2printer.c ****     if ( data[i] != 0 )
  52              		.loc 1 59 0
ARM GAS  C:\Users\jesse\AppData\Local\Temp\cc6ngVGg.s 			page 3


  53 0010 12F8013B 		ldrb	r3, [r2], #1	@ zero_extendqisi2
  54              	.LVL3:
  55 0014 002B     		cmp	r3, #0
  56 0016 F7D0     		beq	.L2
  60:..\..\..\u8g2\u8g2\csrc/u8x8_d_a2printer.c ****       time += LINE_EXTRA_8PIXEL_DELAY_MS;
  57              		.loc 1 60 0
  58 0018 C31C     		adds	r3, r0, #3
  59 001a 98B2     		uxth	r0, r3
  60              	.LVL4:
  61 001c F4E7     		b	.L2
  62              	.L9:
  61:..\..\..\u8g2\u8g2\csrc/u8x8_d_a2printer.c ****   return time;
  62:..\..\..\u8g2\u8g2\csrc/u8x8_d_a2printer.c **** }
  63              		.loc 1 62 0
  64 001e 10BD     		pop	{r4, pc}
  65              		.cfi_endproc
  66              	.LFE0:
  67              		.size	get_delay_in_milliseconds, .-get_delay_in_milliseconds
  68              		.section	.text.u8x8_d_a2printer_common,"ax",%progbits
  69              		.align	1
  70              		.global	u8x8_d_a2printer_common
  71              		.thumb
  72              		.thumb_func
  73              		.type	u8x8_d_a2printer_common, %function
  74              	u8x8_d_a2printer_common:
  75              	.LFB1:
  63:..\..\..\u8g2\u8g2\csrc/u8x8_d_a2printer.c **** 
  64:..\..\..\u8g2\u8g2\csrc/u8x8_d_a2printer.c **** uint8_t u8x8_d_a2printer_common(u8x8_t *u8x8, uint8_t msg, U8X8_UNUSED uint8_t arg_int, void *arg_p
  65:..\..\..\u8g2\u8g2\csrc/u8x8_d_a2printer.c **** {
  76              		.loc 1 65 0
  77              		.cfi_startproc
  78              		@ args = 0, pretend = 0, frame = 0
  79              		@ frame_needed = 0, uses_anonymous_args = 0
  80              	.LVL5:
  66:..\..\..\u8g2\u8g2\csrc/u8x8_d_a2printer.c ****   uint8_t c, i, j;
  67:..\..\..\u8g2\u8g2\csrc/u8x8_d_a2printer.c ****   uint8_t *ptr;
  68:..\..\..\u8g2\u8g2\csrc/u8x8_d_a2printer.c ****   uint16_t delay_in_milliseconds;
  69:..\..\..\u8g2\u8g2\csrc/u8x8_d_a2printer.c ****   switch(msg)
  81              		.loc 1 69 0
  82 0000 0B29     		cmp	r1, #11
  65:..\..\..\u8g2\u8g2\csrc/u8x8_d_a2printer.c ****   uint8_t c, i, j;
  83              		.loc 1 65 0
  84 0002 2DE9F843 		push	{r3, r4, r5, r6, r7, r8, r9, lr}
  85              		.cfi_def_cfa_offset 32
  86              		.cfi_offset 3, -32
  87              		.cfi_offset 4, -28
  88              		.cfi_offset 5, -24
  89              		.cfi_offset 6, -20
  90              		.cfi_offset 7, -16
  91              		.cfi_offset 8, -12
  92              		.cfi_offset 9, -8
  93              		.cfi_offset 14, -4
  65:..\..\..\u8g2\u8g2\csrc/u8x8_d_a2printer.c ****   uint8_t c, i, j;
  94              		.loc 1 65 0
  95 0006 0446     		mov	r4, r0
  96 0008 1D46     		mov	r5, r3
  97              		.loc 1 69 0
ARM GAS  C:\Users\jesse\AppData\Local\Temp\cc6ngVGg.s 			page 4


  98 000a 68D0     		beq	.L21
  99 000c 0F29     		cmp	r1, #15
 100 000e 04D0     		beq	.L13
 101 0010 0A29     		cmp	r1, #10
 102 0012 67D1     		bne	.L20
  70:..\..\..\u8g2\u8g2\csrc/u8x8_d_a2printer.c ****   {
  71:..\..\..\u8g2\u8g2\csrc/u8x8_d_a2printer.c ****     /* U8X8_MSG_DISPLAY_SETUP_MEMORY is handled by the calling function */
  72:..\..\..\u8g2\u8g2\csrc/u8x8_d_a2printer.c ****     /*
  73:..\..\..\u8g2\u8g2\csrc/u8x8_d_a2printer.c ****     case U8X8_MSG_DISPLAY_SETUP_MEMORY:
  74:..\..\..\u8g2\u8g2\csrc/u8x8_d_a2printer.c ****       break;
  75:..\..\..\u8g2\u8g2\csrc/u8x8_d_a2printer.c ****     */
  76:..\..\..\u8g2\u8g2\csrc/u8x8_d_a2printer.c ****     case U8X8_MSG_DISPLAY_INIT:
  77:..\..\..\u8g2\u8g2\csrc/u8x8_d_a2printer.c ****       u8x8_d_helper_display_init(u8x8);
 103              		.loc 1 77 0
 104 0014 FFF7FEFF 		bl	u8x8_d_helper_display_init
 105              	.LVL6:
 106 0018 61E0     		b	.L21
 107              	.LVL7:
 108              	.L13:
 109              	.LBB4:
 110              	.LBB5:
  78:..\..\..\u8g2\u8g2\csrc/u8x8_d_a2printer.c ****       // no setup required
  79:..\..\..\u8g2\u8g2\csrc/u8x8_d_a2printer.c ****       // u8x8_cad_SendSequence(u8x8, u8x8_d_a2printer_init_seq);
  80:..\..\..\u8g2\u8g2\csrc/u8x8_d_a2printer.c ****       break;
  81:..\..\..\u8g2\u8g2\csrc/u8x8_d_a2printer.c ****     case U8X8_MSG_DISPLAY_SET_POWER_SAVE:
  82:..\..\..\u8g2\u8g2\csrc/u8x8_d_a2printer.c ****       // no powersave 
  83:..\..\..\u8g2\u8g2\csrc/u8x8_d_a2printer.c ****       break;
  84:..\..\..\u8g2\u8g2\csrc/u8x8_d_a2printer.c ****     case U8X8_MSG_DISPLAY_DRAW_TILE:
  85:..\..\..\u8g2\u8g2\csrc/u8x8_d_a2printer.c ****       u8x8_cad_StartTransfer(u8x8);
 111              		.loc 1 85 0
 112 001a FFF7FEFF 		bl	u8x8_cad_StartTransfer
 113              	.LVL8:
  86:..\..\..\u8g2\u8g2\csrc/u8x8_d_a2printer.c ****       
  87:..\..\..\u8g2\u8g2\csrc/u8x8_d_a2printer.c ****       u8x8_cad_SendCmd(u8x8, 27);      /* ESC */
 114              		.loc 1 87 0
 115 001e 1B21     		movs	r1, #27
 116 0020 2046     		mov	r0, r4
 117 0022 FFF7FEFF 		bl	u8x8_cad_SendCmd
 118              	.LVL9:
  88:..\..\..\u8g2\u8g2\csrc/u8x8_d_a2printer.c ****       u8x8_cad_SendCmd(u8x8, 55 );      /* parameter command */
 119              		.loc 1 88 0
 120 0026 3721     		movs	r1, #55
 121 0028 2046     		mov	r0, r4
 122 002a FFF7FEFF 		bl	u8x8_cad_SendCmd
 123              	.LVL10:
  89:..\..\..\u8g2\u8g2\csrc/u8x8_d_a2printer.c ****       /* increasing the "max printing dots" requires a good power supply, but LINE_EXTRA_8PIXEL_DEL
  90:..\..\..\u8g2\u8g2\csrc/u8x8_d_a2printer.c ****       u8x8_cad_SendCmd(u8x8, 0);      /* Max printing dots,Unit(8dots),Default:7(64 dots) 8*(x+1) .
 124              		.loc 1 90 0
 125 002e 0021     		movs	r1, #0
 126 0030 2046     		mov	r0, r4
 127 0032 FFF7FEFF 		bl	u8x8_cad_SendCmd
 128              	.LVL11:
  91:..\..\..\u8g2\u8g2\csrc/u8x8_d_a2printer.c ****       u8x8_cad_SendCmd(u8x8, 200);      /* 3-255 Heating time,Unit(10us),Default:80(800us) */
 129              		.loc 1 91 0
 130 0036 C821     		movs	r1, #200
 131 0038 2046     		mov	r0, r4
 132 003a FFF7FEFF 		bl	u8x8_cad_SendCmd
ARM GAS  C:\Users\jesse\AppData\Local\Temp\cc6ngVGg.s 			page 5


 133              	.LVL12:
  92:..\..\..\u8g2\u8g2\csrc/u8x8_d_a2printer.c ****       u8x8_cad_SendCmd(u8x8, 2);      /* 0-255 Heating interval,Unit(10us),Default:2(20us) ... does
 134              		.loc 1 92 0
 135 003e 0221     		movs	r1, #2
 136 0040 2046     		mov	r0, r4
 137 0042 FFF7FEFF 		bl	u8x8_cad_SendCmd
 138              	.LVL13:
  93:..\..\..\u8g2\u8g2\csrc/u8x8_d_a2printer.c ****       
  94:..\..\..\u8g2\u8g2\csrc/u8x8_d_a2printer.c ****       //c = ((u8x8_tile_t *)arg_ptr)->cnt;	/* number of tiles */
  95:..\..\..\u8g2\u8g2\csrc/u8x8_d_a2printer.c ****       c = u8x8->display_info->tile_width;
 139              		.loc 1 95 0
 140 0046 2368     		ldr	r3, [r4]
  96:..\..\..\u8g2\u8g2\csrc/u8x8_d_a2printer.c ****       ptr = ((u8x8_tile_t *)arg_ptr)->tile_ptr;	/* data ptr to the tiles */
  97:..\..\..\u8g2\u8g2\csrc/u8x8_d_a2printer.c ****     
  98:..\..\..\u8g2\u8g2\csrc/u8x8_d_a2printer.c ****       u8x8_cad_SendCmd(u8x8, 18);      /* DC2 */
 141              		.loc 1 98 0
 142 0048 1221     		movs	r1, #18
 143 004a 2046     		mov	r0, r4
  95:..\..\..\u8g2\u8g2\csrc/u8x8_d_a2printer.c ****       ptr = ((u8x8_tile_t *)arg_ptr)->tile_ptr;	/* data ptr to the tiles */
 144              		.loc 1 95 0
 145 004c 93F81080 		ldrb	r8, [r3, #16]	@ zero_extendqisi2
 146              	.LVL14:
  96:..\..\..\u8g2\u8g2\csrc/u8x8_d_a2printer.c ****       ptr = ((u8x8_tile_t *)arg_ptr)->tile_ptr;	/* data ptr to the tiles */
 147              		.loc 1 96 0
 148 0050 2F68     		ldr	r7, [r5]
 149              	.LVL15:
 150              		.loc 1 98 0
 151 0052 FFF7FEFF 		bl	u8x8_cad_SendCmd
 152              	.LVL16:
  99:..\..\..\u8g2\u8g2\csrc/u8x8_d_a2printer.c ****       u8x8_cad_SendCmd(u8x8, 42 );      /* *  */
 153              		.loc 1 99 0
 154 0056 2A21     		movs	r1, #42
 155 0058 2046     		mov	r0, r4
 156 005a FFF7FEFF 		bl	u8x8_cad_SendCmd
 157              	.LVL17:
 100:..\..\..\u8g2\u8g2\csrc/u8x8_d_a2printer.c ****       u8x8_cad_SendCmd(u8x8, 8 ); 	/* height */
 158              		.loc 1 100 0
 159 005e 0821     		movs	r1, #8
 160 0060 2046     		mov	r0, r4
 161 0062 FFF7FEFF 		bl	u8x8_cad_SendCmd
 162              	.LVL18:
 101:..\..\..\u8g2\u8g2\csrc/u8x8_d_a2printer.c ****       u8x8_cad_SendCmd(u8x8, c ); 	/* c, u8x8->display_info->tile_width */
 163              		.loc 1 101 0
 164 0066 4146     		mov	r1, r8
 165 0068 2046     		mov	r0, r4
 166 006a FFF7FEFF 		bl	u8x8_cad_SendCmd
 167              	.LVL19:
 168 006e 0826     		movs	r6, #8
 169              	.LVL20:
 170              	.L15:
 102:..\..\..\u8g2\u8g2\csrc/u8x8_d_a2printer.c ****       
 103:..\..\..\u8g2\u8g2\csrc/u8x8_d_a2printer.c ****       for( j = 0; j < 8 / NO_OF_LINES_TO_SEND_WITHOUT_DELAY; j ++ )
 104:..\..\..\u8g2\u8g2\csrc/u8x8_d_a2printer.c ****       {
 105:..\..\..\u8g2\u8g2\csrc/u8x8_d_a2printer.c **** 
 106:..\..\..\u8g2\u8g2\csrc/u8x8_d_a2printer.c **** 	delay_in_milliseconds = 0;
 107:..\..\..\u8g2\u8g2\csrc/u8x8_d_a2printer.c **** 	for( i = 0; i < NO_OF_LINES_TO_SEND_WITHOUT_DELAY; i++ )
 108:..\..\..\u8g2\u8g2\csrc/u8x8_d_a2printer.c **** 	{
ARM GAS  C:\Users\jesse\AppData\Local\Temp\cc6ngVGg.s 			page 6


 109:..\..\..\u8g2\u8g2\csrc/u8x8_d_a2printer.c **** 	  u8x8_cad_SendData(u8x8, c, ptr);	/* c, note: SendData can not handle more than 255 bytes, send o
 171              		.loc 1 109 0
 172 0070 3A46     		mov	r2, r7
 173 0072 4146     		mov	r1, r8
 174 0074 2046     		mov	r0, r4
 175 0076 FFF7FEFF 		bl	u8x8_cad_SendData
 176              	.LVL21:
 110:..\..\..\u8g2\u8g2\csrc/u8x8_d_a2printer.c **** 	  delay_in_milliseconds += get_delay_in_milliseconds(c, ptr);
 177              		.loc 1 110 0
 178 007a 3946     		mov	r1, r7
 179 007c 4046     		mov	r0, r8
 180 007e FFF7FEFF 		bl	get_delay_in_milliseconds
 181              	.LVL22:
 182 0082 0546     		mov	r5, r0
 183              	.LVL23:
 184 0084 4744     		add	r7, r7, r8
 185              	.LVL24:
 186              	.L18:
 111:..\..\..\u8g2\u8g2\csrc/u8x8_d_a2printer.c **** 	  ptr += c;
 112:..\..\..\u8g2\u8g2\csrc/u8x8_d_a2printer.c **** 	}
 113:..\..\..\u8g2\u8g2\csrc/u8x8_d_a2printer.c **** 	
 114:..\..\..\u8g2\u8g2\csrc/u8x8_d_a2printer.c **** 	while( delay_in_milliseconds > 200 )
 187              		.loc 1 114 0
 188 0086 C82D     		cmp	r5, #200
 115:..\..\..\u8g2\u8g2\csrc/u8x8_d_a2printer.c **** 	{
 116:..\..\..\u8g2\u8g2\csrc/u8x8_d_a2printer.c **** 	  u8x8->gpio_and_delay_cb(u8x8, U8X8_MSG_DELAY_MILLI, 200, NULL);	
 189              		.loc 1 116 0
 190 0088 4FF00003 		mov	r3, #0
 191 008c D4F81490 		ldr	r9, [r4, #20]
 114:..\..\..\u8g2\u8g2\csrc/u8x8_d_a2printer.c **** 	{
 192              		.loc 1 114 0
 193 0090 06D9     		bls	.L22
 194              		.loc 1 116 0
 195 0092 C822     		movs	r2, #200
 196 0094 2921     		movs	r1, #41
 197 0096 2046     		mov	r0, r4
 117:..\..\..\u8g2\u8g2\csrc/u8x8_d_a2printer.c **** 	  delay_in_milliseconds -= 200;
 198              		.loc 1 117 0
 199 0098 C83D     		subs	r5, r5, #200
 200              	.LVL25:
 116:..\..\..\u8g2\u8g2\csrc/u8x8_d_a2printer.c **** 	  delay_in_milliseconds -= 200;
 201              		.loc 1 116 0
 202 009a C847     		blx	r9
 203              	.LVL26:
 204              		.loc 1 117 0
 205 009c ADB2     		uxth	r5, r5
 206              	.LVL27:
 207 009e F2E7     		b	.L18
 208              	.L22:
 118:..\..\..\u8g2\u8g2\csrc/u8x8_d_a2printer.c **** 	}
 119:..\..\..\u8g2\u8g2\csrc/u8x8_d_a2printer.c **** 	u8x8->gpio_and_delay_cb(u8x8, U8X8_MSG_DELAY_MILLI, delay_in_milliseconds, NULL);	
 209              		.loc 1 119 0
 210 00a0 EAB2     		uxtb	r2, r5
 211 00a2 2921     		movs	r1, #41
 212 00a4 2046     		mov	r0, r4
 213 00a6 013E     		subs	r6, r6, #1
 214              	.LVL28:
ARM GAS  C:\Users\jesse\AppData\Local\Temp\cc6ngVGg.s 			page 7


 215 00a8 C847     		blx	r9
 216              	.LVL29:
 103:..\..\..\u8g2\u8g2\csrc/u8x8_d_a2printer.c ****       {
 217              		.loc 1 103 0
 218 00aa 16F0FF06 		ands	r6, r6, #255
 219 00ae DFD1     		bne	.L15
 120:..\..\..\u8g2\u8g2\csrc/u8x8_d_a2printer.c ****       }
 121:..\..\..\u8g2\u8g2\csrc/u8x8_d_a2printer.c **** 
 122:..\..\..\u8g2\u8g2\csrc/u8x8_d_a2printer.c ****       /* set parameters back to their default values */
 123:..\..\..\u8g2\u8g2\csrc/u8x8_d_a2printer.c ****       u8x8_cad_SendCmd(u8x8, 27);      /* ESC */
 220              		.loc 1 123 0
 221 00b0 1B21     		movs	r1, #27
 222 00b2 2046     		mov	r0, r4
 223 00b4 FFF7FEFF 		bl	u8x8_cad_SendCmd
 224              	.LVL30:
 124:..\..\..\u8g2\u8g2\csrc/u8x8_d_a2printer.c ****       u8x8_cad_SendCmd(u8x8, 55 );      /* parameter command */
 225              		.loc 1 124 0
 226 00b8 3721     		movs	r1, #55
 227 00ba 2046     		mov	r0, r4
 228 00bc FFF7FEFF 		bl	u8x8_cad_SendCmd
 229              	.LVL31:
 125:..\..\..\u8g2\u8g2\csrc/u8x8_d_a2printer.c ****       u8x8_cad_SendCmd(u8x8, 7);      /* Max printing dots,Unit(8dots),Default:7(64 dots) 8*(x+1)*/
 230              		.loc 1 125 0
 231 00c0 0721     		movs	r1, #7
 232 00c2 2046     		mov	r0, r4
 233 00c4 FFF7FEFF 		bl	u8x8_cad_SendCmd
 234              	.LVL32:
 126:..\..\..\u8g2\u8g2\csrc/u8x8_d_a2printer.c ****       u8x8_cad_SendCmd(u8x8, 80);      /* 3-255 Heating time,Unit(10us),Default:80(800us) */
 235              		.loc 1 126 0
 236 00c8 5021     		movs	r1, #80
 237 00ca 2046     		mov	r0, r4
 238 00cc FFF7FEFF 		bl	u8x8_cad_SendCmd
 239              	.LVL33:
 127:..\..\..\u8g2\u8g2\csrc/u8x8_d_a2printer.c ****       u8x8_cad_SendCmd(u8x8, 2);      /* 0-255 Heating interval,Unit(10us),Default:2(20us)*/
 240              		.loc 1 127 0
 241 00d0 0221     		movs	r1, #2
 242 00d2 2046     		mov	r0, r4
 243 00d4 FFF7FEFF 		bl	u8x8_cad_SendCmd
 244              	.LVL34:
 128:..\..\..\u8g2\u8g2\csrc/u8x8_d_a2printer.c **** 
 129:..\..\..\u8g2\u8g2\csrc/u8x8_d_a2printer.c ****       u8x8_cad_EndTransfer(u8x8);
 245              		.loc 1 129 0
 246 00d8 2046     		mov	r0, r4
 247 00da FFF7FEFF 		bl	u8x8_cad_EndTransfer
 248              	.LVL35:
 249              	.L21:
 250 00de 0120     		movs	r0, #1
 251 00e0 BDE8F883 		pop	{r3, r4, r5, r6, r7, r8, r9, pc}
 252              	.LVL36:
 253              	.L20:
 254              	.LBE5:
 255              	.LBE4:
 130:..\..\..\u8g2\u8g2\csrc/u8x8_d_a2printer.c **** 
 131:..\..\..\u8g2\u8g2\csrc/u8x8_d_a2printer.c ****       break;
 132:..\..\..\u8g2\u8g2\csrc/u8x8_d_a2printer.c ****     default:
 133:..\..\..\u8g2\u8g2\csrc/u8x8_d_a2printer.c ****       return 0;
 256              		.loc 1 133 0
ARM GAS  C:\Users\jesse\AppData\Local\Temp\cc6ngVGg.s 			page 8


 257 00e4 0020     		movs	r0, #0
 258              	.LVL37:
 134:..\..\..\u8g2\u8g2\csrc/u8x8_d_a2printer.c ****   }
 135:..\..\..\u8g2\u8g2\csrc/u8x8_d_a2printer.c ****   return 1;
 136:..\..\..\u8g2\u8g2\csrc/u8x8_d_a2printer.c **** }
 259              		.loc 1 136 0
 260 00e6 BDE8F883 		pop	{r3, r4, r5, r6, r7, r8, r9, pc}
 261              		.cfi_endproc
 262              	.LFE1:
 263              		.size	u8x8_d_a2printer_common, .-u8x8_d_a2printer_common
 264              		.section	.text.u8x8_d_a2printer_384x240,"ax",%progbits
 265              		.align	1
 266              		.global	u8x8_d_a2printer_384x240
 267              		.thumb
 268              		.thumb_func
 269              		.type	u8x8_d_a2printer_384x240, %function
 270              	u8x8_d_a2printer_384x240:
 271              	.LFB2:
 137:..\..\..\u8g2\u8g2\csrc/u8x8_d_a2printer.c **** 
 138:..\..\..\u8g2\u8g2\csrc/u8x8_d_a2printer.c **** 
 139:..\..\..\u8g2\u8g2\csrc/u8x8_d_a2printer.c **** static const u8x8_display_info_t u8x8_a2printer_384x240_display_info =
 140:..\..\..\u8g2\u8g2\csrc/u8x8_d_a2printer.c **** {
 141:..\..\..\u8g2\u8g2\csrc/u8x8_d_a2printer.c ****   /* most of the settings are not required, because this is a serial RS232 printer */
 142:..\..\..\u8g2\u8g2\csrc/u8x8_d_a2printer.c ****   
 143:..\..\..\u8g2\u8g2\csrc/u8x8_d_a2printer.c ****   /* chip_enable_level = */ 1,
 144:..\..\..\u8g2\u8g2\csrc/u8x8_d_a2printer.c ****   /* chip_disable_level = */ 0,
 145:..\..\..\u8g2\u8g2\csrc/u8x8_d_a2printer.c ****   
 146:..\..\..\u8g2\u8g2\csrc/u8x8_d_a2printer.c ****   /* post_chip_enable_wait_ns = */ 5,
 147:..\..\..\u8g2\u8g2\csrc/u8x8_d_a2printer.c ****   /* pre_chip_disable_wait_ns = */ 5,
 148:..\..\..\u8g2\u8g2\csrc/u8x8_d_a2printer.c ****   /* reset_pulse_width_ms = */ 1, 
 149:..\..\..\u8g2\u8g2\csrc/u8x8_d_a2printer.c ****   /* post_reset_wait_ms = */ 6, 
 150:..\..\..\u8g2\u8g2\csrc/u8x8_d_a2printer.c ****   /* sda_setup_time_ns = */ 20,		
 151:..\..\..\u8g2\u8g2\csrc/u8x8_d_a2printer.c ****   /* sck_pulse_width_ns = */  140,	
 152:..\..\..\u8g2\u8g2\csrc/u8x8_d_a2printer.c ****   /* sck_clock_hz = */ 1000000UL,	/* since Arduino 1.6.0, the SPI bus speed in Hz. Should be  10000
 153:..\..\..\u8g2\u8g2\csrc/u8x8_d_a2printer.c ****   /* spi_mode = */ 0,		/* old: sck_takeover_edge, new: active high (bit 1), rising edge (bit 0) */
 154:..\..\..\u8g2\u8g2\csrc/u8x8_d_a2printer.c ****   /* i2c_bus_clock_100kHz = */ 4,
 155:..\..\..\u8g2\u8g2\csrc/u8x8_d_a2printer.c ****   /* data_setup_time_ns = */ 30,
 156:..\..\..\u8g2\u8g2\csrc/u8x8_d_a2printer.c ****   /* write_pulse_width_ns = */ 40,
 157:..\..\..\u8g2\u8g2\csrc/u8x8_d_a2printer.c ****   /* tile_width = */ 48,
 158:..\..\..\u8g2\u8g2\csrc/u8x8_d_a2printer.c ****   /* tile_hight = */ 30,
 159:..\..\..\u8g2\u8g2\csrc/u8x8_d_a2printer.c ****   /* default_x_offset = */ 0,
 160:..\..\..\u8g2\u8g2\csrc/u8x8_d_a2printer.c ****   /* flipmode_x_offset = */ 0,
 161:..\..\..\u8g2\u8g2\csrc/u8x8_d_a2printer.c ****   /* pixel_width = */ 384,
 162:..\..\..\u8g2\u8g2\csrc/u8x8_d_a2printer.c ****   /* pixel_height = */ 240
 163:..\..\..\u8g2\u8g2\csrc/u8x8_d_a2printer.c **** };
 164:..\..\..\u8g2\u8g2\csrc/u8x8_d_a2printer.c **** 
 165:..\..\..\u8g2\u8g2\csrc/u8x8_d_a2printer.c **** uint8_t u8x8_d_a2printer_384x240(u8x8_t *u8x8, uint8_t msg, uint8_t arg_int, void *arg_ptr)
 166:..\..\..\u8g2\u8g2\csrc/u8x8_d_a2printer.c **** {
 272              		.loc 1 166 0
 273              		.cfi_startproc
 274              		@ args = 0, pretend = 0, frame = 0
 275              		@ frame_needed = 0, uses_anonymous_args = 0
 276              	.LVL38:
 167:..\..\..\u8g2\u8g2\csrc/u8x8_d_a2printer.c ****   switch(msg)
 277              		.loc 1 167 0
 278 0000 0929     		cmp	r1, #9
 166:..\..\..\u8g2\u8g2\csrc/u8x8_d_a2printer.c ****   switch(msg)
ARM GAS  C:\Users\jesse\AppData\Local\Temp\cc6ngVGg.s 			page 9


 279              		.loc 1 166 0
 280 0002 10B5     		push	{r4, lr}
 281              		.cfi_def_cfa_offset 8
 282              		.cfi_offset 4, -8
 283              		.cfi_offset 14, -4
 284              		.loc 1 167 0
 285 0004 03D0     		beq	.L29
 168:..\..\..\u8g2\u8g2\csrc/u8x8_d_a2printer.c ****   {
 169:..\..\..\u8g2\u8g2\csrc/u8x8_d_a2printer.c ****     case U8X8_MSG_DISPLAY_SETUP_MEMORY:
 170:..\..\..\u8g2\u8g2\csrc/u8x8_d_a2printer.c ****       u8x8_d_helper_display_setup_memory(u8x8, &u8x8_a2printer_384x240_display_info);
 171:..\..\..\u8g2\u8g2\csrc/u8x8_d_a2printer.c ****       break;
 172:..\..\..\u8g2\u8g2\csrc/u8x8_d_a2printer.c ****     default:
 173:..\..\..\u8g2\u8g2\csrc/u8x8_d_a2printer.c ****       return u8x8_d_a2printer_common(u8x8, msg, arg_int, arg_ptr);
 174:..\..\..\u8g2\u8g2\csrc/u8x8_d_a2printer.c ****   }
 175:..\..\..\u8g2\u8g2\csrc/u8x8_d_a2printer.c ****   return 1;
 176:..\..\..\u8g2\u8g2\csrc/u8x8_d_a2printer.c **** }
 286              		.loc 1 176 0
 287 0006 BDE81040 		pop	{r4, lr}
 288              		.cfi_remember_state
 289              		.cfi_restore 14
 290              		.cfi_restore 4
 291              		.cfi_def_cfa_offset 0
 173:..\..\..\u8g2\u8g2\csrc/u8x8_d_a2printer.c ****   }
 292              		.loc 1 173 0
 293 000a FFF7FEBF 		b	u8x8_d_a2printer_common
 294              	.LVL39:
 295              	.L29:
 296              		.cfi_restore_state
 170:..\..\..\u8g2\u8g2\csrc/u8x8_d_a2printer.c ****       break;
 297              		.loc 1 170 0
 298 000e 0249     		ldr	r1, .L30
 299              	.LVL40:
 300 0010 FFF7FEFF 		bl	u8x8_d_helper_display_setup_memory
 301              	.LVL41:
 302              		.loc 1 176 0
 303 0014 0120     		movs	r0, #1
 304 0016 10BD     		pop	{r4, pc}
 305              	.L31:
 306              		.align	2
 307              	.L30:
 308 0018 00000000 		.word	.LANCHOR0
 309              		.cfi_endproc
 310              	.LFE2:
 311              		.size	u8x8_d_a2printer_384x240, .-u8x8_d_a2printer_384x240
 312              		.section	.rodata
 313              		.align	2
 314              		.set	.LANCHOR0,. + 0
 315              		.type	u8x8_a2printer_384x240_display_info, %object
 316              		.size	u8x8_a2printer_384x240_display_info, 24
 317              	u8x8_a2printer_384x240_display_info:
 318 0000 01       		.byte	1
 319 0001 00       		.byte	0
 320 0002 05       		.byte	5
 321 0003 05       		.byte	5
 322 0004 01       		.byte	1
 323 0005 06       		.byte	6
 324 0006 14       		.byte	20
ARM GAS  C:\Users\jesse\AppData\Local\Temp\cc6ngVGg.s 			page 10


 325 0007 8C       		.byte	-116
 326 0008 40420F00 		.word	1000000
 327 000c 00       		.byte	0
 328 000d 04       		.byte	4
 329 000e 1E       		.byte	30
 330 000f 28       		.byte	40
 331 0010 30       		.byte	48
 332 0011 1E       		.byte	30
 333 0012 00       		.byte	0
 334 0013 00       		.byte	0
 335 0014 8001     		.short	384
 336 0016 F000     		.short	240
 337              		.text
 338              	.Letext0:
 339              		.file 2 "c:\\program files (x86)\\cypress\\psoc creator\\4.4\\psoc creator\\import\\gnu\\arm\\5.4.
 340              		.file 3 "c:\\program files (x86)\\cypress\\psoc creator\\4.4\\psoc creator\\import\\gnu\\arm\\5.4.
 341              		.file 4 "..\\..\\..\\u8g2\\u8g2\\csrc\\u8x8.h"