ARM GAS  C:\Users\jesse\AppData\Local\Temp\ccLSRLzB.s 			page 1


   1              		.syntax unified
   2              		.cpu cortex-m3
   3              		.fpu softvfp
   4              		.eabi_attribute 20, 1
   5              		.eabi_attribute 21, 1
   6              		.eabi_attribute 23, 3
   7              		.eabi_attribute 24, 1
   8              		.eabi_attribute 25, 1
   9              		.eabi_attribute 26, 1
  10              		.eabi_attribute 30, 4
  11              		.eabi_attribute 34, 1
  12              		.eabi_attribute 18, 4
  13              		.thumb
  14              		.syntax unified
  15              		.file	"u8x8_d_sbn1661.c"
  16              		.text
  17              	.Ltext0:
  18              		.cfi_sections	.debug_frame
  19              		.section	.text.u8x8_d_sbn1661_122x32,"ax",%progbits
  20              		.align	1
  21              		.global	u8x8_d_sbn1661_122x32
  22              		.thumb
  23              		.thumb_func
  24              		.type	u8x8_d_sbn1661_122x32, %function
  25              	u8x8_d_sbn1661_122x32:
  26              	.LFB0:
  27              		.file 1 "..\\..\\..\\u8g2\\u8g2\\csrc\\u8x8_d_sbn1661.c"
   1:..\..\..\u8g2\u8g2\csrc/u8x8_d_sbn1661.c **** /*
   2:..\..\..\u8g2\u8g2\csrc/u8x8_d_sbn1661.c **** 
   3:..\..\..\u8g2\u8g2\csrc/u8x8_d_sbn1661.c ****   u8x8_d_sbn1661.c 
   4:..\..\..\u8g2\u8g2\csrc/u8x8_d_sbn1661.c ****   
   5:..\..\..\u8g2\u8g2\csrc/u8x8_d_sbn1661.c ****   SED1520 / SBN1661 122x32 5V LCD
   6:..\..\..\u8g2\u8g2\csrc/u8x8_d_sbn1661.c ****   
   7:..\..\..\u8g2\u8g2\csrc/u8x8_d_sbn1661.c ****   Universal 8bit Graphics Library (https://github.com/olikraus/u8g2/)
   8:..\..\..\u8g2\u8g2\csrc/u8x8_d_sbn1661.c **** 
   9:..\..\..\u8g2\u8g2\csrc/u8x8_d_sbn1661.c ****   Copyright (c) 2016, olikraus@gmail.com
  10:..\..\..\u8g2\u8g2\csrc/u8x8_d_sbn1661.c ****   All rights reserved.
  11:..\..\..\u8g2\u8g2\csrc/u8x8_d_sbn1661.c **** 
  12:..\..\..\u8g2\u8g2\csrc/u8x8_d_sbn1661.c ****   Redistribution and use in source and binary forms, with or without modification, 
  13:..\..\..\u8g2\u8g2\csrc/u8x8_d_sbn1661.c ****   are permitted provided that the following conditions are met:
  14:..\..\..\u8g2\u8g2\csrc/u8x8_d_sbn1661.c **** 
  15:..\..\..\u8g2\u8g2\csrc/u8x8_d_sbn1661.c ****   * Redistributions of source code must retain the above copyright notice, this list 
  16:..\..\..\u8g2\u8g2\csrc/u8x8_d_sbn1661.c ****     of conditions and the following disclaimer.
  17:..\..\..\u8g2\u8g2\csrc/u8x8_d_sbn1661.c ****     
  18:..\..\..\u8g2\u8g2\csrc/u8x8_d_sbn1661.c ****   * Redistributions in binary form must reproduce the above copyright notice, this 
  19:..\..\..\u8g2\u8g2\csrc/u8x8_d_sbn1661.c ****     list of conditions and the following disclaimer in the documentation and/or other 
  20:..\..\..\u8g2\u8g2\csrc/u8x8_d_sbn1661.c ****     materials provided with the distribution.
  21:..\..\..\u8g2\u8g2\csrc/u8x8_d_sbn1661.c **** 
  22:..\..\..\u8g2\u8g2\csrc/u8x8_d_sbn1661.c ****   THIS SOFTWARE IS PROVIDED BY THE COPYRIGHT HOLDERS AND 
  23:..\..\..\u8g2\u8g2\csrc/u8x8_d_sbn1661.c ****   CONTRIBUTORS "AS IS" AND ANY EXPRESS OR IMPLIED WARRANTIES, 
  24:..\..\..\u8g2\u8g2\csrc/u8x8_d_sbn1661.c ****   INCLUDING, BUT NOT LIMITED TO, THE IMPLIED WARRANTIES OF 
  25:..\..\..\u8g2\u8g2\csrc/u8x8_d_sbn1661.c ****   MERCHANTABILITY AND FITNESS FOR A PARTICULAR PURPOSE ARE 
  26:..\..\..\u8g2\u8g2\csrc/u8x8_d_sbn1661.c ****   DISCLAIMED. IN NO EVENT SHALL THE COPYRIGHT HOLDER OR 
  27:..\..\..\u8g2\u8g2\csrc/u8x8_d_sbn1661.c ****   CONTRIBUTORS BE LIABLE FOR ANY DIRECT, INDIRECT, INCIDENTAL, 
  28:..\..\..\u8g2\u8g2\csrc/u8x8_d_sbn1661.c ****   SPECIAL, EXEMPLARY, OR CONSEQUENTIAL DAMAGES (INCLUDING, BUT 
  29:..\..\..\u8g2\u8g2\csrc/u8x8_d_sbn1661.c ****   NOT LIMITED TO, PROCUREMENT OF SUBSTITUTE GOODS OR SERVICES; 
  30:..\..\..\u8g2\u8g2\csrc/u8x8_d_sbn1661.c ****   LOSS OF USE, DATA, OR PROFITS; OR BUSINESS INTERRUPTION) HOWEVER 
ARM GAS  C:\Users\jesse\AppData\Local\Temp\ccLSRLzB.s 			page 2


  31:..\..\..\u8g2\u8g2\csrc/u8x8_d_sbn1661.c ****   CAUSED AND ON ANY THEORY OF LIABILITY, WHETHER IN CONTRACT, 
  32:..\..\..\u8g2\u8g2\csrc/u8x8_d_sbn1661.c ****   STRICT LIABILITY, OR TORT (INCLUDING NEGLIGENCE OR OTHERWISE) 
  33:..\..\..\u8g2\u8g2\csrc/u8x8_d_sbn1661.c ****   ARISING IN ANY WAY OUT OF THE USE OF THIS SOFTWARE, EVEN IF 
  34:..\..\..\u8g2\u8g2\csrc/u8x8_d_sbn1661.c ****   ADVISED OF THE POSSIBILITY OF SUCH DAMAGE.  
  35:..\..\..\u8g2\u8g2\csrc/u8x8_d_sbn1661.c **** 
  36:..\..\..\u8g2\u8g2\csrc/u8x8_d_sbn1661.c ****   
  37:..\..\..\u8g2\u8g2\csrc/u8x8_d_sbn1661.c **** */
  38:..\..\..\u8g2\u8g2\csrc/u8x8_d_sbn1661.c **** #include "u8x8.h"
  39:..\..\..\u8g2\u8g2\csrc/u8x8_d_sbn1661.c **** 
  40:..\..\..\u8g2\u8g2\csrc/u8x8_d_sbn1661.c **** 
  41:..\..\..\u8g2\u8g2\csrc/u8x8_d_sbn1661.c **** 
  42:..\..\..\u8g2\u8g2\csrc/u8x8_d_sbn1661.c **** 
  43:..\..\..\u8g2\u8g2\csrc/u8x8_d_sbn1661.c **** static const uint8_t u8x8_d_sbn1661_init_seq[] = {
  44:..\..\..\u8g2\u8g2\csrc/u8x8_d_sbn1661.c ****   U8X8_C(0x0c0),		                /* display start at line 0  */  
  45:..\..\..\u8g2\u8g2\csrc/u8x8_d_sbn1661.c ****   U8X8_C(0x0a0),		                /* a0: ADC forward, a1: ADC reverse */  
  46:..\..\..\u8g2\u8g2\csrc/u8x8_d_sbn1661.c ****   U8X8_C(0x0a4),		                /* a4: normal driving, a5: power save */  
  47:..\..\..\u8g2\u8g2\csrc/u8x8_d_sbn1661.c ****   U8X8_C(0x0a9),		                /* a8: 1/16, a9: 1/32 duty */  
  48:..\..\..\u8g2\u8g2\csrc/u8x8_d_sbn1661.c **** 
  49:..\..\..\u8g2\u8g2\csrc/u8x8_d_sbn1661.c ****   //U8X8_C(0x0af),				/* display on */
  50:..\..\..\u8g2\u8g2\csrc/u8x8_d_sbn1661.c ****   
  51:..\..\..\u8g2\u8g2\csrc/u8x8_d_sbn1661.c ****   U8X8_END()             			/* end of sequence */
  52:..\..\..\u8g2\u8g2\csrc/u8x8_d_sbn1661.c **** };
  53:..\..\..\u8g2\u8g2\csrc/u8x8_d_sbn1661.c **** 
  54:..\..\..\u8g2\u8g2\csrc/u8x8_d_sbn1661.c **** static const uint8_t u8x8_d_sbn1661_powersave0_seq[] = {
  55:..\..\..\u8g2\u8g2\csrc/u8x8_d_sbn1661.c ****   U8X8_C(0x0af),		                /* display on */
  56:..\..\..\u8g2\u8g2\csrc/u8x8_d_sbn1661.c ****   U8X8_END()             			/* end of sequence */
  57:..\..\..\u8g2\u8g2\csrc/u8x8_d_sbn1661.c **** };
  58:..\..\..\u8g2\u8g2\csrc/u8x8_d_sbn1661.c **** 
  59:..\..\..\u8g2\u8g2\csrc/u8x8_d_sbn1661.c **** static const uint8_t u8x8_d_sbn1661_powersave1_seq[] = {
  60:..\..\..\u8g2\u8g2\csrc/u8x8_d_sbn1661.c ****   U8X8_C(0x0ae),		                /* display off */
  61:..\..\..\u8g2\u8g2\csrc/u8x8_d_sbn1661.c ****   U8X8_END()             			/* end of sequence */
  62:..\..\..\u8g2\u8g2\csrc/u8x8_d_sbn1661.c **** };
  63:..\..\..\u8g2\u8g2\csrc/u8x8_d_sbn1661.c **** 
  64:..\..\..\u8g2\u8g2\csrc/u8x8_d_sbn1661.c **** 
  65:..\..\..\u8g2\u8g2\csrc/u8x8_d_sbn1661.c **** struct u8x8_sbn1661_vars
  66:..\..\..\u8g2\u8g2\csrc/u8x8_d_sbn1661.c **** {
  67:..\..\..\u8g2\u8g2\csrc/u8x8_d_sbn1661.c ****   uint8_t *ptr;
  68:..\..\..\u8g2\u8g2\csrc/u8x8_d_sbn1661.c ****   uint8_t x;
  69:..\..\..\u8g2\u8g2\csrc/u8x8_d_sbn1661.c ****   uint8_t c;
  70:..\..\..\u8g2\u8g2\csrc/u8x8_d_sbn1661.c ****   uint8_t arg_int;
  71:..\..\..\u8g2\u8g2\csrc/u8x8_d_sbn1661.c **** };
  72:..\..\..\u8g2\u8g2\csrc/u8x8_d_sbn1661.c **** 
  73:..\..\..\u8g2\u8g2\csrc/u8x8_d_sbn1661.c **** #ifdef NOT_USED
  74:..\..\..\u8g2\u8g2\csrc/u8x8_d_sbn1661.c **** static void u8x8_sbn1661_out(u8x8_t *u8x8, struct u8x8_sbn1661_vars *v, void *arg_ptr)
  75:..\..\..\u8g2\u8g2\csrc/u8x8_d_sbn1661.c **** {
  76:..\..\..\u8g2\u8g2\csrc/u8x8_d_sbn1661.c ****   uint8_t cnt;
  77:..\..\..\u8g2\u8g2\csrc/u8x8_d_sbn1661.c ****   u8x8_cad_SendCmd(u8x8, 0x000 | ((v->x << 3) & 63) );
  78:..\..\..\u8g2\u8g2\csrc/u8x8_d_sbn1661.c ****   u8x8_cad_SendCmd(u8x8, 0x0b8 | (((u8x8_tile_t *)arg_ptr)->y_pos));
  79:..\..\..\u8g2\u8g2\csrc/u8x8_d_sbn1661.c ****   
  80:..\..\..\u8g2\u8g2\csrc/u8x8_d_sbn1661.c ****   while( v->arg_int > 0 )
  81:..\..\..\u8g2\u8g2\csrc/u8x8_d_sbn1661.c ****   {
  82:..\..\..\u8g2\u8g2\csrc/u8x8_d_sbn1661.c ****       /* calculate tiles to next boundary (end or chip limit) */
  83:..\..\..\u8g2\u8g2\csrc/u8x8_d_sbn1661.c ****       cnt = v->x;
  84:..\..\..\u8g2\u8g2\csrc/u8x8_d_sbn1661.c ****       cnt += 8;
  85:..\..\..\u8g2\u8g2\csrc/u8x8_d_sbn1661.c ****       cnt &= 0x0f8;
  86:..\..\..\u8g2\u8g2\csrc/u8x8_d_sbn1661.c ****       cnt -= v->x;
  87:..\..\..\u8g2\u8g2\csrc/u8x8_d_sbn1661.c ****             
ARM GAS  C:\Users\jesse\AppData\Local\Temp\ccLSRLzB.s 			page 3


  88:..\..\..\u8g2\u8g2\csrc/u8x8_d_sbn1661.c ****       if ( cnt > v->c )
  89:..\..\..\u8g2\u8g2\csrc/u8x8_d_sbn1661.c **** 	cnt = v->c;
  90:..\..\..\u8g2\u8g2\csrc/u8x8_d_sbn1661.c ****     
  91:..\..\..\u8g2\u8g2\csrc/u8x8_d_sbn1661.c ****       /* of course we still could use cnt=1 here... */
  92:..\..\..\u8g2\u8g2\csrc/u8x8_d_sbn1661.c ****       /* but setting cnt to 1 is not very efficient */
  93:..\..\..\u8g2\u8g2\csrc/u8x8_d_sbn1661.c ****       //cnt = 1;
  94:..\..\..\u8g2\u8g2\csrc/u8x8_d_sbn1661.c ****     
  95:..\..\..\u8g2\u8g2\csrc/u8x8_d_sbn1661.c ****       v->x +=cnt;
  96:..\..\..\u8g2\u8g2\csrc/u8x8_d_sbn1661.c ****       v->c-=cnt;
  97:..\..\..\u8g2\u8g2\csrc/u8x8_d_sbn1661.c ****       cnt<<=3;
  98:..\..\..\u8g2\u8g2\csrc/u8x8_d_sbn1661.c ****       u8x8_cad_SendData(u8x8, cnt, v->ptr);	/* note: SendData can not handle more than 255 bytes */
  99:..\..\..\u8g2\u8g2\csrc/u8x8_d_sbn1661.c ****       v->ptr += cnt;
 100:..\..\..\u8g2\u8g2\csrc/u8x8_d_sbn1661.c ****     
 101:..\..\..\u8g2\u8g2\csrc/u8x8_d_sbn1661.c ****       if ( v->c == 0 )
 102:..\..\..\u8g2\u8g2\csrc/u8x8_d_sbn1661.c ****       {
 103:..\..\..\u8g2\u8g2\csrc/u8x8_d_sbn1661.c **** 	v->ptr = ((u8x8_tile_t *)arg_ptr)->tile_ptr;
 104:..\..\..\u8g2\u8g2\csrc/u8x8_d_sbn1661.c **** 	v->c = ((u8x8_tile_t *)arg_ptr)->cnt;
 105:..\..\..\u8g2\u8g2\csrc/u8x8_d_sbn1661.c **** 	v->arg_int--;
 106:..\..\..\u8g2\u8g2\csrc/u8x8_d_sbn1661.c ****       }
 107:..\..\..\u8g2\u8g2\csrc/u8x8_d_sbn1661.c ****       if ( ((v->x) & 7) == 0 )
 108:..\..\..\u8g2\u8g2\csrc/u8x8_d_sbn1661.c **** 	break;       
 109:..\..\..\u8g2\u8g2\csrc/u8x8_d_sbn1661.c ****   } 
 110:..\..\..\u8g2\u8g2\csrc/u8x8_d_sbn1661.c **** }
 111:..\..\..\u8g2\u8g2\csrc/u8x8_d_sbn1661.c **** #endif /* NOT_USED */
 112:..\..\..\u8g2\u8g2\csrc/u8x8_d_sbn1661.c **** 
 113:..\..\..\u8g2\u8g2\csrc/u8x8_d_sbn1661.c **** 
 114:..\..\..\u8g2\u8g2\csrc/u8x8_d_sbn1661.c **** static const u8x8_display_info_t u8x8_sbn1661_122x32_display_info =
 115:..\..\..\u8g2\u8g2\csrc/u8x8_d_sbn1661.c **** {
 116:..\..\..\u8g2\u8g2\csrc/u8x8_d_sbn1661.c ****   /* chip_enable_level = */ 0,		/* sbn1661: Not used */
 117:..\..\..\u8g2\u8g2\csrc/u8x8_d_sbn1661.c ****   /* chip_disable_level = */ 1,		/* sbn1661: Not used */
 118:..\..\..\u8g2\u8g2\csrc/u8x8_d_sbn1661.c ****   
 119:..\..\..\u8g2\u8g2\csrc/u8x8_d_sbn1661.c ****   /* post_chip_enable_wait_ns = */ 100,
 120:..\..\..\u8g2\u8g2\csrc/u8x8_d_sbn1661.c ****   /* pre_chip_disable_wait_ns = */ 20,
 121:..\..\..\u8g2\u8g2\csrc/u8x8_d_sbn1661.c ****   /* reset_pulse_width_ms = */ 1, 
 122:..\..\..\u8g2\u8g2\csrc/u8x8_d_sbn1661.c ****   /* post_reset_wait_ms = */ 6, 		/*  */
 123:..\..\..\u8g2\u8g2\csrc/u8x8_d_sbn1661.c ****   /* sda_setup_time_ns = */ 12,		
 124:..\..\..\u8g2\u8g2\csrc/u8x8_d_sbn1661.c ****   /* sck_pulse_width_ns = */ 75,	/* sbn1661: Not used */
 125:..\..\..\u8g2\u8g2\csrc/u8x8_d_sbn1661.c ****   /* sck_clock_hz = */ 4000000UL,	/* sbn1661: Not used */
 126:..\..\..\u8g2\u8g2\csrc/u8x8_d_sbn1661.c ****   /* spi_mode = */ 0,				/* active high, rising edge */
 127:..\..\..\u8g2\u8g2\csrc/u8x8_d_sbn1661.c ****   /* i2c_bus_clock_100kHz = */ 4,	/* sbn1661: Not used */
 128:..\..\..\u8g2\u8g2\csrc/u8x8_d_sbn1661.c ****   /* data_setup_time_ns = */ 200,
 129:..\..\..\u8g2\u8g2\csrc/u8x8_d_sbn1661.c ****   /* write_pulse_width_ns = */ 200,	/*  */
 130:..\..\..\u8g2\u8g2\csrc/u8x8_d_sbn1661.c ****   /* tile_width = */ 16,		/* width of 16*8=128 pixel */
 131:..\..\..\u8g2\u8g2\csrc/u8x8_d_sbn1661.c ****   /* tile_hight = */ 4,
 132:..\..\..\u8g2\u8g2\csrc/u8x8_d_sbn1661.c ****   /* default_x_offset = */ 0,
 133:..\..\..\u8g2\u8g2\csrc/u8x8_d_sbn1661.c ****   /* flipmode_x_offset = */ 0,
 134:..\..\..\u8g2\u8g2\csrc/u8x8_d_sbn1661.c ****   /* pixel_width = */ 122,
 135:..\..\..\u8g2\u8g2\csrc/u8x8_d_sbn1661.c ****   /* pixel_height = */ 32
 136:..\..\..\u8g2\u8g2\csrc/u8x8_d_sbn1661.c **** };
 137:..\..\..\u8g2\u8g2\csrc/u8x8_d_sbn1661.c **** 
 138:..\..\..\u8g2\u8g2\csrc/u8x8_d_sbn1661.c **** uint8_t u8x8_d_sbn1661_122x32(u8x8_t *u8x8, uint8_t msg, uint8_t arg_int, void *arg_ptr)
 139:..\..\..\u8g2\u8g2\csrc/u8x8_d_sbn1661.c **** {
  28              		.loc 1 139 0
  29              		.cfi_startproc
  30              		@ args = 0, pretend = 0, frame = 0
  31              		@ frame_needed = 0, uses_anonymous_args = 0
  32              	.LVL0:
ARM GAS  C:\Users\jesse\AppData\Local\Temp\ccLSRLzB.s 			page 4


 140:..\..\..\u8g2\u8g2\csrc/u8x8_d_sbn1661.c ****   uint8_t *ptr;
 141:..\..\..\u8g2\u8g2\csrc/u8x8_d_sbn1661.c ****   //uint8_t x;
 142:..\..\..\u8g2\u8g2\csrc/u8x8_d_sbn1661.c ****   //uint8_t c;
 143:..\..\..\u8g2\u8g2\csrc/u8x8_d_sbn1661.c ****   
 144:..\..\..\u8g2\u8g2\csrc/u8x8_d_sbn1661.c ****   switch(msg)
  33              		.loc 1 144 0
  34 0000 0939     		subs	r1, r1, #9
  35              	.LVL1:
 139:..\..\..\u8g2\u8g2\csrc/u8x8_d_sbn1661.c ****   uint8_t *ptr;
  36              		.loc 1 139 0
  37 0002 F8B5     		push	{r3, r4, r5, r6, r7, lr}
  38              		.cfi_def_cfa_offset 24
  39              		.cfi_offset 3, -24
  40              		.cfi_offset 4, -20
  41              		.cfi_offset 5, -16
  42              		.cfi_offset 6, -12
  43              		.cfi_offset 7, -8
  44              		.cfi_offset 14, -4
 139:..\..\..\u8g2\u8g2\csrc/u8x8_d_sbn1661.c ****   uint8_t *ptr;
  45              		.loc 1 139 0
  46 0004 0446     		mov	r4, r0
  47 0006 1546     		mov	r5, r2
  48 0008 1E46     		mov	r6, r3
  49              		.loc 1 144 0
  50 000a 0629     		cmp	r1, #6
  51 000c 00F29680 		bhi	.L9
  52 0010 DFE801F0 		tbb	[pc, r1]
  53              	.LVL2:
  54              	.L4:
  55 0014 04       		.byte	(.L3-.L4)/2
  56 0015 08       		.byte	(.L5-.L4)/2
  57 0016 22       		.byte	(.L6-.L4)/2
  58 0017 94       		.byte	(.L9-.L4)/2
  59 0018 94       		.byte	(.L9-.L4)/2
  60 0019 94       		.byte	(.L9-.L4)/2
  61 001a 62       		.byte	(.L7-.L4)/2
  62 001b 00       		.p2align 1
  63              	.L3:
 145:..\..\..\u8g2\u8g2\csrc/u8x8_d_sbn1661.c ****   {
 146:..\..\..\u8g2\u8g2\csrc/u8x8_d_sbn1661.c ****     case U8X8_MSG_DISPLAY_SETUP_MEMORY:
 147:..\..\..\u8g2\u8g2\csrc/u8x8_d_sbn1661.c ****       u8x8_d_helper_display_setup_memory(u8x8, &u8x8_sbn1661_122x32_display_info);
  64              		.loc 1 147 0
  65 001c 4849     		ldr	r1, .L14
  66 001e FFF7FEFF 		bl	u8x8_d_helper_display_setup_memory
  67              	.LVL3:
  68 0022 57E0     		b	.L10
  69              	.LVL4:
  70              	.L5:
 148:..\..\..\u8g2\u8g2\csrc/u8x8_d_sbn1661.c ****       break;
 149:..\..\..\u8g2\u8g2\csrc/u8x8_d_sbn1661.c ****     case U8X8_MSG_DISPLAY_INIT:
 150:..\..\..\u8g2\u8g2\csrc/u8x8_d_sbn1661.c ****       u8x8_d_helper_display_init(u8x8);
  71              		.loc 1 150 0
  72 0024 FFF7FEFF 		bl	u8x8_d_helper_display_init
  73              	.LVL5:
 151:..\..\..\u8g2\u8g2\csrc/u8x8_d_sbn1661.c ****     
 152:..\..\..\u8g2\u8g2\csrc/u8x8_d_sbn1661.c ****       u8x8->cad_cb(u8x8, U8X8_MSG_CAD_START_TRANSFER, 0, NULL);
  74              		.loc 1 152 0
ARM GAS  C:\Users\jesse\AppData\Local\Temp\ccLSRLzB.s 			page 5


  75 0028 0023     		movs	r3, #0
  76 002a 1A46     		mov	r2, r3
  77 002c E568     		ldr	r5, [r4, #12]
  78 002e 1821     		movs	r1, #24
  79 0030 2046     		mov	r0, r4
  80 0032 A847     		blx	r5
  81              	.LVL6:
 153:..\..\..\u8g2\u8g2\csrc/u8x8_d_sbn1661.c ****       u8x8_cad_SendSequence(u8x8, u8x8_d_sbn1661_init_seq);
  82              		.loc 1 153 0
  83 0034 4349     		ldr	r1, .L14+4
  84 0036 2046     		mov	r0, r4
  85 0038 FFF7FEFF 		bl	u8x8_cad_SendSequence
  86              	.LVL7:
 154:..\..\..\u8g2\u8g2\csrc/u8x8_d_sbn1661.c ****       u8x8->cad_cb(u8x8, U8X8_MSG_CAD_END_TRANSFER, 0, NULL);
  87              		.loc 1 154 0
  88 003c 0023     		movs	r3, #0
  89 003e 1A46     		mov	r2, r3
  90 0040 E568     		ldr	r5, [r4, #12]
  91 0042 1921     		movs	r1, #25
  92 0044 2046     		mov	r0, r4
  93 0046 A847     		blx	r5
  94              	.LVL8:
 155:..\..\..\u8g2\u8g2\csrc/u8x8_d_sbn1661.c ****     
 156:..\..\..\u8g2\u8g2\csrc/u8x8_d_sbn1661.c ****       u8x8->cad_cb(u8x8, U8X8_MSG_CAD_START_TRANSFER, 1, NULL);
  95              		.loc 1 156 0
  96 0048 1821     		movs	r1, #24
  97 004a E568     		ldr	r5, [r4, #12]
  98 004c 0023     		movs	r3, #0
  99 004e 0122     		movs	r2, #1
 100 0050 2046     		mov	r0, r4
 101 0052 A847     		blx	r5
 102              	.LVL9:
 157:..\..\..\u8g2\u8g2\csrc/u8x8_d_sbn1661.c ****       u8x8_cad_SendSequence(u8x8, u8x8_d_sbn1661_init_seq);
 103              		.loc 1 157 0
 104 0054 3B49     		ldr	r1, .L14+4
 105 0056 34E0     		b	.L12
 106              	.LVL10:
 107              	.L6:
 108 0058 C668     		ldr	r6, [r0, #12]
 109              	.LVL11:
 158:..\..\..\u8g2\u8g2\csrc/u8x8_d_sbn1661.c ****       u8x8->cad_cb(u8x8, U8X8_MSG_CAD_END_TRANSFER, 1, NULL);
 159:..\..\..\u8g2\u8g2\csrc/u8x8_d_sbn1661.c ****       break;
 160:..\..\..\u8g2\u8g2\csrc/u8x8_d_sbn1661.c ****     case U8X8_MSG_DISPLAY_SET_POWER_SAVE:
 161:..\..\..\u8g2\u8g2\csrc/u8x8_d_sbn1661.c ****       
 162:..\..\..\u8g2\u8g2\csrc/u8x8_d_sbn1661.c ****       if ( arg_int == 0 )
 110              		.loc 1 162 0
 111 005a EAB9     		cbnz	r2, .L8
 163:..\..\..\u8g2\u8g2\csrc/u8x8_d_sbn1661.c ****       {
 164:..\..\..\u8g2\u8g2\csrc/u8x8_d_sbn1661.c **** 	u8x8->cad_cb(u8x8, U8X8_MSG_CAD_START_TRANSFER, 0, NULL);
 112              		.loc 1 164 0
 113 005c 1346     		mov	r3, r2
 114 005e 1821     		movs	r1, #24
 115 0060 B047     		blx	r6
 116              	.LVL12:
 165:..\..\..\u8g2\u8g2\csrc/u8x8_d_sbn1661.c **** 	u8x8_cad_SendSequence(u8x8, u8x8_d_sbn1661_powersave0_seq);
 117              		.loc 1 165 0
 118 0062 2046     		mov	r0, r4
ARM GAS  C:\Users\jesse\AppData\Local\Temp\ccLSRLzB.s 			page 6


 119 0064 3849     		ldr	r1, .L14+8
 120 0066 FFF7FEFF 		bl	u8x8_cad_SendSequence
 121              	.LVL13:
 166:..\..\..\u8g2\u8g2\csrc/u8x8_d_sbn1661.c **** 	u8x8->cad_cb(u8x8, U8X8_MSG_CAD_END_TRANSFER, 0, NULL);
 122              		.loc 1 166 0
 123 006a E668     		ldr	r6, [r4, #12]
 124 006c 2B46     		mov	r3, r5
 125 006e 2A46     		mov	r2, r5
 126 0070 1921     		movs	r1, #25
 127 0072 2046     		mov	r0, r4
 128 0074 B047     		blx	r6
 129              	.LVL14:
 167:..\..\..\u8g2\u8g2\csrc/u8x8_d_sbn1661.c **** 
 168:..\..\..\u8g2\u8g2\csrc/u8x8_d_sbn1661.c **** 	u8x8->cad_cb(u8x8, U8X8_MSG_CAD_START_TRANSFER, 1, NULL);
 130              		.loc 1 168 0
 131 0076 2B46     		mov	r3, r5
 132 0078 E668     		ldr	r6, [r4, #12]
 133 007a 0122     		movs	r2, #1
 134 007c 1821     		movs	r1, #24
 135 007e 2046     		mov	r0, r4
 136 0080 B047     		blx	r6
 137              	.LVL15:
 169:..\..\..\u8g2\u8g2\csrc/u8x8_d_sbn1661.c **** 	u8x8_cad_SendSequence(u8x8, u8x8_d_sbn1661_powersave0_seq);
 138              		.loc 1 169 0
 139 0082 2046     		mov	r0, r4
 140 0084 3049     		ldr	r1, .L14+8
 141 0086 FFF7FEFF 		bl	u8x8_cad_SendSequence
 142              	.LVL16:
 170:..\..\..\u8g2\u8g2\csrc/u8x8_d_sbn1661.c **** 	u8x8->cad_cb(u8x8, U8X8_MSG_CAD_END_TRANSFER, 1, NULL);	
 143              		.loc 1 170 0
 144 008a E668     		ldr	r6, [r4, #12]
 145 008c 2B46     		mov	r3, r5
 146 008e 0122     		movs	r2, #1
 147 0090 1921     		movs	r1, #25
 148 0092 2046     		mov	r0, r4
 149 0094 B047     		blx	r6
 150              	.LVL17:
 151 0096 1DE0     		b	.L10
 152              	.LVL18:
 153              	.L8:
 171:..\..\..\u8g2\u8g2\csrc/u8x8_d_sbn1661.c ****       }
 172:..\..\..\u8g2\u8g2\csrc/u8x8_d_sbn1661.c ****       else
 173:..\..\..\u8g2\u8g2\csrc/u8x8_d_sbn1661.c ****       {
 174:..\..\..\u8g2\u8g2\csrc/u8x8_d_sbn1661.c **** 	u8x8->cad_cb(u8x8, U8X8_MSG_CAD_START_TRANSFER, 0, NULL);
 154              		.loc 1 174 0
 155 0098 0023     		movs	r3, #0
 156 009a 1A46     		mov	r2, r3
 157              	.LVL19:
 158 009c 1821     		movs	r1, #24
 159 009e B047     		blx	r6
 160              	.LVL20:
 175:..\..\..\u8g2\u8g2\csrc/u8x8_d_sbn1661.c **** 	u8x8_cad_SendSequence(u8x8, u8x8_d_sbn1661_powersave1_seq);
 161              		.loc 1 175 0
 162 00a0 2A49     		ldr	r1, .L14+12
 163 00a2 2046     		mov	r0, r4
 164 00a4 FFF7FEFF 		bl	u8x8_cad_SendSequence
 165              	.LVL21:
ARM GAS  C:\Users\jesse\AppData\Local\Temp\ccLSRLzB.s 			page 7


 176:..\..\..\u8g2\u8g2\csrc/u8x8_d_sbn1661.c **** 	u8x8->cad_cb(u8x8, U8X8_MSG_CAD_END_TRANSFER, 0, NULL);
 166              		.loc 1 176 0
 167 00a8 0023     		movs	r3, #0
 168 00aa 1A46     		mov	r2, r3
 169 00ac E568     		ldr	r5, [r4, #12]
 170 00ae 1921     		movs	r1, #25
 171 00b0 2046     		mov	r0, r4
 172 00b2 A847     		blx	r5
 173              	.LVL22:
 177:..\..\..\u8g2\u8g2\csrc/u8x8_d_sbn1661.c **** 	
 178:..\..\..\u8g2\u8g2\csrc/u8x8_d_sbn1661.c **** 	u8x8->cad_cb(u8x8, U8X8_MSG_CAD_START_TRANSFER, 1, NULL);
 174              		.loc 1 178 0
 175 00b4 1821     		movs	r1, #24
 176 00b6 E568     		ldr	r5, [r4, #12]
 177 00b8 0023     		movs	r3, #0
 178 00ba 0122     		movs	r2, #1
 179 00bc 2046     		mov	r0, r4
 180 00be A847     		blx	r5
 181              	.LVL23:
 179:..\..\..\u8g2\u8g2\csrc/u8x8_d_sbn1661.c **** 	u8x8_cad_SendSequence(u8x8, u8x8_d_sbn1661_powersave1_seq);
 182              		.loc 1 179 0
 183 00c0 2249     		ldr	r1, .L14+12
 184              	.L12:
 185 00c2 2046     		mov	r0, r4
 186 00c4 FFF7FEFF 		bl	u8x8_cad_SendSequence
 187              	.LVL24:
 188              	.L11:
 180:..\..\..\u8g2\u8g2\csrc/u8x8_d_sbn1661.c **** 	u8x8->cad_cb(u8x8, U8X8_MSG_CAD_END_TRANSFER, 1, NULL);
 189              		.loc 1 180 0
 190 00c8 E568     		ldr	r5, [r4, #12]
 191 00ca 0023     		movs	r3, #0
 192 00cc 0122     		movs	r2, #1
 193 00ce 1921     		movs	r1, #25
 194 00d0 2046     		mov	r0, r4
 195 00d2 A847     		blx	r5
 196              	.LVL25:
 197              	.L10:
 181:..\..\..\u8g2\u8g2\csrc/u8x8_d_sbn1661.c **** 	
 182:..\..\..\u8g2\u8g2\csrc/u8x8_d_sbn1661.c ****       }
 183:..\..\..\u8g2\u8g2\csrc/u8x8_d_sbn1661.c ****       break;
 184:..\..\..\u8g2\u8g2\csrc/u8x8_d_sbn1661.c ****     case U8X8_MSG_DISPLAY_DRAW_TILE:
 185:..\..\..\u8g2\u8g2\csrc/u8x8_d_sbn1661.c **** 
 186:..\..\..\u8g2\u8g2\csrc/u8x8_d_sbn1661.c ****       ptr = ((u8x8_tile_t *)arg_ptr)->tile_ptr;
 187:..\..\..\u8g2\u8g2\csrc/u8x8_d_sbn1661.c ****       // x and c are ignored (u8g2 only)
 188:..\..\..\u8g2\u8g2\csrc/u8x8_d_sbn1661.c ****       //x = ((u8x8_tile_t *)arg_ptr)->x_pos;
 189:..\..\..\u8g2\u8g2\csrc/u8x8_d_sbn1661.c ****       //c = ((u8x8_tile_t *)arg_ptr)->cnt;
 190:..\..\..\u8g2\u8g2\csrc/u8x8_d_sbn1661.c ****       
 191:..\..\..\u8g2\u8g2\csrc/u8x8_d_sbn1661.c ****       u8x8->cad_cb(u8x8, U8X8_MSG_CAD_START_TRANSFER, 0, NULL);
 192:..\..\..\u8g2\u8g2\csrc/u8x8_d_sbn1661.c ****       u8x8_cad_SendCmd(u8x8, 0x000 | 0);		// column 0
 193:..\..\..\u8g2\u8g2\csrc/u8x8_d_sbn1661.c ****       u8x8_cad_SendCmd(u8x8, 0x0b8 | (((u8x8_tile_t *)arg_ptr)->y_pos));
 194:..\..\..\u8g2\u8g2\csrc/u8x8_d_sbn1661.c ****       u8x8_cad_SendData(u8x8, 61, ptr);	/* note: SendData can not handle more than 255 bytes */    
 195:..\..\..\u8g2\u8g2\csrc/u8x8_d_sbn1661.c ****       u8x8->cad_cb(u8x8, U8X8_MSG_CAD_END_TRANSFER, 0, NULL);
 196:..\..\..\u8g2\u8g2\csrc/u8x8_d_sbn1661.c **** 
 197:..\..\..\u8g2\u8g2\csrc/u8x8_d_sbn1661.c ****       ptr += 61;
 198:..\..\..\u8g2\u8g2\csrc/u8x8_d_sbn1661.c ****       
 199:..\..\..\u8g2\u8g2\csrc/u8x8_d_sbn1661.c ****       u8x8->cad_cb(u8x8, U8X8_MSG_CAD_START_TRANSFER, 1, NULL);
 200:..\..\..\u8g2\u8g2\csrc/u8x8_d_sbn1661.c ****       u8x8_cad_SendCmd(u8x8, 0x000 | 0);		// column 0
ARM GAS  C:\Users\jesse\AppData\Local\Temp\ccLSRLzB.s 			page 8


 201:..\..\..\u8g2\u8g2\csrc/u8x8_d_sbn1661.c ****       u8x8_cad_SendCmd(u8x8, 0x0b8 | (((u8x8_tile_t *)arg_ptr)->y_pos));
 202:..\..\..\u8g2\u8g2\csrc/u8x8_d_sbn1661.c ****     
 203:..\..\..\u8g2\u8g2\csrc/u8x8_d_sbn1661.c ****       u8x8_cad_SendData(u8x8, 61, ptr);	/* note: SendData can not handle more than 255 bytes */    
 204:..\..\..\u8g2\u8g2\csrc/u8x8_d_sbn1661.c ****       u8x8->cad_cb(u8x8, U8X8_MSG_CAD_END_TRANSFER, 1, NULL);
 205:..\..\..\u8g2\u8g2\csrc/u8x8_d_sbn1661.c ****     
 206:..\..\..\u8g2\u8g2\csrc/u8x8_d_sbn1661.c ****       break;
 207:..\..\..\u8g2\u8g2\csrc/u8x8_d_sbn1661.c ****     default:
 208:..\..\..\u8g2\u8g2\csrc/u8x8_d_sbn1661.c ****       return 0;
 209:..\..\..\u8g2\u8g2\csrc/u8x8_d_sbn1661.c ****   }
 210:..\..\..\u8g2\u8g2\csrc/u8x8_d_sbn1661.c ****   return 1;
 198              		.loc 1 210 0
 199 00d4 0120     		movs	r0, #1
 200 00d6 F8BD     		pop	{r3, r4, r5, r6, r7, pc}
 201              	.LVL26:
 202              	.L7:
 191:..\..\..\u8g2\u8g2\csrc/u8x8_d_sbn1661.c ****       u8x8_cad_SendCmd(u8x8, 0x000 | 0);		// column 0
 203              		.loc 1 191 0
 204 00d8 0023     		movs	r3, #0
 205 00da 1A46     		mov	r2, r3
 206              	.LVL27:
 207 00dc C768     		ldr	r7, [r0, #12]
 208 00de 1821     		movs	r1, #24
 186:..\..\..\u8g2\u8g2\csrc/u8x8_d_sbn1661.c ****       // x and c are ignored (u8g2 only)
 209              		.loc 1 186 0
 210 00e0 3568     		ldr	r5, [r6]
 211              	.LVL28:
 191:..\..\..\u8g2\u8g2\csrc/u8x8_d_sbn1661.c ****       u8x8_cad_SendCmd(u8x8, 0x000 | 0);		// column 0
 212              		.loc 1 191 0
 213 00e2 B847     		blx	r7
 214              	.LVL29:
 192:..\..\..\u8g2\u8g2\csrc/u8x8_d_sbn1661.c ****       u8x8_cad_SendCmd(u8x8, 0x0b8 | (((u8x8_tile_t *)arg_ptr)->y_pos));
 215              		.loc 1 192 0
 216 00e4 0021     		movs	r1, #0
 217 00e6 2046     		mov	r0, r4
 218 00e8 FFF7FEFF 		bl	u8x8_cad_SendCmd
 219              	.LVL30:
 193:..\..\..\u8g2\u8g2\csrc/u8x8_d_sbn1661.c ****       u8x8_cad_SendData(u8x8, 61, ptr);	/* note: SendData can not handle more than 255 bytes */    
 220              		.loc 1 193 0
 221 00ec B179     		ldrb	r1, [r6, #6]	@ zero_extendqisi2
 222 00ee 2046     		mov	r0, r4
 223 00f0 41F0B801 		orr	r1, r1, #184
 224 00f4 FFF7FEFF 		bl	u8x8_cad_SendCmd
 225              	.LVL31:
 194:..\..\..\u8g2\u8g2\csrc/u8x8_d_sbn1661.c ****       u8x8->cad_cb(u8x8, U8X8_MSG_CAD_END_TRANSFER, 0, NULL);
 226              		.loc 1 194 0
 227 00f8 2A46     		mov	r2, r5
 228 00fa 3D21     		movs	r1, #61
 229 00fc 2046     		mov	r0, r4
 230 00fe FFF7FEFF 		bl	u8x8_cad_SendData
 231              	.LVL32:
 195:..\..\..\u8g2\u8g2\csrc/u8x8_d_sbn1661.c **** 
 232              		.loc 1 195 0
 233 0102 0023     		movs	r3, #0
 234 0104 E768     		ldr	r7, [r4, #12]
 235 0106 1A46     		mov	r2, r3
 236 0108 1921     		movs	r1, #25
 237 010a 2046     		mov	r0, r4
ARM GAS  C:\Users\jesse\AppData\Local\Temp\ccLSRLzB.s 			page 9


 238 010c B847     		blx	r7
 239              	.LVL33:
 199:..\..\..\u8g2\u8g2\csrc/u8x8_d_sbn1661.c ****       u8x8_cad_SendCmd(u8x8, 0x000 | 0);		// column 0
 240              		.loc 1 199 0
 241 010e 0023     		movs	r3, #0
 242 0110 0122     		movs	r2, #1
 243 0112 E768     		ldr	r7, [r4, #12]
 244 0114 1821     		movs	r1, #24
 245 0116 2046     		mov	r0, r4
 246 0118 B847     		blx	r7
 247              	.LVL34:
 200:..\..\..\u8g2\u8g2\csrc/u8x8_d_sbn1661.c ****       u8x8_cad_SendCmd(u8x8, 0x0b8 | (((u8x8_tile_t *)arg_ptr)->y_pos));
 248              		.loc 1 200 0
 249 011a 0021     		movs	r1, #0
 250 011c 2046     		mov	r0, r4
 251 011e FFF7FEFF 		bl	u8x8_cad_SendCmd
 252              	.LVL35:
 201:..\..\..\u8g2\u8g2\csrc/u8x8_d_sbn1661.c ****     
 253              		.loc 1 201 0
 254 0122 B179     		ldrb	r1, [r6, #6]	@ zero_extendqisi2
 255 0124 2046     		mov	r0, r4
 256 0126 41F0B801 		orr	r1, r1, #184
 257 012a FFF7FEFF 		bl	u8x8_cad_SendCmd
 258              	.LVL36:
 203:..\..\..\u8g2\u8g2\csrc/u8x8_d_sbn1661.c ****       u8x8->cad_cb(u8x8, U8X8_MSG_CAD_END_TRANSFER, 1, NULL);
 259              		.loc 1 203 0
 260 012e 05F13D02 		add	r2, r5, #61
 261              	.LVL37:
 262 0132 3D21     		movs	r1, #61
 263 0134 2046     		mov	r0, r4
 264 0136 FFF7FEFF 		bl	u8x8_cad_SendData
 265              	.LVL38:
 266 013a C5E7     		b	.L11
 267              	.LVL39:
 268              	.L9:
 208:..\..\..\u8g2\u8g2\csrc/u8x8_d_sbn1661.c ****   }
 269              		.loc 1 208 0
 270 013c 0020     		movs	r0, #0
 271              	.LVL40:
 211:..\..\..\u8g2\u8g2\csrc/u8x8_d_sbn1661.c **** }
 272              		.loc 1 211 0
 273 013e F8BD     		pop	{r3, r4, r5, r6, r7, pc}
 274              	.LVL41:
 275              	.L15:
 276              		.align	2
 277              	.L14:
 278 0140 00000000 		.word	.LANCHOR0
 279 0144 18000000 		.word	.LANCHOR0+24
 280 0148 21000000 		.word	.LANCHOR0+33
 281 014c 24000000 		.word	.LANCHOR0+36
 282              		.cfi_endproc
 283              	.LFE0:
 284              		.size	u8x8_d_sbn1661_122x32, .-u8x8_d_sbn1661_122x32
 285              		.section	.text.u8x8_d_sed1520_122x32,"ax",%progbits
 286              		.align	1
 287              		.global	u8x8_d_sed1520_122x32
 288              		.thumb
ARM GAS  C:\Users\jesse\AppData\Local\Temp\ccLSRLzB.s 			page 10


 289              		.thumb_func
 290              		.type	u8x8_d_sed1520_122x32, %function
 291              	u8x8_d_sed1520_122x32:
 292              	.LFB1:
 212:..\..\..\u8g2\u8g2\csrc/u8x8_d_sbn1661.c **** 
 213:..\..\..\u8g2\u8g2\csrc/u8x8_d_sbn1661.c **** uint8_t u8x8_d_sed1520_122x32(u8x8_t *u8x8, uint8_t msg, uint8_t arg_int, void *arg_ptr)
 214:..\..\..\u8g2\u8g2\csrc/u8x8_d_sbn1661.c **** {
 293              		.loc 1 214 0
 294              		.cfi_startproc
 295              		@ args = 0, pretend = 0, frame = 0
 296              		@ frame_needed = 0, uses_anonymous_args = 0
 297              		@ link register save eliminated.
 298              	.LVL42:
 215:..\..\..\u8g2\u8g2\csrc/u8x8_d_sbn1661.c ****   return u8x8_d_sbn1661_122x32(u8x8, msg, arg_int, arg_ptr);
 299              		.loc 1 215 0
 300 0000 FFF7FEBF 		b	u8x8_d_sbn1661_122x32
 301              	.LVL43:
 302              		.cfi_endproc
 303              	.LFE1:
 304              		.size	u8x8_d_sed1520_122x32, .-u8x8_d_sed1520_122x32
 305              		.section	.rodata
 306              		.align	2
 307              		.set	.LANCHOR0,. + 0
 308              		.type	u8x8_sbn1661_122x32_display_info, %object
 309              		.size	u8x8_sbn1661_122x32_display_info, 24
 310              	u8x8_sbn1661_122x32_display_info:
 311 0000 00       		.byte	0
 312 0001 01       		.byte	1
 313 0002 64       		.byte	100
 314 0003 14       		.byte	20
 315 0004 01       		.byte	1
 316 0005 06       		.byte	6
 317 0006 0C       		.byte	12
 318 0007 4B       		.byte	75
 319 0008 00093D00 		.word	4000000
 320 000c 00       		.byte	0
 321 000d 04       		.byte	4
 322 000e C8       		.byte	-56
 323 000f C8       		.byte	-56
 324 0010 10       		.byte	16
 325 0011 04       		.byte	4
 326 0012 00       		.byte	0
 327 0013 00       		.byte	0
 328 0014 7A00     		.short	122
 329 0016 2000     		.short	32
 330              		.type	u8x8_d_sbn1661_init_seq, %object
 331              		.size	u8x8_d_sbn1661_init_seq, 9
 332              	u8x8_d_sbn1661_init_seq:
 333 0018 15       		.byte	21
 334 0019 C0       		.byte	-64
 335 001a 15       		.byte	21
 336 001b A0       		.byte	-96
 337 001c 15       		.byte	21
 338 001d A4       		.byte	-92
 339 001e 15       		.byte	21
 340 001f A9       		.byte	-87
 341 0020 FF       		.byte	-1
ARM GAS  C:\Users\jesse\AppData\Local\Temp\ccLSRLzB.s 			page 11


 342              		.type	u8x8_d_sbn1661_powersave0_seq, %object
 343              		.size	u8x8_d_sbn1661_powersave0_seq, 3
 344              	u8x8_d_sbn1661_powersave0_seq:
 345 0021 15       		.byte	21
 346 0022 AF       		.byte	-81
 347 0023 FF       		.byte	-1
 348              		.type	u8x8_d_sbn1661_powersave1_seq, %object
 349              		.size	u8x8_d_sbn1661_powersave1_seq, 3
 350              	u8x8_d_sbn1661_powersave1_seq:
 351 0024 15       		.byte	21
 352 0025 AE       		.byte	-82
 353 0026 FF       		.byte	-1
 354              		.text
 355              	.Letext0:
 356              		.file 2 "c:\\program files (x86)\\cypress\\psoc creator\\4.4\\psoc creator\\import\\gnu\\arm\\5.4.
 357              		.file 3 "c:\\program files (x86)\\cypress\\psoc creator\\4.4\\psoc creator\\import\\gnu\\arm\\5.4.
 358              		.file 4 "..\\..\\..\\u8g2\\u8g2\\csrc\\u8x8.h"