ARM GAS  C:\Users\jesse\AppData\Local\Temp\cc4ZK9ea.s 			page 1


   1              		.syntax unified
   2              		.cpu cortex-m3
   3              		.fpu softvfp
   4              		.eabi_attribute 20, 1
   5              		.eabi_attribute 21, 1
   6              		.eabi_attribute 23, 3
   7              		.eabi_attribute 24, 1
   8              		.eabi_attribute 25, 1
   9              		.eabi_attribute 26, 1
  10              		.eabi_attribute 30, 4
  11              		.eabi_attribute 34, 1
  12              		.eabi_attribute 18, 4
  13              		.thumb
  14              		.syntax unified
  15              		.file	"u8x8_setup.c"
  16              		.text
  17              	.Ltext0:
  18              		.cfi_sections	.debug_frame
  19              		.section	.text.u8x8_dummy_cb,"ax",%progbits
  20              		.align	1
  21              		.global	u8x8_dummy_cb
  22              		.thumb
  23              		.thumb_func
  24              		.type	u8x8_dummy_cb, %function
  25              	u8x8_dummy_cb:
  26              	.LFB0:
  27              		.file 1 "..\\..\\..\\u8g2\\u8g2\\csrc\\u8x8_setup.c"
   1:..\..\..\u8g2\u8g2\csrc/u8x8_setup.c **** /*
   2:..\..\..\u8g2\u8g2\csrc/u8x8_setup.c **** 
   3:..\..\..\u8g2\u8g2\csrc/u8x8_setup.c ****   u8x8_setup.c
   4:..\..\..\u8g2\u8g2\csrc/u8x8_setup.c **** 
   5:..\..\..\u8g2\u8g2\csrc/u8x8_setup.c ****   Universal 8bit Graphics Library (https://github.com/olikraus/u8g2/)
   6:..\..\..\u8g2\u8g2\csrc/u8x8_setup.c **** 
   7:..\..\..\u8g2\u8g2\csrc/u8x8_setup.c ****   Copyright (c) 2016, olikraus@gmail.com
   8:..\..\..\u8g2\u8g2\csrc/u8x8_setup.c ****   All rights reserved.
   9:..\..\..\u8g2\u8g2\csrc/u8x8_setup.c **** 
  10:..\..\..\u8g2\u8g2\csrc/u8x8_setup.c ****   Redistribution and use in source and binary forms, with or without modification, 
  11:..\..\..\u8g2\u8g2\csrc/u8x8_setup.c ****   are permitted provided that the following conditions are met:
  12:..\..\..\u8g2\u8g2\csrc/u8x8_setup.c **** 
  13:..\..\..\u8g2\u8g2\csrc/u8x8_setup.c ****   * Redistributions of source code must retain the above copyright notice, this list 
  14:..\..\..\u8g2\u8g2\csrc/u8x8_setup.c ****     of conditions and the following disclaimer.
  15:..\..\..\u8g2\u8g2\csrc/u8x8_setup.c ****     
  16:..\..\..\u8g2\u8g2\csrc/u8x8_setup.c ****   * Redistributions in binary form must reproduce the above copyright notice, this 
  17:..\..\..\u8g2\u8g2\csrc/u8x8_setup.c ****     list of conditions and the following disclaimer in the documentation and/or other 
  18:..\..\..\u8g2\u8g2\csrc/u8x8_setup.c ****     materials provided with the distribution.
  19:..\..\..\u8g2\u8g2\csrc/u8x8_setup.c **** 
  20:..\..\..\u8g2\u8g2\csrc/u8x8_setup.c ****   THIS SOFTWARE IS PROVIDED BY THE COPYRIGHT HOLDERS AND 
  21:..\..\..\u8g2\u8g2\csrc/u8x8_setup.c ****   CONTRIBUTORS "AS IS" AND ANY EXPRESS OR IMPLIED WARRANTIES, 
  22:..\..\..\u8g2\u8g2\csrc/u8x8_setup.c ****   INCLUDING, BUT NOT LIMITED TO, THE IMPLIED WARRANTIES OF 
  23:..\..\..\u8g2\u8g2\csrc/u8x8_setup.c ****   MERCHANTABILITY AND FITNESS FOR A PARTICULAR PURPOSE ARE 
  24:..\..\..\u8g2\u8g2\csrc/u8x8_setup.c ****   DISCLAIMED. IN NO EVENT SHALL THE COPYRIGHT HOLDER OR 
  25:..\..\..\u8g2\u8g2\csrc/u8x8_setup.c ****   CONTRIBUTORS BE LIABLE FOR ANY DIRECT, INDIRECT, INCIDENTAL, 
  26:..\..\..\u8g2\u8g2\csrc/u8x8_setup.c ****   SPECIAL, EXEMPLARY, OR CONSEQUENTIAL DAMAGES (INCLUDING, BUT 
  27:..\..\..\u8g2\u8g2\csrc/u8x8_setup.c ****   NOT LIMITED TO, PROCUREMENT OF SUBSTITUTE GOODS OR SERVICES; 
  28:..\..\..\u8g2\u8g2\csrc/u8x8_setup.c ****   LOSS OF USE, DATA, OR PROFITS; OR BUSINESS INTERRUPTION) HOWEVER 
  29:..\..\..\u8g2\u8g2\csrc/u8x8_setup.c ****   CAUSED AND ON ANY THEORY OF LIABILITY, WHETHER IN CONTRACT, 
  30:..\..\..\u8g2\u8g2\csrc/u8x8_setup.c ****   STRICT LIABILITY, OR TORT (INCLUDING NEGLIGENCE OR OTHERWISE) 
ARM GAS  C:\Users\jesse\AppData\Local\Temp\cc4ZK9ea.s 			page 2


  31:..\..\..\u8g2\u8g2\csrc/u8x8_setup.c ****   ARISING IN ANY WAY OUT OF THE USE OF THIS SOFTWARE, EVEN IF 
  32:..\..\..\u8g2\u8g2\csrc/u8x8_setup.c ****   ADVISED OF THE POSSIBILITY OF SUCH DAMAGE.  
  33:..\..\..\u8g2\u8g2\csrc/u8x8_setup.c **** 
  34:..\..\..\u8g2\u8g2\csrc/u8x8_setup.c **** */
  35:..\..\..\u8g2\u8g2\csrc/u8x8_setup.c **** 
  36:..\..\..\u8g2\u8g2\csrc/u8x8_setup.c **** 
  37:..\..\..\u8g2\u8g2\csrc/u8x8_setup.c **** #include "u8x8.h"
  38:..\..\..\u8g2\u8g2\csrc/u8x8_setup.c **** 
  39:..\..\..\u8g2\u8g2\csrc/u8x8_setup.c **** /* universal dummy callback, which will be default for all callbacks */
  40:..\..\..\u8g2\u8g2\csrc/u8x8_setup.c **** uint8_t u8x8_dummy_cb(U8X8_UNUSED u8x8_t *u8x8, U8X8_UNUSED uint8_t msg, U8X8_UNUSED uint8_t arg_in
  41:..\..\..\u8g2\u8g2\csrc/u8x8_setup.c **** {
  28              		.loc 1 41 0
  29              		.cfi_startproc
  30              		@ args = 0, pretend = 0, frame = 0
  31              		@ frame_needed = 0, uses_anonymous_args = 0
  32              		@ link register save eliminated.
  33              	.LVL0:
  42:..\..\..\u8g2\u8g2\csrc/u8x8_setup.c ****   /* the dummy callback will not handle any message and will fail for all messages */
  43:..\..\..\u8g2\u8g2\csrc/u8x8_setup.c ****   return 0;
  44:..\..\..\u8g2\u8g2\csrc/u8x8_setup.c **** }
  34              		.loc 1 44 0
  35 0000 0020     		movs	r0, #0
  36              	.LVL1:
  37 0002 7047     		bx	lr
  38              		.cfi_endproc
  39              	.LFE0:
  40              		.size	u8x8_dummy_cb, .-u8x8_dummy_cb
  41              		.section	.text.u8x8_d_null_cb,"ax",%progbits
  42              		.align	1
  43              		.global	u8x8_d_null_cb
  44              		.thumb
  45              		.thumb_func
  46              		.type	u8x8_d_null_cb, %function
  47              	u8x8_d_null_cb:
  48              	.LFB1:
  45:..\..\..\u8g2\u8g2\csrc/u8x8_setup.c **** 
  46:..\..\..\u8g2\u8g2\csrc/u8x8_setup.c **** 
  47:..\..\..\u8g2\u8g2\csrc/u8x8_setup.c **** static const u8x8_display_info_t u8x8_null_display_info =
  48:..\..\..\u8g2\u8g2\csrc/u8x8_setup.c **** {
  49:..\..\..\u8g2\u8g2\csrc/u8x8_setup.c ****   /* chip_enable_level = */ 0,
  50:..\..\..\u8g2\u8g2\csrc/u8x8_setup.c ****   /* chip_disable_level = */ 1,
  51:..\..\..\u8g2\u8g2\csrc/u8x8_setup.c ****   
  52:..\..\..\u8g2\u8g2\csrc/u8x8_setup.c ****   /* post_chip_enable_wait_ns = */ 0,
  53:..\..\..\u8g2\u8g2\csrc/u8x8_setup.c ****   /* pre_chip_disable_wait_ns = */ 0,
  54:..\..\..\u8g2\u8g2\csrc/u8x8_setup.c ****   /* reset_pulse_width_ms = */ 0, 
  55:..\..\..\u8g2\u8g2\csrc/u8x8_setup.c ****   /* post_reset_wait_ms = */ 0, 
  56:..\..\..\u8g2\u8g2\csrc/u8x8_setup.c ****   /* sda_setup_time_ns = */ 0,		
  57:..\..\..\u8g2\u8g2\csrc/u8x8_setup.c ****   /* sck_pulse_width_ns = */ 0,	/* half of cycle time (100ns according to datasheet), AVR: below 70
  58:..\..\..\u8g2\u8g2\csrc/u8x8_setup.c ****   /* sck_clock_hz = */ 4000000UL,	/* since Arduino 1.6.0, the SPI bus speed in Hz. Should be  10000
  59:..\..\..\u8g2\u8g2\csrc/u8x8_setup.c ****   /* spi_mode = */ 0,		/* active high, rising edge */
  60:..\..\..\u8g2\u8g2\csrc/u8x8_setup.c ****   /* i2c_bus_clock_100kHz = */ 4,
  61:..\..\..\u8g2\u8g2\csrc/u8x8_setup.c ****   /* data_setup_time_ns = */ 0,
  62:..\..\..\u8g2\u8g2\csrc/u8x8_setup.c ****   /* write_pulse_width_ns = */ 0,
  63:..\..\..\u8g2\u8g2\csrc/u8x8_setup.c ****   /* tile_width = */ 1,		/* 8x8 */
  64:..\..\..\u8g2\u8g2\csrc/u8x8_setup.c ****   /* tile_hight = */ 1,
  65:..\..\..\u8g2\u8g2\csrc/u8x8_setup.c ****   /* default_x_offset = */ 0,
  66:..\..\..\u8g2\u8g2\csrc/u8x8_setup.c ****   /* flipmode_x_offset = */ 0,
ARM GAS  C:\Users\jesse\AppData\Local\Temp\cc4ZK9ea.s 			page 3


  67:..\..\..\u8g2\u8g2\csrc/u8x8_setup.c ****   /* pixel_width = */ 8,
  68:..\..\..\u8g2\u8g2\csrc/u8x8_setup.c ****   /* pixel_height = */ 8
  69:..\..\..\u8g2\u8g2\csrc/u8x8_setup.c **** };
  70:..\..\..\u8g2\u8g2\csrc/u8x8_setup.c **** 
  71:..\..\..\u8g2\u8g2\csrc/u8x8_setup.c **** 
  72:..\..\..\u8g2\u8g2\csrc/u8x8_setup.c **** /* a special null device */
  73:..\..\..\u8g2\u8g2\csrc/u8x8_setup.c **** uint8_t u8x8_d_null_cb(u8x8_t *u8x8, uint8_t msg, U8X8_UNUSED uint8_t arg_int, U8X8_UNUSED void *ar
  74:..\..\..\u8g2\u8g2\csrc/u8x8_setup.c **** {
  49              		.loc 1 74 0
  50              		.cfi_startproc
  51              		@ args = 0, pretend = 0, frame = 0
  52              		@ frame_needed = 0, uses_anonymous_args = 0
  53              	.LVL2:
  75:..\..\..\u8g2\u8g2\csrc/u8x8_setup.c ****   switch(msg)
  54              		.loc 1 75 0
  55 0000 0929     		cmp	r1, #9
  74:..\..\..\u8g2\u8g2\csrc/u8x8_setup.c ****   switch(msg)
  56              		.loc 1 74 0
  57 0002 08B5     		push	{r3, lr}
  58              		.cfi_def_cfa_offset 8
  59              		.cfi_offset 3, -8
  60              		.cfi_offset 14, -4
  61              		.loc 1 75 0
  62 0004 04D0     		beq	.L4
  63 0006 0A29     		cmp	r1, #10
  64 0008 05D1     		bne	.L3
  76:..\..\..\u8g2\u8g2\csrc/u8x8_setup.c ****   {
  77:..\..\..\u8g2\u8g2\csrc/u8x8_setup.c ****     case U8X8_MSG_DISPLAY_SETUP_MEMORY:
  78:..\..\..\u8g2\u8g2\csrc/u8x8_setup.c ****       u8x8_d_helper_display_setup_memory(u8x8, &u8x8_null_display_info);
  79:..\..\..\u8g2\u8g2\csrc/u8x8_setup.c ****       break;
  80:..\..\..\u8g2\u8g2\csrc/u8x8_setup.c ****     case U8X8_MSG_DISPLAY_INIT:
  81:..\..\..\u8g2\u8g2\csrc/u8x8_setup.c ****       u8x8_d_helper_display_init(u8x8);
  65              		.loc 1 81 0
  66 000a FFF7FEFF 		bl	u8x8_d_helper_display_init
  67              	.LVL3:
  82:..\..\..\u8g2\u8g2\csrc/u8x8_setup.c ****       break;
  68              		.loc 1 82 0
  69 000e 02E0     		b	.L3
  70              	.LVL4:
  71              	.L4:
  78:..\..\..\u8g2\u8g2\csrc/u8x8_setup.c ****       break;
  72              		.loc 1 78 0
  73 0010 0249     		ldr	r1, .L7
  74              	.LVL5:
  75 0012 FFF7FEFF 		bl	u8x8_d_helper_display_setup_memory
  76              	.LVL6:
  77              	.L3:
  83:..\..\..\u8g2\u8g2\csrc/u8x8_setup.c ****   }
  84:..\..\..\u8g2\u8g2\csrc/u8x8_setup.c ****   /* the null device callback will succeed for all messages */
  85:..\..\..\u8g2\u8g2\csrc/u8x8_setup.c ****   return 1;
  86:..\..\..\u8g2\u8g2\csrc/u8x8_setup.c **** }
  78              		.loc 1 86 0
  79 0016 0120     		movs	r0, #1
  80 0018 08BD     		pop	{r3, pc}
  81              	.L8:
  82 001a 00BF     		.align	2
  83              	.L7:
ARM GAS  C:\Users\jesse\AppData\Local\Temp\cc4ZK9ea.s 			page 4


  84 001c 00000000 		.word	.LANCHOR0
  85              		.cfi_endproc
  86              	.LFE1:
  87              		.size	u8x8_d_null_cb, .-u8x8_d_null_cb
  88              		.section	.text.u8x8_SetupDefaults,"ax",%progbits
  89              		.align	1
  90              		.global	u8x8_SetupDefaults
  91              		.thumb
  92              		.thumb_func
  93              		.type	u8x8_SetupDefaults, %function
  94              	u8x8_SetupDefaults:
  95              	.LFB2:
  87:..\..\..\u8g2\u8g2\csrc/u8x8_setup.c **** 
  88:..\..\..\u8g2\u8g2\csrc/u8x8_setup.c **** 
  89:..\..\..\u8g2\u8g2\csrc/u8x8_setup.c **** /*
  90:..\..\..\u8g2\u8g2\csrc/u8x8_setup.c ****   Description:
  91:..\..\..\u8g2\u8g2\csrc/u8x8_setup.c ****     Setup u8x8
  92:..\..\..\u8g2\u8g2\csrc/u8x8_setup.c ****   Args:
  93:..\..\..\u8g2\u8g2\csrc/u8x8_setup.c ****     u8x8	An empty u8x8 structure
  94:..\..\..\u8g2\u8g2\csrc/u8x8_setup.c **** */
  95:..\..\..\u8g2\u8g2\csrc/u8x8_setup.c **** void u8x8_SetupDefaults(u8x8_t *u8x8)
  96:..\..\..\u8g2\u8g2\csrc/u8x8_setup.c **** {
  96              		.loc 1 96 0
  97              		.cfi_startproc
  98              		@ args = 0, pretend = 0, frame = 0
  99              		@ frame_needed = 0, uses_anonymous_args = 0
 100              		@ link register save eliminated.
 101              	.LVL7:
  97:..\..\..\u8g2\u8g2\csrc/u8x8_setup.c ****     u8x8->display_info = NULL;
 102              		.loc 1 97 0
 103 0000 0023     		movs	r3, #0
  98:..\..\..\u8g2\u8g2\csrc/u8x8_setup.c ****     u8x8->display_cb = u8x8_dummy_cb;
 104              		.loc 1 98 0
 105 0002 084A     		ldr	r2, .L10
  97:..\..\..\u8g2\u8g2\csrc/u8x8_setup.c ****     u8x8->display_info = NULL;
 106              		.loc 1 97 0
 107 0004 0360     		str	r3, [r0]
  99:..\..\..\u8g2\u8g2\csrc/u8x8_setup.c ****     u8x8->cad_cb = u8x8_dummy_cb;
 100:..\..\..\u8g2\u8g2\csrc/u8x8_setup.c ****     u8x8->byte_cb = u8x8_dummy_cb;
 101:..\..\..\u8g2\u8g2\csrc/u8x8_setup.c ****     u8x8->gpio_and_delay_cb = u8x8_dummy_cb;
 102:..\..\..\u8g2\u8g2\csrc/u8x8_setup.c ****     u8x8->is_font_inverse_mode = 0;
 108              		.loc 1 102 0
 109 0006 80F82330 		strb	r3, [r0, #35]
 103:..\..\..\u8g2\u8g2\csrc/u8x8_setup.c ****     //u8x8->device_address = 0;
 104:..\..\..\u8g2\u8g2\csrc/u8x8_setup.c ****     u8x8->utf8_state = 0;		/* also reset by u8x8_utf8_init */
 110              		.loc 1 104 0
 111 000a 80F82630 		strb	r3, [r0, #38]
 105:..\..\..\u8g2\u8g2\csrc/u8x8_setup.c ****     u8x8->bus_clock = 0;		/* issue 769 */
 112              		.loc 1 105 0
 113 000e 8361     		str	r3, [r0, #24]
 106:..\..\..\u8g2\u8g2\csrc/u8x8_setup.c ****     u8x8->i2c_address = 255;
 114              		.loc 1 106 0
 115 0010 FF23     		movs	r3, #255
  98:..\..\..\u8g2\u8g2\csrc/u8x8_setup.c ****     u8x8->cad_cb = u8x8_dummy_cb;
 116              		.loc 1 98 0
 117 0012 8260     		str	r2, [r0, #8]
  99:..\..\..\u8g2\u8g2\csrc/u8x8_setup.c ****     u8x8->byte_cb = u8x8_dummy_cb;
ARM GAS  C:\Users\jesse\AppData\Local\Temp\cc4ZK9ea.s 			page 5


 118              		.loc 1 99 0
 119 0014 C260     		str	r2, [r0, #12]
 100:..\..\..\u8g2\u8g2\csrc/u8x8_setup.c ****     u8x8->gpio_and_delay_cb = u8x8_dummy_cb;
 120              		.loc 1 100 0
 121 0016 0261     		str	r2, [r0, #16]
 101:..\..\..\u8g2\u8g2\csrc/u8x8_setup.c ****     u8x8->is_font_inverse_mode = 0;
 122              		.loc 1 101 0
 123 0018 4261     		str	r2, [r0, #20]
 124              		.loc 1 106 0
 125 001a 80F82430 		strb	r3, [r0, #36]
 107:..\..\..\u8g2\u8g2\csrc/u8x8_setup.c ****     u8x8->debounce_default_pin_state = 255;	/* assume all low active buttons */
 126              		.loc 1 107 0
 127 001e 80F82830 		strb	r3, [r0, #40]
 128 0022 7047     		bx	lr
 129              	.L11:
 130              		.align	2
 131              	.L10:
 132 0024 00000000 		.word	u8x8_dummy_cb
 133              		.cfi_endproc
 134              	.LFE2:
 135              		.size	u8x8_SetupDefaults, .-u8x8_SetupDefaults
 136              		.section	.text.u8x8_Setup,"ax",%progbits
 137              		.align	1
 138              		.global	u8x8_Setup
 139              		.thumb
 140              		.thumb_func
 141              		.type	u8x8_Setup, %function
 142              	u8x8_Setup:
 143              	.LFB3:
 108:..\..\..\u8g2\u8g2\csrc/u8x8_setup.c ****   
 109:..\..\..\u8g2\u8g2\csrc/u8x8_setup.c **** #ifdef U8X8_USE_PINS 
 110:..\..\..\u8g2\u8g2\csrc/u8x8_setup.c ****   {
 111:..\..\..\u8g2\u8g2\csrc/u8x8_setup.c ****     uint8_t i;
 112:..\..\..\u8g2\u8g2\csrc/u8x8_setup.c ****     for( i = 0; i < U8X8_PIN_CNT; i++ )
 113:..\..\..\u8g2\u8g2\csrc/u8x8_setup.c ****       u8x8->pins[i] = U8X8_PIN_NONE;
 114:..\..\..\u8g2\u8g2\csrc/u8x8_setup.c ****   }
 115:..\..\..\u8g2\u8g2\csrc/u8x8_setup.c **** #endif
 116:..\..\..\u8g2\u8g2\csrc/u8x8_setup.c **** }
 117:..\..\..\u8g2\u8g2\csrc/u8x8_setup.c **** 
 118:..\..\..\u8g2\u8g2\csrc/u8x8_setup.c **** 
 119:..\..\..\u8g2\u8g2\csrc/u8x8_setup.c **** /*
 120:..\..\..\u8g2\u8g2\csrc/u8x8_setup.c ****   Description:
 121:..\..\..\u8g2\u8g2\csrc/u8x8_setup.c ****     Setup u8x8 and assign the callback function. The dummy 
 122:..\..\..\u8g2\u8g2\csrc/u8x8_setup.c ****     callback "u8x8_dummy_cb" can be used, if no callback is required.
 123:..\..\..\u8g2\u8g2\csrc/u8x8_setup.c ****     This setup will not communicate with the display itself.
 124:..\..\..\u8g2\u8g2\csrc/u8x8_setup.c ****     Use u8x8_InitDisplay() to send the startup code to the Display.
 125:..\..\..\u8g2\u8g2\csrc/u8x8_setup.c ****   Args:
 126:..\..\..\u8g2\u8g2\csrc/u8x8_setup.c ****     u8x8				An empty u8x8 structure
 127:..\..\..\u8g2\u8g2\csrc/u8x8_setup.c ****     display_cb			Display/controller specific callback function
 128:..\..\..\u8g2\u8g2\csrc/u8x8_setup.c ****     cad_cb				Display controller specific communication callback function
 129:..\..\..\u8g2\u8g2\csrc/u8x8_setup.c ****     byte_cb			Display controller/communication specific callback funtion
 130:..\..\..\u8g2\u8g2\csrc/u8x8_setup.c ****     gpio_and_delay_cb	Environment specific callback function
 131:..\..\..\u8g2\u8g2\csrc/u8x8_setup.c **** 
 132:..\..\..\u8g2\u8g2\csrc/u8x8_setup.c **** */
 133:..\..\..\u8g2\u8g2\csrc/u8x8_setup.c **** void u8x8_Setup(u8x8_t *u8x8, u8x8_msg_cb display_cb, u8x8_msg_cb cad_cb, u8x8_msg_cb byte_cb, u8x8
 134:..\..\..\u8g2\u8g2\csrc/u8x8_setup.c **** {
 144              		.loc 1 134 0
ARM GAS  C:\Users\jesse\AppData\Local\Temp\cc4ZK9ea.s 			page 6


 145              		.cfi_startproc
 146              		@ args = 4, pretend = 0, frame = 0
 147              		@ frame_needed = 0, uses_anonymous_args = 0
 148              	.LVL8:
 149 0000 F8B5     		push	{r3, r4, r5, r6, r7, lr}
 150              		.cfi_def_cfa_offset 24
 151              		.cfi_offset 3, -24
 152              		.cfi_offset 4, -20
 153              		.cfi_offset 5, -16
 154              		.cfi_offset 6, -12
 155              		.cfi_offset 7, -8
 156              		.cfi_offset 14, -4
 157              		.loc 1 134 0
 158 0002 069D     		ldr	r5, [sp, #24]
 159 0004 1746     		mov	r7, r2
 160 0006 1E46     		mov	r6, r3
 135:..\..\..\u8g2\u8g2\csrc/u8x8_setup.c ****   /* setup defaults and reset pins to U8X8_PIN_NONE */
 136:..\..\..\u8g2\u8g2\csrc/u8x8_setup.c ****   u8x8_SetupDefaults(u8x8);
 161              		.loc 1 136 0
 162 0008 FFF7FEFF 		bl	u8x8_SetupDefaults
 163              	.LVL9:
 137:..\..\..\u8g2\u8g2\csrc/u8x8_setup.c **** 
 138:..\..\..\u8g2\u8g2\csrc/u8x8_setup.c ****   /* setup specific callbacks */
 139:..\..\..\u8g2\u8g2\csrc/u8x8_setup.c ****   u8x8->display_cb = display_cb;
 140:..\..\..\u8g2\u8g2\csrc/u8x8_setup.c ****   u8x8->cad_cb = cad_cb;
 164              		.loc 1 140 0
 165 000c C760     		str	r7, [r0, #12]
 141:..\..\..\u8g2\u8g2\csrc/u8x8_setup.c ****   u8x8->byte_cb = byte_cb;
 166              		.loc 1 141 0
 167 000e 0661     		str	r6, [r0, #16]
 142:..\..\..\u8g2\u8g2\csrc/u8x8_setup.c ****   u8x8->gpio_and_delay_cb = gpio_and_delay_cb;
 168              		.loc 1 142 0
 169 0010 4561     		str	r5, [r0, #20]
 139:..\..\..\u8g2\u8g2\csrc/u8x8_setup.c ****   u8x8->cad_cb = cad_cb;
 170              		.loc 1 139 0
 171 0012 8160     		str	r1, [r0, #8]
 143:..\..\..\u8g2\u8g2\csrc/u8x8_setup.c **** 
 144:..\..\..\u8g2\u8g2\csrc/u8x8_setup.c ****   /* setup display info */
 145:..\..\..\u8g2\u8g2\csrc/u8x8_setup.c ****   u8x8_SetupMemory(u8x8);
 146:..\..\..\u8g2\u8g2\csrc/u8x8_setup.c **** }
 172              		.loc 1 146 0
 173 0014 BDE8F840 		pop	{r3, r4, r5, r6, r7, lr}
 174              		.cfi_restore 14
 175              		.cfi_restore 7
 176              		.cfi_restore 6
 177              		.cfi_restore 5
 178              		.cfi_restore 4
 179              		.cfi_restore 3
 180              		.cfi_def_cfa_offset 0
 181              	.LVL10:
 145:..\..\..\u8g2\u8g2\csrc/u8x8_setup.c **** }
 182              		.loc 1 145 0
 183 0018 FFF7FEBF 		b	u8x8_SetupMemory
 184              	.LVL11:
 185              		.cfi_endproc
 186              	.LFE3:
 187              		.size	u8x8_Setup, .-u8x8_Setup
ARM GAS  C:\Users\jesse\AppData\Local\Temp\cc4ZK9ea.s 			page 7


 188              		.section	.rodata
 189              		.align	2
 190              		.set	.LANCHOR0,. + 0
 191              		.type	u8x8_null_display_info, %object
 192              		.size	u8x8_null_display_info, 24
 193              	u8x8_null_display_info:
 194 0000 00       		.byte	0
 195 0001 01       		.byte	1
 196 0002 00       		.byte	0
 197 0003 00       		.byte	0
 198 0004 00       		.byte	0
 199 0005 00       		.byte	0
 200 0006 00       		.byte	0
 201 0007 00       		.byte	0
 202 0008 00093D00 		.word	4000000
 203 000c 00       		.byte	0
 204 000d 04       		.byte	4
 205 000e 00       		.byte	0
 206 000f 00       		.byte	0
 207 0010 01       		.byte	1
 208 0011 01       		.byte	1
 209 0012 00       		.byte	0
 210 0013 00       		.byte	0
 211 0014 0800     		.short	8
 212 0016 0800     		.short	8
 213              		.text
 214              	.Letext0:
 215              		.file 2 "c:\\program files (x86)\\cypress\\psoc creator\\4.4\\psoc creator\\import\\gnu\\arm\\5.4.
 216              		.file 3 "c:\\program files (x86)\\cypress\\psoc creator\\4.4\\psoc creator\\import\\gnu\\arm\\5.4.
 217              		.file 4 "..\\..\\..\\u8g2\\u8g2\\csrc\\u8x8.h"