ARM GAS  C:\Users\jesse\AppData\Local\Temp\ccs7Uzvq.s 			page 1


   1              		.syntax unified
   2              		.cpu cortex-m3
   3              		.fpu softvfp
   4              		.eabi_attribute 20, 1
   5              		.eabi_attribute 21, 1
   6              		.eabi_attribute 23, 3
   7              		.eabi_attribute 24, 1
   8              		.eabi_attribute 25, 1
   9              		.eabi_attribute 26, 1
  10              		.eabi_attribute 30, 4
  11              		.eabi_attribute 34, 1
  12              		.eabi_attribute 18, 4
  13              		.thumb
  14              		.syntax unified
  15              		.file	"u8x8_d_gp1287ai.c"
  16              		.text
  17              	.Ltext0:
  18              		.cfi_sections	.debug_frame
  19              		.section	.text.u8x8_d_gp1287ai_common,"ax",%progbits
  20              		.align	1
  21              		.global	u8x8_d_gp1287ai_common
  22              		.thumb
  23              		.thumb_func
  24              		.type	u8x8_d_gp1287ai_common, %function
  25              	u8x8_d_gp1287ai_common:
  26              	.LFB0:
  27              		.file 1 "..\\..\\..\\u8g2\\u8g2\\csrc\\u8x8_d_gp1287ai.c"
   1:..\..\..\u8g2\u8g2\csrc/u8x8_d_gp1287ai.c **** /*
   2:..\..\..\u8g2\u8g2\csrc/u8x8_d_gp1287ai.c **** 
   3:..\..\..\u8g2\u8g2\csrc/u8x8_d_gp1287ai.c ****   u8x8_d_gp1287ai.c
   4:..\..\..\u8g2\u8g2\csrc/u8x8_d_gp1287ai.c ****   
   5:..\..\..\u8g2\u8g2\csrc/u8x8_d_gp1287ai.c ****   https://github.com/olikraus/u8g2/issues/1907
   6:..\..\..\u8g2\u8g2\csrc/u8x8_d_gp1287ai.c ****   https://github.com/olikraus/u8g2/pull/1892  
   7:..\..\..\u8g2\u8g2\csrc/u8x8_d_gp1287ai.c **** 
   8:..\..\..\u8g2\u8g2\csrc/u8x8_d_gp1287ai.c ****   Universal 8bit Graphics Library (https://github.com/olikraus/u8g2/)
   9:..\..\..\u8g2\u8g2\csrc/u8x8_d_gp1287ai.c **** 
  10:..\..\..\u8g2\u8g2\csrc/u8x8_d_gp1287ai.c ****   Copyright (c) 2022, olikraus@gmail.com
  11:..\..\..\u8g2\u8g2\csrc/u8x8_d_gp1287ai.c ****   All rights reserved.
  12:..\..\..\u8g2\u8g2\csrc/u8x8_d_gp1287ai.c **** 
  13:..\..\..\u8g2\u8g2\csrc/u8x8_d_gp1287ai.c ****   Redistribution and use in source and binary forms, with or without modification,
  14:..\..\..\u8g2\u8g2\csrc/u8x8_d_gp1287ai.c ****   are permitted provided that the following conditions are met:
  15:..\..\..\u8g2\u8g2\csrc/u8x8_d_gp1287ai.c **** 
  16:..\..\..\u8g2\u8g2\csrc/u8x8_d_gp1287ai.c ****   * Redistributions of source code must retain the above copyright notice, this list
  17:..\..\..\u8g2\u8g2\csrc/u8x8_d_gp1287ai.c ****   of conditions and the following disclaimer.
  18:..\..\..\u8g2\u8g2\csrc/u8x8_d_gp1287ai.c **** 
  19:..\..\..\u8g2\u8g2\csrc/u8x8_d_gp1287ai.c ****   * Redistributions in binary form must reproduce the above copyright notice, this
  20:..\..\..\u8g2\u8g2\csrc/u8x8_d_gp1287ai.c ****   list of conditions and the following disclaimer in the documentation and/or other
  21:..\..\..\u8g2\u8g2\csrc/u8x8_d_gp1287ai.c ****   materials provided with the distribution.
  22:..\..\..\u8g2\u8g2\csrc/u8x8_d_gp1287ai.c **** 
  23:..\..\..\u8g2\u8g2\csrc/u8x8_d_gp1287ai.c ****   THIS SOFTWARE IS PROVIDED BY THE COPYRIGHT HOLDERS AND
  24:..\..\..\u8g2\u8g2\csrc/u8x8_d_gp1287ai.c ****   CONTRIBUTORS "AS IS" AND ANY EXPRESS OR IMPLIED WARRANTIES,
  25:..\..\..\u8g2\u8g2\csrc/u8x8_d_gp1287ai.c ****   INCLUDING, BUT NOT LIMITED TO, THE IMPLIED WARRANTIES OF
  26:..\..\..\u8g2\u8g2\csrc/u8x8_d_gp1287ai.c ****   MERCHANTABILITY AND FITNESS FOR A PARTICULAR PURPOSE ARE
  27:..\..\..\u8g2\u8g2\csrc/u8x8_d_gp1287ai.c ****   DISCLAIMED. IN NO EVENT SHALL THE COPYRIGHT HOLDER OR
  28:..\..\..\u8g2\u8g2\csrc/u8x8_d_gp1287ai.c ****   CONTRIBUTORS BE LIABLE FOR ANY DIRECT, INDIRECT, INCIDENTAL,
  29:..\..\..\u8g2\u8g2\csrc/u8x8_d_gp1287ai.c ****   SPECIAL, EXEMPLARY, OR CONSEQUENTIAL DAMAGES (INCLUDING, BUT
  30:..\..\..\u8g2\u8g2\csrc/u8x8_d_gp1287ai.c ****   NOT LIMITED TO, PROCUREMENT OF SUBSTITUTE GOODS OR SERVICES;
ARM GAS  C:\Users\jesse\AppData\Local\Temp\ccs7Uzvq.s 			page 2


  31:..\..\..\u8g2\u8g2\csrc/u8x8_d_gp1287ai.c ****   LOSS OF USE, DATA, OR PROFITS; OR BUSINESS INTERRUPTION) HOWEVER
  32:..\..\..\u8g2\u8g2\csrc/u8x8_d_gp1287ai.c ****   CAUSED AND ON ANY THEORY OF LIABILITY, WHETHER IN CONTRACT,
  33:..\..\..\u8g2\u8g2\csrc/u8x8_d_gp1287ai.c ****   STRICT LIABILITY, OR TORT (INCLUDING NEGLIGENCE OR OTHERWISE)
  34:..\..\..\u8g2\u8g2\csrc/u8x8_d_gp1287ai.c ****   ARISING IN ANY WAY OUT OF THE USE OF THIS SOFTWARE, EVEN IF
  35:..\..\..\u8g2\u8g2\csrc/u8x8_d_gp1287ai.c ****   ADVISED OF THE POSSIBILITY OF SUCH DAMAGE.
  36:..\..\..\u8g2\u8g2\csrc/u8x8_d_gp1287ai.c **** 
  37:..\..\..\u8g2\u8g2\csrc/u8x8_d_gp1287ai.c **** */
  38:..\..\..\u8g2\u8g2\csrc/u8x8_d_gp1287ai.c **** 
  39:..\..\..\u8g2\u8g2\csrc/u8x8_d_gp1287ai.c **** #include "u8x8.h"
  40:..\..\..\u8g2\u8g2\csrc/u8x8_d_gp1287ai.c **** 
  41:..\..\..\u8g2\u8g2\csrc/u8x8_d_gp1287ai.c **** #define SWAP8(a) ((((a)&0x80) >> 7) | (((a)&0x40) >> 5) | (((a)&0x20) >> 3) | (((a)&0x10) >> 1) | (
  42:..\..\..\u8g2\u8g2\csrc/u8x8_d_gp1287ai.c **** 
  43:..\..\..\u8g2\u8g2\csrc/u8x8_d_gp1287ai.c **** /* ========== GP1287AI ========== */
  44:..\..\..\u8g2\u8g2\csrc/u8x8_d_gp1287ai.c **** static const u8x8_display_info_t u8x8_gp1287ai_display_info = {
  45:..\..\..\u8g2\u8g2\csrc/u8x8_d_gp1287ai.c ****     /* chip_enable_level = */ 0,
  46:..\..\..\u8g2\u8g2\csrc/u8x8_d_gp1287ai.c ****     /* chip_disable_level = */ 1,
  47:..\..\..\u8g2\u8g2\csrc/u8x8_d_gp1287ai.c **** 
  48:..\..\..\u8g2\u8g2\csrc/u8x8_d_gp1287ai.c ****     /* post_chip_enable_wait_ns = */ 240, /* tCS-CLK */
  49:..\..\..\u8g2\u8g2\csrc/u8x8_d_gp1287ai.c ****     /* pre_chip_disable_wait_ns = */ 120, /* tCLK-CS */
  50:..\..\..\u8g2\u8g2\csrc/u8x8_d_gp1287ai.c ****     /* reset_pulse_width_ms = */ 1,       /* Trw     */
  51:..\..\..\u8g2\u8g2\csrc/u8x8_d_gp1287ai.c ****     /* post_reset_wait_ms = */ 1,         /* Trth    */
  52:..\..\..\u8g2\u8g2\csrc/u8x8_d_gp1287ai.c ****     /* sda_setup_time_ns = */ 60,         /* tsu     */
  53:..\..\..\u8g2\u8g2\csrc/u8x8_d_gp1287ai.c ****     /* sck_pulse_width_ns = */ 120,       /* tcyc/2  */
  54:..\..\..\u8g2\u8g2\csrc/u8x8_d_gp1287ai.c ****     /* sck_clock_hz = */ 4000000UL,       /* MAX 4.16 MHz */
  55:..\..\..\u8g2\u8g2\csrc/u8x8_d_gp1287ai.c ****     /* spi_mode = */ 3,                   /* active low, falling edge, MSBFIRST */
  56:..\..\..\u8g2\u8g2\csrc/u8x8_d_gp1287ai.c ****     /* i2c_bus_clock_100kHz = */ 4,       /*         */
  57:..\..\..\u8g2\u8g2\csrc/u8x8_d_gp1287ai.c ****     /* data_setup_time_ns = */ 60,        /* tsu     */
  58:..\..\..\u8g2\u8g2\csrc/u8x8_d_gp1287ai.c ****     /* write_pulse_width_ns = */ 120,     /* tcyc/2  */
  59:..\..\..\u8g2\u8g2\csrc/u8x8_d_gp1287ai.c ****     /* tile_width = */ 32,                /* 32*8=256 memory size */
  60:..\..\..\u8g2\u8g2\csrc/u8x8_d_gp1287ai.c ****     /* tile_hight = */ 7,                 /* 7*8=56 memory size */
  61:..\..\..\u8g2\u8g2\csrc/u8x8_d_gp1287ai.c ****     /* default_x_offset = */ 0,           /*         */
  62:..\..\..\u8g2\u8g2\csrc/u8x8_d_gp1287ai.c ****     /* flipmode_x_offset = */ 0,          /*         */
  63:..\..\..\u8g2\u8g2\csrc/u8x8_d_gp1287ai.c ****     /* pixel_width = */ 256,              /* display size */
  64:..\..\..\u8g2\u8g2\csrc/u8x8_d_gp1287ai.c ****     /* pixel_height = */ 50               /* display size */
  65:..\..\..\u8g2\u8g2\csrc/u8x8_d_gp1287ai.c **** };
  66:..\..\..\u8g2\u8g2\csrc/u8x8_d_gp1287ai.c **** static const uint8_t u8x8_d_gp1287ai_init_seq[] = {
  67:..\..\..\u8g2\u8g2\csrc/u8x8_d_gp1287ai.c ****     U8X8_START_TRANSFER(),
  68:..\..\..\u8g2\u8g2\csrc/u8x8_d_gp1287ai.c ****     U8X8_C(SWAP8(0x0AA)), /* Software reset */
  69:..\..\..\u8g2\u8g2\csrc/u8x8_d_gp1287ai.c ****     U8X8_END_TRANSFER(),
  70:..\..\..\u8g2\u8g2\csrc/u8x8_d_gp1287ai.c ****     U8X8_DLY(1), /* Wait for reset */
  71:..\..\..\u8g2\u8g2\csrc/u8x8_d_gp1287ai.c **** 
  72:..\..\..\u8g2\u8g2\csrc/u8x8_d_gp1287ai.c ****     U8X8_START_TRANSFER(),
  73:..\..\..\u8g2\u8g2\csrc/u8x8_d_gp1287ai.c ****     U8X8_CA(SWAP8(0x078), SWAP8(0x008)), /* Oscillation Setting */
  74:..\..\..\u8g2\u8g2\csrc/u8x8_d_gp1287ai.c ****     U8X8_END_TRANSFER(),
  75:..\..\..\u8g2\u8g2\csrc/u8x8_d_gp1287ai.c **** 
  76:..\..\..\u8g2\u8g2\csrc/u8x8_d_gp1287ai.c ****     U8X8_START_TRANSFER(),
  77:..\..\..\u8g2\u8g2\csrc/u8x8_d_gp1287ai.c ****     U8X8_CAA(SWAP8(0x0CC), SWAP8(0x002), SWAP8(0x000)), /* VFD Mode Setting */
  78:..\..\..\u8g2\u8g2\csrc/u8x8_d_gp1287ai.c ****     U8X8_END_TRANSFER(),
  79:..\..\..\u8g2\u8g2\csrc/u8x8_d_gp1287ai.c **** 
  80:..\..\..\u8g2\u8g2\csrc/u8x8_d_gp1287ai.c ****     U8X8_START_TRANSFER(),
  81:..\..\..\u8g2\u8g2\csrc/u8x8_d_gp1287ai.c ****     U8X8_CAAA(SWAP8(0x0E0), SWAP8(0x0FF), SWAP8(0x031), SWAP8(0x000)), /* Display Area Setting */
  82:..\..\..\u8g2\u8g2\csrc/u8x8_d_gp1287ai.c ****     U8X8_A4(SWAP8(0x020), SWAP8(0x000), SWAP8(0x000), SWAP8(0x080)),   /* Display Area Setting */
  83:..\..\..\u8g2\u8g2\csrc/u8x8_d_gp1287ai.c ****     U8X8_END_TRANSFER(),
  84:..\..\..\u8g2\u8g2\csrc/u8x8_d_gp1287ai.c **** 
  85:..\..\..\u8g2\u8g2\csrc/u8x8_d_gp1287ai.c ****     U8X8_START_TRANSFER(),
  86:..\..\..\u8g2\u8g2\csrc/u8x8_d_gp1287ai.c ****     U8X8_CAAAA(SWAP8(0x0B1), SWAP8(0x020), SWAP8(0x03F), SWAP8(0x000), SWAP8(0x001)), /* Internal S
  87:..\..\..\u8g2\u8g2\csrc/u8x8_d_gp1287ai.c ****     U8X8_END_TRANSFER(),
ARM GAS  C:\Users\jesse\AppData\Local\Temp\ccs7Uzvq.s 			page 3


  88:..\..\..\u8g2\u8g2\csrc/u8x8_d_gp1287ai.c **** 
  89:..\..\..\u8g2\u8g2\csrc/u8x8_d_gp1287ai.c ****     U8X8_START_TRANSFER(),
  90:..\..\..\u8g2\u8g2\csrc/u8x8_d_gp1287ai.c ****     U8X8_CAA(SWAP8(0x0A0), SWAP8(0x000), SWAP8(0x028)), /* Dimming level Setting (1024 level, 0x3FF
  91:..\..\..\u8g2\u8g2\csrc/u8x8_d_gp1287ai.c ****     U8X8_END_TRANSFER(),
  92:..\..\..\u8g2\u8g2\csrc/u8x8_d_gp1287ai.c **** 
  93:..\..\..\u8g2\u8g2\csrc/u8x8_d_gp1287ai.c ****     U8X8_START_TRANSFER(),
  94:..\..\..\u8g2\u8g2\csrc/u8x8_d_gp1287ai.c ****     U8X8_C(SWAP8(0x055)), /* Memory Map Clear */
  95:..\..\..\u8g2\u8g2\csrc/u8x8_d_gp1287ai.c ****     U8X8_END_TRANSFER(),
  96:..\..\..\u8g2\u8g2\csrc/u8x8_d_gp1287ai.c ****     U8X8_DLY(15), /* Waiting for memory clear */
  97:..\..\..\u8g2\u8g2\csrc/u8x8_d_gp1287ai.c **** 
  98:..\..\..\u8g2\u8g2\csrc/u8x8_d_gp1287ai.c ****     U8X8_START_TRANSFER(),
  99:..\..\..\u8g2\u8g2\csrc/u8x8_d_gp1287ai.c ****     U8X8_CAA(SWAP8(0x0C0), SWAP8(0x000), SWAP8(0x004)), /* DW1 position setting */
 100:..\..\..\u8g2\u8g2\csrc/u8x8_d_gp1287ai.c ****     U8X8_END_TRANSFER(),
 101:..\..\..\u8g2\u8g2\csrc/u8x8_d_gp1287ai.c **** 
 102:..\..\..\u8g2\u8g2\csrc/u8x8_d_gp1287ai.c ****     U8X8_START_TRANSFER(),
 103:..\..\..\u8g2\u8g2\csrc/u8x8_d_gp1287ai.c ****     U8X8_CAA(SWAP8(0x0D0), SWAP8(0x000), SWAP8(0x03C)), /* DW2 position setting */
 104:..\..\..\u8g2\u8g2\csrc/u8x8_d_gp1287ai.c ****     U8X8_END_TRANSFER(),
 105:..\..\..\u8g2\u8g2\csrc/u8x8_d_gp1287ai.c **** 
 106:..\..\..\u8g2\u8g2\csrc/u8x8_d_gp1287ai.c ****     U8X8_START_TRANSFER(),
 107:..\..\..\u8g2\u8g2\csrc/u8x8_d_gp1287ai.c ****     U8X8_CA(SWAP8(0x090), SWAP8(0x000)), /* Internal Command */
 108:..\..\..\u8g2\u8g2\csrc/u8x8_d_gp1287ai.c ****     U8X8_END_TRANSFER(),
 109:..\..\..\u8g2\u8g2\csrc/u8x8_d_gp1287ai.c **** 
 110:..\..\..\u8g2\u8g2\csrc/u8x8_d_gp1287ai.c ****     U8X8_START_TRANSFER(),
 111:..\..\..\u8g2\u8g2\csrc/u8x8_d_gp1287ai.c ****     U8X8_CA(SWAP8(0x008), SWAP8(0x000)), /* T1 INT Setting */
 112:..\..\..\u8g2\u8g2\csrc/u8x8_d_gp1287ai.c ****     U8X8_END_TRANSFER(),
 113:..\..\..\u8g2\u8g2\csrc/u8x8_d_gp1287ai.c **** 
 114:..\..\..\u8g2\u8g2\csrc/u8x8_d_gp1287ai.c ****     U8X8_START_TRANSFER(),
 115:..\..\..\u8g2\u8g2\csrc/u8x8_d_gp1287ai.c ****     U8X8_CA(SWAP8(0x080), SWAP8(0x000)), /* Display Mode Setting */
 116:..\..\..\u8g2\u8g2\csrc/u8x8_d_gp1287ai.c ****     U8X8_END_TRANSFER(),
 117:..\..\..\u8g2\u8g2\csrc/u8x8_d_gp1287ai.c **** 
 118:..\..\..\u8g2\u8g2\csrc/u8x8_d_gp1287ai.c ****     U8X8_START_TRANSFER(),
 119:..\..\..\u8g2\u8g2\csrc/u8x8_d_gp1287ai.c ****     U8X8_C(SWAP8(0x061)), /* Standby Mode */
 120:..\..\..\u8g2\u8g2\csrc/u8x8_d_gp1287ai.c ****     U8X8_END_TRANSFER(),
 121:..\..\..\u8g2\u8g2\csrc/u8x8_d_gp1287ai.c **** 
 122:..\..\..\u8g2\u8g2\csrc/u8x8_d_gp1287ai.c ****     U8X8_END() /* end of sequence */
 123:..\..\..\u8g2\u8g2\csrc/u8x8_d_gp1287ai.c **** };
 124:..\..\..\u8g2\u8g2\csrc/u8x8_d_gp1287ai.c **** static const uint8_t u8x8_d_gp1287ai_standby_seq[] = {
 125:..\..\..\u8g2\u8g2\csrc/u8x8_d_gp1287ai.c ****     U8X8_START_TRANSFER(),
 126:..\..\..\u8g2\u8g2\csrc/u8x8_d_gp1287ai.c ****     U8X8_C(SWAP8(0x061)), /* Standby */
 127:..\..\..\u8g2\u8g2\csrc/u8x8_d_gp1287ai.c ****     U8X8_END_TRANSFER(),
 128:..\..\..\u8g2\u8g2\csrc/u8x8_d_gp1287ai.c **** 
 129:..\..\..\u8g2\u8g2\csrc/u8x8_d_gp1287ai.c ****     U8X8_END() /* end of sequence */
 130:..\..\..\u8g2\u8g2\csrc/u8x8_d_gp1287ai.c **** };
 131:..\..\..\u8g2\u8g2\csrc/u8x8_d_gp1287ai.c **** static const uint8_t u8x8_d_gp1287ai_wakeup_seq[] = {
 132:..\..\..\u8g2\u8g2\csrc/u8x8_d_gp1287ai.c ****     U8X8_START_TRANSFER(),
 133:..\..\..\u8g2\u8g2\csrc/u8x8_d_gp1287ai.c ****     U8X8_C(SWAP8(0x06D)), /* Wake up */
 134:..\..\..\u8g2\u8g2\csrc/u8x8_d_gp1287ai.c ****     U8X8_END_TRANSFER(),
 135:..\..\..\u8g2\u8g2\csrc/u8x8_d_gp1287ai.c ****     U8X8_DLY(1), /* Wait for OSC stabilize */
 136:..\..\..\u8g2\u8g2\csrc/u8x8_d_gp1287ai.c **** 
 137:..\..\..\u8g2\u8g2\csrc/u8x8_d_gp1287ai.c ****     U8X8_START_TRANSFER(),
 138:..\..\..\u8g2\u8g2\csrc/u8x8_d_gp1287ai.c ****     U8X8_CA(SWAP8(0x080), SWAP8(0x000)), /* After entering standby mode, the SC bit will be automat
 139:..\..\..\u8g2\u8g2\csrc/u8x8_d_gp1287ai.c ****     U8X8_END_TRANSFER(),
 140:..\..\..\u8g2\u8g2\csrc/u8x8_d_gp1287ai.c **** 
 141:..\..\..\u8g2\u8g2\csrc/u8x8_d_gp1287ai.c ****     U8X8_END() /* end of sequence */
 142:..\..\..\u8g2\u8g2\csrc/u8x8_d_gp1287ai.c **** };
 143:..\..\..\u8g2\u8g2\csrc/u8x8_d_gp1287ai.c **** uint8_t u8x8_d_gp1287ai_common(u8x8_t *u8x8, uint8_t msg, uint8_t arg_int, void *arg_ptr)
 144:..\..\..\u8g2\u8g2\csrc/u8x8_d_gp1287ai.c **** {
ARM GAS  C:\Users\jesse\AppData\Local\Temp\ccs7Uzvq.s 			page 4


  28              		.loc 1 144 0
  29              		.cfi_startproc
  30              		@ args = 0, pretend = 0, frame = 8
  31              		@ frame_needed = 0, uses_anonymous_args = 0
  32              	.LVL0:
 145:..\..\..\u8g2\u8g2\csrc/u8x8_d_gp1287ai.c ****     uint8_t *ptr;
 146:..\..\..\u8g2\u8g2\csrc/u8x8_d_gp1287ai.c ****     uint8_t x, y;
 147:..\..\..\u8g2\u8g2\csrc/u8x8_d_gp1287ai.c ****     uint16_t tx_cnt;
 148:..\..\..\u8g2\u8g2\csrc/u8x8_d_gp1287ai.c ****     uint8_t swapped_byte;
 149:..\..\..\u8g2\u8g2\csrc/u8x8_d_gp1287ai.c ****     switch (msg)
  33              		.loc 1 149 0
  34 0000 0E29     		cmp	r1, #14
 144:..\..\..\u8g2\u8g2\csrc/u8x8_d_gp1287ai.c ****     uint8_t *ptr;
  35              		.loc 1 144 0
  36 0002 2DE9F743 		push	{r0, r1, r2, r4, r5, r6, r7, r8, r9, lr}
  37              		.cfi_def_cfa_offset 40
  38              		.cfi_offset 4, -28
  39              		.cfi_offset 5, -24
  40              		.cfi_offset 6, -20
  41              		.cfi_offset 7, -16
  42              		.cfi_offset 8, -12
  43              		.cfi_offset 9, -8
  44              		.cfi_offset 14, -4
 144:..\..\..\u8g2\u8g2\csrc/u8x8_d_gp1287ai.c ****     uint8_t *ptr;
  45              		.loc 1 144 0
  46 0006 0746     		mov	r7, r0
  47 0008 8946     		mov	r9, r1
  48 000a 1546     		mov	r5, r2
  49 000c 9846     		mov	r8, r3
  50              		.loc 1 149 0
  51 000e 0BD0     		beq	.L3
  52 0010 0F29     		cmp	r1, #15
  53 0012 39D0     		beq	.L4
  54 0014 0B29     		cmp	r1, #11
  55 0016 40F0A580 		bne	.L12
 150:..\..\..\u8g2\u8g2\csrc/u8x8_d_gp1287ai.c ****     {
 151:..\..\..\u8g2\u8g2\csrc/u8x8_d_gp1287ai.c ****     case U8X8_MSG_DISPLAY_SET_POWER_SAVE:
 152:..\..\..\u8g2\u8g2\csrc/u8x8_d_gp1287ai.c ****         if (arg_int == 0)
  56              		.loc 1 152 0
  57 001a 0AB9     		cbnz	r2, .L6
 153:..\..\..\u8g2\u8g2\csrc/u8x8_d_gp1287ai.c ****             u8x8_cad_SendSequence(u8x8, u8x8_d_gp1287ai_wakeup_seq);
  58              		.loc 1 153 0
  59 001c 5349     		ldr	r1, .L18
  60              	.LVL1:
  61 001e 00E0     		b	.L15
  62              	.LVL2:
  63              	.L6:
 154:..\..\..\u8g2\u8g2\csrc/u8x8_d_gp1287ai.c ****         else
 155:..\..\..\u8g2\u8g2\csrc/u8x8_d_gp1287ai.c ****             u8x8_cad_SendSequence(u8x8, u8x8_d_gp1287ai_standby_seq);
  64              		.loc 1 155 0
  65 0020 5349     		ldr	r1, .L18+4
  66              	.LVL3:
  67              	.L15:
  68 0022 FFF7FEFF 		bl	u8x8_cad_SendSequence
  69              	.LVL4:
  70 0026 2DE0     		b	.L13
  71              	.LVL5:
ARM GAS  C:\Users\jesse\AppData\Local\Temp\ccs7Uzvq.s 			page 5


  72              	.L3:
 156:..\..\..\u8g2\u8g2\csrc/u8x8_d_gp1287ai.c ****         break;
 157:..\..\..\u8g2\u8g2\csrc/u8x8_d_gp1287ai.c **** #ifdef U8X8_WITH_SET_CONTRAST
 158:..\..\..\u8g2\u8g2\csrc/u8x8_d_gp1287ai.c ****     case U8X8_MSG_DISPLAY_SET_CONTRAST:
 159:..\..\..\u8g2\u8g2\csrc/u8x8_d_gp1287ai.c ****         u8x8_cad_StartTransfer(u8x8);
 160:..\..\..\u8g2\u8g2\csrc/u8x8_d_gp1287ai.c ****         u8x8_cad_SendCmd(u8x8, SWAP8(0x0A0));
 161:..\..\..\u8g2\u8g2\csrc/u8x8_d_gp1287ai.c ****         u8x8_cad_SendArg(u8x8, SWAP8((arg_int * 4) >> 8));   /* Dimming level */
  73              		.loc 1 161 0
  74 0028 AC00     		lsls	r4, r5, #2
 159:..\..\..\u8g2\u8g2\csrc/u8x8_d_gp1287ai.c ****         u8x8_cad_SendCmd(u8x8, SWAP8(0x0A0));
  75              		.loc 1 159 0
  76 002a FFF7FEFF 		bl	u8x8_cad_StartTransfer
  77              	.LVL6:
 160:..\..\..\u8g2\u8g2\csrc/u8x8_d_gp1287ai.c ****         u8x8_cad_SendArg(u8x8, SWAP8((arg_int * 4) >> 8));   /* Dimming level */
  78              		.loc 1 160 0
  79 002e 0521     		movs	r1, #5
  80 0030 3846     		mov	r0, r7
  81 0032 FFF7FEFF 		bl	u8x8_cad_SendCmd
  82              	.LVL7:
  83              		.loc 1 161 0
  84 0036 2312     		asrs	r3, r4, #8
  85 0038 5901     		lsls	r1, r3, #5
  86 003a 01F04001 		and	r1, r1, #64
  87 003e 41EAC311 		orr	r1, r1, r3, lsl #7
  88 0042 01F0C001 		and	r1, r1, #192
  89 0046 3846     		mov	r0, r7
  90 0048 FFF7FEFF 		bl	u8x8_cad_SendArg
  91              	.LVL8:
 162:..\..\..\u8g2\u8g2\csrc/u8x8_d_gp1287ai.c ****         u8x8_cad_SendArg(u8x8, SWAP8((arg_int * 4) & 0xFF)); /* Dimming level */
  92              		.loc 1 162 0
  93 004c 6111     		asrs	r1, r4, #5
  94 004e C4F3C013 		ubfx	r3, r4, #7, #1
  95 0052 01F00201 		and	r1, r1, #2
  96 0056 1943     		orrs	r1, r1, r3
  97 0058 E310     		asrs	r3, r4, #3
  98 005a 03F00403 		and	r3, r3, #4
  99 005e 6410     		asrs	r4, r4, #1
 100 0060 1943     		orrs	r1, r1, r3
 101 0062 04F00804 		and	r4, r4, #8
 102 0066 0C43     		orrs	r4, r4, r1
 103 0068 E900     		lsls	r1, r5, #3
 104 006a 01F01001 		and	r1, r1, #16
 105 006e 0C43     		orrs	r4, r4, r1
 106 0070 6901     		lsls	r1, r5, #5
 107 0072 01F02001 		and	r1, r1, #32
 108 0076 2143     		orrs	r1, r1, r4
 109 0078 3846     		mov	r0, r7
 110 007a FFF7FEFF 		bl	u8x8_cad_SendArg
 111              	.LVL9:
 112              	.L14:
 163:..\..\..\u8g2\u8g2\csrc/u8x8_d_gp1287ai.c ****         u8x8_cad_EndTransfer(u8x8);
 113              		.loc 1 163 0
 114 007e 3846     		mov	r0, r7
 115 0080 FFF7FEFF 		bl	u8x8_cad_EndTransfer
 116              	.LVL10:
 117              	.L13:
 164:..\..\..\u8g2\u8g2\csrc/u8x8_d_gp1287ai.c ****         break;
ARM GAS  C:\Users\jesse\AppData\Local\Temp\ccs7Uzvq.s 			page 6


 165:..\..\..\u8g2\u8g2\csrc/u8x8_d_gp1287ai.c **** #endif
 166:..\..\..\u8g2\u8g2\csrc/u8x8_d_gp1287ai.c ****     case U8X8_MSG_DISPLAY_DRAW_TILE:
 167:..\..\..\u8g2\u8g2\csrc/u8x8_d_gp1287ai.c ****         x = ((u8x8_tile_t *)arg_ptr)->x_pos * 8;
 168:..\..\..\u8g2\u8g2\csrc/u8x8_d_gp1287ai.c ****         y = ((u8x8_tile_t *)arg_ptr)->y_pos * 8 + 4;
 169:..\..\..\u8g2\u8g2\csrc/u8x8_d_gp1287ai.c **** 
 170:..\..\..\u8g2\u8g2\csrc/u8x8_d_gp1287ai.c ****         u8x8_cad_StartTransfer(u8x8);
 171:..\..\..\u8g2\u8g2\csrc/u8x8_d_gp1287ai.c **** 
 172:..\..\..\u8g2\u8g2\csrc/u8x8_d_gp1287ai.c ****         u8x8_cad_SendCmd(u8x8, SWAP8(0x0F0));
 173:..\..\..\u8g2\u8g2\csrc/u8x8_d_gp1287ai.c ****         u8x8_cad_SendArg(u8x8, SWAP8(x));
 174:..\..\..\u8g2\u8g2\csrc/u8x8_d_gp1287ai.c ****         u8x8_cad_SendArg(u8x8, SWAP8(y));
 175:..\..\..\u8g2\u8g2\csrc/u8x8_d_gp1287ai.c ****         u8x8_cad_SendArg(u8x8, SWAP8(0x007)); /* return every 8 pixels */
 176:..\..\..\u8g2\u8g2\csrc/u8x8_d_gp1287ai.c ****         do
 177:..\..\..\u8g2\u8g2\csrc/u8x8_d_gp1287ai.c ****         {
 178:..\..\..\u8g2\u8g2\csrc/u8x8_d_gp1287ai.c ****             ptr = ((u8x8_tile_t *)arg_ptr)->tile_ptr;
 179:..\..\..\u8g2\u8g2\csrc/u8x8_d_gp1287ai.c ****             tx_cnt = ((u8x8_tile_t *)arg_ptr)->cnt * 8;
 180:..\..\..\u8g2\u8g2\csrc/u8x8_d_gp1287ai.c ****             while (tx_cnt > 0)
 181:..\..\..\u8g2\u8g2\csrc/u8x8_d_gp1287ai.c ****             {
 182:..\..\..\u8g2\u8g2\csrc/u8x8_d_gp1287ai.c ****                 swapped_byte = SWAP8(*ptr);
 183:..\..\..\u8g2\u8g2\csrc/u8x8_d_gp1287ai.c ****                 u8x8_cad_SendData(u8x8, 1, &swapped_byte);
 184:..\..\..\u8g2\u8g2\csrc/u8x8_d_gp1287ai.c ****                 ptr += 1;
 185:..\..\..\u8g2\u8g2\csrc/u8x8_d_gp1287ai.c ****                 tx_cnt -= 1;
 186:..\..\..\u8g2\u8g2\csrc/u8x8_d_gp1287ai.c ****             }
 187:..\..\..\u8g2\u8g2\csrc/u8x8_d_gp1287ai.c ****             arg_int--;
 188:..\..\..\u8g2\u8g2\csrc/u8x8_d_gp1287ai.c ****         } while (arg_int > 0);
 189:..\..\..\u8g2\u8g2\csrc/u8x8_d_gp1287ai.c **** 
 190:..\..\..\u8g2\u8g2\csrc/u8x8_d_gp1287ai.c ****         u8x8_cad_EndTransfer(u8x8);
 191:..\..\..\u8g2\u8g2\csrc/u8x8_d_gp1287ai.c ****         break;
 192:..\..\..\u8g2\u8g2\csrc/u8x8_d_gp1287ai.c ****     default:
 193:..\..\..\u8g2\u8g2\csrc/u8x8_d_gp1287ai.c ****         return 0;
 194:..\..\..\u8g2\u8g2\csrc/u8x8_d_gp1287ai.c ****     }
 195:..\..\..\u8g2\u8g2\csrc/u8x8_d_gp1287ai.c ****     return 1;
 118              		.loc 1 195 0
 119 0084 0120     		movs	r0, #1
 164:..\..\..\u8g2\u8g2\csrc/u8x8_d_gp1287ai.c ****         break;
 120              		.loc 1 164 0
 121 0086 6EE0     		b	.L2
 122              	.LVL11:
 123              	.L4:
 167:..\..\..\u8g2\u8g2\csrc/u8x8_d_gp1287ai.c ****         y = ((u8x8_tile_t *)arg_ptr)->y_pos * 8 + 4;
 124              		.loc 1 167 0
 125 0088 5E79     		ldrb	r6, [r3, #5]	@ zero_extendqisi2
 168:..\..\..\u8g2\u8g2\csrc/u8x8_d_gp1287ai.c **** 
 126              		.loc 1 168 0
 127 008a 9C79     		ldrb	r4, [r3, #6]	@ zero_extendqisi2
 167:..\..\..\u8g2\u8g2\csrc/u8x8_d_gp1287ai.c ****         y = ((u8x8_tile_t *)arg_ptr)->y_pos * 8 + 4;
 128              		.loc 1 167 0
 129 008c F600     		lsls	r6, r6, #3
 130 008e F6B2     		uxtb	r6, r6
 131              	.LVL12:
 170:..\..\..\u8g2\u8g2\csrc/u8x8_d_gp1287ai.c **** 
 132              		.loc 1 170 0
 133 0090 FFF7FEFF 		bl	u8x8_cad_StartTransfer
 134              	.LVL13:
 172:..\..\..\u8g2\u8g2\csrc/u8x8_d_gp1287ai.c ****         u8x8_cad_SendArg(u8x8, SWAP8(x));
 135              		.loc 1 172 0
 136 0094 4946     		mov	r1, r9
 137 0096 3846     		mov	r0, r7
ARM GAS  C:\Users\jesse\AppData\Local\Temp\ccs7Uzvq.s 			page 7


 138 0098 FFF7FEFF 		bl	u8x8_cad_SendCmd
 139              	.LVL14:
 173:..\..\..\u8g2\u8g2\csrc/u8x8_d_gp1287ai.c ****         u8x8_cad_SendArg(u8x8, SWAP8(y));
 140              		.loc 1 173 0
 141 009c 7311     		asrs	r3, r6, #5
 142 009e 03F00201 		and	r1, r3, #2
 143 00a2 F310     		asrs	r3, r6, #3
 144 00a4 03F00403 		and	r3, r3, #4
 145 00a8 0B43     		orrs	r3, r3, r1
 146 00aa 7110     		asrs	r1, r6, #1
 147 00ac 43EAD613 		orr	r3, r3, r6, lsr #7
 168:..\..\..\u8g2\u8g2\csrc/u8x8_d_gp1287ai.c **** 
 148              		.loc 1 168 0
 149 00b0 E400     		lsls	r4, r4, #3
 173:..\..\..\u8g2\u8g2\csrc/u8x8_d_gp1287ai.c ****         u8x8_cad_SendArg(u8x8, SWAP8(y));
 150              		.loc 1 173 0
 151 00b2 01F00801 		and	r1, r1, #8
 152 00b6 7600     		lsls	r6, r6, #1
 153              	.LVL15:
 154 00b8 1943     		orrs	r1, r1, r3
 168:..\..\..\u8g2\u8g2\csrc/u8x8_d_gp1287ai.c **** 
 155              		.loc 1 168 0
 156 00ba 0434     		adds	r4, r4, #4
 173:..\..\..\u8g2\u8g2\csrc/u8x8_d_gp1287ai.c ****         u8x8_cad_SendArg(u8x8, SWAP8(y));
 157              		.loc 1 173 0
 158 00bc 06F01006 		and	r6, r6, #16
 168:..\..\..\u8g2\u8g2\csrc/u8x8_d_gp1287ai.c **** 
 159              		.loc 1 168 0
 160 00c0 E4B2     		uxtb	r4, r4
 161              	.LVL16:
 173:..\..\..\u8g2\u8g2\csrc/u8x8_d_gp1287ai.c ****         u8x8_cad_SendArg(u8x8, SWAP8(y));
 162              		.loc 1 173 0
 163 00c2 3143     		orrs	r1, r1, r6
 164 00c4 3846     		mov	r0, r7
 165 00c6 FFF7FEFF 		bl	u8x8_cad_SendArg
 166              	.LVL17:
 174:..\..\..\u8g2\u8g2\csrc/u8x8_d_gp1287ai.c ****         u8x8_cad_SendArg(u8x8, SWAP8(0x007)); /* return every 8 pixels */
 167              		.loc 1 174 0
 168 00ca 6311     		asrs	r3, r4, #5
 169 00cc 03F00203 		and	r3, r3, #2
 170 00d0 43EAD413 		orr	r3, r3, r4, lsr #7
 171 00d4 E110     		asrs	r1, r4, #3
 172 00d6 43F02003 		orr	r3, r3, #32
 173 00da 6210     		asrs	r2, r4, #1
 174 00dc 01F00401 		and	r1, r1, #4
 175 00e0 1943     		orrs	r1, r1, r3
 176 00e2 02F00802 		and	r2, r2, #8
 177 00e6 6400     		lsls	r4, r4, #1
 178              	.LVL18:
 179 00e8 1143     		orrs	r1, r1, r2
 180 00ea 04F01004 		and	r4, r4, #16
 181 00ee 2143     		orrs	r1, r1, r4
 182 00f0 3846     		mov	r0, r7
 183 00f2 FFF7FEFF 		bl	u8x8_cad_SendArg
 184              	.LVL19:
 175:..\..\..\u8g2\u8g2\csrc/u8x8_d_gp1287ai.c ****         do
 185              		.loc 1 175 0
ARM GAS  C:\Users\jesse\AppData\Local\Temp\ccs7Uzvq.s 			page 8


 186 00f6 E021     		movs	r1, #224
 187 00f8 3846     		mov	r0, r7
 188 00fa FFF7FEFF 		bl	u8x8_cad_SendArg
 189              	.LVL20:
 190              	.L9:
 179:..\..\..\u8g2\u8g2\csrc/u8x8_d_gp1287ai.c ****             while (tx_cnt > 0)
 191              		.loc 1 179 0
 192 00fe 98F80440 		ldrb	r4, [r8, #4]	@ zero_extendqisi2
 178:..\..\..\u8g2\u8g2\csrc/u8x8_d_gp1287ai.c ****             tx_cnt = ((u8x8_tile_t *)arg_ptr)->cnt * 8;
 193              		.loc 1 178 0
 194 0102 D8F80060 		ldr	r6, [r8]
 195              	.LVL21:
 179:..\..\..\u8g2\u8g2\csrc/u8x8_d_gp1287ai.c ****             while (tx_cnt > 0)
 196              		.loc 1 179 0
 197 0106 E400     		lsls	r4, r4, #3
 198              	.LVL22:
 199              	.L7:
 180:..\..\..\u8g2\u8g2\csrc/u8x8_d_gp1287ai.c ****             {
 200              		.loc 1 180 0
 201 0108 3CB3     		cbz	r4, .L17
 182:..\..\..\u8g2\u8g2\csrc/u8x8_d_gp1287ai.c ****                 u8x8_cad_SendData(u8x8, 1, &swapped_byte);
 202              		.loc 1 182 0
 203 010a 16F8012B 		ldrb	r2, [r6], #1	@ zero_extendqisi2
 204              	.LVL23:
 185:..\..\..\u8g2\u8g2\csrc/u8x8_d_gp1287ai.c ****             }
 205              		.loc 1 185 0
 206 010e 013C     		subs	r4, r4, #1
 207              	.LVL24:
 182:..\..\..\u8g2\u8g2\csrc/u8x8_d_gp1287ai.c ****                 u8x8_cad_SendData(u8x8, 1, &swapped_byte);
 208              		.loc 1 182 0
 209 0110 D301     		lsls	r3, r2, #7
 210 0112 43EAD211 		orr	r1, r3, r2, lsr #7
 211 0116 5311     		asrs	r3, r2, #5
 212 0118 03F00203 		and	r3, r3, #2
 213 011c 0B43     		orrs	r3, r3, r1
 214 011e D110     		asrs	r1, r2, #3
 215 0120 01F00401 		and	r1, r1, #4
 216 0124 5010     		asrs	r0, r2, #1
 217 0126 0B43     		orrs	r3, r3, r1
 218 0128 00F00800 		and	r0, r0, #8
 219 012c 5100     		lsls	r1, r2, #1
 220 012e 0343     		orrs	r3, r3, r0
 221 0130 01F01001 		and	r1, r1, #16
 222 0134 1943     		orrs	r1, r1, r3
 223 0136 D300     		lsls	r3, r2, #3
 224 0138 03F02003 		and	r3, r3, #32
 225 013c 5201     		lsls	r2, r2, #5
 226 013e 0B43     		orrs	r3, r3, r1
 227 0140 02F04002 		and	r2, r2, #64
 228 0144 1A43     		orrs	r2, r2, r3
 229 0146 8DF80720 		strb	r2, [sp, #7]
 183:..\..\..\u8g2\u8g2\csrc/u8x8_d_gp1287ai.c ****                 ptr += 1;
 230              		.loc 1 183 0
 231 014a 0121     		movs	r1, #1
 232 014c 0DF10702 		add	r2, sp, #7
 233 0150 3846     		mov	r0, r7
 234 0152 FFF7FEFF 		bl	u8x8_cad_SendData
ARM GAS  C:\Users\jesse\AppData\Local\Temp\ccs7Uzvq.s 			page 9


 235              	.LVL25:
 185:..\..\..\u8g2\u8g2\csrc/u8x8_d_gp1287ai.c ****             }
 236              		.loc 1 185 0
 237 0156 A4B2     		uxth	r4, r4
 238              	.LVL26:
 239 0158 D6E7     		b	.L7
 240              	.L17:
 187:..\..\..\u8g2\u8g2\csrc/u8x8_d_gp1287ai.c ****         } while (arg_int > 0);
 241              		.loc 1 187 0
 242 015a 013D     		subs	r5, r5, #1
 243              	.LVL27:
 188:..\..\..\u8g2\u8g2\csrc/u8x8_d_gp1287ai.c **** 
 244              		.loc 1 188 0
 245 015c 15F0FF05 		ands	r5, r5, #255
 246              	.LVL28:
 247 0160 CDD1     		bne	.L9
 248 0162 8CE7     		b	.L14
 249              	.LVL29:
 250              	.L12:
 193:..\..\..\u8g2\u8g2\csrc/u8x8_d_gp1287ai.c ****     }
 251              		.loc 1 193 0
 252 0164 0020     		movs	r0, #0
 253              	.LVL30:
 254              	.L2:
 196:..\..\..\u8g2\u8g2\csrc/u8x8_d_gp1287ai.c **** }
 255              		.loc 1 196 0
 256 0166 03B0     		add	sp, sp, #12
 257              		.cfi_def_cfa_offset 28
 258              		@ sp needed
 259 0168 BDE8F083 		pop	{r4, r5, r6, r7, r8, r9, pc}
 260              	.LVL31:
 261              	.L19:
 262              		.align	2
 263              	.L18:
 264 016c 00000000 		.word	.LANCHOR0
 265 0170 0D000000 		.word	.LANCHOR0+13
 266              		.cfi_endproc
 267              	.LFE0:
 268              		.size	u8x8_d_gp1287ai_common, .-u8x8_d_gp1287ai_common
 269              		.section	.text.u8x8_d_gp1287ai_256x50,"ax",%progbits
 270              		.align	1
 271              		.global	u8x8_d_gp1287ai_256x50
 272              		.thumb
 273              		.thumb_func
 274              		.type	u8x8_d_gp1287ai_256x50, %function
 275              	u8x8_d_gp1287ai_256x50:
 276              	.LFB1:
 197:..\..\..\u8g2\u8g2\csrc/u8x8_d_gp1287ai.c **** uint8_t u8x8_d_gp1287ai_256x50(u8x8_t *u8x8, uint8_t msg, uint8_t arg_int, void *arg_ptr)
 198:..\..\..\u8g2\u8g2\csrc/u8x8_d_gp1287ai.c **** {
 277              		.loc 1 198 0
 278              		.cfi_startproc
 279              		@ args = 0, pretend = 0, frame = 0
 280              		@ frame_needed = 0, uses_anonymous_args = 0
 281              	.LVL32:
 199:..\..\..\u8g2\u8g2\csrc/u8x8_d_gp1287ai.c ****     switch (msg)
 282              		.loc 1 199 0
 283 0000 0929     		cmp	r1, #9
ARM GAS  C:\Users\jesse\AppData\Local\Temp\ccs7Uzvq.s 			page 10


 198:..\..\..\u8g2\u8g2\csrc/u8x8_d_gp1287ai.c ****     switch (msg)
 284              		.loc 1 198 0
 285 0002 70B5     		push	{r4, r5, r6, lr}
 286              		.cfi_def_cfa_offset 16
 287              		.cfi_offset 4, -16
 288              		.cfi_offset 5, -12
 289              		.cfi_offset 6, -8
 290              		.cfi_offset 14, -4
 198:..\..\..\u8g2\u8g2\csrc/u8x8_d_gp1287ai.c ****     switch (msg)
 291              		.loc 1 198 0
 292 0004 0546     		mov	r5, r0
 293              		.loc 1 199 0
 294 0006 08D0     		beq	.L22
 295 0008 0A29     		cmp	r1, #10
 296 000a 0AD1     		bne	.L26
 200:..\..\..\u8g2\u8g2\csrc/u8x8_d_gp1287ai.c ****     {
 201:..\..\..\u8g2\u8g2\csrc/u8x8_d_gp1287ai.c ****     case U8X8_MSG_DISPLAY_SETUP_MEMORY:
 202:..\..\..\u8g2\u8g2\csrc/u8x8_d_gp1287ai.c ****         u8x8_d_helper_display_setup_memory(u8x8, &u8x8_gp1287ai_display_info);
 203:..\..\..\u8g2\u8g2\csrc/u8x8_d_gp1287ai.c ****         break;
 204:..\..\..\u8g2\u8g2\csrc/u8x8_d_gp1287ai.c ****     case U8X8_MSG_DISPLAY_INIT:
 205:..\..\..\u8g2\u8g2\csrc/u8x8_d_gp1287ai.c ****         u8x8_d_helper_display_init(u8x8);
 297              		.loc 1 205 0
 298 000c FFF7FEFF 		bl	u8x8_d_helper_display_init
 299              	.LVL33:
 206:..\..\..\u8g2\u8g2\csrc/u8x8_d_gp1287ai.c ****         u8x8_cad_SendSequence(u8x8, u8x8_d_gp1287ai_init_seq);
 300              		.loc 1 206 0
 301 0010 0749     		ldr	r1, .L27
 302 0012 2846     		mov	r0, r5
 303 0014 FFF7FEFF 		bl	u8x8_cad_SendSequence
 304              	.LVL34:
 207:..\..\..\u8g2\u8g2\csrc/u8x8_d_gp1287ai.c ****         break;
 305              		.loc 1 207 0
 306 0018 07E0     		b	.L24
 307              	.LVL35:
 308              	.L22:
 202:..\..\..\u8g2\u8g2\csrc/u8x8_d_gp1287ai.c ****         break;
 309              		.loc 1 202 0
 310 001a 0649     		ldr	r1, .L27+4
 311              	.LVL36:
 312 001c FFF7FEFF 		bl	u8x8_d_helper_display_setup_memory
 313              	.LVL37:
 203:..\..\..\u8g2\u8g2\csrc/u8x8_d_gp1287ai.c ****     case U8X8_MSG_DISPLAY_INIT:
 314              		.loc 1 203 0
 315 0020 03E0     		b	.L24
 316              	.LVL38:
 317              	.L26:
 208:..\..\..\u8g2\u8g2\csrc/u8x8_d_gp1287ai.c ****     default:
 209:..\..\..\u8g2\u8g2\csrc/u8x8_d_gp1287ai.c ****         return u8x8_d_gp1287ai_common(u8x8, msg, arg_int, arg_ptr);
 210:..\..\..\u8g2\u8g2\csrc/u8x8_d_gp1287ai.c ****     }
 211:..\..\..\u8g2\u8g2\csrc/u8x8_d_gp1287ai.c ****     return 1;
 212:..\..\..\u8g2\u8g2\csrc/u8x8_d_gp1287ai.c **** }
 318              		.loc 1 212 0
 319 0022 BDE87040 		pop	{r4, r5, r6, lr}
 320              		.cfi_remember_state
 321              		.cfi_restore 14
 322              		.cfi_restore 6
 323              		.cfi_restore 5
ARM GAS  C:\Users\jesse\AppData\Local\Temp\ccs7Uzvq.s 			page 11


 324              		.cfi_restore 4
 325              		.cfi_def_cfa_offset 0
 209:..\..\..\u8g2\u8g2\csrc/u8x8_d_gp1287ai.c ****     }
 326              		.loc 1 209 0
 327 0026 FFF7FEBF 		b	u8x8_d_gp1287ai_common
 328              	.LVL39:
 329              	.L24:
 330              		.cfi_restore_state
 331              		.loc 1 212 0
 332 002a 0120     		movs	r0, #1
 333 002c 70BD     		pop	{r4, r5, r6, pc}
 334              	.LVL40:
 335              	.L28:
 336 002e 00BF     		.align	2
 337              	.L27:
 338 0030 2C000000 		.word	.LANCHOR0+44
 339 0034 14000000 		.word	.LANCHOR0+20
 340              		.cfi_endproc
 341              	.LFE1:
 342              		.size	u8x8_d_gp1287ai_256x50, .-u8x8_d_gp1287ai_256x50
 343              		.section	.rodata
 344              		.align	2
 345              		.set	.LANCHOR0,. + 0
 346              		.type	u8x8_d_gp1287ai_wakeup_seq, %object
 347              		.size	u8x8_d_gp1287ai_wakeup_seq, 13
 348              	u8x8_d_gp1287ai_wakeup_seq:
 349 0000 18       		.byte	24
 350 0001 15       		.byte	21
 351 0002 B6       		.byte	-74
 352 0003 19       		.byte	25
 353 0004 FE       		.byte	-2
 354 0005 01       		.byte	1
 355 0006 18       		.byte	24
 356 0007 15       		.byte	21
 357 0008 01       		.byte	1
 358 0009 16       		.byte	22
 359 000a 00       		.byte	0
 360 000b 19       		.byte	25
 361 000c FF       		.byte	-1
 362              		.type	u8x8_d_gp1287ai_standby_seq, %object
 363              		.size	u8x8_d_gp1287ai_standby_seq, 5
 364              	u8x8_d_gp1287ai_standby_seq:
 365 000d 18       		.byte	24
 366 000e 15       		.byte	21
 367 000f 86       		.byte	-122
 368 0010 19       		.byte	25
 369 0011 FF       		.byte	-1
 370 0012 0000     		.space	2
 371              		.type	u8x8_gp1287ai_display_info, %object
 372              		.size	u8x8_gp1287ai_display_info, 24
 373              	u8x8_gp1287ai_display_info:
 374 0014 00       		.byte	0
 375 0015 01       		.byte	1
 376 0016 F0       		.byte	-16
 377 0017 78       		.byte	120
 378 0018 01       		.byte	1
 379 0019 01       		.byte	1
ARM GAS  C:\Users\jesse\AppData\Local\Temp\ccs7Uzvq.s 			page 12


 380 001a 3C       		.byte	60
 381 001b 78       		.byte	120
 382 001c 00093D00 		.word	4000000
 383 0020 03       		.byte	3
 384 0021 04       		.byte	4
 385 0022 3C       		.byte	60
 386 0023 78       		.byte	120
 387 0024 20       		.byte	32
 388 0025 07       		.byte	7
 389 0026 00       		.byte	0
 390 0027 00       		.byte	0
 391 0028 0001     		.short	256
 392 002a 3200     		.short	50
 393              		.type	u8x8_d_gp1287ai_init_seq, %object
 394              		.size	u8x8_d_gp1287ai_init_seq, 103
 395              	u8x8_d_gp1287ai_init_seq:
 396 002c 18       		.byte	24
 397 002d 15       		.byte	21
 398 002e 55       		.byte	85
 399 002f 19       		.byte	25
 400 0030 FE       		.byte	-2
 401 0031 01       		.byte	1
 402 0032 18       		.byte	24
 403 0033 15       		.byte	21
 404 0034 1E       		.byte	30
 405 0035 16       		.byte	22
 406 0036 10       		.byte	16
 407 0037 19       		.byte	25
 408 0038 18       		.byte	24
 409 0039 15       		.byte	21
 410 003a 33       		.byte	51
 411 003b 16       		.byte	22
 412 003c 40       		.byte	64
 413 003d 16       		.byte	22
 414 003e 00       		.byte	0
 415 003f 19       		.byte	25
 416 0040 18       		.byte	24
 417 0041 15       		.byte	21
 418 0042 07       		.byte	7
 419 0043 16       		.byte	22
 420 0044 FF       		.byte	-1
 421 0045 16       		.byte	22
 422 0046 8C       		.byte	-116
 423 0047 16       		.byte	22
 424 0048 00       		.byte	0
 425 0049 16       		.byte	22
 426 004a 04       		.byte	4
 427 004b 16       		.byte	22
 428 004c 00       		.byte	0
 429 004d 16       		.byte	22
 430 004e 00       		.byte	0
 431 004f 16       		.byte	22
 432 0050 01       		.byte	1
 433 0051 19       		.byte	25
 434 0052 18       		.byte	24
 435 0053 15       		.byte	21
 436 0054 8D       		.byte	-115
ARM GAS  C:\Users\jesse\AppData\Local\Temp\ccs7Uzvq.s 			page 13


 437 0055 16       		.byte	22
 438 0056 04       		.byte	4
 439 0057 16       		.byte	22
 440 0058 FC       		.byte	-4
 441 0059 16       		.byte	22
 442 005a 00       		.byte	0
 443 005b 16       		.byte	22
 444 005c 80       		.byte	-128
 445 005d 19       		.byte	25
 446 005e 18       		.byte	24
 447 005f 15       		.byte	21
 448 0060 05       		.byte	5
 449 0061 16       		.byte	22
 450 0062 00       		.byte	0
 451 0063 16       		.byte	22
 452 0064 14       		.byte	20
 453 0065 19       		.byte	25
 454 0066 18       		.byte	24
 455 0067 15       		.byte	21
 456 0068 AA       		.byte	-86
 457 0069 19       		.byte	25
 458 006a FE       		.byte	-2
 459 006b 0F       		.byte	15
 460 006c 18       		.byte	24
 461 006d 15       		.byte	21
 462 006e 03       		.byte	3
 463 006f 16       		.byte	22
 464 0070 00       		.byte	0
 465 0071 16       		.byte	22
 466 0072 20       		.byte	32
 467 0073 19       		.byte	25
 468 0074 18       		.byte	24
 469 0075 15       		.byte	21
 470 0076 0B       		.byte	11
 471 0077 16       		.byte	22
 472 0078 00       		.byte	0
 473 0079 16       		.byte	22
 474 007a 3C       		.byte	60
 475 007b 19       		.byte	25
 476 007c 18       		.byte	24
 477 007d 15       		.byte	21
 478 007e 09       		.byte	9
 479 007f 16       		.byte	22
 480 0080 00       		.byte	0
 481 0081 19       		.byte	25
 482 0082 18       		.byte	24
 483 0083 15       		.byte	21
 484 0084 10       		.byte	16
 485 0085 16       		.byte	22
 486 0086 00       		.byte	0
 487 0087 19       		.byte	25
 488 0088 18       		.byte	24
 489 0089 15       		.byte	21
 490 008a 01       		.byte	1
 491 008b 16       		.byte	22
 492 008c 00       		.byte	0
 493 008d 19       		.byte	25
ARM GAS  C:\Users\jesse\AppData\Local\Temp\ccs7Uzvq.s 			page 14


 494 008e 18       		.byte	24
 495 008f 15       		.byte	21
 496 0090 86       		.byte	-122
 497 0091 19       		.byte	25
 498 0092 FF       		.byte	-1
 499              		.text
 500              	.Letext0:
 501              		.file 2 "c:\\program files (x86)\\cypress\\psoc creator\\4.4\\psoc creator\\import\\gnu\\arm\\5.4.
 502              		.file 3 "c:\\program files (x86)\\cypress\\psoc creator\\4.4\\psoc creator\\import\\gnu\\arm\\5.4.
 503              		.file 4 "..\\..\\..\\u8g2\\u8g2\\csrc\\u8x8.h"