ARM GAS  C:\Users\jesse\AppData\Local\Temp\cccl74bg.s 			page 1


   1              		.syntax unified
   2              		.cpu cortex-m3
   3              		.fpu softvfp
   4              		.eabi_attribute 20, 1
   5              		.eabi_attribute 21, 1
   6              		.eabi_attribute 23, 3
   7              		.eabi_attribute 24, 1
   8              		.eabi_attribute 25, 1
   9              		.eabi_attribute 26, 1
  10              		.eabi_attribute 30, 4
  11              		.eabi_attribute 34, 1
  12              		.eabi_attribute 18, 4
  13              		.thumb
  14              		.syntax unified
  15              		.file	"u8x8_d_uc1601.c"
  16              		.text
  17              	.Ltext0:
  18              		.cfi_sections	.debug_frame
  19              		.section	.text.u8x8_d_uc1601_128x32,"ax",%progbits
  20              		.align	1
  21              		.global	u8x8_d_uc1601_128x32
  22              		.thumb
  23              		.thumb_func
  24              		.type	u8x8_d_uc1601_128x32, %function
  25              	u8x8_d_uc1601_128x32:
  26              	.LFB0:
  27              		.file 1 "..\\..\\..\\u8g2\\u8g2\\csrc\\u8x8_d_uc1601.c"
   1:..\..\..\u8g2\u8g2\csrc/u8x8_d_uc1601.c **** /*
   2:..\..\..\u8g2\u8g2\csrc/u8x8_d_uc1601.c **** 
   3:..\..\..\u8g2\u8g2\csrc/u8x8_d_uc1601.c ****   u8x8_d_uc1601.c
   4:..\..\..\u8g2\u8g2\csrc/u8x8_d_uc1601.c ****   
   5:..\..\..\u8g2\u8g2\csrc/u8x8_d_uc1601.c ****   Universal 8bit Graphics Library (https://github.com/olikraus/u8g2/)
   6:..\..\..\u8g2\u8g2\csrc/u8x8_d_uc1601.c **** 
   7:..\..\..\u8g2\u8g2\csrc/u8x8_d_uc1601.c ****   Copyright (c) 2017, olikraus@gmail.com
   8:..\..\..\u8g2\u8g2\csrc/u8x8_d_uc1601.c ****   All rights reserved.
   9:..\..\..\u8g2\u8g2\csrc/u8x8_d_uc1601.c **** 
  10:..\..\..\u8g2\u8g2\csrc/u8x8_d_uc1601.c ****   Redistribution and use in source and binary forms, with or without modification, 
  11:..\..\..\u8g2\u8g2\csrc/u8x8_d_uc1601.c ****   are permitted provided that the following conditions are met:
  12:..\..\..\u8g2\u8g2\csrc/u8x8_d_uc1601.c **** 
  13:..\..\..\u8g2\u8g2\csrc/u8x8_d_uc1601.c ****   * Redistributions of source code must retain the above copyright notice, this list 
  14:..\..\..\u8g2\u8g2\csrc/u8x8_d_uc1601.c ****     of conditions and the following disclaimer.
  15:..\..\..\u8g2\u8g2\csrc/u8x8_d_uc1601.c ****     
  16:..\..\..\u8g2\u8g2\csrc/u8x8_d_uc1601.c ****   * Redistributions in binary form must reproduce the above copyright notice, this 
  17:..\..\..\u8g2\u8g2\csrc/u8x8_d_uc1601.c ****     list of conditions and the following disclaimer in the documentation and/or other 
  18:..\..\..\u8g2\u8g2\csrc/u8x8_d_uc1601.c ****     materials provided with the distribution.
  19:..\..\..\u8g2\u8g2\csrc/u8x8_d_uc1601.c **** 
  20:..\..\..\u8g2\u8g2\csrc/u8x8_d_uc1601.c ****   THIS SOFTWARE IS PROVIDED BY THE COPYRIGHT HOLDERS AND 
  21:..\..\..\u8g2\u8g2\csrc/u8x8_d_uc1601.c ****   CONTRIBUTORS "AS IS" AND ANY EXPRESS OR IMPLIED WARRANTIES, 
  22:..\..\..\u8g2\u8g2\csrc/u8x8_d_uc1601.c ****   INCLUDING, BUT NOT LIMITED TO, THE IMPLIED WARRANTIES OF 
  23:..\..\..\u8g2\u8g2\csrc/u8x8_d_uc1601.c ****   MERCHANTABILITY AND FITNESS FOR A PARTICULAR PURPOSE ARE 
  24:..\..\..\u8g2\u8g2\csrc/u8x8_d_uc1601.c ****   DISCLAIMED. IN NO EVENT SHALL THE COPYRIGHT HOLDER OR 
  25:..\..\..\u8g2\u8g2\csrc/u8x8_d_uc1601.c ****   CONTRIBUTORS BE LIABLE FOR ANY DIRECT, INDIRECT, INCIDENTAL, 
  26:..\..\..\u8g2\u8g2\csrc/u8x8_d_uc1601.c ****   SPECIAL, EXEMPLARY, OR CONSEQUENTIAL DAMAGES (INCLUDING, BUT 
  27:..\..\..\u8g2\u8g2\csrc/u8x8_d_uc1601.c ****   NOT LIMITED TO, PROCUREMENT OF SUBSTITUTE GOODS OR SERVICES; 
  28:..\..\..\u8g2\u8g2\csrc/u8x8_d_uc1601.c ****   LOSS OF USE, DATA, OR PROFITS; OR BUSINESS INTERRUPTION) HOWEVER 
  29:..\..\..\u8g2\u8g2\csrc/u8x8_d_uc1601.c ****   CAUSED AND ON ANY THEORY OF LIABILITY, WHETHER IN CONTRACT, 
  30:..\..\..\u8g2\u8g2\csrc/u8x8_d_uc1601.c ****   STRICT LIABILITY, OR TORT (INCLUDING NEGLIGENCE OR OTHERWISE) 
ARM GAS  C:\Users\jesse\AppData\Local\Temp\cccl74bg.s 			page 2


  31:..\..\..\u8g2\u8g2\csrc/u8x8_d_uc1601.c ****   ARISING IN ANY WAY OUT OF THE USE OF THIS SOFTWARE, EVEN IF 
  32:..\..\..\u8g2\u8g2\csrc/u8x8_d_uc1601.c ****   ADVISED OF THE POSSIBILITY OF SUCH DAMAGE.  
  33:..\..\..\u8g2\u8g2\csrc/u8x8_d_uc1601.c **** 
  34:..\..\..\u8g2\u8g2\csrc/u8x8_d_uc1601.c ****   This is for the uc1601s controller
  35:..\..\..\u8g2\u8g2\csrc/u8x8_d_uc1601.c ****   
  36:..\..\..\u8g2\u8g2\csrc/u8x8_d_uc1601.c ****   
  37:..\..\..\u8g2\u8g2\csrc/u8x8_d_uc1601.c **** */
  38:..\..\..\u8g2\u8g2\csrc/u8x8_d_uc1601.c **** #include "u8x8.h"
  39:..\..\..\u8g2\u8g2\csrc/u8x8_d_uc1601.c **** 
  40:..\..\..\u8g2\u8g2\csrc/u8x8_d_uc1601.c **** 
  41:..\..\..\u8g2\u8g2\csrc/u8x8_d_uc1601.c **** 
  42:..\..\..\u8g2\u8g2\csrc/u8x8_d_uc1601.c **** 
  43:..\..\..\u8g2\u8g2\csrc/u8x8_d_uc1601.c **** static const uint8_t u8x8_d_uc1601_128x32_powersave0_seq[] = {
  44:..\..\..\u8g2\u8g2\csrc/u8x8_d_uc1601.c ****   U8X8_START_TRANSFER(),             	/* enable chip, delay is part of the transfer start */
  45:..\..\..\u8g2\u8g2\csrc/u8x8_d_uc1601.c ****   U8X8_C(0x0af),		                /* display on */
  46:..\..\..\u8g2\u8g2\csrc/u8x8_d_uc1601.c ****   U8X8_END_TRANSFER(),             	/* disable chip */
  47:..\..\..\u8g2\u8g2\csrc/u8x8_d_uc1601.c ****   U8X8_END()             			/* end of sequence */
  48:..\..\..\u8g2\u8g2\csrc/u8x8_d_uc1601.c **** };
  49:..\..\..\u8g2\u8g2\csrc/u8x8_d_uc1601.c **** 
  50:..\..\..\u8g2\u8g2\csrc/u8x8_d_uc1601.c **** static const uint8_t u8x8_d_uc1601_128x32_powersave1_seq[] = {
  51:..\..\..\u8g2\u8g2\csrc/u8x8_d_uc1601.c ****   U8X8_START_TRANSFER(),             	/* enable chip, delay is part of the transfer start */
  52:..\..\..\u8g2\u8g2\csrc/u8x8_d_uc1601.c ****   U8X8_C(0x0ae),		                /* display off */
  53:..\..\..\u8g2\u8g2\csrc/u8x8_d_uc1601.c ****   U8X8_END_TRANSFER(),             	/* disable chip */
  54:..\..\..\u8g2\u8g2\csrc/u8x8_d_uc1601.c ****   U8X8_END()             			/* end of sequence */
  55:..\..\..\u8g2\u8g2\csrc/u8x8_d_uc1601.c **** };
  56:..\..\..\u8g2\u8g2\csrc/u8x8_d_uc1601.c **** 
  57:..\..\..\u8g2\u8g2\csrc/u8x8_d_uc1601.c **** static const uint8_t u8x8_d_uc1601_128x32_flip0_seq[] = {
  58:..\..\..\u8g2\u8g2\csrc/u8x8_d_uc1601.c ****   U8X8_START_TRANSFER(),             	/* enable chip, delay is part of the transfer start */
  59:..\..\..\u8g2\u8g2\csrc/u8x8_d_uc1601.c ****   U8X8_C(0x0c4),				/* bit 1: MX, bit 2: MY */
  60:..\..\..\u8g2\u8g2\csrc/u8x8_d_uc1601.c ****   U8X8_C(0x060),		                /* set display start line to 32 */
  61:..\..\..\u8g2\u8g2\csrc/u8x8_d_uc1601.c ****   U8X8_END_TRANSFER(),             	/* disable chip */
  62:..\..\..\u8g2\u8g2\csrc/u8x8_d_uc1601.c ****   U8X8_END()             			/* end of sequence */
  63:..\..\..\u8g2\u8g2\csrc/u8x8_d_uc1601.c **** };
  64:..\..\..\u8g2\u8g2\csrc/u8x8_d_uc1601.c **** 
  65:..\..\..\u8g2\u8g2\csrc/u8x8_d_uc1601.c **** static const uint8_t u8x8_d_uc1601_128x32_flip1_seq[] = {
  66:..\..\..\u8g2\u8g2\csrc/u8x8_d_uc1601.c ****   U8X8_START_TRANSFER(),             	/* enable chip, delay is part of the transfer start */
  67:..\..\..\u8g2\u8g2\csrc/u8x8_d_uc1601.c ****   U8X8_C(0x0c2),				/* bit 1: MX, bit 2: MY */
  68:..\..\..\u8g2\u8g2\csrc/u8x8_d_uc1601.c ****   U8X8_C(0x040),		                /* set display start line to 0 */
  69:..\..\..\u8g2\u8g2\csrc/u8x8_d_uc1601.c ****   U8X8_END_TRANSFER(),             	/* disable chip */
  70:..\..\..\u8g2\u8g2\csrc/u8x8_d_uc1601.c ****   U8X8_END()             			/* end of sequence */
  71:..\..\..\u8g2\u8g2\csrc/u8x8_d_uc1601.c **** };
  72:..\..\..\u8g2\u8g2\csrc/u8x8_d_uc1601.c **** 
  73:..\..\..\u8g2\u8g2\csrc/u8x8_d_uc1601.c **** 
  74:..\..\..\u8g2\u8g2\csrc/u8x8_d_uc1601.c **** static const u8x8_display_info_t u8x8_uc1601_128x32_display_info =
  75:..\..\..\u8g2\u8g2\csrc/u8x8_d_uc1601.c **** {
  76:..\..\..\u8g2\u8g2\csrc/u8x8_d_uc1601.c ****   /* chip_enable_level = */ 0,
  77:..\..\..\u8g2\u8g2\csrc/u8x8_d_uc1601.c ****   /* chip_disable_level = */ 1,
  78:..\..\..\u8g2\u8g2\csrc/u8x8_d_uc1601.c ****   
  79:..\..\..\u8g2\u8g2\csrc/u8x8_d_uc1601.c ****   /* post_chip_enable_wait_ns = */ 1,	/* uc1601 datasheet, page 46 */
  80:..\..\..\u8g2\u8g2\csrc/u8x8_d_uc1601.c ****   /* pre_chip_disable_wait_ns = */ 5,	/* uc1601 datasheet, page 46 */
  81:..\..\..\u8g2\u8g2\csrc/u8x8_d_uc1601.c ****   /* reset_pulse_width_ms = */ 1, 
  82:..\..\..\u8g2\u8g2\csrc/u8x8_d_uc1601.c ****   /* post_reset_wait_ms = */ 6, 
  83:..\..\..\u8g2\u8g2\csrc/u8x8_d_uc1601.c ****   /* sda_setup_time_ns = */ 12,		/* uc1601 datasheet, page 44 */
  84:..\..\..\u8g2\u8g2\csrc/u8x8_d_uc1601.c ****   /* sck_pulse_width_ns = */ 15,	/* uc1601 datasheet, page 44 */
  85:..\..\..\u8g2\u8g2\csrc/u8x8_d_uc1601.c ****   /* sck_clock_hz = */ 2000000UL,	/* */
  86:..\..\..\u8g2\u8g2\csrc/u8x8_d_uc1601.c ****   /* spi_mode = */ 0,		/* active high, rising edge */
  87:..\..\..\u8g2\u8g2\csrc/u8x8_d_uc1601.c ****   /* i2c_bus_clock_100kHz = */ 1,
ARM GAS  C:\Users\jesse\AppData\Local\Temp\cccl74bg.s 			page 3


  88:..\..\..\u8g2\u8g2\csrc/u8x8_d_uc1601.c ****   /* data_setup_time_ns = */ 60,	/* uc1601 datasheet, page 43 */
  89:..\..\..\u8g2\u8g2\csrc/u8x8_d_uc1601.c ****   /* write_pulse_width_ns = */ 80,	/* uc1601 datasheet, page 43 */
  90:..\..\..\u8g2\u8g2\csrc/u8x8_d_uc1601.c ****   /* tile_width = */ 16,		
  91:..\..\..\u8g2\u8g2\csrc/u8x8_d_uc1601.c ****   /* tile_hight = */ 4,
  92:..\..\..\u8g2\u8g2\csrc/u8x8_d_uc1601.c ****   /* default_x_offset = */ 0,
  93:..\..\..\u8g2\u8g2\csrc/u8x8_d_uc1601.c ****   /* flipmode_x_offset = */ 4,
  94:..\..\..\u8g2\u8g2\csrc/u8x8_d_uc1601.c ****   /* pixel_width = */ 128,
  95:..\..\..\u8g2\u8g2\csrc/u8x8_d_uc1601.c ****   /* pixel_height = */ 32
  96:..\..\..\u8g2\u8g2\csrc/u8x8_d_uc1601.c **** };
  97:..\..\..\u8g2\u8g2\csrc/u8x8_d_uc1601.c **** 
  98:..\..\..\u8g2\u8g2\csrc/u8x8_d_uc1601.c **** static const uint8_t u8x8_d_uc1601_128x32_init_seq[] = {
  99:..\..\..\u8g2\u8g2\csrc/u8x8_d_uc1601.c ****     
 100:..\..\..\u8g2\u8g2\csrc/u8x8_d_uc1601.c ****   U8X8_START_TRANSFER(),             	/* enable chip, delay is part of the transfer start */
 101:..\..\..\u8g2\u8g2\csrc/u8x8_d_uc1601.c ****   
 102:..\..\..\u8g2\u8g2\csrc/u8x8_d_uc1601.c ****   U8X8_C(0x0e2),            			/* soft reset */
 103:..\..\..\u8g2\u8g2\csrc/u8x8_d_uc1601.c ****   U8X8_C(0x0eb),            			/* LCD Bias: 0xe8: 6, 0xe9: 7, 0xea: 8, 0xeb: 9 */
 104:..\..\..\u8g2\u8g2\csrc/u8x8_d_uc1601.c ****   //U8X8_C(0x023),            			/* 0x020...0x023 only for UC1601, not for UC1601s */
 105:..\..\..\u8g2\u8g2\csrc/u8x8_d_uc1601.c **** 	
 106:..\..\..\u8g2\u8g2\csrc/u8x8_d_uc1601.c **** 
 107:..\..\..\u8g2\u8g2\csrc/u8x8_d_uc1601.c ****   //U8X8_C(0x02e),            			/* LCD Load + Internal Charge Pump (default: 0x2e) */
 108:..\..\..\u8g2\u8g2\csrc/u8x8_d_uc1601.c ****   U8X8_C(0x024),		                /* Temperature Compenstation, default: 0x24 */
 109:..\..\..\u8g2\u8g2\csrc/u8x8_d_uc1601.c ****   U8X8_C(0x089),		                /* RAM address ctrl, default: 0x89 */
 110:..\..\..\u8g2\u8g2\csrc/u8x8_d_uc1601.c ****   U8X8_C(0x0c4),		                /* RAM mapping ctrl */
 111:..\..\..\u8g2\u8g2\csrc/u8x8_d_uc1601.c ****   U8X8_C(0x0a0),		                /* Frame Rate, 0x0a0 or 0x0a1 */
 112:..\..\..\u8g2\u8g2\csrc/u8x8_d_uc1601.c ****   U8X8_CA(0x081, 0x0df),		/* set contrast */
 113:..\..\..\u8g2\u8g2\csrc/u8x8_d_uc1601.c ****   U8X8_C(0x02e),            			/* LCD Load + Internal Charge Pump (default: 0x2e) */	
 114:..\..\..\u8g2\u8g2\csrc/u8x8_d_uc1601.c ****   U8X8_C(0x060),		                /* set display start line to 32 */
 115:..\..\..\u8g2\u8g2\csrc/u8x8_d_uc1601.c ****   
 116:..\..\..\u8g2\u8g2\csrc/u8x8_d_uc1601.c ****   U8X8_C(0x0a6),		                /* normal display */
 117:..\..\..\u8g2\u8g2\csrc/u8x8_d_uc1601.c ****    
 118:..\..\..\u8g2\u8g2\csrc/u8x8_d_uc1601.c ****   U8X8_END_TRANSFER(),             	/* disable chip */
 119:..\..\..\u8g2\u8g2\csrc/u8x8_d_uc1601.c ****   U8X8_END()             			/* end of sequence */
 120:..\..\..\u8g2\u8g2\csrc/u8x8_d_uc1601.c **** };
 121:..\..\..\u8g2\u8g2\csrc/u8x8_d_uc1601.c **** 
 122:..\..\..\u8g2\u8g2\csrc/u8x8_d_uc1601.c **** uint8_t u8x8_d_uc1601_128x32(u8x8_t *u8x8, uint8_t msg, uint8_t arg_int, void *arg_ptr)
 123:..\..\..\u8g2\u8g2\csrc/u8x8_d_uc1601.c **** {
  28              		.loc 1 123 0
  29              		.cfi_startproc
  30              		@ args = 0, pretend = 0, frame = 0
  31              		@ frame_needed = 0, uses_anonymous_args = 0
  32              	.LVL0:
 124:..\..\..\u8g2\u8g2\csrc/u8x8_d_uc1601.c ****   uint8_t x, c;
 125:..\..\..\u8g2\u8g2\csrc/u8x8_d_uc1601.c ****   uint8_t *ptr;
 126:..\..\..\u8g2\u8g2\csrc/u8x8_d_uc1601.c ****   switch(msg)
  33              		.loc 1 126 0
  34 0000 0939     		subs	r1, r1, #9
  35              	.LVL1:
 123:..\..\..\u8g2\u8g2\csrc/u8x8_d_uc1601.c ****   uint8_t x, c;
  36              		.loc 1 123 0
  37 0002 F8B5     		push	{r3, r4, r5, r6, r7, lr}
  38              		.cfi_def_cfa_offset 24
  39              		.cfi_offset 3, -24
  40              		.cfi_offset 4, -20
  41              		.cfi_offset 5, -16
  42              		.cfi_offset 6, -12
  43              		.cfi_offset 7, -8
  44              		.cfi_offset 14, -4
ARM GAS  C:\Users\jesse\AppData\Local\Temp\cccl74bg.s 			page 4


 123:..\..\..\u8g2\u8g2\csrc/u8x8_d_uc1601.c ****   uint8_t x, c;
  45              		.loc 1 123 0
  46 0004 0446     		mov	r4, r0
  47 0006 1546     		mov	r5, r2
  48 0008 1F46     		mov	r7, r3
  49              		.loc 1 126 0
  50 000a 0629     		cmp	r1, #6
  51 000c 5BD8     		bhi	.L13
  52 000e DFE801F0 		tbb	[pc, r1]
  53              	.LVL2:
  54              	.L4:
  55 0012 04       		.byte	(.L3-.L4)/2
  56 0013 08       		.byte	(.L5-.L4)/2
  57 0014 0C       		.byte	(.L6-.L4)/2
  58 0015 5A       		.byte	(.L13-.L4)/2
  59 0016 14       		.byte	(.L7-.L4)/2
  60 0017 23       		.byte	(.L8-.L4)/2
  61 0018 32       		.byte	(.L9-.L4)/2
  62 0019 00       		.p2align 1
  63              	.L3:
 127:..\..\..\u8g2\u8g2\csrc/u8x8_d_uc1601.c ****   {
 128:..\..\..\u8g2\u8g2\csrc/u8x8_d_uc1601.c ****     case U8X8_MSG_DISPLAY_SETUP_MEMORY:
 129:..\..\..\u8g2\u8g2\csrc/u8x8_d_uc1601.c ****       u8x8_d_helper_display_setup_memory(u8x8, &u8x8_uc1601_128x32_display_info);
  64              		.loc 1 129 0
  65 001a 2C49     		ldr	r1, .L20
  66 001c FFF7FEFF 		bl	u8x8_d_helper_display_setup_memory
  67              	.LVL3:
  68 0020 27E0     		b	.L15
  69              	.LVL4:
  70              	.L5:
 130:..\..\..\u8g2\u8g2\csrc/u8x8_d_uc1601.c ****       break;
 131:..\..\..\u8g2\u8g2\csrc/u8x8_d_uc1601.c ****     case U8X8_MSG_DISPLAY_INIT:
 132:..\..\..\u8g2\u8g2\csrc/u8x8_d_uc1601.c ****       u8x8_d_helper_display_init(u8x8);
  71              		.loc 1 132 0
  72 0022 FFF7FEFF 		bl	u8x8_d_helper_display_init
  73              	.LVL5:
 133:..\..\..\u8g2\u8g2\csrc/u8x8_d_uc1601.c ****       u8x8_cad_SendSequence(u8x8, u8x8_d_uc1601_128x32_init_seq);
  74              		.loc 1 133 0
  75 0026 2A49     		ldr	r1, .L20+4
  76 0028 03E0     		b	.L18
  77              	.LVL6:
  78              	.L6:
 134:..\..\..\u8g2\u8g2\csrc/u8x8_d_uc1601.c ****       break;
 135:..\..\..\u8g2\u8g2\csrc/u8x8_d_uc1601.c ****     case U8X8_MSG_DISPLAY_SET_POWER_SAVE:
 136:..\..\..\u8g2\u8g2\csrc/u8x8_d_uc1601.c ****       if ( arg_int == 0 )
  79              		.loc 1 136 0
  80 002a 0AB9     		cbnz	r2, .L10
 137:..\..\..\u8g2\u8g2\csrc/u8x8_d_uc1601.c **** 	u8x8_cad_SendSequence(u8x8, u8x8_d_uc1601_128x32_powersave0_seq);
  81              		.loc 1 137 0
  82 002c 2949     		ldr	r1, .L20+8
  83 002e 00E0     		b	.L18
  84              	.L10:
 138:..\..\..\u8g2\u8g2\csrc/u8x8_d_uc1601.c ****       else
 139:..\..\..\u8g2\u8g2\csrc/u8x8_d_uc1601.c **** 	u8x8_cad_SendSequence(u8x8, u8x8_d_uc1601_128x32_powersave1_seq);
  85              		.loc 1 139 0
  86 0030 2949     		ldr	r1, .L20+12
  87              	.LVL7:
ARM GAS  C:\Users\jesse\AppData\Local\Temp\cccl74bg.s 			page 5


  88              	.L18:
  89 0032 2046     		mov	r0, r4
  90 0034 FFF7FEFF 		bl	u8x8_cad_SendSequence
  91              	.LVL8:
  92 0038 1BE0     		b	.L15
  93              	.LVL9:
  94              	.L7:
 140:..\..\..\u8g2\u8g2\csrc/u8x8_d_uc1601.c ****       break;
 141:..\..\..\u8g2\u8g2\csrc/u8x8_d_uc1601.c ****     case U8X8_MSG_DISPLAY_SET_FLIP_MODE:
 142:..\..\..\u8g2\u8g2\csrc/u8x8_d_uc1601.c ****       if ( arg_int == 0 )
  95              		.loc 1 142 0
  96 003a 2AB9     		cbnz	r2, .L11
 143:..\..\..\u8g2\u8g2\csrc/u8x8_d_uc1601.c ****       {
 144:..\..\..\u8g2\u8g2\csrc/u8x8_d_uc1601.c **** 	u8x8_cad_SendSequence(u8x8, u8x8_d_uc1601_128x32_flip0_seq);
  97              		.loc 1 144 0
  98 003c 2749     		ldr	r1, .L20+16
  99 003e FFF7FEFF 		bl	u8x8_cad_SendSequence
 100              	.LVL10:
 145:..\..\..\u8g2\u8g2\csrc/u8x8_d_uc1601.c **** 	u8x8->x_offset = u8x8->display_info->default_x_offset;
 101              		.loc 1 145 0
 102 0042 2368     		ldr	r3, [r4]
 103 0044 9B7C     		ldrb	r3, [r3, #18]	@ zero_extendqisi2
 104 0046 04E0     		b	.L17
 105              	.LVL11:
 106              	.L11:
 146:..\..\..\u8g2\u8g2\csrc/u8x8_d_uc1601.c ****       }
 147:..\..\..\u8g2\u8g2\csrc/u8x8_d_uc1601.c ****       else
 148:..\..\..\u8g2\u8g2\csrc/u8x8_d_uc1601.c ****       {
 149:..\..\..\u8g2\u8g2\csrc/u8x8_d_uc1601.c **** 	u8x8_cad_SendSequence(u8x8, u8x8_d_uc1601_128x32_flip1_seq);
 107              		.loc 1 149 0
 108 0048 2549     		ldr	r1, .L20+20
 109 004a FFF7FEFF 		bl	u8x8_cad_SendSequence
 110              	.LVL12:
 150:..\..\..\u8g2\u8g2\csrc/u8x8_d_uc1601.c **** 	u8x8->x_offset = u8x8->display_info->flipmode_x_offset;
 111              		.loc 1 150 0
 112 004e 2368     		ldr	r3, [r4]
 113 0050 DB7C     		ldrb	r3, [r3, #19]	@ zero_extendqisi2
 114              	.L17:
 115 0052 84F82230 		strb	r3, [r4, #34]
 116 0056 0CE0     		b	.L15
 117              	.LVL13:
 118              	.L8:
 151:..\..\..\u8g2\u8g2\csrc/u8x8_d_uc1601.c ****       }	
 152:..\..\..\u8g2\u8g2\csrc/u8x8_d_uc1601.c ****       break;
 153:..\..\..\u8g2\u8g2\csrc/u8x8_d_uc1601.c **** #ifdef U8X8_WITH_SET_CONTRAST
 154:..\..\..\u8g2\u8g2\csrc/u8x8_d_uc1601.c ****     case U8X8_MSG_DISPLAY_SET_CONTRAST:
 155:..\..\..\u8g2\u8g2\csrc/u8x8_d_uc1601.c ****       u8x8_cad_StartTransfer(u8x8);
 119              		.loc 1 155 0
 120 0058 FFF7FEFF 		bl	u8x8_cad_StartTransfer
 121              	.LVL14:
 156:..\..\..\u8g2\u8g2\csrc/u8x8_d_uc1601.c ****       u8x8_cad_SendCmd(u8x8, 0x081 );
 122              		.loc 1 156 0
 123 005c 8121     		movs	r1, #129
 124 005e 2046     		mov	r0, r4
 125 0060 FFF7FEFF 		bl	u8x8_cad_SendCmd
 126              	.LVL15:
 157:..\..\..\u8g2\u8g2\csrc/u8x8_d_uc1601.c ****       u8x8_cad_SendArg(u8x8, arg_int );	/* uc1601 has range from 0 to 255 */
ARM GAS  C:\Users\jesse\AppData\Local\Temp\cccl74bg.s 			page 6


 127              		.loc 1 157 0
 128 0064 2946     		mov	r1, r5
 129 0066 2046     		mov	r0, r4
 130 0068 FFF7FEFF 		bl	u8x8_cad_SendArg
 131              	.LVL16:
 132              	.L16:
 158:..\..\..\u8g2\u8g2\csrc/u8x8_d_uc1601.c ****       u8x8_cad_EndTransfer(u8x8);
 133              		.loc 1 158 0
 134 006c 2046     		mov	r0, r4
 135 006e FFF7FEFF 		bl	u8x8_cad_EndTransfer
 136              	.LVL17:
 137              	.L15:
 159:..\..\..\u8g2\u8g2\csrc/u8x8_d_uc1601.c ****       break;
 160:..\..\..\u8g2\u8g2\csrc/u8x8_d_uc1601.c **** #endif
 161:..\..\..\u8g2\u8g2\csrc/u8x8_d_uc1601.c ****     case U8X8_MSG_DISPLAY_DRAW_TILE:
 162:..\..\..\u8g2\u8g2\csrc/u8x8_d_uc1601.c ****       u8x8_cad_StartTransfer(u8x8);
 163:..\..\..\u8g2\u8g2\csrc/u8x8_d_uc1601.c ****     
 164:..\..\..\u8g2\u8g2\csrc/u8x8_d_uc1601.c ****       x = ((u8x8_tile_t *)arg_ptr)->x_pos;
 165:..\..\..\u8g2\u8g2\csrc/u8x8_d_uc1601.c ****       x *= 8;
 166:..\..\..\u8g2\u8g2\csrc/u8x8_d_uc1601.c ****       x += u8x8->x_offset;
 167:..\..\..\u8g2\u8g2\csrc/u8x8_d_uc1601.c ****       u8x8_cad_SendCmd(u8x8, 0x010 | (x>>4) );
 168:..\..\..\u8g2\u8g2\csrc/u8x8_d_uc1601.c ****       u8x8_cad_SendCmd(u8x8, 0x000 | ((x&15)));
 169:..\..\..\u8g2\u8g2\csrc/u8x8_d_uc1601.c ****       u8x8_cad_SendCmd(u8x8, 0x0b0 | (((u8x8_tile_t *)arg_ptr)->y_pos));
 170:..\..\..\u8g2\u8g2\csrc/u8x8_d_uc1601.c ****     
 171:..\..\..\u8g2\u8g2\csrc/u8x8_d_uc1601.c ****       c = ((u8x8_tile_t *)arg_ptr)->cnt;
 172:..\..\..\u8g2\u8g2\csrc/u8x8_d_uc1601.c ****       c *= 8;
 173:..\..\..\u8g2\u8g2\csrc/u8x8_d_uc1601.c ****       ptr = ((u8x8_tile_t *)arg_ptr)->tile_ptr;
 174:..\..\..\u8g2\u8g2\csrc/u8x8_d_uc1601.c ****       do
 175:..\..\..\u8g2\u8g2\csrc/u8x8_d_uc1601.c ****       {
 176:..\..\..\u8g2\u8g2\csrc/u8x8_d_uc1601.c **** 	u8x8_cad_SendData(u8x8, c, ptr);	/* note: SendData can not handle more than 255 bytes */
 177:..\..\..\u8g2\u8g2\csrc/u8x8_d_uc1601.c **** 	arg_int--;
 178:..\..\..\u8g2\u8g2\csrc/u8x8_d_uc1601.c ****       } while( arg_int > 0 );
 179:..\..\..\u8g2\u8g2\csrc/u8x8_d_uc1601.c ****       
 180:..\..\..\u8g2\u8g2\csrc/u8x8_d_uc1601.c ****       u8x8_cad_EndTransfer(u8x8);
 181:..\..\..\u8g2\u8g2\csrc/u8x8_d_uc1601.c ****       break;
 182:..\..\..\u8g2\u8g2\csrc/u8x8_d_uc1601.c ****     default:
 183:..\..\..\u8g2\u8g2\csrc/u8x8_d_uc1601.c ****       return 0;
 184:..\..\..\u8g2\u8g2\csrc/u8x8_d_uc1601.c ****   }
 185:..\..\..\u8g2\u8g2\csrc/u8x8_d_uc1601.c ****   return 1;
 138              		.loc 1 185 0
 139 0072 0120     		movs	r0, #1
 159:..\..\..\u8g2\u8g2\csrc/u8x8_d_uc1601.c ****       break;
 140              		.loc 1 159 0
 141 0074 F8BD     		pop	{r3, r4, r5, r6, r7, pc}
 142              	.LVL18:
 143              	.L9:
 162:..\..\..\u8g2\u8g2\csrc/u8x8_d_uc1601.c ****     
 144              		.loc 1 162 0
 145 0076 FFF7FEFF 		bl	u8x8_cad_StartTransfer
 146              	.LVL19:
 166:..\..\..\u8g2\u8g2\csrc/u8x8_d_uc1601.c ****       u8x8_cad_SendCmd(u8x8, 0x010 | (x>>4) );
 147              		.loc 1 166 0
 148 007a 94F82230 		ldrb	r3, [r4, #34]	@ zero_extendqisi2
 164:..\..\..\u8g2\u8g2\csrc/u8x8_d_uc1601.c ****       x *= 8;
 149              		.loc 1 164 0
 150 007e 7E79     		ldrb	r6, [r7, #5]	@ zero_extendqisi2
 151              	.LVL20:
ARM GAS  C:\Users\jesse\AppData\Local\Temp\cccl74bg.s 			page 7


 167:..\..\..\u8g2\u8g2\csrc/u8x8_d_uc1601.c ****       u8x8_cad_SendCmd(u8x8, 0x000 | ((x&15)));
 152              		.loc 1 167 0
 153 0080 2046     		mov	r0, r4
 166:..\..\..\u8g2\u8g2\csrc/u8x8_d_uc1601.c ****       u8x8_cad_SendCmd(u8x8, 0x010 | (x>>4) );
 154              		.loc 1 166 0
 155 0082 03EBC606 		add	r6, r3, r6, lsl #3
 156              	.LVL21:
 157 0086 06F0FF06 		and	r6, r6, #255
 158              	.LVL22:
 167:..\..\..\u8g2\u8g2\csrc/u8x8_d_uc1601.c ****       u8x8_cad_SendCmd(u8x8, 0x000 | ((x&15)));
 159              		.loc 1 167 0
 160 008a 3109     		lsrs	r1, r6, #4
 161 008c 41F01001 		orr	r1, r1, #16
 162 0090 FFF7FEFF 		bl	u8x8_cad_SendCmd
 163              	.LVL23:
 168:..\..\..\u8g2\u8g2\csrc/u8x8_d_uc1601.c ****       u8x8_cad_SendCmd(u8x8, 0x0b0 | (((u8x8_tile_t *)arg_ptr)->y_pos));
 164              		.loc 1 168 0
 165 0094 06F00F01 		and	r1, r6, #15
 166 0098 2046     		mov	r0, r4
 167 009a FFF7FEFF 		bl	u8x8_cad_SendCmd
 168              	.LVL24:
 169:..\..\..\u8g2\u8g2\csrc/u8x8_d_uc1601.c ****     
 169              		.loc 1 169 0
 170 009e B979     		ldrb	r1, [r7, #6]	@ zero_extendqisi2
 171 00a0 2046     		mov	r0, r4
 172 00a2 41F0B001 		orr	r1, r1, #176
 173 00a6 FFF7FEFF 		bl	u8x8_cad_SendCmd
 174              	.LVL25:
 171:..\..\..\u8g2\u8g2\csrc/u8x8_d_uc1601.c ****       c *= 8;
 175              		.loc 1 171 0
 176 00aa 3E79     		ldrb	r6, [r7, #4]	@ zero_extendqisi2
 177              	.LVL26:
 173:..\..\..\u8g2\u8g2\csrc/u8x8_d_uc1601.c ****       do
 178              		.loc 1 173 0
 179 00ac 3F68     		ldr	r7, [r7]
 180              	.LVL27:
 172:..\..\..\u8g2\u8g2\csrc/u8x8_d_uc1601.c ****       ptr = ((u8x8_tile_t *)arg_ptr)->tile_ptr;
 181              		.loc 1 172 0
 182 00ae F600     		lsls	r6, r6, #3
 183              	.LVL28:
 184 00b0 F6B2     		uxtb	r6, r6
 185              	.LVL29:
 186              	.L12:
 176:..\..\..\u8g2\u8g2\csrc/u8x8_d_uc1601.c **** 	arg_int--;
 187              		.loc 1 176 0 discriminator 1
 188 00b2 3A46     		mov	r2, r7
 189 00b4 3146     		mov	r1, r6
 190 00b6 2046     		mov	r0, r4
 177:..\..\..\u8g2\u8g2\csrc/u8x8_d_uc1601.c ****       } while( arg_int > 0 );
 191              		.loc 1 177 0 discriminator 1
 192 00b8 013D     		subs	r5, r5, #1
 193              	.LVL30:
 176:..\..\..\u8g2\u8g2\csrc/u8x8_d_uc1601.c **** 	arg_int--;
 194              		.loc 1 176 0 discriminator 1
 195 00ba FFF7FEFF 		bl	u8x8_cad_SendData
 196              	.LVL31:
 178:..\..\..\u8g2\u8g2\csrc/u8x8_d_uc1601.c ****       
ARM GAS  C:\Users\jesse\AppData\Local\Temp\cccl74bg.s 			page 8


 197              		.loc 1 178 0 discriminator 1
 198 00be 15F0FF05 		ands	r5, r5, #255
 199              	.LVL32:
 200 00c2 F6D1     		bne	.L12
 201 00c4 D2E7     		b	.L16
 202              	.LVL33:
 203              	.L13:
 183:..\..\..\u8g2\u8g2\csrc/u8x8_d_uc1601.c ****   }
 204              		.loc 1 183 0
 205 00c6 0020     		movs	r0, #0
 206              	.LVL34:
 186:..\..\..\u8g2\u8g2\csrc/u8x8_d_uc1601.c **** }
 207              		.loc 1 186 0
 208 00c8 F8BD     		pop	{r3, r4, r5, r6, r7, pc}
 209              	.LVL35:
 210              	.L21:
 211 00ca 00BF     		.align	2
 212              	.L20:
 213 00cc 00000000 		.word	.LANCHOR0
 214 00d0 18000000 		.word	.LANCHOR0+24
 215 00d4 31000000 		.word	.LANCHOR0+49
 216 00d8 36000000 		.word	.LANCHOR0+54
 217 00dc 3B000000 		.word	.LANCHOR0+59
 218 00e0 42000000 		.word	.LANCHOR0+66
 219              		.cfi_endproc
 220              	.LFE0:
 221              		.size	u8x8_d_uc1601_128x32, .-u8x8_d_uc1601_128x32
 222              		.section	.text.u8x8_d_uc1601_128x64,"ax",%progbits
 223              		.align	1
 224              		.global	u8x8_d_uc1601_128x64
 225              		.thumb
 226              		.thumb_func
 227              		.type	u8x8_d_uc1601_128x64, %function
 228              	u8x8_d_uc1601_128x64:
 229              	.LFB1:
 187:..\..\..\u8g2\u8g2\csrc/u8x8_d_uc1601.c **** 
 188:..\..\..\u8g2\u8g2\csrc/u8x8_d_uc1601.c **** /* issue https://github.com/olikraus/u8g2/issues/1501 */
 189:..\..\..\u8g2\u8g2\csrc/u8x8_d_uc1601.c **** 
 190:..\..\..\u8g2\u8g2\csrc/u8x8_d_uc1601.c **** static const uint8_t u8x8_d_uc1601_128x64_init_seq[] = {
 191:..\..\..\u8g2\u8g2\csrc/u8x8_d_uc1601.c ****     
 192:..\..\..\u8g2\u8g2\csrc/u8x8_d_uc1601.c ****   U8X8_START_TRANSFER(),             	/* enable chip, delay is part of the transfer start */
 193:..\..\..\u8g2\u8g2\csrc/u8x8_d_uc1601.c ****   
 194:..\..\..\u8g2\u8g2\csrc/u8x8_d_uc1601.c ****   U8X8_C(0x0e2),            			/* soft reset */
 195:..\..\..\u8g2\u8g2\csrc/u8x8_d_uc1601.c ****   U8X8_C(0x0eb),            			/* LCD Bias: 0xe8: 6, 0xe9: 7, 0xea: 8, 0xeb: 9 */
 196:..\..\..\u8g2\u8g2\csrc/u8x8_d_uc1601.c ****   //U8X8_C(0x023),            			/* 0x020...0x023 only for UC1601, not for UC1601s */
 197:..\..\..\u8g2\u8g2\csrc/u8x8_d_uc1601.c **** 	
 198:..\..\..\u8g2\u8g2\csrc/u8x8_d_uc1601.c **** 
 199:..\..\..\u8g2\u8g2\csrc/u8x8_d_uc1601.c ****   //U8X8_C(0x02e),            			/* LCD Load + Internal Charge Pump (default: 0x2e) */
 200:..\..\..\u8g2\u8g2\csrc/u8x8_d_uc1601.c ****   U8X8_C(0x024),		                /* Temperature Compenstation, default: 0x24 */
 201:..\..\..\u8g2\u8g2\csrc/u8x8_d_uc1601.c ****   U8X8_C(0x089),		                /* RAM address ctrl, default: 0x89 */
 202:..\..\..\u8g2\u8g2\csrc/u8x8_d_uc1601.c ****   U8X8_C(0x0c4),		                /* RAM mapping ctrl */
 203:..\..\..\u8g2\u8g2\csrc/u8x8_d_uc1601.c ****   U8X8_C(0x0a0),		                /* Frame Rate, 0x0a0 or 0x0a1 */
 204:..\..\..\u8g2\u8g2\csrc/u8x8_d_uc1601.c ****   U8X8_CA(0x081, 0x0df),		/* set contrast */
 205:..\..\..\u8g2\u8g2\csrc/u8x8_d_uc1601.c ****   U8X8_C(0x02e),            			/* LCD Load + Internal Charge Pump (default: 0x2e) */	
 206:..\..\..\u8g2\u8g2\csrc/u8x8_d_uc1601.c ****   U8X8_C(0x040),		                /* set display start: See Issue 1501 */
 207:..\..\..\u8g2\u8g2\csrc/u8x8_d_uc1601.c ****   
 208:..\..\..\u8g2\u8g2\csrc/u8x8_d_uc1601.c ****   U8X8_C(0x0a6),		                /* normal display */
ARM GAS  C:\Users\jesse\AppData\Local\Temp\cccl74bg.s 			page 9


 209:..\..\..\u8g2\u8g2\csrc/u8x8_d_uc1601.c ****    
 210:..\..\..\u8g2\u8g2\csrc/u8x8_d_uc1601.c ****   U8X8_END_TRANSFER(),             	/* disable chip */
 211:..\..\..\u8g2\u8g2\csrc/u8x8_d_uc1601.c ****   U8X8_END()             			/* end of sequence */
 212:..\..\..\u8g2\u8g2\csrc/u8x8_d_uc1601.c **** };
 213:..\..\..\u8g2\u8g2\csrc/u8x8_d_uc1601.c **** 
 214:..\..\..\u8g2\u8g2\csrc/u8x8_d_uc1601.c **** static const u8x8_display_info_t u8x8_uc1601_128x64_display_info =
 215:..\..\..\u8g2\u8g2\csrc/u8x8_d_uc1601.c **** {
 216:..\..\..\u8g2\u8g2\csrc/u8x8_d_uc1601.c ****   /* chip_enable_level = */ 0,
 217:..\..\..\u8g2\u8g2\csrc/u8x8_d_uc1601.c ****   /* chip_disable_level = */ 1,
 218:..\..\..\u8g2\u8g2\csrc/u8x8_d_uc1601.c ****   
 219:..\..\..\u8g2\u8g2\csrc/u8x8_d_uc1601.c ****   /* post_chip_enable_wait_ns = */ 1,	/* uc1601 datasheet, page 46 */
 220:..\..\..\u8g2\u8g2\csrc/u8x8_d_uc1601.c ****   /* pre_chip_disable_wait_ns = */ 5,	/* uc1601 datasheet, page 46 */
 221:..\..\..\u8g2\u8g2\csrc/u8x8_d_uc1601.c ****   /* reset_pulse_width_ms = */ 1, 
 222:..\..\..\u8g2\u8g2\csrc/u8x8_d_uc1601.c ****   /* post_reset_wait_ms = */ 6, 
 223:..\..\..\u8g2\u8g2\csrc/u8x8_d_uc1601.c ****   /* sda_setup_time_ns = */ 12,		/* uc1601 datasheet, page 44 */
 224:..\..\..\u8g2\u8g2\csrc/u8x8_d_uc1601.c ****   /* sck_pulse_width_ns = */ 15,	/* uc1601 datasheet, page 44 */
 225:..\..\..\u8g2\u8g2\csrc/u8x8_d_uc1601.c ****   /* sck_clock_hz = */ 2000000UL,	/* */
 226:..\..\..\u8g2\u8g2\csrc/u8x8_d_uc1601.c ****   /* spi_mode = */ 0,		/* active high, rising edge */
 227:..\..\..\u8g2\u8g2\csrc/u8x8_d_uc1601.c ****   /* i2c_bus_clock_100kHz = */ 1,
 228:..\..\..\u8g2\u8g2\csrc/u8x8_d_uc1601.c ****   /* data_setup_time_ns = */ 60,	/* uc1601 datasheet, page 43 */
 229:..\..\..\u8g2\u8g2\csrc/u8x8_d_uc1601.c ****   /* write_pulse_width_ns = */ 80,	/* uc1601 datasheet, page 43 */
 230:..\..\..\u8g2\u8g2\csrc/u8x8_d_uc1601.c ****   /* tile_width = */ 16,		
 231:..\..\..\u8g2\u8g2\csrc/u8x8_d_uc1601.c ****   /* tile_hight = */ 8,
 232:..\..\..\u8g2\u8g2\csrc/u8x8_d_uc1601.c ****   /* default_x_offset = */ 2,
 233:..\..\..\u8g2\u8g2\csrc/u8x8_d_uc1601.c ****   /* flipmode_x_offset = */ 4,  /* IS THIS CORRECT? */
 234:..\..\..\u8g2\u8g2\csrc/u8x8_d_uc1601.c ****   /* pixel_width = */ 128,
 235:..\..\..\u8g2\u8g2\csrc/u8x8_d_uc1601.c ****   /* pixel_height = */ 64
 236:..\..\..\u8g2\u8g2\csrc/u8x8_d_uc1601.c **** };
 237:..\..\..\u8g2\u8g2\csrc/u8x8_d_uc1601.c **** 
 238:..\..\..\u8g2\u8g2\csrc/u8x8_d_uc1601.c **** uint8_t u8x8_d_uc1601_128x64(u8x8_t *u8x8, uint8_t msg, uint8_t arg_int, void *arg_ptr)
 239:..\..\..\u8g2\u8g2\csrc/u8x8_d_uc1601.c **** {
 230              		.loc 1 239 0
 231              		.cfi_startproc
 232              		@ args = 0, pretend = 0, frame = 0
 233              		@ frame_needed = 0, uses_anonymous_args = 0
 234              	.LVL36:
 240:..\..\..\u8g2\u8g2\csrc/u8x8_d_uc1601.c ****   uint8_t x, c;
 241:..\..\..\u8g2\u8g2\csrc/u8x8_d_uc1601.c ****   uint8_t *ptr;
 242:..\..\..\u8g2\u8g2\csrc/u8x8_d_uc1601.c ****   switch(msg)
 235              		.loc 1 242 0
 236 0000 0939     		subs	r1, r1, #9
 237              	.LVL37:
 239:..\..\..\u8g2\u8g2\csrc/u8x8_d_uc1601.c ****   uint8_t x, c;
 238              		.loc 1 239 0
 239 0002 F8B5     		push	{r3, r4, r5, r6, r7, lr}
 240              		.cfi_def_cfa_offset 24
 241              		.cfi_offset 3, -24
 242              		.cfi_offset 4, -20
 243              		.cfi_offset 5, -16
 244              		.cfi_offset 6, -12
 245              		.cfi_offset 7, -8
 246              		.cfi_offset 14, -4
 239:..\..\..\u8g2\u8g2\csrc/u8x8_d_uc1601.c ****   uint8_t x, c;
 247              		.loc 1 239 0
 248 0004 0446     		mov	r4, r0
 249 0006 1546     		mov	r5, r2
 250 0008 1F46     		mov	r7, r3
ARM GAS  C:\Users\jesse\AppData\Local\Temp\cccl74bg.s 			page 10


 251              		.loc 1 242 0
 252 000a 0629     		cmp	r1, #6
 253 000c 5BD8     		bhi	.L34
 254 000e DFE801F0 		tbb	[pc, r1]
 255              	.LVL38:
 256              	.L25:
 257 0012 04       		.byte	(.L24-.L25)/2
 258 0013 08       		.byte	(.L26-.L25)/2
 259 0014 0C       		.byte	(.L27-.L25)/2
 260 0015 5A       		.byte	(.L34-.L25)/2
 261 0016 14       		.byte	(.L28-.L25)/2
 262 0017 23       		.byte	(.L29-.L25)/2
 263 0018 32       		.byte	(.L30-.L25)/2
 264 0019 00       		.p2align 1
 265              	.L24:
 243:..\..\..\u8g2\u8g2\csrc/u8x8_d_uc1601.c ****   {
 244:..\..\..\u8g2\u8g2\csrc/u8x8_d_uc1601.c ****     case U8X8_MSG_DISPLAY_SETUP_MEMORY:
 245:..\..\..\u8g2\u8g2\csrc/u8x8_d_uc1601.c ****       u8x8_d_helper_display_setup_memory(u8x8, &u8x8_uc1601_128x64_display_info);
 266              		.loc 1 245 0
 267 001a 2C49     		ldr	r1, .L40
 268 001c FFF7FEFF 		bl	u8x8_d_helper_display_setup_memory
 269              	.LVL39:
 270 0020 27E0     		b	.L36
 271              	.LVL40:
 272              	.L26:
 246:..\..\..\u8g2\u8g2\csrc/u8x8_d_uc1601.c ****       break;
 247:..\..\..\u8g2\u8g2\csrc/u8x8_d_uc1601.c ****     case U8X8_MSG_DISPLAY_INIT:
 248:..\..\..\u8g2\u8g2\csrc/u8x8_d_uc1601.c ****       u8x8_d_helper_display_init(u8x8);
 273              		.loc 1 248 0
 274 0022 FFF7FEFF 		bl	u8x8_d_helper_display_init
 275              	.LVL41:
 249:..\..\..\u8g2\u8g2\csrc/u8x8_d_uc1601.c ****       u8x8_cad_SendSequence(u8x8, u8x8_d_uc1601_128x64_init_seq);
 276              		.loc 1 249 0
 277 0026 2A49     		ldr	r1, .L40+4
 278 0028 03E0     		b	.L39
 279              	.LVL42:
 280              	.L27:
 250:..\..\..\u8g2\u8g2\csrc/u8x8_d_uc1601.c ****       break;
 251:..\..\..\u8g2\u8g2\csrc/u8x8_d_uc1601.c ****     case U8X8_MSG_DISPLAY_SET_POWER_SAVE:
 252:..\..\..\u8g2\u8g2\csrc/u8x8_d_uc1601.c ****       if ( arg_int == 0 )
 281              		.loc 1 252 0
 282 002a 0AB9     		cbnz	r2, .L31
 253:..\..\..\u8g2\u8g2\csrc/u8x8_d_uc1601.c **** 	u8x8_cad_SendSequence(u8x8, u8x8_d_uc1601_128x32_powersave0_seq);
 283              		.loc 1 253 0
 284 002c 2949     		ldr	r1, .L40+8
 285 002e 00E0     		b	.L39
 286              	.L31:
 254:..\..\..\u8g2\u8g2\csrc/u8x8_d_uc1601.c ****       else
 255:..\..\..\u8g2\u8g2\csrc/u8x8_d_uc1601.c **** 	u8x8_cad_SendSequence(u8x8, u8x8_d_uc1601_128x32_powersave1_seq);
 287              		.loc 1 255 0
 288 0030 2949     		ldr	r1, .L40+12
 289              	.LVL43:
 290              	.L39:
 291 0032 2046     		mov	r0, r4
 292 0034 FFF7FEFF 		bl	u8x8_cad_SendSequence
 293              	.LVL44:
 294 0038 1BE0     		b	.L36
ARM GAS  C:\Users\jesse\AppData\Local\Temp\cccl74bg.s 			page 11


 295              	.LVL45:
 296              	.L28:
 256:..\..\..\u8g2\u8g2\csrc/u8x8_d_uc1601.c ****       break;
 257:..\..\..\u8g2\u8g2\csrc/u8x8_d_uc1601.c ****     case U8X8_MSG_DISPLAY_SET_FLIP_MODE:
 258:..\..\..\u8g2\u8g2\csrc/u8x8_d_uc1601.c ****       if ( arg_int == 0 )
 297              		.loc 1 258 0
 298 003a 2AB9     		cbnz	r2, .L32
 259:..\..\..\u8g2\u8g2\csrc/u8x8_d_uc1601.c ****       {
 260:..\..\..\u8g2\u8g2\csrc/u8x8_d_uc1601.c **** 	u8x8_cad_SendSequence(u8x8, u8x8_d_uc1601_128x32_flip0_seq);
 299              		.loc 1 260 0
 300 003c 2749     		ldr	r1, .L40+16
 301 003e FFF7FEFF 		bl	u8x8_cad_SendSequence
 302              	.LVL46:
 261:..\..\..\u8g2\u8g2\csrc/u8x8_d_uc1601.c **** 	u8x8->x_offset = u8x8->display_info->default_x_offset;
 303              		.loc 1 261 0
 304 0042 2368     		ldr	r3, [r4]
 305 0044 9B7C     		ldrb	r3, [r3, #18]	@ zero_extendqisi2
 306 0046 04E0     		b	.L38
 307              	.LVL47:
 308              	.L32:
 262:..\..\..\u8g2\u8g2\csrc/u8x8_d_uc1601.c ****       }
 263:..\..\..\u8g2\u8g2\csrc/u8x8_d_uc1601.c ****       else
 264:..\..\..\u8g2\u8g2\csrc/u8x8_d_uc1601.c ****       {
 265:..\..\..\u8g2\u8g2\csrc/u8x8_d_uc1601.c **** 	u8x8_cad_SendSequence(u8x8, u8x8_d_uc1601_128x32_flip1_seq);
 309              		.loc 1 265 0
 310 0048 2549     		ldr	r1, .L40+20
 311 004a FFF7FEFF 		bl	u8x8_cad_SendSequence
 312              	.LVL48:
 266:..\..\..\u8g2\u8g2\csrc/u8x8_d_uc1601.c **** 	u8x8->x_offset = u8x8->display_info->flipmode_x_offset;
 313              		.loc 1 266 0
 314 004e 2368     		ldr	r3, [r4]
 315 0050 DB7C     		ldrb	r3, [r3, #19]	@ zero_extendqisi2
 316              	.L38:
 317 0052 84F82230 		strb	r3, [r4, #34]
 318 0056 0CE0     		b	.L36
 319              	.LVL49:
 320              	.L29:
 267:..\..\..\u8g2\u8g2\csrc/u8x8_d_uc1601.c ****       }	
 268:..\..\..\u8g2\u8g2\csrc/u8x8_d_uc1601.c ****       break;
 269:..\..\..\u8g2\u8g2\csrc/u8x8_d_uc1601.c **** #ifdef U8X8_WITH_SET_CONTRAST
 270:..\..\..\u8g2\u8g2\csrc/u8x8_d_uc1601.c ****     case U8X8_MSG_DISPLAY_SET_CONTRAST:
 271:..\..\..\u8g2\u8g2\csrc/u8x8_d_uc1601.c ****       u8x8_cad_StartTransfer(u8x8);
 321              		.loc 1 271 0
 322 0058 FFF7FEFF 		bl	u8x8_cad_StartTransfer
 323              	.LVL50:
 272:..\..\..\u8g2\u8g2\csrc/u8x8_d_uc1601.c ****       u8x8_cad_SendCmd(u8x8, 0x081 );
 324              		.loc 1 272 0
 325 005c 8121     		movs	r1, #129
 326 005e 2046     		mov	r0, r4
 327 0060 FFF7FEFF 		bl	u8x8_cad_SendCmd
 328              	.LVL51:
 273:..\..\..\u8g2\u8g2\csrc/u8x8_d_uc1601.c ****       u8x8_cad_SendArg(u8x8, arg_int );	/* uc1601 has range from 0 to 255 */
 329              		.loc 1 273 0
 330 0064 2946     		mov	r1, r5
 331 0066 2046     		mov	r0, r4
 332 0068 FFF7FEFF 		bl	u8x8_cad_SendArg
 333              	.LVL52:
ARM GAS  C:\Users\jesse\AppData\Local\Temp\cccl74bg.s 			page 12


 334              	.L37:
 274:..\..\..\u8g2\u8g2\csrc/u8x8_d_uc1601.c ****       u8x8_cad_EndTransfer(u8x8);
 335              		.loc 1 274 0
 336 006c 2046     		mov	r0, r4
 337 006e FFF7FEFF 		bl	u8x8_cad_EndTransfer
 338              	.LVL53:
 339              	.L36:
 275:..\..\..\u8g2\u8g2\csrc/u8x8_d_uc1601.c ****       break;
 276:..\..\..\u8g2\u8g2\csrc/u8x8_d_uc1601.c **** #endif
 277:..\..\..\u8g2\u8g2\csrc/u8x8_d_uc1601.c ****     case U8X8_MSG_DISPLAY_DRAW_TILE:
 278:..\..\..\u8g2\u8g2\csrc/u8x8_d_uc1601.c ****       u8x8_cad_StartTransfer(u8x8);
 279:..\..\..\u8g2\u8g2\csrc/u8x8_d_uc1601.c ****     
 280:..\..\..\u8g2\u8g2\csrc/u8x8_d_uc1601.c ****       x = ((u8x8_tile_t *)arg_ptr)->x_pos;
 281:..\..\..\u8g2\u8g2\csrc/u8x8_d_uc1601.c ****       x *= 8;
 282:..\..\..\u8g2\u8g2\csrc/u8x8_d_uc1601.c ****       x += u8x8->x_offset;
 283:..\..\..\u8g2\u8g2\csrc/u8x8_d_uc1601.c ****       u8x8_cad_SendCmd(u8x8, 0x010 | (x>>4) );
 284:..\..\..\u8g2\u8g2\csrc/u8x8_d_uc1601.c ****       u8x8_cad_SendCmd(u8x8, 0x000 | ((x&15)));
 285:..\..\..\u8g2\u8g2\csrc/u8x8_d_uc1601.c ****       u8x8_cad_SendCmd(u8x8, 0x0b0 | (((u8x8_tile_t *)arg_ptr)->y_pos));
 286:..\..\..\u8g2\u8g2\csrc/u8x8_d_uc1601.c ****     
 287:..\..\..\u8g2\u8g2\csrc/u8x8_d_uc1601.c ****       c = ((u8x8_tile_t *)arg_ptr)->cnt;
 288:..\..\..\u8g2\u8g2\csrc/u8x8_d_uc1601.c ****       c *= 8;
 289:..\..\..\u8g2\u8g2\csrc/u8x8_d_uc1601.c ****       ptr = ((u8x8_tile_t *)arg_ptr)->tile_ptr;
 290:..\..\..\u8g2\u8g2\csrc/u8x8_d_uc1601.c ****       do
 291:..\..\..\u8g2\u8g2\csrc/u8x8_d_uc1601.c ****       {
 292:..\..\..\u8g2\u8g2\csrc/u8x8_d_uc1601.c **** 	u8x8_cad_SendData(u8x8, c, ptr);	/* note: SendData can not handle more than 255 bytes */
 293:..\..\..\u8g2\u8g2\csrc/u8x8_d_uc1601.c **** 	arg_int--;
 294:..\..\..\u8g2\u8g2\csrc/u8x8_d_uc1601.c ****       } while( arg_int > 0 );
 295:..\..\..\u8g2\u8g2\csrc/u8x8_d_uc1601.c ****       
 296:..\..\..\u8g2\u8g2\csrc/u8x8_d_uc1601.c ****       u8x8_cad_EndTransfer(u8x8);
 297:..\..\..\u8g2\u8g2\csrc/u8x8_d_uc1601.c ****       break;
 298:..\..\..\u8g2\u8g2\csrc/u8x8_d_uc1601.c ****     default:
 299:..\..\..\u8g2\u8g2\csrc/u8x8_d_uc1601.c ****       return 0;
 300:..\..\..\u8g2\u8g2\csrc/u8x8_d_uc1601.c ****   }
 301:..\..\..\u8g2\u8g2\csrc/u8x8_d_uc1601.c ****   return 1;
 340              		.loc 1 301 0
 341 0072 0120     		movs	r0, #1
 275:..\..\..\u8g2\u8g2\csrc/u8x8_d_uc1601.c ****       break;
 342              		.loc 1 275 0
 343 0074 F8BD     		pop	{r3, r4, r5, r6, r7, pc}
 344              	.LVL54:
 345              	.L30:
 278:..\..\..\u8g2\u8g2\csrc/u8x8_d_uc1601.c ****     
 346              		.loc 1 278 0
 347 0076 FFF7FEFF 		bl	u8x8_cad_StartTransfer
 348              	.LVL55:
 282:..\..\..\u8g2\u8g2\csrc/u8x8_d_uc1601.c ****       u8x8_cad_SendCmd(u8x8, 0x010 | (x>>4) );
 349              		.loc 1 282 0
 350 007a 94F82230 		ldrb	r3, [r4, #34]	@ zero_extendqisi2
 280:..\..\..\u8g2\u8g2\csrc/u8x8_d_uc1601.c ****       x *= 8;
 351              		.loc 1 280 0
 352 007e 7E79     		ldrb	r6, [r7, #5]	@ zero_extendqisi2
 353              	.LVL56:
 283:..\..\..\u8g2\u8g2\csrc/u8x8_d_uc1601.c ****       u8x8_cad_SendCmd(u8x8, 0x000 | ((x&15)));
 354              		.loc 1 283 0
 355 0080 2046     		mov	r0, r4
 282:..\..\..\u8g2\u8g2\csrc/u8x8_d_uc1601.c ****       u8x8_cad_SendCmd(u8x8, 0x010 | (x>>4) );
 356              		.loc 1 282 0
ARM GAS  C:\Users\jesse\AppData\Local\Temp\cccl74bg.s 			page 13


 357 0082 03EBC606 		add	r6, r3, r6, lsl #3
 358              	.LVL57:
 359 0086 06F0FF06 		and	r6, r6, #255
 360              	.LVL58:
 283:..\..\..\u8g2\u8g2\csrc/u8x8_d_uc1601.c ****       u8x8_cad_SendCmd(u8x8, 0x000 | ((x&15)));
 361              		.loc 1 283 0
 362 008a 3109     		lsrs	r1, r6, #4
 363 008c 41F01001 		orr	r1, r1, #16
 364 0090 FFF7FEFF 		bl	u8x8_cad_SendCmd
 365              	.LVL59:
 284:..\..\..\u8g2\u8g2\csrc/u8x8_d_uc1601.c ****       u8x8_cad_SendCmd(u8x8, 0x0b0 | (((u8x8_tile_t *)arg_ptr)->y_pos));
 366              		.loc 1 284 0
 367 0094 06F00F01 		and	r1, r6, #15
 368 0098 2046     		mov	r0, r4
 369 009a FFF7FEFF 		bl	u8x8_cad_SendCmd
 370              	.LVL60:
 285:..\..\..\u8g2\u8g2\csrc/u8x8_d_uc1601.c ****     
 371              		.loc 1 285 0
 372 009e B979     		ldrb	r1, [r7, #6]	@ zero_extendqisi2
 373 00a0 2046     		mov	r0, r4
 374 00a2 41F0B001 		orr	r1, r1, #176
 375 00a6 FFF7FEFF 		bl	u8x8_cad_SendCmd
 376              	.LVL61:
 287:..\..\..\u8g2\u8g2\csrc/u8x8_d_uc1601.c ****       c *= 8;
 377              		.loc 1 287 0
 378 00aa 3E79     		ldrb	r6, [r7, #4]	@ zero_extendqisi2
 379              	.LVL62:
 289:..\..\..\u8g2\u8g2\csrc/u8x8_d_uc1601.c ****       do
 380              		.loc 1 289 0
 381 00ac 3F68     		ldr	r7, [r7]
 382              	.LVL63:
 288:..\..\..\u8g2\u8g2\csrc/u8x8_d_uc1601.c ****       ptr = ((u8x8_tile_t *)arg_ptr)->tile_ptr;
 383              		.loc 1 288 0
 384 00ae F600     		lsls	r6, r6, #3
 385              	.LVL64:
 386 00b0 F6B2     		uxtb	r6, r6
 387              	.LVL65:
 388              	.L33:
 292:..\..\..\u8g2\u8g2\csrc/u8x8_d_uc1601.c **** 	arg_int--;
 389              		.loc 1 292 0 discriminator 1
 390 00b2 3A46     		mov	r2, r7
 391 00b4 3146     		mov	r1, r6
 392 00b6 2046     		mov	r0, r4
 293:..\..\..\u8g2\u8g2\csrc/u8x8_d_uc1601.c ****       } while( arg_int > 0 );
 393              		.loc 1 293 0 discriminator 1
 394 00b8 013D     		subs	r5, r5, #1
 395              	.LVL66:
 292:..\..\..\u8g2\u8g2\csrc/u8x8_d_uc1601.c **** 	arg_int--;
 396              		.loc 1 292 0 discriminator 1
 397 00ba FFF7FEFF 		bl	u8x8_cad_SendData
 398              	.LVL67:
 294:..\..\..\u8g2\u8g2\csrc/u8x8_d_uc1601.c ****       
 399              		.loc 1 294 0 discriminator 1
 400 00be 15F0FF05 		ands	r5, r5, #255
 401              	.LVL68:
 402 00c2 F6D1     		bne	.L33
 403 00c4 D2E7     		b	.L37
ARM GAS  C:\Users\jesse\AppData\Local\Temp\cccl74bg.s 			page 14


 404              	.LVL69:
 405              	.L34:
 299:..\..\..\u8g2\u8g2\csrc/u8x8_d_uc1601.c ****   }
 406              		.loc 1 299 0
 407 00c6 0020     		movs	r0, #0
 408              	.LVL70:
 302:..\..\..\u8g2\u8g2\csrc/u8x8_d_uc1601.c **** }
 409              		.loc 1 302 0
 410 00c8 F8BD     		pop	{r3, r4, r5, r6, r7, pc}
 411              	.LVL71:
 412              	.L41:
 413 00ca 00BF     		.align	2
 414              	.L40:
 415 00cc 4C000000 		.word	.LANCHOR0+76
 416 00d0 64000000 		.word	.LANCHOR0+100
 417 00d4 31000000 		.word	.LANCHOR0+49
 418 00d8 36000000 		.word	.LANCHOR0+54
 419 00dc 3B000000 		.word	.LANCHOR0+59
 420 00e0 42000000 		.word	.LANCHOR0+66
 421              		.cfi_endproc
 422              	.LFE1:
 423              		.size	u8x8_d_uc1601_128x64, .-u8x8_d_uc1601_128x64
 424              		.section	.rodata
 425              		.align	2
 426              		.set	.LANCHOR0,. + 0
 427              		.type	u8x8_uc1601_128x32_display_info, %object
 428              		.size	u8x8_uc1601_128x32_display_info, 24
 429              	u8x8_uc1601_128x32_display_info:
 430 0000 00       		.byte	0
 431 0001 01       		.byte	1
 432 0002 01       		.byte	1
 433 0003 05       		.byte	5
 434 0004 01       		.byte	1
 435 0005 06       		.byte	6
 436 0006 0C       		.byte	12
 437 0007 0F       		.byte	15
 438 0008 80841E00 		.word	2000000
 439 000c 00       		.byte	0
 440 000d 01       		.byte	1
 441 000e 3C       		.byte	60
 442 000f 50       		.byte	80
 443 0010 10       		.byte	16
 444 0011 04       		.byte	4
 445 0012 00       		.byte	0
 446 0013 04       		.byte	4
 447 0014 8000     		.short	128
 448 0016 2000     		.short	32
 449              		.type	u8x8_d_uc1601_128x32_init_seq, %object
 450              		.size	u8x8_d_uc1601_128x32_init_seq, 25
 451              	u8x8_d_uc1601_128x32_init_seq:
 452 0018 18       		.byte	24
 453 0019 15       		.byte	21
 454 001a E2       		.byte	-30
 455 001b 15       		.byte	21
 456 001c EB       		.byte	-21
 457 001d 15       		.byte	21
 458 001e 24       		.byte	36
ARM GAS  C:\Users\jesse\AppData\Local\Temp\cccl74bg.s 			page 15


 459 001f 15       		.byte	21
 460 0020 89       		.byte	-119
 461 0021 15       		.byte	21
 462 0022 C4       		.byte	-60
 463 0023 15       		.byte	21
 464 0024 A0       		.byte	-96
 465 0025 15       		.byte	21
 466 0026 81       		.byte	-127
 467 0027 16       		.byte	22
 468 0028 DF       		.byte	-33
 469 0029 15       		.byte	21
 470 002a 2E       		.byte	46
 471 002b 15       		.byte	21
 472 002c 60       		.byte	96
 473 002d 15       		.byte	21
 474 002e A6       		.byte	-90
 475 002f 19       		.byte	25
 476 0030 FF       		.byte	-1
 477              		.type	u8x8_d_uc1601_128x32_powersave0_seq, %object
 478              		.size	u8x8_d_uc1601_128x32_powersave0_seq, 5
 479              	u8x8_d_uc1601_128x32_powersave0_seq:
 480 0031 18       		.byte	24
 481 0032 15       		.byte	21
 482 0033 AF       		.byte	-81
 483 0034 19       		.byte	25
 484 0035 FF       		.byte	-1
 485              		.type	u8x8_d_uc1601_128x32_powersave1_seq, %object
 486              		.size	u8x8_d_uc1601_128x32_powersave1_seq, 5
 487              	u8x8_d_uc1601_128x32_powersave1_seq:
 488 0036 18       		.byte	24
 489 0037 15       		.byte	21
 490 0038 AE       		.byte	-82
 491 0039 19       		.byte	25
 492 003a FF       		.byte	-1
 493              		.type	u8x8_d_uc1601_128x32_flip0_seq, %object
 494              		.size	u8x8_d_uc1601_128x32_flip0_seq, 7
 495              	u8x8_d_uc1601_128x32_flip0_seq:
 496 003b 18       		.byte	24
 497 003c 15       		.byte	21
 498 003d C4       		.byte	-60
 499 003e 15       		.byte	21
 500 003f 60       		.byte	96
 501 0040 19       		.byte	25
 502 0041 FF       		.byte	-1
 503              		.type	u8x8_d_uc1601_128x32_flip1_seq, %object
 504              		.size	u8x8_d_uc1601_128x32_flip1_seq, 7
 505              	u8x8_d_uc1601_128x32_flip1_seq:
 506 0042 18       		.byte	24
 507 0043 15       		.byte	21
 508 0044 C2       		.byte	-62
 509 0045 15       		.byte	21
 510 0046 40       		.byte	64
 511 0047 19       		.byte	25
 512 0048 FF       		.byte	-1
 513 0049 000000   		.space	3
 514              		.type	u8x8_uc1601_128x64_display_info, %object
 515              		.size	u8x8_uc1601_128x64_display_info, 24
ARM GAS  C:\Users\jesse\AppData\Local\Temp\cccl74bg.s 			page 16


 516              	u8x8_uc1601_128x64_display_info:
 517 004c 00       		.byte	0
 518 004d 01       		.byte	1
 519 004e 01       		.byte	1
 520 004f 05       		.byte	5
 521 0050 01       		.byte	1
 522 0051 06       		.byte	6
 523 0052 0C       		.byte	12
 524 0053 0F       		.byte	15
 525 0054 80841E00 		.word	2000000
 526 0058 00       		.byte	0
 527 0059 01       		.byte	1
 528 005a 3C       		.byte	60
 529 005b 50       		.byte	80
 530 005c 10       		.byte	16
 531 005d 08       		.byte	8
 532 005e 02       		.byte	2
 533 005f 04       		.byte	4
 534 0060 8000     		.short	128
 535 0062 4000     		.short	64
 536              		.type	u8x8_d_uc1601_128x64_init_seq, %object
 537              		.size	u8x8_d_uc1601_128x64_init_seq, 25
 538              	u8x8_d_uc1601_128x64_init_seq:
 539 0064 18       		.byte	24
 540 0065 15       		.byte	21
 541 0066 E2       		.byte	-30
 542 0067 15       		.byte	21
 543 0068 EB       		.byte	-21
 544 0069 15       		.byte	21
 545 006a 24       		.byte	36
 546 006b 15       		.byte	21
 547 006c 89       		.byte	-119
 548 006d 15       		.byte	21
 549 006e C4       		.byte	-60
 550 006f 15       		.byte	21
 551 0070 A0       		.byte	-96
 552 0071 15       		.byte	21
 553 0072 81       		.byte	-127
 554 0073 16       		.byte	22
 555 0074 DF       		.byte	-33
 556 0075 15       		.byte	21
 557 0076 2E       		.byte	46
 558 0077 15       		.byte	21
 559 0078 40       		.byte	64
 560 0079 15       		.byte	21
 561 007a A6       		.byte	-90
 562 007b 19       		.byte	25
 563 007c FF       		.byte	-1
 564              		.text
 565              	.Letext0:
 566              		.file 2 "c:\\program files (x86)\\cypress\\psoc creator\\4.4\\psoc creator\\import\\gnu\\arm\\5.4.
 567              		.file 3 "c:\\program files (x86)\\cypress\\psoc creator\\4.4\\psoc creator\\import\\gnu\\arm\\5.4.
 568              		.file 4 "..\\..\\..\\u8g2\\u8g2\\csrc\\u8x8.h"